
NCS36510/BB-GEVK.elf:     file format elf32-littlearm
architecture: arm, flags 0x00000112:
EXEC_P, HAS_SYMS, D_PAGED
start address 0x0011bf4d


Disassembly of section .text:

00102000 <__isr_vector>:
  102000:	3fffd800 	.word	0x3fffd800
  102004:	0011bf4d 	.word	0x0011bf4d
  102008:	0011bf89 	.word	0x0011bf89
  10200c:	0011bf8b 	.word	0x0011bf8b
  102010:	0011bf8d 	.word	0x0011bf8d
  102014:	0011bf8f 	.word	0x0011bf8f
  102018:	0011bf91 	.word	0x0011bf91
	...
  10202c:	00119211 	.word	0x00119211
  102030:	0011bf95 	.word	0x0011bf95
  102034:	00000000 	.word	0x00000000
  102038:	0011927b 	.word	0x0011927b
  10203c:	001192b1 	.word	0x001192b1
  102040:	0011abd5 	.word	0x0011abd5
  102044:	0011ad41 	.word	0x0011ad41
  102048:	0011bf9b 	.word	0x0011bf9b
  10204c:	0011a669 	.word	0x0011a669
  102050:	0011bf9b 	.word	0x0011bf9b
  102054:	0011bf9b 	.word	0x0011bf9b
  102058:	001199dd 	.word	0x001199dd
  10205c:	0011bf9b 	.word	0x0011bf9b
  102060:	0011bf9b 	.word	0x0011bf9b
  102064:	0011bf9b 	.word	0x0011bf9b
  102068:	0011bf9b 	.word	0x0011bf9b
  10206c:	0011bf9b 	.word	0x0011bf9b
  102070:	0011bf9b 	.word	0x0011bf9b
  102074:	0011bf9b 	.word	0x0011bf9b
  102078:	0011bf9b 	.word	0x0011bf9b
  10207c:	0011bf9b 	.word	0x0011bf9b
  102080:	0011bf9b 	.word	0x0011bf9b
  102084:	0011bf9b 	.word	0x0011bf9b
  102088:	0011bf9b 	.word	0x0011bf9b
  10208c:	0011bf9b 	.word	0x0011bf9b
  102090:	3fffd800 	.word	0x3fffd800
  102094:	0011bf4d 	.word	0x0011bf4d
  102098:	0011bf89 	.word	0x0011bf89
  10209c:	0011bf8b 	.word	0x0011bf8b
  1020a0:	0011bf8d 	.word	0x0011bf8d
  1020a4:	0011bf8f 	.word	0x0011bf8f
  1020a8:	0011bf91 	.word	0x0011bf91
	...
  1020bc:	00119211 	.word	0x00119211
  1020c0:	0011bf95 	.word	0x0011bf95
  1020c4:	00000000 	.word	0x00000000
  1020c8:	0011927b 	.word	0x0011927b
  1020cc:	001192b1 	.word	0x001192b1
  1020d0:	0011abd5 	.word	0x0011abd5
  1020d4:	0011ad41 	.word	0x0011ad41
  1020d8:	0011bf9b 	.word	0x0011bf9b
  1020dc:	0011a669 	.word	0x0011a669
  1020e0:	0011bf9b 	.word	0x0011bf9b
  1020e4:	0011bf9b 	.word	0x0011bf9b
  1020e8:	001199dd 	.word	0x001199dd
  1020ec:	0011bf9b 	.word	0x0011bf9b
  1020f0:	0011bf9b 	.word	0x0011bf9b
  1020f4:	0011bf9b 	.word	0x0011bf9b
  1020f8:	0011bf9b 	.word	0x0011bf9b
  1020fc:	0011bf9b 	.word	0x0011bf9b
  102100:	0011bf9b 	.word	0x0011bf9b
  102104:	0011bf9b 	.word	0x0011bf9b
  102108:	0011bf9b 	.word	0x0011bf9b
  10210c:	0011bf9b 	.word	0x0011bf9b
  102110:	0011bf9b 	.word	0x0011bf9b
  102114:	0011bf9b 	.word	0x0011bf9b
  102118:	0011bf9b 	.word	0x0011bf9b
  10211c:	0011bf9b 	.word	0x0011bf9b

00102120 <__do_global_dtors_aux>:
  102120:	b510      	push	{r4, lr}
  102122:	4c05      	ldr	r4, [pc, #20]	; (102138 <__do_global_dtors_aux+0x18>)
  102124:	7823      	ldrb	r3, [r4, #0]
  102126:	b933      	cbnz	r3, 102136 <__do_global_dtors_aux+0x16>
  102128:	4b04      	ldr	r3, [pc, #16]	; (10213c <__do_global_dtors_aux+0x1c>)
  10212a:	b113      	cbz	r3, 102132 <__do_global_dtors_aux+0x12>
  10212c:	4804      	ldr	r0, [pc, #16]	; (102140 <__do_global_dtors_aux+0x20>)
  10212e:	f3af 8000 	nop.w
  102132:	2301      	movs	r3, #1
  102134:	7023      	strb	r3, [r4, #0]
  102136:	bd10      	pop	{r4, pc}
  102138:	3fff4340 	.word	0x3fff4340
  10213c:	00000000 	.word	0x00000000
  102140:	0012a11c 	.word	0x0012a11c

00102144 <frame_dummy>:
  102144:	4b08      	ldr	r3, [pc, #32]	; (102168 <frame_dummy+0x24>)
  102146:	b510      	push	{r4, lr}
  102148:	b11b      	cbz	r3, 102152 <frame_dummy+0xe>
  10214a:	4908      	ldr	r1, [pc, #32]	; (10216c <frame_dummy+0x28>)
  10214c:	4808      	ldr	r0, [pc, #32]	; (102170 <frame_dummy+0x2c>)
  10214e:	f3af 8000 	nop.w
  102152:	4808      	ldr	r0, [pc, #32]	; (102174 <frame_dummy+0x30>)
  102154:	6803      	ldr	r3, [r0, #0]
  102156:	b903      	cbnz	r3, 10215a <frame_dummy+0x16>
  102158:	bd10      	pop	{r4, pc}
  10215a:	4b07      	ldr	r3, [pc, #28]	; (102178 <frame_dummy+0x34>)
  10215c:	2b00      	cmp	r3, #0
  10215e:	d0fb      	beq.n	102158 <frame_dummy+0x14>
  102160:	e8bd 4010 	ldmia.w	sp!, {r4, lr}
  102164:	4718      	bx	r3
  102166:	bf00      	nop
  102168:	00000000 	.word	0x00000000
  10216c:	3fff4344 	.word	0x3fff4344
  102170:	0012a11c 	.word	0x0012a11c
  102174:	3fff4340 	.word	0x3fff4340
  102178:	00000000 	.word	0x00000000

0010217c <get_mac_address>:
  10217c:	f001 b878 	b.w	103270 <get_wifi_mac_address>

00102180 <restore_gateway_info>:
  102180:	b508      	push	{r3, lr}
  102182:	4803      	ldr	r0, [pc, #12]	; (102190 <restore_gateway_info+0x10>)
  102184:	f001 fab4 	bl	1036f0 <dbg_line>
  102188:	f04f 30ff 	mov.w	r0, #4294967295
  10218c:	bd08      	pop	{r3, pc}
  10218e:	bf00      	nop
  102190:	00124298 	.word	0x00124298

00102194 <save_gateway_info>:
  102194:	b530      	push	{r4, r5, lr}
  102196:	4605      	mov	r5, r0
  102198:	f5ad 7d01 	sub.w	sp, sp, #516	; 0x204
  10219c:	4811      	ldr	r0, [pc, #68]	; (1021e4 <save_gateway_info+0x50>)
  10219e:	f001 faa7 	bl	1036f0 <dbg_line>
  1021a2:	f000 ff4b 	bl	10303c <flash_read>
  1021a6:	4601      	mov	r1, r0
  1021a8:	480f      	ldr	r0, [pc, #60]	; (1021e8 <save_gateway_info+0x54>)
  1021aa:	f001 faa1 	bl	1036f0 <dbg_line>
  1021ae:	f000 ff45 	bl	10303c <flash_read>
  1021b2:	f44f 7400 	mov.w	r4, #512	; 0x200
  1021b6:	4622      	mov	r2, r4
  1021b8:	4601      	mov	r1, r0
  1021ba:	4668      	mov	r0, sp
  1021bc:	f01b fefd 	bl	11dfba <memcpy>
  1021c0:	6969      	ldr	r1, [r5, #20]
  1021c2:	a840      	add	r0, sp, #256	; 0x100
  1021c4:	f01d febe 	bl	11ff44 <strcpy>
  1021c8:	4b08      	ldr	r3, [pc, #32]	; (1021ec <save_gateway_info+0x58>)
  1021ca:	4621      	mov	r1, r4
  1021cc:	4668      	mov	r0, sp
  1021ce:	9300      	str	r3, [sp, #0]
  1021d0:	f000 ff50 	bl	103074 <flash_write>
  1021d4:	4601      	mov	r1, r0
  1021d6:	4806      	ldr	r0, [pc, #24]	; (1021f0 <save_gateway_info+0x5c>)
  1021d8:	f001 fa8a 	bl	1036f0 <dbg_line>
  1021dc:	f50d 7d01 	add.w	sp, sp, #516	; 0x204
  1021e0:	bd30      	pop	{r4, r5, pc}
  1021e2:	bf00      	nop
  1021e4:	001242ad 	.word	0x001242ad
  1021e8:	001242be 	.word	0x001242be
  1021ec:	deadbeaf 	.word	0xdeadbeaf
  1021f0:	001242ca 	.word	0x001242ca

001021f4 <restore_device_info>:
  1021f4:	b508      	push	{r3, lr}
  1021f6:	4803      	ldr	r0, [pc, #12]	; (102204 <restore_device_info+0x10>)
  1021f8:	f001 fa7a 	bl	1036f0 <dbg_line>
  1021fc:	f04f 30ff 	mov.w	r0, #4294967295
  102200:	bd08      	pop	{r3, pc}
  102202:	bf00      	nop
  102204:	001242d9 	.word	0x001242d9

00102208 <save_device_info>:
  102208:	b530      	push	{r4, r5, lr}
  10220a:	f5ad 7d01 	sub.w	sp, sp, #516	; 0x204
  10220e:	4605      	mov	r5, r0
  102210:	f000 ff14 	bl	10303c <flash_read>
  102214:	f44f 7400 	mov.w	r4, #512	; 0x200
  102218:	4622      	mov	r2, r4
  10221a:	4601      	mov	r1, r0
  10221c:	4668      	mov	r0, sp
  10221e:	f01b fecc 	bl	11dfba <memcpy>
  102222:	68e9      	ldr	r1, [r5, #12]
  102224:	a850      	add	r0, sp, #320	; 0x140
  102226:	f01d fe8d 	bl	11ff44 <strcpy>
  10222a:	4621      	mov	r1, r4
  10222c:	4668      	mov	r0, sp
  10222e:	f000 ff21 	bl	103074 <flash_write>
  102232:	f50d 7d01 	add.w	sp, sp, #516	; 0x204
  102236:	bd30      	pop	{r4, r5, pc}

00102238 <gethostbyname>:
  102238:	b537      	push	{r0, r1, r2, r4, r5, lr}
  10223a:	2400      	movs	r4, #0
  10223c:	a902      	add	r1, sp, #8
  10223e:	f841 4d04 	str.w	r4, [r1, #-4]!
  102242:	4605      	mov	r5, r0
  102244:	f001 f84c 	bl	1032e0 <wifi_gethostbyname>
  102248:	42a0      	cmp	r0, r4
  10224a:	db10      	blt.n	10226e <gethostbyname+0x36>
  10224c:	4809      	ldr	r0, [pc, #36]	; (102274 <gethostbyname+0x3c>)
  10224e:	4b0a      	ldr	r3, [pc, #40]	; (102278 <gethostbyname+0x40>)
  102250:	9a01      	ldr	r2, [sp, #4]
  102252:	490a      	ldr	r1, [pc, #40]	; (10227c <gethostbyname+0x44>)
  102254:	601a      	str	r2, [r3, #0]
  102256:	6041      	str	r1, [r0, #4]
  102258:	4a09      	ldr	r2, [pc, #36]	; (102280 <gethostbyname+0x48>)
  10225a:	2102      	movs	r1, #2
  10225c:	6081      	str	r1, [r0, #8]
  10225e:	2104      	movs	r1, #4
  102260:	e882 0018 	stmia.w	r2, {r3, r4}
  102264:	6005      	str	r5, [r0, #0]
  102266:	60c1      	str	r1, [r0, #12]
  102268:	6102      	str	r2, [r0, #16]
  10226a:	6143      	str	r3, [r0, #20]
  10226c:	e000      	b.n	102270 <gethostbyname+0x38>
  10226e:	4620      	mov	r0, r4
  102270:	b003      	add	sp, #12
  102272:	bd30      	pop	{r4, r5, pc}
  102274:	3fff436c 	.word	0x3fff436c
  102278:	3fff435c 	.word	0x3fff435c
  10227c:	3fff4368 	.word	0x3fff4368
  102280:	3fff4360 	.word	0x3fff4360

00102284 <socket>:
  102284:	f001 b836 	b.w	1032f4 <wifi_socket>

00102288 <soc_close>:
  102288:	f001 b87e 	b.w	103388 <wifi_socket_close>

0010228c <send>:
  10228c:	f001 b896 	b.w	1033bc <wifi_socket_send>

00102290 <sendto>:
  102290:	b410      	push	{r4}
  102292:	9c02      	ldr	r4, [sp, #8]
  102294:	9b01      	ldr	r3, [sp, #4]
  102296:	9401      	str	r4, [sp, #4]
  102298:	bc10      	pop	{r4}
  10229a:	f001 b8ab 	b.w	1033f4 <wifi_socket_sendto>

0010229e <recv>:
  10229e:	f001 b89b 	b.w	1033d8 <wifi_socket_recv>

001022a2 <recvfrom>:
  1022a2:	b410      	push	{r4}
  1022a4:	9c02      	ldr	r4, [sp, #8]
  1022a6:	9b01      	ldr	r3, [sp, #4]
  1022a8:	9401      	str	r4, [sp, #4]
  1022aa:	bc10      	pop	{r4}
  1022ac:	f001 b8de 	b.w	10346c <wifi_socket_recvfrom>

001022b0 <connect>:
  1022b0:	f001 b926 	b.w	103500 <wifi_socket_connect>

001022b4 <setsockopt>:
  1022b4:	f001 b94c 	b.w	103550 <wifi_socket_setopt>

001022b8 <telemetry_serialize>:
  1022b8:	b570      	push	{r4, r5, r6, lr}
  1022ba:	460d      	mov	r5, r1
  1022bc:	4606      	mov	r6, r0
  1022be:	f007 fc01 	bl	109ac4 <json_mkobject>
  1022c2:	4604      	mov	r4, r0
  1022c4:	68f0      	ldr	r0, [r6, #12]
  1022c6:	f007 fbe8 	bl	109a9a <json_mkstring>
  1022ca:	4916      	ldr	r1, [pc, #88]	; (102324 <telemetry_serialize+0x6c>)
  1022cc:	4602      	mov	r2, r0
  1022ce:	4620      	mov	r0, r4
  1022d0:	f007 fc20 	bl	109b14 <json_append_member>
  1022d4:	6828      	ldr	r0, [r5, #0]
  1022d6:	f01a f99b 	bl	11c610 <__aeabi_i2d>
  1022da:	f007 fbe7 	bl	109aac <json_mknumber>
  1022de:	4912      	ldr	r1, [pc, #72]	; (102328 <telemetry_serialize+0x70>)
  1022e0:	4602      	mov	r2, r0
  1022e2:	4620      	mov	r0, r4
  1022e4:	f007 fc16 	bl	109b14 <json_append_member>
  1022e8:	6868      	ldr	r0, [r5, #4]
  1022ea:	f01a f9a3 	bl	11c634 <__aeabi_f2d>
  1022ee:	f007 fbdd 	bl	109aac <json_mknumber>
  1022f2:	490e      	ldr	r1, [pc, #56]	; (10232c <telemetry_serialize+0x74>)
  1022f4:	4602      	mov	r2, r0
  1022f6:	4620      	mov	r0, r4
  1022f8:	f007 fc0c 	bl	109b14 <json_append_member>
  1022fc:	68a8      	ldr	r0, [r5, #8]
  1022fe:	f01a f987 	bl	11c610 <__aeabi_i2d>
  102302:	f007 fbd3 	bl	109aac <json_mknumber>
  102306:	490a      	ldr	r1, [pc, #40]	; (102330 <telemetry_serialize+0x78>)
  102308:	4602      	mov	r2, r0
  10230a:	4620      	mov	r0, r4
  10230c:	f007 fc02 	bl	109b14 <json_append_member>
  102310:	4620      	mov	r0, r4
  102312:	f007 fb9f 	bl	109a54 <json_encode>
  102316:	4605      	mov	r5, r0
  102318:	4620      	mov	r0, r4
  10231a:	f007 fc3d 	bl	109b98 <json_delete>
  10231e:	4628      	mov	r0, r5
  102320:	bd70      	pop	{r4, r5, r6, pc}
  102322:	bf00      	nop
  102324:	00124303 	.word	0x00124303
  102328:	0012430f 	.word	0x0012430f
  10232c:	00124315 	.word	0x00124315
  102330:	0012431b 	.word	0x0012431b

00102334 <mbed::SerialBase::~SerialBase()>:
  102334:	4770      	bx	lr

00102336 <mbed::SPI::~SPI()>:
  102336:	4770      	bx	lr

00102338 <__tcf_0>:
  102338:	b538      	push	{r3, r4, r5, lr}
  10233a:	4d06      	ldr	r5, [pc, #24]	; (102354 <__tcf_0+0x1c>)
  10233c:	2400      	movs	r4, #0
  10233e:	f504 70b4 	add.w	r0, r4, #360	; 0x168
  102342:	4428      	add	r0, r5
  102344:	3c18      	subs	r4, #24
  102346:	f019 fe49 	bl	11bfdc <std::__cxx11::basic_string<char, std::char_traits<char>, std::allocator<char> >::_M_dispose()>
  10234a:	f514 7fc0 	cmn.w	r4, #384	; 0x180
  10234e:	d1f6      	bne.n	10233e <__tcf_0+0x6>
  102350:	bd38      	pop	{r3, r4, r5, pc}
  102352:	bf00      	nop
  102354:	3fff4384 	.word	0x3fff4384

00102358 <mbed::SerialBase::~SerialBase()>:
  102358:	b510      	push	{r4, lr}
  10235a:	4604      	mov	r4, r0
  10235c:	f019 fe25 	bl	11bfaa <operator delete(void*)>
  102360:	4620      	mov	r0, r4
  102362:	bd10      	pop	{r4, pc}

00102364 <Arrow_Motor::~Arrow_Motor()>:
  102364:	b570      	push	{r4, r5, r6, lr}
  102366:	4604      	mov	r4, r0
  102368:	4605      	mov	r5, r0
  10236a:	4b0b      	ldr	r3, [pc, #44]	; (102398 <Arrow_Motor::~Arrow_Motor()+0x34>)
  10236c:	f844 3b04 	str.w	r3, [r4], #4
  102370:	4620      	mov	r0, r4
  102372:	f002 ff75 	bl	105260 <AMIS30543D::disable()>
  102376:	f105 0088 	add.w	r0, r5, #136	; 0x88
  10237a:	f002 ff71 	bl	105260 <AMIS30543D::disable()>
  10237e:	b14c      	cbz	r4, 102394 <Arrow_Motor::~Arrow_Motor()+0x30>
  102380:	f505 7686 	add.w	r6, r5, #268	; 0x10c
  102384:	42a6      	cmp	r6, r4
  102386:	d005      	beq.n	102394 <Arrow_Motor::~Arrow_Motor()+0x30>
  102388:	3e84      	subs	r6, #132	; 0x84
  10238a:	f106 0014 	add.w	r0, r6, #20
  10238e:	f006 f87d 	bl	10848c <PCA9655E::~PCA9655E()>
  102392:	e7f7      	b.n	102384 <Arrow_Motor::~Arrow_Motor()+0x20>
  102394:	4628      	mov	r0, r5
  102396:	bd70      	pop	{r4, r5, r6, pc}
  102398:	0012432c 	.word	0x0012432c

0010239c <Arrow_Motor::~Arrow_Motor()>:
  10239c:	b510      	push	{r4, lr}
  10239e:	4604      	mov	r4, r0
  1023a0:	f7ff ffe0 	bl	102364 <Arrow_Motor::~Arrow_Motor()>
  1023a4:	4620      	mov	r0, r4
  1023a6:	f019 fe00 	bl	11bfaa <operator delete(void*)>
  1023aa:	4620      	mov	r0, r4
  1023ac:	bd10      	pop	{r4, pc}
	...

001023b0 <mbed::Serial::~Serial()>:
  1023b0:	b510      	push	{r4, lr}
  1023b2:	4604      	mov	r4, r0
  1023b4:	4b06      	ldr	r3, [pc, #24]	; (1023d0 <mbed::Serial::~Serial()+0x20>)
  1023b6:	3040      	adds	r0, #64	; 0x40
  1023b8:	f103 0218 	add.w	r2, r3, #24
  1023bc:	f840 3c40 	str.w	r3, [r0, #-64]
  1023c0:	334c      	adds	r3, #76	; 0x4c
  1023c2:	6002      	str	r2, [r0, #0]
  1023c4:	6043      	str	r3, [r0, #4]
  1023c6:	f019 fbd9 	bl	11bb7c <mbed::Stream::~Stream()>
  1023ca:	4620      	mov	r0, r4
  1023cc:	bd10      	pop	{r4, pc}
  1023ce:	bf00      	nop
  1023d0:	00129924 	.word	0x00129924

001023d4 <non-virtual thunk to mbed::Serial::~Serial()>:
  1023d4:	f1a0 0040 	sub.w	r0, r0, #64	; 0x40
  1023d8:	e7ea      	b.n	1023b0 <mbed::Serial::~Serial()>

001023da <non-virtual thunk to mbed::Serial::~Serial()>:
  1023da:	f1a0 0044 	sub.w	r0, r0, #68	; 0x44
  1023de:	e7e7      	b.n	1023b0 <mbed::Serial::~Serial()>

001023e0 <std::__cxx11::basic_string<char, std::char_traits<char>, std::allocator<char> >::basic_string(char const*, std::allocator<char> const&) [clone .isra.14] [clone .constprop.16]>:
  1023e0:	b510      	push	{r4, lr}
  1023e2:	4604      	mov	r4, r0
  1023e4:	4a05      	ldr	r2, [pc, #20]	; (1023fc <std::__cxx11::basic_string<char, std::char_traits<char>, std::allocator<char> >::basic_string(char const*, std::allocator<char> const&) [clone .isra.14] [clone .constprop.16]+0x1c>)
  1023e6:	3008      	adds	r0, #8
  1023e8:	6020      	str	r0, [r4, #0]
  1023ea:	4611      	mov	r1, r2
  1023ec:	f019 fe07 	bl	11bffe <std::__cxx11::basic_string<char, std::char_traits<char>, std::allocator<char> >::_S_copy_chars(char*, char const*, char const*)>
  1023f0:	6822      	ldr	r2, [r4, #0]
  1023f2:	2300      	movs	r3, #0
  1023f4:	6063      	str	r3, [r4, #4]
  1023f6:	7013      	strb	r3, [r2, #0]
  1023f8:	4620      	mov	r0, r4
  1023fa:	bd10      	pop	{r4, pc}
  1023fc:	0012646d 	.word	0x0012646d

00102400 <mbed::SPI::~SPI()>:
  102400:	b510      	push	{r4, lr}
  102402:	4604      	mov	r4, r0
  102404:	f019 fdd1 	bl	11bfaa <operator delete(void*)>
  102408:	4620      	mov	r0, r4
  10240a:	bd10      	pop	{r4, pc}

0010240c <Arrow_Motor::Arrow_Motor()>:
  10240c:	b510      	push	{r4, lr}
  10240e:	4604      	mov	r4, r0
  102410:	4b06      	ldr	r3, [pc, #24]	; (10242c <Arrow_Motor::Arrow_Motor()+0x20>)
  102412:	2100      	movs	r1, #0
  102414:	f840 3b04 	str.w	r3, [r0], #4
  102418:	f002 fc5c 	bl	104cd4 <AMIS30543D::AMIS30543D(MOTOR_T)>
  10241c:	2101      	movs	r1, #1
  10241e:	f104 0088 	add.w	r0, r4, #136	; 0x88
  102422:	f002 fc57 	bl	104cd4 <AMIS30543D::AMIS30543D(MOTOR_T)>
  102426:	4620      	mov	r0, r4
  102428:	bd10      	pop	{r4, pc}
  10242a:	bf00      	nop
  10242c:	0012432c 	.word	0x0012432c

00102430 <Arrow_Motor::disable(MOTOR_T)>:
  102430:	2384      	movs	r3, #132	; 0x84
  102432:	fb03 0001 	mla	r0, r3, r1, r0
  102436:	3004      	adds	r0, #4
  102438:	f002 bf12 	b.w	105260 <AMIS30543D::disable()>

0010243c <Arrow_Motor::setMode(MOTOR_T, STEPPER_MODE_T)>:
  10243c:	2384      	movs	r3, #132	; 0x84
  10243e:	fb03 0001 	mla	r0, r3, r1, r0
  102442:	b510      	push	{r4, lr}
  102444:	4611      	mov	r1, r2
  102446:	3004      	adds	r0, #4
  102448:	f002 fda2 	bl	104f90 <AMIS30543D::setStepperMode(STEPPER_MODE_T)>
  10244c:	4604      	mov	r4, r0
  10244e:	b130      	cbz	r0, 10245e <Arrow_Motor::setMode(MOTOR_T, STEPPER_MODE_T)+0x22>
  102450:	4601      	mov	r1, r0
  102452:	4805      	ldr	r0, [pc, #20]	; (102468 <Arrow_Motor::setMode(MOTOR_T, STEPPER_MODE_T)+0x2c>)
  102454:	f001 f94c 	bl	1036f0 <dbg_line>
  102458:	f04f 30ff 	mov.w	r0, #4294967295
  10245c:	bd10      	pop	{r4, pc}
  10245e:	4803      	ldr	r0, [pc, #12]	; (10246c <Arrow_Motor::setMode(MOTOR_T, STEPPER_MODE_T)+0x30>)
  102460:	f001 f946 	bl	1036f0 <dbg_line>
  102464:	4620      	mov	r0, r4
  102466:	bd10      	pop	{r4, pc}
  102468:	00124334 	.word	0x00124334
  10246c:	00124383 	.word	0x00124383

00102470 <Arrow_Motor::enable(MOTOR_T)>:
  102470:	b570      	push	{r4, r5, r6, lr}
  102472:	2484      	movs	r4, #132	; 0x84
  102474:	fb04 0401 	mla	r4, r4, r1, r0
  102478:	3404      	adds	r4, #4
  10247a:	4605      	mov	r5, r0
  10247c:	4620      	mov	r0, r4
  10247e:	460e      	mov	r6, r1
  102480:	f002 fca8 	bl	104dd4 <AMIS30543D::enable()>
  102484:	4601      	mov	r1, r0
  102486:	b108      	cbz	r0, 10248c <Arrow_Motor::enable(MOTOR_T)+0x1c>
  102488:	4811      	ldr	r0, [pc, #68]	; (1024d0 <Arrow_Motor::enable(MOTOR_T)+0x60>)
  10248a:	e012      	b.n	1024b2 <Arrow_Motor::enable(MOTOR_T)+0x42>
  10248c:	4811      	ldr	r0, [pc, #68]	; (1024d4 <Arrow_Motor::enable(MOTOR_T)+0x64>)
  10248e:	f001 f92f 	bl	1036f0 <dbg_line>
  102492:	4620      	mov	r0, r4
  102494:	f003 f82a 	bl	1054ec <AMIS30543D::checkStprErrorOut()>
  102498:	b108      	cbz	r0, 10249e <Arrow_Motor::enable(MOTOR_T)+0x2e>
  10249a:	480f      	ldr	r0, [pc, #60]	; (1024d8 <Arrow_Motor::enable(MOTOR_T)+0x68>)
  10249c:	e000      	b.n	1024a0 <Arrow_Motor::enable(MOTOR_T)+0x30>
  10249e:	480f      	ldr	r0, [pc, #60]	; (1024dc <Arrow_Motor::enable(MOTOR_T)+0x6c>)
  1024a0:	f001 f926 	bl	1036f0 <dbg_line>
  1024a4:	2109      	movs	r1, #9
  1024a6:	4620      	mov	r0, r4
  1024a8:	f002 fd38 	bl	104f1c <AMIS30543D::setMcPeakCurr(unsigned char)>
  1024ac:	4601      	mov	r1, r0
  1024ae:	b128      	cbz	r0, 1024bc <Arrow_Motor::enable(MOTOR_T)+0x4c>
  1024b0:	480b      	ldr	r0, [pc, #44]	; (1024e0 <Arrow_Motor::enable(MOTOR_T)+0x70>)
  1024b2:	f001 f91d 	bl	1036f0 <dbg_line>
  1024b6:	f04f 30ff 	mov.w	r0, #4294967295
  1024ba:	bd70      	pop	{r4, r5, r6, pc}
  1024bc:	4809      	ldr	r0, [pc, #36]	; (1024e4 <Arrow_Motor::enable(MOTOR_T)+0x74>)
  1024be:	f001 f917 	bl	1036f0 <dbg_line>
  1024c2:	4631      	mov	r1, r6
  1024c4:	4628      	mov	r0, r5
  1024c6:	e8bd 4070 	ldmia.w	sp!, {r4, r5, r6, lr}
  1024ca:	2203      	movs	r2, #3
  1024cc:	f7ff bfb6 	b.w	10243c <Arrow_Motor::setMode(MOTOR_T, STEPPER_MODE_T)>
  1024d0:	001243c7 	.word	0x001243c7
  1024d4:	0012440c 	.word	0x0012440c
  1024d8:	00124446 	.word	0x00124446
  1024dc:	0012448c 	.word	0x0012448c
  1024e0:	001244ac 	.word	0x001244ac
  1024e4:	00124506 	.word	0x00124506

001024e8 <Arrow_Motor::rotate(MOTOR_T, int)>:
  1024e8:	b570      	push	{r4, r5, r6, lr}
  1024ea:	460c      	mov	r4, r1
  1024ec:	4606      	mov	r6, r0
  1024ee:	4610      	mov	r0, r2
  1024f0:	4615      	mov	r5, r2
  1024f2:	f01a fcf5 	bl	11cee0 <__aeabi_i2f>
  1024f6:	2184      	movs	r1, #132	; 0x84
  1024f8:	fb01 6404 	mla	r4, r1, r4, r6
  1024fc:	4601      	mov	r1, r0
  1024fe:	1d20      	adds	r0, r4, #4
  102500:	f002 fe46 	bl	105190 <AMIS30543D::rotateAngle(float)>
  102504:	4604      	mov	r4, r0
  102506:	b138      	cbz	r0, 102518 <Arrow_Motor::rotate(MOTOR_T, int)+0x30>
  102508:	4602      	mov	r2, r0
  10250a:	4629      	mov	r1, r5
  10250c:	4805      	ldr	r0, [pc, #20]	; (102524 <Arrow_Motor::rotate(MOTOR_T, int)+0x3c>)
  10250e:	f001 f8ef 	bl	1036f0 <dbg_line>
  102512:	f04f 30ff 	mov.w	r0, #4294967295
  102516:	bd70      	pop	{r4, r5, r6, pc}
  102518:	4629      	mov	r1, r5
  10251a:	4803      	ldr	r0, [pc, #12]	; (102528 <Arrow_Motor::rotate(MOTOR_T, int)+0x40>)
  10251c:	f001 f8e8 	bl	1036f0 <dbg_line>
  102520:	4620      	mov	r0, r4
  102522:	bd70      	pop	{r4, r5, r6, pc}
  102524:	001245d6 	.word	0x001245d6
  102528:	00124618 	.word	0x00124618

0010252c <mbed::Serial::~Serial()>:
  10252c:	b510      	push	{r4, lr}
  10252e:	4604      	mov	r4, r0
  102530:	f7ff ff3e 	bl	1023b0 <mbed::Serial::~Serial()>
  102534:	4620      	mov	r0, r4
  102536:	f019 fd38 	bl	11bfaa <operator delete(void*)>
  10253a:	4620      	mov	r0, r4
  10253c:	bd10      	pop	{r4, pc}

0010253e <non-virtual thunk to mbed::Serial::~Serial()>:
  10253e:	f1a0 0040 	sub.w	r0, r0, #64	; 0x40
  102542:	e7f3      	b.n	10252c <mbed::Serial::~Serial()>

00102544 <non-virtual thunk to mbed::Serial::~Serial()>:
  102544:	f1a0 0044 	sub.w	r0, r0, #68	; 0x44
  102548:	e7f0      	b.n	10252c <mbed::Serial::~Serial()>
	...

0010254c <_GLOBAL__sub_I_TOUCH_LC717A00_mode>:
  10254c:	b507      	push	{r0, r1, r2, lr}
  10254e:	482d      	ldr	r0, [pc, #180]	; (102604 <_GLOBAL__sub_I_TOUCH_LC717A00_mode+0xb8>)
  102550:	f7ff ff46 	bl	1023e0 <std::__cxx11::basic_string<char, std::char_traits<char>, std::allocator<char> >::basic_string(char const*, std::allocator<char> const&) [clone .isra.14] [clone .constprop.16]>
  102554:	4a2c      	ldr	r2, [pc, #176]	; (102608 <_GLOBAL__sub_I_TOUCH_LC717A00_mode+0xbc>)
  102556:	492d      	ldr	r1, [pc, #180]	; (10260c <_GLOBAL__sub_I_TOUCH_LC717A00_mode+0xc0>)
  102558:	482a      	ldr	r0, [pc, #168]	; (102604 <_GLOBAL__sub_I_TOUCH_LC717A00_mode+0xb8>)
  10255a:	f019 fd21 	bl	11bfa0 <__aeabi_atexit>
  10255e:	4b2c      	ldr	r3, [pc, #176]	; (102610 <_GLOBAL__sub_I_TOUCH_LC717A00_mode+0xc4>)
  102560:	2200      	movs	r2, #0
  102562:	f503 70c0 	add.w	r0, r3, #384	; 0x180
  102566:	4619      	mov	r1, r3
  102568:	f843 2c04 	str.w	r2, [r3, #-4]
  10256c:	f843 3c08 	str.w	r3, [r3, #-8]
  102570:	f801 2b18 	strb.w	r2, [r1], #24
  102574:	6119      	str	r1, [r3, #16]
  102576:	615a      	str	r2, [r3, #20]
  102578:	761a      	strb	r2, [r3, #24]
  10257a:	3330      	adds	r3, #48	; 0x30
  10257c:	4283      	cmp	r3, r0
  10257e:	d1f2      	bne.n	102566 <_GLOBAL__sub_I_TOUCH_LC717A00_mode+0x1a>
  102580:	4a21      	ldr	r2, [pc, #132]	; (102608 <_GLOBAL__sub_I_TOUCH_LC717A00_mode+0xbc>)
  102582:	4924      	ldr	r1, [pc, #144]	; (102614 <_GLOBAL__sub_I_TOUCH_LC717A00_mode+0xc8>)
  102584:	2000      	movs	r0, #0
  102586:	f019 fd0b 	bl	11bfa0 <__aeabi_atexit>
  10258a:	4823      	ldr	r0, [pc, #140]	; (102618 <_GLOBAL__sub_I_TOUCH_LC717A00_mode+0xcc>)
  10258c:	f7ff ff28 	bl	1023e0 <std::__cxx11::basic_string<char, std::char_traits<char>, std::allocator<char> >::basic_string(char const*, std::allocator<char> const&) [clone .isra.14] [clone .constprop.16]>
  102590:	4a1d      	ldr	r2, [pc, #116]	; (102608 <_GLOBAL__sub_I_TOUCH_LC717A00_mode+0xbc>)
  102592:	491e      	ldr	r1, [pc, #120]	; (10260c <_GLOBAL__sub_I_TOUCH_LC717A00_mode+0xc0>)
  102594:	4820      	ldr	r0, [pc, #128]	; (102618 <_GLOBAL__sub_I_TOUCH_LC717A00_mode+0xcc>)
  102596:	f019 fd03 	bl	11bfa0 <__aeabi_atexit>
  10259a:	4820      	ldr	r0, [pc, #128]	; (10261c <_GLOBAL__sub_I_TOUCH_LC717A00_mode+0xd0>)
  10259c:	f7ff ff20 	bl	1023e0 <std::__cxx11::basic_string<char, std::char_traits<char>, std::allocator<char> >::basic_string(char const*, std::allocator<char> const&) [clone .isra.14] [clone .constprop.16]>
  1025a0:	4a19      	ldr	r2, [pc, #100]	; (102608 <_GLOBAL__sub_I_TOUCH_LC717A00_mode+0xbc>)
  1025a2:	491a      	ldr	r1, [pc, #104]	; (10260c <_GLOBAL__sub_I_TOUCH_LC717A00_mode+0xc0>)
  1025a4:	481d      	ldr	r0, [pc, #116]	; (10261c <_GLOBAL__sub_I_TOUCH_LC717A00_mode+0xd0>)
  1025a6:	f019 fcfb 	bl	11bfa0 <__aeabi_atexit>
  1025aa:	481d      	ldr	r0, [pc, #116]	; (102620 <_GLOBAL__sub_I_TOUCH_LC717A00_mode+0xd4>)
  1025ac:	f7ff ff18 	bl	1023e0 <std::__cxx11::basic_string<char, std::char_traits<char>, std::allocator<char> >::basic_string(char const*, std::allocator<char> const&) [clone .isra.14] [clone .constprop.16]>
  1025b0:	4a15      	ldr	r2, [pc, #84]	; (102608 <_GLOBAL__sub_I_TOUCH_LC717A00_mode+0xbc>)
  1025b2:	4916      	ldr	r1, [pc, #88]	; (10260c <_GLOBAL__sub_I_TOUCH_LC717A00_mode+0xc0>)
  1025b4:	481a      	ldr	r0, [pc, #104]	; (102620 <_GLOBAL__sub_I_TOUCH_LC717A00_mode+0xd4>)
  1025b6:	f019 fcf3 	bl	11bfa0 <__aeabi_atexit>
  1025ba:	f04f 33ff 	mov.w	r3, #4294967295
  1025be:	9300      	str	r3, [sp, #0]
  1025c0:	2240      	movs	r2, #64	; 0x40
  1025c2:	2310      	movs	r3, #16
  1025c4:	2120      	movs	r1, #32
  1025c6:	4817      	ldr	r0, [pc, #92]	; (102624 <_GLOBAL__sub_I_TOUCH_LC717A00_mode+0xd8>)
  1025c8:	f019 fa0e 	bl	11b9e8 <mbed::SPI::SPI(PinName, PinName, PinName, PinName)>
  1025cc:	4a0e      	ldr	r2, [pc, #56]	; (102608 <_GLOBAL__sub_I_TOUCH_LC717A00_mode+0xbc>)
  1025ce:	4916      	ldr	r1, [pc, #88]	; (102628 <_GLOBAL__sub_I_TOUCH_LC717A00_mode+0xdc>)
  1025d0:	4814      	ldr	r0, [pc, #80]	; (102624 <_GLOBAL__sub_I_TOUCH_LC717A00_mode+0xd8>)
  1025d2:	f019 fce5 	bl	11bfa0 <__aeabi_atexit>
  1025d6:	2300      	movs	r3, #0
  1025d8:	2202      	movs	r2, #2
  1025da:	2101      	movs	r1, #1
  1025dc:	4813      	ldr	r0, [pc, #76]	; (10262c <_GLOBAL__sub_I_TOUCH_LC717A00_mode+0xe0>)
  1025de:	f019 f94d 	bl	11b87c <mbed::Serial::Serial(PinName, PinName, char const*)>
  1025e2:	4a09      	ldr	r2, [pc, #36]	; (102608 <_GLOBAL__sub_I_TOUCH_LC717A00_mode+0xbc>)
  1025e4:	4912      	ldr	r1, [pc, #72]	; (102630 <_GLOBAL__sub_I_TOUCH_LC717A00_mode+0xe4>)
  1025e6:	4811      	ldr	r0, [pc, #68]	; (10262c <_GLOBAL__sub_I_TOUCH_LC717A00_mode+0xe0>)
  1025e8:	f019 fcda 	bl	11bfa0 <__aeabi_atexit>
  1025ec:	4811      	ldr	r0, [pc, #68]	; (102634 <_GLOBAL__sub_I_TOUCH_LC717A00_mode+0xe8>)
  1025ee:	f014 ff03 	bl	1173f8 <rtos::Mutex::Mutex()>
  1025f2:	4a05      	ldr	r2, [pc, #20]	; (102608 <_GLOBAL__sub_I_TOUCH_LC717A00_mode+0xbc>)
  1025f4:	4910      	ldr	r1, [pc, #64]	; (102638 <_GLOBAL__sub_I_TOUCH_LC717A00_mode+0xec>)
  1025f6:	480f      	ldr	r0, [pc, #60]	; (102634 <_GLOBAL__sub_I_TOUCH_LC717A00_mode+0xe8>)
  1025f8:	b003      	add	sp, #12
  1025fa:	f85d eb04 	ldr.w	lr, [sp], #4
  1025fe:	f019 bccf 	b.w	11bfa0 <__aeabi_atexit>
  102602:	bf00      	nop
  102604:	3fff4504 	.word	0x3fff4504
  102608:	3fff4000 	.word	0x3fff4000
  10260c:	0011c009 	.word	0x0011c009
  102610:	3fff438c 	.word	0x3fff438c
  102614:	00102339 	.word	0x00102339
  102618:	3fff4534 	.word	0x3fff4534
  10261c:	3fff451c 	.word	0x3fff451c
  102620:	3fff45b8 	.word	0x3fff45b8
  102624:	3fff45d0 	.word	0x3fff45d0
  102628:	00102337 	.word	0x00102337
  10262c:	3fff454c 	.word	0x3fff454c
  102630:	001023b1 	.word	0x001023b1
  102634:	3fff45a4 	.word	0x3fff45a4
  102638:	00117481 	.word	0x00117481

0010263c <__tcf_0>:
  10263c:	b538      	push	{r3, r4, r5, lr}
  10263e:	4d06      	ldr	r5, [pc, #24]	; (102658 <__tcf_0+0x1c>)
  102640:	2400      	movs	r4, #0
  102642:	f504 70b4 	add.w	r0, r4, #360	; 0x168
  102646:	4428      	add	r0, r5
  102648:	3c18      	subs	r4, #24
  10264a:	f019 fcc7 	bl	11bfdc <std::__cxx11::basic_string<char, std::char_traits<char>, std::allocator<char> >::_M_dispose()>
  10264e:	f514 7fc0 	cmn.w	r4, #384	; 0x180
  102652:	d1f6      	bne.n	102642 <__tcf_0+0x6>
  102654:	bd38      	pop	{r3, r4, r5, pc}
  102656:	bf00      	nop
  102658:	3fff45e4 	.word	0x3fff45e4

0010265c <std::__cxx11::basic_string<char, std::char_traits<char>, std::allocator<char> >::basic_string(char const*, std::allocator<char> const&) [clone .isra.14] [clone .constprop.16]>:
  10265c:	b510      	push	{r4, lr}
  10265e:	4604      	mov	r4, r0
  102660:	4a05      	ldr	r2, [pc, #20]	; (102678 <std::__cxx11::basic_string<char, std::char_traits<char>, std::allocator<char> >::basic_string(char const*, std::allocator<char> const&) [clone .isra.14] [clone .constprop.16]+0x1c>)
  102662:	3008      	adds	r0, #8
  102664:	6020      	str	r0, [r4, #0]
  102666:	4611      	mov	r1, r2
  102668:	f019 fcc9 	bl	11bffe <std::__cxx11::basic_string<char, std::char_traits<char>, std::allocator<char> >::_S_copy_chars(char*, char const*, char const*)>
  10266c:	6822      	ldr	r2, [r4, #0]
  10266e:	2300      	movs	r3, #0
  102670:	6063      	str	r3, [r4, #4]
  102672:	7013      	strb	r3, [r2, #0]
  102674:	4620      	mov	r0, r4
  102676:	bd10      	pop	{r4, pc}
  102678:	0012646d 	.word	0x0012646d

0010267c <mbed::Ticker::~Ticker()>:
  10267c:	b510      	push	{r4, lr}
  10267e:	4604      	mov	r4, r0
  102680:	4b04      	ldr	r3, [pc, #16]	; (102694 <mbed::Ticker::~Ticker()+0x18>)
  102682:	6003      	str	r3, [r0, #0]
  102684:	f019 fb2c 	bl	11bce0 <mbed::Ticker::detach()>
  102688:	4620      	mov	r0, r4
  10268a:	f019 fc29 	bl	11bee0 <mbed::TimerEvent::~TimerEvent()>
  10268e:	4620      	mov	r0, r4
  102690:	bd10      	pop	{r4, pc}
  102692:	bf00      	nop
  102694:	001299e0 	.word	0x001299e0

00102698 <LV8907_BLDC::~LV8907_BLDC()>:
  102698:	b510      	push	{r4, lr}
  10269a:	4604      	mov	r4, r0
  10269c:	3044      	adds	r0, #68	; 0x44
  10269e:	f7ff ffed 	bl	10267c <mbed::Ticker::~Ticker()>
  1026a2:	f104 0014 	add.w	r0, r4, #20
  1026a6:	f7ff ffe9 	bl	10267c <mbed::Ticker::~Ticker()>
  1026aa:	4620      	mov	r0, r4
  1026ac:	bd10      	pop	{r4, pc}

001026ae <mbed::Ticker::~Ticker()>:
  1026ae:	b510      	push	{r4, lr}
  1026b0:	4604      	mov	r4, r0
  1026b2:	f7ff ffe3 	bl	10267c <mbed::Ticker::~Ticker()>
  1026b6:	4620      	mov	r0, r4
  1026b8:	f019 fc77 	bl	11bfaa <operator delete(void*)>
  1026bc:	4620      	mov	r0, r4
  1026be:	bd10      	pop	{r4, pc}

001026c0 <_GLOBAL__sub_I_TOUCH_LC717A00_mode>:
  1026c0:	b573      	push	{r0, r1, r4, r5, r6, lr}
  1026c2:	483c      	ldr	r0, [pc, #240]	; (1027b4 <_GLOBAL__sub_I_TOUCH_LC717A00_mode+0xf4>)
  1026c4:	f7ff ffca 	bl	10265c <std::__cxx11::basic_string<char, std::char_traits<char>, std::allocator<char> >::basic_string(char const*, std::allocator<char> const&) [clone .isra.14] [clone .constprop.16]>
  1026c8:	4a3b      	ldr	r2, [pc, #236]	; (1027b8 <_GLOBAL__sub_I_TOUCH_LC717A00_mode+0xf8>)
  1026ca:	493c      	ldr	r1, [pc, #240]	; (1027bc <_GLOBAL__sub_I_TOUCH_LC717A00_mode+0xfc>)
  1026cc:	4839      	ldr	r0, [pc, #228]	; (1027b4 <_GLOBAL__sub_I_TOUCH_LC717A00_mode+0xf4>)
  1026ce:	f019 fc67 	bl	11bfa0 <__aeabi_atexit>
  1026d2:	4b3b      	ldr	r3, [pc, #236]	; (1027c0 <_GLOBAL__sub_I_TOUCH_LC717A00_mode+0x100>)
  1026d4:	2200      	movs	r2, #0
  1026d6:	f503 70c0 	add.w	r0, r3, #384	; 0x180
  1026da:	4619      	mov	r1, r3
  1026dc:	f843 2c04 	str.w	r2, [r3, #-4]
  1026e0:	f843 3c08 	str.w	r3, [r3, #-8]
  1026e4:	f801 2b18 	strb.w	r2, [r1], #24
  1026e8:	6119      	str	r1, [r3, #16]
  1026ea:	615a      	str	r2, [r3, #20]
  1026ec:	761a      	strb	r2, [r3, #24]
  1026ee:	3330      	adds	r3, #48	; 0x30
  1026f0:	4283      	cmp	r3, r0
  1026f2:	f04f 0500 	mov.w	r5, #0
  1026f6:	d1f0      	bne.n	1026da <_GLOBAL__sub_I_TOUCH_LC717A00_mode+0x1a>
  1026f8:	4a2f      	ldr	r2, [pc, #188]	; (1027b8 <_GLOBAL__sub_I_TOUCH_LC717A00_mode+0xf8>)
  1026fa:	4932      	ldr	r1, [pc, #200]	; (1027c4 <_GLOBAL__sub_I_TOUCH_LC717A00_mode+0x104>)
  1026fc:	4628      	mov	r0, r5
  1026fe:	f019 fc4f 	bl	11bfa0 <__aeabi_atexit>
  102702:	4831      	ldr	r0, [pc, #196]	; (1027c8 <_GLOBAL__sub_I_TOUCH_LC717A00_mode+0x108>)
  102704:	f7ff ffaa 	bl	10265c <std::__cxx11::basic_string<char, std::char_traits<char>, std::allocator<char> >::basic_string(char const*, std::allocator<char> const&) [clone .isra.14] [clone .constprop.16]>
  102708:	4a2b      	ldr	r2, [pc, #172]	; (1027b8 <_GLOBAL__sub_I_TOUCH_LC717A00_mode+0xf8>)
  10270a:	492c      	ldr	r1, [pc, #176]	; (1027bc <_GLOBAL__sub_I_TOUCH_LC717A00_mode+0xfc>)
  10270c:	482e      	ldr	r0, [pc, #184]	; (1027c8 <_GLOBAL__sub_I_TOUCH_LC717A00_mode+0x108>)
  10270e:	f019 fc47 	bl	11bfa0 <__aeabi_atexit>
  102712:	482e      	ldr	r0, [pc, #184]	; (1027cc <_GLOBAL__sub_I_TOUCH_LC717A00_mode+0x10c>)
  102714:	f7ff ffa2 	bl	10265c <std::__cxx11::basic_string<char, std::char_traits<char>, std::allocator<char> >::basic_string(char const*, std::allocator<char> const&) [clone .isra.14] [clone .constprop.16]>
  102718:	4a27      	ldr	r2, [pc, #156]	; (1027b8 <_GLOBAL__sub_I_TOUCH_LC717A00_mode+0xf8>)
  10271a:	4928      	ldr	r1, [pc, #160]	; (1027bc <_GLOBAL__sub_I_TOUCH_LC717A00_mode+0xfc>)
  10271c:	482b      	ldr	r0, [pc, #172]	; (1027cc <_GLOBAL__sub_I_TOUCH_LC717A00_mode+0x10c>)
  10271e:	f019 fc3f 	bl	11bfa0 <__aeabi_atexit>
  102722:	482b      	ldr	r0, [pc, #172]	; (1027d0 <_GLOBAL__sub_I_TOUCH_LC717A00_mode+0x110>)
  102724:	f7ff ff9a 	bl	10265c <std::__cxx11::basic_string<char, std::char_traits<char>, std::allocator<char> >::basic_string(char const*, std::allocator<char> const&) [clone .isra.14] [clone .constprop.16]>
  102728:	f04f 36ff 	mov.w	r6, #4294967295
  10272c:	4a22      	ldr	r2, [pc, #136]	; (1027b8 <_GLOBAL__sub_I_TOUCH_LC717A00_mode+0xf8>)
  10272e:	4923      	ldr	r1, [pc, #140]	; (1027bc <_GLOBAL__sub_I_TOUCH_LC717A00_mode+0xfc>)
  102730:	4827      	ldr	r0, [pc, #156]	; (1027d0 <_GLOBAL__sub_I_TOUCH_LC717A00_mode+0x110>)
  102732:	f019 fc35 	bl	11bfa0 <__aeabi_atexit>
  102736:	9600      	str	r6, [sp, #0]
  102738:	2310      	movs	r3, #16
  10273a:	2240      	movs	r2, #64	; 0x40
  10273c:	2120      	movs	r1, #32
  10273e:	4825      	ldr	r0, [pc, #148]	; (1027d4 <_GLOBAL__sub_I_TOUCH_LC717A00_mode+0x114>)
  102740:	f019 f952 	bl	11b9e8 <mbed::SPI::SPI(PinName, PinName, PinName, PinName)>
  102744:	4a1c      	ldr	r2, [pc, #112]	; (1027b8 <_GLOBAL__sub_I_TOUCH_LC717A00_mode+0xf8>)
  102746:	4924      	ldr	r1, [pc, #144]	; (1027d8 <_GLOBAL__sub_I_TOUCH_LC717A00_mode+0x118>)
  102748:	4822      	ldr	r0, [pc, #136]	; (1027d4 <_GLOBAL__sub_I_TOUCH_LC717A00_mode+0x114>)
  10274a:	f019 fc29 	bl	11bfa0 <__aeabi_atexit>
  10274e:	462b      	mov	r3, r5
  102750:	2202      	movs	r2, #2
  102752:	2101      	movs	r1, #1
  102754:	4821      	ldr	r0, [pc, #132]	; (1027dc <_GLOBAL__sub_I_TOUCH_LC717A00_mode+0x11c>)
  102756:	f019 f891 	bl	11b87c <mbed::Serial::Serial(PinName, PinName, char const*)>
  10275a:	4a17      	ldr	r2, [pc, #92]	; (1027b8 <_GLOBAL__sub_I_TOUCH_LC717A00_mode+0xf8>)
  10275c:	4920      	ldr	r1, [pc, #128]	; (1027e0 <_GLOBAL__sub_I_TOUCH_LC717A00_mode+0x120>)
  10275e:	481f      	ldr	r0, [pc, #124]	; (1027dc <_GLOBAL__sub_I_TOUCH_LC717A00_mode+0x11c>)
  102760:	4c20      	ldr	r4, [pc, #128]	; (1027e4 <_GLOBAL__sub_I_TOUCH_LC717A00_mode+0x124>)
  102762:	f019 fc1d 	bl	11bfa0 <__aeabi_atexit>
  102766:	4820      	ldr	r0, [pc, #128]	; (1027e8 <_GLOBAL__sub_I_TOUCH_LC717A00_mode+0x128>)
  102768:	f014 fe46 	bl	1173f8 <rtos::Mutex::Mutex()>
  10276c:	4a12      	ldr	r2, [pc, #72]	; (1027b8 <_GLOBAL__sub_I_TOUCH_LC717A00_mode+0xf8>)
  10276e:	491f      	ldr	r1, [pc, #124]	; (1027ec <_GLOBAL__sub_I_TOUCH_LC717A00_mode+0x12c>)
  102770:	481d      	ldr	r0, [pc, #116]	; (1027e8 <_GLOBAL__sub_I_TOUCH_LC717A00_mode+0x128>)
  102772:	f019 fc15 	bl	11bfa0 <__aeabi_atexit>
  102776:	2310      	movs	r3, #16
  102778:	2240      	movs	r2, #64	; 0x40
  10277a:	2120      	movs	r1, #32
  10277c:	9600      	str	r6, [sp, #0]
  10277e:	4620      	mov	r0, r4
  102780:	f019 f932 	bl	11b9e8 <mbed::SPI::SPI(PinName, PinName, PinName, PinName)>
  102784:	4e1a      	ldr	r6, [pc, #104]	; (1027f0 <_GLOBAL__sub_I_TOUCH_LC717A00_mode+0x130>)
  102786:	f104 0014 	add.w	r0, r4, #20
  10278a:	f019 fb75 	bl	11be78 <mbed::TimerEvent::TimerEvent()>
  10278e:	f104 0044 	add.w	r0, r4, #68	; 0x44
  102792:	6166      	str	r6, [r4, #20]
  102794:	62e5      	str	r5, [r4, #44]	; 0x2c
  102796:	6425      	str	r5, [r4, #64]	; 0x40
  102798:	f019 fb6e 	bl	11be78 <mbed::TimerEvent::TimerEvent()>
  10279c:	4620      	mov	r0, r4
  10279e:	4a06      	ldr	r2, [pc, #24]	; (1027b8 <_GLOBAL__sub_I_TOUCH_LC717A00_mode+0xf8>)
  1027a0:	4914      	ldr	r1, [pc, #80]	; (1027f4 <_GLOBAL__sub_I_TOUCH_LC717A00_mode+0x134>)
  1027a2:	6466      	str	r6, [r4, #68]	; 0x44
  1027a4:	65e5      	str	r5, [r4, #92]	; 0x5c
  1027a6:	6725      	str	r5, [r4, #112]	; 0x70
  1027a8:	b002      	add	sp, #8
  1027aa:	e8bd 4070 	ldmia.w	sp!, {r4, r5, r6, lr}
  1027ae:	f019 bbf7 	b.w	11bfa0 <__aeabi_atexit>
  1027b2:	bf00      	nop
  1027b4:	3fff4764 	.word	0x3fff4764
  1027b8:	3fff4000 	.word	0x3fff4000
  1027bc:	0011c009 	.word	0x0011c009
  1027c0:	3fff45ec 	.word	0x3fff45ec
  1027c4:	0010263d 	.word	0x0010263d
  1027c8:	3fff4794 	.word	0x3fff4794
  1027cc:	3fff477c 	.word	0x3fff477c
  1027d0:	3fff4818 	.word	0x3fff4818
  1027d4:	3fff48a4 	.word	0x3fff48a4
  1027d8:	00102337 	.word	0x00102337
  1027dc:	3fff47ac 	.word	0x3fff47ac
  1027e0:	001023b1 	.word	0x001023b1
  1027e4:	3fff4830 	.word	0x3fff4830
  1027e8:	3fff4804 	.word	0x3fff4804
  1027ec:	00117481 	.word	0x00117481
  1027f0:	001299e0 	.word	0x001299e0
  1027f4:	00102699 	.word	0x00102699

001027f8 <__tcf_0>:
  1027f8:	b538      	push	{r3, r4, r5, lr}
  1027fa:	4d06      	ldr	r5, [pc, #24]	; (102814 <__tcf_0+0x1c>)
  1027fc:	2400      	movs	r4, #0
  1027fe:	f504 70b4 	add.w	r0, r4, #360	; 0x168
  102802:	4428      	add	r0, r5
  102804:	3c18      	subs	r4, #24
  102806:	f019 fbe9 	bl	11bfdc <std::__cxx11::basic_string<char, std::char_traits<char>, std::allocator<char> >::_M_dispose()>
  10280a:	f514 7fc0 	cmn.w	r4, #384	; 0x180
  10280e:	d1f6      	bne.n	1027fe <__tcf_0+0x6>
  102810:	bd38      	pop	{r3, r4, r5, pc}
  102812:	bf00      	nop
  102814:	3fff48b8 	.word	0x3fff48b8

00102818 <std::__cxx11::basic_string<char, std::char_traits<char>, std::allocator<char> >::basic_string(char const*, std::allocator<char> const&) [clone .isra.14] [clone .constprop.16]>:
  102818:	b510      	push	{r4, lr}
  10281a:	4604      	mov	r4, r0
  10281c:	4a05      	ldr	r2, [pc, #20]	; (102834 <std::__cxx11::basic_string<char, std::char_traits<char>, std::allocator<char> >::basic_string(char const*, std::allocator<char> const&) [clone .isra.14] [clone .constprop.16]+0x1c>)
  10281e:	3008      	adds	r0, #8
  102820:	6020      	str	r0, [r4, #0]
  102822:	4611      	mov	r1, r2
  102824:	f019 fbeb 	bl	11bffe <std::__cxx11::basic_string<char, std::char_traits<char>, std::allocator<char> >::_S_copy_chars(char*, char const*, char const*)>
  102828:	6822      	ldr	r2, [r4, #0]
  10282a:	2300      	movs	r3, #0
  10282c:	6063      	str	r3, [r4, #4]
  10282e:	7013      	strb	r3, [r2, #0]
  102830:	4620      	mov	r0, r4
  102832:	bd10      	pop	{r4, pc}
  102834:	0012646d 	.word	0x0012646d

00102838 <LEDBallast::LEDBallast()>:
  102838:	b537      	push	{r0, r1, r2, r4, r5, lr}
  10283a:	4604      	mov	r4, r0
  10283c:	4b0a      	ldr	r3, [pc, #40]	; (102868 <LEDBallast::LEDBallast()+0x30>)
  10283e:	f04f 35ff 	mov.w	r5, #4294967295
  102842:	f840 3b04 	str.w	r3, [r0], #4
  102846:	2240      	movs	r2, #64	; 0x40
  102848:	9500      	str	r5, [sp, #0]
  10284a:	2310      	movs	r3, #16
  10284c:	2120      	movs	r1, #32
  10284e:	f019 f8cb 	bl	11b9e8 <mbed::SPI::SPI(PinName, PinName, PinName, PinName)>
  102852:	9500      	str	r5, [sp, #0]
  102854:	232a      	movs	r3, #42	; 0x2a
  102856:	2204      	movs	r2, #4
  102858:	2108      	movs	r1, #8
  10285a:	f104 0018 	add.w	r0, r4, #24
  10285e:	f005 fc89 	bl	108174 <PCA9655E::PCA9655E(PinName, PinName, unsigned char, PinName)>
  102862:	4620      	mov	r0, r4
  102864:	b003      	add	sp, #12
  102866:	bd30      	pop	{r4, r5, pc}
  102868:	00124c2c 	.word	0x00124c2c

0010286c <LEDBallast::init()>:
  10286c:	b510      	push	{r4, lr}
  10286e:	2300      	movs	r3, #0
  102870:	1d04      	adds	r4, r0, #4
  102872:	f880 307c 	strb.w	r3, [r0, #124]	; 0x7c
  102876:	4620      	mov	r0, r4
  102878:	f001 f984 	bl	103b84 <NCV78763::init()>
  10287c:	4601      	mov	r1, r0
  10287e:	b108      	cbz	r0, 102884 <LEDBallast::init()+0x18>
  102880:	4811      	ldr	r0, [pc, #68]	; (1028c8 <LEDBallast::init()+0x5c>)
  102882:	e00a      	b.n	10289a <LEDBallast::init()+0x2e>
  102884:	4811      	ldr	r0, [pc, #68]	; (1028cc <LEDBallast::init()+0x60>)
  102886:	f000 ff33 	bl	1036f0 <dbg_line>
  10288a:	4911      	ldr	r1, [pc, #68]	; (1028d0 <LEDBallast::init()+0x64>)
  10288c:	4a11      	ldr	r2, [pc, #68]	; (1028d4 <LEDBallast::init()+0x68>)
  10288e:	4620      	mov	r0, r4
  102890:	f001 fb0e 	bl	103eb0 <NCV78763::setLEDBoosterVoltage(float, float)>
  102894:	4601      	mov	r1, r0
  102896:	b128      	cbz	r0, 1028a4 <LEDBallast::init()+0x38>
  102898:	480f      	ldr	r0, [pc, #60]	; (1028d8 <LEDBallast::init()+0x6c>)
  10289a:	f000 ff29 	bl	1036f0 <dbg_line>
  10289e:	f04f 30ff 	mov.w	r0, #4294967295
  1028a2:	bd10      	pop	{r4, pc}
  1028a4:	480d      	ldr	r0, [pc, #52]	; (1028dc <LEDBallast::init()+0x70>)
  1028a6:	f000 ff23 	bl	1036f0 <dbg_line>
  1028aa:	4620      	mov	r0, r4
  1028ac:	2101      	movs	r1, #1
  1028ae:	f001 fa05 	bl	103cbc <NCV78763::setInternalDimmingFreq(PWM_FREQ_INT_T)>
  1028b2:	4604      	mov	r4, r0
  1028b4:	b110      	cbz	r0, 1028bc <LEDBallast::init()+0x50>
  1028b6:	4601      	mov	r1, r0
  1028b8:	4809      	ldr	r0, [pc, #36]	; (1028e0 <LEDBallast::init()+0x74>)
  1028ba:	e7ee      	b.n	10289a <LEDBallast::init()+0x2e>
  1028bc:	4809      	ldr	r0, [pc, #36]	; (1028e4 <LEDBallast::init()+0x78>)
  1028be:	f000 ff17 	bl	1036f0 <dbg_line>
  1028c2:	4620      	mov	r0, r4
  1028c4:	bd10      	pop	{r4, pc}
  1028c6:	bf00      	nop
  1028c8:	001246d0 	.word	0x001246d0
  1028cc:	00124703 	.word	0x00124703
  1028d0:	42340000 	.word	0x42340000
  1028d4:	40c00000 	.word	0x40c00000
  1028d8:	0012472b 	.word	0x0012472b
  1028dc:	00124768 	.word	0x00124768
  1028e0:	0012479a 	.word	0x0012479a
  1028e4:	001247eb 	.word	0x001247eb

001028e8 <LEDBallast::enable(LEDCHANNEL_T)>:
  1028e8:	b570      	push	{r4, r5, r6, lr}
  1028ea:	1d05      	adds	r5, r0, #4
  1028ec:	4604      	mov	r4, r0
  1028ee:	4628      	mov	r0, r5
  1028f0:	460e      	mov	r6, r1
  1028f2:	f001 fe7d 	bl	1045f0 <NCV78763::buckRegulatorEnable(LEDCHANNEL_T)>
  1028f6:	4601      	mov	r1, r0
  1028f8:	b108      	cbz	r0, 1028fe <LEDBallast::enable(LEDCHANNEL_T)+0x16>
  1028fa:	4810      	ldr	r0, [pc, #64]	; (10293c <LEDBallast::enable(LEDCHANNEL_T)+0x54>)
  1028fc:	e00b      	b.n	102916 <LEDBallast::enable(LEDCHANNEL_T)+0x2e>
  1028fe:	4810      	ldr	r0, [pc, #64]	; (102940 <LEDBallast::enable(LEDCHANNEL_T)+0x58>)
  102900:	f000 fef6 	bl	1036f0 <dbg_line>
  102904:	f894 307c 	ldrb.w	r3, [r4, #124]	; 0x7c
  102908:	b96b      	cbnz	r3, 102926 <LEDBallast::enable(LEDCHANNEL_T)+0x3e>
  10290a:	4628      	mov	r0, r5
  10290c:	f001 fc14 	bl	104138 <NCV78763::boosterEnable()>
  102910:	4601      	mov	r1, r0
  102912:	b128      	cbz	r0, 102920 <LEDBallast::enable(LEDCHANNEL_T)+0x38>
  102914:	480b      	ldr	r0, [pc, #44]	; (102944 <LEDBallast::enable(LEDCHANNEL_T)+0x5c>)
  102916:	f000 feeb 	bl	1036f0 <dbg_line>
  10291a:	f04f 30ff 	mov.w	r0, #4294967295
  10291e:	bd70      	pop	{r4, r5, r6, pc}
  102920:	4809      	ldr	r0, [pc, #36]	; (102948 <LEDBallast::enable(LEDCHANNEL_T)+0x60>)
  102922:	f000 fee5 	bl	1036f0 <dbg_line>
  102926:	f994 307c 	ldrsb.w	r3, [r4, #124]	; 0x7c
  10292a:	2e01      	cmp	r6, #1
  10292c:	bf0c      	ite	eq
  10292e:	2201      	moveq	r2, #1
  102930:	2202      	movne	r2, #2
  102932:	4313      	orrs	r3, r2
  102934:	f884 307c 	strb.w	r3, [r4, #124]	; 0x7c
  102938:	2000      	movs	r0, #0
  10293a:	bd70      	pop	{r4, r5, r6, pc}
  10293c:	001249db 	.word	0x001249db
  102940:	00124a21 	.word	0x00124a21
  102944:	00124a5c 	.word	0x00124a5c
  102948:	00124a91 	.word	0x00124a91

0010294c <LEDBallast::disable(LEDCHANNEL_T)>:
  10294c:	b5f8      	push	{r3, r4, r5, r6, r7, lr}
  10294e:	1d06      	adds	r6, r0, #4
  102950:	4605      	mov	r5, r0
  102952:	4630      	mov	r0, r6
  102954:	460f      	mov	r7, r1
  102956:	f001 feb9 	bl	1046cc <NCV78763::buckRegulatorDisable(LEDCHANNEL_T)>
  10295a:	4604      	mov	r4, r0
  10295c:	b110      	cbz	r0, 102964 <LEDBallast::disable(LEDCHANNEL_T)+0x18>
  10295e:	4601      	mov	r1, r0
  102960:	4810      	ldr	r0, [pc, #64]	; (1029a4 <LEDBallast::disable(LEDCHANNEL_T)+0x58>)
  102962:	e015      	b.n	102990 <LEDBallast::disable(LEDCHANNEL_T)+0x44>
  102964:	4810      	ldr	r0, [pc, #64]	; (1029a8 <LEDBallast::disable(LEDCHANNEL_T)+0x5c>)
  102966:	f000 fec3 	bl	1036f0 <dbg_line>
  10296a:	2f01      	cmp	r7, #1
  10296c:	f895 307c 	ldrb.w	r3, [r5, #124]	; 0x7c
  102970:	bf0c      	ite	eq
  102972:	f06f 0201 	mvneq.w	r2, #1
  102976:	f06f 0202 	mvnne.w	r2, #2
  10297a:	4013      	ands	r3, r2
  10297c:	f885 307c 	strb.w	r3, [r5, #124]	; 0x7c
  102980:	b973      	cbnz	r3, 1029a0 <LEDBallast::disable(LEDCHANNEL_T)+0x54>
  102982:	4630      	mov	r0, r6
  102984:	f001 fc0c 	bl	1041a0 <NCV78763::boosterDisable()>
  102988:	4604      	mov	r4, r0
  10298a:	b130      	cbz	r0, 10299a <LEDBallast::disable(LEDCHANNEL_T)+0x4e>
  10298c:	4601      	mov	r1, r0
  10298e:	4807      	ldr	r0, [pc, #28]	; (1029ac <LEDBallast::disable(LEDCHANNEL_T)+0x60>)
  102990:	f000 feae 	bl	1036f0 <dbg_line>
  102994:	f04f 30ff 	mov.w	r0, #4294967295
  102998:	bdf8      	pop	{r3, r4, r5, r6, r7, pc}
  10299a:	4805      	ldr	r0, [pc, #20]	; (1029b0 <LEDBallast::disable(LEDCHANNEL_T)+0x64>)
  10299c:	f000 fea8 	bl	1036f0 <dbg_line>
  1029a0:	4620      	mov	r0, r4
  1029a2:	bdf8      	pop	{r3, r4, r5, r6, r7, pc}
  1029a4:	00124abb 	.word	0x00124abb
  1029a8:	00124b02 	.word	0x00124b02
  1029ac:	00124b3e 	.word	0x00124b3e
  1029b0:	00124b74 	.word	0x00124b74

001029b4 <LEDBallast::~LEDBallast()>:
  1029b4:	b510      	push	{r4, lr}
  1029b6:	4604      	mov	r4, r0
  1029b8:	4b07      	ldr	r3, [pc, #28]	; (1029d8 <LEDBallast::~LEDBallast()+0x24>)
  1029ba:	2101      	movs	r1, #1
  1029bc:	6003      	str	r3, [r0, #0]
  1029be:	f7ff ffc5 	bl	10294c <LEDBallast::disable(LEDCHANNEL_T)>
  1029c2:	2102      	movs	r1, #2
  1029c4:	4620      	mov	r0, r4
  1029c6:	f7ff ffc1 	bl	10294c <LEDBallast::disable(LEDCHANNEL_T)>
  1029ca:	f104 0018 	add.w	r0, r4, #24
  1029ce:	f005 fd5d 	bl	10848c <PCA9655E::~PCA9655E()>
  1029d2:	4620      	mov	r0, r4
  1029d4:	bd10      	pop	{r4, pc}
  1029d6:	bf00      	nop
  1029d8:	00124c2c 	.word	0x00124c2c

001029dc <LEDBallast::~LEDBallast()>:
  1029dc:	b510      	push	{r4, lr}
  1029de:	4604      	mov	r4, r0
  1029e0:	f7ff ffe8 	bl	1029b4 <LEDBallast::~LEDBallast()>
  1029e4:	4620      	mov	r0, r4
  1029e6:	f019 fae0 	bl	11bfaa <operator delete(void*)>
  1029ea:	4620      	mov	r0, r4
  1029ec:	bd10      	pop	{r4, pc}
	...

001029f0 <LEDBallast::setDC(LEDCHANNEL_T, int)>:
  1029f0:	b510      	push	{r4, lr}
  1029f2:	3004      	adds	r0, #4
  1029f4:	4614      	mov	r4, r2
  1029f6:	b292      	uxth	r2, r2
  1029f8:	f001 fa06 	bl	103e08 <NCV78763::setIPWMDutyCycle(LEDCHANNEL_T, unsigned short)>
  1029fc:	4621      	mov	r1, r4
  1029fe:	4602      	mov	r2, r0
  102a00:	b120      	cbz	r0, 102a0c <LEDBallast::setDC(LEDCHANNEL_T, int)+0x1c>
  102a02:	4805      	ldr	r0, [pc, #20]	; (102a18 <LEDBallast::setDC(LEDCHANNEL_T, int)+0x28>)
  102a04:	f000 fe74 	bl	1036f0 <dbg_line>
  102a08:	2000      	movs	r0, #0
  102a0a:	bd10      	pop	{r4, pc}
  102a0c:	4803      	ldr	r0, [pc, #12]	; (102a1c <LEDBallast::setDC(LEDCHANNEL_T, int)+0x2c>)
  102a0e:	f000 fe6f 	bl	1036f0 <dbg_line>
  102a12:	f04f 30ff 	mov.w	r0, #4294967295
  102a16:	bd10      	pop	{r4, pc}
  102a18:	00124b9f 	.word	0x00124b9f
  102a1c:	00124be6 	.word	0x00124be6

00102a20 <_GLOBAL__sub_I_TOUCH_LC717A00_mode>:
  102a20:	b507      	push	{r0, r1, r2, lr}
  102a22:	482d      	ldr	r0, [pc, #180]	; (102ad8 <_GLOBAL__sub_I_TOUCH_LC717A00_mode+0xb8>)
  102a24:	f7ff fef8 	bl	102818 <std::__cxx11::basic_string<char, std::char_traits<char>, std::allocator<char> >::basic_string(char const*, std::allocator<char> const&) [clone .isra.14] [clone .constprop.16]>
  102a28:	4a2c      	ldr	r2, [pc, #176]	; (102adc <_GLOBAL__sub_I_TOUCH_LC717A00_mode+0xbc>)
  102a2a:	492d      	ldr	r1, [pc, #180]	; (102ae0 <_GLOBAL__sub_I_TOUCH_LC717A00_mode+0xc0>)
  102a2c:	482a      	ldr	r0, [pc, #168]	; (102ad8 <_GLOBAL__sub_I_TOUCH_LC717A00_mode+0xb8>)
  102a2e:	f019 fab7 	bl	11bfa0 <__aeabi_atexit>
  102a32:	4b2c      	ldr	r3, [pc, #176]	; (102ae4 <_GLOBAL__sub_I_TOUCH_LC717A00_mode+0xc4>)
  102a34:	2200      	movs	r2, #0
  102a36:	f503 70c0 	add.w	r0, r3, #384	; 0x180
  102a3a:	4619      	mov	r1, r3
  102a3c:	f843 2c04 	str.w	r2, [r3, #-4]
  102a40:	f843 3c08 	str.w	r3, [r3, #-8]
  102a44:	f801 2b18 	strb.w	r2, [r1], #24
  102a48:	6119      	str	r1, [r3, #16]
  102a4a:	615a      	str	r2, [r3, #20]
  102a4c:	761a      	strb	r2, [r3, #24]
  102a4e:	3330      	adds	r3, #48	; 0x30
  102a50:	4283      	cmp	r3, r0
  102a52:	d1f2      	bne.n	102a3a <_GLOBAL__sub_I_TOUCH_LC717A00_mode+0x1a>
  102a54:	4a21      	ldr	r2, [pc, #132]	; (102adc <_GLOBAL__sub_I_TOUCH_LC717A00_mode+0xbc>)
  102a56:	4924      	ldr	r1, [pc, #144]	; (102ae8 <_GLOBAL__sub_I_TOUCH_LC717A00_mode+0xc8>)
  102a58:	2000      	movs	r0, #0
  102a5a:	f019 faa1 	bl	11bfa0 <__aeabi_atexit>
  102a5e:	4823      	ldr	r0, [pc, #140]	; (102aec <_GLOBAL__sub_I_TOUCH_LC717A00_mode+0xcc>)
  102a60:	f7ff feda 	bl	102818 <std::__cxx11::basic_string<char, std::char_traits<char>, std::allocator<char> >::basic_string(char const*, std::allocator<char> const&) [clone .isra.14] [clone .constprop.16]>
  102a64:	4a1d      	ldr	r2, [pc, #116]	; (102adc <_GLOBAL__sub_I_TOUCH_LC717A00_mode+0xbc>)
  102a66:	491e      	ldr	r1, [pc, #120]	; (102ae0 <_GLOBAL__sub_I_TOUCH_LC717A00_mode+0xc0>)
  102a68:	4820      	ldr	r0, [pc, #128]	; (102aec <_GLOBAL__sub_I_TOUCH_LC717A00_mode+0xcc>)
  102a6a:	f019 fa99 	bl	11bfa0 <__aeabi_atexit>
  102a6e:	4820      	ldr	r0, [pc, #128]	; (102af0 <_GLOBAL__sub_I_TOUCH_LC717A00_mode+0xd0>)
  102a70:	f7ff fed2 	bl	102818 <std::__cxx11::basic_string<char, std::char_traits<char>, std::allocator<char> >::basic_string(char const*, std::allocator<char> const&) [clone .isra.14] [clone .constprop.16]>
  102a74:	4a19      	ldr	r2, [pc, #100]	; (102adc <_GLOBAL__sub_I_TOUCH_LC717A00_mode+0xbc>)
  102a76:	491a      	ldr	r1, [pc, #104]	; (102ae0 <_GLOBAL__sub_I_TOUCH_LC717A00_mode+0xc0>)
  102a78:	481d      	ldr	r0, [pc, #116]	; (102af0 <_GLOBAL__sub_I_TOUCH_LC717A00_mode+0xd0>)
  102a7a:	f019 fa91 	bl	11bfa0 <__aeabi_atexit>
  102a7e:	481d      	ldr	r0, [pc, #116]	; (102af4 <_GLOBAL__sub_I_TOUCH_LC717A00_mode+0xd4>)
  102a80:	f7ff feca 	bl	102818 <std::__cxx11::basic_string<char, std::char_traits<char>, std::allocator<char> >::basic_string(char const*, std::allocator<char> const&) [clone .isra.14] [clone .constprop.16]>
  102a84:	4a15      	ldr	r2, [pc, #84]	; (102adc <_GLOBAL__sub_I_TOUCH_LC717A00_mode+0xbc>)
  102a86:	4916      	ldr	r1, [pc, #88]	; (102ae0 <_GLOBAL__sub_I_TOUCH_LC717A00_mode+0xc0>)
  102a88:	481a      	ldr	r0, [pc, #104]	; (102af4 <_GLOBAL__sub_I_TOUCH_LC717A00_mode+0xd4>)
  102a8a:	f019 fa89 	bl	11bfa0 <__aeabi_atexit>
  102a8e:	f04f 33ff 	mov.w	r3, #4294967295
  102a92:	9300      	str	r3, [sp, #0]
  102a94:	2240      	movs	r2, #64	; 0x40
  102a96:	2310      	movs	r3, #16
  102a98:	2120      	movs	r1, #32
  102a9a:	4817      	ldr	r0, [pc, #92]	; (102af8 <_GLOBAL__sub_I_TOUCH_LC717A00_mode+0xd8>)
  102a9c:	f018 ffa4 	bl	11b9e8 <mbed::SPI::SPI(PinName, PinName, PinName, PinName)>
  102aa0:	4a0e      	ldr	r2, [pc, #56]	; (102adc <_GLOBAL__sub_I_TOUCH_LC717A00_mode+0xbc>)
  102aa2:	4916      	ldr	r1, [pc, #88]	; (102afc <_GLOBAL__sub_I_TOUCH_LC717A00_mode+0xdc>)
  102aa4:	4814      	ldr	r0, [pc, #80]	; (102af8 <_GLOBAL__sub_I_TOUCH_LC717A00_mode+0xd8>)
  102aa6:	f019 fa7b 	bl	11bfa0 <__aeabi_atexit>
  102aaa:	2300      	movs	r3, #0
  102aac:	2202      	movs	r2, #2
  102aae:	2101      	movs	r1, #1
  102ab0:	4813      	ldr	r0, [pc, #76]	; (102b00 <_GLOBAL__sub_I_TOUCH_LC717A00_mode+0xe0>)
  102ab2:	f018 fee3 	bl	11b87c <mbed::Serial::Serial(PinName, PinName, char const*)>
  102ab6:	4a09      	ldr	r2, [pc, #36]	; (102adc <_GLOBAL__sub_I_TOUCH_LC717A00_mode+0xbc>)
  102ab8:	4912      	ldr	r1, [pc, #72]	; (102b04 <_GLOBAL__sub_I_TOUCH_LC717A00_mode+0xe4>)
  102aba:	4811      	ldr	r0, [pc, #68]	; (102b00 <_GLOBAL__sub_I_TOUCH_LC717A00_mode+0xe0>)
  102abc:	f019 fa70 	bl	11bfa0 <__aeabi_atexit>
  102ac0:	4811      	ldr	r0, [pc, #68]	; (102b08 <_GLOBAL__sub_I_TOUCH_LC717A00_mode+0xe8>)
  102ac2:	f014 fc99 	bl	1173f8 <rtos::Mutex::Mutex()>
  102ac6:	4a05      	ldr	r2, [pc, #20]	; (102adc <_GLOBAL__sub_I_TOUCH_LC717A00_mode+0xbc>)
  102ac8:	4910      	ldr	r1, [pc, #64]	; (102b0c <_GLOBAL__sub_I_TOUCH_LC717A00_mode+0xec>)
  102aca:	480f      	ldr	r0, [pc, #60]	; (102b08 <_GLOBAL__sub_I_TOUCH_LC717A00_mode+0xe8>)
  102acc:	b003      	add	sp, #12
  102ace:	f85d eb04 	ldr.w	lr, [sp], #4
  102ad2:	f019 ba65 	b.w	11bfa0 <__aeabi_atexit>
  102ad6:	bf00      	nop
  102ad8:	3fff4a38 	.word	0x3fff4a38
  102adc:	3fff4000 	.word	0x3fff4000
  102ae0:	0011c009 	.word	0x0011c009
  102ae4:	3fff48c0 	.word	0x3fff48c0
  102ae8:	001027f9 	.word	0x001027f9
  102aec:	3fff4ac0 	.word	0x3fff4ac0
  102af0:	3fff4a50 	.word	0x3fff4a50
  102af4:	3fff4aec 	.word	0x3fff4aec
  102af8:	3fff4b04 	.word	0x3fff4b04
  102afc:	00102337 	.word	0x00102337
  102b00:	3fff4a68 	.word	0x3fff4a68
  102b04:	001023b1 	.word	0x001023b1
  102b08:	3fff4ad8 	.word	0x3fff4ad8
  102b0c:	00117481 	.word	0x00117481

00102b10 <__tcf_0>:
  102b10:	b538      	push	{r3, r4, r5, lr}
  102b12:	4d06      	ldr	r5, [pc, #24]	; (102b2c <__tcf_0+0x1c>)
  102b14:	2400      	movs	r4, #0
  102b16:	f504 70b4 	add.w	r0, r4, #360	; 0x168
  102b1a:	4428      	add	r0, r5
  102b1c:	3c18      	subs	r4, #24
  102b1e:	f019 fa5d 	bl	11bfdc <std::__cxx11::basic_string<char, std::char_traits<char>, std::allocator<char> >::_M_dispose()>
  102b22:	f514 7fc0 	cmn.w	r4, #384	; 0x180
  102b26:	d1f6      	bne.n	102b16 <__tcf_0+0x6>
  102b28:	bd38      	pop	{r3, r4, r5, pc}
  102b2a:	bf00      	nop
  102b2c:	3fff4b18 	.word	0x3fff4b18

00102b30 <led_on(char const*)>:
  102b30:	b570      	push	{r4, r5, r6, lr}
  102b32:	4604      	mov	r4, r0
  102b34:	4601      	mov	r1, r0
  102b36:	4828      	ldr	r0, [pc, #160]	; (102bd8 <led_on(char const*)+0xa8>)
  102b38:	f000 fdda 	bl	1036f0 <dbg_line>
  102b3c:	4620      	mov	r0, r4
  102b3e:	f007 f957 	bl	109df0 <json_decode>
  102b42:	4926      	ldr	r1, [pc, #152]	; (102bdc <led_on(char const*)+0xac>)
  102b44:	4606      	mov	r6, r0
  102b46:	f006 ff88 	bl	109a5a <json_find_member>
  102b4a:	b910      	cbnz	r0, 102b52 <led_on(char const*)+0x22>
  102b4c:	f04f 30ff 	mov.w	r0, #4294967295
  102b50:	bd70      	pop	{r4, r5, r6, pc}
  102b52:	e9d0 4506 	ldrd	r4, r5, [r0, #24]
  102b56:	2200      	movs	r2, #0
  102b58:	4b21      	ldr	r3, [pc, #132]	; (102be0 <led_on(char const*)+0xb0>)
  102b5a:	4620      	mov	r0, r4
  102b5c:	4629      	mov	r1, r5
  102b5e:	f01a f82f 	bl	11cbc0 <__aeabi_dcmplt>
  102b62:	2800      	cmp	r0, #0
  102b64:	d1f2      	bne.n	102b4c <led_on(char const*)+0x1c>
  102b66:	2200      	movs	r2, #0
  102b68:	f04f 4380 	mov.w	r3, #1073741824	; 0x40000000
  102b6c:	4620      	mov	r0, r4
  102b6e:	4629      	mov	r1, r5
  102b70:	f01a f844 	bl	11cbfc <__aeabi_dcmpgt>
  102b74:	2800      	cmp	r0, #0
  102b76:	d1e9      	bne.n	102b4c <led_on(char const*)+0x1c>
  102b78:	4620      	mov	r0, r4
  102b7a:	4629      	mov	r1, r5
  102b7c:	2200      	movs	r2, #0
  102b7e:	4b18      	ldr	r3, [pc, #96]	; (102be0 <led_on(char const*)+0xb0>)
  102b80:	f01a f814 	bl	11cbac <__aeabi_dcmpeq>
  102b84:	4917      	ldr	r1, [pc, #92]	; (102be4 <led_on(char const*)+0xb4>)
  102b86:	2800      	cmp	r0, #0
  102b88:	4630      	mov	r0, r6
  102b8a:	bf14      	ite	ne
  102b8c:	2401      	movne	r4, #1
  102b8e:	2402      	moveq	r4, #2
  102b90:	f006 ff63 	bl	109a5a <json_find_member>
  102b94:	4605      	mov	r5, r0
  102b96:	2800      	cmp	r0, #0
  102b98:	d0d8      	beq.n	102b4c <led_on(char const*)+0x1c>
  102b9a:	f100 0118 	add.w	r1, r0, #24
  102b9e:	e9d1 0100 	ldrd	r0, r1, [r1]
  102ba2:	2200      	movs	r2, #0
  102ba4:	2300      	movs	r3, #0
  102ba6:	f01a f829 	bl	11cbfc <__aeabi_dcmpgt>
  102baa:	4621      	mov	r1, r4
  102bac:	b160      	cbz	r0, 102bc8 <led_on(char const*)+0x98>
  102bae:	480e      	ldr	r0, [pc, #56]	; (102be8 <led_on(char const*)+0xb8>)
  102bb0:	f7ff fe9a 	bl	1028e8 <LEDBallast::enable(LEDCHANNEL_T)>
  102bb4:	e9d5 0106 	ldrd	r0, r1, [r5, #24]
  102bb8:	f01a f840 	bl	11cc3c <__aeabi_d2iz>
  102bbc:	4621      	mov	r1, r4
  102bbe:	4602      	mov	r2, r0
  102bc0:	4809      	ldr	r0, [pc, #36]	; (102be8 <led_on(char const*)+0xb8>)
  102bc2:	f7ff ff15 	bl	1029f0 <LEDBallast::setDC(LEDCHANNEL_T, int)>
  102bc6:	e002      	b.n	102bce <led_on(char const*)+0x9e>
  102bc8:	4807      	ldr	r0, [pc, #28]	; (102be8 <led_on(char const*)+0xb8>)
  102bca:	f7ff febf 	bl	10294c <LEDBallast::disable(LEDCHANNEL_T)>
  102bce:	4630      	mov	r0, r6
  102bd0:	f006 ffe2 	bl	109b98 <json_delete>
  102bd4:	2000      	movs	r0, #0
  102bd6:	bd70      	pop	{r4, r5, r6, pc}
  102bd8:	00124c34 	.word	0x00124c34
  102bdc:	00124c3e 	.word	0x00124c3e
  102be0:	3ff00000 	.word	0x3ff00000
  102be4:	00124c46 	.word	0x00124c46
  102be8:	3fff4f6c 	.word	0x3fff4f6c

00102bec <motor_rotate(char const*)>:
  102bec:	e92d 43f8 	stmdb	sp!, {r3, r4, r5, r6, r7, r8, r9, lr}
  102bf0:	4604      	mov	r4, r0
  102bf2:	4601      	mov	r1, r0
  102bf4:	4825      	ldr	r0, [pc, #148]	; (102c8c <motor_rotate(char const*)+0xa0>)
  102bf6:	f000 fd7b 	bl	1036f0 <dbg_line>
  102bfa:	4620      	mov	r0, r4
  102bfc:	f007 f8f8 	bl	109df0 <json_decode>
  102c00:	4923      	ldr	r1, [pc, #140]	; (102c90 <motor_rotate(char const*)+0xa4>)
  102c02:	4605      	mov	r5, r0
  102c04:	f006 ff29 	bl	109a5a <json_find_member>
  102c08:	4680      	mov	r8, r0
  102c0a:	b918      	cbnz	r0, 102c14 <motor_rotate(char const*)+0x28>
  102c0c:	f04f 30ff 	mov.w	r0, #4294967295
  102c10:	e8bd 83f8 	ldmia.w	sp!, {r3, r4, r5, r6, r7, r8, r9, pc}
  102c14:	491f      	ldr	r1, [pc, #124]	; (102c94 <motor_rotate(char const*)+0xa8>)
  102c16:	4628      	mov	r0, r5
  102c18:	f006 ff1f 	bl	109a5a <json_find_member>
  102c1c:	2800      	cmp	r0, #0
  102c1e:	d0f5      	beq.n	102c0c <motor_rotate(char const*)+0x20>
  102c20:	e9d0 6706 	ldrd	r6, r7, [r0, #24]
  102c24:	2200      	movs	r2, #0
  102c26:	4b1c      	ldr	r3, [pc, #112]	; (102c98 <motor_rotate(char const*)+0xac>)
  102c28:	4630      	mov	r0, r6
  102c2a:	4639      	mov	r1, r7
  102c2c:	f019 ffc8 	bl	11cbc0 <__aeabi_dcmplt>
  102c30:	2800      	cmp	r0, #0
  102c32:	d1eb      	bne.n	102c0c <motor_rotate(char const*)+0x20>
  102c34:	2200      	movs	r2, #0
  102c36:	f04f 4380 	mov.w	r3, #1073741824	; 0x40000000
  102c3a:	4630      	mov	r0, r6
  102c3c:	4639      	mov	r1, r7
  102c3e:	f019 ffdd 	bl	11cbfc <__aeabi_dcmpgt>
  102c42:	4681      	mov	r9, r0
  102c44:	2800      	cmp	r0, #0
  102c46:	d1e1      	bne.n	102c0c <motor_rotate(char const*)+0x20>
  102c48:	2200      	movs	r2, #0
  102c4a:	4b13      	ldr	r3, [pc, #76]	; (102c98 <motor_rotate(char const*)+0xac>)
  102c4c:	4630      	mov	r0, r6
  102c4e:	4639      	mov	r1, r7
  102c50:	f04f 0401 	mov.w	r4, #1
  102c54:	f019 ffaa 	bl	11cbac <__aeabi_dcmpeq>
  102c58:	b100      	cbz	r0, 102c5c <motor_rotate(char const*)+0x70>
  102c5a:	464c      	mov	r4, r9
  102c5c:	b2e4      	uxtb	r4, r4
  102c5e:	4621      	mov	r1, r4
  102c60:	480e      	ldr	r0, [pc, #56]	; (102c9c <motor_rotate(char const*)+0xb0>)
  102c62:	f7ff fc05 	bl	102470 <Arrow_Motor::enable(MOTOR_T)>
  102c66:	e9d8 0106 	ldrd	r0, r1, [r8, #24]
  102c6a:	f019 ffe7 	bl	11cc3c <__aeabi_d2iz>
  102c6e:	4621      	mov	r1, r4
  102c70:	4602      	mov	r2, r0
  102c72:	480a      	ldr	r0, [pc, #40]	; (102c9c <motor_rotate(char const*)+0xb0>)
  102c74:	f7ff fc38 	bl	1024e8 <Arrow_Motor::rotate(MOTOR_T, int)>
  102c78:	4621      	mov	r1, r4
  102c7a:	4808      	ldr	r0, [pc, #32]	; (102c9c <motor_rotate(char const*)+0xb0>)
  102c7c:	f7ff fbd8 	bl	102430 <Arrow_Motor::disable(MOTOR_T)>
  102c80:	4628      	mov	r0, r5
  102c82:	f006 ff89 	bl	109b98 <json_delete>
  102c86:	2000      	movs	r0, #0
  102c88:	e8bd 83f8 	ldmia.w	sp!, {r3, r4, r5, r6, r7, r8, r9, pc}
  102c8c:	00124c34 	.word	0x00124c34
  102c90:	00124c49 	.word	0x00124c49
  102c94:	00124c3e 	.word	0x00124c3e
  102c98:	3ff00000 	.word	0x3ff00000
  102c9c:	3fff4ccc 	.word	0x3fff4ccc

00102ca0 <get_telemetry_data(void*)>:
  102ca0:	b573      	push	{r0, r1, r4, r5, r6, lr}
  102ca2:	4604      	mov	r4, r0
  102ca4:	4601      	mov	r1, r0
  102ca6:	4814      	ldr	r0, [pc, #80]	; (102cf8 <get_telemetry_data(void*)+0x58>)
  102ca8:	f002 ff82 	bl	105bb0 <NOA1305::read(int&)>
  102cac:	4913      	ldr	r1, [pc, #76]	; (102cfc <get_telemetry_data(void*)+0x5c>)
  102cae:	4812      	ldr	r0, [pc, #72]	; (102cf8 <get_telemetry_data(void*)+0x58>)
  102cb0:	f002 ffca 	bl	105c48 <NOA1305::getAbmienceInLux(float)>
  102cb4:	6060      	str	r0, [r4, #4]
  102cb6:	4812      	ldr	r0, [pc, #72]	; (102d00 <get_telemetry_data(void*)+0x60>)
  102cb8:	68a5      	ldr	r5, [r4, #8]
  102cba:	f003 f8b1 	bl	105e20 <NCS36000::read()>
  102cbe:	4285      	cmp	r5, r0
  102cc0:	4606      	mov	r6, r0
  102cc2:	60a0      	str	r0, [r4, #8]
  102cc4:	4b0f      	ldr	r3, [pc, #60]	; (102d04 <get_telemetry_data(void*)+0x64>)
  102cc6:	d107      	bne.n	102cd8 <get_telemetry_data(void*)+0x38>
  102cc8:	681a      	ldr	r2, [r3, #0]
  102cca:	1c51      	adds	r1, r2, #1
  102ccc:	2a09      	cmp	r2, #9
  102cce:	6019      	str	r1, [r3, #0]
  102cd0:	dc02      	bgt.n	102cd8 <get_telemetry_data(void*)+0x38>
  102cd2:	f04f 30ff 	mov.w	r0, #4294967295
  102cd6:	e00c      	b.n	102cf2 <get_telemetry_data(void*)+0x52>
  102cd8:	2500      	movs	r5, #0
  102cda:	601d      	str	r5, [r3, #0]
  102cdc:	6860      	ldr	r0, [r4, #4]
  102cde:	f019 fca9 	bl	11c634 <__aeabi_f2d>
  102ce2:	6822      	ldr	r2, [r4, #0]
  102ce4:	e9cd 0100 	strd	r0, r1, [sp]
  102ce8:	4807      	ldr	r0, [pc, #28]	; (102d08 <get_telemetry_data(void*)+0x68>)
  102cea:	4631      	mov	r1, r6
  102cec:	f000 fd00 	bl	1036f0 <dbg_line>
  102cf0:	4628      	mov	r0, r5
  102cf2:	b002      	add	sp, #8
  102cf4:	bd70      	pop	{r4, r5, r6, pc}
  102cf6:	bf00      	nop
  102cf8:	3fff4cc8 	.word	0x3fff4cc8
  102cfc:	40f66666 	.word	0x40f66666
  102d00:	3fff4ee4 	.word	0x3fff4ee4
  102d04:	3fff4df0 	.word	0x3fff4df0
  102d08:	00124c4f 	.word	0x00124c4f

00102d0c <W5100Interface::~W5100Interface()>:
  102d0c:	b510      	push	{r4, lr}
  102d0e:	4604      	mov	r4, r0
  102d10:	3024      	adds	r0, #36	; 0x24
  102d12:	f005 fbbb 	bl	10848c <PCA9655E::~PCA9655E()>
  102d16:	4620      	mov	r0, r4
  102d18:	bd10      	pop	{r4, pc}
	...

00102d1c <std::__cxx11::basic_string<char, std::char_traits<char>, std::allocator<char> >::basic_string(char const*, std::allocator<char> const&) [clone .isra.14] [clone .constprop.16]>:
  102d1c:	b510      	push	{r4, lr}
  102d1e:	4604      	mov	r4, r0
  102d20:	4a05      	ldr	r2, [pc, #20]	; (102d38 <std::__cxx11::basic_string<char, std::char_traits<char>, std::allocator<char> >::basic_string(char const*, std::allocator<char> const&) [clone .isra.14] [clone .constprop.16]+0x1c>)
  102d22:	3008      	adds	r0, #8
  102d24:	6020      	str	r0, [r4, #0]
  102d26:	4611      	mov	r1, r2
  102d28:	f019 f969 	bl	11bffe <std::__cxx11::basic_string<char, std::char_traits<char>, std::allocator<char> >::_S_copy_chars(char*, char const*, char const*)>
  102d2c:	6822      	ldr	r2, [r4, #0]
  102d2e:	2300      	movs	r3, #0
  102d30:	6063      	str	r3, [r4, #4]
  102d32:	7013      	strb	r3, [r2, #0]
  102d34:	4620      	mov	r0, r4
  102d36:	bd10      	pop	{r4, pc}
  102d38:	0012646d 	.word	0x0012646d

00102d3c <main>:
  102d3c:	b530      	push	{r4, r5, lr}
  102d3e:	f04f 507e 	mov.w	r0, #1065353216	; 0x3f800000
  102d42:	b087      	sub	sp, #28
  102d44:	f016 fcc4 	bl	1196d0 <wait>
  102d48:	4843      	ldr	r0, [pc, #268]	; (102e58 <main+0x11c>)
  102d4a:	f000 fcd1 	bl	1036f0 <dbg_line>
  102d4e:	2398      	movs	r3, #152	; 0x98
  102d50:	f88d 3004 	strb.w	r3, [sp, #4]
  102d54:	234f      	movs	r3, #79	; 0x4f
  102d56:	f88d 3005 	strb.w	r3, [sp, #5]
  102d5a:	23ee      	movs	r3, #238	; 0xee
  102d5c:	f88d 3006 	strb.w	r3, [sp, #6]
  102d60:	2300      	movs	r3, #0
  102d62:	f88d 3007 	strb.w	r3, [sp, #7]
  102d66:	23a1      	movs	r3, #161	; 0xa1
  102d68:	f88d 3008 	strb.w	r3, [sp, #8]
  102d6c:	a901      	add	r1, sp, #4
  102d6e:	2303      	movs	r3, #3
  102d70:	483a      	ldr	r0, [pc, #232]	; (102e5c <main+0x120>)
  102d72:	f88d 3009 	strb.w	r3, [sp, #9]
  102d76:	f003 fbc8 	bl	10650a <W5100Interface::init(unsigned char*)>
  102d7a:	4601      	mov	r1, r0
  102d7c:	b960      	cbnz	r0, 102d98 <main+0x5c>
  102d7e:	4837      	ldr	r0, [pc, #220]	; (102e5c <main+0x120>)
  102d80:	f003 fb06 	bl	106390 <W5100Interface::getMACAddress()>
  102d84:	4601      	mov	r1, r0
  102d86:	4836      	ldr	r0, [pc, #216]	; (102e60 <main+0x124>)
  102d88:	f000 fcb2 	bl	1036f0 <dbg_line>
  102d8c:	4833      	ldr	r0, [pc, #204]	; (102e5c <main+0x120>)
  102d8e:	f003 fb77 	bl	106480 <W5100Interface::connect()>
  102d92:	4601      	mov	r1, r0
  102d94:	b110      	cbz	r0, 102d9c <main+0x60>
  102d96:	e045      	b.n	102e24 <main+0xe8>
  102d98:	4832      	ldr	r0, [pc, #200]	; (102e64 <main+0x128>)
  102d9a:	e044      	b.n	102e26 <main+0xea>
  102d9c:	482f      	ldr	r0, [pc, #188]	; (102e5c <main+0x120>)
  102d9e:	f003 fbeb 	bl	106578 <W5100Interface::getIPAddress()>
  102da2:	4604      	mov	r4, r0
  102da4:	482d      	ldr	r0, [pc, #180]	; (102e5c <main+0x120>)
  102da6:	f003 fc01 	bl	1065ac <W5100Interface::getNetworkMask()>
  102daa:	4605      	mov	r5, r0
  102dac:	482b      	ldr	r0, [pc, #172]	; (102e5c <main+0x120>)
  102dae:	f003 fc17 	bl	1065e0 <W5100Interface::getGateway()>
  102db2:	4621      	mov	r1, r4
  102db4:	4603      	mov	r3, r0
  102db6:	462a      	mov	r2, r5
  102db8:	482b      	ldr	r0, [pc, #172]	; (102e68 <main+0x12c>)
  102dba:	f000 fc99 	bl	1036f0 <dbg_line>
  102dbe:	2102      	movs	r1, #2
  102dc0:	482a      	ldr	r0, [pc, #168]	; (102e6c <main+0x130>)
  102dc2:	f002 fded 	bl	1059a0 <NOA1305::init(NOA1305_IntTime)>
  102dc6:	4604      	mov	r4, r0
  102dc8:	2800      	cmp	r0, #0
  102dca:	d140      	bne.n	102e4e <main+0x112>
  102dcc:	4828      	ldr	r0, [pc, #160]	; (102e70 <main+0x134>)
  102dce:	f000 fc8f 	bl	1036f0 <dbg_line>
  102dd2:	f04f 507e 	mov.w	r0, #1065353216	; 0x3f800000
  102dd6:	f016 fc7b 	bl	1196d0 <wait>
  102dda:	4926      	ldr	r1, [pc, #152]	; (102e74 <main+0x138>)
  102ddc:	4826      	ldr	r0, [pc, #152]	; (102e78 <main+0x13c>)
  102dde:	f005 fc1d 	bl	10861c <add_cmd_handler>
  102de2:	4826      	ldr	r0, [pc, #152]	; (102e7c <main+0x140>)
  102de4:	f7ff fd42 	bl	10286c <LEDBallast::init()>
  102de8:	4925      	ldr	r1, [pc, #148]	; (102e80 <main+0x144>)
  102dea:	4826      	ldr	r0, [pc, #152]	; (102e84 <main+0x148>)
  102dec:	f005 fc16 	bl	10861c <add_cmd_handler>
  102df0:	4620      	mov	r0, r4
  102df2:	f000 fe1b 	bl	103a2c <time>
  102df6:	4601      	mov	r1, r0
  102df8:	9000      	str	r0, [sp, #0]
  102dfa:	4823      	ldr	r0, [pc, #140]	; (102e88 <main+0x14c>)
  102dfc:	f000 fc78 	bl	1036f0 <dbg_line>
  102e00:	f005 fb8e 	bl	108520 <ntp_set_time_cycle>
  102e04:	4620      	mov	r0, r4
  102e06:	f000 fe11 	bl	103a2c <time>
  102e0a:	ab06      	add	r3, sp, #24
  102e0c:	f843 0d18 	str.w	r0, [r3, #-24]!
  102e10:	4618      	mov	r0, r3
  102e12:	f01a faf2 	bl	11d3fa <ctime>
  102e16:	4601      	mov	r1, r0
  102e18:	481c      	ldr	r0, [pc, #112]	; (102e8c <main+0x150>)
  102e1a:	f000 fc69 	bl	1036f0 <dbg_line>
  102e1e:	f005 fcdd 	bl	1087dc <arrow_initialize_routine>
  102e22:	e003      	b.n	102e2c <main+0xf0>
  102e24:	481a      	ldr	r0, [pc, #104]	; (102e90 <main+0x154>)
  102e26:	f000 fc63 	bl	1036f0 <dbg_line>
  102e2a:	e010      	b.n	102e4e <main+0x112>
  102e2c:	a803      	add	r0, sp, #12
  102e2e:	f7ff ff37 	bl	102ca0 <get_telemetry_data(void*)>
  102e32:	2800      	cmp	r0, #0
  102e34:	dbfa      	blt.n	102e2c <main+0xf0>
  102e36:	a803      	add	r0, sp, #12
  102e38:	f005 fd24 	bl	108884 <arrow_send_telemetry_routine>
  102e3c:	f005 fd42 	bl	1088c4 <arrow_mqtt_connect_routine>
  102e40:	a903      	add	r1, sp, #12
  102e42:	4814      	ldr	r0, [pc, #80]	; (102e94 <main+0x158>)
  102e44:	f005 fd74 	bl	108930 <arrow_mqtt_send_telemetry_routine>
  102e48:	f005 fdb8 	bl	1089bc <arrow_close>
  102e4c:	e001      	b.n	102e52 <main+0x116>
  102e4e:	f04f 34ff 	mov.w	r4, #4294967295
  102e52:	4620      	mov	r0, r4
  102e54:	b007      	add	sp, #28
  102e56:	bd30      	pop	{r4, r5, pc}
  102e58:	00124c6b 	.word	0x00124c6b
  102e5c:	3fff4df4 	.word	0x3fff4df4
  102e60:	00124c7a 	.word	0x00124c7a
  102e64:	00124c8f 	.word	0x00124c8f
  102e68:	00124cab 	.word	0x00124cab
  102e6c:	3fff4cc8 	.word	0x3fff4cc8
  102e70:	00124ce3 	.word	0x00124ce3
  102e74:	00102bed 	.word	0x00102bed
  102e78:	00124d01 	.word	0x00124d01
  102e7c:	3fff4f6c 	.word	0x3fff4f6c
  102e80:	00102b31 	.word	0x00102b31
  102e84:	001246c2 	.word	0x001246c2
  102e88:	00124d07 	.word	0x00124d07
  102e8c:	00124d14 	.word	0x00124d14
  102e90:	00124cc4 	.word	0x00124cc4
  102e94:	00102ca1 	.word	0x00102ca1

00102e98 <_GLOBAL__sub_I_TOUCH_LC717A00_mode>:
  102e98:	b507      	push	{r0, r1, r2, lr}
  102e9a:	4839      	ldr	r0, [pc, #228]	; (102f80 <_GLOBAL__sub_I_TOUCH_LC717A00_mode+0xe8>)
  102e9c:	f7ff ff3e 	bl	102d1c <std::__cxx11::basic_string<char, std::char_traits<char>, std::allocator<char> >::basic_string(char const*, std::allocator<char> const&) [clone .isra.14] [clone .constprop.16]>
  102ea0:	4a38      	ldr	r2, [pc, #224]	; (102f84 <_GLOBAL__sub_I_TOUCH_LC717A00_mode+0xec>)
  102ea2:	4939      	ldr	r1, [pc, #228]	; (102f88 <_GLOBAL__sub_I_TOUCH_LC717A00_mode+0xf0>)
  102ea4:	4836      	ldr	r0, [pc, #216]	; (102f80 <_GLOBAL__sub_I_TOUCH_LC717A00_mode+0xe8>)
  102ea6:	f019 f87b 	bl	11bfa0 <__aeabi_atexit>
  102eaa:	4b38      	ldr	r3, [pc, #224]	; (102f8c <_GLOBAL__sub_I_TOUCH_LC717A00_mode+0xf4>)
  102eac:	2200      	movs	r2, #0
  102eae:	f503 70c0 	add.w	r0, r3, #384	; 0x180
  102eb2:	4619      	mov	r1, r3
  102eb4:	f843 2c04 	str.w	r2, [r3, #-4]
  102eb8:	f843 3c08 	str.w	r3, [r3, #-8]
  102ebc:	f801 2b18 	strb.w	r2, [r1], #24
  102ec0:	6119      	str	r1, [r3, #16]
  102ec2:	615a      	str	r2, [r3, #20]
  102ec4:	761a      	strb	r2, [r3, #24]
  102ec6:	3330      	adds	r3, #48	; 0x30
  102ec8:	4283      	cmp	r3, r0
  102eca:	d1f2      	bne.n	102eb2 <_GLOBAL__sub_I_TOUCH_LC717A00_mode+0x1a>
  102ecc:	4a2d      	ldr	r2, [pc, #180]	; (102f84 <_GLOBAL__sub_I_TOUCH_LC717A00_mode+0xec>)
  102ece:	4930      	ldr	r1, [pc, #192]	; (102f90 <_GLOBAL__sub_I_TOUCH_LC717A00_mode+0xf8>)
  102ed0:	2000      	movs	r0, #0
  102ed2:	f019 f865 	bl	11bfa0 <__aeabi_atexit>
  102ed6:	482f      	ldr	r0, [pc, #188]	; (102f94 <_GLOBAL__sub_I_TOUCH_LC717A00_mode+0xfc>)
  102ed8:	f7ff ff20 	bl	102d1c <std::__cxx11::basic_string<char, std::char_traits<char>, std::allocator<char> >::basic_string(char const*, std::allocator<char> const&) [clone .isra.14] [clone .constprop.16]>
  102edc:	4a29      	ldr	r2, [pc, #164]	; (102f84 <_GLOBAL__sub_I_TOUCH_LC717A00_mode+0xec>)
  102ede:	492a      	ldr	r1, [pc, #168]	; (102f88 <_GLOBAL__sub_I_TOUCH_LC717A00_mode+0xf0>)
  102ee0:	482c      	ldr	r0, [pc, #176]	; (102f94 <_GLOBAL__sub_I_TOUCH_LC717A00_mode+0xfc>)
  102ee2:	f019 f85d 	bl	11bfa0 <__aeabi_atexit>
  102ee6:	482c      	ldr	r0, [pc, #176]	; (102f98 <_GLOBAL__sub_I_TOUCH_LC717A00_mode+0x100>)
  102ee8:	f7ff ff18 	bl	102d1c <std::__cxx11::basic_string<char, std::char_traits<char>, std::allocator<char> >::basic_string(char const*, std::allocator<char> const&) [clone .isra.14] [clone .constprop.16]>
  102eec:	4a25      	ldr	r2, [pc, #148]	; (102f84 <_GLOBAL__sub_I_TOUCH_LC717A00_mode+0xec>)
  102eee:	4926      	ldr	r1, [pc, #152]	; (102f88 <_GLOBAL__sub_I_TOUCH_LC717A00_mode+0xf0>)
  102ef0:	4829      	ldr	r0, [pc, #164]	; (102f98 <_GLOBAL__sub_I_TOUCH_LC717A00_mode+0x100>)
  102ef2:	f019 f855 	bl	11bfa0 <__aeabi_atexit>
  102ef6:	4829      	ldr	r0, [pc, #164]	; (102f9c <_GLOBAL__sub_I_TOUCH_LC717A00_mode+0x104>)
  102ef8:	f7ff ff10 	bl	102d1c <std::__cxx11::basic_string<char, std::char_traits<char>, std::allocator<char> >::basic_string(char const*, std::allocator<char> const&) [clone .isra.14] [clone .constprop.16]>
  102efc:	4a21      	ldr	r2, [pc, #132]	; (102f84 <_GLOBAL__sub_I_TOUCH_LC717A00_mode+0xec>)
  102efe:	4922      	ldr	r1, [pc, #136]	; (102f88 <_GLOBAL__sub_I_TOUCH_LC717A00_mode+0xf0>)
  102f00:	4826      	ldr	r0, [pc, #152]	; (102f9c <_GLOBAL__sub_I_TOUCH_LC717A00_mode+0x104>)
  102f02:	f019 f84d 	bl	11bfa0 <__aeabi_atexit>
  102f06:	f04f 33ff 	mov.w	r3, #4294967295
  102f0a:	9300      	str	r3, [sp, #0]
  102f0c:	2240      	movs	r2, #64	; 0x40
  102f0e:	2310      	movs	r3, #16
  102f10:	2120      	movs	r1, #32
  102f12:	4823      	ldr	r0, [pc, #140]	; (102fa0 <_GLOBAL__sub_I_TOUCH_LC717A00_mode+0x108>)
  102f14:	f018 fd68 	bl	11b9e8 <mbed::SPI::SPI(PinName, PinName, PinName, PinName)>
  102f18:	4a1a      	ldr	r2, [pc, #104]	; (102f84 <_GLOBAL__sub_I_TOUCH_LC717A00_mode+0xec>)
  102f1a:	4922      	ldr	r1, [pc, #136]	; (102fa4 <_GLOBAL__sub_I_TOUCH_LC717A00_mode+0x10c>)
  102f1c:	4820      	ldr	r0, [pc, #128]	; (102fa0 <_GLOBAL__sub_I_TOUCH_LC717A00_mode+0x108>)
  102f1e:	f019 f83f 	bl	11bfa0 <__aeabi_atexit>
  102f22:	2300      	movs	r3, #0
  102f24:	2202      	movs	r2, #2
  102f26:	2101      	movs	r1, #1
  102f28:	481f      	ldr	r0, [pc, #124]	; (102fa8 <_GLOBAL__sub_I_TOUCH_LC717A00_mode+0x110>)
  102f2a:	f018 fca7 	bl	11b87c <mbed::Serial::Serial(PinName, PinName, char const*)>
  102f2e:	4a15      	ldr	r2, [pc, #84]	; (102f84 <_GLOBAL__sub_I_TOUCH_LC717A00_mode+0xec>)
  102f30:	491e      	ldr	r1, [pc, #120]	; (102fac <_GLOBAL__sub_I_TOUCH_LC717A00_mode+0x114>)
  102f32:	481d      	ldr	r0, [pc, #116]	; (102fa8 <_GLOBAL__sub_I_TOUCH_LC717A00_mode+0x110>)
  102f34:	f019 f834 	bl	11bfa0 <__aeabi_atexit>
  102f38:	481d      	ldr	r0, [pc, #116]	; (102fb0 <_GLOBAL__sub_I_TOUCH_LC717A00_mode+0x118>)
  102f3a:	f014 fa5d 	bl	1173f8 <rtos::Mutex::Mutex()>
  102f3e:	4a11      	ldr	r2, [pc, #68]	; (102f84 <_GLOBAL__sub_I_TOUCH_LC717A00_mode+0xec>)
  102f40:	491c      	ldr	r1, [pc, #112]	; (102fb4 <_GLOBAL__sub_I_TOUCH_LC717A00_mode+0x11c>)
  102f42:	481b      	ldr	r0, [pc, #108]	; (102fb0 <_GLOBAL__sub_I_TOUCH_LC717A00_mode+0x118>)
  102f44:	f019 f82c 	bl	11bfa0 <__aeabi_atexit>
  102f48:	481b      	ldr	r0, [pc, #108]	; (102fb8 <_GLOBAL__sub_I_TOUCH_LC717A00_mode+0x120>)
  102f4a:	f003 fa17 	bl	10637c <W5100Interface::W5100Interface()>
  102f4e:	4a0d      	ldr	r2, [pc, #52]	; (102f84 <_GLOBAL__sub_I_TOUCH_LC717A00_mode+0xec>)
  102f50:	491a      	ldr	r1, [pc, #104]	; (102fbc <_GLOBAL__sub_I_TOUCH_LC717A00_mode+0x124>)
  102f52:	4819      	ldr	r0, [pc, #100]	; (102fb8 <_GLOBAL__sub_I_TOUCH_LC717A00_mode+0x120>)
  102f54:	f019 f824 	bl	11bfa0 <__aeabi_atexit>
  102f58:	4819      	ldr	r0, [pc, #100]	; (102fc0 <_GLOBAL__sub_I_TOUCH_LC717A00_mode+0x128>)
  102f5a:	f7ff fa57 	bl	10240c <Arrow_Motor::Arrow_Motor()>
  102f5e:	4a09      	ldr	r2, [pc, #36]	; (102f84 <_GLOBAL__sub_I_TOUCH_LC717A00_mode+0xec>)
  102f60:	4918      	ldr	r1, [pc, #96]	; (102fc4 <_GLOBAL__sub_I_TOUCH_LC717A00_mode+0x12c>)
  102f62:	4817      	ldr	r0, [pc, #92]	; (102fc0 <_GLOBAL__sub_I_TOUCH_LC717A00_mode+0x128>)
  102f64:	f019 f81c 	bl	11bfa0 <__aeabi_atexit>
  102f68:	4817      	ldr	r0, [pc, #92]	; (102fc8 <_GLOBAL__sub_I_TOUCH_LC717A00_mode+0x130>)
  102f6a:	f7ff fc65 	bl	102838 <LEDBallast::LEDBallast()>
  102f6e:	4a05      	ldr	r2, [pc, #20]	; (102f84 <_GLOBAL__sub_I_TOUCH_LC717A00_mode+0xec>)
  102f70:	4916      	ldr	r1, [pc, #88]	; (102fcc <_GLOBAL__sub_I_TOUCH_LC717A00_mode+0x134>)
  102f72:	4815      	ldr	r0, [pc, #84]	; (102fc8 <_GLOBAL__sub_I_TOUCH_LC717A00_mode+0x130>)
  102f74:	b003      	add	sp, #12
  102f76:	f85d eb04 	ldr.w	lr, [sp], #4
  102f7a:	f019 b811 	b.w	11bfa0 <__aeabi_atexit>
  102f7e:	bf00      	nop
  102f80:	3fff4c98 	.word	0x3fff4c98
  102f84:	3fff4000 	.word	0x3fff4000
  102f88:	0011c009 	.word	0x0011c009
  102f8c:	3fff4b20 	.word	0x3fff4b20
  102f90:	00102b11 	.word	0x00102b11
  102f94:	3fff4dd8 	.word	0x3fff4dd8
  102f98:	3fff4cb0 	.word	0x3fff4cb0
  102f9c:	3fff4ee8 	.word	0x3fff4ee8
  102fa0:	3fff4f58 	.word	0x3fff4f58
  102fa4:	00102337 	.word	0x00102337
  102fa8:	3fff4f00 	.word	0x3fff4f00
  102fac:	001023b1 	.word	0x001023b1
  102fb0:	3fff4ed0 	.word	0x3fff4ed0
  102fb4:	00117481 	.word	0x00117481
  102fb8:	3fff4df4 	.word	0x3fff4df4
  102fbc:	00102d0d 	.word	0x00102d0d
  102fc0:	3fff4ccc 	.word	0x3fff4ccc
  102fc4:	00102365 	.word	0x00102365
  102fc8:	3fff4f6c 	.word	0x3fff4f6c
  102fcc:	001029b5 	.word	0x001029b5

00102fd0 <__tcf_0>:
  102fd0:	b538      	push	{r3, r4, r5, lr}
  102fd2:	4d06      	ldr	r5, [pc, #24]	; (102fec <__tcf_0+0x1c>)
  102fd4:	2400      	movs	r4, #0
  102fd6:	f504 70b4 	add.w	r0, r4, #360	; 0x168
  102fda:	4428      	add	r0, r5
  102fdc:	3c18      	subs	r4, #24
  102fde:	f018 fffd 	bl	11bfdc <std::__cxx11::basic_string<char, std::char_traits<char>, std::allocator<char> >::_M_dispose()>
  102fe2:	f514 7fc0 	cmn.w	r4, #384	; 0x180
  102fe6:	d1f6      	bne.n	102fd6 <__tcf_0+0x6>
  102fe8:	bd38      	pop	{r3, r4, r5, pc}
  102fea:	bf00      	nop
  102fec:	3fff4fec 	.word	0x3fff4fec

00102ff0 <StorageEEPROM::~StorageEEPROM()>:
  102ff0:	4b04      	ldr	r3, [pc, #16]	; (103004 <StorageEEPROM::~StorageEEPROM()+0x14>)
  102ff2:	b510      	push	{r4, lr}
  102ff4:	4604      	mov	r4, r0
  102ff6:	6003      	str	r3, [r0, #0]
  102ff8:	6880      	ldr	r0, [r0, #8]
  102ffa:	b108      	cbz	r0, 103000 <StorageEEPROM::~StorageEEPROM()+0x10>
  102ffc:	f018 ffce 	bl	11bf9c <operator delete[](void*)>
  103000:	4620      	mov	r0, r4
  103002:	bd10      	pop	{r4, pc}
  103004:	00124d28 	.word	0x00124d28

00103008 <StorageEEPROM::~StorageEEPROM()>:
  103008:	b510      	push	{r4, lr}
  10300a:	4604      	mov	r4, r0
  10300c:	f7ff fff0 	bl	102ff0 <StorageEEPROM::~StorageEEPROM()>
  103010:	4620      	mov	r0, r4
  103012:	f018 ffca 	bl	11bfaa <operator delete(void*)>
  103016:	4620      	mov	r0, r4
  103018:	bd10      	pop	{r4, pc}
	...

0010301c <std::__cxx11::basic_string<char, std::char_traits<char>, std::allocator<char> >::basic_string(char const*, std::allocator<char> const&) [clone .isra.14] [clone .constprop.16]>:
  10301c:	b510      	push	{r4, lr}
  10301e:	4604      	mov	r4, r0
  103020:	4a05      	ldr	r2, [pc, #20]	; (103038 <std::__cxx11::basic_string<char, std::char_traits<char>, std::allocator<char> >::basic_string(char const*, std::allocator<char> const&) [clone .isra.14] [clone .constprop.16]+0x1c>)
  103022:	3008      	adds	r0, #8
  103024:	6020      	str	r0, [r4, #0]
  103026:	4611      	mov	r1, r2
  103028:	f018 ffe9 	bl	11bffe <std::__cxx11::basic_string<char, std::char_traits<char>, std::allocator<char> >::_S_copy_chars(char*, char const*, char const*)>
  10302c:	6822      	ldr	r2, [r4, #0]
  10302e:	2300      	movs	r3, #0
  103030:	6063      	str	r3, [r4, #4]
  103032:	7013      	strb	r3, [r2, #0]
  103034:	4620      	mov	r0, r4
  103036:	bd10      	pop	{r4, pc}
  103038:	0012646d 	.word	0x0012646d

0010303c <flash_read>:
  10303c:	b51f      	push	{r0, r1, r2, r3, r4, lr}
  10303e:	f44f 7380 	mov.w	r3, #256	; 0x100
  103042:	f44f 2280 	mov.w	r2, #262144	; 0x40000
  103046:	4909      	ldr	r1, [pc, #36]	; (10306c <flash_read+0x30>)
  103048:	a801      	add	r0, sp, #4
  10304a:	f002 ff89 	bl	105f60 <SerCAT25M02::SerCAT25M02(mbed::SPI*, int, int)>
  10304e:	4b08      	ldr	r3, [pc, #32]	; (103070 <flash_read+0x34>)
  103050:	a801      	add	r0, sp, #4
  103052:	685a      	ldr	r2, [r3, #4]
  103054:	689b      	ldr	r3, [r3, #8]
  103056:	0a11      	lsrs	r1, r2, #8
  103058:	f002 ffb0 	bl	105fbc <SerCAT25M02::read(unsigned int, unsigned int, char*)>
  10305c:	4604      	mov	r4, r0
  10305e:	a801      	add	r0, sp, #4
  103060:	f002 ffa6 	bl	105fb0 <SerCAT25M02::~SerCAT25M02()>
  103064:	4620      	mov	r0, r4
  103066:	b004      	add	sp, #16
  103068:	bd10      	pop	{r4, pc}
  10306a:	bf00      	nop
  10306c:	3fff5218 	.word	0x3fff5218
  103070:	3fff520c 	.word	0x3fff520c

00103074 <flash_write>:
  103074:	b57f      	push	{r0, r1, r2, r3, r4, r5, r6, lr}
  103076:	460e      	mov	r6, r1
  103078:	4605      	mov	r5, r0
  10307a:	b330      	cbz	r0, 1030ca <flash_write+0x56>
  10307c:	4c15      	ldr	r4, [pc, #84]	; (1030d4 <flash_write+0x60>)
  10307e:	f44f 7380 	mov.w	r3, #256	; 0x100
  103082:	f44f 2280 	mov.w	r2, #262144	; 0x40000
  103086:	4914      	ldr	r1, [pc, #80]	; (1030d8 <flash_write+0x64>)
  103088:	a801      	add	r0, sp, #4
  10308a:	f002 ff69 	bl	105f60 <SerCAT25M02::SerCAT25M02(mbed::SPI*, int, int)>
  10308e:	4632      	mov	r2, r6
  103090:	4629      	mov	r1, r5
  103092:	68a0      	ldr	r0, [r4, #8]
  103094:	f01a ff91 	bl	11dfba <memcpy>
  103098:	68a3      	ldr	r3, [r4, #8]
  10309a:	aa01      	add	r2, sp, #4
  10309c:	6861      	ldr	r1, [r4, #4]
  10309e:	480f      	ldr	r0, [pc, #60]	; (1030dc <flash_write+0x68>)
  1030a0:	f000 fb26 	bl	1036f0 <dbg_line>
  1030a4:	6862      	ldr	r2, [r4, #4]
  1030a6:	68a3      	ldr	r3, [r4, #8]
  1030a8:	0a11      	lsrs	r1, r2, #8
  1030aa:	a801      	add	r0, sp, #4
  1030ac:	f002 fffc 	bl	1060a8 <SerCAT25M02::write(unsigned int, unsigned int, char const*)>
  1030b0:	4604      	mov	r4, r0
  1030b2:	4601      	mov	r1, r0
  1030b4:	f084 0401 	eor.w	r4, r4, #1
  1030b8:	4809      	ldr	r0, [pc, #36]	; (1030e0 <flash_write+0x6c>)
  1030ba:	f000 fb19 	bl	1036f0 <dbg_line>
  1030be:	b2e4      	uxtb	r4, r4
  1030c0:	a801      	add	r0, sp, #4
  1030c2:	4264      	negs	r4, r4
  1030c4:	f002 ff74 	bl	105fb0 <SerCAT25M02::~SerCAT25M02()>
  1030c8:	e001      	b.n	1030ce <flash_write+0x5a>
  1030ca:	f04f 34ff 	mov.w	r4, #4294967295
  1030ce:	4620      	mov	r0, r4
  1030d0:	b004      	add	sp, #16
  1030d2:	bd70      	pop	{r4, r5, r6, pc}
  1030d4:	3fff520c 	.word	0x3fff520c
  1030d8:	3fff5218 	.word	0x3fff5218
  1030dc:	00124d30 	.word	0x00124d30
  1030e0:	00124d45 	.word	0x00124d45

001030e4 <_GLOBAL__sub_I_TOUCH_LC717A00_mode>:
  1030e4:	b513      	push	{r0, r1, r4, lr}
  1030e6:	483f      	ldr	r0, [pc, #252]	; (1031e4 <_GLOBAL__sub_I_TOUCH_LC717A00_mode+0x100>)
  1030e8:	f7ff ff98 	bl	10301c <std::__cxx11::basic_string<char, std::char_traits<char>, std::allocator<char> >::basic_string(char const*, std::allocator<char> const&) [clone .isra.14] [clone .constprop.16]>
  1030ec:	4a3e      	ldr	r2, [pc, #248]	; (1031e8 <_GLOBAL__sub_I_TOUCH_LC717A00_mode+0x104>)
  1030ee:	493f      	ldr	r1, [pc, #252]	; (1031ec <_GLOBAL__sub_I_TOUCH_LC717A00_mode+0x108>)
  1030f0:	483c      	ldr	r0, [pc, #240]	; (1031e4 <_GLOBAL__sub_I_TOUCH_LC717A00_mode+0x100>)
  1030f2:	f018 ff55 	bl	11bfa0 <__aeabi_atexit>
  1030f6:	4b3e      	ldr	r3, [pc, #248]	; (1031f0 <_GLOBAL__sub_I_TOUCH_LC717A00_mode+0x10c>)
  1030f8:	2200      	movs	r2, #0
  1030fa:	f503 70c0 	add.w	r0, r3, #384	; 0x180
  1030fe:	4619      	mov	r1, r3
  103100:	f843 2c04 	str.w	r2, [r3, #-4]
  103104:	f843 3c08 	str.w	r3, [r3, #-8]
  103108:	f801 2b18 	strb.w	r2, [r1], #24
  10310c:	6119      	str	r1, [r3, #16]
  10310e:	615a      	str	r2, [r3, #20]
  103110:	761a      	strb	r2, [r3, #24]
  103112:	3330      	adds	r3, #48	; 0x30
  103114:	4283      	cmp	r3, r0
  103116:	d1f2      	bne.n	1030fe <_GLOBAL__sub_I_TOUCH_LC717A00_mode+0x1a>
  103118:	4a33      	ldr	r2, [pc, #204]	; (1031e8 <_GLOBAL__sub_I_TOUCH_LC717A00_mode+0x104>)
  10311a:	4936      	ldr	r1, [pc, #216]	; (1031f4 <_GLOBAL__sub_I_TOUCH_LC717A00_mode+0x110>)
  10311c:	2000      	movs	r0, #0
  10311e:	f018 ff3f 	bl	11bfa0 <__aeabi_atexit>
  103122:	4835      	ldr	r0, [pc, #212]	; (1031f8 <_GLOBAL__sub_I_TOUCH_LC717A00_mode+0x114>)
  103124:	f7ff ff7a 	bl	10301c <std::__cxx11::basic_string<char, std::char_traits<char>, std::allocator<char> >::basic_string(char const*, std::allocator<char> const&) [clone .isra.14] [clone .constprop.16]>
  103128:	4a2f      	ldr	r2, [pc, #188]	; (1031e8 <_GLOBAL__sub_I_TOUCH_LC717A00_mode+0x104>)
  10312a:	4930      	ldr	r1, [pc, #192]	; (1031ec <_GLOBAL__sub_I_TOUCH_LC717A00_mode+0x108>)
  10312c:	4832      	ldr	r0, [pc, #200]	; (1031f8 <_GLOBAL__sub_I_TOUCH_LC717A00_mode+0x114>)
  10312e:	f018 ff37 	bl	11bfa0 <__aeabi_atexit>
  103132:	4832      	ldr	r0, [pc, #200]	; (1031fc <_GLOBAL__sub_I_TOUCH_LC717A00_mode+0x118>)
  103134:	f7ff ff72 	bl	10301c <std::__cxx11::basic_string<char, std::char_traits<char>, std::allocator<char> >::basic_string(char const*, std::allocator<char> const&) [clone .isra.14] [clone .constprop.16]>
  103138:	4a2b      	ldr	r2, [pc, #172]	; (1031e8 <_GLOBAL__sub_I_TOUCH_LC717A00_mode+0x104>)
  10313a:	492c      	ldr	r1, [pc, #176]	; (1031ec <_GLOBAL__sub_I_TOUCH_LC717A00_mode+0x108>)
  10313c:	482f      	ldr	r0, [pc, #188]	; (1031fc <_GLOBAL__sub_I_TOUCH_LC717A00_mode+0x118>)
  10313e:	f018 ff2f 	bl	11bfa0 <__aeabi_atexit>
  103142:	482f      	ldr	r0, [pc, #188]	; (103200 <_GLOBAL__sub_I_TOUCH_LC717A00_mode+0x11c>)
  103144:	f7ff ff6a 	bl	10301c <std::__cxx11::basic_string<char, std::char_traits<char>, std::allocator<char> >::basic_string(char const*, std::allocator<char> const&) [clone .isra.14] [clone .constprop.16]>
  103148:	f04f 34ff 	mov.w	r4, #4294967295
  10314c:	4a26      	ldr	r2, [pc, #152]	; (1031e8 <_GLOBAL__sub_I_TOUCH_LC717A00_mode+0x104>)
  10314e:	4927      	ldr	r1, [pc, #156]	; (1031ec <_GLOBAL__sub_I_TOUCH_LC717A00_mode+0x108>)
  103150:	482b      	ldr	r0, [pc, #172]	; (103200 <_GLOBAL__sub_I_TOUCH_LC717A00_mode+0x11c>)
  103152:	f018 ff25 	bl	11bfa0 <__aeabi_atexit>
  103156:	9400      	str	r4, [sp, #0]
  103158:	2310      	movs	r3, #16
  10315a:	2240      	movs	r2, #64	; 0x40
  10315c:	2120      	movs	r1, #32
  10315e:	4829      	ldr	r0, [pc, #164]	; (103204 <_GLOBAL__sub_I_TOUCH_LC717A00_mode+0x120>)
  103160:	f018 fc42 	bl	11b9e8 <mbed::SPI::SPI(PinName, PinName, PinName, PinName)>
  103164:	4a20      	ldr	r2, [pc, #128]	; (1031e8 <_GLOBAL__sub_I_TOUCH_LC717A00_mode+0x104>)
  103166:	4928      	ldr	r1, [pc, #160]	; (103208 <_GLOBAL__sub_I_TOUCH_LC717A00_mode+0x124>)
  103168:	4826      	ldr	r0, [pc, #152]	; (103204 <_GLOBAL__sub_I_TOUCH_LC717A00_mode+0x120>)
  10316a:	f018 ff19 	bl	11bfa0 <__aeabi_atexit>
  10316e:	2300      	movs	r3, #0
  103170:	2202      	movs	r2, #2
  103172:	2101      	movs	r1, #1
  103174:	4825      	ldr	r0, [pc, #148]	; (10320c <_GLOBAL__sub_I_TOUCH_LC717A00_mode+0x128>)
  103176:	f018 fb81 	bl	11b87c <mbed::Serial::Serial(PinName, PinName, char const*)>
  10317a:	4a1b      	ldr	r2, [pc, #108]	; (1031e8 <_GLOBAL__sub_I_TOUCH_LC717A00_mode+0x104>)
  10317c:	4924      	ldr	r1, [pc, #144]	; (103210 <_GLOBAL__sub_I_TOUCH_LC717A00_mode+0x12c>)
  10317e:	4823      	ldr	r0, [pc, #140]	; (10320c <_GLOBAL__sub_I_TOUCH_LC717A00_mode+0x128>)
  103180:	f018 ff0e 	bl	11bfa0 <__aeabi_atexit>
  103184:	4823      	ldr	r0, [pc, #140]	; (103214 <_GLOBAL__sub_I_TOUCH_LC717A00_mode+0x130>)
  103186:	f014 f937 	bl	1173f8 <rtos::Mutex::Mutex()>
  10318a:	4a17      	ldr	r2, [pc, #92]	; (1031e8 <_GLOBAL__sub_I_TOUCH_LC717A00_mode+0x104>)
  10318c:	4922      	ldr	r1, [pc, #136]	; (103218 <_GLOBAL__sub_I_TOUCH_LC717A00_mode+0x134>)
  10318e:	4821      	ldr	r0, [pc, #132]	; (103214 <_GLOBAL__sub_I_TOUCH_LC717A00_mode+0x130>)
  103190:	f018 ff06 	bl	11bfa0 <__aeabi_atexit>
  103194:	9400      	str	r4, [sp, #0]
  103196:	2310      	movs	r3, #16
  103198:	2240      	movs	r2, #64	; 0x40
  10319a:	2120      	movs	r1, #32
  10319c:	481f      	ldr	r0, [pc, #124]	; (10321c <_GLOBAL__sub_I_TOUCH_LC717A00_mode+0x138>)
  10319e:	f018 fc23 	bl	11b9e8 <mbed::SPI::SPI(PinName, PinName, PinName, PinName)>
  1031a2:	4a11      	ldr	r2, [pc, #68]	; (1031e8 <_GLOBAL__sub_I_TOUCH_LC717A00_mode+0x104>)
  1031a4:	4918      	ldr	r1, [pc, #96]	; (103208 <_GLOBAL__sub_I_TOUCH_LC717A00_mode+0x124>)
  1031a6:	481d      	ldr	r0, [pc, #116]	; (10321c <_GLOBAL__sub_I_TOUCH_LC717A00_mode+0x138>)
  1031a8:	f018 fefa 	bl	11bfa0 <__aeabi_atexit>
  1031ac:	4c1c      	ldr	r4, [pc, #112]	; (103220 <_GLOBAL__sub_I_TOUCH_LC717A00_mode+0x13c>)
  1031ae:	4b1d      	ldr	r3, [pc, #116]	; (103224 <_GLOBAL__sub_I_TOUCH_LC717A00_mode+0x140>)
  1031b0:	2200      	movs	r2, #0
  1031b2:	6023      	str	r3, [r4, #0]
  1031b4:	2108      	movs	r1, #8
  1031b6:	f44f 7300 	mov.w	r3, #512	; 0x200
  1031ba:	4818      	ldr	r0, [pc, #96]	; (10321c <_GLOBAL__sub_I_TOUCH_LC717A00_mode+0x138>)
  1031bc:	6063      	str	r3, [r4, #4]
  1031be:	f018 fc4b 	bl	11ba58 <mbed::SPI::format(int, int)>
  1031c2:	4919      	ldr	r1, [pc, #100]	; (103228 <_GLOBAL__sub_I_TOUCH_LC717A00_mode+0x144>)
  1031c4:	4815      	ldr	r0, [pc, #84]	; (10321c <_GLOBAL__sub_I_TOUCH_LC717A00_mode+0x138>)
  1031c6:	f018 fc5f 	bl	11ba88 <mbed::SPI::frequency(int)>
  1031ca:	6860      	ldr	r0, [r4, #4]
  1031cc:	f018 ff00 	bl	11bfd0 <operator new[](unsigned int)>
  1031d0:	60a0      	str	r0, [r4, #8]
  1031d2:	4620      	mov	r0, r4
  1031d4:	4a04      	ldr	r2, [pc, #16]	; (1031e8 <_GLOBAL__sub_I_TOUCH_LC717A00_mode+0x104>)
  1031d6:	4915      	ldr	r1, [pc, #84]	; (10322c <_GLOBAL__sub_I_TOUCH_LC717A00_mode+0x148>)
  1031d8:	b002      	add	sp, #8
  1031da:	e8bd 4010 	ldmia.w	sp!, {r4, lr}
  1031de:	f018 bedf 	b.w	11bfa0 <__aeabi_atexit>
  1031e2:	bf00      	nop
  1031e4:	3fff516c 	.word	0x3fff516c
  1031e8:	3fff4000 	.word	0x3fff4000
  1031ec:	0011c009 	.word	0x0011c009
  1031f0:	3fff4ff4 	.word	0x3fff4ff4
  1031f4:	00102fd1 	.word	0x00102fd1
  1031f8:	3fff51f4 	.word	0x3fff51f4
  1031fc:	3fff5184 	.word	0x3fff5184
  103200:	3fff5240 	.word	0x3fff5240
  103204:	3fff5258 	.word	0x3fff5258
  103208:	00102337 	.word	0x00102337
  10320c:	3fff519c 	.word	0x3fff519c
  103210:	001023b1 	.word	0x001023b1
  103214:	3fff522c 	.word	0x3fff522c
  103218:	00117481 	.word	0x00117481
  10321c:	3fff5218 	.word	0x3fff5218
  103220:	3fff520c 	.word	0x3fff520c
  103224:	00124d28 	.word	0x00124d28
  103228:	000f4240 	.word	0x000f4240
  10322c:	00102ff1 	.word	0x00102ff1

00103230 <__tcf_0>:
  103230:	b538      	push	{r3, r4, r5, lr}
  103232:	4d06      	ldr	r5, [pc, #24]	; (10324c <__tcf_0+0x1c>)
  103234:	2400      	movs	r4, #0
  103236:	f504 70b4 	add.w	r0, r4, #360	; 0x168
  10323a:	4428      	add	r0, r5
  10323c:	3c18      	subs	r4, #24
  10323e:	f018 fecd 	bl	11bfdc <std::__cxx11::basic_string<char, std::char_traits<char>, std::allocator<char> >::_M_dispose()>
  103242:	f514 7fc0 	cmn.w	r4, #384	; 0x180
  103246:	d1f6      	bne.n	103236 <__tcf_0+0x6>
  103248:	bd38      	pop	{r3, r4, r5, pc}
  10324a:	bf00      	nop
  10324c:	3fff526c 	.word	0x3fff526c

00103250 <std::__cxx11::basic_string<char, std::char_traits<char>, std::allocator<char> >::basic_string(char const*, std::allocator<char> const&) [clone .isra.14] [clone .constprop.16]>:
  103250:	b510      	push	{r4, lr}
  103252:	4604      	mov	r4, r0
  103254:	4a05      	ldr	r2, [pc, #20]	; (10326c <std::__cxx11::basic_string<char, std::char_traits<char>, std::allocator<char> >::basic_string(char const*, std::allocator<char> const&) [clone .isra.14] [clone .constprop.16]+0x1c>)
  103256:	3008      	adds	r0, #8
  103258:	6020      	str	r0, [r4, #0]
  10325a:	4611      	mov	r1, r2
  10325c:	f018 fecf 	bl	11bffe <std::__cxx11::basic_string<char, std::char_traits<char>, std::allocator<char> >::_S_copy_chars(char*, char const*, char const*)>
  103260:	6822      	ldr	r2, [r4, #0]
  103262:	2300      	movs	r3, #0
  103264:	6063      	str	r3, [r4, #4]
  103266:	7013      	strb	r3, [r2, #0]
  103268:	4620      	mov	r0, r4
  10326a:	bd10      	pop	{r4, pc}
  10326c:	0012646d 	.word	0x0012646d

00103270 <get_wifi_mac_address>:
  103270:	b570      	push	{r4, r5, r6, lr}
  103272:	4605      	mov	r5, r0
  103274:	b090      	sub	sp, #64	; 0x40
  103276:	4818      	ldr	r0, [pc, #96]	; (1032d8 <get_wifi_mac_address+0x68>)
  103278:	f003 f88a 	bl	106390 <W5100Interface::getMACAddress()>
  10327c:	2214      	movs	r2, #20
  10327e:	4601      	mov	r1, r0
  103280:	eb0d 0002 	add.w	r0, sp, r2
  103284:	f01c feb0 	bl	11ffe8 <strncpy>
  103288:	1e6c      	subs	r4, r5, #1
  10328a:	1d6e      	adds	r6, r5, #5
  10328c:	f814 0f01 	ldrb.w	r0, [r4, #1]!
  103290:	f01e f9c4 	bl	12161c <tolower>
  103294:	42a6      	cmp	r6, r4
  103296:	7020      	strb	r0, [r4, #0]
  103298:	d1f8      	bne.n	10328c <get_wifi_mac_address+0x1c>
  10329a:	ab0f      	add	r3, sp, #60	; 0x3c
  10329c:	9303      	str	r3, [sp, #12]
  10329e:	ab0e      	add	r3, sp, #56	; 0x38
  1032a0:	9302      	str	r3, [sp, #8]
  1032a2:	ab0d      	add	r3, sp, #52	; 0x34
  1032a4:	9301      	str	r3, [sp, #4]
  1032a6:	ac0a      	add	r4, sp, #40	; 0x28
  1032a8:	ab0c      	add	r3, sp, #48	; 0x30
  1032aa:	9300      	str	r3, [sp, #0]
  1032ac:	4622      	mov	r2, r4
  1032ae:	ab0b      	add	r3, sp, #44	; 0x2c
  1032b0:	490a      	ldr	r1, [pc, #40]	; (1032dc <get_wifi_mac_address+0x6c>)
  1032b2:	a805      	add	r0, sp, #20
  1032b4:	f01c fdb0 	bl	11fe18 <siscanf>
  1032b8:	2806      	cmp	r0, #6
  1032ba:	d108      	bne.n	1032ce <get_wifi_mac_address+0x5e>
  1032bc:	2300      	movs	r3, #0
  1032be:	f854 2023 	ldr.w	r2, [r4, r3, lsl #2]
  1032c2:	54ea      	strb	r2, [r5, r3]
  1032c4:	3301      	adds	r3, #1
  1032c6:	2b06      	cmp	r3, #6
  1032c8:	d1f9      	bne.n	1032be <get_wifi_mac_address+0x4e>
  1032ca:	2000      	movs	r0, #0
  1032cc:	e001      	b.n	1032d2 <get_wifi_mac_address+0x62>
  1032ce:	f04f 30ff 	mov.w	r0, #4294967295
  1032d2:	b010      	add	sp, #64	; 0x40
  1032d4:	bd70      	pop	{r4, r5, r6, pc}
  1032d6:	bf00      	nop
  1032d8:	3fff4df4 	.word	0x3fff4df4
  1032dc:	00124d52 	.word	0x00124d52

001032e0 <wifi_gethostbyname>:
  1032e0:	b508      	push	{r3, lr}
  1032e2:	460a      	mov	r2, r1
  1032e4:	4601      	mov	r1, r0
  1032e6:	4802      	ldr	r0, [pc, #8]	; (1032f0 <wifi_gethostbyname+0x10>)
  1032e8:	f003 fd7c 	bl	106de4 <WIZnet_Chip::gethostbyname(char const*, unsigned long*)>
  1032ec:	bd08      	pop	{r3, pc}
  1032ee:	bf00      	nop
  1032f0:	3fff4df4 	.word	0x3fff4df4

001032f4 <wifi_socket>:
  1032f4:	2802      	cmp	r0, #2
  1032f6:	e92d 43f8 	stmdb	sp!, {r3, r4, r5, r6, r7, r8, r9, lr}
  1032fa:	460d      	mov	r5, r1
  1032fc:	d112      	bne.n	103324 <wifi_socket+0x30>
  1032fe:	2a11      	cmp	r2, #17
  103300:	d810      	bhi.n	103324 <wifi_socket+0x30>
  103302:	4b1f      	ldr	r3, [pc, #124]	; (103380 <wifi_socket+0x8c>)
  103304:	fa23 f202 	lsr.w	r2, r3, r2
  103308:	f002 0201 	and.w	r2, r2, #1
  10330c:	f082 0001 	eor.w	r0, r2, #1
  103310:	b142      	cbz	r2, 103324 <wifi_socket+0x30>
  103312:	4604      	mov	r4, r0
  103314:	4a1b      	ldr	r2, [pc, #108]	; (103384 <wifi_socket+0x90>)
  103316:	0126      	lsls	r6, r4, #4
  103318:	58b3      	ldr	r3, [r6, r2]
  10331a:	4f1a      	ldr	r7, [pc, #104]	; (103384 <wifi_socket+0x90>)
  10331c:	b133      	cbz	r3, 10332c <wifi_socket+0x38>
  10331e:	3401      	adds	r4, #1
  103320:	2c08      	cmp	r4, #8
  103322:	d1f8      	bne.n	103316 <wifi_socket+0x22>
  103324:	f04f 30ff 	mov.w	r0, #4294967295
  103328:	e8bd 83f8 	ldmia.w	sp!, {r3, r4, r5, r6, r7, r8, r9, pc}
  10332c:	eb07 0806 	add.w	r8, r7, r6
  103330:	2d01      	cmp	r5, #1
  103332:	f8c8 300c 	str.w	r3, [r8, #12]
  103336:	d10c      	bne.n	103352 <wifi_socket+0x5e>
  103338:	2028      	movs	r0, #40	; 0x28
  10333a:	f018 fe38 	bl	11bfae <operator new(unsigned int)>
  10333e:	4681      	mov	r9, r0
  103340:	f004 fd8a 	bl	107e58 <W5100_TCPSocketConnection::W5100_TCPSocketConnection()>
  103344:	f847 9006 	str.w	r9, [r7, r6]
  103348:	f8c8 5008 	str.w	r5, [r8, #8]
  10334c:	4620      	mov	r0, r4
  10334e:	e8bd 83f8 	ldmia.w	sp!, {r3, r4, r5, r6, r7, r8, r9, pc}
  103352:	2d02      	cmp	r5, #2
  103354:	d1e6      	bne.n	103324 <wifi_socket+0x30>
  103356:	2010      	movs	r0, #16
  103358:	f018 fe29 	bl	11bfae <operator new(unsigned int)>
  10335c:	4681      	mov	r9, r0
  10335e:	f004 fe12 	bl	107f86 <W5100_UDPSocket::W5100_UDPSocket()>
  103362:	f847 9006 	str.w	r9, [r7, r6]
  103366:	f8c8 5008 	str.w	r5, [r8, #8]
  10336a:	4648      	mov	r0, r9
  10336c:	f004 fe11 	bl	107f92 <W5100_UDPSocket::init()>
  103370:	f01c fbc4 	bl	11fafc <rand>
  103374:	f3c0 010e 	ubfx	r1, r0, #0, #15
  103378:	4648      	mov	r0, r9
  10337a:	f004 fec9 	bl	108110 <W5100_UDPSocket::bind(int)>
  10337e:	e7e5      	b.n	10334c <wifi_socket+0x58>
  103380:	00020041 	.word	0x00020041
  103384:	3fff541c 	.word	0x3fff541c

00103388 <wifi_socket_close>:
  103388:	2808      	cmp	r0, #8
  10338a:	b538      	push	{r3, r4, r5, lr}
  10338c:	d811      	bhi.n	1033b2 <wifi_socket_close+0x2a>
  10338e:	4b0a      	ldr	r3, [pc, #40]	; (1033b8 <wifi_socket_close+0x30>)
  103390:	0100      	lsls	r0, r0, #4
  103392:	581c      	ldr	r4, [r3, r0]
  103394:	181d      	adds	r5, r3, r0
  103396:	b164      	cbz	r4, 1033b2 <wifi_socket_close+0x2a>
  103398:	4620      	mov	r0, r4
  10339a:	f004 fd51 	bl	107e40 <W5100_Socket::~W5100_Socket()>
  10339e:	4620      	mov	r0, r4
  1033a0:	f018 fe03 	bl	11bfaa <operator delete(void*)>
  1033a4:	2210      	movs	r2, #16
  1033a6:	2100      	movs	r1, #0
  1033a8:	4628      	mov	r0, r5
  1033aa:	f01a fe2c 	bl	11e006 <memset>
  1033ae:	2000      	movs	r0, #0
  1033b0:	bd38      	pop	{r3, r4, r5, pc}
  1033b2:	f04f 30ff 	mov.w	r0, #4294967295
  1033b6:	bd38      	pop	{r3, r4, r5, pc}
  1033b8:	3fff541c 	.word	0x3fff541c

001033bc <wifi_socket_send>:
  1033bc:	2808      	cmp	r0, #8
  1033be:	d805      	bhi.n	1033cc <wifi_socket_send+0x10>
  1033c0:	4b04      	ldr	r3, [pc, #16]	; (1033d4 <wifi_socket_send+0x18>)
  1033c2:	0100      	lsls	r0, r0, #4
  1033c4:	5818      	ldr	r0, [r3, r0]
  1033c6:	b108      	cbz	r0, 1033cc <wifi_socket_send+0x10>
  1033c8:	f004 bd8d 	b.w	107ee6 <W5100_TCPSocketConnection::send(char*, int)>
  1033cc:	f04f 30ff 	mov.w	r0, #4294967295
  1033d0:	4770      	bx	lr
  1033d2:	bf00      	nop
  1033d4:	3fff541c 	.word	0x3fff541c

001033d8 <wifi_socket_recv>:
  1033d8:	2808      	cmp	r0, #8
  1033da:	d805      	bhi.n	1033e8 <wifi_socket_recv+0x10>
  1033dc:	4b04      	ldr	r3, [pc, #16]	; (1033f0 <wifi_socket_recv+0x18>)
  1033de:	0100      	lsls	r0, r0, #4
  1033e0:	5818      	ldr	r0, [r3, r0]
  1033e2:	b108      	cbz	r0, 1033e8 <wifi_socket_recv+0x10>
  1033e4:	f004 bda9 	b.w	107f3a <W5100_TCPSocketConnection::receive_all(char*, int)>
  1033e8:	f04f 30ff 	mov.w	r0, #4294967295
  1033ec:	4770      	bx	lr
  1033ee:	bf00      	nop
  1033f0:	3fff541c 	.word	0x3fff541c

001033f4 <wifi_socket_sendto>:
  1033f4:	e92d 41f0 	stmdb	sp!, {r4, r5, r6, r7, r8, lr}
  1033f8:	2808      	cmp	r0, #8
  1033fa:	b08c      	sub	sp, #48	; 0x30
  1033fc:	460e      	mov	r6, r1
  1033fe:	4617      	mov	r7, r2
  103400:	4698      	mov	r8, r3
  103402:	d829      	bhi.n	103458 <wifi_socket_sendto+0x64>
  103404:	4d17      	ldr	r5, [pc, #92]	; (103464 <wifi_socket_sendto+0x70>)
  103406:	0104      	lsls	r4, r0, #4
  103408:	592b      	ldr	r3, [r5, r4]
  10340a:	b32b      	cbz	r3, 103458 <wifi_socket_sendto+0x64>
  10340c:	f8d8 2004 	ldr.w	r2, [r8, #4]
  103410:	4915      	ldr	r1, [pc, #84]	; (103468 <wifi_socket_sendto+0x74>)
  103412:	ba12      	rev	r2, r2
  103414:	0e13      	lsrs	r3, r2, #24
  103416:	9301      	str	r3, [sp, #4]
  103418:	f3c2 4307 	ubfx	r3, r2, #16, #8
  10341c:	9202      	str	r2, [sp, #8]
  10341e:	9300      	str	r3, [sp, #0]
  103420:	a803      	add	r0, sp, #12
  103422:	f3c2 2307 	ubfx	r3, r2, #8, #8
  103426:	b2d2      	uxtb	r2, r2
  103428:	f01c fcd2 	bl	11fdd0 <siprintf>
  10342c:	a807      	add	r0, sp, #28
  10342e:	f004 fc4f 	bl	107cd0 <W5100_Endpoint::W5100_Endpoint()>
  103432:	f8b8 2002 	ldrh.w	r2, [r8, #2]
  103436:	ba52      	rev16	r2, r2
  103438:	a903      	add	r1, sp, #12
  10343a:	a807      	add	r0, sp, #28
  10343c:	f004 fc66 	bl	107d0c <W5100_Endpoint::set_address(char const*, int)>
  103440:	463b      	mov	r3, r7
  103442:	4632      	mov	r2, r6
  103444:	a907      	add	r1, sp, #28
  103446:	5928      	ldr	r0, [r5, r4]
  103448:	f004 fe3e 	bl	1080c8 <W5100_UDPSocket::sendTo(W5100_Endpoint&, char*, int)>
  10344c:	4604      	mov	r4, r0
  10344e:	a807      	add	r0, sp, #28
  103450:	f004 fc4a 	bl	107ce8 <W5100_Endpoint::~W5100_Endpoint()>
  103454:	4620      	mov	r0, r4
  103456:	e001      	b.n	10345c <wifi_socket_sendto+0x68>
  103458:	f04f 30ff 	mov.w	r0, #4294967295
  10345c:	b00c      	add	sp, #48	; 0x30
  10345e:	e8bd 81f0 	ldmia.w	sp!, {r4, r5, r6, r7, r8, pc}
  103462:	bf00      	nop
  103464:	3fff541c 	.word	0x3fff541c
  103468:	00124d64 	.word	0x00124d64

0010346c <wifi_socket_recvfrom>:
  10346c:	e92d 43f0 	stmdb	sp!, {r4, r5, r6, r7, r8, r9, lr}
  103470:	2808      	cmp	r0, #8
  103472:	b089      	sub	sp, #36	; 0x24
  103474:	4605      	mov	r5, r0
  103476:	4688      	mov	r8, r1
  103478:	4691      	mov	r9, r2
  10347a:	461e      	mov	r6, r3
  10347c:	d834      	bhi.n	1034e8 <wifi_socket_recvfrom+0x7c>
  10347e:	4f1d      	ldr	r7, [pc, #116]	; (1034f4 <wifi_socket_recvfrom+0x88>)
  103480:	0104      	lsls	r4, r0, #4
  103482:	593b      	ldr	r3, [r7, r4]
  103484:	b383      	cbz	r3, 1034e8 <wifi_socket_recvfrom+0x7c>
  103486:	4601      	mov	r1, r0
  103488:	481b      	ldr	r0, [pc, #108]	; (1034f8 <wifi_socket_recvfrom+0x8c>)
  10348a:	f000 f931 	bl	1036f0 <dbg_line>
  10348e:	a803      	add	r0, sp, #12
  103490:	f004 fc1e 	bl	107cd0 <W5100_Endpoint::W5100_Endpoint()>
  103494:	464b      	mov	r3, r9
  103496:	4642      	mov	r2, r8
  103498:	a903      	add	r1, sp, #12
  10349a:	5938      	ldr	r0, [r7, r4]
  10349c:	f004 fda8 	bl	107ff0 <W5100_UDPSocket::receiveFrom(W5100_Endpoint&, char*, int)>
  1034a0:	4604      	mov	r4, r0
  1034a2:	4602      	mov	r2, r0
  1034a4:	4629      	mov	r1, r5
  1034a6:	4814      	ldr	r0, [pc, #80]	; (1034f8 <wifi_socket_recvfrom+0x8c>)
  1034a8:	f000 f922 	bl	1036f0 <dbg_line>
  1034ac:	2c00      	cmp	r4, #0
  1034ae:	db15      	blt.n	1034dc <wifi_socket_recvfrom+0x70>
  1034b0:	a803      	add	r0, sp, #12
  1034b2:	f004 fc69 	bl	107d88 <W5100_Endpoint::get_address()>
  1034b6:	f10d 030b 	add.w	r3, sp, #11
  1034ba:	9301      	str	r3, [sp, #4]
  1034bc:	f10d 030a 	add.w	r3, sp, #10
  1034c0:	9300      	str	r3, [sp, #0]
  1034c2:	aa02      	add	r2, sp, #8
  1034c4:	f10d 0309 	add.w	r3, sp, #9
  1034c8:	490c      	ldr	r1, [pc, #48]	; (1034fc <wifi_socket_recvfrom+0x90>)
  1034ca:	f01c fca5 	bl	11fe18 <siscanf>
  1034ce:	9802      	ldr	r0, [sp, #8]
  1034d0:	6070      	str	r0, [r6, #4]
  1034d2:	a803      	add	r0, sp, #12
  1034d4:	f004 fc5e 	bl	107d94 <W5100_Endpoint::get_port()>
  1034d8:	8070      	strh	r0, [r6, #2]
  1034da:	e001      	b.n	1034e0 <wifi_socket_recvfrom+0x74>
  1034dc:	f04f 34ff 	mov.w	r4, #4294967295
  1034e0:	a803      	add	r0, sp, #12
  1034e2:	f004 fc01 	bl	107ce8 <W5100_Endpoint::~W5100_Endpoint()>
  1034e6:	e001      	b.n	1034ec <wifi_socket_recvfrom+0x80>
  1034e8:	f04f 34ff 	mov.w	r4, #4294967295
  1034ec:	4620      	mov	r0, r4
  1034ee:	b009      	add	sp, #36	; 0x24
  1034f0:	e8bd 83f0 	ldmia.w	sp!, {r4, r5, r6, r7, r8, r9, pc}
  1034f4:	3fff541c 	.word	0x3fff541c
  1034f8:	00124d70 	.word	0x00124d70
  1034fc:	00124d64 	.word	0x00124d64

00103500 <wifi_socket_connect>:
  103500:	b530      	push	{r4, r5, lr}
  103502:	2808      	cmp	r0, #8
  103504:	b089      	sub	sp, #36	; 0x24
  103506:	460d      	mov	r5, r1
  103508:	d819      	bhi.n	10353e <wifi_socket_connect+0x3e>
  10350a:	4b0f      	ldr	r3, [pc, #60]	; (103548 <wifi_socket_connect+0x48>)
  10350c:	0100      	lsls	r0, r0, #4
  10350e:	581c      	ldr	r4, [r3, r0]
  103510:	b1ac      	cbz	r4, 10353e <wifi_socket_connect+0x3e>
  103512:	684a      	ldr	r2, [r1, #4]
  103514:	a804      	add	r0, sp, #16
  103516:	ba12      	rev	r2, r2
  103518:	0e13      	lsrs	r3, r2, #24
  10351a:	9301      	str	r3, [sp, #4]
  10351c:	f3c2 4307 	ubfx	r3, r2, #16, #8
  103520:	9203      	str	r2, [sp, #12]
  103522:	9300      	str	r3, [sp, #0]
  103524:	4909      	ldr	r1, [pc, #36]	; (10354c <wifi_socket_connect+0x4c>)
  103526:	f3c2 2307 	ubfx	r3, r2, #8, #8
  10352a:	b2d2      	uxtb	r2, r2
  10352c:	f01c fc50 	bl	11fdd0 <siprintf>
  103530:	886a      	ldrh	r2, [r5, #2]
  103532:	ba52      	rev16	r2, r2
  103534:	a904      	add	r1, sp, #16
  103536:	4620      	mov	r0, r4
  103538:	f004 fc9b 	bl	107e72 <W5100_TCPSocketConnection::connect(char const*, int)>
  10353c:	e001      	b.n	103542 <wifi_socket_connect+0x42>
  10353e:	f04f 30ff 	mov.w	r0, #4294967295
  103542:	b009      	add	sp, #36	; 0x24
  103544:	bd30      	pop	{r4, r5, pc}
  103546:	bf00      	nop
  103548:	3fff541c 	.word	0x3fff541c
  10354c:	00124d64 	.word	0x00124d64

00103550 <wifi_socket_setopt>:
  103550:	2808      	cmp	r0, #8
  103552:	b510      	push	{r4, lr}
  103554:	d81d      	bhi.n	103592 <wifi_socket_setopt+0x42>
  103556:	f640 74ff 	movw	r4, #4095	; 0xfff
  10355a:	42a1      	cmp	r1, r4
  10355c:	d119      	bne.n	103592 <wifi_socket_setopt+0x42>
  10355e:	f5a2 5280 	sub.w	r2, r2, #4096	; 0x1000
  103562:	3a05      	subs	r2, #5
  103564:	2a01      	cmp	r2, #1
  103566:	d817      	bhi.n	103598 <wifi_socket_setopt+0x48>
  103568:	9a02      	ldr	r2, [sp, #8]
  10356a:	2a08      	cmp	r2, #8
  10356c:	d117      	bne.n	10359e <wifi_socket_setopt+0x4e>
  10356e:	b1cb      	cbz	r3, 1035a4 <wifi_socket_setopt+0x54>
  103570:	685a      	ldr	r2, [r3, #4]
  103572:	f44f 747a 	mov.w	r4, #1000	; 0x3e8
  103576:	fb92 f2f4 	sdiv	r2, r2, r4
  10357a:	6819      	ldr	r1, [r3, #0]
  10357c:	fb04 2201 	mla	r2, r4, r1, r2
  103580:	2a00      	cmp	r2, #0
  103582:	dd11      	ble.n	1035a8 <wifi_socket_setopt+0x58>
  103584:	4b09      	ldr	r3, [pc, #36]	; (1035ac <wifi_socket_setopt+0x5c>)
  103586:	0100      	lsls	r0, r0, #4
  103588:	2100      	movs	r1, #0
  10358a:	5818      	ldr	r0, [r3, r0]
  10358c:	f004 fc2c 	bl	107de8 <W5100_Socket::set_blocking(bool, unsigned int)>
  103590:	e00a      	b.n	1035a8 <wifi_socket_setopt+0x58>
  103592:	f04f 30ff 	mov.w	r0, #4294967295
  103596:	bd10      	pop	{r4, pc}
  103598:	f06f 0001 	mvn.w	r0, #1
  10359c:	bd10      	pop	{r4, pc}
  10359e:	f06f 0002 	mvn.w	r0, #2
  1035a2:	bd10      	pop	{r4, pc}
  1035a4:	4618      	mov	r0, r3
  1035a6:	bd10      	pop	{r4, pc}
  1035a8:	2000      	movs	r0, #0
  1035aa:	bd10      	pop	{r4, pc}
  1035ac:	3fff541c 	.word	0x3fff541c

001035b0 <_GLOBAL__sub_I__dataFlag>:
  1035b0:	b507      	push	{r0, r1, r2, lr}
  1035b2:	4830      	ldr	r0, [pc, #192]	; (103674 <_GLOBAL__sub_I__dataFlag+0xc4>)
  1035b4:	f7ff fe4c 	bl	103250 <std::__cxx11::basic_string<char, std::char_traits<char>, std::allocator<char> >::basic_string(char const*, std::allocator<char> const&) [clone .isra.14] [clone .constprop.16]>
  1035b8:	4a2f      	ldr	r2, [pc, #188]	; (103678 <_GLOBAL__sub_I__dataFlag+0xc8>)
  1035ba:	4930      	ldr	r1, [pc, #192]	; (10367c <_GLOBAL__sub_I__dataFlag+0xcc>)
  1035bc:	482d      	ldr	r0, [pc, #180]	; (103674 <_GLOBAL__sub_I__dataFlag+0xc4>)
  1035be:	f018 fcef 	bl	11bfa0 <__aeabi_atexit>
  1035c2:	4b2f      	ldr	r3, [pc, #188]	; (103680 <_GLOBAL__sub_I__dataFlag+0xd0>)
  1035c4:	2200      	movs	r2, #0
  1035c6:	f503 70c0 	add.w	r0, r3, #384	; 0x180
  1035ca:	4619      	mov	r1, r3
  1035cc:	f843 2c04 	str.w	r2, [r3, #-4]
  1035d0:	f843 3c08 	str.w	r3, [r3, #-8]
  1035d4:	f801 2b18 	strb.w	r2, [r1], #24
  1035d8:	6119      	str	r1, [r3, #16]
  1035da:	615a      	str	r2, [r3, #20]
  1035dc:	761a      	strb	r2, [r3, #24]
  1035de:	3330      	adds	r3, #48	; 0x30
  1035e0:	4283      	cmp	r3, r0
  1035e2:	d1f2      	bne.n	1035ca <_GLOBAL__sub_I__dataFlag+0x1a>
  1035e4:	4a24      	ldr	r2, [pc, #144]	; (103678 <_GLOBAL__sub_I__dataFlag+0xc8>)
  1035e6:	4927      	ldr	r1, [pc, #156]	; (103684 <_GLOBAL__sub_I__dataFlag+0xd4>)
  1035e8:	2000      	movs	r0, #0
  1035ea:	f018 fcd9 	bl	11bfa0 <__aeabi_atexit>
  1035ee:	4826      	ldr	r0, [pc, #152]	; (103688 <_GLOBAL__sub_I__dataFlag+0xd8>)
  1035f0:	f7ff fe2e 	bl	103250 <std::__cxx11::basic_string<char, std::char_traits<char>, std::allocator<char> >::basic_string(char const*, std::allocator<char> const&) [clone .isra.14] [clone .constprop.16]>
  1035f4:	4a20      	ldr	r2, [pc, #128]	; (103678 <_GLOBAL__sub_I__dataFlag+0xc8>)
  1035f6:	4921      	ldr	r1, [pc, #132]	; (10367c <_GLOBAL__sub_I__dataFlag+0xcc>)
  1035f8:	4823      	ldr	r0, [pc, #140]	; (103688 <_GLOBAL__sub_I__dataFlag+0xd8>)
  1035fa:	f018 fcd1 	bl	11bfa0 <__aeabi_atexit>
  1035fe:	4823      	ldr	r0, [pc, #140]	; (10368c <_GLOBAL__sub_I__dataFlag+0xdc>)
  103600:	f7ff fe26 	bl	103250 <std::__cxx11::basic_string<char, std::char_traits<char>, std::allocator<char> >::basic_string(char const*, std::allocator<char> const&) [clone .isra.14] [clone .constprop.16]>
  103604:	4a1c      	ldr	r2, [pc, #112]	; (103678 <_GLOBAL__sub_I__dataFlag+0xc8>)
  103606:	491d      	ldr	r1, [pc, #116]	; (10367c <_GLOBAL__sub_I__dataFlag+0xcc>)
  103608:	4820      	ldr	r0, [pc, #128]	; (10368c <_GLOBAL__sub_I__dataFlag+0xdc>)
  10360a:	f018 fcc9 	bl	11bfa0 <__aeabi_atexit>
  10360e:	4820      	ldr	r0, [pc, #128]	; (103690 <_GLOBAL__sub_I__dataFlag+0xe0>)
  103610:	f7ff fe1e 	bl	103250 <std::__cxx11::basic_string<char, std::char_traits<char>, std::allocator<char> >::basic_string(char const*, std::allocator<char> const&) [clone .isra.14] [clone .constprop.16]>
  103614:	4a18      	ldr	r2, [pc, #96]	; (103678 <_GLOBAL__sub_I__dataFlag+0xc8>)
  103616:	4919      	ldr	r1, [pc, #100]	; (10367c <_GLOBAL__sub_I__dataFlag+0xcc>)
  103618:	481d      	ldr	r0, [pc, #116]	; (103690 <_GLOBAL__sub_I__dataFlag+0xe0>)
  10361a:	f018 fcc1 	bl	11bfa0 <__aeabi_atexit>
  10361e:	f04f 33ff 	mov.w	r3, #4294967295
  103622:	9300      	str	r3, [sp, #0]
  103624:	2240      	movs	r2, #64	; 0x40
  103626:	2310      	movs	r3, #16
  103628:	2120      	movs	r1, #32
  10362a:	481a      	ldr	r0, [pc, #104]	; (103694 <_GLOBAL__sub_I__dataFlag+0xe4>)
  10362c:	f018 f9dc 	bl	11b9e8 <mbed::SPI::SPI(PinName, PinName, PinName, PinName)>
  103630:	4a11      	ldr	r2, [pc, #68]	; (103678 <_GLOBAL__sub_I__dataFlag+0xc8>)
  103632:	4919      	ldr	r1, [pc, #100]	; (103698 <_GLOBAL__sub_I__dataFlag+0xe8>)
  103634:	4817      	ldr	r0, [pc, #92]	; (103694 <_GLOBAL__sub_I__dataFlag+0xe4>)
  103636:	f018 fcb3 	bl	11bfa0 <__aeabi_atexit>
  10363a:	2300      	movs	r3, #0
  10363c:	2202      	movs	r2, #2
  10363e:	2101      	movs	r1, #1
  103640:	4816      	ldr	r0, [pc, #88]	; (10369c <_GLOBAL__sub_I__dataFlag+0xec>)
  103642:	f018 f91b 	bl	11b87c <mbed::Serial::Serial(PinName, PinName, char const*)>
  103646:	4a0c      	ldr	r2, [pc, #48]	; (103678 <_GLOBAL__sub_I__dataFlag+0xc8>)
  103648:	4915      	ldr	r1, [pc, #84]	; (1036a0 <_GLOBAL__sub_I__dataFlag+0xf0>)
  10364a:	4814      	ldr	r0, [pc, #80]	; (10369c <_GLOBAL__sub_I__dataFlag+0xec>)
  10364c:	f018 fca8 	bl	11bfa0 <__aeabi_atexit>
  103650:	4814      	ldr	r0, [pc, #80]	; (1036a4 <_GLOBAL__sub_I__dataFlag+0xf4>)
  103652:	f013 fed1 	bl	1173f8 <rtos::Mutex::Mutex()>
  103656:	4a08      	ldr	r2, [pc, #32]	; (103678 <_GLOBAL__sub_I__dataFlag+0xc8>)
  103658:	4913      	ldr	r1, [pc, #76]	; (1036a8 <_GLOBAL__sub_I__dataFlag+0xf8>)
  10365a:	4812      	ldr	r0, [pc, #72]	; (1036a4 <_GLOBAL__sub_I__dataFlag+0xf4>)
  10365c:	f018 fca0 	bl	11bfa0 <__aeabi_atexit>
  103660:	2300      	movs	r3, #0
  103662:	4619      	mov	r1, r3
  103664:	4a11      	ldr	r2, [pc, #68]	; (1036ac <_GLOBAL__sub_I__dataFlag+0xfc>)
  103666:	5099      	str	r1, [r3, r2]
  103668:	3310      	adds	r3, #16
  10366a:	2b80      	cmp	r3, #128	; 0x80
  10366c:	d1fb      	bne.n	103666 <_GLOBAL__sub_I__dataFlag+0xb6>
  10366e:	b003      	add	sp, #12
  103670:	f85d fb04 	ldr.w	pc, [sp], #4
  103674:	3fff53ec 	.word	0x3fff53ec
  103678:	3fff4000 	.word	0x3fff4000
  10367c:	0011c009 	.word	0x0011c009
  103680:	3fff5274 	.word	0x3fff5274
  103684:	00103231 	.word	0x00103231
  103688:	3fff549c 	.word	0x3fff549c
  10368c:	3fff5404 	.word	0x3fff5404
  103690:	3fff54c8 	.word	0x3fff54c8
  103694:	3fff5538 	.word	0x3fff5538
  103698:	00102337 	.word	0x00102337
  10369c:	3fff54e0 	.word	0x3fff54e0
  1036a0:	001023b1 	.word	0x001023b1
  1036a4:	3fff54b4 	.word	0x3fff54b4
  1036a8:	00117481 	.word	0x00117481
  1036ac:	3fff541c 	.word	0x3fff541c

001036b0 <__tcf_0>:
  1036b0:	b538      	push	{r3, r4, r5, lr}
  1036b2:	4d06      	ldr	r5, [pc, #24]	; (1036cc <__tcf_0+0x1c>)
  1036b4:	2400      	movs	r4, #0
  1036b6:	f504 70b4 	add.w	r0, r4, #360	; 0x168
  1036ba:	4428      	add	r0, r5
  1036bc:	3c18      	subs	r4, #24
  1036be:	f018 fc8d 	bl	11bfdc <std::__cxx11::basic_string<char, std::char_traits<char>, std::allocator<char> >::_M_dispose()>
  1036c2:	f514 7fc0 	cmn.w	r4, #384	; 0x180
  1036c6:	d1f6      	bne.n	1036b6 <__tcf_0+0x6>
  1036c8:	bd38      	pop	{r3, r4, r5, pc}
  1036ca:	bf00      	nop
  1036cc:	3fff554c 	.word	0x3fff554c

001036d0 <std::__cxx11::basic_string<char, std::char_traits<char>, std::allocator<char> >::basic_string(char const*, std::allocator<char> const&) [clone .isra.14] [clone .constprop.16]>:
  1036d0:	b510      	push	{r4, lr}
  1036d2:	4604      	mov	r4, r0
  1036d4:	4a05      	ldr	r2, [pc, #20]	; (1036ec <std::__cxx11::basic_string<char, std::char_traits<char>, std::allocator<char> >::basic_string(char const*, std::allocator<char> const&) [clone .isra.14] [clone .constprop.16]+0x1c>)
  1036d6:	3008      	adds	r0, #8
  1036d8:	6020      	str	r0, [r4, #0]
  1036da:	4611      	mov	r1, r2
  1036dc:	f018 fc8f 	bl	11bffe <std::__cxx11::basic_string<char, std::char_traits<char>, std::allocator<char> >::_S_copy_chars(char*, char const*, char const*)>
  1036e0:	6822      	ldr	r2, [r4, #0]
  1036e2:	2300      	movs	r3, #0
  1036e4:	6063      	str	r3, [r4, #4]
  1036e6:	7013      	strb	r3, [r2, #0]
  1036e8:	4620      	mov	r0, r4
  1036ea:	bd10      	pop	{r4, pc}
  1036ec:	0012646d 	.word	0x0012646d

001036f0 <dbg_line>:
  1036f0:	b40f      	push	{r0, r1, r2, r3}
  1036f2:	b5f7      	push	{r0, r1, r2, r4, r5, r6, r7, lr}
  1036f4:	4e11      	ldr	r6, [pc, #68]	; (10373c <dbg_line+0x4c>)
  1036f6:	ad08      	add	r5, sp, #32
  1036f8:	f855 7b04 	ldr.w	r7, [r5], #4
  1036fc:	4c10      	ldr	r4, [pc, #64]	; (103740 <dbg_line+0x50>)
  1036fe:	f04f 31ff 	mov.w	r1, #4294967295
  103702:	4630      	mov	r0, r6
  103704:	f013 fe9e 	bl	117444 <rtos::Mutex::lock(unsigned long)>
  103708:	2300      	movs	r3, #0
  10370a:	463a      	mov	r2, r7
  10370c:	7023      	strb	r3, [r4, #0]
  10370e:	2175      	movs	r1, #117	; 0x75
  103710:	462b      	mov	r3, r5
  103712:	4620      	mov	r0, r4
  103714:	9501      	str	r5, [sp, #4]
  103716:	f01e fa23 	bl	121b60 <vsniprintf>
  10371a:	490a      	ldr	r1, [pc, #40]	; (103744 <dbg_line+0x54>)
  10371c:	4620      	mov	r0, r4
  10371e:	f01c fbea 	bl	11fef6 <strcat>
  103722:	4621      	mov	r1, r4
  103724:	4808      	ldr	r0, [pc, #32]	; (103748 <dbg_line+0x58>)
  103726:	f018 fac1 	bl	11bcac <mbed::Stream::printf(char const*, ...)>
  10372a:	4630      	mov	r0, r6
  10372c:	f013 fe9a 	bl	117464 <rtos::Mutex::unlock()>
  103730:	b003      	add	sp, #12
  103732:	e8bd 40f0 	ldmia.w	sp!, {r4, r5, r6, r7, lr}
  103736:	b004      	add	sp, #16
  103738:	4770      	bx	lr
  10373a:	bf00      	nop
  10373c:	3fff56fc 	.word	0x3fff56fc
  103740:	3fff5780 	.word	0x3fff5780
  103744:	00126649 	.word	0x00126649
  103748:	3fff5878 	.word	0x3fff5878

0010374c <_GLOBAL__sub_I_TOUCH_LC717A00_mode>:
  10374c:	b507      	push	{r0, r1, r2, lr}
  10374e:	4837      	ldr	r0, [pc, #220]	; (10382c <_GLOBAL__sub_I_TOUCH_LC717A00_mode+0xe0>)
  103750:	f7ff ffbe 	bl	1036d0 <std::__cxx11::basic_string<char, std::char_traits<char>, std::allocator<char> >::basic_string(char const*, std::allocator<char> const&) [clone .isra.14] [clone .constprop.16]>
  103754:	4a36      	ldr	r2, [pc, #216]	; (103830 <_GLOBAL__sub_I_TOUCH_LC717A00_mode+0xe4>)
  103756:	4937      	ldr	r1, [pc, #220]	; (103834 <_GLOBAL__sub_I_TOUCH_LC717A00_mode+0xe8>)
  103758:	4834      	ldr	r0, [pc, #208]	; (10382c <_GLOBAL__sub_I_TOUCH_LC717A00_mode+0xe0>)
  10375a:	f018 fc21 	bl	11bfa0 <__aeabi_atexit>
  10375e:	4b36      	ldr	r3, [pc, #216]	; (103838 <_GLOBAL__sub_I_TOUCH_LC717A00_mode+0xec>)
  103760:	2200      	movs	r2, #0
  103762:	f503 70c0 	add.w	r0, r3, #384	; 0x180
  103766:	4619      	mov	r1, r3
  103768:	f843 2c04 	str.w	r2, [r3, #-4]
  10376c:	f843 3c08 	str.w	r3, [r3, #-8]
  103770:	f801 2b18 	strb.w	r2, [r1], #24
  103774:	6119      	str	r1, [r3, #16]
  103776:	615a      	str	r2, [r3, #20]
  103778:	761a      	strb	r2, [r3, #24]
  10377a:	3330      	adds	r3, #48	; 0x30
  10377c:	4283      	cmp	r3, r0
  10377e:	d1f2      	bne.n	103766 <_GLOBAL__sub_I_TOUCH_LC717A00_mode+0x1a>
  103780:	4a2b      	ldr	r2, [pc, #172]	; (103830 <_GLOBAL__sub_I_TOUCH_LC717A00_mode+0xe4>)
  103782:	492e      	ldr	r1, [pc, #184]	; (10383c <_GLOBAL__sub_I_TOUCH_LC717A00_mode+0xf0>)
  103784:	2000      	movs	r0, #0
  103786:	f018 fc0b 	bl	11bfa0 <__aeabi_atexit>
  10378a:	482d      	ldr	r0, [pc, #180]	; (103840 <_GLOBAL__sub_I_TOUCH_LC717A00_mode+0xf4>)
  10378c:	f7ff ffa0 	bl	1036d0 <std::__cxx11::basic_string<char, std::char_traits<char>, std::allocator<char> >::basic_string(char const*, std::allocator<char> const&) [clone .isra.14] [clone .constprop.16]>
  103790:	4a27      	ldr	r2, [pc, #156]	; (103830 <_GLOBAL__sub_I_TOUCH_LC717A00_mode+0xe4>)
  103792:	4928      	ldr	r1, [pc, #160]	; (103834 <_GLOBAL__sub_I_TOUCH_LC717A00_mode+0xe8>)
  103794:	482a      	ldr	r0, [pc, #168]	; (103840 <_GLOBAL__sub_I_TOUCH_LC717A00_mode+0xf4>)
  103796:	f018 fc03 	bl	11bfa0 <__aeabi_atexit>
  10379a:	482a      	ldr	r0, [pc, #168]	; (103844 <_GLOBAL__sub_I_TOUCH_LC717A00_mode+0xf8>)
  10379c:	f7ff ff98 	bl	1036d0 <std::__cxx11::basic_string<char, std::char_traits<char>, std::allocator<char> >::basic_string(char const*, std::allocator<char> const&) [clone .isra.14] [clone .constprop.16]>
  1037a0:	4a23      	ldr	r2, [pc, #140]	; (103830 <_GLOBAL__sub_I_TOUCH_LC717A00_mode+0xe4>)
  1037a2:	4924      	ldr	r1, [pc, #144]	; (103834 <_GLOBAL__sub_I_TOUCH_LC717A00_mode+0xe8>)
  1037a4:	4827      	ldr	r0, [pc, #156]	; (103844 <_GLOBAL__sub_I_TOUCH_LC717A00_mode+0xf8>)
  1037a6:	f018 fbfb 	bl	11bfa0 <__aeabi_atexit>
  1037aa:	4827      	ldr	r0, [pc, #156]	; (103848 <_GLOBAL__sub_I_TOUCH_LC717A00_mode+0xfc>)
  1037ac:	f7ff ff90 	bl	1036d0 <std::__cxx11::basic_string<char, std::char_traits<char>, std::allocator<char> >::basic_string(char const*, std::allocator<char> const&) [clone .isra.14] [clone .constprop.16]>
  1037b0:	4a1f      	ldr	r2, [pc, #124]	; (103830 <_GLOBAL__sub_I_TOUCH_LC717A00_mode+0xe4>)
  1037b2:	4920      	ldr	r1, [pc, #128]	; (103834 <_GLOBAL__sub_I_TOUCH_LC717A00_mode+0xe8>)
  1037b4:	4824      	ldr	r0, [pc, #144]	; (103848 <_GLOBAL__sub_I_TOUCH_LC717A00_mode+0xfc>)
  1037b6:	f018 fbf3 	bl	11bfa0 <__aeabi_atexit>
  1037ba:	f04f 33ff 	mov.w	r3, #4294967295
  1037be:	9300      	str	r3, [sp, #0]
  1037c0:	2240      	movs	r2, #64	; 0x40
  1037c2:	2310      	movs	r3, #16
  1037c4:	2120      	movs	r1, #32
  1037c6:	4821      	ldr	r0, [pc, #132]	; (10384c <_GLOBAL__sub_I_TOUCH_LC717A00_mode+0x100>)
  1037c8:	f018 f90e 	bl	11b9e8 <mbed::SPI::SPI(PinName, PinName, PinName, PinName)>
  1037cc:	4a18      	ldr	r2, [pc, #96]	; (103830 <_GLOBAL__sub_I_TOUCH_LC717A00_mode+0xe4>)
  1037ce:	4920      	ldr	r1, [pc, #128]	; (103850 <_GLOBAL__sub_I_TOUCH_LC717A00_mode+0x104>)
  1037d0:	481e      	ldr	r0, [pc, #120]	; (10384c <_GLOBAL__sub_I_TOUCH_LC717A00_mode+0x100>)
  1037d2:	f018 fbe5 	bl	11bfa0 <__aeabi_atexit>
  1037d6:	2300      	movs	r3, #0
  1037d8:	2202      	movs	r2, #2
  1037da:	2101      	movs	r1, #1
  1037dc:	481d      	ldr	r0, [pc, #116]	; (103854 <_GLOBAL__sub_I_TOUCH_LC717A00_mode+0x108>)
  1037de:	f018 f84d 	bl	11b87c <mbed::Serial::Serial(PinName, PinName, char const*)>
  1037e2:	4a13      	ldr	r2, [pc, #76]	; (103830 <_GLOBAL__sub_I_TOUCH_LC717A00_mode+0xe4>)
  1037e4:	491c      	ldr	r1, [pc, #112]	; (103858 <_GLOBAL__sub_I_TOUCH_LC717A00_mode+0x10c>)
  1037e6:	481b      	ldr	r0, [pc, #108]	; (103854 <_GLOBAL__sub_I_TOUCH_LC717A00_mode+0x108>)
  1037e8:	f018 fbda 	bl	11bfa0 <__aeabi_atexit>
  1037ec:	481b      	ldr	r0, [pc, #108]	; (10385c <_GLOBAL__sub_I_TOUCH_LC717A00_mode+0x110>)
  1037ee:	f013 fe03 	bl	1173f8 <rtos::Mutex::Mutex()>
  1037f2:	4a0f      	ldr	r2, [pc, #60]	; (103830 <_GLOBAL__sub_I_TOUCH_LC717A00_mode+0xe4>)
  1037f4:	491a      	ldr	r1, [pc, #104]	; (103860 <_GLOBAL__sub_I_TOUCH_LC717A00_mode+0x114>)
  1037f6:	4819      	ldr	r0, [pc, #100]	; (10385c <_GLOBAL__sub_I_TOUCH_LC717A00_mode+0x110>)
  1037f8:	f018 fbd2 	bl	11bfa0 <__aeabi_atexit>
  1037fc:	2300      	movs	r3, #0
  1037fe:	f44f 7200 	mov.w	r2, #512	; 0x200
  103802:	f44f 7180 	mov.w	r1, #256	; 0x100
  103806:	4817      	ldr	r0, [pc, #92]	; (103864 <_GLOBAL__sub_I_TOUCH_LC717A00_mode+0x118>)
  103808:	f018 f838 	bl	11b87c <mbed::Serial::Serial(PinName, PinName, char const*)>
  10380c:	4a08      	ldr	r2, [pc, #32]	; (103830 <_GLOBAL__sub_I_TOUCH_LC717A00_mode+0xe4>)
  10380e:	4912      	ldr	r1, [pc, #72]	; (103858 <_GLOBAL__sub_I_TOUCH_LC717A00_mode+0x10c>)
  103810:	4814      	ldr	r0, [pc, #80]	; (103864 <_GLOBAL__sub_I_TOUCH_LC717A00_mode+0x118>)
  103812:	f018 fbc5 	bl	11bfa0 <__aeabi_atexit>
  103816:	4814      	ldr	r0, [pc, #80]	; (103868 <_GLOBAL__sub_I_TOUCH_LC717A00_mode+0x11c>)
  103818:	f013 fdee 	bl	1173f8 <rtos::Mutex::Mutex()>
  10381c:	4a04      	ldr	r2, [pc, #16]	; (103830 <_GLOBAL__sub_I_TOUCH_LC717A00_mode+0xe4>)
  10381e:	4910      	ldr	r1, [pc, #64]	; (103860 <_GLOBAL__sub_I_TOUCH_LC717A00_mode+0x114>)
  103820:	4811      	ldr	r0, [pc, #68]	; (103868 <_GLOBAL__sub_I_TOUCH_LC717A00_mode+0x11c>)
  103822:	b003      	add	sp, #12
  103824:	f85d eb04 	ldr.w	lr, [sp], #4
  103828:	f018 bbba 	b.w	11bfa0 <__aeabi_atexit>
  10382c:	3fff56cc 	.word	0x3fff56cc
  103830:	3fff4000 	.word	0x3fff4000
  103834:	0011c009 	.word	0x0011c009
  103838:	3fff5554 	.word	0x3fff5554
  10383c:	001036b1 	.word	0x001036b1
  103840:	3fff5710 	.word	0x3fff5710
  103844:	3fff56e4 	.word	0x3fff56e4
  103848:	3fff580c 	.word	0x3fff580c
  10384c:	3fff5824 	.word	0x3fff5824
  103850:	00102337 	.word	0x00102337
  103854:	3fff5728 	.word	0x3fff5728
  103858:	001023b1 	.word	0x001023b1
  10385c:	3fff57f8 	.word	0x3fff57f8
  103860:	00117481 	.word	0x00117481
  103864:	3fff5838 	.word	0x3fff5838
  103868:	3fff56fc 	.word	0x3fff56fc

0010386c <send_ssl>:
  10386c:	b538      	push	{r3, r4, r5, lr}
  10386e:	1e15      	subs	r5, r2, #0
  103870:	db0f      	blt.n	103892 <send_ssl+0x26>
  103872:	4809      	ldr	r0, [pc, #36]	; (103898 <send_ssl+0x2c>)
  103874:	2300      	movs	r3, #0
  103876:	6800      	ldr	r0, [r0, #0]
  103878:	f7fe fd08 	bl	10228c <send>
  10387c:	4604      	mov	r4, r0
  10387e:	4601      	mov	r1, r0
  103880:	462a      	mov	r2, r5
  103882:	4806      	ldr	r0, [pc, #24]	; (10389c <send_ssl+0x30>)
  103884:	f7ff ff34 	bl	1036f0 <dbg_line>
  103888:	2c00      	cmp	r4, #0
  10388a:	bf08      	it	eq
  10388c:	f06f 0401 	mvneq.w	r4, #1
  103890:	e000      	b.n	103894 <send_ssl+0x28>
  103892:	462c      	mov	r4, r5
  103894:	4620      	mov	r0, r4
  103896:	bd38      	pop	{r3, r4, r5, pc}
  103898:	3fff4024 	.word	0x3fff4024
  10389c:	00124d82 	.word	0x00124d82

001038a0 <recv_ssl>:
  1038a0:	b538      	push	{r3, r4, r5, lr}
  1038a2:	1e15      	subs	r5, r2, #0
  1038a4:	db0f      	blt.n	1038c6 <recv_ssl+0x26>
  1038a6:	4809      	ldr	r0, [pc, #36]	; (1038cc <recv_ssl+0x2c>)
  1038a8:	2300      	movs	r3, #0
  1038aa:	6800      	ldr	r0, [r0, #0]
  1038ac:	f7fe fcf7 	bl	10229e <recv>
  1038b0:	4604      	mov	r4, r0
  1038b2:	4601      	mov	r1, r0
  1038b4:	462a      	mov	r2, r5
  1038b6:	4806      	ldr	r0, [pc, #24]	; (1038d0 <recv_ssl+0x30>)
  1038b8:	f7ff ff1a 	bl	1036f0 <dbg_line>
  1038bc:	2c00      	cmp	r4, #0
  1038be:	bf08      	it	eq
  1038c0:	f06f 0401 	mvneq.w	r4, #1
  1038c4:	e000      	b.n	1038c8 <recv_ssl+0x28>
  1038c6:	462c      	mov	r4, r5
  1038c8:	4620      	mov	r0, r4
  1038ca:	bd38      	pop	{r3, r4, r5, pc}
  1038cc:	3fff4024 	.word	0x3fff4024
  1038d0:	00124d93 	.word	0x00124d93

001038d4 <__wrap_calloc>:
  1038d4:	b538      	push	{r3, r4, r5, lr}
  1038d6:	fb01 f400 	mul.w	r4, r1, r0
  1038da:	4620      	mov	r0, r4
  1038dc:	f000 f936 	bl	103b4c <__wrap_malloc>
  1038e0:	4605      	mov	r5, r0
  1038e2:	4622      	mov	r2, r4
  1038e4:	2100      	movs	r1, #0
  1038e6:	f01a fb8e 	bl	11e006 <memset>
  1038ea:	4628      	mov	r0, r5
  1038ec:	bd38      	pop	{r3, r4, r5, pc}
	...

001038f0 <ssl_connect>:
  1038f0:	b510      	push	{r4, lr}
  1038f2:	4604      	mov	r4, r0
  1038f4:	f006 fc58 	bl	10a1a8 <wolfSSL_Init>
  1038f8:	4b1f      	ldr	r3, [pc, #124]	; (103978 <ssl_connect+0x88>)
  1038fa:	4621      	mov	r1, r4
  1038fc:	481f      	ldr	r0, [pc, #124]	; (10397c <ssl_connect+0x8c>)
  1038fe:	601c      	str	r4, [r3, #0]
  103900:	f7ff fef6 	bl	1036f0 <dbg_line>
  103904:	f007 f832 	bl	10a96c <wolfTLSv1_2_client_method>
  103908:	4b1d      	ldr	r3, [pc, #116]	; (103980 <ssl_connect+0x90>)
  10390a:	4c1e      	ldr	r4, [pc, #120]	; (103984 <ssl_connect+0x94>)
  10390c:	6018      	str	r0, [r3, #0]
  10390e:	f006 fc6f 	bl	10a1f0 <wolfSSL_CTX_new>
  103912:	6020      	str	r0, [r4, #0]
  103914:	b910      	cbnz	r0, 10391c <ssl_connect+0x2c>
  103916:	481c      	ldr	r0, [pc, #112]	; (103988 <ssl_connect+0x98>)
  103918:	f7ff feea 	bl	1036f0 <dbg_line>
  10391c:	2200      	movs	r2, #0
  10391e:	4611      	mov	r1, r2
  103920:	6820      	ldr	r0, [r4, #0]
  103922:	f006 fc87 	bl	10a234 <wolfSSL_CTX_set_verify>
  103926:	6820      	ldr	r0, [r4, #0]
  103928:	4918      	ldr	r1, [pc, #96]	; (10398c <ssl_connect+0x9c>)
  10392a:	f006 fa79 	bl	109e20 <wolfSSL_SetIORecv>
  10392e:	6820      	ldr	r0, [r4, #0]
  103930:	4917      	ldr	r1, [pc, #92]	; (103990 <ssl_connect+0xa0>)
  103932:	f006 fa77 	bl	109e24 <wolfSSL_SetIOSend>
  103936:	6820      	ldr	r0, [r4, #0]
  103938:	f006 fa89 	bl	109e4e <wolfSSL_new>
  10393c:	4c15      	ldr	r4, [pc, #84]	; (103994 <ssl_connect+0xa4>)
  10393e:	6020      	str	r0, [r4, #0]
  103940:	b910      	cbnz	r0, 103948 <ssl_connect+0x58>
  103942:	4815      	ldr	r0, [pc, #84]	; (103998 <ssl_connect+0xa8>)
  103944:	f7ff fed4 	bl	1036f0 <dbg_line>
  103948:	490b      	ldr	r1, [pc, #44]	; (103978 <ssl_connect+0x88>)
  10394a:	6820      	ldr	r0, [r4, #0]
  10394c:	f006 fa6c 	bl	109e28 <wolfSSL_SetIOReadCtx>
  103950:	4909      	ldr	r1, [pc, #36]	; (103978 <ssl_connect+0x88>)
  103952:	6820      	ldr	r0, [r4, #0]
  103954:	f006 fa6a 	bl	109e2c <wolfSSL_SetIOWriteCtx>
  103958:	6820      	ldr	r0, [r4, #0]
  10395a:	f006 fc89 	bl	10a270 <wolfSSL_connect>
  10395e:	2801      	cmp	r0, #1
  103960:	d005      	beq.n	10396e <ssl_connect+0x7e>
  103962:	480e      	ldr	r0, [pc, #56]	; (10399c <ssl_connect+0xac>)
  103964:	f7ff fec4 	bl	1036f0 <dbg_line>
  103968:	f04f 30ff 	mov.w	r0, #4294967295
  10396c:	bd10      	pop	{r4, pc}
  10396e:	480c      	ldr	r0, [pc, #48]	; (1039a0 <ssl_connect+0xb0>)
  103970:	f7ff febe 	bl	1036f0 <dbg_line>
  103974:	2000      	movs	r0, #0
  103976:	bd10      	pop	{r4, pc}
  103978:	3fff4024 	.word	0x3fff4024
  10397c:	00124da4 	.word	0x00124da4
  103980:	3fff5898 	.word	0x3fff5898
  103984:	3fff5890 	.word	0x3fff5890
  103988:	00124db8 	.word	0x00124db8
  10398c:	001038a1 	.word	0x001038a1
  103990:	0010386d 	.word	0x0010386d
  103994:	3fff5894 	.word	0x3fff5894
  103998:	00124dca 	.word	0x00124dca
  10399c:	00124ddc 	.word	0x00124ddc
  1039a0:	00124ded 	.word	0x00124ded

001039a4 <ssl_recv>:
  1039a4:	b538      	push	{r3, r4, r5, lr}
  1039a6:	460d      	mov	r5, r1
  1039a8:	4614      	mov	r4, r2
  1039aa:	4611      	mov	r1, r2
  1039ac:	4805      	ldr	r0, [pc, #20]	; (1039c4 <ssl_recv+0x20>)
  1039ae:	f7ff fe9f 	bl	1036f0 <dbg_line>
  1039b2:	4b05      	ldr	r3, [pc, #20]	; (1039c8 <ssl_recv+0x24>)
  1039b4:	4622      	mov	r2, r4
  1039b6:	4629      	mov	r1, r5
  1039b8:	6818      	ldr	r0, [r3, #0]
  1039ba:	e8bd 4038 	ldmia.w	sp!, {r3, r4, r5, lr}
  1039be:	f006 ba6e 	b.w	109e9e <wolfSSL_read>
  1039c2:	bf00      	nop
  1039c4:	00124dfe 	.word	0x00124dfe
  1039c8:	3fff5894 	.word	0x3fff5894

001039cc <ssl_send>:
  1039cc:	b538      	push	{r3, r4, r5, lr}
  1039ce:	460d      	mov	r5, r1
  1039d0:	4614      	mov	r4, r2
  1039d2:	4611      	mov	r1, r2
  1039d4:	4805      	ldr	r0, [pc, #20]	; (1039ec <ssl_send+0x20>)
  1039d6:	f7ff fe8b 	bl	1036f0 <dbg_line>
  1039da:	4b05      	ldr	r3, [pc, #20]	; (1039f0 <ssl_send+0x24>)
  1039dc:	4622      	mov	r2, r4
  1039de:	4629      	mov	r1, r5
  1039e0:	6818      	ldr	r0, [r3, #0]
  1039e2:	e8bd 4038 	ldmia.w	sp!, {r3, r4, r5, lr}
  1039e6:	f006 ba4a 	b.w	109e7e <wolfSSL_write>
  1039ea:	bf00      	nop
  1039ec:	00124e08 	.word	0x00124e08
  1039f0:	3fff5894 	.word	0x3fff5894

001039f4 <ssl_close>:
  1039f4:	b508      	push	{r3, lr}
  1039f6:	4809      	ldr	r0, [pc, #36]	; (103a1c <ssl_close+0x28>)
  1039f8:	f7ff fe7a 	bl	1036f0 <dbg_line>
  1039fc:	4b08      	ldr	r3, [pc, #32]	; (103a20 <ssl_close+0x2c>)
  1039fe:	6818      	ldr	r0, [r3, #0]
  103a00:	f006 fa39 	bl	109e76 <wolfSSL_free>
  103a04:	4b07      	ldr	r3, [pc, #28]	; (103a24 <ssl_close+0x30>)
  103a06:	6818      	ldr	r0, [r3, #0]
  103a08:	f006 fa1d 	bl	109e46 <wolfSSL_CTX_free>
  103a0c:	f006 fcf8 	bl	10a400 <wolfSSL_Cleanup>
  103a10:	4805      	ldr	r0, [pc, #20]	; (103a28 <ssl_close+0x34>)
  103a12:	f7ff fe6d 	bl	1036f0 <dbg_line>
  103a16:	2000      	movs	r0, #0
  103a18:	bd08      	pop	{r3, pc}
  103a1a:	bf00      	nop
  103a1c:	00124e12 	.word	0x00124e12
  103a20:	3fff5894 	.word	0x3fff5894
  103a24:	3fff5890 	.word	0x3fff5890
  103a28:	00124e1c 	.word	0x00124e1c

00103a2c <time>:
  103a2c:	b538      	push	{r3, r4, r5, lr}
  103a2e:	4b09      	ldr	r3, [pc, #36]	; (103a54 <time+0x28>)
  103a30:	4604      	mov	r4, r0
  103a32:	6818      	ldr	r0, [r3, #0]
  103a34:	f019 fa54 	bl	11cee0 <__aeabi_i2f>
  103a38:	4605      	mov	r5, r0
  103a3a:	4807      	ldr	r0, [pc, #28]	; (103a58 <time+0x2c>)
  103a3c:	f018 f9ca 	bl	11bdd4 <mbed::Timer::read()>
  103a40:	4601      	mov	r1, r0
  103a42:	4628      	mov	r0, r5
  103a44:	f019 f998 	bl	11cd78 <__addsf3>
  103a48:	f019 fc64 	bl	11d314 <__aeabi_f2iz>
  103a4c:	b104      	cbz	r4, 103a50 <time+0x24>
  103a4e:	6020      	str	r0, [r4, #0]
  103a50:	bd38      	pop	{r3, r4, r5, pc}
  103a52:	bf00      	nop
  103a54:	3fff589c 	.word	0x3fff589c
  103a58:	3fff58a0 	.word	0x3fff58a0

00103a5c <get_time>:
  103a5c:	b530      	push	{r4, r5, lr}
  103a5e:	4605      	mov	r5, r0
  103a60:	b089      	sub	sp, #36	; 0x24
  103a62:	2000      	movs	r0, #0
  103a64:	f7ff ffe2 	bl	103a2c <time>
  103a68:	ab08      	add	r3, sp, #32
  103a6a:	f843 0d04 	str.w	r0, [r3, #-4]!
  103a6e:	4618      	mov	r0, r3
  103a70:	f01a f824 	bl	11dabc <gmtime>
  103a74:	4604      	mov	r4, r0
  103a76:	480b      	ldr	r0, [pc, #44]	; (103aa4 <get_time+0x48>)
  103a78:	f018 f9c2 	bl	11be00 <mbed::Timer::read_ms()>
  103a7c:	6923      	ldr	r3, [r4, #16]
  103a7e:	6962      	ldr	r2, [r4, #20]
  103a80:	9004      	str	r0, [sp, #16]
  103a82:	6821      	ldr	r1, [r4, #0]
  103a84:	3301      	adds	r3, #1
  103a86:	9103      	str	r1, [sp, #12]
  103a88:	6861      	ldr	r1, [r4, #4]
  103a8a:	f202 726c 	addw	r2, r2, #1900	; 0x76c
  103a8e:	9102      	str	r1, [sp, #8]
  103a90:	68a1      	ldr	r1, [r4, #8]
  103a92:	4628      	mov	r0, r5
  103a94:	9101      	str	r1, [sp, #4]
  103a96:	68e1      	ldr	r1, [r4, #12]
  103a98:	9100      	str	r1, [sp, #0]
  103a9a:	4903      	ldr	r1, [pc, #12]	; (103aa8 <get_time+0x4c>)
  103a9c:	f01c f998 	bl	11fdd0 <siprintf>
  103aa0:	b009      	add	sp, #36	; 0x24
  103aa2:	bd30      	pop	{r4, r5, pc}
  103aa4:	3fff58a0 	.word	0x3fff58a0
  103aa8:	00124e27 	.word	0x00124e27

00103aac <gettimeofday>:
  103aac:	b510      	push	{r4, lr}
  103aae:	4604      	mov	r4, r0
  103ab0:	2000      	movs	r0, #0
  103ab2:	f7ff ffbb 	bl	103a2c <time>
  103ab6:	6020      	str	r0, [r4, #0]
  103ab8:	4802      	ldr	r0, [pc, #8]	; (103ac4 <gettimeofday+0x18>)
  103aba:	f018 f97d 	bl	11bdb8 <mbed::Timer::read_us()>
  103abe:	6060      	str	r0, [r4, #4]
  103ac0:	2000      	movs	r0, #0
  103ac2:	bd10      	pop	{r4, pc}
  103ac4:	3fff58a0 	.word	0x3fff58a0

00103ac8 <stime>:
  103ac8:	b510      	push	{r4, lr}
  103aca:	4604      	mov	r4, r0
  103acc:	6801      	ldr	r1, [r0, #0]
  103ace:	4805      	ldr	r0, [pc, #20]	; (103ae4 <stime+0x1c>)
  103ad0:	f7ff fe0e 	bl	1036f0 <dbg_line>
  103ad4:	6822      	ldr	r2, [r4, #0]
  103ad6:	4b04      	ldr	r3, [pc, #16]	; (103ae8 <stime+0x20>)
  103ad8:	4804      	ldr	r0, [pc, #16]	; (103aec <stime+0x24>)
  103ada:	601a      	str	r2, [r3, #0]
  103adc:	f018 f9ba 	bl	11be54 <mbed::Timer::reset()>
  103ae0:	2000      	movs	r0, #0
  103ae2:	bd10      	pop	{r4, pc}
  103ae4:	00124e4b 	.word	0x00124e4b
  103ae8:	3fff589c 	.word	0x3fff589c
  103aec:	3fff58a0 	.word	0x3fff58a0

00103af0 <msleep>:
  103af0:	b508      	push	{r3, lr}
  103af2:	f015 fe03 	bl	1196fc <wait_ms>
  103af6:	2000      	movs	r0, #0
  103af8:	bd08      	pop	{r3, pc}
	...

00103afc <_GLOBAL__sub_I_get_time>:
  103afc:	4801      	ldr	r0, [pc, #4]	; (103b04 <_GLOBAL__sub_I_get_time+0x8>)
  103afe:	f018 b917 	b.w	11bd30 <mbed::Timer::Timer()>
  103b02:	bf00      	nop
  103b04:	3fff58a0 	.word	0x3fff58a0

00103b08 <breakOnHeapOpFromInterruptHandler>:
  103b08:	f3ef 8305 	mrs	r3, IPSR
  103b0c:	b103      	cbz	r3, 103b10 <breakOnHeapOpFromInterruptHandler+0x8>
  103b0e:	be00      	bkpt	0x0000
  103b10:	4770      	bx	lr
	...

00103b14 <_start>:
  103b14:	4808      	ldr	r0, [pc, #32]	; (103b38 <_start+0x24>)
  103b16:	4a09      	ldr	r2, [pc, #36]	; (103b3c <_start+0x28>)
  103b18:	b508      	push	{r3, lr}
  103b1a:	1a12      	subs	r2, r2, r0
  103b1c:	2100      	movs	r1, #0
  103b1e:	f01a fa72 	bl	11e006 <memset>
  103b22:	f015 fb2b 	bl	11917c <software_init_hook>
  103b26:	f01a f871 	bl	11dc0c <__libc_init_array>
  103b2a:	f016 faa3 	bl	11a074 <expReset_AppLedON>
  103b2e:	f017 fe5b 	bl	11b7e8 <__wrap_main>
  103b32:	f019 fc7d 	bl	11d430 <exit>
  103b36:	bf00      	nop
  103b38:	3fff4340 	.word	0x3fff4340
  103b3c:	3fff7770 	.word	0x3fff7770

00103b40 <__wrap__isatty>:
  103b40:	2802      	cmp	r0, #2
  103b42:	dd01      	ble.n	103b48 <__wrap__isatty+0x8>
  103b44:	f017 bde6 	b.w	11b714 <_isatty>
  103b48:	2001      	movs	r0, #1
  103b4a:	4770      	bx	lr

00103b4c <__wrap_malloc>:
  103b4c:	b508      	push	{r3, lr}
  103b4e:	f7ff ffdb 	bl	103b08 <breakOnHeapOpFromInterruptHandler>
  103b52:	e8bd 4008 	ldmia.w	sp!, {r3, lr}
  103b56:	f01a b9f1 	b.w	11df3c <malloc>

00103b5a <__wrap_realloc>:
  103b5a:	b508      	push	{r3, lr}
  103b5c:	f7ff ffd4 	bl	103b08 <breakOnHeapOpFromInterruptHandler>
  103b60:	e8bd 4008 	ldmia.w	sp!, {r3, lr}
  103b64:	f01c b804 	b.w	11fb70 <realloc>

00103b68 <__wrap_free>:
  103b68:	b508      	push	{r3, lr}
  103b6a:	f7ff ffcd 	bl	103b08 <breakOnHeapOpFromInterruptHandler>
  103b6e:	e8bd 4008 	ldmia.w	sp!, {r3, lr}
  103b72:	f01a b9eb 	b.w	11df4c <free>

00103b76 <abort>:
  103b76:	b508      	push	{r3, lr}
  103b78:	2001      	movs	r0, #1
  103b7a:	f019 fc59 	bl	11d430 <exit>

00103b7e <__cxa_pure_virtual>:
  103b7e:	b508      	push	{r3, lr}
  103b80:	f7ff fff9 	bl	103b76 <abort>

00103b84 <NCV78763::init()>:
  103b84:	b500      	push	{lr}
  103b86:	b085      	sub	sp, #20
  103b88:	9001      	str	r0, [sp, #4]
  103b8a:	9801      	ldr	r0, [sp, #4]
  103b8c:	f000 ff8a 	bl	104aa4 <NCV78763::initializeGpioExpPins()>
  103b90:	9801      	ldr	r0, [sp, #4]
  103b92:	f000 ffe5 	bl	104b60 <NCV78763::i2cCsDisable()>
  103b96:	9801      	ldr	r0, [sp, #4]
  103b98:	f001 f86e 	bl	104c78 <NCV78763::setSpiParams()>
  103b9c:	f10d 030a 	add.w	r3, sp, #10
  103ba0:	461a      	mov	r2, r3
  103ba2:	2118      	movs	r1, #24
  103ba4:	9801      	ldr	r0, [sp, #4]
  103ba6:	f000 fe0f 	bl	1047c8 <NCV78763::registerRead(LD_STATUS_REGx_T, unsigned short*)>
  103baa:	9003      	str	r0, [sp, #12]
  103bac:	9b03      	ldr	r3, [sp, #12]
  103bae:	f113 0f02 	cmn.w	r3, #2
  103bb2:	d102      	bne.n	103bba <NCV78763::init()+0x36>
  103bb4:	f06f 0301 	mvn.w	r3, #1
  103bb8:	e07a      	b.n	103cb0 <NCV78763::init()+0x12c>
  103bba:	f10d 030a 	add.w	r3, sp, #10
  103bbe:	461a      	mov	r2, r3
  103bc0:	2117      	movs	r1, #23
  103bc2:	9801      	ldr	r0, [sp, #4]
  103bc4:	f000 fe00 	bl	1047c8 <NCV78763::registerRead(LD_STATUS_REGx_T, unsigned short*)>
  103bc8:	9003      	str	r0, [sp, #12]
  103bca:	9b03      	ldr	r3, [sp, #12]
  103bcc:	f113 0f02 	cmn.w	r3, #2
  103bd0:	d102      	bne.n	103bd8 <NCV78763::init()+0x54>
  103bd2:	f06f 0301 	mvn.w	r3, #1
  103bd6:	e06b      	b.n	103cb0 <NCV78763::init()+0x12c>
  103bd8:	9801      	ldr	r0, [sp, #4]
  103bda:	f001 f823 	bl	104c24 <NCV78763::deviceRecognize()>
  103bde:	9003      	str	r0, [sp, #12]
  103be0:	9b03      	ldr	r3, [sp, #12]
  103be2:	2b00      	cmp	r3, #0
  103be4:	d001      	beq.n	103bea <NCV78763::init()+0x66>
  103be6:	9b03      	ldr	r3, [sp, #12]
  103be8:	e062      	b.n	103cb0 <NCV78763::init()+0x12c>
  103bea:	2102      	movs	r1, #2
  103bec:	9801      	ldr	r0, [sp, #4]
  103bee:	f000 fc19 	bl	104424 <NCV78763::setBoosterSlopeCompensation(BOOST_SLPCTRL_T)>
  103bf2:	9003      	str	r0, [sp, #12]
  103bf4:	9b03      	ldr	r3, [sp, #12]
  103bf6:	2b00      	cmp	r3, #0
  103bf8:	d001      	beq.n	103bfe <NCV78763::init()+0x7a>
  103bfa:	9b03      	ldr	r3, [sp, #12]
  103bfc:	e058      	b.n	103cb0 <NCV78763::init()+0x12c>
  103bfe:	2102      	movs	r1, #2
  103c00:	9801      	ldr	r0, [sp, #4]
  103c02:	f000 fb4f 	bl	1042a4 <NCV78763::setBoosterOVReactivation(BST_RA_T)>
  103c06:	9b03      	ldr	r3, [sp, #12]
  103c08:	2b00      	cmp	r3, #0
  103c0a:	d001      	beq.n	103c10 <NCV78763::init()+0x8c>
  103c0c:	9b03      	ldr	r3, [sp, #12]
  103c0e:	e04f      	b.n	103cb0 <NCV78763::init()+0x12c>
  103c10:	2100      	movs	r1, #0
  103c12:	9801      	ldr	r0, [sp, #4]
  103c14:	f000 fb86 	bl	104324 <NCV78763::setBoosterMinOffTime(BST_TOFF_MIN_T)>
  103c18:	9003      	str	r0, [sp, #12]
  103c1a:	9b03      	ldr	r3, [sp, #12]
  103c1c:	2b00      	cmp	r3, #0
  103c1e:	d001      	beq.n	103c24 <NCV78763::init()+0xa0>
  103c20:	9b03      	ldr	r3, [sp, #12]
  103c22:	e045      	b.n	103cb0 <NCV78763::init()+0x12c>
  103c24:	2100      	movs	r1, #0
  103c26:	9801      	ldr	r0, [sp, #4]
  103c28:	f000 fbbc 	bl	1043a4 <NCV78763::setBoosterMinOnTime(BST_TON_MIN_T)>
  103c2c:	9003      	str	r0, [sp, #12]
  103c2e:	9b03      	ldr	r3, [sp, #12]
  103c30:	2b00      	cmp	r3, #0
  103c32:	d001      	beq.n	103c38 <NCV78763::init()+0xb4>
  103c34:	9b03      	ldr	r3, [sp, #12]
  103c36:	e03b      	b.n	103cb0 <NCV78763::init()+0x12c>
  103c38:	2103      	movs	r1, #3
  103c3a:	9801      	ldr	r0, [sp, #4]
  103c3c:	f000 fc72 	bl	104524 <NCV78763::setBoosterCurLimPeakVal(BOOST_VLIMTH_T)>
  103c40:	9003      	str	r0, [sp, #12]
  103c42:	9b03      	ldr	r3, [sp, #12]
  103c44:	2b00      	cmp	r3, #0
  103c46:	d001      	beq.n	103c4c <NCV78763::init()+0xc8>
  103c48:	9b03      	ldr	r3, [sp, #12]
  103c4a:	e031      	b.n	103cb0 <NCV78763::init()+0x12c>
  103c4c:	2101      	movs	r1, #1
  103c4e:	9801      	ldr	r0, [sp, #4]
  103c50:	f000 fc28 	bl	1044a4 <NCV78763::setBoosterErrorAmpGain(BOOST_OTA_GAIN_T)>
  103c54:	9003      	str	r0, [sp, #12]
  103c56:	9b03      	ldr	r3, [sp, #12]
  103c58:	2b00      	cmp	r3, #0
  103c5a:	d001      	beq.n	103c60 <NCV78763::init()+0xdc>
  103c5c:	9b03      	ldr	r3, [sp, #12]
  103c5e:	e027      	b.n	103cb0 <NCV78763::init()+0x12c>
  103c60:	4915      	ldr	r1, [pc, #84]	; (103cb8 <NCV78763::init()+0x134>)
  103c62:	9801      	ldr	r0, [sp, #4]
  103c64:	f000 fad0 	bl	104208 <NCV78763::setBoosterFrequency(unsigned long)>
  103c68:	9003      	str	r0, [sp, #12]
  103c6a:	9b03      	ldr	r3, [sp, #12]
  103c6c:	2b00      	cmp	r3, #0
  103c6e:	d001      	beq.n	103c74 <NCV78763::init()+0xf0>
  103c70:	9b03      	ldr	r3, [sp, #12]
  103c72:	e01d      	b.n	103cb0 <NCV78763::init()+0x12c>
  103c74:	f04f 0200 	mov.w	r2, #0
  103c78:	2101      	movs	r1, #1
  103c7a:	9801      	ldr	r0, [sp, #4]
  103c7c:	f000 f85c 	bl	103d38 <NCV78763::setPWMDutyCycle(LEDCHANNEL_T, float)>
  103c80:	9003      	str	r0, [sp, #12]
  103c82:	9b03      	ldr	r3, [sp, #12]
  103c84:	2b00      	cmp	r3, #0
  103c86:	d001      	beq.n	103c8c <NCV78763::init()+0x108>
  103c88:	9b03      	ldr	r3, [sp, #12]
  103c8a:	e011      	b.n	103cb0 <NCV78763::init()+0x12c>
  103c8c:	f04f 0200 	mov.w	r2, #0
  103c90:	2102      	movs	r1, #2
  103c92:	9801      	ldr	r0, [sp, #4]
  103c94:	f000 f850 	bl	103d38 <NCV78763::setPWMDutyCycle(LEDCHANNEL_T, float)>
  103c98:	9003      	str	r0, [sp, #12]
  103c9a:	9b03      	ldr	r3, [sp, #12]
  103c9c:	2b00      	cmp	r3, #0
  103c9e:	d001      	beq.n	103ca4 <NCV78763::init()+0x120>
  103ca0:	9b03      	ldr	r3, [sp, #12]
  103ca2:	e005      	b.n	103cb0 <NCV78763::init()+0x12c>
  103ca4:	2158      	movs	r1, #88	; 0x58
  103ca6:	9801      	ldr	r0, [sp, #4]
  103ca8:	f000 fc7c 	bl	1045a4 <NCV78763::setLEDChannelSampleDur(unsigned short)>
  103cac:	9003      	str	r0, [sp, #12]
  103cae:	9b03      	ldr	r3, [sp, #12]
  103cb0:	4618      	mov	r0, r3
  103cb2:	b005      	add	sp, #20
  103cb4:	f85d fb04 	ldr.w	pc, [sp], #4
  103cb8:	0004b1ec 	.word	0x0004b1ec

00103cbc <NCV78763::setInternalDimmingFreq(PWM_FREQ_INT_T)>:
  103cbc:	b500      	push	{lr}
  103cbe:	b085      	sub	sp, #20
  103cc0:	9001      	str	r0, [sp, #4]
  103cc2:	460b      	mov	r3, r1
  103cc4:	f88d 3003 	strb.w	r3, [sp, #3]
  103cc8:	f10d 030a 	add.w	r3, sp, #10
  103ccc:	461a      	mov	r2, r3
  103cce:	2108      	movs	r1, #8
  103cd0:	9801      	ldr	r0, [sp, #4]
  103cd2:	f000 fd65 	bl	1047a0 <NCV78763::registerRead(LD_CONTROL_REGx_T, unsigned short*)>
  103cd6:	4603      	mov	r3, r0
  103cd8:	f113 0f02 	cmn.w	r3, #2
  103cdc:	bf0c      	ite	eq
  103cde:	2301      	moveq	r3, #1
  103ce0:	2300      	movne	r3, #0
  103ce2:	b2db      	uxtb	r3, r3
  103ce4:	2b00      	cmp	r3, #0
  103ce6:	d002      	beq.n	103cee <NCV78763::setInternalDimmingFreq(PWM_FREQ_INT_T)+0x32>
  103ce8:	f06f 0301 	mvn.w	r3, #1
  103cec:	e01f      	b.n	103d2e <NCV78763::setInternalDimmingFreq(PWM_FREQ_INT_T)+0x72>
  103cee:	f8bd 300a 	ldrh.w	r3, [sp, #10]
  103cf2:	f023 0303 	bic.w	r3, r3, #3
  103cf6:	b29b      	uxth	r3, r3
  103cf8:	f8ad 300a 	strh.w	r3, [sp, #10]
  103cfc:	f89d 3003 	ldrb.w	r3, [sp, #3]
  103d00:	b29a      	uxth	r2, r3
  103d02:	f8bd 300a 	ldrh.w	r3, [sp, #10]
  103d06:	4313      	orrs	r3, r2
  103d08:	b29b      	uxth	r3, r3
  103d0a:	f8ad 300a 	strh.w	r3, [sp, #10]
  103d0e:	f8bd 300a 	ldrh.w	r3, [sp, #10]
  103d12:	461a      	mov	r2, r3
  103d14:	2108      	movs	r1, #8
  103d16:	9801      	ldr	r0, [sp, #4]
  103d18:	f000 fe24 	bl	104964 <NCV78763::writeCRx(LD_CONTROL_REGx_T, unsigned short)>
  103d1c:	9003      	str	r0, [sp, #12]
  103d1e:	9b03      	ldr	r3, [sp, #12]
  103d20:	f113 0f02 	cmn.w	r3, #2
  103d24:	d102      	bne.n	103d2c <NCV78763::setInternalDimmingFreq(PWM_FREQ_INT_T)+0x70>
  103d26:	f06f 0301 	mvn.w	r3, #1
  103d2a:	e000      	b.n	103d2e <NCV78763::setInternalDimmingFreq(PWM_FREQ_INT_T)+0x72>
  103d2c:	2300      	movs	r3, #0
  103d2e:	4618      	mov	r0, r3
  103d30:	b005      	add	sp, #20
  103d32:	f85d fb04 	ldr.w	pc, [sp], #4
  103d36:	bf00      	nop

00103d38 <NCV78763::setPWMDutyCycle(LEDCHANNEL_T, float)>:
  103d38:	b500      	push	{lr}
  103d3a:	b08b      	sub	sp, #44	; 0x2c
  103d3c:	9003      	str	r0, [sp, #12]
  103d3e:	460b      	mov	r3, r1
  103d40:	9201      	str	r2, [sp, #4]
  103d42:	f88d 300b 	strb.w	r3, [sp, #11]
  103d46:	2300      	movs	r3, #0
  103d48:	f8ad 3026 	strh.w	r3, [sp, #38]	; 0x26
  103d4c:	4b2c      	ldr	r3, [pc, #176]	; (103e00 <NCV78763::setPWMDutyCycle(LEDCHANNEL_T, float)+0xc8>)
  103d4e:	9308      	str	r3, [sp, #32]
  103d50:	f04f 0300 	mov.w	r3, #0
  103d54:	9307      	str	r3, [sp, #28]
  103d56:	9908      	ldr	r1, [sp, #32]
  103d58:	9801      	ldr	r0, [sp, #4]
  103d5a:	f019 fad1 	bl	11d300 <__aeabi_fcmpgt>
  103d5e:	4603      	mov	r3, r0
  103d60:	2b00      	cmp	r3, #0
  103d62:	d106      	bne.n	103d72 <NCV78763::setPWMDutyCycle(LEDCHANNEL_T, float)+0x3a>
  103d64:	9907      	ldr	r1, [sp, #28]
  103d66:	9801      	ldr	r0, [sp, #4]
  103d68:	f019 faac 	bl	11d2c4 <__aeabi_fcmplt>
  103d6c:	4603      	mov	r3, r0
  103d6e:	2b00      	cmp	r3, #0
  103d70:	d002      	beq.n	103d78 <NCV78763::setPWMDutyCycle(LEDCHANNEL_T, float)+0x40>
  103d72:	f06f 0302 	mvn.w	r3, #2
  103d76:	e03f      	b.n	103df8 <NCV78763::setPWMDutyCycle(LEDCHANNEL_T, float)+0xc0>
  103d78:	4922      	ldr	r1, [pc, #136]	; (103e04 <NCV78763::setPWMDutyCycle(LEDCHANNEL_T, float)+0xcc>)
  103d7a:	9801      	ldr	r0, [sp, #4]
  103d7c:	f019 f904 	bl	11cf88 <__aeabi_fmul>
  103d80:	4603      	mov	r3, r0
  103d82:	491f      	ldr	r1, [pc, #124]	; (103e00 <NCV78763::setPWMDutyCycle(LEDCHANNEL_T, float)+0xc8>)
  103d84:	4618      	mov	r0, r3
  103d86:	f019 f9b3 	bl	11d0f0 <__aeabi_fdiv>
  103d8a:	4603      	mov	r3, r0
  103d8c:	4618      	mov	r0, r3
  103d8e:	f019 fae7 	bl	11d360 <__aeabi_f2uiz>
  103d92:	4603      	mov	r3, r0
  103d94:	f8ad 301a 	strh.w	r3, [sp, #26]
  103d98:	f8bd 301a 	ldrh.w	r3, [sp, #26]
  103d9c:	f8ad 3026 	strh.w	r3, [sp, #38]	; 0x26
  103da0:	f89d 300b 	ldrb.w	r3, [sp, #11]
  103da4:	2b01      	cmp	r3, #1
  103da6:	d002      	beq.n	103dae <NCV78763::setPWMDutyCycle(LEDCHANNEL_T, float)+0x76>
  103da8:	2b02      	cmp	r3, #2
  103daa:	d00f      	beq.n	103dcc <NCV78763::setPWMDutyCycle(LEDCHANNEL_T, float)+0x94>
  103dac:	e01d      	b.n	103dea <NCV78763::setPWMDutyCycle(LEDCHANNEL_T, float)+0xb2>
  103dae:	f8bd 3026 	ldrh.w	r3, [sp, #38]	; 0x26
  103db2:	461a      	mov	r2, r3
  103db4:	2109      	movs	r1, #9
  103db6:	9803      	ldr	r0, [sp, #12]
  103db8:	f000 fdd4 	bl	104964 <NCV78763::writeCRx(LD_CONTROL_REGx_T, unsigned short)>
  103dbc:	9005      	str	r0, [sp, #20]
  103dbe:	9b05      	ldr	r3, [sp, #20]
  103dc0:	f113 0f02 	cmn.w	r3, #2
  103dc4:	d114      	bne.n	103df0 <NCV78763::setPWMDutyCycle(LEDCHANNEL_T, float)+0xb8>
  103dc6:	f06f 0301 	mvn.w	r3, #1
  103dca:	e015      	b.n	103df8 <NCV78763::setPWMDutyCycle(LEDCHANNEL_T, float)+0xc0>
  103dcc:	f8bd 3026 	ldrh.w	r3, [sp, #38]	; 0x26
  103dd0:	461a      	mov	r2, r3
  103dd2:	210a      	movs	r1, #10
  103dd4:	9803      	ldr	r0, [sp, #12]
  103dd6:	f000 fdc5 	bl	104964 <NCV78763::writeCRx(LD_CONTROL_REGx_T, unsigned short)>
  103dda:	9005      	str	r0, [sp, #20]
  103ddc:	9b05      	ldr	r3, [sp, #20]
  103dde:	f113 0f02 	cmn.w	r3, #2
  103de2:	d107      	bne.n	103df4 <NCV78763::setPWMDutyCycle(LEDCHANNEL_T, float)+0xbc>
  103de4:	f06f 0301 	mvn.w	r3, #1
  103de8:	e006      	b.n	103df8 <NCV78763::setPWMDutyCycle(LEDCHANNEL_T, float)+0xc0>
  103dea:	f06f 0302 	mvn.w	r3, #2
  103dee:	e003      	b.n	103df8 <NCV78763::setPWMDutyCycle(LEDCHANNEL_T, float)+0xc0>
  103df0:	bf00      	nop
  103df2:	e000      	b.n	103df6 <NCV78763::setPWMDutyCycle(LEDCHANNEL_T, float)+0xbe>
  103df4:	bf00      	nop
  103df6:	2300      	movs	r3, #0
  103df8:	4618      	mov	r0, r3
  103dfa:	b00b      	add	sp, #44	; 0x2c
  103dfc:	f85d fb04 	ldr.w	pc, [sp], #4
  103e00:	42c80000 	.word	0x42c80000
  103e04:	447fc000 	.word	0x447fc000

00103e08 <NCV78763::setIPWMDutyCycle(LEDCHANNEL_T, unsigned short)>:
  103e08:	b500      	push	{lr}
  103e0a:	b087      	sub	sp, #28
  103e0c:	9001      	str	r0, [sp, #4]
  103e0e:	460b      	mov	r3, r1
  103e10:	f88d 3003 	strb.w	r3, [sp, #3]
  103e14:	4613      	mov	r3, r2
  103e16:	f8ad 3000 	strh.w	r3, [sp]
  103e1a:	2300      	movs	r3, #0
  103e1c:	f8ad 3016 	strh.w	r3, [sp, #22]
  103e20:	f240 33ff 	movw	r3, #1023	; 0x3ff
  103e24:	f8ad 3014 	strh.w	r3, [sp, #20]
  103e28:	f8bd 2000 	ldrh.w	r2, [sp]
  103e2c:	f8bd 3014 	ldrh.w	r3, [sp, #20]
  103e30:	429a      	cmp	r2, r3
  103e32:	d902      	bls.n	103e3a <NCV78763::setIPWMDutyCycle(LEDCHANNEL_T, unsigned short)+0x32>
  103e34:	f06f 0302 	mvn.w	r3, #2
  103e38:	e033      	b.n	103ea2 <NCV78763::setIPWMDutyCycle(LEDCHANNEL_T, unsigned short)+0x9a>
  103e3a:	f8bd 3000 	ldrh.w	r3, [sp]
  103e3e:	f8ad 3012 	strh.w	r3, [sp, #18]
  103e42:	f8bd 3012 	ldrh.w	r3, [sp, #18]
  103e46:	f8ad 3016 	strh.w	r3, [sp, #22]
  103e4a:	f89d 3003 	ldrb.w	r3, [sp, #3]
  103e4e:	2b01      	cmp	r3, #1
  103e50:	d002      	beq.n	103e58 <NCV78763::setIPWMDutyCycle(LEDCHANNEL_T, unsigned short)+0x50>
  103e52:	2b02      	cmp	r3, #2
  103e54:	d00f      	beq.n	103e76 <NCV78763::setIPWMDutyCycle(LEDCHANNEL_T, unsigned short)+0x6e>
  103e56:	e01d      	b.n	103e94 <NCV78763::setIPWMDutyCycle(LEDCHANNEL_T, unsigned short)+0x8c>
  103e58:	f8bd 3016 	ldrh.w	r3, [sp, #22]
  103e5c:	461a      	mov	r2, r3
  103e5e:	2109      	movs	r1, #9
  103e60:	9801      	ldr	r0, [sp, #4]
  103e62:	f000 fd7f 	bl	104964 <NCV78763::writeCRx(LD_CONTROL_REGx_T, unsigned short)>
  103e66:	9003      	str	r0, [sp, #12]
  103e68:	9b03      	ldr	r3, [sp, #12]
  103e6a:	f113 0f02 	cmn.w	r3, #2
  103e6e:	d114      	bne.n	103e9a <NCV78763::setIPWMDutyCycle(LEDCHANNEL_T, unsigned short)+0x92>
  103e70:	f06f 0301 	mvn.w	r3, #1
  103e74:	e015      	b.n	103ea2 <NCV78763::setIPWMDutyCycle(LEDCHANNEL_T, unsigned short)+0x9a>
  103e76:	f8bd 3016 	ldrh.w	r3, [sp, #22]
  103e7a:	461a      	mov	r2, r3
  103e7c:	210a      	movs	r1, #10
  103e7e:	9801      	ldr	r0, [sp, #4]
  103e80:	f000 fd70 	bl	104964 <NCV78763::writeCRx(LD_CONTROL_REGx_T, unsigned short)>
  103e84:	9003      	str	r0, [sp, #12]
  103e86:	9b03      	ldr	r3, [sp, #12]
  103e88:	f113 0f02 	cmn.w	r3, #2
  103e8c:	d107      	bne.n	103e9e <NCV78763::setIPWMDutyCycle(LEDCHANNEL_T, unsigned short)+0x96>
  103e8e:	f06f 0301 	mvn.w	r3, #1
  103e92:	e006      	b.n	103ea2 <NCV78763::setIPWMDutyCycle(LEDCHANNEL_T, unsigned short)+0x9a>
  103e94:	f06f 0302 	mvn.w	r3, #2
  103e98:	e003      	b.n	103ea2 <NCV78763::setIPWMDutyCycle(LEDCHANNEL_T, unsigned short)+0x9a>
  103e9a:	bf00      	nop
  103e9c:	e000      	b.n	103ea0 <NCV78763::setIPWMDutyCycle(LEDCHANNEL_T, unsigned short)+0x98>
  103e9e:	bf00      	nop
  103ea0:	2300      	movs	r3, #0
  103ea2:	4618      	mov	r0, r3
  103ea4:	b007      	add	sp, #28
  103ea6:	f85d fb04 	ldr.w	pc, [sp], #4
  103eaa:	bf00      	nop
  103eac:	0000      	movs	r0, r0
	...

00103eb0 <NCV78763::setLEDBoosterVoltage(float, float)>:
  103eb0:	b500      	push	{lr}
  103eb2:	b089      	sub	sp, #36	; 0x24
  103eb4:	9003      	str	r0, [sp, #12]
  103eb6:	9102      	str	r1, [sp, #8]
  103eb8:	9201      	str	r2, [sp, #4]
  103eba:	9901      	ldr	r1, [sp, #4]
  103ebc:	9802      	ldr	r0, [sp, #8]
  103ebe:	f018 ff5b 	bl	11cd78 <__addsf3>
  103ec2:	4603      	mov	r3, r0
  103ec4:	4996      	ldr	r1, [pc, #600]	; (104120 <NCV78763::setLEDBoosterVoltage(float, float)+0x270>)
  103ec6:	4618      	mov	r0, r3
  103ec8:	f019 fa1a 	bl	11d300 <__aeabi_fcmpgt>
  103ecc:	4603      	mov	r3, r0
  103ece:	2b00      	cmp	r3, #0
  103ed0:	d002      	beq.n	103ed8 <NCV78763::setLEDBoosterVoltage(float, float)+0x28>
  103ed2:	f06f 0302 	mvn.w	r3, #2
  103ed6:	e106      	b.n	1040e6 <NCV78763::setLEDBoosterVoltage(float, float)+0x236>
  103ed8:	9802      	ldr	r0, [sp, #8]
  103eda:	f018 fbab 	bl	11c634 <__aeabi_f2d>
  103ede:	a384      	add	r3, pc, #528	; (adr r3, 1040f0 <NCV78763::setLEDBoosterVoltage(float, float)+0x240>)
  103ee0:	e9d3 2300 	ldrd	r2, r3, [r3]
  103ee4:	f018 fe8a 	bl	11cbfc <__aeabi_dcmpgt>
  103ee8:	4603      	mov	r3, r0
  103eea:	2b00      	cmp	r3, #0
  103eec:	d002      	beq.n	103ef4 <NCV78763::setLEDBoosterVoltage(float, float)+0x44>
  103eee:	4b8d      	ldr	r3, [pc, #564]	; (104124 <NCV78763::setLEDBoosterVoltage(float, float)+0x274>)
  103ef0:	9302      	str	r3, [sp, #8]
  103ef2:	e008      	b.n	103f06 <NCV78763::setLEDBoosterVoltage(float, float)+0x56>
  103ef4:	498c      	ldr	r1, [pc, #560]	; (104128 <NCV78763::setLEDBoosterVoltage(float, float)+0x278>)
  103ef6:	9802      	ldr	r0, [sp, #8]
  103ef8:	f019 f9e4 	bl	11d2c4 <__aeabi_fcmplt>
  103efc:	4603      	mov	r3, r0
  103efe:	2b00      	cmp	r3, #0
  103f00:	d001      	beq.n	103f06 <NCV78763::setLEDBoosterVoltage(float, float)+0x56>
  103f02:	4b8a      	ldr	r3, [pc, #552]	; (10412c <NCV78763::setLEDBoosterVoltage(float, float)+0x27c>)
  103f04:	9302      	str	r3, [sp, #8]
  103f06:	4989      	ldr	r1, [pc, #548]	; (10412c <NCV78763::setLEDBoosterVoltage(float, float)+0x27c>)
  103f08:	9802      	ldr	r0, [sp, #8]
  103f0a:	f019 f9d1 	bl	11d2b0 <__aeabi_fcmpeq>
  103f0e:	4603      	mov	r3, r0
  103f10:	2b00      	cmp	r3, #0
  103f12:	d003      	beq.n	103f1c <NCV78763::setLEDBoosterVoltage(float, float)+0x6c>
  103f14:	2300      	movs	r3, #0
  103f16:	f88d 301f 	strb.w	r3, [sp, #31]
  103f1a:	e014      	b.n	103f46 <NCV78763::setLEDBoosterVoltage(float, float)+0x96>
  103f1c:	4982      	ldr	r1, [pc, #520]	; (104128 <NCV78763::setLEDBoosterVoltage(float, float)+0x278>)
  103f1e:	9802      	ldr	r0, [sp, #8]
  103f20:	f018 ff28 	bl	11cd74 <__aeabi_fsub>
  103f24:	4603      	mov	r3, r0
  103f26:	4982      	ldr	r1, [pc, #520]	; (104130 <NCV78763::setLEDBoosterVoltage(float, float)+0x280>)
  103f28:	4618      	mov	r0, r3
  103f2a:	f019 f82d 	bl	11cf88 <__aeabi_fmul>
  103f2e:	4603      	mov	r3, r0
  103f30:	4980      	ldr	r1, [pc, #512]	; (104134 <NCV78763::setLEDBoosterVoltage(float, float)+0x284>)
  103f32:	4618      	mov	r0, r3
  103f34:	f019 f8dc 	bl	11d0f0 <__aeabi_fdiv>
  103f38:	4603      	mov	r3, r0
  103f3a:	4618      	mov	r0, r3
  103f3c:	f019 fa10 	bl	11d360 <__aeabi_f2uiz>
  103f40:	4603      	mov	r3, r0
  103f42:	f88d 301f 	strb.w	r3, [sp, #31]
  103f46:	f10d 0316 	add.w	r3, sp, #22
  103f4a:	461a      	mov	r2, r3
  103f4c:	2103      	movs	r1, #3
  103f4e:	9803      	ldr	r0, [sp, #12]
  103f50:	f000 fc26 	bl	1047a0 <NCV78763::registerRead(LD_CONTROL_REGx_T, unsigned short*)>
  103f54:	4603      	mov	r3, r0
  103f56:	f113 0f02 	cmn.w	r3, #2
  103f5a:	bf0c      	ite	eq
  103f5c:	2301      	moveq	r3, #1
  103f5e:	2300      	movne	r3, #0
  103f60:	b2db      	uxtb	r3, r3
  103f62:	2b00      	cmp	r3, #0
  103f64:	d002      	beq.n	103f6c <NCV78763::setLEDBoosterVoltage(float, float)+0xbc>
  103f66:	f06f 0301 	mvn.w	r3, #1
  103f6a:	e0bc      	b.n	1040e6 <NCV78763::setLEDBoosterVoltage(float, float)+0x236>
  103f6c:	f8bd 3016 	ldrh.w	r3, [sp, #22]
  103f70:	f023 037f 	bic.w	r3, r3, #127	; 0x7f
  103f74:	b29b      	uxth	r3, r3
  103f76:	f8ad 3016 	strh.w	r3, [sp, #22]
  103f7a:	f89d 301f 	ldrb.w	r3, [sp, #31]
  103f7e:	b29a      	uxth	r2, r3
  103f80:	f8bd 3016 	ldrh.w	r3, [sp, #22]
  103f84:	4313      	orrs	r3, r2
  103f86:	b29b      	uxth	r3, r3
  103f88:	f8ad 3016 	strh.w	r3, [sp, #22]
  103f8c:	f8bd 3016 	ldrh.w	r3, [sp, #22]
  103f90:	461a      	mov	r2, r3
  103f92:	2103      	movs	r1, #3
  103f94:	9803      	ldr	r0, [sp, #12]
  103f96:	f000 fce5 	bl	104964 <NCV78763::writeCRx(LD_CONTROL_REGx_T, unsigned short)>
  103f9a:	9006      	str	r0, [sp, #24]
  103f9c:	9801      	ldr	r0, [sp, #4]
  103f9e:	f018 fb49 	bl	11c634 <__aeabi_f2d>
  103fa2:	a355      	add	r3, pc, #340	; (adr r3, 1040f8 <NCV78763::setLEDBoosterVoltage(float, float)+0x248>)
  103fa4:	e9d3 2300 	ldrd	r2, r3, [r3]
  103fa8:	f018 fe28 	bl	11cbfc <__aeabi_dcmpgt>
  103fac:	4603      	mov	r3, r0
  103fae:	2b00      	cmp	r3, #0
  103fb0:	d003      	beq.n	103fba <NCV78763::setLEDBoosterVoltage(float, float)+0x10a>
  103fb2:	2307      	movs	r3, #7
  103fb4:	f88d 301e 	strb.w	r3, [sp, #30]
  103fb8:	e062      	b.n	104080 <NCV78763::setLEDBoosterVoltage(float, float)+0x1d0>
  103fba:	9801      	ldr	r0, [sp, #4]
  103fbc:	f018 fb3a 	bl	11c634 <__aeabi_f2d>
  103fc0:	a34f      	add	r3, pc, #316	; (adr r3, 104100 <NCV78763::setLEDBoosterVoltage(float, float)+0x250>)
  103fc2:	e9d3 2300 	ldrd	r2, r3, [r3]
  103fc6:	f018 fe19 	bl	11cbfc <__aeabi_dcmpgt>
  103fca:	4603      	mov	r3, r0
  103fcc:	2b00      	cmp	r3, #0
  103fce:	d003      	beq.n	103fd8 <NCV78763::setLEDBoosterVoltage(float, float)+0x128>
  103fd0:	2307      	movs	r3, #7
  103fd2:	f88d 301e 	strb.w	r3, [sp, #30]
  103fd6:	e053      	b.n	104080 <NCV78763::setLEDBoosterVoltage(float, float)+0x1d0>
  103fd8:	9801      	ldr	r0, [sp, #4]
  103fda:	f018 fb2b 	bl	11c634 <__aeabi_f2d>
  103fde:	a34a      	add	r3, pc, #296	; (adr r3, 104108 <NCV78763::setLEDBoosterVoltage(float, float)+0x258>)
  103fe0:	e9d3 2300 	ldrd	r2, r3, [r3]
  103fe4:	f018 fe0a 	bl	11cbfc <__aeabi_dcmpgt>
  103fe8:	4603      	mov	r3, r0
  103fea:	2b00      	cmp	r3, #0
  103fec:	d003      	beq.n	103ff6 <NCV78763::setLEDBoosterVoltage(float, float)+0x146>
  103fee:	2306      	movs	r3, #6
  103ff0:	f88d 301e 	strb.w	r3, [sp, #30]
  103ff4:	e044      	b.n	104080 <NCV78763::setLEDBoosterVoltage(float, float)+0x1d0>
  103ff6:	9801      	ldr	r0, [sp, #4]
  103ff8:	f018 fb1c 	bl	11c634 <__aeabi_f2d>
  103ffc:	a344      	add	r3, pc, #272	; (adr r3, 104110 <NCV78763::setLEDBoosterVoltage(float, float)+0x260>)
  103ffe:	e9d3 2300 	ldrd	r2, r3, [r3]
  104002:	f018 fdfb 	bl	11cbfc <__aeabi_dcmpgt>
  104006:	4603      	mov	r3, r0
  104008:	2b00      	cmp	r3, #0
  10400a:	d003      	beq.n	104014 <NCV78763::setLEDBoosterVoltage(float, float)+0x164>
  10400c:	2305      	movs	r3, #5
  10400e:	f88d 301e 	strb.w	r3, [sp, #30]
  104012:	e035      	b.n	104080 <NCV78763::setLEDBoosterVoltage(float, float)+0x1d0>
  104014:	9801      	ldr	r0, [sp, #4]
  104016:	f018 fb0d 	bl	11c634 <__aeabi_f2d>
  10401a:	a33f      	add	r3, pc, #252	; (adr r3, 104118 <NCV78763::setLEDBoosterVoltage(float, float)+0x268>)
  10401c:	e9d3 2300 	ldrd	r2, r3, [r3]
  104020:	f018 fdec 	bl	11cbfc <__aeabi_dcmpgt>
  104024:	4603      	mov	r3, r0
  104026:	2b00      	cmp	r3, #0
  104028:	d003      	beq.n	104032 <NCV78763::setLEDBoosterVoltage(float, float)+0x182>
  10402a:	2304      	movs	r3, #4
  10402c:	f88d 301e 	strb.w	r3, [sp, #30]
  104030:	e026      	b.n	104080 <NCV78763::setLEDBoosterVoltage(float, float)+0x1d0>
  104032:	f04f 4180 	mov.w	r1, #1073741824	; 0x40000000
  104036:	9801      	ldr	r0, [sp, #4]
  104038:	f019 f962 	bl	11d300 <__aeabi_fcmpgt>
  10403c:	4603      	mov	r3, r0
  10403e:	2b00      	cmp	r3, #0
  104040:	d003      	beq.n	10404a <NCV78763::setLEDBoosterVoltage(float, float)+0x19a>
  104042:	2303      	movs	r3, #3
  104044:	f88d 301e 	strb.w	r3, [sp, #30]
  104048:	e01a      	b.n	104080 <NCV78763::setLEDBoosterVoltage(float, float)+0x1d0>
  10404a:	f04f 517f 	mov.w	r1, #1069547520	; 0x3fc00000
  10404e:	9801      	ldr	r0, [sp, #4]
  104050:	f019 f956 	bl	11d300 <__aeabi_fcmpgt>
  104054:	4603      	mov	r3, r0
  104056:	2b00      	cmp	r3, #0
  104058:	d003      	beq.n	104062 <NCV78763::setLEDBoosterVoltage(float, float)+0x1b2>
  10405a:	2302      	movs	r3, #2
  10405c:	f88d 301e 	strb.w	r3, [sp, #30]
  104060:	e00e      	b.n	104080 <NCV78763::setLEDBoosterVoltage(float, float)+0x1d0>
  104062:	f04f 517e 	mov.w	r1, #1065353216	; 0x3f800000
  104066:	9801      	ldr	r0, [sp, #4]
  104068:	f019 f94a 	bl	11d300 <__aeabi_fcmpgt>
  10406c:	4603      	mov	r3, r0
  10406e:	2b00      	cmp	r3, #0
  104070:	d003      	beq.n	10407a <NCV78763::setLEDBoosterVoltage(float, float)+0x1ca>
  104072:	2301      	movs	r3, #1
  104074:	f88d 301e 	strb.w	r3, [sp, #30]
  104078:	e002      	b.n	104080 <NCV78763::setLEDBoosterVoltage(float, float)+0x1d0>
  10407a:	2300      	movs	r3, #0
  10407c:	f88d 301e 	strb.w	r3, [sp, #30]
  104080:	f10d 0316 	add.w	r3, sp, #22
  104084:	461a      	mov	r2, r3
  104086:	2102      	movs	r1, #2
  104088:	9803      	ldr	r0, [sp, #12]
  10408a:	f000 fb89 	bl	1047a0 <NCV78763::registerRead(LD_CONTROL_REGx_T, unsigned short*)>
  10408e:	4603      	mov	r3, r0
  104090:	f113 0f02 	cmn.w	r3, #2
  104094:	bf0c      	ite	eq
  104096:	2301      	moveq	r3, #1
  104098:	2300      	movne	r3, #0
  10409a:	b2db      	uxtb	r3, r3
  10409c:	2b00      	cmp	r3, #0
  10409e:	d002      	beq.n	1040a6 <NCV78763::setLEDBoosterVoltage(float, float)+0x1f6>
  1040a0:	f06f 0301 	mvn.w	r3, #1
  1040a4:	e01f      	b.n	1040e6 <NCV78763::setLEDBoosterVoltage(float, float)+0x236>
  1040a6:	f8bd 3016 	ldrh.w	r3, [sp, #22]
  1040aa:	f023 0307 	bic.w	r3, r3, #7
  1040ae:	b29b      	uxth	r3, r3
  1040b0:	f8ad 3016 	strh.w	r3, [sp, #22]
  1040b4:	f89d 301e 	ldrb.w	r3, [sp, #30]
  1040b8:	b29a      	uxth	r2, r3
  1040ba:	f8bd 3016 	ldrh.w	r3, [sp, #22]
  1040be:	4313      	orrs	r3, r2
  1040c0:	b29b      	uxth	r3, r3
  1040c2:	f8ad 3016 	strh.w	r3, [sp, #22]
  1040c6:	f8bd 3016 	ldrh.w	r3, [sp, #22]
  1040ca:	461a      	mov	r2, r3
  1040cc:	2102      	movs	r1, #2
  1040ce:	9803      	ldr	r0, [sp, #12]
  1040d0:	f000 fc48 	bl	104964 <NCV78763::writeCRx(LD_CONTROL_REGx_T, unsigned short)>
  1040d4:	9006      	str	r0, [sp, #24]
  1040d6:	9b06      	ldr	r3, [sp, #24]
  1040d8:	f113 0f02 	cmn.w	r3, #2
  1040dc:	d102      	bne.n	1040e4 <NCV78763::setLEDBoosterVoltage(float, float)+0x234>
  1040de:	f06f 0301 	mvn.w	r3, #1
  1040e2:	e000      	b.n	1040e6 <NCV78763::setLEDBoosterVoltage(float, float)+0x236>
  1040e4:	2300      	movs	r3, #0
  1040e6:	4618      	mov	r0, r3
  1040e8:	b009      	add	sp, #36	; 0x24
  1040ea:	f85d fb04 	ldr.w	pc, [sp], #4
  1040ee:	bf00      	nop
  1040f0:	66666666 	.word	0x66666666
  1040f4:	40500666 	.word	0x40500666
  1040f8:	33333333 	.word	0x33333333
  1040fc:	40173333 	.word	0x40173333
  104100:	66666666 	.word	0x66666666
  104104:	40136666 	.word	0x40136666
  104108:	33333333 	.word	0x33333333
  10410c:	400f3333 	.word	0x400f3333
  104110:	33333333 	.word	0x33333333
  104114:	40073333 	.word	0x40073333
  104118:	33333333 	.word	0x33333333
  10411c:	40033333 	.word	0x40033333
  104120:	42880000 	.word	0x42880000
  104124:	42803333 	.word	0x42803333
  104128:	41700000 	.word	0x41700000
  10412c:	41300000 	.word	0x41300000
  104130:	42fe0000 	.word	0x42fe0000
  104134:	42446666 	.word	0x42446666

00104138 <NCV78763::boosterEnable()>:
  104138:	b500      	push	{lr}
  10413a:	b085      	sub	sp, #20
  10413c:	9001      	str	r0, [sp, #4]
  10413e:	f10d 030e 	add.w	r3, sp, #14
  104142:	461a      	mov	r2, r3
  104144:	2102      	movs	r1, #2
  104146:	9801      	ldr	r0, [sp, #4]
  104148:	f000 fb2a 	bl	1047a0 <NCV78763::registerRead(LD_CONTROL_REGx_T, unsigned short*)>
  10414c:	4603      	mov	r3, r0
  10414e:	f113 0f02 	cmn.w	r3, #2
  104152:	bf0c      	ite	eq
  104154:	2301      	moveq	r3, #1
  104156:	2300      	movne	r3, #0
  104158:	b2db      	uxtb	r3, r3
  10415a:	2b00      	cmp	r3, #0
  10415c:	d002      	beq.n	104164 <NCV78763::boosterEnable()+0x2c>
  10415e:	f06f 0301 	mvn.w	r3, #1
  104162:	e019      	b.n	104198 <NCV78763::boosterEnable()+0x60>
  104164:	f8bd 300e 	ldrh.w	r3, [sp, #14]
  104168:	f043 0320 	orr.w	r3, r3, #32
  10416c:	b29b      	uxth	r3, r3
  10416e:	f8ad 300e 	strh.w	r3, [sp, #14]
  104172:	f8bd 300e 	ldrh.w	r3, [sp, #14]
  104176:	461a      	mov	r2, r3
  104178:	2102      	movs	r1, #2
  10417a:	9801      	ldr	r0, [sp, #4]
  10417c:	f000 fbf2 	bl	104964 <NCV78763::writeCRx(LD_CONTROL_REGx_T, unsigned short)>
  104180:	4603      	mov	r3, r0
  104182:	2b00      	cmp	r3, #0
  104184:	bf0c      	ite	eq
  104186:	2301      	moveq	r3, #1
  104188:	2300      	movne	r3, #0
  10418a:	b2db      	uxtb	r3, r3
  10418c:	2b00      	cmp	r3, #0
  10418e:	d001      	beq.n	104194 <NCV78763::boosterEnable()+0x5c>
  104190:	2300      	movs	r3, #0
  104192:	e001      	b.n	104198 <NCV78763::boosterEnable()+0x60>
  104194:	f06f 0301 	mvn.w	r3, #1
  104198:	4618      	mov	r0, r3
  10419a:	b005      	add	sp, #20
  10419c:	f85d fb04 	ldr.w	pc, [sp], #4

001041a0 <NCV78763::boosterDisable()>:
  1041a0:	b500      	push	{lr}
  1041a2:	b085      	sub	sp, #20
  1041a4:	9001      	str	r0, [sp, #4]
  1041a6:	f10d 030e 	add.w	r3, sp, #14
  1041aa:	461a      	mov	r2, r3
  1041ac:	2102      	movs	r1, #2
  1041ae:	9801      	ldr	r0, [sp, #4]
  1041b0:	f000 faf6 	bl	1047a0 <NCV78763::registerRead(LD_CONTROL_REGx_T, unsigned short*)>
  1041b4:	4603      	mov	r3, r0
  1041b6:	f113 0f02 	cmn.w	r3, #2
  1041ba:	bf0c      	ite	eq
  1041bc:	2301      	moveq	r3, #1
  1041be:	2300      	movne	r3, #0
  1041c0:	b2db      	uxtb	r3, r3
  1041c2:	2b00      	cmp	r3, #0
  1041c4:	d002      	beq.n	1041cc <NCV78763::boosterDisable()+0x2c>
  1041c6:	f06f 0301 	mvn.w	r3, #1
  1041ca:	e019      	b.n	104200 <NCV78763::boosterDisable()+0x60>
  1041cc:	f8bd 300e 	ldrh.w	r3, [sp, #14]
  1041d0:	f023 0320 	bic.w	r3, r3, #32
  1041d4:	b29b      	uxth	r3, r3
  1041d6:	f8ad 300e 	strh.w	r3, [sp, #14]
  1041da:	f8bd 300e 	ldrh.w	r3, [sp, #14]
  1041de:	461a      	mov	r2, r3
  1041e0:	2102      	movs	r1, #2
  1041e2:	9801      	ldr	r0, [sp, #4]
  1041e4:	f000 fbbe 	bl	104964 <NCV78763::writeCRx(LD_CONTROL_REGx_T, unsigned short)>
  1041e8:	4603      	mov	r3, r0
  1041ea:	2b00      	cmp	r3, #0
  1041ec:	bf0c      	ite	eq
  1041ee:	2301      	moveq	r3, #1
  1041f0:	2300      	movne	r3, #0
  1041f2:	b2db      	uxtb	r3, r3
  1041f4:	2b00      	cmp	r3, #0
  1041f6:	d001      	beq.n	1041fc <NCV78763::boosterDisable()+0x5c>
  1041f8:	2300      	movs	r3, #0
  1041fa:	e001      	b.n	104200 <NCV78763::boosterDisable()+0x60>
  1041fc:	f06f 0301 	mvn.w	r3, #1
  104200:	4618      	mov	r0, r3
  104202:	b005      	add	sp, #20
  104204:	f85d fb04 	ldr.w	pc, [sp], #4

00104208 <NCV78763::setBoosterFrequency(unsigned long)>:
  104208:	b500      	push	{lr}
  10420a:	b087      	sub	sp, #28
  10420c:	9001      	str	r0, [sp, #4]
  10420e:	9100      	str	r1, [sp, #0]
  104210:	4a23      	ldr	r2, [pc, #140]	; (1042a0 <NCV78763::setBoosterFrequency(unsigned long)+0x98>)
  104212:	9b00      	ldr	r3, [sp, #0]
  104214:	fbb2 f3f3 	udiv	r3, r2, r3
  104218:	9305      	str	r3, [sp, #20]
  10421a:	9b05      	ldr	r3, [sp, #20]
  10421c:	2b07      	cmp	r3, #7
  10421e:	d902      	bls.n	104226 <NCV78763::setBoosterFrequency(unsigned long)+0x1e>
  104220:	9b05      	ldr	r3, [sp, #20]
  104222:	2b26      	cmp	r3, #38	; 0x26
  104224:	d902      	bls.n	10422c <NCV78763::setBoosterFrequency(unsigned long)+0x24>
  104226:	f06f 0302 	mvn.w	r3, #2
  10422a:	e035      	b.n	104298 <NCV78763::setBoosterFrequency(unsigned long)+0x90>
  10422c:	f10d 030e 	add.w	r3, sp, #14
  104230:	461a      	mov	r2, r3
  104232:	2101      	movs	r1, #1
  104234:	9801      	ldr	r0, [sp, #4]
  104236:	f000 fab3 	bl	1047a0 <NCV78763::registerRead(LD_CONTROL_REGx_T, unsigned short*)>
  10423a:	4603      	mov	r3, r0
  10423c:	f113 0f02 	cmn.w	r3, #2
  104240:	bf0c      	ite	eq
  104242:	2301      	moveq	r3, #1
  104244:	2300      	movne	r3, #0
  104246:	b2db      	uxtb	r3, r3
  104248:	2b00      	cmp	r3, #0
  10424a:	d002      	beq.n	104252 <NCV78763::setBoosterFrequency(unsigned long)+0x4a>
  10424c:	f06f 0301 	mvn.w	r3, #1
  104250:	e022      	b.n	104298 <NCV78763::setBoosterFrequency(unsigned long)+0x90>
  104252:	f8bd 300e 	ldrh.w	r3, [sp, #14]
  104256:	f023 03f8 	bic.w	r3, r3, #248	; 0xf8
  10425a:	b29b      	uxth	r3, r3
  10425c:	f8ad 300e 	strh.w	r3, [sp, #14]
  104260:	9b05      	ldr	r3, [sp, #20]
  104262:	b29b      	uxth	r3, r3
  104264:	3b07      	subs	r3, #7
  104266:	b29b      	uxth	r3, r3
  104268:	00db      	lsls	r3, r3, #3
  10426a:	b29a      	uxth	r2, r3
  10426c:	f8bd 300e 	ldrh.w	r3, [sp, #14]
  104270:	4313      	orrs	r3, r2
  104272:	b29b      	uxth	r3, r3
  104274:	f8ad 300e 	strh.w	r3, [sp, #14]
  104278:	f8bd 300e 	ldrh.w	r3, [sp, #14]
  10427c:	461a      	mov	r2, r3
  10427e:	2101      	movs	r1, #1
  104280:	9801      	ldr	r0, [sp, #4]
  104282:	f000 fb6f 	bl	104964 <NCV78763::writeCRx(LD_CONTROL_REGx_T, unsigned short)>
  104286:	9004      	str	r0, [sp, #16]
  104288:	9b04      	ldr	r3, [sp, #16]
  10428a:	f113 0f02 	cmn.w	r3, #2
  10428e:	d102      	bne.n	104296 <NCV78763::setBoosterFrequency(unsigned long)+0x8e>
  104290:	f06f 0301 	mvn.w	r3, #1
  104294:	e000      	b.n	104298 <NCV78763::setBoosterFrequency(unsigned long)+0x90>
  104296:	2300      	movs	r3, #0
  104298:	4618      	mov	r0, r3
  10429a:	b007      	add	sp, #28
  10429c:	f85d fb04 	ldr.w	pc, [sp], #4
  1042a0:	007a1200 	.word	0x007a1200

001042a4 <NCV78763::setBoosterOVReactivation(BST_RA_T)>:
  1042a4:	b500      	push	{lr}
  1042a6:	b085      	sub	sp, #20
  1042a8:	9001      	str	r0, [sp, #4]
  1042aa:	460b      	mov	r3, r1
  1042ac:	f88d 3003 	strb.w	r3, [sp, #3]
  1042b0:	f10d 030a 	add.w	r3, sp, #10
  1042b4:	461a      	mov	r2, r3
  1042b6:	2102      	movs	r1, #2
  1042b8:	9801      	ldr	r0, [sp, #4]
  1042ba:	f000 fa71 	bl	1047a0 <NCV78763::registerRead(LD_CONTROL_REGx_T, unsigned short*)>
  1042be:	4603      	mov	r3, r0
  1042c0:	f113 0f02 	cmn.w	r3, #2
  1042c4:	bf0c      	ite	eq
  1042c6:	2301      	moveq	r3, #1
  1042c8:	2300      	movne	r3, #0
  1042ca:	b2db      	uxtb	r3, r3
  1042cc:	2b00      	cmp	r3, #0
  1042ce:	d002      	beq.n	1042d6 <NCV78763::setBoosterOVReactivation(BST_RA_T)+0x32>
  1042d0:	f06f 0301 	mvn.w	r3, #1
  1042d4:	e022      	b.n	10431c <NCV78763::setBoosterOVReactivation(BST_RA_T)+0x78>
  1042d6:	f8bd 300a 	ldrh.w	r3, [sp, #10]
  1042da:	f023 0318 	bic.w	r3, r3, #24
  1042de:	b29b      	uxth	r3, r3
  1042e0:	f8ad 300a 	strh.w	r3, [sp, #10]
  1042e4:	f89d 3003 	ldrb.w	r3, [sp, #3]
  1042e8:	00db      	lsls	r3, r3, #3
  1042ea:	b29a      	uxth	r2, r3
  1042ec:	f8bd 300a 	ldrh.w	r3, [sp, #10]
  1042f0:	b29b      	uxth	r3, r3
  1042f2:	4313      	orrs	r3, r2
  1042f4:	b29b      	uxth	r3, r3
  1042f6:	b29b      	uxth	r3, r3
  1042f8:	f8ad 300a 	strh.w	r3, [sp, #10]
  1042fc:	f8bd 300a 	ldrh.w	r3, [sp, #10]
  104300:	461a      	mov	r2, r3
  104302:	2102      	movs	r1, #2
  104304:	9801      	ldr	r0, [sp, #4]
  104306:	f000 fb2d 	bl	104964 <NCV78763::writeCRx(LD_CONTROL_REGx_T, unsigned short)>
  10430a:	9003      	str	r0, [sp, #12]
  10430c:	9b03      	ldr	r3, [sp, #12]
  10430e:	f113 0f02 	cmn.w	r3, #2
  104312:	d102      	bne.n	10431a <NCV78763::setBoosterOVReactivation(BST_RA_T)+0x76>
  104314:	f06f 0301 	mvn.w	r3, #1
  104318:	e000      	b.n	10431c <NCV78763::setBoosterOVReactivation(BST_RA_T)+0x78>
  10431a:	2300      	movs	r3, #0
  10431c:	4618      	mov	r0, r3
  10431e:	b005      	add	sp, #20
  104320:	f85d fb04 	ldr.w	pc, [sp], #4

00104324 <NCV78763::setBoosterMinOffTime(BST_TOFF_MIN_T)>:
  104324:	b500      	push	{lr}
  104326:	b085      	sub	sp, #20
  104328:	9001      	str	r0, [sp, #4]
  10432a:	460b      	mov	r3, r1
  10432c:	f88d 3003 	strb.w	r3, [sp, #3]
  104330:	f10d 030a 	add.w	r3, sp, #10
  104334:	461a      	mov	r2, r3
  104336:	2102      	movs	r1, #2
  104338:	9801      	ldr	r0, [sp, #4]
  10433a:	f000 fa31 	bl	1047a0 <NCV78763::registerRead(LD_CONTROL_REGx_T, unsigned short*)>
  10433e:	4603      	mov	r3, r0
  104340:	f113 0f02 	cmn.w	r3, #2
  104344:	bf0c      	ite	eq
  104346:	2301      	moveq	r3, #1
  104348:	2300      	movne	r3, #0
  10434a:	b2db      	uxtb	r3, r3
  10434c:	2b00      	cmp	r3, #0
  10434e:	d002      	beq.n	104356 <NCV78763::setBoosterMinOffTime(BST_TOFF_MIN_T)+0x32>
  104350:	f06f 0301 	mvn.w	r3, #1
  104354:	e022      	b.n	10439c <NCV78763::setBoosterMinOffTime(BST_TOFF_MIN_T)+0x78>
  104356:	f8bd 300a 	ldrh.w	r3, [sp, #10]
  10435a:	f423 73c0 	bic.w	r3, r3, #384	; 0x180
  10435e:	b29b      	uxth	r3, r3
  104360:	f8ad 300a 	strh.w	r3, [sp, #10]
  104364:	f89d 3003 	ldrb.w	r3, [sp, #3]
  104368:	00db      	lsls	r3, r3, #3
  10436a:	b29a      	uxth	r2, r3
  10436c:	f8bd 300a 	ldrh.w	r3, [sp, #10]
  104370:	b29b      	uxth	r3, r3
  104372:	4313      	orrs	r3, r2
  104374:	b29b      	uxth	r3, r3
  104376:	b29b      	uxth	r3, r3
  104378:	f8ad 300a 	strh.w	r3, [sp, #10]
  10437c:	f8bd 300a 	ldrh.w	r3, [sp, #10]
  104380:	461a      	mov	r2, r3
  104382:	2102      	movs	r1, #2
  104384:	9801      	ldr	r0, [sp, #4]
  104386:	f000 faed 	bl	104964 <NCV78763::writeCRx(LD_CONTROL_REGx_T, unsigned short)>
  10438a:	9003      	str	r0, [sp, #12]
  10438c:	9b03      	ldr	r3, [sp, #12]
  10438e:	f113 0f02 	cmn.w	r3, #2
  104392:	d102      	bne.n	10439a <NCV78763::setBoosterMinOffTime(BST_TOFF_MIN_T)+0x76>
  104394:	f06f 0301 	mvn.w	r3, #1
  104398:	e000      	b.n	10439c <NCV78763::setBoosterMinOffTime(BST_TOFF_MIN_T)+0x78>
  10439a:	2300      	movs	r3, #0
  10439c:	4618      	mov	r0, r3
  10439e:	b005      	add	sp, #20
  1043a0:	f85d fb04 	ldr.w	pc, [sp], #4

001043a4 <NCV78763::setBoosterMinOnTime(BST_TON_MIN_T)>:
  1043a4:	b500      	push	{lr}
  1043a6:	b085      	sub	sp, #20
  1043a8:	9001      	str	r0, [sp, #4]
  1043aa:	460b      	mov	r3, r1
  1043ac:	f88d 3003 	strb.w	r3, [sp, #3]
  1043b0:	f10d 030a 	add.w	r3, sp, #10
  1043b4:	461a      	mov	r2, r3
  1043b6:	2105      	movs	r1, #5
  1043b8:	9801      	ldr	r0, [sp, #4]
  1043ba:	f000 f9f1 	bl	1047a0 <NCV78763::registerRead(LD_CONTROL_REGx_T, unsigned short*)>
  1043be:	4603      	mov	r3, r0
  1043c0:	f113 0f02 	cmn.w	r3, #2
  1043c4:	bf0c      	ite	eq
  1043c6:	2301      	moveq	r3, #1
  1043c8:	2300      	movne	r3, #0
  1043ca:	b2db      	uxtb	r3, r3
  1043cc:	2b00      	cmp	r3, #0
  1043ce:	d002      	beq.n	1043d6 <NCV78763::setBoosterMinOnTime(BST_TON_MIN_T)+0x32>
  1043d0:	f06f 0301 	mvn.w	r3, #1
  1043d4:	e022      	b.n	10441c <NCV78763::setBoosterMinOnTime(BST_TON_MIN_T)+0x78>
  1043d6:	f8bd 300a 	ldrh.w	r3, [sp, #10]
  1043da:	f423 73c0 	bic.w	r3, r3, #384	; 0x180
  1043de:	b29b      	uxth	r3, r3
  1043e0:	f8ad 300a 	strh.w	r3, [sp, #10]
  1043e4:	f89d 3003 	ldrb.w	r3, [sp, #3]
  1043e8:	021b      	lsls	r3, r3, #8
  1043ea:	b29a      	uxth	r2, r3
  1043ec:	f8bd 300a 	ldrh.w	r3, [sp, #10]
  1043f0:	b29b      	uxth	r3, r3
  1043f2:	4313      	orrs	r3, r2
  1043f4:	b29b      	uxth	r3, r3
  1043f6:	b29b      	uxth	r3, r3
  1043f8:	f8ad 300a 	strh.w	r3, [sp, #10]
  1043fc:	f8bd 300a 	ldrh.w	r3, [sp, #10]
  104400:	461a      	mov	r2, r3
  104402:	2105      	movs	r1, #5
  104404:	9801      	ldr	r0, [sp, #4]
  104406:	f000 faad 	bl	104964 <NCV78763::writeCRx(LD_CONTROL_REGx_T, unsigned short)>
  10440a:	9003      	str	r0, [sp, #12]
  10440c:	9b03      	ldr	r3, [sp, #12]
  10440e:	f113 0f02 	cmn.w	r3, #2
  104412:	d102      	bne.n	10441a <NCV78763::setBoosterMinOnTime(BST_TON_MIN_T)+0x76>
  104414:	f06f 0301 	mvn.w	r3, #1
  104418:	e000      	b.n	10441c <NCV78763::setBoosterMinOnTime(BST_TON_MIN_T)+0x78>
  10441a:	2300      	movs	r3, #0
  10441c:	4618      	mov	r0, r3
  10441e:	b005      	add	sp, #20
  104420:	f85d fb04 	ldr.w	pc, [sp], #4

00104424 <NCV78763::setBoosterSlopeCompensation(BOOST_SLPCTRL_T)>:
  104424:	b500      	push	{lr}
  104426:	b085      	sub	sp, #20
  104428:	9001      	str	r0, [sp, #4]
  10442a:	460b      	mov	r3, r1
  10442c:	f88d 3003 	strb.w	r3, [sp, #3]
  104430:	f10d 030a 	add.w	r3, sp, #10
  104434:	461a      	mov	r2, r3
  104436:	2101      	movs	r1, #1
  104438:	9801      	ldr	r0, [sp, #4]
  10443a:	f000 f9b1 	bl	1047a0 <NCV78763::registerRead(LD_CONTROL_REGx_T, unsigned short*)>
  10443e:	4603      	mov	r3, r0
  104440:	f113 0f02 	cmn.w	r3, #2
  104444:	bf0c      	ite	eq
  104446:	2301      	moveq	r3, #1
  104448:	2300      	movne	r3, #0
  10444a:	b2db      	uxtb	r3, r3
  10444c:	2b00      	cmp	r3, #0
  10444e:	d002      	beq.n	104456 <NCV78763::setBoosterSlopeCompensation(BOOST_SLPCTRL_T)+0x32>
  104450:	f06f 0301 	mvn.w	r3, #1
  104454:	e022      	b.n	10449c <NCV78763::setBoosterSlopeCompensation(BOOST_SLPCTRL_T)+0x78>
  104456:	f8bd 300a 	ldrh.w	r3, [sp, #10]
  10445a:	f023 0306 	bic.w	r3, r3, #6
  10445e:	b29b      	uxth	r3, r3
  104460:	f8ad 300a 	strh.w	r3, [sp, #10]
  104464:	f89d 3003 	ldrb.w	r3, [sp, #3]
  104468:	005b      	lsls	r3, r3, #1
  10446a:	b29a      	uxth	r2, r3
  10446c:	f8bd 300a 	ldrh.w	r3, [sp, #10]
  104470:	b29b      	uxth	r3, r3
  104472:	4313      	orrs	r3, r2
  104474:	b29b      	uxth	r3, r3
  104476:	b29b      	uxth	r3, r3
  104478:	f8ad 300a 	strh.w	r3, [sp, #10]
  10447c:	f8bd 300a 	ldrh.w	r3, [sp, #10]
  104480:	461a      	mov	r2, r3
  104482:	2101      	movs	r1, #1
  104484:	9801      	ldr	r0, [sp, #4]
  104486:	f000 fa6d 	bl	104964 <NCV78763::writeCRx(LD_CONTROL_REGx_T, unsigned short)>
  10448a:	9003      	str	r0, [sp, #12]
  10448c:	9b03      	ldr	r3, [sp, #12]
  10448e:	f113 0f02 	cmn.w	r3, #2
  104492:	d102      	bne.n	10449a <NCV78763::setBoosterSlopeCompensation(BOOST_SLPCTRL_T)+0x76>
  104494:	f06f 0301 	mvn.w	r3, #1
  104498:	e000      	b.n	10449c <NCV78763::setBoosterSlopeCompensation(BOOST_SLPCTRL_T)+0x78>
  10449a:	2300      	movs	r3, #0
  10449c:	4618      	mov	r0, r3
  10449e:	b005      	add	sp, #20
  1044a0:	f85d fb04 	ldr.w	pc, [sp], #4

001044a4 <NCV78763::setBoosterErrorAmpGain(BOOST_OTA_GAIN_T)>:
  1044a4:	b500      	push	{lr}
  1044a6:	b085      	sub	sp, #20
  1044a8:	9001      	str	r0, [sp, #4]
  1044aa:	460b      	mov	r3, r1
  1044ac:	f88d 3003 	strb.w	r3, [sp, #3]
  1044b0:	f10d 030a 	add.w	r3, sp, #10
  1044b4:	461a      	mov	r2, r3
  1044b6:	2101      	movs	r1, #1
  1044b8:	9801      	ldr	r0, [sp, #4]
  1044ba:	f000 f971 	bl	1047a0 <NCV78763::registerRead(LD_CONTROL_REGx_T, unsigned short*)>
  1044be:	4603      	mov	r3, r0
  1044c0:	f113 0f02 	cmn.w	r3, #2
  1044c4:	bf0c      	ite	eq
  1044c6:	2301      	moveq	r3, #1
  1044c8:	2300      	movne	r3, #0
  1044ca:	b2db      	uxtb	r3, r3
  1044cc:	2b00      	cmp	r3, #0
  1044ce:	d002      	beq.n	1044d6 <NCV78763::setBoosterErrorAmpGain(BOOST_OTA_GAIN_T)+0x32>
  1044d0:	f06f 0301 	mvn.w	r3, #1
  1044d4:	e022      	b.n	10451c <NCV78763::setBoosterErrorAmpGain(BOOST_OTA_GAIN_T)+0x78>
  1044d6:	f8bd 300a 	ldrh.w	r3, [sp, #10]
  1044da:	f423 7340 	bic.w	r3, r3, #768	; 0x300
  1044de:	b29b      	uxth	r3, r3
  1044e0:	f8ad 300a 	strh.w	r3, [sp, #10]
  1044e4:	f89d 3003 	ldrb.w	r3, [sp, #3]
  1044e8:	021b      	lsls	r3, r3, #8
  1044ea:	b29a      	uxth	r2, r3
  1044ec:	f8bd 300a 	ldrh.w	r3, [sp, #10]
  1044f0:	b29b      	uxth	r3, r3
  1044f2:	4313      	orrs	r3, r2
  1044f4:	b29b      	uxth	r3, r3
  1044f6:	b29b      	uxth	r3, r3
  1044f8:	f8ad 300a 	strh.w	r3, [sp, #10]
  1044fc:	f8bd 300a 	ldrh.w	r3, [sp, #10]
  104500:	461a      	mov	r2, r3
  104502:	2101      	movs	r1, #1
  104504:	9801      	ldr	r0, [sp, #4]
  104506:	f000 fa2d 	bl	104964 <NCV78763::writeCRx(LD_CONTROL_REGx_T, unsigned short)>
  10450a:	9003      	str	r0, [sp, #12]
  10450c:	9b03      	ldr	r3, [sp, #12]
  10450e:	f113 0f02 	cmn.w	r3, #2
  104512:	d102      	bne.n	10451a <NCV78763::setBoosterErrorAmpGain(BOOST_OTA_GAIN_T)+0x76>
  104514:	f06f 0301 	mvn.w	r3, #1
  104518:	e000      	b.n	10451c <NCV78763::setBoosterErrorAmpGain(BOOST_OTA_GAIN_T)+0x78>
  10451a:	2300      	movs	r3, #0
  10451c:	4618      	mov	r0, r3
  10451e:	b005      	add	sp, #20
  104520:	f85d fb04 	ldr.w	pc, [sp], #4

00104524 <NCV78763::setBoosterCurLimPeakVal(BOOST_VLIMTH_T)>:
  104524:	b500      	push	{lr}
  104526:	b085      	sub	sp, #20
  104528:	9001      	str	r0, [sp, #4]
  10452a:	460b      	mov	r3, r1
  10452c:	f88d 3003 	strb.w	r3, [sp, #3]
  104530:	f10d 030a 	add.w	r3, sp, #10
  104534:	461a      	mov	r2, r3
  104536:	2103      	movs	r1, #3
  104538:	9801      	ldr	r0, [sp, #4]
  10453a:	f000 f931 	bl	1047a0 <NCV78763::registerRead(LD_CONTROL_REGx_T, unsigned short*)>
  10453e:	4603      	mov	r3, r0
  104540:	f113 0f02 	cmn.w	r3, #2
  104544:	bf0c      	ite	eq
  104546:	2301      	moveq	r3, #1
  104548:	2300      	movne	r3, #0
  10454a:	b2db      	uxtb	r3, r3
  10454c:	2b00      	cmp	r3, #0
  10454e:	d002      	beq.n	104556 <NCV78763::setBoosterCurLimPeakVal(BOOST_VLIMTH_T)+0x32>
  104550:	f06f 0301 	mvn.w	r3, #1
  104554:	e022      	b.n	10459c <NCV78763::setBoosterCurLimPeakVal(BOOST_VLIMTH_T)+0x78>
  104556:	f8bd 300a 	ldrh.w	r3, [sp, #10]
  10455a:	f423 73c0 	bic.w	r3, r3, #384	; 0x180
  10455e:	b29b      	uxth	r3, r3
  104560:	f8ad 300a 	strh.w	r3, [sp, #10]
  104564:	f89d 3003 	ldrb.w	r3, [sp, #3]
  104568:	01db      	lsls	r3, r3, #7
  10456a:	b29a      	uxth	r2, r3
  10456c:	f8bd 300a 	ldrh.w	r3, [sp, #10]
  104570:	b29b      	uxth	r3, r3
  104572:	4313      	orrs	r3, r2
  104574:	b29b      	uxth	r3, r3
  104576:	b29b      	uxth	r3, r3
  104578:	f8ad 300a 	strh.w	r3, [sp, #10]
  10457c:	f8bd 300a 	ldrh.w	r3, [sp, #10]
  104580:	461a      	mov	r2, r3
  104582:	2103      	movs	r1, #3
  104584:	9801      	ldr	r0, [sp, #4]
  104586:	f000 f9ed 	bl	104964 <NCV78763::writeCRx(LD_CONTROL_REGx_T, unsigned short)>
  10458a:	9003      	str	r0, [sp, #12]
  10458c:	9b03      	ldr	r3, [sp, #12]
  10458e:	f113 0f02 	cmn.w	r3, #2
  104592:	d102      	bne.n	10459a <NCV78763::setBoosterCurLimPeakVal(BOOST_VLIMTH_T)+0x76>
  104594:	f06f 0301 	mvn.w	r3, #1
  104598:	e000      	b.n	10459c <NCV78763::setBoosterCurLimPeakVal(BOOST_VLIMTH_T)+0x78>
  10459a:	2300      	movs	r3, #0
  10459c:	4618      	mov	r0, r3
  10459e:	b005      	add	sp, #20
  1045a0:	f85d fb04 	ldr.w	pc, [sp], #4

001045a4 <NCV78763::setLEDChannelSampleDur(unsigned short)>:
  1045a4:	b500      	push	{lr}
  1045a6:	b085      	sub	sp, #20
  1045a8:	9001      	str	r0, [sp, #4]
  1045aa:	460b      	mov	r3, r1
  1045ac:	f8ad 3002 	strh.w	r3, [sp, #2]
  1045b0:	f8bd 3002 	ldrh.w	r3, [sp, #2]
  1045b4:	f5b3 7f00 	cmp.w	r3, #512	; 0x200
  1045b8:	d302      	bcc.n	1045c0 <NCV78763::setLEDChannelSampleDur(unsigned short)+0x1c>
  1045ba:	f06f 0302 	mvn.w	r3, #2
  1045be:	e013      	b.n	1045e8 <NCV78763::setLEDChannelSampleDur(unsigned short)+0x44>
  1045c0:	f8bd 3002 	ldrh.w	r3, [sp, #2]
  1045c4:	f8ad 300e 	strh.w	r3, [sp, #14]
  1045c8:	f8bd 300e 	ldrh.w	r3, [sp, #14]
  1045cc:	461a      	mov	r2, r3
  1045ce:	210d      	movs	r1, #13
  1045d0:	9801      	ldr	r0, [sp, #4]
  1045d2:	f000 f9c7 	bl	104964 <NCV78763::writeCRx(LD_CONTROL_REGx_T, unsigned short)>
  1045d6:	9002      	str	r0, [sp, #8]
  1045d8:	9b02      	ldr	r3, [sp, #8]
  1045da:	f113 0f02 	cmn.w	r3, #2
  1045de:	d102      	bne.n	1045e6 <NCV78763::setLEDChannelSampleDur(unsigned short)+0x42>
  1045e0:	f06f 0301 	mvn.w	r3, #1
  1045e4:	e000      	b.n	1045e8 <NCV78763::setLEDChannelSampleDur(unsigned short)+0x44>
  1045e6:	2300      	movs	r3, #0
  1045e8:	4618      	mov	r0, r3
  1045ea:	b005      	add	sp, #20
  1045ec:	f85d fb04 	ldr.w	pc, [sp], #4

001045f0 <NCV78763::buckRegulatorEnable(LEDCHANNEL_T)>:
  1045f0:	b500      	push	{lr}
  1045f2:	b085      	sub	sp, #20
  1045f4:	9001      	str	r0, [sp, #4]
  1045f6:	460b      	mov	r3, r1
  1045f8:	f88d 3003 	strb.w	r3, [sp, #3]
  1045fc:	f89d 3003 	ldrb.w	r3, [sp, #3]
  104600:	2b01      	cmp	r3, #1
  104602:	d002      	beq.n	10460a <NCV78763::buckRegulatorEnable(LEDCHANNEL_T)+0x1a>
  104604:	2b02      	cmp	r3, #2
  104606:	d02a      	beq.n	10465e <NCV78763::buckRegulatorEnable(LEDCHANNEL_T)+0x6e>
  104608:	e053      	b.n	1046b2 <NCV78763::buckRegulatorEnable(LEDCHANNEL_T)+0xc2>
  10460a:	f10d 030a 	add.w	r3, sp, #10
  10460e:	461a      	mov	r2, r3
  104610:	2106      	movs	r1, #6
  104612:	9801      	ldr	r0, [sp, #4]
  104614:	f000 f8c4 	bl	1047a0 <NCV78763::registerRead(LD_CONTROL_REGx_T, unsigned short*)>
  104618:	4603      	mov	r3, r0
  10461a:	f113 0f02 	cmn.w	r3, #2
  10461e:	bf0c      	ite	eq
  104620:	2301      	moveq	r3, #1
  104622:	2300      	movne	r3, #0
  104624:	b2db      	uxtb	r3, r3
  104626:	2b00      	cmp	r3, #0
  104628:	d003      	beq.n	104632 <NCV78763::buckRegulatorEnable(LEDCHANNEL_T)+0x42>
  10462a:	f06f 0301 	mvn.w	r3, #1
  10462e:	9303      	str	r3, [sp, #12]
  104630:	e043      	b.n	1046ba <NCV78763::buckRegulatorEnable(LEDCHANNEL_T)+0xca>
  104632:	f8bd 300a 	ldrh.w	r3, [sp, #10]
  104636:	f043 0302 	orr.w	r3, r3, #2
  10463a:	b29b      	uxth	r3, r3
  10463c:	f8ad 300a 	strh.w	r3, [sp, #10]
  104640:	f8bd 300a 	ldrh.w	r3, [sp, #10]
  104644:	461a      	mov	r2, r3
  104646:	2106      	movs	r1, #6
  104648:	9801      	ldr	r0, [sp, #4]
  10464a:	f000 f98b 	bl	104964 <NCV78763::writeCRx(LD_CONTROL_REGx_T, unsigned short)>
  10464e:	9003      	str	r0, [sp, #12]
  104650:	9b03      	ldr	r3, [sp, #12]
  104652:	f113 0f02 	cmn.w	r3, #2
  104656:	d130      	bne.n	1046ba <NCV78763::buckRegulatorEnable(LEDCHANNEL_T)+0xca>
  104658:	f06f 0301 	mvn.w	r3, #1
  10465c:	e031      	b.n	1046c2 <NCV78763::buckRegulatorEnable(LEDCHANNEL_T)+0xd2>
  10465e:	f10d 030a 	add.w	r3, sp, #10
  104662:	461a      	mov	r2, r3
  104664:	2106      	movs	r1, #6
  104666:	9801      	ldr	r0, [sp, #4]
  104668:	f000 f89a 	bl	1047a0 <NCV78763::registerRead(LD_CONTROL_REGx_T, unsigned short*)>
  10466c:	4603      	mov	r3, r0
  10466e:	f113 0f02 	cmn.w	r3, #2
  104672:	bf0c      	ite	eq
  104674:	2301      	moveq	r3, #1
  104676:	2300      	movne	r3, #0
  104678:	b2db      	uxtb	r3, r3
  10467a:	2b00      	cmp	r3, #0
  10467c:	d003      	beq.n	104686 <NCV78763::buckRegulatorEnable(LEDCHANNEL_T)+0x96>
  10467e:	f06f 0301 	mvn.w	r3, #1
  104682:	9303      	str	r3, [sp, #12]
  104684:	e01b      	b.n	1046be <NCV78763::buckRegulatorEnable(LEDCHANNEL_T)+0xce>
  104686:	f8bd 300a 	ldrh.w	r3, [sp, #10]
  10468a:	f043 0301 	orr.w	r3, r3, #1
  10468e:	b29b      	uxth	r3, r3
  104690:	f8ad 300a 	strh.w	r3, [sp, #10]
  104694:	f8bd 300a 	ldrh.w	r3, [sp, #10]
  104698:	461a      	mov	r2, r3
  10469a:	2106      	movs	r1, #6
  10469c:	9801      	ldr	r0, [sp, #4]
  10469e:	f000 f961 	bl	104964 <NCV78763::writeCRx(LD_CONTROL_REGx_T, unsigned short)>
  1046a2:	9003      	str	r0, [sp, #12]
  1046a4:	9b03      	ldr	r3, [sp, #12]
  1046a6:	f113 0f02 	cmn.w	r3, #2
  1046aa:	d108      	bne.n	1046be <NCV78763::buckRegulatorEnable(LEDCHANNEL_T)+0xce>
  1046ac:	f06f 0301 	mvn.w	r3, #1
  1046b0:	e007      	b.n	1046c2 <NCV78763::buckRegulatorEnable(LEDCHANNEL_T)+0xd2>
  1046b2:	f06f 0301 	mvn.w	r3, #1
  1046b6:	9303      	str	r3, [sp, #12]
  1046b8:	e002      	b.n	1046c0 <NCV78763::buckRegulatorEnable(LEDCHANNEL_T)+0xd0>
  1046ba:	bf00      	nop
  1046bc:	e000      	b.n	1046c0 <NCV78763::buckRegulatorEnable(LEDCHANNEL_T)+0xd0>
  1046be:	bf00      	nop
  1046c0:	2300      	movs	r3, #0
  1046c2:	4618      	mov	r0, r3
  1046c4:	b005      	add	sp, #20
  1046c6:	f85d fb04 	ldr.w	pc, [sp], #4
  1046ca:	bf00      	nop

001046cc <NCV78763::buckRegulatorDisable(LEDCHANNEL_T)>:
  1046cc:	b500      	push	{lr}
  1046ce:	b085      	sub	sp, #20
  1046d0:	9001      	str	r0, [sp, #4]
  1046d2:	460b      	mov	r3, r1
  1046d4:	f88d 3003 	strb.w	r3, [sp, #3]
  1046d8:	f89d 3003 	ldrb.w	r3, [sp, #3]
  1046dc:	2b01      	cmp	r3, #1
  1046de:	d002      	beq.n	1046e6 <NCV78763::buckRegulatorDisable(LEDCHANNEL_T)+0x1a>
  1046e0:	2b02      	cmp	r3, #2
  1046e2:	d02a      	beq.n	10473a <NCV78763::buckRegulatorDisable(LEDCHANNEL_T)+0x6e>
  1046e4:	e056      	b.n	104794 <NCV78763::buckRegulatorDisable(LEDCHANNEL_T)+0xc8>
  1046e6:	f10d 030a 	add.w	r3, sp, #10
  1046ea:	461a      	mov	r2, r3
  1046ec:	2106      	movs	r1, #6
  1046ee:	9801      	ldr	r0, [sp, #4]
  1046f0:	f000 f856 	bl	1047a0 <NCV78763::registerRead(LD_CONTROL_REGx_T, unsigned short*)>
  1046f4:	4603      	mov	r3, r0
  1046f6:	f113 0f02 	cmn.w	r3, #2
  1046fa:	bf0c      	ite	eq
  1046fc:	2301      	moveq	r3, #1
  1046fe:	2300      	movne	r3, #0
  104700:	b2db      	uxtb	r3, r3
  104702:	2b00      	cmp	r3, #0
  104704:	d003      	beq.n	10470e <NCV78763::buckRegulatorDisable(LEDCHANNEL_T)+0x42>
  104706:	f06f 0301 	mvn.w	r3, #1
  10470a:	9303      	str	r3, [sp, #12]
  10470c:	e03f      	b.n	10478e <NCV78763::buckRegulatorDisable(LEDCHANNEL_T)+0xc2>
  10470e:	f8bd 300a 	ldrh.w	r3, [sp, #10]
  104712:	f023 0302 	bic.w	r3, r3, #2
  104716:	b29b      	uxth	r3, r3
  104718:	f8ad 300a 	strh.w	r3, [sp, #10]
  10471c:	f8bd 300a 	ldrh.w	r3, [sp, #10]
  104720:	461a      	mov	r2, r3
  104722:	2106      	movs	r1, #6
  104724:	9801      	ldr	r0, [sp, #4]
  104726:	f000 f91d 	bl	104964 <NCV78763::writeCRx(LD_CONTROL_REGx_T, unsigned short)>
  10472a:	9003      	str	r0, [sp, #12]
  10472c:	9b03      	ldr	r3, [sp, #12]
  10472e:	f113 0f02 	cmn.w	r3, #2
  104732:	d12c      	bne.n	10478e <NCV78763::buckRegulatorDisable(LEDCHANNEL_T)+0xc2>
  104734:	f06f 0301 	mvn.w	r3, #1
  104738:	e02d      	b.n	104796 <NCV78763::buckRegulatorDisable(LEDCHANNEL_T)+0xca>
  10473a:	f10d 030a 	add.w	r3, sp, #10
  10473e:	461a      	mov	r2, r3
  104740:	2106      	movs	r1, #6
  104742:	9801      	ldr	r0, [sp, #4]
  104744:	f000 f82c 	bl	1047a0 <NCV78763::registerRead(LD_CONTROL_REGx_T, unsigned short*)>
  104748:	4603      	mov	r3, r0
  10474a:	f113 0f02 	cmn.w	r3, #2
  10474e:	bf0c      	ite	eq
  104750:	2301      	moveq	r3, #1
  104752:	2300      	movne	r3, #0
  104754:	b2db      	uxtb	r3, r3
  104756:	2b00      	cmp	r3, #0
  104758:	d003      	beq.n	104762 <NCV78763::buckRegulatorDisable(LEDCHANNEL_T)+0x96>
  10475a:	f06f 0301 	mvn.w	r3, #1
  10475e:	9303      	str	r3, [sp, #12]
  104760:	e017      	b.n	104792 <NCV78763::buckRegulatorDisable(LEDCHANNEL_T)+0xc6>
  104762:	f8bd 300a 	ldrh.w	r3, [sp, #10]
  104766:	f023 0301 	bic.w	r3, r3, #1
  10476a:	b29b      	uxth	r3, r3
  10476c:	f8ad 300a 	strh.w	r3, [sp, #10]
  104770:	f8bd 300a 	ldrh.w	r3, [sp, #10]
  104774:	461a      	mov	r2, r3
  104776:	2106      	movs	r1, #6
  104778:	9801      	ldr	r0, [sp, #4]
  10477a:	f000 f8f3 	bl	104964 <NCV78763::writeCRx(LD_CONTROL_REGx_T, unsigned short)>
  10477e:	9003      	str	r0, [sp, #12]
  104780:	9b03      	ldr	r3, [sp, #12]
  104782:	f113 0f02 	cmn.w	r3, #2
  104786:	d104      	bne.n	104792 <NCV78763::buckRegulatorDisable(LEDCHANNEL_T)+0xc6>
  104788:	f06f 0301 	mvn.w	r3, #1
  10478c:	e003      	b.n	104796 <NCV78763::buckRegulatorDisable(LEDCHANNEL_T)+0xca>
  10478e:	bf00      	nop
  104790:	e000      	b.n	104794 <NCV78763::buckRegulatorDisable(LEDCHANNEL_T)+0xc8>
  104792:	bf00      	nop
  104794:	2300      	movs	r3, #0
  104796:	4618      	mov	r0, r3
  104798:	b005      	add	sp, #20
  10479a:	f85d fb04 	ldr.w	pc, [sp], #4
  10479e:	bf00      	nop

001047a0 <NCV78763::registerRead(LD_CONTROL_REGx_T, unsigned short*)>:
  1047a0:	b500      	push	{lr}
  1047a2:	b087      	sub	sp, #28
  1047a4:	9003      	str	r0, [sp, #12]
  1047a6:	460b      	mov	r3, r1
  1047a8:	9201      	str	r2, [sp, #4]
  1047aa:	f88d 300b 	strb.w	r3, [sp, #11]
  1047ae:	f89d 300b 	ldrb.w	r3, [sp, #11]
  1047b2:	9a01      	ldr	r2, [sp, #4]
  1047b4:	4619      	mov	r1, r3
  1047b6:	9803      	ldr	r0, [sp, #12]
  1047b8:	f000 f82e 	bl	104818 <NCV78763::registerRead(unsigned char, unsigned short*)>
  1047bc:	9005      	str	r0, [sp, #20]
  1047be:	9b05      	ldr	r3, [sp, #20]
  1047c0:	4618      	mov	r0, r3
  1047c2:	b007      	add	sp, #28
  1047c4:	f85d fb04 	ldr.w	pc, [sp], #4

001047c8 <NCV78763::registerRead(LD_STATUS_REGx_T, unsigned short*)>:
  1047c8:	b500      	push	{lr}
  1047ca:	b087      	sub	sp, #28
  1047cc:	9003      	str	r0, [sp, #12]
  1047ce:	460b      	mov	r3, r1
  1047d0:	9201      	str	r2, [sp, #4]
  1047d2:	f88d 300b 	strb.w	r3, [sp, #11]
  1047d6:	f89d 300b 	ldrb.w	r3, [sp, #11]
  1047da:	9a01      	ldr	r2, [sp, #4]
  1047dc:	4619      	mov	r1, r3
  1047de:	9803      	ldr	r0, [sp, #12]
  1047e0:	f000 f81a 	bl	104818 <NCV78763::registerRead(unsigned char, unsigned short*)>
  1047e4:	9005      	str	r0, [sp, #20]
  1047e6:	9b05      	ldr	r3, [sp, #20]
  1047e8:	4618      	mov	r0, r3
  1047ea:	b007      	add	sp, #28
  1047ec:	f85d fb04 	ldr.w	pc, [sp], #4

001047f0 <NCV78763::registerRead(LD_REVISION_ID_REG_x, unsigned short*)>:
  1047f0:	b500      	push	{lr}
  1047f2:	b087      	sub	sp, #28
  1047f4:	9003      	str	r0, [sp, #12]
  1047f6:	460b      	mov	r3, r1
  1047f8:	9201      	str	r2, [sp, #4]
  1047fa:	f88d 300b 	strb.w	r3, [sp, #11]
  1047fe:	f89d 300b 	ldrb.w	r3, [sp, #11]
  104802:	9a01      	ldr	r2, [sp, #4]
  104804:	4619      	mov	r1, r3
  104806:	9803      	ldr	r0, [sp, #12]
  104808:	f000 f806 	bl	104818 <NCV78763::registerRead(unsigned char, unsigned short*)>
  10480c:	9005      	str	r0, [sp, #20]
  10480e:	9b05      	ldr	r3, [sp, #20]
  104810:	4618      	mov	r0, r3
  104812:	b007      	add	sp, #28
  104814:	f85d fb04 	ldr.w	pc, [sp], #4

00104818 <NCV78763::registerRead(unsigned char, unsigned short*)>:
  104818:	b500      	push	{lr}
  10481a:	b087      	sub	sp, #28
  10481c:	9003      	str	r0, [sp, #12]
  10481e:	460b      	mov	r3, r1
  104820:	9201      	str	r2, [sp, #4]
  104822:	f88d 300b 	strb.w	r3, [sp, #11]
  104826:	2300      	movs	r3, #0
  104828:	f8ad 3016 	strh.w	r3, [sp, #22]
  10482c:	2300      	movs	r3, #0
  10482e:	f8ad 3014 	strh.w	r3, [sp, #20]
  104832:	9b01      	ldr	r3, [sp, #4]
  104834:	2b00      	cmp	r3, #0
  104836:	d102      	bne.n	10483e <NCV78763::registerRead(unsigned char, unsigned short*)+0x26>
  104838:	f06f 0302 	mvn.w	r3, #2
  10483c:	e08b      	b.n	104956 <NCV78763::registerRead(unsigned char, unsigned short*)+0x13e>
  10483e:	f04f 31ff 	mov.w	r1, #4294967295
  104842:	4847      	ldr	r0, [pc, #284]	; (104960 <NCV78763::registerRead(unsigned char, unsigned short*)+0x148>)
  104844:	f012 fdfe 	bl	117444 <rtos::Mutex::lock(unsigned long)>
  104848:	9803      	ldr	r0, [sp, #12]
  10484a:	f000 fa15 	bl	104c78 <NCV78763::setSpiParams()>
  10484e:	9803      	ldr	r0, [sp, #12]
  104850:	f000 f962 	bl	104b18 <NCV78763::i2cCsEnable()>
  104854:	f89d 300b 	ldrb.w	r3, [sp, #11]
  104858:	029b      	lsls	r3, r3, #10
  10485a:	b29a      	uxth	r2, r3
  10485c:	f8bd 3016 	ldrh.w	r3, [sp, #22]
  104860:	4313      	orrs	r3, r2
  104862:	b29b      	uxth	r3, r3
  104864:	f8ad 3016 	strh.w	r3, [sp, #22]
  104868:	f8bd 2016 	ldrh.w	r2, [sp, #22]
  10486c:	f8bd 3014 	ldrh.w	r3, [sp, #20]
  104870:	4313      	orrs	r3, r2
  104872:	f8ad 3016 	strh.w	r3, [sp, #22]
  104876:	f8bd 3016 	ldrh.w	r3, [sp, #22]
  10487a:	4619      	mov	r1, r3
  10487c:	9803      	ldr	r0, [sp, #12]
  10487e:	f000 f987 	bl	104b90 <NCV78763::calcOddParity(unsigned short)>
  104882:	4603      	mov	r3, r0
  104884:	f88d 3013 	strb.w	r3, [sp, #19]
  104888:	f89d 3013 	ldrb.w	r3, [sp, #19]
  10488c:	025b      	lsls	r3, r3, #9
  10488e:	b29a      	uxth	r2, r3
  104890:	f8bd 3016 	ldrh.w	r3, [sp, #22]
  104894:	4313      	orrs	r3, r2
  104896:	b29b      	uxth	r3, r3
  104898:	f8ad 3016 	strh.w	r3, [sp, #22]
  10489c:	9b03      	ldr	r3, [sp, #12]
  10489e:	f8bd 2016 	ldrh.w	r2, [sp, #22]
  1048a2:	4611      	mov	r1, r2
  1048a4:	4618      	mov	r0, r3
  1048a6:	f017 f925 	bl	11baf4 <mbed::SPI::write(int)>
  1048aa:	4603      	mov	r3, r0
  1048ac:	f8ad 3010 	strh.w	r3, [sp, #16]
  1048b0:	9b01      	ldr	r3, [sp, #4]
  1048b2:	f8bd 2010 	ldrh.w	r2, [sp, #16]
  1048b6:	801a      	strh	r2, [r3, #0]
  1048b8:	9803      	ldr	r0, [sp, #12]
  1048ba:	f000 f951 	bl	104b60 <NCV78763::i2cCsDisable()>
  1048be:	9803      	ldr	r0, [sp, #12]
  1048c0:	f000 f92a 	bl	104b18 <NCV78763::i2cCsEnable()>
  1048c4:	2300      	movs	r3, #0
  1048c6:	f8ad 3016 	strh.w	r3, [sp, #22]
  1048ca:	2300      	movs	r3, #0
  1048cc:	f8ad 3014 	strh.w	r3, [sp, #20]
  1048d0:	f8bd 3016 	ldrh.w	r3, [sp, #22]
  1048d4:	f443 43c0 	orr.w	r3, r3, #24576	; 0x6000
  1048d8:	f8ad 3016 	strh.w	r3, [sp, #22]
  1048dc:	f8bd 2016 	ldrh.w	r2, [sp, #22]
  1048e0:	f8bd 3014 	ldrh.w	r3, [sp, #20]
  1048e4:	4313      	orrs	r3, r2
  1048e6:	f8ad 3016 	strh.w	r3, [sp, #22]
  1048ea:	f8bd 3016 	ldrh.w	r3, [sp, #22]
  1048ee:	4619      	mov	r1, r3
  1048f0:	9803      	ldr	r0, [sp, #12]
  1048f2:	f000 f94d 	bl	104b90 <NCV78763::calcOddParity(unsigned short)>
  1048f6:	4603      	mov	r3, r0
  1048f8:	f88d 3013 	strb.w	r3, [sp, #19]
  1048fc:	f89d 3013 	ldrb.w	r3, [sp, #19]
  104900:	025b      	lsls	r3, r3, #9
  104902:	b29a      	uxth	r2, r3
  104904:	f8bd 3016 	ldrh.w	r3, [sp, #22]
  104908:	4313      	orrs	r3, r2
  10490a:	b29b      	uxth	r3, r3
  10490c:	f8ad 3016 	strh.w	r3, [sp, #22]
  104910:	9b03      	ldr	r3, [sp, #12]
  104912:	f8bd 2016 	ldrh.w	r2, [sp, #22]
  104916:	4611      	mov	r1, r2
  104918:	4618      	mov	r0, r3
  10491a:	f017 f8eb 	bl	11baf4 <mbed::SPI::write(int)>
  10491e:	4603      	mov	r3, r0
  104920:	f8ad 3010 	strh.w	r3, [sp, #16]
  104924:	9803      	ldr	r0, [sp, #12]
  104926:	f000 f91b 	bl	104b60 <NCV78763::i2cCsDisable()>
  10492a:	9803      	ldr	r0, [sp, #12]
  10492c:	f000 f9b8 	bl	104ca0 <NCV78763::resetSpiParams()>
  104930:	480b      	ldr	r0, [pc, #44]	; (104960 <NCV78763::registerRead(unsigned char, unsigned short*)+0x148>)
  104932:	f012 fd97 	bl	117464 <rtos::Mutex::unlock()>
  104936:	f8bd 3010 	ldrh.w	r3, [sp, #16]
  10493a:	b21b      	sxth	r3, r3
  10493c:	2b00      	cmp	r3, #0
  10493e:	da02      	bge.n	104946 <NCV78763::registerRead(unsigned char, unsigned short*)+0x12e>
  104940:	f06f 0301 	mvn.w	r3, #1
  104944:	e007      	b.n	104956 <NCV78763::registerRead(unsigned char, unsigned short*)+0x13e>
  104946:	9b01      	ldr	r3, [sp, #4]
  104948:	881b      	ldrh	r3, [r3, #0]
  10494a:	f3c3 0309 	ubfx	r3, r3, #0, #10
  10494e:	b29a      	uxth	r2, r3
  104950:	9b01      	ldr	r3, [sp, #4]
  104952:	801a      	strh	r2, [r3, #0]
  104954:	2300      	movs	r3, #0
  104956:	4618      	mov	r0, r3
  104958:	b007      	add	sp, #28
  10495a:	f85d fb04 	ldr.w	pc, [sp], #4
  10495e:	bf00      	nop
  104960:	3fff45a4 	.word	0x3fff45a4

00104964 <NCV78763::writeCRx(LD_CONTROL_REGx_T, unsigned short)>:
  104964:	b500      	push	{lr}
  104966:	b085      	sub	sp, #20
  104968:	9001      	str	r0, [sp, #4]
  10496a:	460b      	mov	r3, r1
  10496c:	f88d 3003 	strb.w	r3, [sp, #3]
  104970:	4613      	mov	r3, r2
  104972:	f8ad 3000 	strh.w	r3, [sp]
  104976:	2300      	movs	r3, #0
  104978:	f8ad 300e 	strh.w	r3, [sp, #14]
  10497c:	f04f 31ff 	mov.w	r1, #4294967295
  104980:	4847      	ldr	r0, [pc, #284]	; (104aa0 <NCV78763::writeCRx(LD_CONTROL_REGx_T, unsigned short)+0x13c>)
  104982:	f012 fd5f 	bl	117444 <rtos::Mutex::lock(unsigned long)>
  104986:	9801      	ldr	r0, [sp, #4]
  104988:	f000 f976 	bl	104c78 <NCV78763::setSpiParams()>
  10498c:	9801      	ldr	r0, [sp, #4]
  10498e:	f000 f8e7 	bl	104b60 <NCV78763::i2cCsDisable()>
  104992:	9801      	ldr	r0, [sp, #4]
  104994:	f000 f8c0 	bl	104b18 <NCV78763::i2cCsEnable()>
  104998:	f8bd 300e 	ldrh.w	r3, [sp, #14]
  10499c:	ea6f 4343 	mvn.w	r3, r3, lsl #17
  1049a0:	ea6f 4353 	mvn.w	r3, r3, lsr #17
  1049a4:	f8ad 300e 	strh.w	r3, [sp, #14]
  1049a8:	f89d 3003 	ldrb.w	r3, [sp, #3]
  1049ac:	02db      	lsls	r3, r3, #11
  1049ae:	b29a      	uxth	r2, r3
  1049b0:	f8bd 300e 	ldrh.w	r3, [sp, #14]
  1049b4:	4313      	orrs	r3, r2
  1049b6:	b29b      	uxth	r3, r3
  1049b8:	f8ad 300e 	strh.w	r3, [sp, #14]
  1049bc:	f8bd 200e 	ldrh.w	r2, [sp, #14]
  1049c0:	f8bd 3000 	ldrh.w	r3, [sp]
  1049c4:	4313      	orrs	r3, r2
  1049c6:	f8ad 300e 	strh.w	r3, [sp, #14]
  1049ca:	f8bd 300e 	ldrh.w	r3, [sp, #14]
  1049ce:	4619      	mov	r1, r3
  1049d0:	9801      	ldr	r0, [sp, #4]
  1049d2:	f000 f8dd 	bl	104b90 <NCV78763::calcOddParity(unsigned short)>
  1049d6:	4603      	mov	r3, r0
  1049d8:	f88d 300d 	strb.w	r3, [sp, #13]
  1049dc:	f89d 300d 	ldrb.w	r3, [sp, #13]
  1049e0:	029b      	lsls	r3, r3, #10
  1049e2:	b29a      	uxth	r2, r3
  1049e4:	f8bd 300e 	ldrh.w	r3, [sp, #14]
  1049e8:	4313      	orrs	r3, r2
  1049ea:	b29b      	uxth	r3, r3
  1049ec:	f8ad 300e 	strh.w	r3, [sp, #14]
  1049f0:	9b01      	ldr	r3, [sp, #4]
  1049f2:	f8bd 200e 	ldrh.w	r2, [sp, #14]
  1049f6:	4611      	mov	r1, r2
  1049f8:	4618      	mov	r0, r3
  1049fa:	f017 f87b 	bl	11baf4 <mbed::SPI::write(int)>
  1049fe:	4603      	mov	r3, r0
  104a00:	f8ad 300a 	strh.w	r3, [sp, #10]
  104a04:	9801      	ldr	r0, [sp, #4]
  104a06:	f000 f8ab 	bl	104b60 <NCV78763::i2cCsDisable()>
  104a0a:	9801      	ldr	r0, [sp, #4]
  104a0c:	f000 f884 	bl	104b18 <NCV78763::i2cCsEnable()>
  104a10:	2300      	movs	r3, #0
  104a12:	f8ad 3000 	strh.w	r3, [sp]
  104a16:	2300      	movs	r3, #0
  104a18:	f8ad 300e 	strh.w	r3, [sp, #14]
  104a1c:	f8bd 300e 	ldrh.w	r3, [sp, #14]
  104a20:	ea6f 4343 	mvn.w	r3, r3, lsl #17
  104a24:	ea6f 4353 	mvn.w	r3, r3, lsr #17
  104a28:	f8ad 300e 	strh.w	r3, [sp, #14]
  104a2c:	f8bd 200e 	ldrh.w	r2, [sp, #14]
  104a30:	f8bd 3000 	ldrh.w	r3, [sp]
  104a34:	4313      	orrs	r3, r2
  104a36:	f8ad 300e 	strh.w	r3, [sp, #14]
  104a3a:	f8bd 300e 	ldrh.w	r3, [sp, #14]
  104a3e:	4619      	mov	r1, r3
  104a40:	9801      	ldr	r0, [sp, #4]
  104a42:	f000 f8a5 	bl	104b90 <NCV78763::calcOddParity(unsigned short)>
  104a46:	4603      	mov	r3, r0
  104a48:	f88d 300d 	strb.w	r3, [sp, #13]
  104a4c:	f89d 300d 	ldrb.w	r3, [sp, #13]
  104a50:	025b      	lsls	r3, r3, #9
  104a52:	b29a      	uxth	r2, r3
  104a54:	f8bd 300e 	ldrh.w	r3, [sp, #14]
  104a58:	4313      	orrs	r3, r2
  104a5a:	b29b      	uxth	r3, r3
  104a5c:	f8ad 300e 	strh.w	r3, [sp, #14]
  104a60:	9b01      	ldr	r3, [sp, #4]
  104a62:	f8bd 200e 	ldrh.w	r2, [sp, #14]
  104a66:	4611      	mov	r1, r2
  104a68:	4618      	mov	r0, r3
  104a6a:	f017 f843 	bl	11baf4 <mbed::SPI::write(int)>
  104a6e:	4603      	mov	r3, r0
  104a70:	f8ad 300a 	strh.w	r3, [sp, #10]
  104a74:	9801      	ldr	r0, [sp, #4]
  104a76:	f000 f873 	bl	104b60 <NCV78763::i2cCsDisable()>
  104a7a:	9801      	ldr	r0, [sp, #4]
  104a7c:	f000 f910 	bl	104ca0 <NCV78763::resetSpiParams()>
  104a80:	4807      	ldr	r0, [pc, #28]	; (104aa0 <NCV78763::writeCRx(LD_CONTROL_REGx_T, unsigned short)+0x13c>)
  104a82:	f012 fcef 	bl	117464 <rtos::Mutex::unlock()>
  104a86:	f8bd 300a 	ldrh.w	r3, [sp, #10]
  104a8a:	b21b      	sxth	r3, r3
  104a8c:	2b00      	cmp	r3, #0
  104a8e:	da02      	bge.n	104a96 <NCV78763::writeCRx(LD_CONTROL_REGx_T, unsigned short)+0x132>
  104a90:	f06f 0301 	mvn.w	r3, #1
  104a94:	e000      	b.n	104a98 <NCV78763::writeCRx(LD_CONTROL_REGx_T, unsigned short)+0x134>
  104a96:	2300      	movs	r3, #0
  104a98:	4618      	mov	r0, r3
  104a9a:	b005      	add	sp, #20
  104a9c:	f85d fb04 	ldr.w	pc, [sp], #4
  104aa0:	3fff45a4 	.word	0x3fff45a4

00104aa4 <NCV78763::initializeGpioExpPins()>:
  104aa4:	b500      	push	{lr}
  104aa6:	b083      	sub	sp, #12
  104aa8:	9001      	str	r0, [sp, #4]
  104aaa:	9b01      	ldr	r3, [sp, #4]
  104aac:	3314      	adds	r3, #20
  104aae:	4919      	ldr	r1, [pc, #100]	; (104b14 <NCV78763::initializeGpioExpPins()+0x70>)
  104ab0:	4618      	mov	r0, r3
  104ab2:	f003 fb83 	bl	1081bc <PCA9655E::frequency(int)>
  104ab6:	9b01      	ldr	r3, [sp, #4]
  104ab8:	f103 0014 	add.w	r0, r3, #20
  104abc:	2300      	movs	r3, #0
  104abe:	2200      	movs	r2, #0
  104ac0:	2101      	movs	r1, #1
  104ac2:	f003 fc2f 	bl	108324 <PCA9655E::setDirection(Port, signed char, Direction)>
  104ac6:	9b01      	ldr	r3, [sp, #4]
  104ac8:	f103 0014 	add.w	r0, r3, #20
  104acc:	2300      	movs	r3, #0
  104ace:	2201      	movs	r2, #1
  104ad0:	2101      	movs	r1, #1
  104ad2:	f003 fc27 	bl	108324 <PCA9655E::setDirection(Port, signed char, Direction)>
  104ad6:	9b01      	ldr	r3, [sp, #4]
  104ad8:	f103 0014 	add.w	r0, r3, #20
  104adc:	2300      	movs	r3, #0
  104ade:	2202      	movs	r2, #2
  104ae0:	2101      	movs	r1, #1
  104ae2:	f003 fc1f 	bl	108324 <PCA9655E::setDirection(Port, signed char, Direction)>
  104ae6:	9b01      	ldr	r3, [sp, #4]
  104ae8:	f103 0014 	add.w	r0, r3, #20
  104aec:	2301      	movs	r3, #1
  104aee:	2201      	movs	r2, #1
  104af0:	2101      	movs	r1, #1
  104af2:	f003 fbaf 	bl	108254 <PCA9655E::setValue(Port, signed char, SetVal)>
  104af6:	9b01      	ldr	r3, [sp, #4]
  104af8:	f103 0014 	add.w	r0, r3, #20
  104afc:	2301      	movs	r3, #1
  104afe:	2202      	movs	r2, #2
  104b00:	2101      	movs	r1, #1
  104b02:	f003 fba7 	bl	108254 <PCA9655E::setValue(Port, signed char, SetVal)>
  104b06:	2014      	movs	r0, #20
  104b08:	f014 fe08 	bl	11971c <wait_us>
  104b0c:	bf00      	nop
  104b0e:	b003      	add	sp, #12
  104b10:	f85d fb04 	ldr.w	pc, [sp], #4
  104b14:	000f4240 	.word	0x000f4240

00104b18 <NCV78763::i2cCsEnable()>:
  104b18:	b500      	push	{lr}
  104b1a:	b083      	sub	sp, #12
  104b1c:	9001      	str	r0, [sp, #4]
  104b1e:	9b01      	ldr	r3, [sp, #4]
  104b20:	f103 0014 	add.w	r0, r3, #20
  104b24:	2301      	movs	r3, #1
  104b26:	2200      	movs	r2, #0
  104b28:	2101      	movs	r1, #1
  104b2a:	f003 fb93 	bl	108254 <PCA9655E::setValue(Port, signed char, SetVal)>
  104b2e:	2014      	movs	r0, #20
  104b30:	f014 fdf4 	bl	11971c <wait_us>
  104b34:	2007      	movs	r0, #7
  104b36:	f014 fdf1 	bl	11971c <wait_us>
  104b3a:	9b01      	ldr	r3, [sp, #4]
  104b3c:	f103 0014 	add.w	r0, r3, #20
  104b40:	2300      	movs	r3, #0
  104b42:	2200      	movs	r2, #0
  104b44:	2101      	movs	r1, #1
  104b46:	f003 fb85 	bl	108254 <PCA9655E::setValue(Port, signed char, SetVal)>
  104b4a:	2014      	movs	r0, #20
  104b4c:	f014 fde6 	bl	11971c <wait_us>
  104b50:	2007      	movs	r0, #7
  104b52:	f014 fde3 	bl	11971c <wait_us>
  104b56:	bf00      	nop
  104b58:	b003      	add	sp, #12
  104b5a:	f85d fb04 	ldr.w	pc, [sp], #4
  104b5e:	bf00      	nop

00104b60 <NCV78763::i2cCsDisable()>:
  104b60:	b500      	push	{lr}
  104b62:	b083      	sub	sp, #12
  104b64:	9001      	str	r0, [sp, #4]
  104b66:	2007      	movs	r0, #7
  104b68:	f014 fdd8 	bl	11971c <wait_us>
  104b6c:	9b01      	ldr	r3, [sp, #4]
  104b6e:	f103 0014 	add.w	r0, r3, #20
  104b72:	2301      	movs	r3, #1
  104b74:	2200      	movs	r2, #0
  104b76:	2101      	movs	r1, #1
  104b78:	f003 fb6c 	bl	108254 <PCA9655E::setValue(Port, signed char, SetVal)>
  104b7c:	2014      	movs	r0, #20
  104b7e:	f014 fdcd 	bl	11971c <wait_us>
  104b82:	2007      	movs	r0, #7
  104b84:	f014 fdca 	bl	11971c <wait_us>
  104b88:	bf00      	nop
  104b8a:	b003      	add	sp, #12
  104b8c:	f85d fb04 	ldr.w	pc, [sp], #4

00104b90 <NCV78763::calcOddParity(unsigned short)>:
  104b90:	b086      	sub	sp, #24
  104b92:	9001      	str	r0, [sp, #4]
  104b94:	460b      	mov	r3, r1
  104b96:	f8ad 3002 	strh.w	r3, [sp, #2]
  104b9a:	2300      	movs	r3, #0
  104b9c:	f88d 3015 	strb.w	r3, [sp, #21]
  104ba0:	2300      	movs	r3, #0
  104ba2:	9304      	str	r3, [sp, #16]
  104ba4:	f8bd 3002 	ldrh.w	r3, [sp, #2]
  104ba8:	f8ad 3016 	strh.w	r3, [sp, #22]
  104bac:	2300      	movs	r3, #0
  104bae:	9304      	str	r3, [sp, #16]
  104bb0:	9b04      	ldr	r3, [sp, #16]
  104bb2:	2b0f      	cmp	r3, #15
  104bb4:	bfcc      	ite	gt
  104bb6:	2301      	movgt	r3, #1
  104bb8:	2300      	movle	r3, #0
  104bba:	b2da      	uxtb	r2, r3
  104bbc:	f8bd 3016 	ldrh.w	r3, [sp, #22]
  104bc0:	2b00      	cmp	r3, #0
  104bc2:	bf0c      	ite	eq
  104bc4:	2301      	moveq	r3, #1
  104bc6:	2300      	movne	r3, #0
  104bc8:	b2db      	uxtb	r3, r3
  104bca:	4313      	orrs	r3, r2
  104bcc:	b2db      	uxtb	r3, r3
  104bce:	2b00      	cmp	r3, #0
  104bd0:	d114      	bne.n	104bfc <NCV78763::calcOddParity(unsigned short)+0x6c>
  104bd2:	f8bd 3016 	ldrh.w	r3, [sp, #22]
  104bd6:	b2db      	uxtb	r3, r3
  104bd8:	f003 0301 	and.w	r3, r3, #1
  104bdc:	b2da      	uxtb	r2, r3
  104bde:	f89d 3015 	ldrb.w	r3, [sp, #21]
  104be2:	4053      	eors	r3, r2
  104be4:	b2db      	uxtb	r3, r3
  104be6:	f88d 3015 	strb.w	r3, [sp, #21]
  104bea:	f8bd 3016 	ldrh.w	r3, [sp, #22]
  104bee:	105b      	asrs	r3, r3, #1
  104bf0:	f8ad 3016 	strh.w	r3, [sp, #22]
  104bf4:	9b04      	ldr	r3, [sp, #16]
  104bf6:	3301      	adds	r3, #1
  104bf8:	9304      	str	r3, [sp, #16]
  104bfa:	e7d9      	b.n	104bb0 <NCV78763::calcOddParity(unsigned short)+0x20>
  104bfc:	f89d 3015 	ldrb.w	r3, [sp, #21]
  104c00:	2b00      	cmp	r3, #0
  104c02:	bf0c      	ite	eq
  104c04:	2301      	moveq	r3, #1
  104c06:	2300      	movne	r3, #0
  104c08:	b2db      	uxtb	r3, r3
  104c0a:	f88d 300f 	strb.w	r3, [sp, #15]
  104c0e:	f89d 300f 	ldrb.w	r3, [sp, #15]
  104c12:	2b00      	cmp	r3, #0
  104c14:	d001      	beq.n	104c1a <NCV78763::calcOddParity(unsigned short)+0x8a>
  104c16:	2301      	movs	r3, #1
  104c18:	e000      	b.n	104c1c <NCV78763::calcOddParity(unsigned short)+0x8c>
  104c1a:	2300      	movs	r3, #0
  104c1c:	4618      	mov	r0, r3
  104c1e:	b006      	add	sp, #24
  104c20:	4770      	bx	lr
  104c22:	bf00      	nop

00104c24 <NCV78763::deviceRecognize()>:
  104c24:	b500      	push	{lr}
  104c26:	b085      	sub	sp, #20
  104c28:	9001      	str	r0, [sp, #4]
  104c2a:	2300      	movs	r3, #0
  104c2c:	9303      	str	r3, [sp, #12]
  104c2e:	f10d 030a 	add.w	r3, sp, #10
  104c32:	461a      	mov	r2, r3
  104c34:	211a      	movs	r1, #26
  104c36:	9801      	ldr	r0, [sp, #4]
  104c38:	f7ff fdda 	bl	1047f0 <NCV78763::registerRead(LD_REVISION_ID_REG_x, unsigned short*)>
  104c3c:	4603      	mov	r3, r0
  104c3e:	f113 0f02 	cmn.w	r3, #2
  104c42:	bf0c      	ite	eq
  104c44:	2301      	moveq	r3, #1
  104c46:	2300      	movne	r3, #0
  104c48:	b2db      	uxtb	r3, r3
  104c4a:	2b00      	cmp	r3, #0
  104c4c:	d002      	beq.n	104c54 <NCV78763::deviceRecognize()+0x30>
  104c4e:	f06f 0301 	mvn.w	r3, #1
  104c52:	e00d      	b.n	104c70 <NCV78763::deviceRecognize()+0x4c>
  104c54:	f8bd 300a 	ldrh.w	r3, [sp, #10]
  104c58:	b2db      	uxtb	r3, r3
  104c5a:	b29b      	uxth	r3, r3
  104c5c:	f8ad 300a 	strh.w	r3, [sp, #10]
  104c60:	f8bd 300a 	ldrh.w	r3, [sp, #10]
  104c64:	2b58      	cmp	r3, #88	; 0x58
  104c66:	d002      	beq.n	104c6e <NCV78763::deviceRecognize()+0x4a>
  104c68:	f04f 33ff 	mov.w	r3, #4294967295
  104c6c:	9303      	str	r3, [sp, #12]
  104c6e:	9b03      	ldr	r3, [sp, #12]
  104c70:	4618      	mov	r0, r3
  104c72:	b005      	add	sp, #20
  104c74:	f85d fb04 	ldr.w	pc, [sp], #4

00104c78 <NCV78763::setSpiParams()>:
  104c78:	b500      	push	{lr}
  104c7a:	b083      	sub	sp, #12
  104c7c:	9001      	str	r0, [sp, #4]
  104c7e:	9b01      	ldr	r3, [sp, #4]
  104c80:	2200      	movs	r2, #0
  104c82:	2110      	movs	r1, #16
  104c84:	4618      	mov	r0, r3
  104c86:	f016 fee7 	bl	11ba58 <mbed::SPI::format(int, int)>
  104c8a:	9b01      	ldr	r3, [sp, #4]
  104c8c:	4903      	ldr	r1, [pc, #12]	; (104c9c <NCV78763::setSpiParams()+0x24>)
  104c8e:	4618      	mov	r0, r3
  104c90:	f016 fefa 	bl	11ba88 <mbed::SPI::frequency(int)>
  104c94:	bf00      	nop
  104c96:	b003      	add	sp, #12
  104c98:	f85d fb04 	ldr.w	pc, [sp], #4
  104c9c:	00030d40 	.word	0x00030d40

00104ca0 <NCV78763::resetSpiParams()>:
  104ca0:	b500      	push	{lr}
  104ca2:	b087      	sub	sp, #28
  104ca4:	9001      	str	r0, [sp, #4]
  104ca6:	2308      	movs	r3, #8
  104ca8:	9305      	str	r3, [sp, #20]
  104caa:	2300      	movs	r3, #0
  104cac:	9304      	str	r3, [sp, #16]
  104cae:	4b08      	ldr	r3, [pc, #32]	; (104cd0 <NCV78763::resetSpiParams()+0x30>)
  104cb0:	9303      	str	r3, [sp, #12]
  104cb2:	9b01      	ldr	r3, [sp, #4]
  104cb4:	9a04      	ldr	r2, [sp, #16]
  104cb6:	9905      	ldr	r1, [sp, #20]
  104cb8:	4618      	mov	r0, r3
  104cba:	f016 fecd 	bl	11ba58 <mbed::SPI::format(int, int)>
  104cbe:	9b01      	ldr	r3, [sp, #4]
  104cc0:	9903      	ldr	r1, [sp, #12]
  104cc2:	4618      	mov	r0, r3
  104cc4:	f016 fee0 	bl	11ba88 <mbed::SPI::frequency(int)>
  104cc8:	bf00      	nop
  104cca:	b007      	add	sp, #28
  104ccc:	f85d fb04 	ldr.w	pc, [sp], #4
  104cd0:	000f4240 	.word	0x000f4240

00104cd4 <AMIS30543D::AMIS30543D(MOTOR_T)>:
  104cd4:	b500      	push	{lr}
  104cd6:	b085      	sub	sp, #20
  104cd8:	9003      	str	r0, [sp, #12]
  104cda:	460b      	mov	r3, r1
  104cdc:	f88d 300b 	strb.w	r3, [sp, #11]
  104ce0:	9803      	ldr	r0, [sp, #12]
  104ce2:	f04f 33ff 	mov.w	r3, #4294967295
  104ce6:	9300      	str	r3, [sp, #0]
  104ce8:	2310      	movs	r3, #16
  104cea:	2240      	movs	r2, #64	; 0x40
  104cec:	2120      	movs	r1, #32
  104cee:	f016 fe7b 	bl	11b9e8 <mbed::SPI::SPI(PinName, PinName, PinName, PinName)>
  104cf2:	9b03      	ldr	r3, [sp, #12]
  104cf4:	f103 0014 	add.w	r0, r3, #20
  104cf8:	f44f 3300 	mov.w	r3, #131072	; 0x20000
  104cfc:	9300      	str	r3, [sp, #0]
  104cfe:	2328      	movs	r3, #40	; 0x28
  104d00:	2204      	movs	r2, #4
  104d02:	2108      	movs	r1, #8
  104d04:	f003 fa36 	bl	108174 <PCA9655E::PCA9655E(PinName, PinName, unsigned char, PinName)>
  104d08:	9b03      	ldr	r3, [sp, #12]
  104d0a:	2200      	movs	r2, #0
  104d0c:	f883 2078 	strb.w	r2, [r3, #120]	; 0x78
  104d10:	9b03      	ldr	r3, [sp, #12]
  104d12:	f89d 200b 	ldrb.w	r2, [sp, #11]
  104d16:	f883 2083 	strb.w	r2, [r3, #131]	; 0x83
  104d1a:	9b03      	ldr	r3, [sp, #12]
  104d1c:	f893 3083 	ldrb.w	r3, [r3, #131]	; 0x83
  104d20:	2b01      	cmp	r3, #1
  104d22:	d128      	bne.n	104d76 <AMIS30543D::AMIS30543D(MOTOR_T)+0xa2>
  104d24:	9b03      	ldr	r3, [sp, #12]
  104d26:	2203      	movs	r2, #3
  104d28:	f883 2079 	strb.w	r2, [r3, #121]	; 0x79
  104d2c:	9b03      	ldr	r3, [sp, #12]
  104d2e:	2201      	movs	r2, #1
  104d30:	f883 207a 	strb.w	r2, [r3, #122]	; 0x7a
  104d34:	9b03      	ldr	r3, [sp, #12]
  104d36:	2204      	movs	r2, #4
  104d38:	f883 207b 	strb.w	r2, [r3, #123]	; 0x7b
  104d3c:	9b03      	ldr	r3, [sp, #12]
  104d3e:	2201      	movs	r2, #1
  104d40:	f883 207c 	strb.w	r2, [r3, #124]	; 0x7c
  104d44:	9b03      	ldr	r3, [sp, #12]
  104d46:	2206      	movs	r2, #6
  104d48:	f883 207d 	strb.w	r2, [r3, #125]	; 0x7d
  104d4c:	9b03      	ldr	r3, [sp, #12]
  104d4e:	2201      	movs	r2, #1
  104d50:	f883 207e 	strb.w	r2, [r3, #126]	; 0x7e
  104d54:	9b03      	ldr	r3, [sp, #12]
  104d56:	2205      	movs	r2, #5
  104d58:	f883 207f 	strb.w	r2, [r3, #127]	; 0x7f
  104d5c:	9b03      	ldr	r3, [sp, #12]
  104d5e:	2201      	movs	r2, #1
  104d60:	f883 2080 	strb.w	r2, [r3, #128]	; 0x80
  104d64:	9b03      	ldr	r3, [sp, #12]
  104d66:	2206      	movs	r2, #6
  104d68:	f883 2081 	strb.w	r2, [r3, #129]	; 0x81
  104d6c:	9b03      	ldr	r3, [sp, #12]
  104d6e:	2200      	movs	r2, #0
  104d70:	f883 2082 	strb.w	r2, [r3, #130]	; 0x82
  104d74:	e028      	b.n	104dc8 <AMIS30543D::AMIS30543D(MOTOR_T)+0xf4>
  104d76:	9b03      	ldr	r3, [sp, #12]
  104d78:	2207      	movs	r2, #7
  104d7a:	f883 2079 	strb.w	r2, [r3, #121]	; 0x79
  104d7e:	9b03      	ldr	r3, [sp, #12]
  104d80:	2200      	movs	r2, #0
  104d82:	f883 207a 	strb.w	r2, [r3, #122]	; 0x7a
  104d86:	9b03      	ldr	r3, [sp, #12]
  104d88:	2200      	movs	r2, #0
  104d8a:	f883 207b 	strb.w	r2, [r3, #123]	; 0x7b
  104d8e:	9b03      	ldr	r3, [sp, #12]
  104d90:	2201      	movs	r2, #1
  104d92:	f883 207c 	strb.w	r2, [r3, #124]	; 0x7c
  104d96:	9b03      	ldr	r3, [sp, #12]
  104d98:	2202      	movs	r2, #2
  104d9a:	f883 207d 	strb.w	r2, [r3, #125]	; 0x7d
  104d9e:	9b03      	ldr	r3, [sp, #12]
  104da0:	2201      	movs	r2, #1
  104da2:	f883 207e 	strb.w	r2, [r3, #126]	; 0x7e
  104da6:	9b03      	ldr	r3, [sp, #12]
  104da8:	2201      	movs	r2, #1
  104daa:	f883 207f 	strb.w	r2, [r3, #127]	; 0x7f
  104dae:	9b03      	ldr	r3, [sp, #12]
  104db0:	2201      	movs	r2, #1
  104db2:	f883 2080 	strb.w	r2, [r3, #128]	; 0x80
  104db6:	9b03      	ldr	r3, [sp, #12]
  104db8:	2206      	movs	r2, #6
  104dba:	f883 2081 	strb.w	r2, [r3, #129]	; 0x81
  104dbe:	9b03      	ldr	r3, [sp, #12]
  104dc0:	2200      	movs	r2, #0
  104dc2:	f883 2082 	strb.w	r2, [r3, #130]	; 0x82
  104dc6:	bf00      	nop
  104dc8:	9b03      	ldr	r3, [sp, #12]
  104dca:	4618      	mov	r0, r3
  104dcc:	b005      	add	sp, #20
  104dce:	f85d fb04 	ldr.w	pc, [sp], #4
  104dd2:	bf00      	nop

00104dd4 <AMIS30543D::enable()>:
  104dd4:	b500      	push	{lr}
  104dd6:	b087      	sub	sp, #28
  104dd8:	9001      	str	r0, [sp, #4]
  104dda:	9801      	ldr	r0, [sp, #4]
  104ddc:	f000 fbd6 	bl	10558c <AMIS30543D::initializeGpioExpPins()>
  104de0:	9801      	ldr	r0, [sp, #4]
  104de2:	f000 fc59 	bl	105698 <AMIS30543D::i2cChipDisable()>
  104de6:	9b01      	ldr	r3, [sp, #4]
  104de8:	3314      	adds	r3, #20
  104dea:	2103      	movs	r1, #3
  104dec:	4618      	mov	r0, r3
  104dee:	f003 fb25 	bl	10843c <PCA9655E::read(Register)>
  104df2:	9005      	str	r0, [sp, #20]
  104df4:	9a05      	ldr	r2, [sp, #20]
  104df6:	2100      	movs	r1, #0
  104df8:	9801      	ldr	r0, [sp, #4]
  104dfa:	f000 fc9f 	bl	10573c <AMIS30543D::setNxtPin(AMIS30543D::LEVEL_T, int)>
  104dfe:	2100      	movs	r1, #0
  104e00:	9801      	ldr	r0, [sp, #4]
  104e02:	f000 fc67 	bl	1056d4 <AMIS30543D::setDirPin(AMIS30543D::LEVEL_T)>
  104e06:	9b01      	ldr	r3, [sp, #4]
  104e08:	f103 0014 	add.w	r0, r3, #20
  104e0c:	9b01      	ldr	r3, [sp, #4]
  104e0e:	f893 1082 	ldrb.w	r1, [r3, #130]	; 0x82
  104e12:	9b01      	ldr	r3, [sp, #4]
  104e14:	f893 3081 	ldrb.w	r3, [r3, #129]	; 0x81
  104e18:	b2db      	uxtb	r3, r3
  104e1a:	b25a      	sxtb	r2, r3
  104e1c:	2301      	movs	r3, #1
  104e1e:	f003 fa19 	bl	108254 <PCA9655E::setValue(Port, signed char, SetVal)>
  104e22:	9801      	ldr	r0, [sp, #4]
  104e24:	f000 fb84 	bl	105530 <AMIS30543D::setSpiParams()>
  104e28:	2102      	movs	r1, #2
  104e2a:	9801      	ldr	r0, [sp, #4]
  104e2c:	f000 fad0 	bl	1053d0 <AMIS30543D::spiReadCRx(SPI_CONTROL_REG_T)>
  104e30:	4603      	mov	r3, r0
  104e32:	f88d 300f 	strb.w	r3, [sp, #15]
  104e36:	f89d 300f 	ldrb.w	r3, [sp, #15]
  104e3a:	f043 0340 	orr.w	r3, r3, #64	; 0x40
  104e3e:	b2db      	uxtb	r3, r3
  104e40:	f88d 300f 	strb.w	r3, [sp, #15]
  104e44:	f89d 300f 	ldrb.w	r3, [sp, #15]
  104e48:	461a      	mov	r2, r3
  104e4a:	2102      	movs	r1, #2
  104e4c:	9801      	ldr	r0, [sp, #4]
  104e4e:	f000 fafd 	bl	10544c <AMIS30543D::spiWriteCRx(SPI_CONTROL_REG_T, unsigned char)>
  104e52:	9004      	str	r0, [sp, #16]
  104e54:	9b04      	ldr	r3, [sp, #16]
  104e56:	2b00      	cmp	r3, #0
  104e58:	d002      	beq.n	104e60 <AMIS30543D::enable()+0x8c>
  104e5a:	f06f 0301 	mvn.w	r3, #1
  104e5e:	e059      	b.n	104f14 <AMIS30543D::enable()+0x140>
  104e60:	2102      	movs	r1, #2
  104e62:	9801      	ldr	r0, [sp, #4]
  104e64:	f000 fab4 	bl	1053d0 <AMIS30543D::spiReadCRx(SPI_CONTROL_REG_T)>
  104e68:	4603      	mov	r3, r0
  104e6a:	f88d 300f 	strb.w	r3, [sp, #15]
  104e6e:	f89d 300f 	ldrb.w	r3, [sp, #15]
  104e72:	f023 0340 	bic.w	r3, r3, #64	; 0x40
  104e76:	b2db      	uxtb	r3, r3
  104e78:	f88d 300f 	strb.w	r3, [sp, #15]
  104e7c:	f89d 300f 	ldrb.w	r3, [sp, #15]
  104e80:	461a      	mov	r2, r3
  104e82:	2102      	movs	r1, #2
  104e84:	9801      	ldr	r0, [sp, #4]
  104e86:	f000 fae1 	bl	10544c <AMIS30543D::spiWriteCRx(SPI_CONTROL_REG_T, unsigned char)>
  104e8a:	9004      	str	r0, [sp, #16]
  104e8c:	9b04      	ldr	r3, [sp, #16]
  104e8e:	2b00      	cmp	r3, #0
  104e90:	d002      	beq.n	104e98 <AMIS30543D::enable()+0xc4>
  104e92:	f06f 0301 	mvn.w	r3, #1
  104e96:	e03d      	b.n	104f14 <AMIS30543D::enable()+0x140>
  104e98:	f10d 030e 	add.w	r3, sp, #14
  104e9c:	f10d 020f 	add.w	r2, sp, #15
  104ea0:	2105      	movs	r1, #5
  104ea2:	9801      	ldr	r0, [sp, #4]
  104ea4:	f000 fa04 	bl	1052b0 <AMIS30543D::spiReadSRx(SPI_STATUS_REG_T, unsigned char*, bool*)>
  104ea8:	9004      	str	r0, [sp, #16]
  104eaa:	9b04      	ldr	r3, [sp, #16]
  104eac:	2b00      	cmp	r3, #0
  104eae:	d002      	beq.n	104eb6 <AMIS30543D::enable()+0xe2>
  104eb0:	f06f 0301 	mvn.w	r3, #1
  104eb4:	e02e      	b.n	104f14 <AMIS30543D::enable()+0x140>
  104eb6:	f10d 030e 	add.w	r3, sp, #14
  104eba:	f10d 020f 	add.w	r2, sp, #15
  104ebe:	2106      	movs	r1, #6
  104ec0:	9801      	ldr	r0, [sp, #4]
  104ec2:	f000 f9f5 	bl	1052b0 <AMIS30543D::spiReadSRx(SPI_STATUS_REG_T, unsigned char*, bool*)>
  104ec6:	9004      	str	r0, [sp, #16]
  104ec8:	9b04      	ldr	r3, [sp, #16]
  104eca:	2b00      	cmp	r3, #0
  104ecc:	d002      	beq.n	104ed4 <AMIS30543D::enable()+0x100>
  104ece:	f06f 0301 	mvn.w	r3, #1
  104ed2:	e01f      	b.n	104f14 <AMIS30543D::enable()+0x140>
  104ed4:	9801      	ldr	r0, [sp, #4]
  104ed6:	f000 fb09 	bl	1054ec <AMIS30543D::checkStprErrorOut()>
  104eda:	2103      	movs	r1, #3
  104edc:	9801      	ldr	r0, [sp, #4]
  104ede:	f000 fa77 	bl	1053d0 <AMIS30543D::spiReadCRx(SPI_CONTROL_REG_T)>
  104ee2:	4603      	mov	r3, r0
  104ee4:	f88d 300f 	strb.w	r3, [sp, #15]
  104ee8:	f89d 300f 	ldrb.w	r3, [sp, #15]
  104eec:	f063 037f 	orn	r3, r3, #127	; 0x7f
  104ef0:	b2db      	uxtb	r3, r3
  104ef2:	f88d 300f 	strb.w	r3, [sp, #15]
  104ef6:	f89d 300f 	ldrb.w	r3, [sp, #15]
  104efa:	461a      	mov	r2, r3
  104efc:	2103      	movs	r1, #3
  104efe:	9801      	ldr	r0, [sp, #4]
  104f00:	f000 faa4 	bl	10544c <AMIS30543D::spiWriteCRx(SPI_CONTROL_REG_T, unsigned char)>
  104f04:	9004      	str	r0, [sp, #16]
  104f06:	9b04      	ldr	r3, [sp, #16]
  104f08:	2b00      	cmp	r3, #0
  104f0a:	d002      	beq.n	104f12 <AMIS30543D::enable()+0x13e>
  104f0c:	f06f 0301 	mvn.w	r3, #1
  104f10:	e000      	b.n	104f14 <AMIS30543D::enable()+0x140>
  104f12:	2300      	movs	r3, #0
  104f14:	4618      	mov	r0, r3
  104f16:	b007      	add	sp, #28
  104f18:	f85d fb04 	ldr.w	pc, [sp], #4

00104f1c <AMIS30543D::setMcPeakCurr(unsigned char)>:
  104f1c:	b500      	push	{lr}
  104f1e:	b085      	sub	sp, #20
  104f20:	9001      	str	r0, [sp, #4]
  104f22:	460b      	mov	r3, r1
  104f24:	f88d 3003 	strb.w	r3, [sp, #3]
  104f28:	231f      	movs	r3, #31
  104f2a:	f88d 300f 	strb.w	r3, [sp, #15]
  104f2e:	f89d 2003 	ldrb.w	r2, [sp, #3]
  104f32:	f89d 300f 	ldrb.w	r3, [sp, #15]
  104f36:	429a      	cmp	r2, r3
  104f38:	d902      	bls.n	104f40 <AMIS30543D::setMcPeakCurr(unsigned char)+0x24>
  104f3a:	f06f 0302 	mvn.w	r3, #2
  104f3e:	e022      	b.n	104f86 <AMIS30543D::setMcPeakCurr(unsigned char)+0x6a>
  104f40:	2101      	movs	r1, #1
  104f42:	9801      	ldr	r0, [sp, #4]
  104f44:	f000 fa44 	bl	1053d0 <AMIS30543D::spiReadCRx(SPI_CONTROL_REG_T)>
  104f48:	4603      	mov	r3, r0
  104f4a:	f88d 300e 	strb.w	r3, [sp, #14]
  104f4e:	f89d 300e 	ldrb.w	r3, [sp, #14]
  104f52:	f023 031f 	bic.w	r3, r3, #31
  104f56:	f88d 300e 	strb.w	r3, [sp, #14]
  104f5a:	f89d 200e 	ldrb.w	r2, [sp, #14]
  104f5e:	f89d 3003 	ldrb.w	r3, [sp, #3]
  104f62:	4313      	orrs	r3, r2
  104f64:	f88d 300e 	strb.w	r3, [sp, #14]
  104f68:	f89d 300e 	ldrb.w	r3, [sp, #14]
  104f6c:	461a      	mov	r2, r3
  104f6e:	2101      	movs	r1, #1
  104f70:	9801      	ldr	r0, [sp, #4]
  104f72:	f000 fa6b 	bl	10544c <AMIS30543D::spiWriteCRx(SPI_CONTROL_REG_T, unsigned char)>
  104f76:	9002      	str	r0, [sp, #8]
  104f78:	9b02      	ldr	r3, [sp, #8]
  104f7a:	2b00      	cmp	r3, #0
  104f7c:	d002      	beq.n	104f84 <AMIS30543D::setMcPeakCurr(unsigned char)+0x68>
  104f7e:	f06f 0301 	mvn.w	r3, #1
  104f82:	e000      	b.n	104f86 <AMIS30543D::setMcPeakCurr(unsigned char)+0x6a>
  104f84:	2300      	movs	r3, #0
  104f86:	4618      	mov	r0, r3
  104f88:	b005      	add	sp, #20
  104f8a:	f85d fb04 	ldr.w	pc, [sp], #4
  104f8e:	bf00      	nop

00104f90 <AMIS30543D::setStepperMode(STEPPER_MODE_T)>:
  104f90:	b500      	push	{lr}
  104f92:	b085      	sub	sp, #20
  104f94:	9001      	str	r0, [sp, #4]
  104f96:	460b      	mov	r3, r1
  104f98:	f88d 3003 	strb.w	r3, [sp, #3]
  104f9c:	f89d 3003 	ldrb.w	r3, [sp, #3]
  104fa0:	2b0b      	cmp	r3, #11
  104fa2:	d86f      	bhi.n	105084 <AMIS30543D::setStepperMode(STEPPER_MODE_T)+0xf4>
  104fa4:	a201      	add	r2, pc, #4	; (adr r2, 104fac <AMIS30543D::setStepperMode(STEPPER_MODE_T)+0x1c>)
  104fa6:	f852 f023 	ldr.w	pc, [r2, r3, lsl #2]
  104faa:	bf00      	nop
  104fac:	00104fdd 	.word	0x00104fdd
  104fb0:	00104feb 	.word	0x00104feb
  104fb4:	00104ff9 	.word	0x00104ff9
  104fb8:	00105007 	.word	0x00105007
  104fbc:	00105015 	.word	0x00105015
  104fc0:	00105023 	.word	0x00105023
  104fc4:	00105031 	.word	0x00105031
  104fc8:	0010503f 	.word	0x0010503f
  104fcc:	0010504d 	.word	0x0010504d
  104fd0:	0010505b 	.word	0x0010505b
  104fd4:	00105069 	.word	0x00105069
  104fd8:	00105077 	.word	0x00105077
  104fdc:	2300      	movs	r3, #0
  104fde:	f88d 300f 	strb.w	r3, [sp, #15]
  104fe2:	2300      	movs	r3, #0
  104fe4:	f88d 300e 	strb.w	r3, [sp, #14]
  104fe8:	e053      	b.n	105092 <AMIS30543D::setStepperMode(STEPPER_MODE_T)+0x102>
  104fea:	2300      	movs	r3, #0
  104fec:	f88d 300f 	strb.w	r3, [sp, #15]
  104ff0:	2301      	movs	r3, #1
  104ff2:	f88d 300e 	strb.w	r3, [sp, #14]
  104ff6:	e04c      	b.n	105092 <AMIS30543D::setStepperMode(STEPPER_MODE_T)+0x102>
  104ff8:	2300      	movs	r3, #0
  104ffa:	f88d 300f 	strb.w	r3, [sp, #15]
  104ffe:	2302      	movs	r3, #2
  105000:	f88d 300e 	strb.w	r3, [sp, #14]
  105004:	e045      	b.n	105092 <AMIS30543D::setStepperMode(STEPPER_MODE_T)+0x102>
  105006:	2300      	movs	r3, #0
  105008:	f88d 300f 	strb.w	r3, [sp, #15]
  10500c:	2303      	movs	r3, #3
  10500e:	f88d 300e 	strb.w	r3, [sp, #14]
  105012:	e03e      	b.n	105092 <AMIS30543D::setStepperMode(STEPPER_MODE_T)+0x102>
  105014:	2300      	movs	r3, #0
  105016:	f88d 300f 	strb.w	r3, [sp, #15]
  10501a:	2304      	movs	r3, #4
  10501c:	f88d 300e 	strb.w	r3, [sp, #14]
  105020:	e037      	b.n	105092 <AMIS30543D::setStepperMode(STEPPER_MODE_T)+0x102>
  105022:	2300      	movs	r3, #0
  105024:	f88d 300f 	strb.w	r3, [sp, #15]
  105028:	2305      	movs	r3, #5
  10502a:	f88d 300e 	strb.w	r3, [sp, #14]
  10502e:	e030      	b.n	105092 <AMIS30543D::setStepperMode(STEPPER_MODE_T)+0x102>
  105030:	2300      	movs	r3, #0
  105032:	f88d 300f 	strb.w	r3, [sp, #15]
  105036:	2300      	movs	r3, #0
  105038:	f88d 300e 	strb.w	r3, [sp, #14]
  10503c:	e029      	b.n	105092 <AMIS30543D::setStepperMode(STEPPER_MODE_T)+0x102>
  10503e:	2300      	movs	r3, #0
  105040:	f88d 300f 	strb.w	r3, [sp, #15]
  105044:	2306      	movs	r3, #6
  105046:	f88d 300e 	strb.w	r3, [sp, #14]
  10504a:	e022      	b.n	105092 <AMIS30543D::setStepperMode(STEPPER_MODE_T)+0x102>
  10504c:	2301      	movs	r3, #1
  10504e:	f88d 300f 	strb.w	r3, [sp, #15]
  105052:	2300      	movs	r3, #0
  105054:	f88d 300e 	strb.w	r3, [sp, #14]
  105058:	e01b      	b.n	105092 <AMIS30543D::setStepperMode(STEPPER_MODE_T)+0x102>
  10505a:	2302      	movs	r3, #2
  10505c:	f88d 300f 	strb.w	r3, [sp, #15]
  105060:	2300      	movs	r3, #0
  105062:	f88d 300e 	strb.w	r3, [sp, #14]
  105066:	e014      	b.n	105092 <AMIS30543D::setStepperMode(STEPPER_MODE_T)+0x102>
  105068:	2303      	movs	r3, #3
  10506a:	f88d 300f 	strb.w	r3, [sp, #15]
  10506e:	2300      	movs	r3, #0
  105070:	f88d 300e 	strb.w	r3, [sp, #14]
  105074:	e00d      	b.n	105092 <AMIS30543D::setStepperMode(STEPPER_MODE_T)+0x102>
  105076:	2304      	movs	r3, #4
  105078:	f88d 300f 	strb.w	r3, [sp, #15]
  10507c:	2300      	movs	r3, #0
  10507e:	f88d 300e 	strb.w	r3, [sp, #14]
  105082:	e006      	b.n	105092 <AMIS30543D::setStepperMode(STEPPER_MODE_T)+0x102>
  105084:	2300      	movs	r3, #0
  105086:	f88d 300f 	strb.w	r3, [sp, #15]
  10508a:	2300      	movs	r3, #0
  10508c:	f88d 300e 	strb.w	r3, [sp, #14]
  105090:	bf00      	nop
  105092:	2109      	movs	r1, #9
  105094:	9801      	ldr	r0, [sp, #4]
  105096:	f000 f99b 	bl	1053d0 <AMIS30543D::spiReadCRx(SPI_CONTROL_REG_T)>
  10509a:	4603      	mov	r3, r0
  10509c:	f88d 300d 	strb.w	r3, [sp, #13]
  1050a0:	f89d 300d 	ldrb.w	r3, [sp, #13]
  1050a4:	f023 0307 	bic.w	r3, r3, #7
  1050a8:	b2da      	uxtb	r2, r3
  1050aa:	f89d 300f 	ldrb.w	r3, [sp, #15]
  1050ae:	4313      	orrs	r3, r2
  1050b0:	b2db      	uxtb	r3, r3
  1050b2:	f88d 300d 	strb.w	r3, [sp, #13]
  1050b6:	f89d 300d 	ldrb.w	r3, [sp, #13]
  1050ba:	461a      	mov	r2, r3
  1050bc:	2109      	movs	r1, #9
  1050be:	9801      	ldr	r0, [sp, #4]
  1050c0:	f000 f9c4 	bl	10544c <AMIS30543D::spiWriteCRx(SPI_CONTROL_REG_T, unsigned char)>
  1050c4:	9002      	str	r0, [sp, #8]
  1050c6:	9b02      	ldr	r3, [sp, #8]
  1050c8:	2b00      	cmp	r3, #0
  1050ca:	d002      	beq.n	1050d2 <AMIS30543D::setStepperMode(STEPPER_MODE_T)+0x142>
  1050cc:	f06f 0301 	mvn.w	r3, #1
  1050d0:	e027      	b.n	105122 <AMIS30543D::setStepperMode(STEPPER_MODE_T)+0x192>
  1050d2:	2101      	movs	r1, #1
  1050d4:	9801      	ldr	r0, [sp, #4]
  1050d6:	f000 f97b 	bl	1053d0 <AMIS30543D::spiReadCRx(SPI_CONTROL_REG_T)>
  1050da:	4603      	mov	r3, r0
  1050dc:	f88d 300d 	strb.w	r3, [sp, #13]
  1050e0:	f89d 300d 	ldrb.w	r3, [sp, #13]
  1050e4:	f003 031f 	and.w	r3, r3, #31
  1050e8:	b2da      	uxtb	r2, r3
  1050ea:	f89d 300e 	ldrb.w	r3, [sp, #14]
  1050ee:	015b      	lsls	r3, r3, #5
  1050f0:	b2db      	uxtb	r3, r3
  1050f2:	4313      	orrs	r3, r2
  1050f4:	b2db      	uxtb	r3, r3
  1050f6:	f88d 300d 	strb.w	r3, [sp, #13]
  1050fa:	f89d 300d 	ldrb.w	r3, [sp, #13]
  1050fe:	461a      	mov	r2, r3
  105100:	2101      	movs	r1, #1
  105102:	9801      	ldr	r0, [sp, #4]
  105104:	f000 f9a2 	bl	10544c <AMIS30543D::spiWriteCRx(SPI_CONTROL_REG_T, unsigned char)>
  105108:	9002      	str	r0, [sp, #8]
  10510a:	9b02      	ldr	r3, [sp, #8]
  10510c:	2b00      	cmp	r3, #0
  10510e:	d002      	beq.n	105116 <AMIS30543D::setStepperMode(STEPPER_MODE_T)+0x186>
  105110:	f06f 0301 	mvn.w	r3, #1
  105114:	e005      	b.n	105122 <AMIS30543D::setStepperMode(STEPPER_MODE_T)+0x192>
  105116:	9b01      	ldr	r3, [sp, #4]
  105118:	f89d 2003 	ldrb.w	r2, [sp, #3]
  10511c:	f883 2078 	strb.w	r2, [r3, #120]	; 0x78
  105120:	2300      	movs	r3, #0
  105122:	4618      	mov	r0, r3
  105124:	b005      	add	sp, #20
  105126:	f85d fb04 	ldr.w	pc, [sp], #4
  10512a:	bf00      	nop

0010512c <AMIS30543D::setRotationDirection(ROTATION_T)>:
  10512c:	b500      	push	{lr}
  10512e:	b085      	sub	sp, #20
  105130:	9001      	str	r0, [sp, #4]
  105132:	460b      	mov	r3, r1
  105134:	f88d 3003 	strb.w	r3, [sp, #3]
  105138:	2102      	movs	r1, #2
  10513a:	9801      	ldr	r0, [sp, #4]
  10513c:	f000 f948 	bl	1053d0 <AMIS30543D::spiReadCRx(SPI_CONTROL_REG_T)>
  105140:	4603      	mov	r3, r0
  105142:	f88d 300f 	strb.w	r3, [sp, #15]
  105146:	f89d 300f 	ldrb.w	r3, [sp, #15]
  10514a:	f003 037f 	and.w	r3, r3, #127	; 0x7f
  10514e:	f88d 300f 	strb.w	r3, [sp, #15]
  105152:	f89d 3003 	ldrb.w	r3, [sp, #3]
  105156:	01db      	lsls	r3, r3, #7
  105158:	b2da      	uxtb	r2, r3
  10515a:	f89d 300f 	ldrb.w	r3, [sp, #15]
  10515e:	4313      	orrs	r3, r2
  105160:	b2db      	uxtb	r3, r3
  105162:	f88d 300f 	strb.w	r3, [sp, #15]
  105166:	f89d 300f 	ldrb.w	r3, [sp, #15]
  10516a:	461a      	mov	r2, r3
  10516c:	2102      	movs	r1, #2
  10516e:	9801      	ldr	r0, [sp, #4]
  105170:	f000 f96c 	bl	10544c <AMIS30543D::spiWriteCRx(SPI_CONTROL_REG_T, unsigned char)>
  105174:	9002      	str	r0, [sp, #8]
  105176:	9b02      	ldr	r3, [sp, #8]
  105178:	2b00      	cmp	r3, #0
  10517a:	d002      	beq.n	105182 <AMIS30543D::setRotationDirection(ROTATION_T)+0x56>
  10517c:	f06f 0301 	mvn.w	r3, #1
  105180:	e000      	b.n	105184 <AMIS30543D::setRotationDirection(ROTATION_T)+0x58>
  105182:	2300      	movs	r3, #0
  105184:	4618      	mov	r0, r3
  105186:	b005      	add	sp, #20
  105188:	f85d fb04 	ldr.w	pc, [sp], #4
  10518c:	0000      	movs	r0, r0
	...

00105190 <AMIS30543D::rotateAngle(float)>:
  105190:	b510      	push	{r4, lr}
  105192:	b088      	sub	sp, #32
  105194:	9001      	str	r0, [sp, #4]
  105196:	9100      	str	r1, [sp, #0]
  105198:	f04f 0100 	mov.w	r1, #0
  10519c:	9800      	ldr	r0, [sp, #0]
  10519e:	f018 f8a5 	bl	11d2ec <__aeabi_fcmpge>
  1051a2:	4603      	mov	r3, r0
  1051a4:	2b00      	cmp	r3, #0
  1051a6:	d001      	beq.n	1051ac <AMIS30543D::rotateAngle(float)+0x1c>
  1051a8:	9b00      	ldr	r3, [sp, #0]
  1051aa:	e002      	b.n	1051b2 <AMIS30543D::rotateAngle(float)+0x22>
  1051ac:	9b00      	ldr	r3, [sp, #0]
  1051ae:	f083 4300 	eor.w	r3, r3, #2147483648	; 0x80000000
  1051b2:	9306      	str	r3, [sp, #24]
  1051b4:	9801      	ldr	r0, [sp, #4]
  1051b6:	f000 fb07 	bl	1057c8 <AMIS30543D::calcNoOfMicroStepsPerStep()>
  1051ba:	9005      	str	r0, [sp, #20]
  1051bc:	9805      	ldr	r0, [sp, #20]
  1051be:	f017 fa17 	bl	11c5f0 <__aeabi_ui2d>
  1051c2:	4603      	mov	r3, r0
  1051c4:	460c      	mov	r4, r1
  1051c6:	461a      	mov	r2, r3
  1051c8:	4623      	mov	r3, r4
  1051ca:	a123      	add	r1, pc, #140	; (adr r1, 105258 <AMIS30543D::rotateAngle(float)+0xc8>)
  1051cc:	e9d1 0100 	ldrd	r0, r1, [r1]
  1051d0:	f017 fbae 	bl	11c930 <__aeabi_ddiv>
  1051d4:	4603      	mov	r3, r0
  1051d6:	460c      	mov	r4, r1
  1051d8:	4618      	mov	r0, r3
  1051da:	4621      	mov	r1, r4
  1051dc:	f017 fd76 	bl	11cccc <__aeabi_d2f>
  1051e0:	4603      	mov	r3, r0
  1051e2:	9304      	str	r3, [sp, #16]
  1051e4:	9904      	ldr	r1, [sp, #16]
  1051e6:	9806      	ldr	r0, [sp, #24]
  1051e8:	f018 f86c 	bl	11d2c4 <__aeabi_fcmplt>
  1051ec:	4603      	mov	r3, r0
  1051ee:	2b00      	cmp	r3, #0
  1051f0:	d002      	beq.n	1051f8 <AMIS30543D::rotateAngle(float)+0x68>
  1051f2:	f06f 0302 	mvn.w	r3, #2
  1051f6:	e02a      	b.n	10524e <AMIS30543D::rotateAngle(float)+0xbe>
  1051f8:	f04f 0100 	mov.w	r1, #0
  1051fc:	9800      	ldr	r0, [sp, #0]
  1051fe:	f018 f87f 	bl	11d300 <__aeabi_fcmpgt>
  105202:	4603      	mov	r3, r0
  105204:	2b00      	cmp	r3, #0
  105206:	d005      	beq.n	105214 <AMIS30543D::rotateAngle(float)+0x84>
  105208:	2100      	movs	r1, #0
  10520a:	9801      	ldr	r0, [sp, #4]
  10520c:	f7ff ff8e 	bl	10512c <AMIS30543D::setRotationDirection(ROTATION_T)>
  105210:	9007      	str	r0, [sp, #28]
  105212:	e008      	b.n	105226 <AMIS30543D::rotateAngle(float)+0x96>
  105214:	2101      	movs	r1, #1
  105216:	9801      	ldr	r0, [sp, #4]
  105218:	f7ff ff88 	bl	10512c <AMIS30543D::setRotationDirection(ROTATION_T)>
  10521c:	9007      	str	r0, [sp, #28]
  10521e:	9b00      	ldr	r3, [sp, #0]
  105220:	f083 4300 	eor.w	r3, r3, #2147483648	; 0x80000000
  105224:	9300      	str	r3, [sp, #0]
  105226:	9b07      	ldr	r3, [sp, #28]
  105228:	2b00      	cmp	r3, #0
  10522a:	d001      	beq.n	105230 <AMIS30543D::rotateAngle(float)+0xa0>
  10522c:	9b07      	ldr	r3, [sp, #28]
  10522e:	e00e      	b.n	10524e <AMIS30543D::rotateAngle(float)+0xbe>
  105230:	9904      	ldr	r1, [sp, #16]
  105232:	9800      	ldr	r0, [sp, #0]
  105234:	f017 ff5c 	bl	11d0f0 <__aeabi_fdiv>
  105238:	4603      	mov	r3, r0
  10523a:	4618      	mov	r0, r3
  10523c:	f018 f890 	bl	11d360 <__aeabi_f2uiz>
  105240:	4603      	mov	r3, r0
  105242:	9303      	str	r3, [sp, #12]
  105244:	9903      	ldr	r1, [sp, #12]
  105246:	9801      	ldr	r0, [sp, #4]
  105248:	f000 fb84 	bl	105954 <AMIS30543D::rotateByMicroSteps(unsigned int)>
  10524c:	2300      	movs	r3, #0
  10524e:	4618      	mov	r0, r3
  105250:	b008      	add	sp, #32
  105252:	bd10      	pop	{r4, pc}
  105254:	f3af 8000 	nop.w
  105258:	cccccccd 	.word	0xcccccccd
  10525c:	3ffccccc 	.word	0x3ffccccc

00105260 <AMIS30543D::disable()>:
  105260:	b500      	push	{lr}
  105262:	b085      	sub	sp, #20
  105264:	9001      	str	r0, [sp, #4]
  105266:	2103      	movs	r1, #3
  105268:	9801      	ldr	r0, [sp, #4]
  10526a:	f000 f8b1 	bl	1053d0 <AMIS30543D::spiReadCRx(SPI_CONTROL_REG_T)>
  10526e:	4603      	mov	r3, r0
  105270:	f88d 300f 	strb.w	r3, [sp, #15]
  105274:	f89d 300f 	ldrb.w	r3, [sp, #15]
  105278:	f003 037f 	and.w	r3, r3, #127	; 0x7f
  10527c:	f88d 300f 	strb.w	r3, [sp, #15]
  105280:	f89d 300f 	ldrb.w	r3, [sp, #15]
  105284:	461a      	mov	r2, r3
  105286:	2103      	movs	r1, #3
  105288:	9801      	ldr	r0, [sp, #4]
  10528a:	f000 f8df 	bl	10544c <AMIS30543D::spiWriteCRx(SPI_CONTROL_REG_T, unsigned char)>
  10528e:	4603      	mov	r3, r0
  105290:	2b00      	cmp	r3, #0
  105292:	bf14      	ite	ne
  105294:	2301      	movne	r3, #1
  105296:	2300      	moveq	r3, #0
  105298:	b2db      	uxtb	r3, r3
  10529a:	2b00      	cmp	r3, #0
  10529c:	d002      	beq.n	1052a4 <AMIS30543D::disable()+0x44>
  10529e:	f06f 0301 	mvn.w	r3, #1
  1052a2:	e000      	b.n	1052a6 <AMIS30543D::disable()+0x46>
  1052a4:	2300      	movs	r3, #0
  1052a6:	4618      	mov	r0, r3
  1052a8:	b005      	add	sp, #20
  1052aa:	f85d fb04 	ldr.w	pc, [sp], #4
  1052ae:	bf00      	nop

001052b0 <AMIS30543D::spiReadSRx(SPI_STATUS_REG_T, unsigned char*, bool*)>:
  1052b0:	b500      	push	{lr}
  1052b2:	b089      	sub	sp, #36	; 0x24
  1052b4:	9003      	str	r0, [sp, #12]
  1052b6:	9201      	str	r2, [sp, #4]
  1052b8:	9300      	str	r3, [sp, #0]
  1052ba:	460b      	mov	r3, r1
  1052bc:	f88d 300b 	strb.w	r3, [sp, #11]
  1052c0:	2300      	movs	r3, #0
  1052c2:	f88d 301e 	strb.w	r3, [sp, #30]
  1052c6:	2300      	movs	r3, #0
  1052c8:	9306      	str	r3, [sp, #24]
  1052ca:	f04f 31ff 	mov.w	r1, #4294967295
  1052ce:	483f      	ldr	r0, [pc, #252]	; (1053cc <AMIS30543D::spiReadSRx(SPI_STATUS_REG_T, unsigned char*, bool*)+0x11c>)
  1052d0:	f012 f8b8 	bl	117444 <rtos::Mutex::lock(unsigned long)>
  1052d4:	9803      	ldr	r0, [sp, #12]
  1052d6:	f000 f92b 	bl	105530 <AMIS30543D::setSpiParams()>
  1052da:	9803      	ldr	r0, [sp, #12]
  1052dc:	f000 f9dc 	bl	105698 <AMIS30543D::i2cChipDisable()>
  1052e0:	9803      	ldr	r0, [sp, #12]
  1052e2:	f000 f9a9 	bl	105638 <AMIS30543D::i2cChipEnable()>
  1052e6:	f89d 300b 	ldrb.w	r3, [sp, #11]
  1052ea:	f88d 3017 	strb.w	r3, [sp, #23]
  1052ee:	9b03      	ldr	r3, [sp, #12]
  1052f0:	f89d 2017 	ldrb.w	r2, [sp, #23]
  1052f4:	4611      	mov	r1, r2
  1052f6:	4618      	mov	r0, r3
  1052f8:	f016 fbfc 	bl	11baf4 <mbed::SPI::write(int)>
  1052fc:	2304      	movs	r3, #4
  1052fe:	f88d 3017 	strb.w	r3, [sp, #23]
  105302:	9b03      	ldr	r3, [sp, #12]
  105304:	f89d 2017 	ldrb.w	r2, [sp, #23]
  105308:	4611      	mov	r1, r2
  10530a:	4618      	mov	r0, r3
  10530c:	f016 fbf2 	bl	11baf4 <mbed::SPI::write(int)>
  105310:	4603      	mov	r3, r0
  105312:	b2da      	uxtb	r2, r3
  105314:	9b01      	ldr	r3, [sp, #4]
  105316:	701a      	strb	r2, [r3, #0]
  105318:	9b01      	ldr	r3, [sp, #4]
  10531a:	781b      	ldrb	r3, [r3, #0]
  10531c:	f88d 301f 	strb.w	r3, [sp, #31]
  105320:	9b03      	ldr	r3, [sp, #12]
  105322:	f103 0014 	add.w	r0, r3, #20
  105326:	9b03      	ldr	r3, [sp, #12]
  105328:	f893 107c 	ldrb.w	r1, [r3, #124]	; 0x7c
  10532c:	9b03      	ldr	r3, [sp, #12]
  10532e:	f893 307b 	ldrb.w	r3, [r3, #123]	; 0x7b
  105332:	b2db      	uxtb	r3, r3
  105334:	b25b      	sxtb	r3, r3
  105336:	461a      	mov	r2, r3
  105338:	f002 ff4e 	bl	1081d8 <PCA9655E::readPinVal(Port, signed char)>
  10533c:	4603      	mov	r3, r0
  10533e:	2b00      	cmp	r3, #0
  105340:	bf0c      	ite	eq
  105342:	2301      	moveq	r3, #1
  105344:	2300      	movne	r3, #0
  105346:	b2db      	uxtb	r3, r3
  105348:	2b00      	cmp	r3, #0
  10534a:	d003      	beq.n	105354 <AMIS30543D::spiReadSRx(SPI_STATUS_REG_T, unsigned char*, bool*)+0xa4>
  10534c:	9b00      	ldr	r3, [sp, #0]
  10534e:	2201      	movs	r2, #1
  105350:	701a      	strb	r2, [r3, #0]
  105352:	e002      	b.n	10535a <AMIS30543D::spiReadSRx(SPI_STATUS_REG_T, unsigned char*, bool*)+0xaa>
  105354:	9b00      	ldr	r3, [sp, #0]
  105356:	2200      	movs	r2, #0
  105358:	701a      	strb	r2, [r3, #0]
  10535a:	9803      	ldr	r0, [sp, #12]
  10535c:	f000 f99c 	bl	105698 <AMIS30543D::i2cChipDisable()>
  105360:	9803      	ldr	r0, [sp, #12]
  105362:	f000 f8f9 	bl	105558 <AMIS30543D::resetSpiParams()>
  105366:	f89d 301f 	ldrb.w	r3, [sp, #31]
  10536a:	2b00      	cmp	r3, #0
  10536c:	d015      	beq.n	10539a <AMIS30543D::spiReadSRx(SPI_STATUS_REG_T, unsigned char*, bool*)+0xea>
  10536e:	9b06      	ldr	r3, [sp, #24]
  105370:	2b07      	cmp	r3, #7
  105372:	d012      	beq.n	10539a <AMIS30543D::spiReadSRx(SPI_STATUS_REG_T, unsigned char*, bool*)+0xea>
  105374:	f89d 201f 	ldrb.w	r2, [sp, #31]
  105378:	f89d 301e 	ldrb.w	r3, [sp, #30]
  10537c:	4053      	eors	r3, r2
  10537e:	b2db      	uxtb	r3, r3
  105380:	f003 0301 	and.w	r3, r3, #1
  105384:	f88d 301e 	strb.w	r3, [sp, #30]
  105388:	f89d 301f 	ldrb.w	r3, [sp, #31]
  10538c:	105b      	asrs	r3, r3, #1
  10538e:	f88d 301f 	strb.w	r3, [sp, #31]
  105392:	9b06      	ldr	r3, [sp, #24]
  105394:	3301      	adds	r3, #1
  105396:	9306      	str	r3, [sp, #24]
  105398:	e7e5      	b.n	105366 <AMIS30543D::spiReadSRx(SPI_STATUS_REG_T, unsigned char*, bool*)+0xb6>
  10539a:	9b01      	ldr	r3, [sp, #4]
  10539c:	781b      	ldrb	r3, [r3, #0]
  10539e:	09db      	lsrs	r3, r3, #7
  1053a0:	f88d 3016 	strb.w	r3, [sp, #22]
  1053a4:	f89d 2016 	ldrb.w	r2, [sp, #22]
  1053a8:	f89d 301e 	ldrb.w	r3, [sp, #30]
  1053ac:	429a      	cmp	r2, r3
  1053ae:	d104      	bne.n	1053ba <AMIS30543D::spiReadSRx(SPI_STATUS_REG_T, unsigned char*, bool*)+0x10a>
  1053b0:	4806      	ldr	r0, [pc, #24]	; (1053cc <AMIS30543D::spiReadSRx(SPI_STATUS_REG_T, unsigned char*, bool*)+0x11c>)
  1053b2:	f012 f857 	bl	117464 <rtos::Mutex::unlock()>
  1053b6:	2300      	movs	r3, #0
  1053b8:	e004      	b.n	1053c4 <AMIS30543D::spiReadSRx(SPI_STATUS_REG_T, unsigned char*, bool*)+0x114>
  1053ba:	4804      	ldr	r0, [pc, #16]	; (1053cc <AMIS30543D::spiReadSRx(SPI_STATUS_REG_T, unsigned char*, bool*)+0x11c>)
  1053bc:	f012 f852 	bl	117464 <rtos::Mutex::unlock()>
  1053c0:	f06f 0301 	mvn.w	r3, #1
  1053c4:	4618      	mov	r0, r3
  1053c6:	b009      	add	sp, #36	; 0x24
  1053c8:	f85d fb04 	ldr.w	pc, [sp], #4
  1053cc:	3fff45a4 	.word	0x3fff45a4

001053d0 <AMIS30543D::spiReadCRx(SPI_CONTROL_REG_T)>:
  1053d0:	b500      	push	{lr}
  1053d2:	b085      	sub	sp, #20
  1053d4:	9001      	str	r0, [sp, #4]
  1053d6:	460b      	mov	r3, r1
  1053d8:	f88d 3003 	strb.w	r3, [sp, #3]
  1053dc:	f04f 31ff 	mov.w	r1, #4294967295
  1053e0:	4819      	ldr	r0, [pc, #100]	; (105448 <AMIS30543D::spiReadCRx(SPI_CONTROL_REG_T)+0x78>)
  1053e2:	f012 f82f 	bl	117444 <rtos::Mutex::lock(unsigned long)>
  1053e6:	9801      	ldr	r0, [sp, #4]
  1053e8:	f000 f8a2 	bl	105530 <AMIS30543D::setSpiParams()>
  1053ec:	9801      	ldr	r0, [sp, #4]
  1053ee:	f000 f953 	bl	105698 <AMIS30543D::i2cChipDisable()>
  1053f2:	9801      	ldr	r0, [sp, #4]
  1053f4:	f000 f920 	bl	105638 <AMIS30543D::i2cChipEnable()>
  1053f8:	f89d 3003 	ldrb.w	r3, [sp, #3]
  1053fc:	f88d 300f 	strb.w	r3, [sp, #15]
  105400:	9b01      	ldr	r3, [sp, #4]
  105402:	f89d 200f 	ldrb.w	r2, [sp, #15]
  105406:	4611      	mov	r1, r2
  105408:	4618      	mov	r0, r3
  10540a:	f016 fb73 	bl	11baf4 <mbed::SPI::write(int)>
  10540e:	2304      	movs	r3, #4
  105410:	f88d 300f 	strb.w	r3, [sp, #15]
  105414:	9b01      	ldr	r3, [sp, #4]
  105416:	f89d 200f 	ldrb.w	r2, [sp, #15]
  10541a:	4611      	mov	r1, r2
  10541c:	4618      	mov	r0, r3
  10541e:	f016 fb69 	bl	11baf4 <mbed::SPI::write(int)>
  105422:	4603      	mov	r3, r0
  105424:	f88d 300e 	strb.w	r3, [sp, #14]
  105428:	9801      	ldr	r0, [sp, #4]
  10542a:	f000 f935 	bl	105698 <AMIS30543D::i2cChipDisable()>
  10542e:	9801      	ldr	r0, [sp, #4]
  105430:	f000 f892 	bl	105558 <AMIS30543D::resetSpiParams()>
  105434:	4804      	ldr	r0, [pc, #16]	; (105448 <AMIS30543D::spiReadCRx(SPI_CONTROL_REG_T)+0x78>)
  105436:	f012 f815 	bl	117464 <rtos::Mutex::unlock()>
  10543a:	f89d 300e 	ldrb.w	r3, [sp, #14]
  10543e:	4618      	mov	r0, r3
  105440:	b005      	add	sp, #20
  105442:	f85d fb04 	ldr.w	pc, [sp], #4
  105446:	bf00      	nop
  105448:	3fff45a4 	.word	0x3fff45a4

0010544c <AMIS30543D::spiWriteCRx(SPI_CONTROL_REG_T, unsigned char)>:
  10544c:	b500      	push	{lr}
  10544e:	b085      	sub	sp, #20
  105450:	9001      	str	r0, [sp, #4]
  105452:	460b      	mov	r3, r1
  105454:	f88d 3003 	strb.w	r3, [sp, #3]
  105458:	4613      	mov	r3, r2
  10545a:	f88d 3002 	strb.w	r3, [sp, #2]
  10545e:	f04f 31ff 	mov.w	r1, #4294967295
  105462:	4821      	ldr	r0, [pc, #132]	; (1054e8 <AMIS30543D::spiWriteCRx(SPI_CONTROL_REG_T, unsigned char)+0x9c>)
  105464:	f011 ffee 	bl	117444 <rtos::Mutex::lock(unsigned long)>
  105468:	9801      	ldr	r0, [sp, #4]
  10546a:	f000 f861 	bl	105530 <AMIS30543D::setSpiParams()>
  10546e:	9801      	ldr	r0, [sp, #4]
  105470:	f000 f912 	bl	105698 <AMIS30543D::i2cChipDisable()>
  105474:	9801      	ldr	r0, [sp, #4]
  105476:	f000 f8df 	bl	105638 <AMIS30543D::i2cChipEnable()>
  10547a:	f89d 3003 	ldrb.w	r3, [sp, #3]
  10547e:	f063 037f 	orn	r3, r3, #127	; 0x7f
  105482:	f88d 300f 	strb.w	r3, [sp, #15]
  105486:	9b01      	ldr	r3, [sp, #4]
  105488:	f89d 200f 	ldrb.w	r2, [sp, #15]
  10548c:	4611      	mov	r1, r2
  10548e:	4618      	mov	r0, r3
  105490:	f016 fb30 	bl	11baf4 <mbed::SPI::write(int)>
  105494:	9b01      	ldr	r3, [sp, #4]
  105496:	f89d 2002 	ldrb.w	r2, [sp, #2]
  10549a:	4611      	mov	r1, r2
  10549c:	4618      	mov	r0, r3
  10549e:	f016 fb29 	bl	11baf4 <mbed::SPI::write(int)>
  1054a2:	9801      	ldr	r0, [sp, #4]
  1054a4:	f000 f8f8 	bl	105698 <AMIS30543D::i2cChipDisable()>
  1054a8:	9801      	ldr	r0, [sp, #4]
  1054aa:	f000 f855 	bl	105558 <AMIS30543D::resetSpiParams()>
  1054ae:	f89d 3003 	ldrb.w	r3, [sp, #3]
  1054b2:	4619      	mov	r1, r3
  1054b4:	9801      	ldr	r0, [sp, #4]
  1054b6:	f7ff ff8b 	bl	1053d0 <AMIS30543D::spiReadCRx(SPI_CONTROL_REG_T)>
  1054ba:	4603      	mov	r3, r0
  1054bc:	f88d 300e 	strb.w	r3, [sp, #14]
  1054c0:	f89d 200e 	ldrb.w	r2, [sp, #14]
  1054c4:	f89d 3002 	ldrb.w	r3, [sp, #2]
  1054c8:	429a      	cmp	r2, r3
  1054ca:	d104      	bne.n	1054d6 <AMIS30543D::spiWriteCRx(SPI_CONTROL_REG_T, unsigned char)+0x8a>
  1054cc:	4806      	ldr	r0, [pc, #24]	; (1054e8 <AMIS30543D::spiWriteCRx(SPI_CONTROL_REG_T, unsigned char)+0x9c>)
  1054ce:	f011 ffc9 	bl	117464 <rtos::Mutex::unlock()>
  1054d2:	2300      	movs	r3, #0
  1054d4:	e004      	b.n	1054e0 <AMIS30543D::spiWriteCRx(SPI_CONTROL_REG_T, unsigned char)+0x94>
  1054d6:	4804      	ldr	r0, [pc, #16]	; (1054e8 <AMIS30543D::spiWriteCRx(SPI_CONTROL_REG_T, unsigned char)+0x9c>)
  1054d8:	f011 ffc4 	bl	117464 <rtos::Mutex::unlock()>
  1054dc:	f06f 0301 	mvn.w	r3, #1
  1054e0:	4618      	mov	r0, r3
  1054e2:	b005      	add	sp, #20
  1054e4:	f85d fb04 	ldr.w	pc, [sp], #4
  1054e8:	3fff45a4 	.word	0x3fff45a4

001054ec <AMIS30543D::checkStprErrorOut()>:
  1054ec:	b500      	push	{lr}
  1054ee:	b085      	sub	sp, #20
  1054f0:	9001      	str	r0, [sp, #4]
  1054f2:	9b01      	ldr	r3, [sp, #4]
  1054f4:	f103 0014 	add.w	r0, r3, #20
  1054f8:	9b01      	ldr	r3, [sp, #4]
  1054fa:	f893 107c 	ldrb.w	r1, [r3, #124]	; 0x7c
  1054fe:	9b01      	ldr	r3, [sp, #4]
  105500:	f893 307b 	ldrb.w	r3, [r3, #123]	; 0x7b
  105504:	b2db      	uxtb	r3, r3
  105506:	b25b      	sxtb	r3, r3
  105508:	461a      	mov	r2, r3
  10550a:	f002 fe65 	bl	1081d8 <PCA9655E::readPinVal(Port, signed char)>
  10550e:	9002      	str	r0, [sp, #8]
  105510:	9b02      	ldr	r3, [sp, #8]
  105512:	2b01      	cmp	r3, #1
  105514:	d103      	bne.n	10551e <AMIS30543D::checkStprErrorOut()+0x32>
  105516:	2300      	movs	r3, #0
  105518:	f88d 300f 	strb.w	r3, [sp, #15]
  10551c:	e002      	b.n	105524 <AMIS30543D::checkStprErrorOut()+0x38>
  10551e:	2301      	movs	r3, #1
  105520:	f88d 300f 	strb.w	r3, [sp, #15]
  105524:	f89d 300f 	ldrb.w	r3, [sp, #15]
  105528:	4618      	mov	r0, r3
  10552a:	b005      	add	sp, #20
  10552c:	f85d fb04 	ldr.w	pc, [sp], #4

00105530 <AMIS30543D::setSpiParams()>:
  105530:	b500      	push	{lr}
  105532:	b083      	sub	sp, #12
  105534:	9001      	str	r0, [sp, #4]
  105536:	9b01      	ldr	r3, [sp, #4]
  105538:	2200      	movs	r2, #0
  10553a:	2108      	movs	r1, #8
  10553c:	4618      	mov	r0, r3
  10553e:	f016 fa8b 	bl	11ba58 <mbed::SPI::format(int, int)>
  105542:	9b01      	ldr	r3, [sp, #4]
  105544:	4903      	ldr	r1, [pc, #12]	; (105554 <AMIS30543D::setSpiParams()+0x24>)
  105546:	4618      	mov	r0, r3
  105548:	f016 fa9e 	bl	11ba88 <mbed::SPI::frequency(int)>
  10554c:	bf00      	nop
  10554e:	b003      	add	sp, #12
  105550:	f85d fb04 	ldr.w	pc, [sp], #4
  105554:	0007a120 	.word	0x0007a120

00105558 <AMIS30543D::resetSpiParams()>:
  105558:	b500      	push	{lr}
  10555a:	b087      	sub	sp, #28
  10555c:	9001      	str	r0, [sp, #4]
  10555e:	2308      	movs	r3, #8
  105560:	9305      	str	r3, [sp, #20]
  105562:	2300      	movs	r3, #0
  105564:	9304      	str	r3, [sp, #16]
  105566:	4b08      	ldr	r3, [pc, #32]	; (105588 <AMIS30543D::resetSpiParams()+0x30>)
  105568:	9303      	str	r3, [sp, #12]
  10556a:	9b01      	ldr	r3, [sp, #4]
  10556c:	9a04      	ldr	r2, [sp, #16]
  10556e:	9905      	ldr	r1, [sp, #20]
  105570:	4618      	mov	r0, r3
  105572:	f016 fa71 	bl	11ba58 <mbed::SPI::format(int, int)>
  105576:	9b01      	ldr	r3, [sp, #4]
  105578:	9903      	ldr	r1, [sp, #12]
  10557a:	4618      	mov	r0, r3
  10557c:	f016 fa84 	bl	11ba88 <mbed::SPI::frequency(int)>
  105580:	bf00      	nop
  105582:	b007      	add	sp, #28
  105584:	f85d fb04 	ldr.w	pc, [sp], #4
  105588:	000f4240 	.word	0x000f4240

0010558c <AMIS30543D::initializeGpioExpPins()>:
  10558c:	b500      	push	{lr}
  10558e:	b083      	sub	sp, #12
  105590:	9001      	str	r0, [sp, #4]
  105592:	9b01      	ldr	r3, [sp, #4]
  105594:	3314      	adds	r3, #20
  105596:	4927      	ldr	r1, [pc, #156]	; (105634 <AMIS30543D::initializeGpioExpPins()+0xa8>)
  105598:	4618      	mov	r0, r3
  10559a:	f002 fe0f 	bl	1081bc <PCA9655E::frequency(int)>
  10559e:	9b01      	ldr	r3, [sp, #4]
  1055a0:	f103 0014 	add.w	r0, r3, #20
  1055a4:	9b01      	ldr	r3, [sp, #4]
  1055a6:	f893 107a 	ldrb.w	r1, [r3, #122]	; 0x7a
  1055aa:	9b01      	ldr	r3, [sp, #4]
  1055ac:	f893 3079 	ldrb.w	r3, [r3, #121]	; 0x79
  1055b0:	b2db      	uxtb	r3, r3
  1055b2:	b25a      	sxtb	r2, r3
  1055b4:	2300      	movs	r3, #0
  1055b6:	f002 feb5 	bl	108324 <PCA9655E::setDirection(Port, signed char, Direction)>
  1055ba:	9b01      	ldr	r3, [sp, #4]
  1055bc:	f103 0014 	add.w	r0, r3, #20
  1055c0:	9b01      	ldr	r3, [sp, #4]
  1055c2:	f893 1082 	ldrb.w	r1, [r3, #130]	; 0x82
  1055c6:	9b01      	ldr	r3, [sp, #4]
  1055c8:	f893 3081 	ldrb.w	r3, [r3, #129]	; 0x81
  1055cc:	b2db      	uxtb	r3, r3
  1055ce:	b25a      	sxtb	r2, r3
  1055d0:	2300      	movs	r3, #0
  1055d2:	f002 fea7 	bl	108324 <PCA9655E::setDirection(Port, signed char, Direction)>
  1055d6:	9b01      	ldr	r3, [sp, #4]
  1055d8:	f103 0014 	add.w	r0, r3, #20
  1055dc:	9b01      	ldr	r3, [sp, #4]
  1055de:	f893 107c 	ldrb.w	r1, [r3, #124]	; 0x7c
  1055e2:	9b01      	ldr	r3, [sp, #4]
  1055e4:	f893 307b 	ldrb.w	r3, [r3, #123]	; 0x7b
  1055e8:	b2db      	uxtb	r3, r3
  1055ea:	b25a      	sxtb	r2, r3
  1055ec:	2301      	movs	r3, #1
  1055ee:	f002 fe99 	bl	108324 <PCA9655E::setDirection(Port, signed char, Direction)>
  1055f2:	9b01      	ldr	r3, [sp, #4]
  1055f4:	f103 0014 	add.w	r0, r3, #20
  1055f8:	9b01      	ldr	r3, [sp, #4]
  1055fa:	f893 107e 	ldrb.w	r1, [r3, #126]	; 0x7e
  1055fe:	9b01      	ldr	r3, [sp, #4]
  105600:	f893 307d 	ldrb.w	r3, [r3, #125]	; 0x7d
  105604:	b2db      	uxtb	r3, r3
  105606:	b25a      	sxtb	r2, r3
  105608:	2300      	movs	r3, #0
  10560a:	f002 fe8b 	bl	108324 <PCA9655E::setDirection(Port, signed char, Direction)>
  10560e:	9b01      	ldr	r3, [sp, #4]
  105610:	f103 0014 	add.w	r0, r3, #20
  105614:	9b01      	ldr	r3, [sp, #4]
  105616:	f893 1080 	ldrb.w	r1, [r3, #128]	; 0x80
  10561a:	9b01      	ldr	r3, [sp, #4]
  10561c:	f893 307f 	ldrb.w	r3, [r3, #127]	; 0x7f
  105620:	b2db      	uxtb	r3, r3
  105622:	b25a      	sxtb	r2, r3
  105624:	2300      	movs	r3, #0
  105626:	f002 fe7d 	bl	108324 <PCA9655E::setDirection(Port, signed char, Direction)>
  10562a:	bf00      	nop
  10562c:	b003      	add	sp, #12
  10562e:	f85d fb04 	ldr.w	pc, [sp], #4
  105632:	bf00      	nop
  105634:	000f4240 	.word	0x000f4240

00105638 <AMIS30543D::i2cChipEnable()>:
  105638:	b500      	push	{lr}
  10563a:	b083      	sub	sp, #12
  10563c:	9001      	str	r0, [sp, #4]
  10563e:	9b01      	ldr	r3, [sp, #4]
  105640:	f103 0014 	add.w	r0, r3, #20
  105644:	9b01      	ldr	r3, [sp, #4]
  105646:	f893 107a 	ldrb.w	r1, [r3, #122]	; 0x7a
  10564a:	9b01      	ldr	r3, [sp, #4]
  10564c:	f893 3079 	ldrb.w	r3, [r3, #121]	; 0x79
  105650:	b2db      	uxtb	r3, r3
  105652:	b25a      	sxtb	r2, r3
  105654:	2301      	movs	r3, #1
  105656:	f002 fdfd 	bl	108254 <PCA9655E::setValue(Port, signed char, SetVal)>
  10565a:	2014      	movs	r0, #20
  10565c:	f014 f85e 	bl	11971c <wait_us>
  105660:	2006      	movs	r0, #6
  105662:	f014 f85b 	bl	11971c <wait_us>
  105666:	9b01      	ldr	r3, [sp, #4]
  105668:	f103 0014 	add.w	r0, r3, #20
  10566c:	9b01      	ldr	r3, [sp, #4]
  10566e:	f893 107a 	ldrb.w	r1, [r3, #122]	; 0x7a
  105672:	9b01      	ldr	r3, [sp, #4]
  105674:	f893 3079 	ldrb.w	r3, [r3, #121]	; 0x79
