ARM GAS  C:\Users\ddemidov\AppData\Local\Temp\cch7zCWw.s 			page 1


   1              		.cpu cortex-m0
   2              		.fpu softvfp
   3              		.eabi_attribute 20, 1
   4              		.eabi_attribute 21, 1
   5              		.eabi_attribute 23, 3
   6              		.eabi_attribute 24, 1
   7              		.eabi_attribute 25, 1
   8              		.eabi_attribute 26, 1
   9              		.eabi_attribute 30, 4
  10              		.eabi_attribute 34, 0
  11              		.eabi_attribute 18, 4
  12              		.code	16
  13              		.file	"__client.c"
  14              		.text
  15              	.Ltext0:
  16              		.cfi_sections	.debug_frame
  17              		.section	.text.simple_write,"ax",%progbits
  18              		.align	1
  19              		.code	16
  20              		.thumb_func
  21              		.type	simple_write, %function
  22              	simple_write:
  23              	.LFB3:
  24              		.file 1 "..\\acn-sdk-c\\src\\http\\client.c"
   1:..\acn-sdk-c\src\http/client.c **** /* Copyright (c) 2017 Arrow Electronics, Inc.
   2:..\acn-sdk-c\src\http/client.c ****  * All rights reserved. This program and the accompanying materials
   3:..\acn-sdk-c\src\http/client.c ****  * are made available under the terms of the Apache License 2.0
   4:..\acn-sdk-c\src\http/client.c ****  * which accompanies this distribution, and is available at
   5:..\acn-sdk-c\src\http/client.c ****  * http://apache.org/licenses/LICENSE-2.0
   6:..\acn-sdk-c\src\http/client.c ****  * Contributors: Arrow Electronics, Inc.
   7:..\acn-sdk-c\src\http/client.c ****  */
   8:..\acn-sdk-c\src\http/client.c **** 
   9:..\acn-sdk-c\src\http/client.c **** #define MODULE_NAME "HTTP_Client"
  10:..\acn-sdk-c\src\http/client.c **** 
  11:..\acn-sdk-c\src\http/client.c **** #include <http/client.h>
  12:..\acn-sdk-c\src\http/client.c **** #include <config.h>
  13:..\acn-sdk-c\src\http/client.c **** #include <debug.h>
  14:..\acn-sdk-c\src\http/client.c **** #include <bsd/socket.h>
  15:..\acn-sdk-c\src\http/client.c **** #include <time/time.h>
  16:..\acn-sdk-c\src\http/client.c **** #include <arrow/mem.h>
  17:..\acn-sdk-c\src\http/client.c **** #if defined(_ARIS_)
  18:..\acn-sdk-c\src\http/client.c **** # if defined(ETH_MODE)
  19:..\acn-sdk-c\src\http/client.c **** #  include "nx_api.h"
  20:..\acn-sdk-c\src\http/client.c **** # endif
  21:..\acn-sdk-c\src\http/client.c **** #elif defined(__MBED__)
  22:..\acn-sdk-c\src\http/client.c **** #elif defined(__XCC__)
  23:..\acn-sdk-c\src\http/client.c **** #define WOLFSSL SSL
  24:..\acn-sdk-c\src\http/client.c **** #define WOLFSSL_CTX SSL_CTX
  25:..\acn-sdk-c\src\http/client.c **** #define wolfSSL_write qcom_SSL_write
  26:..\acn-sdk-c\src\http/client.c **** #define wolfSSL_read qcom_SSL_read
  27:..\acn-sdk-c\src\http/client.c **** #define IPPROTO_TCP 0
  28:..\acn-sdk-c\src\http/client.c **** #define SSL_SUCCESS 0
  29:..\acn-sdk-c\src\http/client.c **** #endif
  30:..\acn-sdk-c\src\http/client.c **** 
  31:..\acn-sdk-c\src\http/client.c **** #if !defined(MAX_BUFFER_SIZE)
  32:..\acn-sdk-c\src\http/client.c **** #define MAX_BUFFER_SIZE 1024
  33:..\acn-sdk-c\src\http/client.c **** #endif
ARM GAS  C:\Users\ddemidov\AppData\Local\Temp\cch7zCWw.s 			page 2


  34:..\acn-sdk-c\src\http/client.c **** 
  35:..\acn-sdk-c\src\http/client.c **** #define CHUNK_SIZE 256
  36:..\acn-sdk-c\src\http/client.c **** 
  37:..\acn-sdk-c\src\http/client.c **** #define CHECK_CONN_ERR(ret) \
  38:..\acn-sdk-c\src\http/client.c ****     if ( ret < 0 ) { \
  39:..\acn-sdk-c\src\http/client.c ****       DBG("Connection error (%d)", ret); \
  40:..\acn-sdk-c\src\http/client.c ****       return ret; \
  41:..\acn-sdk-c\src\http/client.c ****     }
  42:..\acn-sdk-c\src\http/client.c **** 
  43:..\acn-sdk-c\src\http/client.c **** #define PRTCL_ERR() \
  44:..\acn-sdk-c\src\http/client.c ****   { \
  45:..\acn-sdk-c\src\http/client.c ****     DBG("Protocol error"); \
  46:..\acn-sdk-c\src\http/client.c ****     soc_close(cli->sock); \
  47:..\acn-sdk-c\src\http/client.c ****     return -1; \
  48:..\acn-sdk-c\src\http/client.c ****   }
  49:..\acn-sdk-c\src\http/client.c **** 
  50:..\acn-sdk-c\src\http/client.c **** #define client_send(buf, size, cli) (*(cli->_w_func))((uint8_t*)(buf), (uint16_t)(size), (cli))
  51:..\acn-sdk-c\src\http/client.c **** #define client_recv(buf, size, cli) (*(cli->_r_func))((uint8_t*)(buf), (uint16_t)(size), (cli))
  52:..\acn-sdk-c\src\http/client.c **** 
  53:..\acn-sdk-c\src\http/client.c **** 
  54:..\acn-sdk-c\src\http/client.c **** #if !defined(__XCC__)
  55:..\acn-sdk-c\src\http/client.c **** static int recv_ssl(WOLFSSL *wsl, char* buf, int sz, void* vp) {
  56:..\acn-sdk-c\src\http/client.c ****     SSP_PARAMETER_NOT_USED(wsl);
  57:..\acn-sdk-c\src\http/client.c ****     http_client_t *cli = (http_client_t *)vp;
  58:..\acn-sdk-c\src\http/client.c ****     //      tcp->set_blocking(true, 15000);
  59:..\acn-sdk-c\src\http/client.c ****     if ( sz < 0 ) return sz;
  60:..\acn-sdk-c\src\http/client.c ****     int got = 0;
  61:..\acn-sdk-c\src\http/client.c ****     got = recv(cli->sock, buf, sz, 0);
  62:..\acn-sdk-c\src\http/client.c **** //    DBG("recv ssl %d [%d]", got, sz);
  63:..\acn-sdk-c\src\http/client.c ****     if (got == 0)  return -2;  // IO_ERR_WANT_READ;
  64:..\acn-sdk-c\src\http/client.c ****     return got;
  65:..\acn-sdk-c\src\http/client.c **** }
  66:..\acn-sdk-c\src\http/client.c **** 
  67:..\acn-sdk-c\src\http/client.c **** 
  68:..\acn-sdk-c\src\http/client.c **** static int send_ssl(WOLFSSL *wsl, char* buf, int sz, void* vp) {
  69:..\acn-sdk-c\src\http/client.c ****     SSP_PARAMETER_NOT_USED(wsl);
  70:..\acn-sdk-c\src\http/client.c ****     http_client_t *cli = (http_client_t *)vp;
  71:..\acn-sdk-c\src\http/client.c ****     if ( sz < 0 ) return sz;
  72:..\acn-sdk-c\src\http/client.c ****     int sent = 0;
  73:..\acn-sdk-c\src\http/client.c ****     sent = send(cli->sock, buf, sz, 0);
  74:..\acn-sdk-c\src\http/client.c **** //    DBG("send ssl %d [%d]", sent, sz);
  75:..\acn-sdk-c\src\http/client.c ****     if (sent == 0)
  76:..\acn-sdk-c\src\http/client.c ****         return -2;  // IO_ERR_WANT_WRITE
  77:..\acn-sdk-c\src\http/client.c ****     return sent;
  78:..\acn-sdk-c\src\http/client.c **** }
  79:..\acn-sdk-c\src\http/client.c **** #endif
  80:..\acn-sdk-c\src\http/client.c **** 
  81:..\acn-sdk-c\src\http/client.c **** static int simple_read(uint8_t *buf, uint16_t len, void *c) {
  82:..\acn-sdk-c\src\http/client.c ****     http_client_t *cli = (http_client_t *)c;
  83:..\acn-sdk-c\src\http/client.c ****     int ret;
  84:..\acn-sdk-c\src\http/client.c ****     ret = recv(cli->sock, (char*)buf, (int)len, 0);
  85:..\acn-sdk-c\src\http/client.c ****     if (ret > 0) buf[ret] = 0x00;
  86:..\acn-sdk-c\src\http/client.c **** //    DBG("%d|%s|", ret, buf);
  87:..\acn-sdk-c\src\http/client.c ****     return ret;
  88:..\acn-sdk-c\src\http/client.c **** }
  89:..\acn-sdk-c\src\http/client.c **** 
  90:..\acn-sdk-c\src\http/client.c **** static int simple_write(uint8_t *buf, uint16_t len, void *c) {
ARM GAS  C:\Users\ddemidov\AppData\Local\Temp\cch7zCWw.s 			page 3


  25              		.loc 1 90 0
  26              		.cfi_startproc
  27              	.LVL0:
  28 0000 38B5     		push	{r3, r4, r5, lr}
  29              		.cfi_def_cfa_offset 16
  30              		.cfi_offset 3, -16
  31              		.cfi_offset 4, -12
  32              		.cfi_offset 5, -8
  33              		.cfi_offset 14, -4
  34              		.loc 1 90 0
  35 0002 041C     		mov	r4, r0
  36 0004 0B1C     		mov	r3, r1
  37 0006 151C     		mov	r5, r2
  38              	.LVL1:
  91:..\acn-sdk-c\src\http/client.c ****     http_client_t *cli = (http_client_t *)c;
  92:..\acn-sdk-c\src\http/client.c ****     if ( !len ) len = (uint16_t)strlen((char*)buf);
  39              		.loc 1 92 0
  40 0008 0029     		cmp	r1, #0
  41 000a 02D1     		bne	.L2
  42              		.loc 1 92 0 is_stmt 0 discriminator 1
  43 000c FFF7FEFF 		bl	strlen
  44              	.LVL2:
  45 0010 83B2     		uxth	r3, r0
  46              	.LVL3:
  47              	.L2:
  93:..\acn-sdk-c\src\http/client.c **** //    DBG("%d|%s|", len, buf);
  94:..\acn-sdk-c\src\http/client.c ****     return send(cli->sock, (char*)buf, (int)len, 0);
  48              		.loc 1 94 0 is_stmt 1
  49 0012 2868     		ldr	r0, [r5]
  50 0014 1A1C     		mov	r2, r3
  51 0016 211C     		mov	r1, r4
  52 0018 0023     		mov	r3, #0
  53              	.LVL4:
  54 001a FFF7FEFF 		bl	send
  55              	.LVL5:
  95:..\acn-sdk-c\src\http/client.c **** }
  56              		.loc 1 95 0
  57              		@ sp needed
  58              	.LVL6:
  59              	.LVL7:
  60 001e 38BD     		pop	{r3, r4, r5, pc}
  61              		.cfi_endproc
  62              	.LFE3:
  63              		.size	simple_write, .-simple_write
  64              		.section	.text.simple_read,"ax",%progbits
  65              		.align	1
  66              		.code	16
  67              		.thumb_func
  68              		.type	simple_read, %function
  69              	simple_read:
  70              	.LFB2:
  81:..\acn-sdk-c\src\http/client.c ****     http_client_t *cli = (http_client_t *)c;
  71              		.loc 1 81 0
  72              		.cfi_startproc
  73              	.LVL8:
  74 0000 0B1C     		mov	r3, r1
  75 0002 10B5     		push	{r4, lr}
ARM GAS  C:\Users\ddemidov\AppData\Local\Temp\cch7zCWw.s 			page 4


  76              		.cfi_def_cfa_offset 8
  77              		.cfi_offset 4, -8
  78              		.cfi_offset 14, -4
  81:..\acn-sdk-c\src\http/client.c ****     http_client_t *cli = (http_client_t *)c;
  79              		.loc 1 81 0
  80 0004 041C     		mov	r4, r0
  84:..\acn-sdk-c\src\http/client.c ****     if (ret > 0) buf[ret] = 0x00;
  81              		.loc 1 84 0
  82 0006 1068     		ldr	r0, [r2]
  83              	.LVL9:
  84 0008 211C     		mov	r1, r4
  85              	.LVL10:
  86 000a 1A1C     		mov	r2, r3
  87              	.LVL11:
  88 000c 0023     		mov	r3, #0
  89 000e FFF7FEFF 		bl	recv
  90              	.LVL12:
  85:..\acn-sdk-c\src\http/client.c **** //    DBG("%d|%s|", ret, buf);
  91              		.loc 1 85 0
  92 0012 0028     		cmp	r0, #0
  93 0014 01DD     		ble	.L5
  85:..\acn-sdk-c\src\http/client.c **** //    DBG("%d|%s|", ret, buf);
  94              		.loc 1 85 0 is_stmt 0 discriminator 1
  95 0016 0023     		mov	r3, #0
  96 0018 2354     		strb	r3, [r4, r0]
  97              	.L5:
  88:..\acn-sdk-c\src\http/client.c **** 
  98              		.loc 1 88 0 is_stmt 1
  99              		@ sp needed
 100              	.LVL13:
 101 001a 10BD     		pop	{r4, pc}
 102              		.cfi_endproc
 103              	.LFE2:
 104              		.size	simple_read, .-simple_read
 105              		.section	.text.ssl_write,"ax",%progbits
 106              		.align	1
 107              		.code	16
 108              		.thumb_func
 109              		.type	ssl_write, %function
 110              	ssl_write:
 111              	.LFB5:
  96:..\acn-sdk-c\src\http/client.c **** 
  97:..\acn-sdk-c\src\http/client.c **** static int ssl_read(uint8_t *buf, uint16_t len, void *c) {
  98:..\acn-sdk-c\src\http/client.c ****     http_client_t *cli = (http_client_t *)c;
  99:..\acn-sdk-c\src\http/client.c ****     int ret = wolfSSL_read(cli->ssl, buf, (int)len);
 100:..\acn-sdk-c\src\http/client.c ****     if (ret > 0) buf[ret] = 0x00;
 101:..\acn-sdk-c\src\http/client.c **** //    DBG("[%d]{%s}", ret, buf);
 102:..\acn-sdk-c\src\http/client.c ****     return ret;
 103:..\acn-sdk-c\src\http/client.c **** }
 104:..\acn-sdk-c\src\http/client.c **** 
 105:..\acn-sdk-c\src\http/client.c **** static int ssl_write(uint8_t *buf, uint16_t len, void *c) {
 112              		.loc 1 105 0
 113              		.cfi_startproc
 114              	.LVL14:
 115 0000 38B5     		push	{r3, r4, r5, lr}
 116              		.cfi_def_cfa_offset 16
 117              		.cfi_offset 3, -16
ARM GAS  C:\Users\ddemidov\AppData\Local\Temp\cch7zCWw.s 			page 5


 118              		.cfi_offset 4, -12
 119              		.cfi_offset 5, -8
 120              		.cfi_offset 14, -4
 121              		.loc 1 105 0
 122 0002 041C     		mov	r4, r0
 123 0004 0B1C     		mov	r3, r1
 124 0006 151C     		mov	r5, r2
 125              	.LVL15:
 106:..\acn-sdk-c\src\http/client.c ****     http_client_t *cli = (http_client_t *)c;
 107:..\acn-sdk-c\src\http/client.c ****     if ( !len && buf ) len = (uint16_t)strlen((char*)buf);
 126              		.loc 1 107 0
 127 0008 0029     		cmp	r1, #0
 128 000a 04D1     		bne	.L7
 129              		.loc 1 107 0 is_stmt 0 discriminator 1
 130 000c 0028     		cmp	r0, #0
 131 000e 02D0     		beq	.L7
 132              		.loc 1 107 0 discriminator 2
 133 0010 FFF7FEFF 		bl	strlen
 134              	.LVL16:
 135 0014 83B2     		uxth	r3, r0
 136              	.LVL17:
 137              	.L7:
 108:..\acn-sdk-c\src\http/client.c **** //    DBG("[%d]|%s|",len, buf);
 109:..\acn-sdk-c\src\http/client.c ****     int ret = wolfSSL_write(cli->ssl, buf, (int)len);
 138              		.loc 1 109 0 is_stmt 1
 139 0016 6869     		ldr	r0, [r5, #20]
 140 0018 211C     		mov	r1, r4
 141 001a 1A1C     		mov	r2, r3
 142 001c FFF7FEFF 		bl	wolfSSL_write
 143              	.LVL18:
 110:..\acn-sdk-c\src\http/client.c ****     return ret;
 111:..\acn-sdk-c\src\http/client.c **** }
 144              		.loc 1 111 0
 145              		@ sp needed
 146              	.LVL19:
 147              	.LVL20:
 148 0020 38BD     		pop	{r3, r4, r5, pc}
 149              		.cfi_endproc
 150              	.LFE5:
 151              		.size	ssl_write, .-ssl_write
 152              		.section	.text.ssl_read,"ax",%progbits
 153              		.align	1
 154              		.code	16
 155              		.thumb_func
 156              		.type	ssl_read, %function
 157              	ssl_read:
 158              	.LFB4:
  97:..\acn-sdk-c\src\http/client.c ****     http_client_t *cli = (http_client_t *)c;
 159              		.loc 1 97 0
 160              		.cfi_startproc
 161              	.LVL21:
 162 0000 10B5     		push	{r4, lr}
 163              		.cfi_def_cfa_offset 8
 164              		.cfi_offset 4, -8
 165              		.cfi_offset 14, -4
  97:..\acn-sdk-c\src\http/client.c ****     http_client_t *cli = (http_client_t *)c;
 166              		.loc 1 97 0
ARM GAS  C:\Users\ddemidov\AppData\Local\Temp\cch7zCWw.s 			page 6


 167 0002 0B1C     		mov	r3, r1
 168 0004 041C     		mov	r4, r0
  99:..\acn-sdk-c\src\http/client.c ****     if (ret > 0) buf[ret] = 0x00;
 169              		.loc 1 99 0
 170 0006 5069     		ldr	r0, [r2, #20]
 171              	.LVL22:
 172 0008 211C     		mov	r1, r4
 173              	.LVL23:
 174 000a 1A1C     		mov	r2, r3
 175              	.LVL24:
 176 000c FFF7FEFF 		bl	wolfSSL_read
 177              	.LVL25:
 100:..\acn-sdk-c\src\http/client.c **** //    DBG("[%d]{%s}", ret, buf);
 178              		.loc 1 100 0
 179 0010 0028     		cmp	r0, #0
 180 0012 01DD     		ble	.L12
 100:..\acn-sdk-c\src\http/client.c **** //    DBG("[%d]{%s}", ret, buf);
 181              		.loc 1 100 0 is_stmt 0 discriminator 1
 182 0014 0023     		mov	r3, #0
 183 0016 2354     		strb	r3, [r4, r0]
 184              	.L12:
 103:..\acn-sdk-c\src\http/client.c **** 
 185              		.loc 1 103 0 is_stmt 1
 186              		@ sp needed
 187              	.LVL26:
 188 0018 10BD     		pop	{r4, pc}
 189              		.cfi_endproc
 190              	.LFE4:
 191              		.size	ssl_read, .-ssl_read
 192              		.section	.text.send_ssl,"ax",%progbits
 193              		.align	1
 194              		.code	16
 195              		.thumb_func
 196              		.type	send_ssl, %function
 197              	send_ssl:
 198              	.LFB1:
  68:..\acn-sdk-c\src\http/client.c ****     SSP_PARAMETER_NOT_USED(wsl);
 199              		.loc 1 68 0
 200              		.cfi_startproc
 201              	.LVL27:
 202 0000 08B5     		push	{r3, lr}
 203              		.cfi_def_cfa_offset 8
 204              		.cfi_offset 3, -8
 205              		.cfi_offset 14, -4
 206 0002 101E     		sub	r0, r2, #0
 207              	.LVL28:
  71:..\acn-sdk-c\src\http/client.c ****     int sent = 0;
 208              		.loc 1 71 0
 209 0004 07DB     		blt	.L14
 210              	.LVL29:
 211              	.LBB4:
 212              	.LBB5:
  73:..\acn-sdk-c\src\http/client.c **** //    DBG("send ssl %d [%d]", sent, sz);
 213              		.loc 1 73 0
 214 0006 1868     		ldr	r0, [r3]
 215 0008 0023     		mov	r3, #0
 216              	.LVL30:
ARM GAS  C:\Users\ddemidov\AppData\Local\Temp\cch7zCWw.s 			page 7


 217 000a FFF7FEFF 		bl	send
 218              	.LVL31:
  75:..\acn-sdk-c\src\http/client.c ****         return -2;  // IO_ERR_WANT_WRITE
 219              		.loc 1 75 0
 220 000e 0028     		cmp	r0, #0
 221 0010 01D1     		bne	.L14
  76:..\acn-sdk-c\src\http/client.c ****     return sent;
 222              		.loc 1 76 0
 223 0012 0220     		mov	r0, #2
 224              	.LVL32:
 225 0014 4042     		neg	r0, r0
 226              	.LVL33:
 227              	.L14:
 228              	.LBE5:
 229              	.LBE4:
  78:..\acn-sdk-c\src\http/client.c **** #endif
 230              		.loc 1 78 0
 231              		@ sp needed
 232 0016 08BD     		pop	{r3, pc}
 233              		.cfi_endproc
 234              	.LFE1:
 235              		.size	send_ssl, .-send_ssl
 236              		.section	.text.recv_ssl,"ax",%progbits
 237              		.align	1
 238              		.code	16
 239              		.thumb_func
 240              		.type	recv_ssl, %function
 241              	recv_ssl:
 242              	.LFB0:
  55:..\acn-sdk-c\src\http/client.c ****     SSP_PARAMETER_NOT_USED(wsl);
 243              		.loc 1 55 0
 244              		.cfi_startproc
 245              	.LVL34:
 246 0000 08B5     		push	{r3, lr}
 247              		.cfi_def_cfa_offset 8
 248              		.cfi_offset 3, -8
 249              		.cfi_offset 14, -4
 250 0002 101E     		sub	r0, r2, #0
 251              	.LVL35:
  59:..\acn-sdk-c\src\http/client.c ****     int got = 0;
 252              		.loc 1 59 0
 253 0004 07DB     		blt	.L18
 254              	.LVL36:
 255              	.LBB8:
 256              	.LBB9:
  61:..\acn-sdk-c\src\http/client.c **** //    DBG("recv ssl %d [%d]", got, sz);
 257              		.loc 1 61 0
 258 0006 1868     		ldr	r0, [r3]
 259 0008 0023     		mov	r3, #0
 260              	.LVL37:
 261 000a FFF7FEFF 		bl	recv
 262              	.LVL38:
  63:..\acn-sdk-c\src\http/client.c ****     return got;
 263              		.loc 1 63 0
 264 000e 0028     		cmp	r0, #0
 265 0010 01D1     		bne	.L18
 266 0012 0220     		mov	r0, #2
ARM GAS  C:\Users\ddemidov\AppData\Local\Temp\cch7zCWw.s 			page 8


 267              	.LVL39:
 268 0014 4042     		neg	r0, r0
 269              	.LVL40:
 270              	.L18:
 271              	.LBE9:
 272              	.LBE8:
  65:..\acn-sdk-c\src\http/client.c **** 
 273              		.loc 1 65 0
 274              		@ sp needed
 275 0016 08BD     		pop	{r3, pc}
 276              		.cfi_endproc
 277              	.LFE0:
 278              		.size	recv_ssl, .-recv_ssl
 279              		.section	.text.http_client_init,"ax",%progbits
 280              		.align	1
 281              		.global	http_client_init
 282              		.code	16
 283              		.thumb_func
 284              		.type	http_client_init, %function
 285              	http_client_init:
 286              	.LFB6:
 112:..\acn-sdk-c\src\http/client.c **** 
 113:..\acn-sdk-c\src\http/client.c **** #ifdef DEBUG_WOLFSSL
 114:..\acn-sdk-c\src\http/client.c **** static void cli_wolfSSL_Logging_cb(const int logLevel,
 115:..\acn-sdk-c\src\http/client.c ****                                   const char *const logMessage) {
 116:..\acn-sdk-c\src\http/client.c ****     DBG("[http]:%d (%s)", logLevel, logMessage);
 117:..\acn-sdk-c\src\http/client.c **** }
 118:..\acn-sdk-c\src\http/client.c **** #endif
 119:..\acn-sdk-c\src\http/client.c **** 
 120:..\acn-sdk-c\src\http/client.c **** void http_client_init(http_client_t *cli) {
 287              		.loc 1 120 0
 288              		.cfi_startproc
 289              	.LVL41:
 290 0000 38B5     		push	{r3, r4, r5, lr}
 291              		.cfi_def_cfa_offset 16
 292              		.cfi_offset 3, -16
 293              		.cfi_offset 4, -12
 294              		.cfi_offset 5, -8
 295              		.cfi_offset 14, -4
 121:..\acn-sdk-c\src\http/client.c ****     cli->sock = -1;
 296              		.loc 1 121 0
 297 0002 0123     		mov	r3, #1
 122:..\acn-sdk-c\src\http/client.c ****     cli->response_code = 0;
 298              		.loc 1 122 0
 299 0004 0025     		mov	r5, #0
 121:..\acn-sdk-c\src\http/client.c ****     cli->sock = -1;
 300              		.loc 1 121 0
 301 0006 5B42     		neg	r3, r3
 302 0008 0360     		str	r3, [r0]
 123:..\acn-sdk-c\src\http/client.c ****     cli->timeout = 5000;
 303              		.loc 1 123 0
 304 000a 084B     		ldr	r3, .L22
 122:..\acn-sdk-c\src\http/client.c ****     cli->response_code = 0;
 305              		.loc 1 122 0
 306 000c 8560     		str	r5, [r0, #8]
 307              		.loc 1 123 0
 308 000e 4360     		str	r3, [r0, #4]
ARM GAS  C:\Users\ddemidov\AppData\Local\Temp\cch7zCWw.s 			page 9


 124:..\acn-sdk-c\src\http/client.c ****     cli->_r_func = simple_read;
 309              		.loc 1 124 0
 310 0010 074B     		ldr	r3, .L22+4
 120:..\acn-sdk-c\src\http/client.c ****     cli->sock = -1;
 311              		.loc 1 120 0
 312 0012 041C     		mov	r4, r0
 313              		.loc 1 124 0
 314 0014 8361     		str	r3, [r0, #24]
 125:..\acn-sdk-c\src\http/client.c ****     cli->_w_func = simple_write;
 315              		.loc 1 125 0
 316 0016 074B     		ldr	r3, .L22+8
 126:..\acn-sdk-c\src\http/client.c **** #if !defined(__XCC__)
 127:..\acn-sdk-c\src\http/client.c ****     wolfSSL_Init();
 128:..\acn-sdk-c\src\http/client.c ****     cli->method = wolfTLSv1_2_client_method();
 129:..\acn-sdk-c\src\http/client.c **** #endif
 130:..\acn-sdk-c\src\http/client.c **** #ifdef DEBUG
 131:..\acn-sdk-c\src\http/client.c **** //    wolfSSL_SetLoggingCb(cli_wolfSSL_Logging_cb);
 132:..\acn-sdk-c\src\http/client.c **** //    wolfSSL_Debugging_ON();
 133:..\acn-sdk-c\src\http/client.c **** #endif
 134:..\acn-sdk-c\src\http/client.c ****     cli->ctx = NULL;
 135:..\acn-sdk-c\src\http/client.c ****     cli->ssl = NULL;
 136:..\acn-sdk-c\src\http/client.c **** }
 317              		.loc 1 136 0
 318              		@ sp needed
 125:..\acn-sdk-c\src\http/client.c ****     cli->_w_func = simple_write;
 319              		.loc 1 125 0
 320 0018 C361     		str	r3, [r0, #28]
 127:..\acn-sdk-c\src\http/client.c ****     cli->method = wolfTLSv1_2_client_method();
 321              		.loc 1 127 0
 322 001a FFF7FEFF 		bl	wolfSSL_Init
 323              	.LVL42:
 128:..\acn-sdk-c\src\http/client.c **** #endif
 324              		.loc 1 128 0
 325 001e FFF7FEFF 		bl	wolfTLSv1_2_client_method
 326              	.LVL43:
 134:..\acn-sdk-c\src\http/client.c ****     cli->ssl = NULL;
 327              		.loc 1 134 0
 328 0022 2561     		str	r5, [r4, #16]
 135:..\acn-sdk-c\src\http/client.c **** }
 329              		.loc 1 135 0
 330 0024 6561     		str	r5, [r4, #20]
 128:..\acn-sdk-c\src\http/client.c **** #endif
 331              		.loc 1 128 0
 332 0026 E060     		str	r0, [r4, #12]
 333              	.LVL44:
 334              		.loc 1 136 0
 335 0028 38BD     		pop	{r3, r4, r5, pc}
 336              	.L23:
 337 002a C046     		.align	2
 338              	.L22:
 339 002c 88130000 		.word	5000
 340 0030 00000000 		.word	simple_read
 341 0034 00000000 		.word	simple_write
 342              		.cfi_endproc
 343              	.LFE6:
 344              		.size	http_client_init, .-http_client_init
 345              		.section	.text.http_client_free,"ax",%progbits
ARM GAS  C:\Users\ddemidov\AppData\Local\Temp\cch7zCWw.s 			page 10


 346              		.align	1
 347              		.global	http_client_free
 348              		.code	16
 349              		.thumb_func
 350              		.type	http_client_free, %function
 351              	http_client_free:
 352              	.LFB7:
 137:..\acn-sdk-c\src\http/client.c **** 
 138:..\acn-sdk-c\src\http/client.c **** void http_client_free(http_client_t *cli) {
 353              		.loc 1 138 0
 354              		.cfi_startproc
 355              	.LVL45:
 356 0000 10B5     		push	{r4, lr}
 357              		.cfi_def_cfa_offset 8
 358              		.cfi_offset 4, -8
 359              		.cfi_offset 14, -4
 360              		.loc 1 138 0
 361 0002 041C     		mov	r4, r0
 139:..\acn-sdk-c\src\http/client.c **** #if defined(__XCC__)
 140:..\acn-sdk-c\src\http/client.c ****   if (cli->ssl) {
 141:..\acn-sdk-c\src\http/client.c ****     qcom_SSL_shutdown(cli->ssl);
 142:..\acn-sdk-c\src\http/client.c ****     qcom_SSL_ctx_free(cli->ctx);
 143:..\acn-sdk-c\src\http/client.c ****   }
 144:..\acn-sdk-c\src\http/client.c **** #else
 145:..\acn-sdk-c\src\http/client.c ****     wolfSSL_free(cli->ssl);
 362              		.loc 1 145 0
 363 0004 4069     		ldr	r0, [r0, #20]
 364              	.LVL46:
 365 0006 FFF7FEFF 		bl	wolfSSL_free
 366              	.LVL47:
 146:..\acn-sdk-c\src\http/client.c ****     wolfSSL_CTX_free(cli->ctx);
 367              		.loc 1 146 0
 368 000a 2069     		ldr	r0, [r4, #16]
 369 000c FFF7FEFF 		bl	wolfSSL_CTX_free
 370              	.LVL48:
 147:..\acn-sdk-c\src\http/client.c ****     wolfSSL_Cleanup();
 371              		.loc 1 147 0
 372 0010 FFF7FEFF 		bl	wolfSSL_Cleanup
 373              	.LVL49:
 148:..\acn-sdk-c\src\http/client.c **** #endif
 149:..\acn-sdk-c\src\http/client.c ****     cli->ssl = NULL;
 374              		.loc 1 149 0
 375 0014 0023     		mov	r3, #0
 150:..\acn-sdk-c\src\http/client.c ****     cli->ctx = NULL;
 151:..\acn-sdk-c\src\http/client.c **** }
 376              		.loc 1 151 0
 377              		@ sp needed
 149:..\acn-sdk-c\src\http/client.c ****     cli->ctx = NULL;
 378              		.loc 1 149 0
 379 0016 6361     		str	r3, [r4, #20]
 150:..\acn-sdk-c\src\http/client.c ****     cli->ctx = NULL;
 380              		.loc 1 150 0
 381 0018 2361     		str	r3, [r4, #16]
 382              	.LVL50:
 383              		.loc 1 151 0
 384 001a 10BD     		pop	{r4, pc}
 385              		.cfi_endproc
ARM GAS  C:\Users\ddemidov\AppData\Local\Temp\cch7zCWw.s 			page 11


 386              	.LFE7:
 387              		.size	http_client_free, .-http_client_free
 388              		.global	__aeabi_uidiv
 389              		.global	__aeabi_uidivmod
 390              		.section	.text.http_client_do,"ax",%progbits
 391              		.align	1
 392              		.global	http_client_do
 393              		.code	16
 394              		.thumb_func
 395              		.type	http_client_do, %function
 396              	http_client_do:
 397              	.LFB12:
 152:..\acn-sdk-c\src\http/client.c **** 
 153:..\acn-sdk-c\src\http/client.c **** static int send_start(http_client_t *cli, http_request_t *req) {
 154:..\acn-sdk-c\src\http/client.c ****     char buf[CHUNK_SIZE];
 155:..\acn-sdk-c\src\http/client.c ****     int ret;
 156:..\acn-sdk-c\src\http/client.c ****     ret = snprintf(buf, CHUNK_SIZE, "%s %s", req->meth, req->uri);
 157:..\acn-sdk-c\src\http/client.c ****     buf[ret] = '\0';
 158:..\acn-sdk-c\src\http/client.c ****     if ( req->query ) {
 159:..\acn-sdk-c\src\http/client.c ****         char queryString[CHUNK_SIZE];
 160:..\acn-sdk-c\src\http/client.c ****         strcpy(queryString, "?");
 161:..\acn-sdk-c\src\http/client.c ****         http_query_t *query = req->query;
 162:..\acn-sdk-c\src\http/client.c ****         while ( query ) {
 163:..\acn-sdk-c\src\http/client.c ****             strcat(queryString, (char*)query->key);
 164:..\acn-sdk-c\src\http/client.c ****             strcat(queryString, "=");
 165:..\acn-sdk-c\src\http/client.c ****             strcat(queryString, (char*)query->value);
 166:..\acn-sdk-c\src\http/client.c ****             strcat(buf, queryString);
 167:..\acn-sdk-c\src\http/client.c ****             strcpy(queryString, "&");
 168:..\acn-sdk-c\src\http/client.c ****             query = query->next;
 169:..\acn-sdk-c\src\http/client.c ****         }
 170:..\acn-sdk-c\src\http/client.c ****     }
 171:..\acn-sdk-c\src\http/client.c ****     strcat(buf, " HTTP/1.1\r\n");
 172:..\acn-sdk-c\src\http/client.c ****     if ( (ret = client_send(buf, 0, cli)) < 0 ) {
 173:..\acn-sdk-c\src\http/client.c ****         return ret;
 174:..\acn-sdk-c\src\http/client.c ****     }
 175:..\acn-sdk-c\src\http/client.c ****     ret = snprintf(buf, CHUNK_SIZE, "Host: %s:%d\r\n", req->host, req->port);
 176:..\acn-sdk-c\src\http/client.c ****     buf[ret] = '\0';
 177:..\acn-sdk-c\src\http/client.c ****     if ( (ret = client_send(buf, 0, cli)) < 0 ) {
 178:..\acn-sdk-c\src\http/client.c ****         return ret;
 179:..\acn-sdk-c\src\http/client.c ****     }
 180:..\acn-sdk-c\src\http/client.c ****     return 0;
 181:..\acn-sdk-c\src\http/client.c **** }
 182:..\acn-sdk-c\src\http/client.c **** 
 183:..\acn-sdk-c\src\http/client.c **** static int send_header(http_client_t *cli, http_request_t *req) {
 184:..\acn-sdk-c\src\http/client.c ****     char buf[CHUNK_SIZE];
 185:..\acn-sdk-c\src\http/client.c ****     int ret;
 186:..\acn-sdk-c\src\http/client.c ****     if ( req->payload.buf && req->payload.size > 0 ) {
 187:..\acn-sdk-c\src\http/client.c ****         if ( req->is_chunked ) {
 188:..\acn-sdk-c\src\http/client.c ****             ret = client_send("Transfer-Encoding: chunked\r\n", 0, cli);
 189:..\acn-sdk-c\src\http/client.c ****         } else {
 190:..\acn-sdk-c\src\http/client.c ****             ret = snprintf(buf, sizeof(buf), "Content-Length: %lu\r\n", (long unsigned int)req->pay
 191:..\acn-sdk-c\src\http/client.c ****             buf[ret] = '\0';
 192:..\acn-sdk-c\src\http/client.c ****             ret = client_send(buf, 0, cli);
 193:..\acn-sdk-c\src\http/client.c ****         }
 194:..\acn-sdk-c\src\http/client.c ****         if ( ret < 0 ) return ret;
 195:..\acn-sdk-c\src\http/client.c ****         ret = snprintf(buf, sizeof(buf), "Content-Type: %s\r\n", req->content_type.value);
 196:..\acn-sdk-c\src\http/client.c ****         buf[ret] = '\0';
ARM GAS  C:\Users\ddemidov\AppData\Local\Temp\cch7zCWw.s 			page 12


 197:..\acn-sdk-c\src\http/client.c ****         if ( (ret = client_send(buf, 0, cli)) < 0 ) return ret;
 198:..\acn-sdk-c\src\http/client.c ****     }
 199:..\acn-sdk-c\src\http/client.c **** 
 200:..\acn-sdk-c\src\http/client.c ****     http_header_t *head = req->header;
 201:..\acn-sdk-c\src\http/client.c ****     while( head ) {
 202:..\acn-sdk-c\src\http/client.c ****         strcpy(buf, (char*)head->key);
 203:..\acn-sdk-c\src\http/client.c ****         strcat(buf, ": ");
 204:..\acn-sdk-c\src\http/client.c ****         strcat(buf, (char*)head->value);
 205:..\acn-sdk-c\src\http/client.c ****         strcat(buf, "\r\n");
 206:..\acn-sdk-c\src\http/client.c ****         if ( (ret = client_send(buf, 0, cli)) < 0 ) return ret;
 207:..\acn-sdk-c\src\http/client.c ****         head = head->next;
 208:..\acn-sdk-c\src\http/client.c ****     }
 209:..\acn-sdk-c\src\http/client.c ****     return client_send((uint8_t*)"\r\n", 0, cli);
 210:..\acn-sdk-c\src\http/client.c **** }
 211:..\acn-sdk-c\src\http/client.c **** 
 212:..\acn-sdk-c\src\http/client.c **** static int send_payload(http_client_t *cli, http_request_t *req) {
 213:..\acn-sdk-c\src\http/client.c ****     if ( req->payload.buf && req->payload.size > 0 ) {
 214:..\acn-sdk-c\src\http/client.c ****         if ( req->is_chunked ) {
 215:..\acn-sdk-c\src\http/client.c ****             char *data = (char*)req->payload.buf;
 216:..\acn-sdk-c\src\http/client.c ****             int len = (int)req->payload.size;
 217:..\acn-sdk-c\src\http/client.c ****             int trData = 0;
 218:..\acn-sdk-c\src\http/client.c ****             while ( len >= 0 ) {
 219:..\acn-sdk-c\src\http/client.c ****                 char buf[6];
 220:..\acn-sdk-c\src\http/client.c ****                 int chunk = len > CHUNK_SIZE ? CHUNK_SIZE : len;
 221:..\acn-sdk-c\src\http/client.c ****                 int ret = sprintf(buf, "%02X\r\n", chunk);
 222:..\acn-sdk-c\src\http/client.c ****                 client_send(buf, ret, cli);
 223:..\acn-sdk-c\src\http/client.c ****                 if ( chunk ) client_send(data + trData, chunk, cli);
 224:..\acn-sdk-c\src\http/client.c ****                 trData += chunk;
 225:..\acn-sdk-c\src\http/client.c ****                 len -= chunk;
 226:..\acn-sdk-c\src\http/client.c ****                 client_send("\r\n", 0, cli);
 227:..\acn-sdk-c\src\http/client.c ****                 if ( !chunk ) break;
 228:..\acn-sdk-c\src\http/client.c ****             }
 229:..\acn-sdk-c\src\http/client.c ****             return 0;
 230:..\acn-sdk-c\src\http/client.c ****         } else {
 231:..\acn-sdk-c\src\http/client.c ****           int ret = client_send(req->payload.buf, req->payload.size, cli);
 232:..\acn-sdk-c\src\http/client.c ****           return ret;
 233:..\acn-sdk-c\src\http/client.c ****         }
 234:..\acn-sdk-c\src\http/client.c ****     }
 235:..\acn-sdk-c\src\http/client.c ****     return -1;
 236:..\acn-sdk-c\src\http/client.c **** }
 237:..\acn-sdk-c\src\http/client.c **** 
 238:..\acn-sdk-c\src\http/client.c **** static int receive_response(http_client_t *cli, http_response_t *res, char *buf, size_t *len) {
 239:..\acn-sdk-c\src\http/client.c ****     int ret;
 240:..\acn-sdk-c\src\http/client.c ****     if ( (ret = client_recv(buf, 20, cli)) < 0 ) return ret;
 241:..\acn-sdk-c\src\http/client.c ****     *len = (size_t)ret;
 242:..\acn-sdk-c\src\http/client.c ****     char* crlfPtr = strstr(buf, "\r\n");
 243:..\acn-sdk-c\src\http/client.c **** 
 244:..\acn-sdk-c\src\http/client.c ****     while( crlfPtr == NULL ) {
 245:..\acn-sdk-c\src\http/client.c ****         if( *len < CHUNK_SIZE - 1 ) {
 246:..\acn-sdk-c\src\http/client.c ****             size_t newTrfLen;
 247:..\acn-sdk-c\src\http/client.c ****             if ( (ret = client_recv(buf + *len, 10, cli)) < 0 ) return ret;
 248:..\acn-sdk-c\src\http/client.c ****             newTrfLen = (size_t)ret;
 249:..\acn-sdk-c\src\http/client.c ****             *len += newTrfLen;
 250:..\acn-sdk-c\src\http/client.c ****         } else {
 251:..\acn-sdk-c\src\http/client.c ****             return -1;
 252:..\acn-sdk-c\src\http/client.c ****         }
 253:..\acn-sdk-c\src\http/client.c ****         crlfPtr = strstr(buf, "\r\n");
ARM GAS  C:\Users\ddemidov\AppData\Local\Temp\cch7zCWw.s 			page 13


 254:..\acn-sdk-c\src\http/client.c ****     }
 255:..\acn-sdk-c\src\http/client.c **** 
 256:..\acn-sdk-c\src\http/client.c ****     int crlfPos = crlfPtr - buf;
 257:..\acn-sdk-c\src\http/client.c ****     if ( crlfPos < 0 && crlfPos > (int)(*len) )
 258:..\acn-sdk-c\src\http/client.c ****         return -1;
 259:..\acn-sdk-c\src\http/client.c ****     buf[crlfPos] = '\0';
 260:..\acn-sdk-c\src\http/client.c ****     DBG("resp: {%s}", buf);
 261:..\acn-sdk-c\src\http/client.c **** 
 262:..\acn-sdk-c\src\http/client.c ****     if( sscanf(buf, "HTTP/1.1 %d", &res->m_httpResponseCode) != 1 ) {
 263:..\acn-sdk-c\src\http/client.c ****         DBG("Not a correct HTTP answer : %s\n", buf);
 264:..\acn-sdk-c\src\http/client.c ****         return -1;
 265:..\acn-sdk-c\src\http/client.c ****     }
 266:..\acn-sdk-c\src\http/client.c **** 
 267:..\acn-sdk-c\src\http/client.c ****     if ( *len < (size_t)crlfPos + 2 ) {
 268:..\acn-sdk-c\src\http/client.c ****         DBG("receive_response memmove warning [%08x] %d, %d", (int)buf, crlfPos, *len);
 269:..\acn-sdk-c\src\http/client.c ****     }
 270:..\acn-sdk-c\src\http/client.c ****     memmove(buf, buf+crlfPos+2, *len - (size_t)(crlfPos + 2) + 1 ); //Be sure to move NULL-terminat
 271:..\acn-sdk-c\src\http/client.c ****     *len -= (size_t)(crlfPos + 2);
 272:..\acn-sdk-c\src\http/client.c **** 
 273:..\acn-sdk-c\src\http/client.c ****     if( (res->m_httpResponseCode < 200) || (res->m_httpResponseCode >= 300) ) {
 274:..\acn-sdk-c\src\http/client.c ****         //Did not return a 2xx code; TODO fetch headers/(&data?) anyway and implement a mean of wri
 275:..\acn-sdk-c\src\http/client.c ****         DBG("Response code %d", res->m_httpResponseCode);
 276:..\acn-sdk-c\src\http/client.c ****         DBG("Protocol error");
 277:..\acn-sdk-c\src\http/client.c ****         return -1;
 278:..\acn-sdk-c\src\http/client.c ****     }
 279:..\acn-sdk-c\src\http/client.c ****     cli->response_code = res->m_httpResponseCode;
 280:..\acn-sdk-c\src\http/client.c ****     return 0;
 281:..\acn-sdk-c\src\http/client.c **** }
 282:..\acn-sdk-c\src\http/client.c **** 
 283:..\acn-sdk-c\src\http/client.c **** int http_client_do(http_client_t *cli, http_request_t *req, http_response_t *res) {
 398              		.loc 1 283 0
 399              		.cfi_startproc
 400              	.LVL51:
 401 0000 F0B5     		push	{r4, r5, r6, r7, lr}
 402              		.cfi_def_cfa_offset 20
 403              		.cfi_offset 4, -20
 404              		.cfi_offset 5, -16
 405              		.cfi_offset 6, -12
 406              		.cfi_offset 7, -8
 407              		.cfi_offset 14, -4
 408 0002 C54C     		ldr	r4, .L142
 409 0004 171C     		mov	r7, r2
 410 0006 A544     		add	sp, sp, r4
 411              		.cfi_def_cfa_offset 848
 412              		.loc 1 283 0
 413 0008 0391     		str	r1, [sp, #12]
 414 000a 041C     		mov	r4, r0
 284:..\acn-sdk-c\src\http/client.c ****     int ret;
 285:..\acn-sdk-c\src\http/client.c ****     memset(res, 0x00, sizeof(http_response_t));
 415              		.loc 1 285 0
 416 000c 0021     		mov	r1, #0
 417              	.LVL52:
 418 000e 101C     		mov	r0, r2
 419              	.LVL53:
 420 0010 2022     		mov	r2, #32
 421              	.LVL54:
 422 0012 FFF7FEFF 		bl	memset
ARM GAS  C:\Users\ddemidov\AppData\Local\Temp\cch7zCWw.s 			page 14


 423              	.LVL55:
 286:..\acn-sdk-c\src\http/client.c ****     ret = socket(PF_INET, SOCK_STREAM, IPPROTO_TCP);
 424              		.loc 1 286 0
 425 0016 0220     		mov	r0, #2
 426 0018 0121     		mov	r1, #1
 427 001a 0622     		mov	r2, #6
 428 001c FFF7FEFF 		bl	socket
 429              	.LVL56:
 430 0020 0290     		str	r0, [sp, #8]
 287:..\acn-sdk-c\src\http/client.c ****     if ( ret < 0 ) return ret;
 431              		.loc 1 287 0
 432 0022 0028     		cmp	r0, #0
 433 0024 00DA     		bge	.LCB402
 434 0026 36E3     		b	.L129	@long jump
 435              	.LCB402:
 288:..\acn-sdk-c\src\http/client.c ****     cli->sock = ret;
 289:..\acn-sdk-c\src\http/client.c ****     struct sockaddr_in serv;
 290:..\acn-sdk-c\src\http/client.c ****     struct hostent *serv_resolve;
 291:..\acn-sdk-c\src\http/client.c ****     serv_resolve = gethostbyname((char*)req->host);
 436              		.loc 1 291 0
 437 0028 039E     		ldr	r6, [sp, #12]
 288:..\acn-sdk-c\src\http/client.c ****     cli->sock = ret;
 438              		.loc 1 288 0
 439 002a 2060     		str	r0, [r4]
 440              		.loc 1 291 0
 441 002c 0836     		add	r6, r6, #8
 442 002e 301C     		mov	r0, r6
 443              	.LVL57:
 444 0030 FFF7FEFF 		bl	gethostbyname
 445              	.LVL58:
 446 0034 051E     		sub	r5, r0, #0
 447              	.LVL59:
 292:..\acn-sdk-c\src\http/client.c ****     if (serv_resolve == NULL) {
 293:..\acn-sdk-c\src\http/client.c ****         DBG("ERROR, no such host");
 448              		.loc 1 293 0
 449 0036 B948     		ldr	r0, .L142+4
 450              	.LVL60:
 292:..\acn-sdk-c\src\http/client.c ****     if (serv_resolve == NULL) {
 451              		.loc 1 292 0
 452 0038 00D1     		bne	.LCB416
 453 003a CEE0     		b	.L138	@long jump
 454              	.LCB416:
 294:..\acn-sdk-c\src\http/client.c ****         return -1;
 295:..\acn-sdk-c\src\http/client.c ****     }
 296:..\acn-sdk-c\src\http/client.c ****     memset(&serv, 0, sizeof(serv));
 455              		.loc 1 296 0
 456 003c 0021     		mov	r1, #0
 457 003e 1022     		mov	r2, #16
 458 0040 0AA8     		add	r0, sp, #40
 459 0042 FFF7FEFF 		bl	memset
 460              	.LVL61:
 297:..\acn-sdk-c\src\http/client.c ****     serv.sin_family = PF_INET;
 461              		.loc 1 297 0
 462 0046 0223     		mov	r3, #2
 463 0048 04AA     		add	r2, sp, #16
 464 004a 5376     		strb	r3, [r2, #25]
 298:..\acn-sdk-c\src\http/client.c ****     bcopy((char *)serv_resolve->h_addr,
ARM GAS  C:\Users\ddemidov\AppData\Local\Temp\cch7zCWw.s 			page 15


 465              		.loc 1 298 0
 466 004c 6869     		ldr	r0, [r5, #20]
 467 004e EA68     		ldr	r2, [r5, #12]
 468 0050 0BA9     		add	r1, sp, #44
 469 0052 FFF7FEFF 		bl	bcopy
 470              	.LVL62:
 299:..\acn-sdk-c\src\http/client.c ****             (char *)&serv.sin_addr.s_addr,
 300:..\acn-sdk-c\src\http/client.c ****             (size_t)serv_resolve->h_length);
 301:..\acn-sdk-c\src\http/client.c ****     serv.sin_port = htons(req->port);
 471              		.loc 1 301 0
 472 0056 039B     		ldr	r3, [sp, #12]
 473 0058 D033     		add	r3, r3, #208
 474 005a 0293     		str	r3, [sp, #8]
 475              	.LVL63:
 476 005c 1888     		ldrh	r0, [r3]
 477 005e FFF7FEFF 		bl	_htons
 478              	.LVL64:
 302:..\acn-sdk-c\src\http/client.c **** //    serv.sin_addr.s_addr = serv.sin_addr.s_addr;
 303:..\acn-sdk-c\src\http/client.c **** 
 304:..\acn-sdk-c\src\http/client.c ****     struct timeval tv;
 305:..\acn-sdk-c\src\http/client.c ****     tv.tv_sec = cli->timeout / 1000;
 479              		.loc 1 305 0
 480 0062 FA21     		mov	r1, #250
 481 0064 6568     		ldr	r5, [r4, #4]
 482              	.LVL65:
 301:..\acn-sdk-c\src\http/client.c **** //    serv.sin_addr.s_addr = serv.sin_addr.s_addr;
 483              		.loc 1 301 0
 484 0066 04AB     		add	r3, sp, #16
 485 0068 5883     		strh	r0, [r3, #26]
 486              		.loc 1 305 0
 487 006a 8900     		lsl	r1, r1, #2
 488 006c 281C     		mov	r0, r5
 489 006e FFF7FEFF 		bl	__aeabi_uidiv
 490              	.LVL66:
 306:..\acn-sdk-c\src\http/client.c ****     tv.tv_usec =  ( cli->timeout % 1000 ) * 1000;
 491              		.loc 1 306 0
 492 0072 FA21     		mov	r1, #250
 305:..\acn-sdk-c\src\http/client.c ****     tv.tv_usec =  ( cli->timeout % 1000 ) * 1000;
 493              		.loc 1 305 0
 494 0074 0890     		str	r0, [sp, #32]
 495              		.loc 1 306 0
 496 0076 8900     		lsl	r1, r1, #2
 497 0078 281C     		mov	r0, r5
 498 007a FFF7FEFF 		bl	__aeabi_uidivmod
 499              	.LVL67:
 500 007e FA23     		mov	r3, #250
 501 0080 9B00     		lsl	r3, r3, #2
 502 0082 5943     		mul	r1, r3
 307:..\acn-sdk-c\src\http/client.c ****     setsockopt(cli->sock, SOL_SOCKET, SO_RCVTIMEO, (char *)&tv, sizeof(struct timeval));
 503              		.loc 1 307 0
 504 0084 0823     		mov	r3, #8
 306:..\acn-sdk-c\src\http/client.c ****     tv.tv_usec =  ( cli->timeout % 1000 ) * 1000;
 505              		.loc 1 306 0
 506 0086 0991     		str	r1, [sp, #36]
 507              		.loc 1 307 0
 508 0088 0093     		str	r3, [sp]
 509 008a A549     		ldr	r1, .L142+8
ARM GAS  C:\Users\ddemidov\AppData\Local\Temp\cch7zCWw.s 			page 16


 510 008c A54A     		ldr	r2, .L142+12
 511 008e 2068     		ldr	r0, [r4]
 512 0090 08AB     		add	r3, sp, #32
 513 0092 FFF7FEFF 		bl	setsockopt
 514              	.LVL68:
 308:..\acn-sdk-c\src\http/client.c **** 
 309:..\acn-sdk-c\src\http/client.c ****     ret = connect(cli->sock, (struct sockaddr*)&serv, sizeof(serv));
 515              		.loc 1 309 0
 516 0096 2068     		ldr	r0, [r4]
 517 0098 0AA9     		add	r1, sp, #40
 518 009a 1022     		mov	r2, #16
 519 009c FFF7FEFF 		bl	connect
 520              	.LVL69:
 310:..\acn-sdk-c\src\http/client.c ****     if ( ret < 0 ) {
 521              		.loc 1 310 0
 522 00a0 0028     		cmp	r0, #0
 523 00a2 01DA     		bge	.L28
 524              	.LBB39:
 311:..\acn-sdk-c\src\http/client.c ****         DBG("connect fail");
 525              		.loc 1 311 0
 526 00a4 A048     		ldr	r0, .L142+16
 527              	.LVL70:
 528 00a6 65E2     		b	.L136
 529              	.LVL71:
 530              	.L28:
 531              	.LBE39:
 312:..\acn-sdk-c\src\http/client.c ****         soc_close(cli->sock);
 313:..\acn-sdk-c\src\http/client.c ****         return -1;
 314:..\acn-sdk-c\src\http/client.c ****     }
 315:..\acn-sdk-c\src\http/client.c ****     DBG("connect done");
 532              		.loc 1 315 0
 533 00a8 A048     		ldr	r0, .L142+20
 534              	.LVL72:
 535 00aa FFF7FEFF 		bl	dbg_line
 536              	.LVL73:
 316:..\acn-sdk-c\src\http/client.c **** 
 317:..\acn-sdk-c\src\http/client.c ****     if ( req->is_cipher ) {
 537              		.loc 1 317 0
 538 00ae 039B     		ldr	r3, [sp, #12]
 539 00b0 D833     		add	r3, r3, #216
 540 00b2 1B68     		ldr	r3, [r3]
 541 00b4 002B     		cmp	r3, #0
 542 00b6 34D0     		beq	.L29
 543              	.LBB40:
 318:..\acn-sdk-c\src\http/client.c **** #if defined(__XCC__)
 319:..\acn-sdk-c\src\http/client.c ****       cli->ctx = qcom_SSL_ctx_new(SSL_CLIENT, SSL_INBUF_SIZE, SSL_OUTBUF_SIZE, 0);
 320:..\acn-sdk-c\src\http/client.c ****       if ( cli->ctx == NULL) {
 321:..\acn-sdk-c\src\http/client.c ****           DBG("unable to get ctx");
 322:..\acn-sdk-c\src\http/client.c ****           soc_close(cli->sock);
 323:..\acn-sdk-c\src\http/client.c ****           return -1;
 324:..\acn-sdk-c\src\http/client.c ****       }
 325:..\acn-sdk-c\src\http/client.c ****       cli->ssl = qcom_SSL_new(cli->ctx);
 326:..\acn-sdk-c\src\http/client.c ****       qcom_SSL_set_fd(cli->ssl, cli->sock);
 327:..\acn-sdk-c\src\http/client.c ****       if (cli->ssl == NULL) {
 328:..\acn-sdk-c\src\http/client.c ****           DBG("oops, bad SSL ptr");
 329:..\acn-sdk-c\src\http/client.c ****           soc_close(cli->sock);
 330:..\acn-sdk-c\src\http/client.c ****           return -1;
ARM GAS  C:\Users\ddemidov\AppData\Local\Temp\cch7zCWw.s 			page 17


 331:..\acn-sdk-c\src\http/client.c ****       }
 332:..\acn-sdk-c\src\http/client.c ****       int err = qcom_SSL_connect(cli->ssl);
 333:..\acn-sdk-c\src\http/client.c ****       if (err < 0) {
 334:..\acn-sdk-c\src\http/client.c ****           DBG("SSL connect fail %d", ret);
 335:..\acn-sdk-c\src\http/client.c ****           soc_close(cli->sock);
 336:..\acn-sdk-c\src\http/client.c ****           return err;
 337:..\acn-sdk-c\src\http/client.c ****       }
 338:..\acn-sdk-c\src\http/client.c **** #else
 339:..\acn-sdk-c\src\http/client.c ****       cli->ctx = wolfSSL_CTX_new(cli->method);
 544              		.loc 1 339 0
 545 00b8 E068     		ldr	r0, [r4, #12]
 546 00ba FFF7FEFF 		bl	wolfSSL_CTX_new
 547              	.LVL74:
 548 00be 2061     		str	r0, [r4, #16]
 340:..\acn-sdk-c\src\http/client.c ****       if ( cli->ctx == NULL) {
 549              		.loc 1 340 0
 550 00c0 0028     		cmp	r0, #0
 551 00c2 02D1     		bne	.L30
 341:..\acn-sdk-c\src\http/client.c ****           DBG("unable to get ctx");
 552              		.loc 1 341 0
 553 00c4 9A48     		ldr	r0, .L142+24
 554 00c6 FFF7FEFF 		bl	dbg_line
 555              	.LVL75:
 556              	.L30:
 342:..\acn-sdk-c\src\http/client.c ****       }
 343:..\acn-sdk-c\src\http/client.c ****       wolfSSL_CTX_set_verify(cli->ctx, SSL_VERIFY_NONE, 0);
 557              		.loc 1 343 0
 558 00ca 0021     		mov	r1, #0
 559 00cc 2069     		ldr	r0, [r4, #16]
 560 00ce 0A1C     		mov	r2, r1
 561 00d0 FFF7FEFF 		bl	wolfSSL_CTX_set_verify
 562              	.LVL76:
 344:..\acn-sdk-c\src\http/client.c ****       wolfSSL_SetIORecv(cli->ctx, recv_ssl);
 563              		.loc 1 344 0
 564 00d4 2069     		ldr	r0, [r4, #16]
 565 00d6 9749     		ldr	r1, .L142+28
 566 00d8 FFF7FEFF 		bl	wolfSSL_SetIORecv
 567              	.LVL77:
 345:..\acn-sdk-c\src\http/client.c ****       wolfSSL_SetIOSend(cli->ctx, send_ssl);
 568              		.loc 1 345 0
 569 00dc 2069     		ldr	r0, [r4, #16]
 570 00de 9649     		ldr	r1, .L142+32
 571 00e0 FFF7FEFF 		bl	wolfSSL_SetIOSend
 572              	.LVL78:
 346:..\acn-sdk-c\src\http/client.c **** 
 347:..\acn-sdk-c\src\http/client.c ****       cli->ssl = wolfSSL_new(cli->ctx);
 573              		.loc 1 347 0
 574 00e4 2069     		ldr	r0, [r4, #16]
 575 00e6 FFF7FEFF 		bl	wolfSSL_new
 576              	.LVL79:
 577 00ea 6061     		str	r0, [r4, #20]
 348:..\acn-sdk-c\src\http/client.c ****       if (cli->ssl == NULL) {
 578              		.loc 1 348 0
 579 00ec 0028     		cmp	r0, #0
 580 00ee 02D1     		bne	.L31
 349:..\acn-sdk-c\src\http/client.c ****           DBG("oops, bad SSL ptr");
 581              		.loc 1 349 0
ARM GAS  C:\Users\ddemidov\AppData\Local\Temp\cch7zCWw.s 			page 18


 582 00f0 9248     		ldr	r0, .L142+36
 583 00f2 FFF7FEFF 		bl	dbg_line
 584              	.LVL80:
 585              	.L31:
 350:..\acn-sdk-c\src\http/client.c ****       }
 351:..\acn-sdk-c\src\http/client.c ****       wolfSSL_SetIOReadCtx(cli->ssl, (void*)cli);
 586              		.loc 1 351 0
 587 00f6 6069     		ldr	r0, [r4, #20]
 588 00f8 211C     		mov	r1, r4
 589 00fa FFF7FEFF 		bl	wolfSSL_SetIOReadCtx
 590              	.LVL81:
 352:..\acn-sdk-c\src\http/client.c ****       wolfSSL_SetIOWriteCtx(cli->ssl, (void*)cli);
 591              		.loc 1 352 0
 592 00fe 6069     		ldr	r0, [r4, #20]
 593 0100 211C     		mov	r1, r4
 594 0102 FFF7FEFF 		bl	wolfSSL_SetIOWriteCtx
 595              	.LVL82:
 353:..\acn-sdk-c\src\http/client.c ****       //        wolfSSL_Debugging_ON();
 354:..\acn-sdk-c\src\http/client.c ****       int err = wolfSSL_connect(cli->ssl);
 596              		.loc 1 354 0
 597 0106 6069     		ldr	r0, [r4, #20]
 598 0108 FFF7FEFF 		bl	wolfSSL_connect
 599              	.LVL83:
 355:..\acn-sdk-c\src\http/client.c ****       if (err != SSL_SUCCESS) {
 600              		.loc 1 355 0
 601 010c 0128     		cmp	r0, #1
 602 010e 01D0     		beq	.L32
 356:..\acn-sdk-c\src\http/client.c ****           DBG("SSL connect fail");
 603              		.loc 1 356 0
 604 0110 8B48     		ldr	r0, .L142+40
 605              	.LVL84:
 606 0112 00E0     		b	.L130
 607              	.LVL85:
 608              	.L32:
 357:..\acn-sdk-c\src\http/client.c ****       } else {
 358:..\acn-sdk-c\src\http/client.c ****           DBG("SSL connect done");
 609              		.loc 1 358 0
 610 0114 8B48     		ldr	r0, .L142+44
 611              	.LVL86:
 612              	.L130:
 613 0116 FFF7FEFF 		bl	dbg_line
 614              	.LVL87:
 359:..\acn-sdk-c\src\http/client.c ****       }
 360:..\acn-sdk-c\src\http/client.c **** #endif
 361:..\acn-sdk-c\src\http/client.c ****         cli->_r_func = ssl_read;
 615              		.loc 1 361 0
 616 011a 8B4B     		ldr	r3, .L142+48
 617 011c A361     		str	r3, [r4, #24]
 362:..\acn-sdk-c\src\http/client.c ****         cli->_w_func = ssl_write;
 618              		.loc 1 362 0
 619 011e 8B4B     		ldr	r3, .L142+52
 620 0120 02E0     		b	.L131
 621              	.L29:
 622              	.LBE40:
 363:..\acn-sdk-c\src\http/client.c ****     } else {
 364:..\acn-sdk-c\src\http/client.c ****         cli->_r_func = simple_read;
 623              		.loc 1 364 0
ARM GAS  C:\Users\ddemidov\AppData\Local\Temp\cch7zCWw.s 			page 19


 624 0122 8B4B     		ldr	r3, .L142+56
 625 0124 A361     		str	r3, [r4, #24]
 365:..\acn-sdk-c\src\http/client.c ****         cli->_w_func = simple_write;
 626              		.loc 1 365 0
 627 0126 8B4B     		ldr	r3, .L142+60
 628              	.L131:
 629              	.LBB41:
 630              	.LBB42:
 156:..\acn-sdk-c\src\http/client.c ****     buf[ret] = '\0';
 631              		.loc 1 156 0
 632 0128 8021     		mov	r1, #128
 633              	.LBE42:
 634              	.LBE41:
 635              		.loc 1 365 0
 636 012a E361     		str	r3, [r4, #28]
 637              	.LVL88:
 638              	.LBB45:
 639              	.LBB44:
 156:..\acn-sdk-c\src\http/client.c ****     buf[ret] = '\0';
 640              		.loc 1 156 0
 641 012c 039B     		ldr	r3, [sp, #12]
 642 012e 4EAD     		add	r5, sp, #312
 643 0130 6C33     		add	r3, r3, #108
 644 0132 0093     		str	r3, [sp]
 645 0134 039B     		ldr	r3, [sp, #12]
 646 0136 281C     		mov	r0, r5
 647 0138 1B68     		ldr	r3, [r3]
 648 013a 4900     		lsl	r1, r1, #1
 649 013c 864A     		ldr	r2, .L142+64
 650 013e FFF7FEFF 		bl	snprintf
 651              	.LVL89:
 157:..\acn-sdk-c\src\http/client.c ****     if ( req->query ) {
 652              		.loc 1 157 0
 653 0142 0023     		mov	r3, #0
 654 0144 2B54     		strb	r3, [r5, r0]
 158:..\acn-sdk-c\src\http/client.c ****         char queryString[CHUNK_SIZE];
 655              		.loc 1 158 0
 656 0146 039B     		ldr	r3, [sp, #12]
 657 0148 F033     		add	r3, r3, #240
 658 014a 1D68     		ldr	r5, [r3]
 659 014c 002D     		cmp	r5, #0
 660 014e 1AD0     		beq	.L35
 661              	.LBB43:
 160:..\acn-sdk-c\src\http/client.c ****         http_query_t *query = req->query;
 662              		.loc 1 160 0
 663 0150 8EA8     		add	r0, sp, #568
 664              	.LVL90:
 665 0152 8249     		ldr	r1, .L142+68
 666 0154 FFF7FEFF 		bl	strcpy
 667              	.LVL91:
 668              	.L36:
 163:..\acn-sdk-c\src\http/client.c ****             strcat(queryString, "=");
 669              		.loc 1 163 0
 670 0158 2968     		ldr	r1, [r5]
 671 015a 8EA8     		add	r0, sp, #568
 672 015c FFF7FEFF 		bl	strcat
 673              	.LVL92:
ARM GAS  C:\Users\ddemidov\AppData\Local\Temp\cch7zCWw.s 			page 20


 164:..\acn-sdk-c\src\http/client.c ****             strcat(queryString, (char*)query->value);
 674              		.loc 1 164 0
 675 0160 7F49     		ldr	r1, .L142+72
 676 0162 8EA8     		add	r0, sp, #568
 677 0164 FFF7FEFF 		bl	strcat
 678              	.LVL93:
 165:..\acn-sdk-c\src\http/client.c ****             strcat(buf, queryString);
 679              		.loc 1 165 0
 680 0168 6968     		ldr	r1, [r5, #4]
 681 016a 8EA8     		add	r0, sp, #568
 682 016c FFF7FEFF 		bl	strcat
 683              	.LVL94:
 166:..\acn-sdk-c\src\http/client.c ****             strcpy(queryString, "&");
 684              		.loc 1 166 0
 685 0170 8EA9     		add	r1, sp, #568
 686 0172 4EA8     		add	r0, sp, #312
 687 0174 FFF7FEFF 		bl	strcat
 688              	.LVL95:
 167:..\acn-sdk-c\src\http/client.c ****             query = query->next;
 689              		.loc 1 167 0
 690 0178 8EA8     		add	r0, sp, #568
 691 017a 7A49     		ldr	r1, .L142+76
 692 017c FFF7FEFF 		bl	strcpy
 693              	.LVL96:
 168:..\acn-sdk-c\src\http/client.c ****         }
 694              		.loc 1 168 0
 695 0180 AD68     		ldr	r5, [r5, #8]
 696              	.LVL97:
 162:..\acn-sdk-c\src\http/client.c ****             strcat(queryString, (char*)query->key);
 697              		.loc 1 162 0
 698 0182 002D     		cmp	r5, #0
 699 0184 E8D1     		bne	.L36
 700              	.LVL98:
 701              	.L35:
 702              	.LBE43:
 171:..\acn-sdk-c\src\http/client.c ****     if ( (ret = client_send(buf, 0, cli)) < 0 ) {
 703              		.loc 1 171 0
 704 0186 4EAD     		add	r5, sp, #312
 705 0188 7749     		ldr	r1, .L142+80
 706 018a 281C     		mov	r0, r5
 707 018c FFF7FEFF 		bl	strcat
 708              	.LVL99:
 172:..\acn-sdk-c\src\http/client.c ****         return ret;
 709              		.loc 1 172 0
 710 0190 281C     		mov	r0, r5
 711 0192 0021     		mov	r1, #0
 712 0194 221C     		mov	r2, r4
 713 0196 E369     		ldr	r3, [r4, #28]
 714 0198 9847     		blx	r3
 715              	.LVL100:
 716 019a 0028     		cmp	r0, #0
 717 019c 15DB     		blt	.L100
 175:..\acn-sdk-c\src\http/client.c ****     buf[ret] = '\0';
 718              		.loc 1 175 0
 719 019e 8021     		mov	r1, #128
 720 01a0 029B     		ldr	r3, [sp, #8]
 721 01a2 4900     		lsl	r1, r1, #1
ARM GAS  C:\Users\ddemidov\AppData\Local\Temp\cch7zCWw.s 			page 21


 722 01a4 1B88     		ldrh	r3, [r3]
 723 01a6 714A     		ldr	r2, .L142+84
 724 01a8 0093     		str	r3, [sp]
 725 01aa 281C     		mov	r0, r5
 726              	.LVL101:
 727 01ac 331C     		mov	r3, r6
 728 01ae FFF7FEFF 		bl	snprintf
 729              	.LVL102:
 176:..\acn-sdk-c\src\http/client.c ****     if ( (ret = client_send(buf, 0, cli)) < 0 ) {
 730              		.loc 1 176 0
 731 01b2 0026     		mov	r6, #0
 177:..\acn-sdk-c\src\http/client.c ****         return ret;
 732              		.loc 1 177 0
 733 01b4 221C     		mov	r2, r4
 176:..\acn-sdk-c\src\http/client.c ****     if ( (ret = client_send(buf, 0, cli)) < 0 ) {
 734              		.loc 1 176 0
 735 01b6 2E54     		strb	r6, [r5, r0]
 177:..\acn-sdk-c\src\http/client.c ****         return ret;
 736              		.loc 1 177 0
 737 01b8 311C     		mov	r1, r6
 738 01ba 281C     		mov	r0, r5
 739              	.LVL103:
 740 01bc E369     		ldr	r3, [r4, #28]
 741 01be 9847     		blx	r3
 742              	.LVL104:
 743 01c0 0290     		str	r0, [sp, #8]
 744 01c2 B042     		cmp	r0, r6
 745 01c4 02DD     		ble	.L37
 746 01c6 0296     		str	r6, [sp, #8]
 747 01c8 0AE0     		b	.L39
 748              	.LVL105:
 749              	.L100:
 172:..\acn-sdk-c\src\http/client.c ****         return ret;
 750              		.loc 1 172 0
 751 01ca 0290     		str	r0, [sp, #8]
 752              	.LVL106:
 753              	.L37:
 754              	.LBE44:
 755              	.LBE45:
 366:..\acn-sdk-c\src\http/client.c ****     }
 367:..\acn-sdk-c\src\http/client.c **** 
 368:..\acn-sdk-c\src\http/client.c ****     if ( send_start(cli, req) < 0 ) {
 756              		.loc 1 368 0
 757 01cc 029B     		ldr	r3, [sp, #8]
 758 01ce 002B     		cmp	r3, #0
 759 01d0 06D0     		beq	.L39
 760              	.LBB46:
 369:..\acn-sdk-c\src\http/client.c ****         soc_close(cli->sock);
 761              		.loc 1 369 0
 762 01d2 2068     		ldr	r0, [r4]
 763 01d4 FFF7FEFF 		bl	soc_close
 764              	.LVL107:
 370:..\acn-sdk-c\src\http/client.c ****         DBG("send start fail");
 765              		.loc 1 370 0
 766 01d8 6548     		ldr	r0, .L142+88
 767              	.LVL108:
 768              	.L138:
ARM GAS  C:\Users\ddemidov\AppData\Local\Temp\cch7zCWw.s 			page 22


 769 01da FFF7FEFF 		bl	dbg_line
 770              	.LVL109:
 771 01de 57E2     		b	.L134
 772              	.LVL110:
 773              	.L39:
 774              	.LBE46:
 775              	.LBB47:
 776              	.LBB48:
 186:..\acn-sdk-c\src\http/client.c ****         if ( req->is_chunked ) {
 777              		.loc 1 186 0
 778 01e0 039B     		ldr	r3, [sp, #12]
 779 01e2 F833     		add	r3, r3, #248
 780 01e4 1B68     		ldr	r3, [r3]
 781 01e6 002B     		cmp	r3, #0
 782 01e8 03D1     		bne	.L40
 783              	.L42:
 200:..\acn-sdk-c\src\http/client.c ****     while( head ) {
 784              		.loc 1 200 0
 785 01ea 039B     		ldr	r3, [sp, #12]
 786 01ec E033     		add	r3, r3, #224
 787 01ee 1D68     		ldr	r5, [r3]
 788              	.LVL111:
 789 01f0 48E0     		b	.L41
 790              	.LVL112:
 791              	.L40:
 186:..\acn-sdk-c\src\http/client.c ****         if ( req->is_chunked ) {
 792              		.loc 1 186 0
 793 01f2 039B     		ldr	r3, [sp, #12]
 794 01f4 F433     		add	r3, r3, #244
 795 01f6 1B68     		ldr	r3, [r3]
 796 01f8 002B     		cmp	r3, #0
 797 01fa F6D0     		beq	.L42
 798              	.LBB49:
 187:..\acn-sdk-c\src\http/client.c ****             ret = client_send("Transfer-Encoding: chunked\r\n", 0, cli);
 799              		.loc 1 187 0
 800 01fc 039A     		ldr	r2, [sp, #12]
 801 01fe DC32     		add	r2, r2, #220
 802 0200 1668     		ldr	r6, [r2]
 803 0202 002E     		cmp	r6, #0
 804 0204 02D0     		beq	.L43
 188:..\acn-sdk-c\src\http/client.c ****         } else {
 805              		.loc 1 188 0
 806 0206 5B48     		ldr	r0, .L142+92
 807 0208 0021     		mov	r1, #0
 808 020a 0BE0     		b	.L132
 809              	.L43:
 810              	.LBB50:
 190:..\acn-sdk-c\src\http/client.c ****             buf[ret] = '\0';
 811              		.loc 1 190 0
 812 020c 8021     		mov	r1, #128
 813 020e 8EAD     		add	r5, sp, #568
 814 0210 4900     		lsl	r1, r1, #1
 815 0212 281C     		mov	r0, r5
 816 0214 584A     		ldr	r2, .L142+96
 817 0216 FFF7FEFF 		bl	snprintf
 818              	.LVL113:
 191:..\acn-sdk-c\src\http/client.c ****             ret = client_send(buf, 0, cli);
ARM GAS  C:\Users\ddemidov\AppData\Local\Temp\cch7zCWw.s 			page 23


 819              		.loc 1 191 0
 820 021a 6B46     		mov	r3, sp
 821 021c 1B7A     		ldrb	r3, [r3, #8]
 192:..\acn-sdk-c\src\http/client.c ****         }
 822              		.loc 1 192 0
 823 021e 311C     		mov	r1, r6
 191:..\acn-sdk-c\src\http/client.c ****             ret = client_send(buf, 0, cli);
 824              		.loc 1 191 0
 825 0220 2B54     		strb	r3, [r5, r0]
 192:..\acn-sdk-c\src\http/client.c ****         }
 826              		.loc 1 192 0
 827 0222 281C     		mov	r0, r5
 828              	.LVL114:
 829              	.L132:
 830 0224 E369     		ldr	r3, [r4, #28]
 831 0226 221C     		mov	r2, r4
 832 0228 9847     		blx	r3
 833              	.LVL115:
 834              	.LBE50:
 194:..\acn-sdk-c\src\http/client.c ****         ret = snprintf(buf, sizeof(buf), "Content-Type: %s\r\n", req->content_type.value);
 835              		.loc 1 194 0
 836 022a 031E     		sub	r3, r0, #0
 837 022c 32DB     		blt	.L45
 195:..\acn-sdk-c\src\http/client.c ****         buf[ret] = '\0';
 838              		.loc 1 195 0
 839 022e 8021     		mov	r1, #128
 840 0230 039B     		ldr	r3, [sp, #12]
 841 0232 8EAD     		add	r5, sp, #568
 842 0234 E833     		add	r3, r3, #232
 843 0236 4900     		lsl	r1, r1, #1
 844 0238 504A     		ldr	r2, .L142+100
 845 023a 1B68     		ldr	r3, [r3]
 846 023c 281C     		mov	r0, r5
 847              	.LVL116:
 848 023e FFF7FEFF 		bl	snprintf
 849              	.LVL117:
 196:..\acn-sdk-c\src\http/client.c ****         if ( (ret = client_send(buf, 0, cli)) < 0 ) return ret;
 850              		.loc 1 196 0
 851 0242 0021     		mov	r1, #0
 197:..\acn-sdk-c\src\http/client.c ****     }
 852              		.loc 1 197 0
 853 0244 E369     		ldr	r3, [r4, #28]
 196:..\acn-sdk-c\src\http/client.c ****         if ( (ret = client_send(buf, 0, cli)) < 0 ) return ret;
 854              		.loc 1 196 0
 855 0246 2954     		strb	r1, [r5, r0]
 197:..\acn-sdk-c\src\http/client.c ****     }
 856              		.loc 1 197 0
 857 0248 221C     		mov	r2, r4
 858 024a 281C     		mov	r0, r5
 859              	.LVL118:
 860 024c 9847     		blx	r3
 861              	.LVL119:
 862 024e 031E     		sub	r3, r0, #0
 863 0250 CBDA     		bge	.L42
 864 0252 1FE0     		b	.L45
 865              	.LVL120:
 866              	.L46:
ARM GAS  C:\Users\ddemidov\AppData\Local\Temp\cch7zCWw.s 			page 24


 867              	.LBE49:
 202:..\acn-sdk-c\src\http/client.c ****         strcat(buf, ": ");
 868              		.loc 1 202 0
 869 0254 2968     		ldr	r1, [r5]
 870 0256 8EA8     		add	r0, sp, #568
 871 0258 FFF7FEFF 		bl	strcpy
 872              	.LVL121:
 203:..\acn-sdk-c\src\http/client.c ****         strcat(buf, (char*)head->value);
 873              		.loc 1 203 0
 874 025c 4849     		ldr	r1, .L142+104
 875 025e 8EA8     		add	r0, sp, #568
 876 0260 FFF7FEFF 		bl	strcat
 877              	.LVL122:
 204:..\acn-sdk-c\src\http/client.c ****         strcat(buf, "\r\n");
 878              		.loc 1 204 0
 879 0264 6968     		ldr	r1, [r5, #4]
 880 0266 8EA8     		add	r0, sp, #568
 881 0268 FFF7FEFF 		bl	strcat
 882              	.LVL123:
 205:..\acn-sdk-c\src\http/client.c ****         if ( (ret = client_send(buf, 0, cli)) < 0 ) return ret;
 883              		.loc 1 205 0
 884 026c 4549     		ldr	r1, .L142+108
 885 026e 8EA8     		add	r0, sp, #568
 886 0270 FFF7FEFF 		bl	strcat
 887              	.LVL124:
 206:..\acn-sdk-c\src\http/client.c ****         head = head->next;
 888              		.loc 1 206 0
 889 0274 8EA8     		add	r0, sp, #568
 890 0276 0021     		mov	r1, #0
 891 0278 221C     		mov	r2, r4
 892 027a E369     		ldr	r3, [r4, #28]
 893 027c 9847     		blx	r3
 894              	.LVL125:
 895 027e 0028     		cmp	r0, #0
 896 0280 07DB     		blt	.L103
 207:..\acn-sdk-c\src\http/client.c ****     }
 897              		.loc 1 207 0
 898 0282 AD68     		ldr	r5, [r5, #8]
 899              	.LVL126:
 900              	.L41:
 201:..\acn-sdk-c\src\http/client.c ****         strcpy(buf, (char*)head->key);
 901              		.loc 1 201 0
 902 0284 002D     		cmp	r5, #0
 903 0286 E5D1     		bne	.L46
 209:..\acn-sdk-c\src\http/client.c **** }
 904              		.loc 1 209 0
 905 0288 3E48     		ldr	r0, .L142+108
 906 028a 291C     		mov	r1, r5
 907 028c 221C     		mov	r2, r4
 908 028e E369     		ldr	r3, [r4, #28]
 909 0290 9847     		blx	r3
 910              	.LVL127:
 911              	.L103:
 206:..\acn-sdk-c\src\http/client.c ****         head = head->next;
 912              		.loc 1 206 0
 913 0292 031C     		mov	r3, r0
 914              	.LVL128:
ARM GAS  C:\Users\ddemidov\AppData\Local\Temp\cch7zCWw.s 			page 25


 915              	.L45:
 916              	.LBE48:
 917              	.LBE47:
 371:..\acn-sdk-c\src\http/client.c ****         return -1;
 372:..\acn-sdk-c\src\http/client.c ****     }
 373:..\acn-sdk-c\src\http/client.c **** 
 374:..\acn-sdk-c\src\http/client.c ****     if ( send_header(cli, req) < 0 ) {
 918              		.loc 1 374 0
 919 0294 002B     		cmp	r3, #0
 920 0296 04DA     		bge	.L47
 921              	.LBB51:
 375:..\acn-sdk-c\src\http/client.c ****         soc_close(cli->sock);
 922              		.loc 1 375 0
 923 0298 2068     		ldr	r0, [r4]
 924 029a FFF7FEFF 		bl	soc_close
 925              	.LVL129:
 376:..\acn-sdk-c\src\http/client.c ****         DBG("send header fail");
 926              		.loc 1 376 0
 927 029e 3A48     		ldr	r0, .L142+112
 928 02a0 9BE7     		b	.L138
 929              	.L47:
 930              	.LBE51:
 377:..\acn-sdk-c\src\http/client.c ****         return -1;
 378:..\acn-sdk-c\src\http/client.c ****     }
 379:..\acn-sdk-c\src\http/client.c **** 
 380:..\acn-sdk-c\src\http/client.c ****     if ( req->payload.buf ) {
 931              		.loc 1 380 0
 932 02a2 039B     		ldr	r3, [sp, #12]
 933 02a4 F833     		add	r3, r3, #248
 934 02a6 1B68     		ldr	r3, [r3]
 935 02a8 0493     		str	r3, [sp, #16]
 936 02aa 002B     		cmp	r3, #0
 937 02ac 79D0     		beq	.L98
 938              	.LVL130:
 939              	.LBB52:
 940              	.LBB53:
 213:..\acn-sdk-c\src\http/client.c ****         if ( req->is_chunked ) {
 941              		.loc 1 213 0
 942 02ae 039B     		ldr	r3, [sp, #12]
 943 02b0 F433     		add	r3, r3, #244
 944 02b2 1E68     		ldr	r6, [r3]
 945 02b4 002E     		cmp	r6, #0
 946 02b6 01D1     		bne	.L49
 947              	.L57:
 948              	.LBE53:
 949              	.LBE52:
 950              	.LBB58:
 381:..\acn-sdk-c\src\http/client.c ****         if ( send_payload(cli, req) < 0 ) {
 382:..\acn-sdk-c\src\http/client.c ****             DBG("send payload fail");
 951              		.loc 1 382 0
 952 02b8 3448     		ldr	r0, .L142+116
 953 02ba 5BE1     		b	.L136
 954              	.L49:
 955              	.LBE58:
 956              	.LBB59:
 957              	.LBB57:
 214:..\acn-sdk-c\src\http/client.c ****             char *data = (char*)req->payload.buf;
ARM GAS  C:\Users\ddemidov\AppData\Local\Temp\cch7zCWw.s 			page 26


 958              		.loc 1 214 0
 959 02bc 039B     		ldr	r3, [sp, #12]
 960 02be DC33     		add	r3, r3, #220
 961 02c0 1B68     		ldr	r3, [r3]
 962 02c2 002B     		cmp	r3, #0
 963 02c4 66D0     		beq	.L50
 964              	.LVL131:
 965              	.LBB54:
 217:..\acn-sdk-c\src\http/client.c ****             while ( len >= 0 ) {
 966              		.loc 1 217 0
 967 02c6 0023     		mov	r3, #0
 968 02c8 0593     		str	r3, [sp, #20]
 969              	.LVL132:
 970              	.L51:
 218:..\acn-sdk-c\src\http/client.c ****                 char buf[6];
 971              		.loc 1 218 0
 972 02ca 002E     		cmp	r6, #0
 973 02cc 69DB     		blt	.L98
 974              	.LBB55:
 220:..\acn-sdk-c\src\http/client.c ****                 int ret = sprintf(buf, "%02X\r\n", chunk);
 975              		.loc 1 220 0
 976 02ce 8023     		mov	r3, #128
 977 02d0 351C     		mov	r5, r6
 978 02d2 5B00     		lsl	r3, r3, #1
 979 02d4 9E42     		cmp	r6, r3
 980 02d6 00DD     		ble	.L52
 981 02d8 1D1C     		mov	r5, r3
 982              	.L52:
 983              	.LVL133:
 221:..\acn-sdk-c\src\http/client.c ****                 client_send(buf, ret, cli);
 984              		.loc 1 221 0
 985 02da 2D49     		ldr	r1, .L142+120
 986 02dc 2A1C     		mov	r2, r5
 987 02de 8EA8     		add	r0, sp, #568
 988 02e0 FFF7FEFF 		bl	sprintf
 989              	.LVL134:
 222:..\acn-sdk-c\src\http/client.c ****                 if ( chunk ) client_send(data + trData, chunk, cli);
 990              		.loc 1 222 0
 991 02e4 221C     		mov	r2, r4
 992 02e6 81B2     		uxth	r1, r0
 993 02e8 E369     		ldr	r3, [r4, #28]
 994 02ea 8EA8     		add	r0, sp, #568
 995              	.LVL135:
 996 02ec 9847     		blx	r3
 997              	.LVL136:
 223:..\acn-sdk-c\src\http/client.c ****                 trData += chunk;
 998              		.loc 1 223 0
 999 02ee 002D     		cmp	r5, #0
 1000 02f0 06D0     		beq	.L53
 1001 02f2 049B     		ldr	r3, [sp, #16]
 1002 02f4 059A     		ldr	r2, [sp, #20]
 1003 02f6 A9B2     		uxth	r1, r5
 1004 02f8 9818     		add	r0, r3, r2
 1005 02fa 221C     		mov	r2, r4
 1006 02fc E369     		ldr	r3, [r4, #28]
 1007 02fe 9847     		blx	r3
 1008              	.LVL137:
ARM GAS  C:\Users\ddemidov\AppData\Local\Temp\cch7zCWw.s 			page 27


 1009              	.L53:
 224:..\acn-sdk-c\src\http/client.c ****                 len -= chunk;
 1010              		.loc 1 224 0
 1011 0300 059B     		ldr	r3, [sp, #20]
 226:..\acn-sdk-c\src\http/client.c ****                 if ( !chunk ) break;
 1012              		.loc 1 226 0
 1013 0302 2048     		ldr	r0, .L142+108
 224:..\acn-sdk-c\src\http/client.c ****                 len -= chunk;
 1014              		.loc 1 224 0
 1015 0304 5B19     		add	r3, r3, r5
 1016 0306 0593     		str	r3, [sp, #20]
 1017              	.LVL138:
 226:..\acn-sdk-c\src\http/client.c ****                 if ( !chunk ) break;
 1018              		.loc 1 226 0
 1019 0308 0021     		mov	r1, #0
 1020 030a 221C     		mov	r2, r4
 1021 030c E369     		ldr	r3, [r4, #28]
 1022              	.LVL139:
 225:..\acn-sdk-c\src\http/client.c ****                 client_send("\r\n", 0, cli);
 1023              		.loc 1 225 0
 1024 030e 761B     		sub	r6, r6, r5
 1025              	.LVL140:
 226:..\acn-sdk-c\src\http/client.c ****                 if ( !chunk ) break;
 1026              		.loc 1 226 0
 1027 0310 9847     		blx	r3
 1028              	.LVL141:
 227:..\acn-sdk-c\src\http/client.c ****             }
 1029              		.loc 1 227 0
 1030 0312 002D     		cmp	r5, #0
 1031 0314 D9D1     		bne	.L51
 1032 0316 44E0     		b	.L98
 1033              	.L143:
 1034              		.align	2
 1035              	.L142:
 1036 0318 C4FCFFFF 		.word	-828
 1037 031c 00000000 		.word	.LC2
 1038 0320 FF0F0000 		.word	4095
 1039 0324 06100000 		.word	4102
 1040 0328 14000000 		.word	.LC4
 1041 032c 21000000 		.word	.LC6
 1042 0330 2E000000 		.word	.LC8
 1043 0334 00000000 		.word	recv_ssl
 1044 0338 00000000 		.word	send_ssl
 1045 033c 40000000 		.word	.LC12
 1046 0340 52000000 		.word	.LC14
 1047 0344 63000000 		.word	.LC16
 1048 0348 00000000 		.word	ssl_read
 1049 034c 00000000 		.word	ssl_write
 1050 0350 00000000 		.word	simple_read
 1051 0354 00000000 		.word	simple_write
 1052 0358 74000000 		.word	.LC22
 1053 035c 7A000000 		.word	.LC24
 1054 0360 7C000000 		.word	.LC26
 1055 0364 7E000000 		.word	.LC28
 1056 0368 80000000 		.word	.LC30
 1057 036c 8C000000 		.word	.LC32
 1058 0370 9A000000 		.word	.LC34
ARM GAS  C:\Users\ddemidov\AppData\Local\Temp\cch7zCWw.s 			page 28


 1059 0374 AA000000 		.word	.LC36
 1060 0378 C7000000 		.word	.LC38
 1061 037c DD000000 		.word	.LC40
 1062 0380 F0000000 		.word	.LC42
 1063 0384 F3000000 		.word	.LC44
 1064 0388 F6000000 		.word	.LC46
 1065 038c 07010000 		.word	.LC48
 1066 0390 19010000 		.word	.LC50
 1067              	.LVL142:
 1068              	.L50:
 1069              	.LBE55:
 1070              	.LBE54:
 1071              	.LBB56:
 231:..\acn-sdk-c\src\http/client.c ****           return ret;
 1072              		.loc 1 231 0
 1073 0394 B1B2     		uxth	r1, r6
 1074 0396 0498     		ldr	r0, [sp, #16]
 1075 0398 221C     		mov	r2, r4
 1076 039a E369     		ldr	r3, [r4, #28]
 1077 039c 9847     		blx	r3
 1078              	.LVL143:
 1079              	.LBE56:
 1080              	.LBE57:
 1081              	.LBE59:
 381:..\acn-sdk-c\src\http/client.c ****             DBG("send payload fail");
 1082              		.loc 1 381 0
 1083 039e 0028     		cmp	r0, #0
 1084 03a0 8ADB     		blt	.L57
 1085              	.LVL144:
 1086              	.L98:
 383:..\acn-sdk-c\src\http/client.c ****             soc_close(cli->sock);
 384:..\acn-sdk-c\src\http/client.c ****             return -1;
 385:..\acn-sdk-c\src\http/client.c ****         }
 386:..\acn-sdk-c\src\http/client.c ****     }
 387:..\acn-sdk-c\src\http/client.c **** 
 388:..\acn-sdk-c\src\http/client.c ****     char buf[CHUNK_SIZE];
 389:..\acn-sdk-c\src\http/client.c **** 
 390:..\acn-sdk-c\src\http/client.c ****     DBG("Receiving response");
 1087              		.loc 1 390 0
 1088 03a2 BF48     		ldr	r0, .L144
 1089 03a4 FFF7FEFF 		bl	dbg_line
 1090              	.LVL145:
 1091              	.LBB60:
 1092              	.LBB61:
 240:..\acn-sdk-c\src\http/client.c ****     *len = (size_t)ret;
 1093              		.loc 1 240 0
 1094 03a8 0EA8     		add	r0, sp, #56
 1095              	.LVL146:
 1096 03aa 1421     		mov	r1, #20
 1097 03ac 221C     		mov	r2, r4
 1098 03ae A369     		ldr	r3, [r4, #24]
 1099 03b0 9847     		blx	r3
 1100              	.LVL147:
 241:..\acn-sdk-c\src\http/client.c ****     char* crlfPtr = strstr(buf, "\r\n");
 1101              		.loc 1 241 0
 1102 03b2 061E     		sub	r6, r0, #0
 240:..\acn-sdk-c\src\http/client.c ****     *len = (size_t)ret;
ARM GAS  C:\Users\ddemidov\AppData\Local\Temp\cch7zCWw.s 			page 29


 1103              		.loc 1 240 0
 1104 03b4 00DA     		bge	.LCB1097
 1105 03b6 61E1     		b	.L106	@long jump
 1106              	.LCB1097:
 1107              	.LVL148:
 1108              	.L133:
 253:..\acn-sdk-c\src\http/client.c ****     }
 1109              		.loc 1 253 0
 1110 03b8 0EA8     		add	r0, sp, #56
 1111              	.LVL149:
 1112 03ba BA49     		ldr	r1, .L144+4
 1113 03bc FFF7FEFF 		bl	strstr
 1114              	.LVL150:
 244:..\acn-sdk-c\src\http/client.c ****         if( *len < CHUNK_SIZE - 1 ) {
 1115              		.loc 1 244 0
 1116 03c0 0028     		cmp	r0, #0
 1117 03c2 0DD1     		bne	.L139
 245:..\acn-sdk-c\src\http/client.c ****             size_t newTrfLen;
 1118              		.loc 1 245 0
 1119 03c4 FE2E     		cmp	r6, #254
 1120 03c6 00D9     		bls	.LCB1115
 1121 03c8 5AE1     		b	.L107	@long jump
 1122              	.LCB1115:
 1123              	.LBB62:
 247:..\acn-sdk-c\src\http/client.c ****             newTrfLen = (size_t)ret;
 1124              		.loc 1 247 0
 1125 03ca 0EAB     		add	r3, sp, #56
 1126              	.LVL151:
 1127 03cc 9819     		add	r0, r3, r6
 1128              	.LVL152:
 1129 03ce 0A21     		mov	r1, #10
 1130 03d0 221C     		mov	r2, r4
 1131 03d2 A369     		ldr	r3, [r4, #24]
 1132              	.LVL153:
 1133 03d4 9847     		blx	r3
 1134              	.LVL154:
 1135 03d6 0028     		cmp	r0, #0
 1136 03d8 00DA     		bge	.LCB1131
 1137 03da 4FE1     		b	.L106	@long jump
 1138              	.LCB1131:
 1139              	.LVL155:
 249:..\acn-sdk-c\src\http/client.c ****         } else {
 1140              		.loc 1 249 0
 1141 03dc 3618     		add	r6, r6, r0
 1142              	.LVL156:
 1143 03de EBE7     		b	.L133
 1144              	.LVL157:
 1145              	.L139:
 1146              	.LBE62:
 256:..\acn-sdk-c\src\http/client.c ****     if ( crlfPos < 0 && crlfPos > (int)(*len) )
 1147              		.loc 1 256 0
 1148 03e0 0EAB     		add	r3, sp, #56
 1149              	.LVL158:
 1150 03e2 C51A     		sub	r5, r0, r3
 1151              	.LVL159:
 257:..\acn-sdk-c\src\http/client.c ****         return -1;
 1152              		.loc 1 257 0
ARM GAS  C:\Users\ddemidov\AppData\Local\Temp\cch7zCWw.s 			page 30


 1153 03e4 02D5     		bpl	.L61
 1154 03e6 B542     		cmp	r5, r6
 1155 03e8 00DD     		ble	.LCB1156
 1156 03ea 49E1     		b	.L107	@long jump
 1157              	.LCB1156:
 1158              	.L61:
 259:..\acn-sdk-c\src\http/client.c ****     DBG("resp: {%s}", buf);
 1159              		.loc 1 259 0
 1160 03ec 0023     		mov	r3, #0
 1161              	.LVL160:
 260:..\acn-sdk-c\src\http/client.c **** 
 1162              		.loc 1 260 0
 1163 03ee 0EA9     		add	r1, sp, #56
 1164              	.LVL161:
 259:..\acn-sdk-c\src\http/client.c ****     DBG("resp: {%s}", buf);
 1165              		.loc 1 259 0
 1166 03f0 0370     		strb	r3, [r0]
 260:..\acn-sdk-c\src\http/client.c **** 
 1167              		.loc 1 260 0
 1168 03f2 AD48     		ldr	r0, .L144+8
 1169              	.LVL162:
 1170 03f4 FFF7FEFF 		bl	dbg_line
 1171              	.LVL163:
 262:..\acn-sdk-c\src\http/client.c ****         DBG("Not a correct HTTP answer : %s\n", buf);
 1172              		.loc 1 262 0
 1173 03f8 0EA8     		add	r0, sp, #56
 1174              	.LVL164:
 1175 03fa AC49     		ldr	r1, .L144+12
 1176 03fc 3A1C     		mov	r2, r7
 1177 03fe FFF7FEFF 		bl	sscanf
 1178              	.LVL165:
 1179 0402 0128     		cmp	r0, #1
 1180 0404 04D0     		beq	.L62
 263:..\acn-sdk-c\src\http/client.c ****         return -1;
 1181              		.loc 1 263 0
 1182 0406 AA48     		ldr	r0, .L144+16
 1183 0408 0EA9     		add	r1, sp, #56
 1184              	.LVL166:
 1185 040a FFF7FEFF 		bl	dbg_line
 1186              	.LVL167:
 1187 040e 37E1     		b	.L107
 1188              	.L62:
 267:..\acn-sdk-c\src\http/client.c ****         DBG("receive_response memmove warning [%08x] %d, %d", (int)buf, crlfPos, *len);
 1189              		.loc 1 267 0
 1190 0410 AB1C     		add	r3, r5, #2
 1191 0412 0493     		str	r3, [sp, #16]
 1192 0414 9E42     		cmp	r6, r3
 1193 0416 05D2     		bcs	.L63
 268:..\acn-sdk-c\src\http/client.c ****     }
 1194              		.loc 1 268 0
 1195 0418 A648     		ldr	r0, .L144+20
 1196 041a 0EA9     		add	r1, sp, #56
 1197              	.LVL168:
 1198 041c 2A1C     		mov	r2, r5
 1199 041e 331C     		mov	r3, r6
 1200 0420 FFF7FEFF 		bl	dbg_line
 1201              	.LVL169:
ARM GAS  C:\Users\ddemidov\AppData\Local\Temp\cch7zCWw.s 			page 31


 1202              	.L63:
 270:..\acn-sdk-c\src\http/client.c ****     *len -= (size_t)(crlfPos + 2);
 1203              		.loc 1 270 0
 1204 0424 0EAA     		add	r2, sp, #56
 1205              	.LVL170:
 1206 0426 9446     		mov	ip, r2
 1207 0428 049B     		ldr	r3, [sp, #16]
 1208 042a 751B     		sub	r5, r6, r5
 1209              	.LVL171:
 1210 042c 6344     		add	r3, r3, ip
 1211 042e 191C     		mov	r1, r3
 1212 0430 6A1E     		sub	r2, r5, #1
 1213              	.LVL172:
 1214 0432 6046     		mov	r0, ip
 1215 0434 FFF7FEFF 		bl	memmove
 1216              	.LVL173:
 273:..\acn-sdk-c\src\http/client.c ****         //Did not return a 2xx code; TODO fetch headers/(&data?) anyway and implement a mean of wri
 1217              		.loc 1 273 0
 1218 0438 3968     		ldr	r1, [r7]
 271:..\acn-sdk-c\src\http/client.c **** 
 1219              		.loc 1 271 0
 1220 043a 023D     		sub	r5, r5, #2
 1221              	.LVL174:
 273:..\acn-sdk-c\src\http/client.c ****         //Did not return a 2xx code; TODO fetch headers/(&data?) anyway and implement a mean of wri
 1222              		.loc 1 273 0
 1223 043c 0B1C     		mov	r3, r1
 1224 043e C83B     		sub	r3, r3, #200
 1225 0440 632B     		cmp	r3, #99
 1226 0442 06D9     		bls	.L64
 275:..\acn-sdk-c\src\http/client.c ****         DBG("Protocol error");
 1227              		.loc 1 275 0
 1228 0444 9C48     		ldr	r0, .L144+24
 1229 0446 FFF7FEFF 		bl	dbg_line
 1230              	.LVL175:
 276:..\acn-sdk-c\src\http/client.c ****         return -1;
 1231              		.loc 1 276 0
 1232 044a 9C48     		ldr	r0, .L144+28
 1233 044c FFF7FEFF 		bl	dbg_line
 1234              	.LVL176:
 1235 0450 16E1     		b	.L107
 1236              	.L64:
 279:..\acn-sdk-c\src\http/client.c ****     return 0;
 1237              		.loc 1 279 0
 1238 0452 A160     		str	r1, [r4, #8]
 1239              	.LBE61:
 1240              	.LBE60:
 391:..\acn-sdk-c\src\http/client.c **** 
 392:..\acn-sdk-c\src\http/client.c ****     size_t trfLen;
 393:..\acn-sdk-c\src\http/client.c ****     ret = receive_response(cli, res, buf, &trfLen);
 394:..\acn-sdk-c\src\http/client.c ****     if ( ret < 0 ) {
 395:..\acn-sdk-c\src\http/client.c ****         DBG("Connection error (%d)", ret);
 396:..\acn-sdk-c\src\http/client.c ****         soc_close(cli->sock);
 397:..\acn-sdk-c\src\http/client.c ****         return -1;
 398:..\acn-sdk-c\src\http/client.c ****     }
 399:..\acn-sdk-c\src\http/client.c **** 
 400:..\acn-sdk-c\src\http/client.c ****     DBG("Reading headers %d", trfLen);
 1241              		.loc 1 400 0
ARM GAS  C:\Users\ddemidov\AppData\Local\Temp\cch7zCWw.s 			page 32


 1242 0454 9A48     		ldr	r0, .L144+32
 1243 0456 291C     		mov	r1, r5
 1244 0458 FFF7FEFF 		bl	dbg_line
 1245              	.LVL177:
 401:..\acn-sdk-c\src\http/client.c ****     char *crlfPtr;
 402:..\acn-sdk-c\src\http/client.c ****     int crlfPos;
 403:..\acn-sdk-c\src\http/client.c ****     res->header = NULL;
 1246              		.loc 1 403 0
 1247 045c 0022     		mov	r2, #0
 404:..\acn-sdk-c\src\http/client.c ****     res->content_type.value = NULL;
 405:..\acn-sdk-c\src\http/client.c ****     req->content_type.key = NULL;
 1248              		.loc 1 405 0
 1249 045e 039B     		ldr	r3, [sp, #12]
 403:..\acn-sdk-c\src\http/client.c ****     res->content_type.value = NULL;
 1250              		.loc 1 403 0
 1251 0460 BA60     		str	r2, [r7, #8]
 1252              		.loc 1 405 0
 1253 0462 E433     		add	r3, r3, #228
 404:..\acn-sdk-c\src\http/client.c ****     res->content_type.value = NULL;
 1254              		.loc 1 404 0
 1255 0464 3A61     		str	r2, [r7, #16]
 1256              		.loc 1 405 0
 1257 0466 1A60     		str	r2, [r3]
 406:..\acn-sdk-c\src\http/client.c ****     req->content_type.next = NULL;
 1258              		.loc 1 406 0
 1259 0468 039B     		ldr	r3, [sp, #12]
 1260 046a EC33     		add	r3, r3, #236
 1261 046c 1A60     		str	r2, [r3]
 407:..\acn-sdk-c\src\http/client.c ****     res->payload.size = 0;
 408:..\acn-sdk-c\src\http/client.c ****     res->payload.buf = 0;
 409:..\acn-sdk-c\src\http/client.c ****     res->is_chunked = 0;
 410:..\acn-sdk-c\src\http/client.c **** 
 411:..\acn-sdk-c\src\http/client.c ****     int recvContentLength = -1;
 1262              		.loc 1 411 0
 1263 046e 0123     		mov	r3, #1
 1264 0470 5B42     		neg	r3, r3
 407:..\acn-sdk-c\src\http/client.c ****     res->payload.size = 0;
 1265              		.loc 1 407 0
 1266 0472 BA61     		str	r2, [r7, #24]
 408:..\acn-sdk-c\src\http/client.c ****     res->is_chunked = 0;
 1267              		.loc 1 408 0
 1268 0474 FA61     		str	r2, [r7, #28]
 409:..\acn-sdk-c\src\http/client.c **** 
 1269              		.loc 1 409 0
 1270 0476 7A60     		str	r2, [r7, #4]
 1271              		.loc 1 411 0
 1272 0478 0793     		str	r3, [sp, #28]
 1273              	.LVL178:
 1274              	.L65:
 1275              	.LBB65:
 412:..\acn-sdk-c\src\http/client.c ****     //Now get headers
 413:..\acn-sdk-c\src\http/client.c ****     while( 1 ) {
 414:..\acn-sdk-c\src\http/client.c ****         crlfPtr = strstr(buf, "\r\n");
 1276              		.loc 1 414 0
 1277 047a 0EAE     		add	r6, sp, #56
 1278              	.LVL179:
 1279 047c 301C     		mov	r0, r6
ARM GAS  C:\Users\ddemidov\AppData\Local\Temp\cch7zCWw.s 			page 33


 1280 047e 8949     		ldr	r1, .L144+4
 1281 0480 FFF7FEFF 		bl	strstr
 1282              	.LVL180:
 1283 0484 0490     		str	r0, [sp, #16]
 1284              	.LVL181:
 415:..\acn-sdk-c\src\http/client.c ****         if(crlfPtr == NULL) {
 1285              		.loc 1 415 0
 1286 0486 0028     		cmp	r0, #0
 1287 0488 10D1     		bne	.L66
 416:..\acn-sdk-c\src\http/client.c ****             if( trfLen < CHUNK_SIZE - 1 ) {
 1288              		.loc 1 416 0
 1289 048a FE2D     		cmp	r5, #254
 1290 048c 71D8     		bhi	.L137
 1291              	.LBB66:
 417:..\acn-sdk-c\src\http/client.c ****                 size_t newTrfLen;
 418:..\acn-sdk-c\src\http/client.c ****                 ret = client_recv(buf + trfLen, 40, cli);
 1292              		.loc 1 418 0
 1293 048e 7019     		add	r0, r6, r5
 1294              	.LVL182:
 1295 0490 2821     		mov	r1, #40
 1296 0492 221C     		mov	r2, r4
 1297 0494 A369     		ldr	r3, [r4, #24]
 1298 0496 9847     		blx	r3
 1299              	.LVL183:
 1300 0498 061E     		sub	r6, r0, #0
 1301              	.LVL184:
 419:..\acn-sdk-c\src\http/client.c ****                 CHECK_CONN_ERR(ret);
 1302              		.loc 1 419 0
 1303 049a 05DA     		bge	.L68
 1304 049c 8948     		ldr	r0, .L144+36
 1305              	.LVL185:
 1306 049e 311C     		mov	r1, r6
 1307 04a0 FFF7FEFF 		bl	dbg_line
 1308              	.LVL186:
 418:..\acn-sdk-c\src\http/client.c ****                 CHECK_CONN_ERR(ret);
 1309              		.loc 1 418 0
 1310 04a4 0296     		str	r6, [sp, #8]
 1311              		.loc 1 419 0
 1312 04a6 F6E0     		b	.L129
 1313              	.LVL187:
 1314              	.L68:
 420:..\acn-sdk-c\src\http/client.c ****                 newTrfLen = (size_t)ret;
 421:..\acn-sdk-c\src\http/client.c ****                 trfLen += newTrfLen;
 1315              		.loc 1 421 0
 1316 04a8 2D18     		add	r5, r5, r0
 1317              	.LVL188:
 1318 04aa E6E7     		b	.L65
 1319              	.LVL189:
 1320              	.L66:
 1321              	.LBE66:
 422:..\acn-sdk-c\src\http/client.c **** //                DBG("Read %d chars; In buf: [%s]", newTrfLen, buf);
 423:..\acn-sdk-c\src\http/client.c ****                 continue;
 424:..\acn-sdk-c\src\http/client.c ****             } else {
 425:..\acn-sdk-c\src\http/client.c ****                 PRTCL_ERR();
 426:..\acn-sdk-c\src\http/client.c ****             }
 427:..\acn-sdk-c\src\http/client.c ****         }
 428:..\acn-sdk-c\src\http/client.c **** 
ARM GAS  C:\Users\ddemidov\AppData\Local\Temp\cch7zCWw.s 			page 34


 429:..\acn-sdk-c\src\http/client.c ****         crlfPos = crlfPtr - buf;
 1322              		.loc 1 429 0
 1323 04ac 049B     		ldr	r3, [sp, #16]
 1324 04ae 0EAA     		add	r2, sp, #56
 1325 04b0 9B1A     		sub	r3, r3, r2
 1326 04b2 0393     		str	r3, [sp, #12]
 1327              	.LVL190:
 430:..\acn-sdk-c\src\http/client.c **** 
 431:..\acn-sdk-c\src\http/client.c ****         if(crlfPos == 0) {
 1328              		.loc 1 431 0
 1329 04b4 0BD1     		bne	.L71
 432:..\acn-sdk-c\src\http/client.c ****             DBG("Headers read done");
 1330              		.loc 1 432 0
 1331 04b6 8448     		ldr	r0, .L144+40
 1332              	.LVL191:
 1333 04b8 FFF7FEFF 		bl	dbg_line
 1334              	.LVL192:
 433:..\acn-sdk-c\src\http/client.c ****             memmove(buf, &buf[2], trfLen - 2 + 1); //Be sure to move NULL-terminating char as well
 1335              		.loc 1 433 0
 1336 04bc 2A21     		mov	r1, #42
 1337 04be 04AB     		add	r3, sp, #16
 1338              	.LVL193:
 1339 04c0 6A1E     		sub	r2, r5, #1
 1340 04c2 301C     		mov	r0, r6
 1341 04c4 C918     		add	r1, r1, r3
 1342 04c6 FFF7FEFF 		bl	memmove
 1343              	.LVL194:
 434:..\acn-sdk-c\src\http/client.c ****             trfLen -= 2;
 1344              		.loc 1 434 0
 1345 04ca 023D     		sub	r5, r5, #2
 1346              	.LVL195:
 1347 04cc 6CE0     		b	.L72
 1348              	.LVL196:
 1349              	.L71:
 435:..\acn-sdk-c\src\http/client.c ****             break;
 436:..\acn-sdk-c\src\http/client.c ****         } else if ( crlfPos < 0 ) CHECK_CONN_ERR(-1);
 1350              		.loc 1 436 0
 1351 04ce 039B     		ldr	r3, [sp, #12]
 1352              	.LVL197:
 1353 04d0 002B     		cmp	r3, #0
 1354 04d2 05DA     		bge	.L73
 1355              		.loc 1 436 0 is_stmt 0 discriminator 2
 1356 04d4 0121     		mov	r1, #1
 1357 04d6 7B48     		ldr	r0, .L144+36
 1358              	.LVL198:
 1359 04d8 4942     		neg	r1, r1
 1360 04da FFF7FEFF 		bl	dbg_line
 1361              	.LVL199:
 1362 04de D7E0     		b	.L134
 1363              	.LVL200:
 1364              	.L73:
 437:..\acn-sdk-c\src\http/client.c **** 
 438:..\acn-sdk-c\src\http/client.c ****         buf[crlfPos] = '\0';
 1365              		.loc 1 438 0 is_stmt 1
 1366 04e0 0023     		mov	r3, #0
 1367 04e2 039A     		ldr	r2, [sp, #12]
 1368              	.LVL201:
ARM GAS  C:\Users\ddemidov\AppData\Local\Temp\cch7zCWw.s 			page 35


 439:..\acn-sdk-c\src\http/client.c ****         char key[CHUNK_SIZE];
 440:..\acn-sdk-c\src\http/client.c ****         char value[CHUNK_SIZE];
 441:..\acn-sdk-c\src\http/client.c **** 
 442:..\acn-sdk-c\src\http/client.c ****         int n = sscanf(buf, "%[^:]: %[^\r\n]", key, value);
 1369              		.loc 1 442 0
 1370 04e4 301C     		mov	r0, r6
 1371              	.LVL202:
 438:..\acn-sdk-c\src\http/client.c ****         char key[CHUNK_SIZE];
 1372              		.loc 1 438 0
 1373 04e6 B354     		strb	r3, [r6, r2]
 1374              		.loc 1 442 0
 1375 04e8 7849     		ldr	r1, .L144+44
 1376 04ea 4EAA     		add	r2, sp, #312
 1377 04ec 8EAB     		add	r3, sp, #568
 1378 04ee FFF7FEFF 		bl	sscanf
 1379              	.LVL203:
 443:..\acn-sdk-c\src\http/client.c ****         if ( n == 2 ) {
 1380              		.loc 1 443 0
 1381 04f2 0228     		cmp	r0, #2
 1382 04f4 3AD1     		bne	.L74
 444:..\acn-sdk-c\src\http/client.c **** //            DBG("Read header : %s: %s", key, value);
 445:..\acn-sdk-c\src\http/client.c ****             if( !strcmp(key, "Content-Length") ) {
 1383              		.loc 1 445 0
 1384 04f6 4EA8     		add	r0, sp, #312
 1385              	.LVL204:
 1386 04f8 7549     		ldr	r1, .L144+48
 1387 04fa FFF7FEFF 		bl	strcmp
 1388              	.LVL205:
 1389 04fe 0028     		cmp	r0, #0
 1390 0500 05D1     		bne	.L75
 446:..\acn-sdk-c\src\http/client.c ****                 sscanf(value, "%d", &recvContentLength);
 1391              		.loc 1 446 0
 1392 0502 8EA8     		add	r0, sp, #568
 1393 0504 7349     		ldr	r1, .L144+52
 1394 0506 07AA     		add	r2, sp, #28
 1395 0508 FFF7FEFF 		bl	sscanf
 1396              	.LVL206:
 1397 050c 24E0     		b	.L76
 1398              	.L75:
 447:..\acn-sdk-c\src\http/client.c ****             } else if( !strcmp(key, "Transfer-Encoding") ) {
 1399              		.loc 1 447 0
 1400 050e 4EA8     		add	r0, sp, #312
 1401 0510 7149     		ldr	r1, .L144+56
 1402 0512 FFF7FEFF 		bl	strcmp
 1403              	.LVL207:
 1404 0516 0028     		cmp	r0, #0
 1405 0518 0ED1     		bne	.L77
 448:..\acn-sdk-c\src\http/client.c ****                 if( !strcmp(value, "Chunked") || !strcmp(value, "chunked") )
 1406              		.loc 1 448 0
 1407 051a 8EA8     		add	r0, sp, #568
 1408 051c 6F49     		ldr	r1, .L144+60
 1409 051e FFF7FEFF 		bl	strcmp
 1410              	.LVL208:
 1411 0522 0028     		cmp	r0, #0
 1412 0524 05D0     		beq	.L78
 1413              		.loc 1 448 0 is_stmt 0 discriminator 1
 1414 0526 8EA8     		add	r0, sp, #568
ARM GAS  C:\Users\ddemidov\AppData\Local\Temp\cch7zCWw.s 			page 36


 1415 0528 6D49     		ldr	r1, .L144+64
 1416 052a FFF7FEFF 		bl	strcmp
 1417              	.LVL209:
 1418 052e 0028     		cmp	r0, #0
 1419 0530 12D1     		bne	.L76
 1420              	.L78:
 449:..\acn-sdk-c\src\http/client.c ****                     res->is_chunked = 1;
 1421              		.loc 1 449 0 is_stmt 1
 1422 0532 0123     		mov	r3, #1
 1423 0534 7B60     		str	r3, [r7, #4]
 1424 0536 0FE0     		b	.L76
 1425              	.L77:
 450:..\acn-sdk-c\src\http/client.c ****             } else if( !strcmp(key, "Content-Type") ) {
 1426              		.loc 1 450 0
 1427 0538 4EA8     		add	r0, sp, #312
 1428 053a 6A49     		ldr	r1, .L144+68
 1429 053c FFF7FEFF 		bl	strcmp
 1430              	.LVL210:
 1431 0540 0028     		cmp	r0, #0
 1432 0542 04D1     		bne	.L79
 451:..\acn-sdk-c\src\http/client.c ****                 http_response_set_content_type(res, value);
 1433              		.loc 1 451 0
 1434 0544 381C     		mov	r0, r7
 1435 0546 8EA9     		add	r1, sp, #568
 1436 0548 FFF7FEFF 		bl	http_response_set_content_type
 1437              	.LVL211:
 1438 054c 04E0     		b	.L76
 1439              	.L79:
 452:..\acn-sdk-c\src\http/client.c ****             } else {
 453:..\acn-sdk-c\src\http/client.c ****                 http_response_add_header(res, key, value);
 1440              		.loc 1 453 0
 1441 054e 381C     		mov	r0, r7
 1442 0550 4EA9     		add	r1, sp, #312
 1443 0552 8EAA     		add	r2, sp, #568
 1444 0554 FFF7FEFF 		bl	http_response_add_header
 1445              	.LVL212:
 1446              	.L76:
 454:..\acn-sdk-c\src\http/client.c ****             }
 455:..\acn-sdk-c\src\http/client.c ****             memmove(buf, crlfPtr+2, trfLen - (size_t)(crlfPos + 2) + 1);
 1447              		.loc 1 455 0
 1448 0558 039B     		ldr	r3, [sp, #12]
 1449 055a 0499     		ldr	r1, [sp, #16]
 1450 055c ED1A     		sub	r5, r5, r3
 1451              	.LVL213:
 1452 055e 6A1E     		sub	r2, r5, #1
 1453 0560 0231     		add	r1, r1, #2
 1454 0562 0EA8     		add	r0, sp, #56
 1455 0564 FFF7FEFF 		bl	memmove
 1456              	.LVL214:
 456:..\acn-sdk-c\src\http/client.c ****             trfLen -= (size_t)(crlfPos + 2);
 1457              		.loc 1 456 0
 1458 0568 023D     		sub	r5, r5, #2
 1459              	.LVL215:
 1460 056a 86E7     		b	.L65
 1461              	.LVL216:
 1462              	.L74:
 457:..\acn-sdk-c\src\http/client.c ****         } else {
ARM GAS  C:\Users\ddemidov\AppData\Local\Temp\cch7zCWw.s 			page 37


 458:..\acn-sdk-c\src\http/client.c ****             DBG("Could not parse header");
 1463              		.loc 1 458 0
 1464 056c 5E48     		ldr	r0, .L144+72
 1465              	.LVL217:
 1466 056e FFF7FEFF 		bl	dbg_line
 1467              	.LVL218:
 1468              	.L137:
 1469              	.LBB67:
 459:..\acn-sdk-c\src\http/client.c ****             PRTCL_ERR();
 1470              		.loc 1 459 0
 1471 0572 5248     		ldr	r0, .L144+28
 1472              	.LVL219:
 1473              	.L136:
 1474 0574 FFF7FEFF 		bl	dbg_line
 1475              	.LVL220:
 1476 0578 87E0     		b	.L135
 1477              	.LVL221:
 1478              	.L85:
 1479              	.LBE67:
 1480              	.LBE65:
 1481              	.LBB68:
 460:..\acn-sdk-c\src\http/client.c ****         }
 461:..\acn-sdk-c\src\http/client.c ****     }
 462:..\acn-sdk-c\src\http/client.c **** 
 463:..\acn-sdk-c\src\http/client.c ****     // return resp; //
 464:..\acn-sdk-c\src\http/client.c **** 
 465:..\acn-sdk-c\src\http/client.c ****     size_t chunk_len;
 466:..\acn-sdk-c\src\http/client.c **** //    DBG("get payload form buf: %d", trfLen);
 467:..\acn-sdk-c\src\http/client.c **** //    DBG("get payload form buf: [%s]", buf);
 468:..\acn-sdk-c\src\http/client.c ****     do {
 469:..\acn-sdk-c\src\http/client.c ****         if ( res->is_chunked ) {
 470:..\acn-sdk-c\src\http/client.c ****             while( (crlfPtr = strstr(buf, "\r\n")) == NULL ) {
 471:..\acn-sdk-c\src\http/client.c ****                 if ( trfLen + 10 > CHUNK_SIZE ) {
 472:..\acn-sdk-c\src\http/client.c ****                     memmove(buf, buf+10, trfLen-10);
 473:..\acn-sdk-c\src\http/client.c ****                     trfLen -= 10;
 474:..\acn-sdk-c\src\http/client.c ****                 }
 475:..\acn-sdk-c\src\http/client.c ****                 size_t newTrfLen = 0;
 476:..\acn-sdk-c\src\http/client.c ****                 ret = client_recv(buf+trfLen, 10, cli);
 477:..\acn-sdk-c\src\http/client.c ****                 if ( ret > 0 ) newTrfLen = (size_t)ret;
 478:..\acn-sdk-c\src\http/client.c ****                 trfLen += newTrfLen;
 479:..\acn-sdk-c\src\http/client.c ****             }
 480:..\acn-sdk-c\src\http/client.c ****             ret = sscanf(buf, "%x\r\n", (unsigned int*)&chunk_len);
 481:..\acn-sdk-c\src\http/client.c ****             if ( ret != 1 ) {
 482:..\acn-sdk-c\src\http/client.c ****                 memmove(buf, crlfPtr+2, trfLen - (size_t)crlfPos);
 483:..\acn-sdk-c\src\http/client.c ****                 trfLen -= (size_t)crlfPos;
 484:..\acn-sdk-c\src\http/client.c ****                 chunk_len = 0;
 485:..\acn-sdk-c\src\http/client.c ****                 return -1; // fail
 486:..\acn-sdk-c\src\http/client.c ****             }
 487:..\acn-sdk-c\src\http/client.c ****             DBG("detect chunk %d, %d", chunk_len, ret);
 1482              		.loc 1 487 0
 1483 057a 5C48     		ldr	r0, .L144+76
 1484              	.LVL222:
 1485 057c 8E99     		ldr	r1, [sp, #568]
 1486 057e FFF7FEFF 		bl	dbg_line
 1487              	.LVL223:
 488:..\acn-sdk-c\src\http/client.c ****             crlfPtr = strstr(buf, "\r\n");
 1488              		.loc 1 488 0
ARM GAS  C:\Users\ddemidov\AppData\Local\Temp\cch7zCWw.s 			page 38


 1489 0582 4849     		ldr	r1, .L144+4
 1490 0584 0EA8     		add	r0, sp, #56
 1491 0586 FFF7FEFF 		bl	strstr
 1492              	.LVL224:
 489:..\acn-sdk-c\src\http/client.c ****             crlfPos = crlfPtr + 2 - buf;
 1493              		.loc 1 489 0
 1494 058a 0EAB     		add	r3, sp, #56
 1495 058c 811C     		add	r1, r0, #2
 1496 058e CB1A     		sub	r3, r1, r3
 490:..\acn-sdk-c\src\http/client.c ****             memmove(buf, crlfPtr+2, trfLen - (size_t)crlfPos);
 1497              		.loc 1 490 0
 1498 0590 ED1A     		sub	r5, r5, r3
 1499              	.LVL225:
 1500 0592 0EA8     		add	r0, sp, #56
 1501              	.LVL226:
 1502 0594 2A1C     		mov	r2, r5
 489:..\acn-sdk-c\src\http/client.c ****             crlfPos = crlfPtr + 2 - buf;
 1503              		.loc 1 489 0
 1504 0596 0393     		str	r3, [sp, #12]
 1505              	.LVL227:
 1506              		.loc 1 490 0
 1507 0598 FFF7FEFF 		bl	memmove
 1508              	.LVL228:
 1509              	.L86:
 1510              	.LBE68:
 491:..\acn-sdk-c\src\http/client.c ****             trfLen -= (size_t)crlfPos;
 492:..\acn-sdk-c\src\http/client.c ****         } else {
 493:..\acn-sdk-c\src\http/client.c ****             chunk_len = MAX_BUFFER_SIZE - trfLen;
 494:..\acn-sdk-c\src\http/client.c ****         }
 495:..\acn-sdk-c\src\http/client.c ****         if ( !chunk_len ) break;
 1511              		.loc 1 495 0
 1512 059c 8E9B     		ldr	r3, [sp, #568]
 1513 059e 002B     		cmp	r3, #0
 1514 05a0 64D0     		beq	.L140
 1515              	.L88:
 496:..\acn-sdk-c\src\http/client.c ****         while ( chunk_len ) {
 1516              		.loc 1 496 0
 1517 05a2 8E9E     		ldr	r6, [sp, #568]
 1518 05a4 002E     		cmp	r6, #0
 1519 05a6 36D1     		bne	.L96
 1520              	.L72:
 469:..\acn-sdk-c\src\http/client.c ****             while( (crlfPtr = strstr(buf, "\r\n")) == NULL ) {
 1521              		.loc 1 469 0
 1522 05a8 7B68     		ldr	r3, [r7, #4]
 1523 05aa 002B     		cmp	r3, #0
 1524 05ac 2ED0     		beq	.L80
 1525              	.L81:
 1526              	.LBB70:
 470:..\acn-sdk-c\src\http/client.c ****                 if ( trfLen + 10 > CHUNK_SIZE ) {
 1527              		.loc 1 470 0
 1528 05ae 0EA8     		add	r0, sp, #56
 1529 05b0 3C49     		ldr	r1, .L144+4
 1530 05b2 FFF7FEFF 		bl	strstr
 1531              	.LVL229:
 1532 05b6 061E     		sub	r6, r0, #0
 1533              	.LVL230:
 1534 05b8 19D1     		bne	.L141
ARM GAS  C:\Users\ddemidov\AppData\Local\Temp\cch7zCWw.s 			page 39


 1535              	.LBB69:
 471:..\acn-sdk-c\src\http/client.c ****                     memmove(buf, buf+10, trfLen-10);
 1536              		.loc 1 471 0
 1537 05ba 2A1C     		mov	r2, r5
 1538 05bc 8023     		mov	r3, #128
 1539 05be 0A32     		add	r2, r2, #10
 1540 05c0 5B00     		lsl	r3, r3, #1
 1541 05c2 9A42     		cmp	r2, r3
 1542 05c4 07D9     		bls	.L82
 472:..\acn-sdk-c\src\http/client.c ****                     trfLen -= 10;
 1543              		.loc 1 472 0
 1544 05c6 3221     		mov	r1, #50
 1545 05c8 0A3D     		sub	r5, r5, #10
 1546              	.LVL231:
 1547 05ca 04AB     		add	r3, sp, #16
 1548 05cc 0EA8     		add	r0, sp, #56
 1549              	.LVL232:
 1550 05ce C918     		add	r1, r1, r3
 1551 05d0 2A1C     		mov	r2, r5
 1552 05d2 FFF7FEFF 		bl	memmove
 1553              	.LVL233:
 1554              	.L82:
 476:..\acn-sdk-c\src\http/client.c ****                 if ( ret > 0 ) newTrfLen = (size_t)ret;
 1555              		.loc 1 476 0
 1556 05d6 0EAB     		add	r3, sp, #56
 1557 05d8 5819     		add	r0, r3, r5
 1558 05da 0A21     		mov	r1, #10
 1559 05dc A369     		ldr	r3, [r4, #24]
 1560 05de 221C     		mov	r2, r4
 1561 05e0 9847     		blx	r3
 1562              	.LVL234:
 475:..\acn-sdk-c\src\http/client.c ****                 ret = client_recv(buf+trfLen, 10, cli);
 1563              		.loc 1 475 0
 1564 05e2 0023     		mov	r3, #0
 477:..\acn-sdk-c\src\http/client.c ****                 trfLen += newTrfLen;
 1565              		.loc 1 477 0
 1566 05e4 9842     		cmp	r0, r3
 1567 05e6 00DD     		ble	.L83
 477:..\acn-sdk-c\src\http/client.c ****                 trfLen += newTrfLen;
 1568              		.loc 1 477 0 is_stmt 0 discriminator 1
 1569 05e8 031C     		mov	r3, r0
 1570              	.LVL235:
 1571              	.L83:
 478:..\acn-sdk-c\src\http/client.c ****             }
 1572              		.loc 1 478 0 is_stmt 1
 1573 05ea ED18     		add	r5, r5, r3
 1574              	.LVL236:
 1575 05ec DFE7     		b	.L81
 1576              	.LVL237:
 1577              	.L141:
 1578              	.LBE69:
 480:..\acn-sdk-c\src\http/client.c ****             if ( ret != 1 ) {
 1579              		.loc 1 480 0
 1580 05ee 8EAA     		add	r2, sp, #568
 1581 05f0 0EA8     		add	r0, sp, #56
 1582              	.LVL238:
 1583 05f2 3F49     		ldr	r1, .L144+80
ARM GAS  C:\Users\ddemidov\AppData\Local\Temp\cch7zCWw.s 			page 40


 1584 05f4 FFF7FEFF 		bl	sscanf
 1585              	.LVL239:
 1586 05f8 021E     		sub	r2, r0, #0
 1587              	.LVL240:
 481:..\acn-sdk-c\src\http/client.c ****                 memmove(buf, crlfPtr+2, trfLen - (size_t)crlfPos);
 1588              		.loc 1 481 0
 1589 05fa 012A     		cmp	r2, #1
 1590 05fc BDD0     		beq	.L85
 482:..\acn-sdk-c\src\http/client.c ****                 trfLen -= (size_t)crlfPos;
 1591              		.loc 1 482 0
 1592 05fe 039B     		ldr	r3, [sp, #12]
 1593 0600 B11C     		add	r1, r6, #2
 1594 0602 EA1A     		sub	r2, r5, r3
 1595 0604 0EA8     		add	r0, sp, #56
 1596              	.LVL241:
 1597 0606 FFF7FEFF 		bl	memmove
 1598              	.LVL242:
 1599 060a 41E0     		b	.L134
 1600              	.LVL243:
 1601              	.L80:
 1602              	.LBE70:
 493:..\acn-sdk-c\src\http/client.c ****         }
 1603              		.loc 1 493 0
 1604 060c 8023     		mov	r3, #128
 1605 060e DB00     		lsl	r3, r3, #3
 1606 0610 5B1B     		sub	r3, r3, r5
 1607 0612 8E93     		str	r3, [sp, #568]
 1608 0614 C2E7     		b	.L86
 1609              	.L96:
 1610              	.LBB71:
 497:..\acn-sdk-c\src\http/client.c ****             size_t need_to_read = chunk_len < CHUNK_SIZE-10 ?
 1611              		.loc 1 497 0
 1612 0616 F62E     		cmp	r6, #246
 1613 0618 0ED9     		bls	.L90
 1614 061a F626     		mov	r6, #246
 1615              	.LVL244:
 498:..\acn-sdk-c\src\http/client.c ****                     chunk_len : CHUNK_SIZE-10;
 499:..\acn-sdk-c\src\http/client.c ****             while ( trfLen < need_to_read ) {
 1616              		.loc 1 499 0
 1617 061c 0CE0     		b	.L90
 1618              	.L93:
 1619              	.LVL245:
 1620              	.LBB72:
 500:..\acn-sdk-c\src\http/client.c ****                 size_t newTrfLen = 0;
 501:..\acn-sdk-c\src\http/client.c ****                 ret = client_recv(buf+trfLen, need_to_read-trfLen, cli);
 1621              		.loc 1 501 0
 1622 061e 0EAB     		add	r3, sp, #56
 1623 0620 711B     		sub	r1, r6, r5
 1624 0622 5819     		add	r0, r3, r5
 1625 0624 89B2     		uxth	r1, r1
 1626 0626 221C     		mov	r2, r4
 1627 0628 A369     		ldr	r3, [r4, #24]
 1628 062a 9847     		blx	r3
 1629              	.LVL246:
 502:..\acn-sdk-c\src\http/client.c ****                 if ( ret >= 0 ) newTrfLen = (size_t)ret;
 1630              		.loc 1 502 0
 1631 062c 0028     		cmp	r0, #0
ARM GAS  C:\Users\ddemidov\AppData\Local\Temp\cch7zCWw.s 			page 41


 1632 062e 02DA     		bge	.L92
 1633              	.LVL247:
 503:..\acn-sdk-c\src\http/client.c ****                 else { // ret < 0 - error
 504:..\acn-sdk-c\src\http/client.c ****                     need_to_read = trfLen;
 505:..\acn-sdk-c\src\http/client.c ****                     chunk_len = need_to_read;
 1634              		.loc 1 505 0
 1635 0630 2E1C     		mov	r6, r5
 506:..\acn-sdk-c\src\http/client.c ****                     newTrfLen = 0;
 1636              		.loc 1 506 0
 1637 0632 0020     		mov	r0, #0
 1638              	.LVL248:
 505:..\acn-sdk-c\src\http/client.c ****                     newTrfLen = 0;
 1639              		.loc 1 505 0
 1640 0634 8E95     		str	r5, [sp, #568]
 1641              	.LVL249:
 1642              	.L92:
 507:..\acn-sdk-c\src\http/client.c ****                 }
 508:..\acn-sdk-c\src\http/client.c ****                 trfLen += newTrfLen;
 1643              		.loc 1 508 0
 1644 0636 2D18     		add	r5, r5, r0
 1645              	.LVL250:
 1646              	.L90:
 1647              	.LBE72:
 499:..\acn-sdk-c\src\http/client.c ****                 size_t newTrfLen = 0;
 1648              		.loc 1 499 0
 1649 0638 B542     		cmp	r5, r6
 1650 063a F0D3     		bcc	.L93
 509:..\acn-sdk-c\src\http/client.c ****             }
 510:..\acn-sdk-c\src\http/client.c ****             http_response_add_payload(res, buf, need_to_read);
 1651              		.loc 1 510 0
 1652 063c 381C     		mov	r0, r7
 1653 063e 0EA9     		add	r1, sp, #56
 1654 0640 321C     		mov	r2, r6
 1655 0642 FFF7FEFF 		bl	http_response_add_payload
 1656              	.LVL251:
 511:..\acn-sdk-c\src\http/client.c ****             if ( trfLen == need_to_read ) {
 1657              		.loc 1 511 0
 1658 0646 B542     		cmp	r5, r6
 1659 0648 05D1     		bne	.L94
 1660              	.LVL252:
 512:..\acn-sdk-c\src\http/client.c ****                 trfLen = 0;
 513:..\acn-sdk-c\src\http/client.c ****                 buf[0] = 0;
 1661              		.loc 1 513 0
 1662 064a 2822     		mov	r2, #40
 1663 064c 0025     		mov	r5, #0
 1664 064e 04AB     		add	r3, sp, #16
 1665 0650 9B18     		add	r3, r3, r2
 1666 0652 1D70     		strb	r5, [r3]
 1667 0654 06E0     		b	.L95
 1668              	.LVL253:
 1669              	.L94:
 514:..\acn-sdk-c\src\http/client.c ****             } else {
 515:..\acn-sdk-c\src\http/client.c ****                 memmove(buf, buf + need_to_read, trfLen - need_to_read);
 1670              		.loc 1 515 0
 1671 0656 0EAB     		add	r3, sp, #56
 1672 0658 AD1B     		sub	r5, r5, r6
 1673              	.LVL254:
ARM GAS  C:\Users\ddemidov\AppData\Local\Temp\cch7zCWw.s 			page 42


 1674 065a 9919     		add	r1, r3, r6
 1675 065c 181C     		mov	r0, r3
 1676 065e 2A1C     		mov	r2, r5
 1677 0660 FFF7FEFF 		bl	memmove
 1678              	.LVL255:
 1679              	.L95:
 516:..\acn-sdk-c\src\http/client.c ****                 trfLen -= need_to_read;
 517:..\acn-sdk-c\src\http/client.c ****             }
 518:..\acn-sdk-c\src\http/client.c ****             chunk_len -= need_to_read;
 1680              		.loc 1 518 0
 1681 0664 8E9B     		ldr	r3, [sp, #568]
 1682 0666 9E1B     		sub	r6, r3, r6
 1683              	.LVL256:
 1684 0668 8E96     		str	r6, [sp, #568]
 1685 066a 9AE7     		b	.L88
 1686              	.L140:
 1687              	.LBE71:
 519:..\acn-sdk-c\src\http/client.c ****         }
 520:..\acn-sdk-c\src\http/client.c ****     } while(1);
 521:..\acn-sdk-c\src\http/client.c **** 
 522:..\acn-sdk-c\src\http/client.c ****     DBG("body{%s}", res->payload.buf);
 1688              		.loc 1 522 0
 1689 066c 2148     		ldr	r0, .L144+84
 1690 066e F969     		ldr	r1, [r7, #28]
 1691 0670 FFF7FEFF 		bl	dbg_line
 1692              	.LVL257:
 523:..\acn-sdk-c\src\http/client.c ****     soc_close(cli->sock);
 1693              		.loc 1 523 0
 1694 0674 2068     		ldr	r0, [r4]
 1695 0676 FFF7FEFF 		bl	soc_close
 1696              	.LVL258:
 524:..\acn-sdk-c\src\http/client.c ****     return 0;
 1697              		.loc 1 524 0
 1698 067a 0CE0     		b	.L129
 1699              	.LVL259:
 1700              	.L106:
 1701              	.LBB73:
 1702              	.LBB64:
 1703              	.LBB63:
 247:..\acn-sdk-c\src\http/client.c ****             newTrfLen = (size_t)ret;
 1704              		.loc 1 247 0
 1705 067c 011C     		mov	r1, r0
 1706 067e 01E0     		b	.L58
 1707              	.L107:
 1708              	.LBE63:
 251:..\acn-sdk-c\src\http/client.c ****         }
 1709              		.loc 1 251 0
 1710 0680 0121     		mov	r1, #1
 1711 0682 4942     		neg	r1, r1
 1712              	.L58:
 1713              	.LBE64:
 1714              	.LBE73:
 1715              	.LBB74:
 395:..\acn-sdk-c\src\http/client.c ****         soc_close(cli->sock);
 1716              		.loc 1 395 0
 1717 0684 0F48     		ldr	r0, .L144+36
 1718 0686 FFF7FEFF 		bl	dbg_line
ARM GAS  C:\Users\ddemidov\AppData\Local\Temp\cch7zCWw.s 			page 43


 1719              	.LVL260:
 1720              	.L135:
 396:..\acn-sdk-c\src\http/client.c ****         return -1;
 1721              		.loc 1 396 0
 1722 068a 2068     		ldr	r0, [r4]
 1723 068c FFF7FEFF 		bl	soc_close
 1724              	.LVL261:
 1725              	.L134:
 397:..\acn-sdk-c\src\http/client.c ****     }
 1726              		.loc 1 397 0
 1727 0690 0123     		mov	r3, #1
 1728 0692 5B42     		neg	r3, r3
 1729 0694 0293     		str	r3, [sp, #8]
 1730              	.L129:
 1731              	.LBE74:
 525:..\acn-sdk-c\src\http/client.c **** }
 1732              		.loc 1 525 0
 1733 0696 0298     		ldr	r0, [sp, #8]
 1734 0698 CF23     		mov	r3, #207
 1735 069a 9B00     		lsl	r3, r3, #2
 1736 069c 9D44     		add	sp, sp, r3
 1737              		@ sp needed
 1738              	.LVL262:
 1739              	.LVL263:
 1740 069e F0BD     		pop	{r4, r5, r6, r7, pc}
 1741              	.L145:
 1742              		.align	2
 1743              	.L144:
 1744 06a0 20010000 		.word	.LC52
 1745 06a4 F3000000 		.word	.LC44
 1746 06a8 33010000 		.word	.LC54
 1747 06ac 3E010000 		.word	.LC56
 1748 06b0 4A010000 		.word	.LC58
 1749 06b4 6A010000 		.word	.LC60
 1750 06b8 99010000 		.word	.LC62
 1751 06bc AA010000 		.word	.LC64
 1752 06c0 B9010000 		.word	.LC66
 1753 06c4 CC010000 		.word	.LC68
 1754 06c8 E2010000 		.word	.LC70
 1755 06cc F4010000 		.word	.LC72
 1756 06d0 02020000 		.word	.LC74
 1757 06d4 11020000 		.word	.LC76
 1758 06d8 14020000 		.word	.LC78
 1759 06dc 26020000 		.word	.LC80
 1760 06e0 2E020000 		.word	.LC82
 1761 06e4 36020000 		.word	.LC84
 1762 06e8 43020000 		.word	.LC86
 1763 06ec 5F020000 		.word	.LC90
 1764 06f0 5A020000 		.word	.LC88
 1765 06f4 73020000 		.word	.LC92
 1766              		.cfi_endproc
 1767              	.LFE12:
 1768              		.size	http_client_do, .-http_client_do
 1769              		.section	.rodata.str1.1,"aMS",%progbits,1
 1770              	.LC2:
 1771 0000 4552524F 		.ascii	"ERROR, no such host\000"
 1771      522C206E 
ARM GAS  C:\Users\ddemidov\AppData\Local\Temp\cch7zCWw.s 			page 44


 1771      6F207375 
 1771      63682068 
 1771      6F737400 
 1772              	.LC4:
 1773 0014 636F6E6E 		.ascii	"connect fail\000"
 1773      65637420 
 1773      6661696C 
 1773      00
 1774              	.LC6:
 1775 0021 636F6E6E 		.ascii	"connect done\000"
 1775      65637420 
 1775      646F6E65 
 1775      00
 1776              	.LC8:
 1777 002e 756E6162 		.ascii	"unable to get ctx\000"
 1777      6C652074 
 1777      6F206765 
 1777      74206374 
 1777      7800
 1778              	.LC12:
 1779 0040 6F6F7073 		.ascii	"oops, bad SSL ptr\000"
 1779      2C206261 
 1779      64205353 
 1779      4C207074 
 1779      7200
 1780              	.LC14:
 1781 0052 53534C20 		.ascii	"SSL connect fail\000"
 1781      636F6E6E 
 1781      65637420 
 1781      6661696C 
 1781      00
 1782              	.LC16:
 1783 0063 53534C20 		.ascii	"SSL connect done\000"
 1783      636F6E6E 
 1783      65637420 
 1783      646F6E65 
 1783      00
 1784              	.LC22:
 1785 0074 25732025 		.ascii	"%s %s\000"
 1785      7300
 1786              	.LC24:
 1787 007a 3F00     		.ascii	"?\000"
 1788              	.LC26:
 1789 007c 3D00     		.ascii	"=\000"
 1790              	.LC28:
 1791 007e 2600     		.ascii	"&\000"
 1792              	.LC30:
 1793 0080 20485454 		.ascii	" HTTP/1.1\015\012\000"
 1793      502F312E 
 1793      310D0A00 
 1794              	.LC32:
 1795 008c 486F7374 		.ascii	"Host: %s:%d\015\012\000"
 1795      3A202573 
 1795      3A25640D 
 1795      0A00
 1796              	.LC34:
 1797 009a 73656E64 		.ascii	"send start fail\000"
ARM GAS  C:\Users\ddemidov\AppData\Local\Temp\cch7zCWw.s 			page 45


 1797      20737461 
 1797      72742066 
 1797      61696C00 
 1798              	.LC36:
 1799 00aa 5472616E 		.ascii	"Transfer-Encoding: chunked\015\012\000"
 1799      73666572 
 1799      2D456E63 
 1799      6F64696E 
 1799      673A2063 
 1800              	.LC38:
 1801 00c7 436F6E74 		.ascii	"Content-Length: %lu\015\012\000"
 1801      656E742D 
 1801      4C656E67 
 1801      74683A20 
 1801      256C750D 
 1802              	.LC40:
 1803 00dd 436F6E74 		.ascii	"Content-Type: %s\015\012\000"
 1803      656E742D 
 1803      54797065 
 1803      3A202573 
 1803      0D0A00
 1804              	.LC42:
 1805 00f0 3A2000   		.ascii	": \000"
 1806              	.LC44:
 1807 00f3 0D0A00   		.ascii	"\015\012\000"
 1808              	.LC46:
 1809 00f6 73656E64 		.ascii	"send header fail\000"
 1809      20686561 
 1809      64657220 
 1809      6661696C 
 1809      00
 1810              	.LC48:
 1811 0107 73656E64 		.ascii	"send payload fail\000"
 1811      20706179 
 1811      6C6F6164 
 1811      20666169 
 1811      6C00
 1812              	.LC50:
 1813 0119 25303258 		.ascii	"%02X\015\012\000"
 1813      0D0A00
 1814              	.LC52:
 1815 0120 52656365 		.ascii	"Receiving response\000"
 1815      6976696E 
 1815      67207265 
 1815      73706F6E 
 1815      736500
 1816              	.LC54:
 1817 0133 72657370 		.ascii	"resp: {%s}\000"
 1817      3A207B25 
 1817      737D00
 1818              	.LC56:
 1819 013e 48545450 		.ascii	"HTTP/1.1 %d\000"
 1819      2F312E31 
 1819      20256400 
 1820              	.LC58:
 1821 014a 4E6F7420 		.ascii	"Not a correct HTTP answer : %s\012\000"
 1821      6120636F 
ARM GAS  C:\Users\ddemidov\AppData\Local\Temp\cch7zCWw.s 			page 46


 1821      72726563 
 1821      74204854 
 1821      54502061 
 1822              	.LC60:
 1823 016a 72656365 		.ascii	"receive_response memmove warning [%08x] %d, %d\000"
 1823      6976655F 
 1823      72657370 
 1823      6F6E7365 
 1823      206D656D 
 1824              	.LC62:
 1825 0199 52657370 		.ascii	"Response code %d\000"
 1825      6F6E7365 
 1825      20636F64 
 1825      65202564 
 1825      00
 1826              	.LC64:
 1827 01aa 50726F74 		.ascii	"Protocol error\000"
 1827      6F636F6C 
 1827      20657272 
 1827      6F7200
 1828              	.LC66:
 1829 01b9 52656164 		.ascii	"Reading headers %d\000"
 1829      696E6720 
 1829      68656164 
 1829      65727320 
 1829      256400
 1830              	.LC68:
 1831 01cc 436F6E6E 		.ascii	"Connection error (%d)\000"
 1831      65637469 
 1831      6F6E2065 
 1831      72726F72 
 1831      20282564 
 1832              	.LC70:
 1833 01e2 48656164 		.ascii	"Headers read done\000"
 1833      65727320 
 1833      72656164 
 1833      20646F6E 
 1833      6500
 1834              	.LC72:
 1835 01f4 255B5E3A 		.ascii	"%[^:]: %[^\015\012]\000"
 1835      5D3A2025 
 1835      5B5E0D0A 
 1835      5D00
 1836              	.LC74:
 1837 0202 436F6E74 		.ascii	"Content-Length\000"
 1837      656E742D 
 1837      4C656E67 
 1837      746800
 1838              	.LC76:
 1839 0211 256400   		.ascii	"%d\000"
 1840              	.LC78:
 1841 0214 5472616E 		.ascii	"Transfer-Encoding\000"
 1841      73666572 
 1841      2D456E63 
 1841      6F64696E 
 1841      6700
 1842              	.LC80:
ARM GAS  C:\Users\ddemidov\AppData\Local\Temp\cch7zCWw.s 			page 47


 1843 0226 4368756E 		.ascii	"Chunked\000"
 1843      6B656400 
 1844              	.LC82:
 1845 022e 6368756E 		.ascii	"chunked\000"
 1845      6B656400 
 1846              	.LC84:
 1847 0236 436F6E74 		.ascii	"Content-Type\000"
 1847      656E742D 
 1847      54797065 
 1847      00
 1848              	.LC86:
 1849 0243 436F756C 		.ascii	"Could not parse header\000"
 1849      64206E6F 
 1849      74207061 
 1849      72736520 
 1849      68656164 
 1850              	.LC88:
 1851 025a 25780D0A 		.ascii	"%x\015\012\000"
 1851      00
 1852              	.LC90:
 1853 025f 64657465 		.ascii	"detect chunk %d, %d\000"
 1853      63742063 
 1853      68756E6B 
 1853      2025642C 
 1853      20256400 
 1854              	.LC92:
 1855 0273 626F6479 		.ascii	"body{%s}\000"
 1855      7B25737D 
 1855      00
 1856              		.text
 1857              	.Letext0:
 1858              		.file 2 "c:\\program files (x86)\\cypress\\psoc creator\\3.3\\psoc creator\\import\\gnu\\arm\\4.9.
 1859              		.file 3 "c:\\program files (x86)\\cypress\\psoc creator\\3.3\\psoc creator\\import\\gnu\\arm\\4.9.
 1860              		.file 4 "c:\\program files (x86)\\cypress\\psoc creator\\3.3\\psoc creator\\import\\gnu\\arm\\4.9.
 1861              		.file 5 "..\\acn-sdk-c\\include/http/request.h"
 1862              		.file 6 "..\\acn-sdk-c\\src\\wolfSSL/wolfssl/ssl.h"
 1863              		.file 7 "..\\acn-sdk-c\\include/http/client.h"
 1864              		.file 8 "..\\acn-sdk-c/platforms/common/bsd/sockdef.h"
 1865              		.file 9 "..\\acn-sdk-c\\include/bsd/socket.h"
 1866              		.file 10 "c:\\program files (x86)\\cypress\\psoc creator\\3.3\\psoc creator\\import\\gnu\\arm\\4.9
 1867              		.file 11 "<built-in>"
 1868              		.file 12 "c:\\program files (x86)\\cypress\\psoc creator\\3.3\\psoc creator\\import\\gnu\\arm\\4.9
 1869              		.file 13 "..\\acn-sdk-c/platforms/senseability/trace.h"
 1870              		.file 14 "..\\acn-sdk-c\\include/bsd/inet.h"