ARM GAS  C:\Users\ddemidov\AppData\Local\Temp\ccYmawMU.s 			page 1


   1              		.cpu cortex-m0
   2              		.fpu softvfp
   3              		.eabi_attribute 20, 1
   4              		.eabi_attribute 21, 1
   5              		.eabi_attribute 23, 3
   6              		.eabi_attribute 24, 1
   7              		.eabi_attribute 25, 1
   8              		.eabi_attribute 26, 1
   9              		.eabi_attribute 30, 4
  10              		.eabi_attribute 34, 0
  11              		.eabi_attribute 18, 4
  12              		.code	16
  13              		.file	"_time.c"
  14              		.text
  15              	.Ltext0:
  16              		.cfi_sections	.debug_frame
  17              		.global	__aeabi_uidiv
  18              		.global	__aeabi_uidivmod
  19              		.section	.text.get_time,"ax",%progbits
  20              		.align	1
  21              		.global	get_time
  22              		.code	16
  23              		.thumb_func
  24              		.type	get_time, %function
  25              	get_time:
  26              	.LFB63:
  27              		.file 1 "..\\acn-sdk-c\\platforms\\senseability\\time\\_time.c"
   1:..\acn-sdk-c\platforms\senseability\time/_time.c **** #include "time/time.h"
   2:..\acn-sdk-c\platforms\senseability\time/_time.c **** #include <project.h>
   3:..\acn-sdk-c\platforms\senseability\time/_time.c **** #include "main.h"
   4:..\acn-sdk-c\platforms\senseability\time/_time.c **** 
   5:..\acn-sdk-c\platforms\senseability\time/_time.c **** #include <debug.h>
   6:..\acn-sdk-c\platforms\senseability\time/_time.c **** void get_time(char *ts) {
  28              		.loc 1 6 0
  29              		.cfi_startproc
  30              	.LVL0:
  31 0000 F0B5     		push	{r4, r5, r6, r7, lr}
  32              		.cfi_def_cfa_offset 20
  33              		.cfi_offset 4, -20
  34              		.cfi_offset 5, -16
  35              		.cfi_offset 6, -12
  36              		.cfi_offset 7, -8
  37              		.cfi_offset 14, -4
  38 0002 89B0     		sub	sp, sp, #36
  39              		.cfi_def_cfa_offset 56
  40              		.loc 1 6 0
  41 0004 071C     		mov	r7, r0
   7:..\acn-sdk-c\platforms\senseability\time/_time.c ****     struct tm *tmp;
   8:..\acn-sdk-c\platforms\senseability\time/_time.c ****     int ms;
   9:..\acn-sdk-c\platforms\senseability\time/_time.c ****     time_t now = RTC_GetUnixTime();
  42              		.loc 1 9 0
  43 0006 FFF7FEFF 		bl	RTC_GetUnixTime
  44              	.LVL1:
  45 000a 0790     		str	r0, [sp, #28]
  10:..\acn-sdk-c\platforms\senseability\time/_time.c ****     tmp = localtime(&now);
  46              		.loc 1 10 0
  47 000c 07A8     		add	r0, sp, #28
ARM GAS  C:\Users\ddemidov\AppData\Local\Temp\ccYmawMU.s 			page 2


  48 000e FFF7FEFF 		bl	localtime
  49              	.LVL2:
  50 0012 041C     		mov	r4, r0
  51              	.LVL3:
  11:..\acn-sdk-c\platforms\senseability\time/_time.c ****     ms = ( RTC_PPS_ReadCounter() / 48000 ) % 1000;
  52              		.loc 1 11 0
  53 0014 FFF7FEFF 		bl	RTC_PPS_ReadCounter
  54              	.LVL4:
  12:..\acn-sdk-c\platforms\senseability\time/_time.c ****     sprintf(ts, "%04d-%02d-%02dT%02d:%02d:%02d.%03dZ", 1900+tmp->tm_year, tmp->tm_mon+1, tmp->tm_md
  55              		.loc 1 12 0
  56 0018 6369     		ldr	r3, [r4, #20]
  57 001a 0E4A     		ldr	r2, .L2
  11:..\acn-sdk-c\platforms\senseability\time/_time.c ****     ms = ( RTC_PPS_ReadCounter() / 48000 ) % 1000;
  58              		.loc 1 11 0
  59 001c 0E49     		ldr	r1, .L2+4
  60              		.loc 1 12 0
  61 001e 9E18     		add	r6, r3, r2
  62 0020 2369     		ldr	r3, [r4, #16]
  63 0022 5D1C     		add	r5, r3, #1
  64 0024 E368     		ldr	r3, [r4, #12]
  65 0026 0093     		str	r3, [sp]
  66 0028 A368     		ldr	r3, [r4, #8]
  67 002a 0193     		str	r3, [sp, #4]
  68 002c 6368     		ldr	r3, [r4, #4]
  69 002e 0293     		str	r3, [sp, #8]
  70 0030 2368     		ldr	r3, [r4]
  71 0032 0393     		str	r3, [sp, #12]
  11:..\acn-sdk-c\platforms\senseability\time/_time.c ****     ms = ( RTC_PPS_ReadCounter() / 48000 ) % 1000;
  72              		.loc 1 11 0
  73 0034 FFF7FEFF 		bl	__aeabi_uidiv
  74              	.LVL5:
  75 0038 FA21     		mov	r1, #250
  76 003a 8900     		lsl	r1, r1, #2
  77 003c FFF7FEFF 		bl	__aeabi_uidivmod
  78              	.LVL6:
  79              		.loc 1 12 0
  80 0040 381C     		mov	r0, r7
  81 0042 0491     		str	r1, [sp, #16]
  82 0044 321C     		mov	r2, r6
  83 0046 0549     		ldr	r1, .L2+8
  84 0048 2B1C     		mov	r3, r5
  85 004a FFF7FEFF 		bl	sprintf
  86              	.LVL7:
  13:..\acn-sdk-c\platforms\senseability\time/_time.c ****               tmp->tm_hour, tmp->tm_min, tmp->tm_sec, ms);
  14:..\acn-sdk-c\platforms\senseability\time/_time.c **** }
  87              		.loc 1 14 0
  88 004e 09B0     		add	sp, sp, #36
  89              		@ sp needed
  90              	.LVL8:
  91              	.LVL9:
  92 0050 F0BD     		pop	{r4, r5, r6, r7, pc}
  93              	.L3:
  94 0052 C046     		.align	2
  95              	.L2:
  96 0054 6C070000 		.word	1900
  97 0058 80BB0000 		.word	48000
  98 005c 00000000 		.word	.LC0
ARM GAS  C:\Users\ddemidov\AppData\Local\Temp\ccYmawMU.s 			page 3


  99              		.cfi_endproc
 100              	.LFE63:
 101              		.size	get_time, .-get_time
 102              		.section	.text.gettimeofday,"ax",%progbits
 103              		.align	1
 104              		.global	gettimeofday
 105              		.code	16
 106              		.thumb_func
 107              		.type	gettimeofday, %function
 108              	gettimeofday:
 109              	.LFB65:
  15:..\acn-sdk-c\platforms\senseability\time/_time.c **** 
  16:..\acn-sdk-c\platforms\senseability\time/_time.c **** static void get_time_of_day(struct timeval *tval) {
  17:..\acn-sdk-c\platforms\senseability\time/_time.c ****     tval->tv_sec = time(NULL);
  18:..\acn-sdk-c\platforms\senseability\time/_time.c ****     tval->tv_usec = (suseconds_t) ( RTC_PPS_ReadCounter() / 48 ) % 1000000;
  19:..\acn-sdk-c\platforms\senseability\time/_time.c **** }
  20:..\acn-sdk-c\platforms\senseability\time/_time.c **** 
  21:..\acn-sdk-c\platforms\senseability\time/_time.c **** int gettimeofday(struct timeval *__restrict __p,  void *__restrict __tz) {
 110              		.loc 1 21 0
 111              		.cfi_startproc
 112              	.LVL10:
  22:..\acn-sdk-c\platforms\senseability\time/_time.c ****     (void)(__tz);
  23:..\acn-sdk-c\platforms\senseability\time/_time.c ****     /*get_time_of_day(__p);*/
  24:..\acn-sdk-c\platforms\senseability\time/_time.c ****     return 0;
  25:..\acn-sdk-c\platforms\senseability\time/_time.c **** }
 113              		.loc 1 25 0
 114 0000 0020     		mov	r0, #0
 115              	.LVL11:
 116              		@ sp needed
 117 0002 7047     		bx	lr
 118              		.cfi_endproc
 119              	.LFE65:
 120              		.size	gettimeofday, .-gettimeofday
 121              		.section	.text.time,"ax",%progbits
 122              		.align	1
 123              		.global	time
 124              		.code	16
 125              		.thumb_func
 126              		.type	time, %function
 127              	time:
 128              	.LFB66:
  26:..\acn-sdk-c\platforms\senseability\time/_time.c **** 
  27:..\acn-sdk-c\platforms\senseability\time/_time.c **** time_t time(time_t *timer) {
 129              		.loc 1 27 0
 130              		.cfi_startproc
 131              	.LVL12:
 132 0000 10B5     		push	{r4, lr}
 133              		.cfi_def_cfa_offset 8
 134              		.cfi_offset 4, -8
 135              		.cfi_offset 14, -4
 136              		.loc 1 27 0
 137 0002 041C     		mov	r4, r0
  28:..\acn-sdk-c\platforms\senseability\time/_time.c ****     time_t t = 0;
  29:..\acn-sdk-c\platforms\senseability\time/_time.c ****     t = RTC_GetUnixTime();
 138              		.loc 1 29 0
 139 0004 FFF7FEFF 		bl	RTC_GetUnixTime
 140              	.LVL13:
ARM GAS  C:\Users\ddemidov\AppData\Local\Temp\ccYmawMU.s 			page 4


  30:..\acn-sdk-c\platforms\senseability\time/_time.c ****     if ( timer ) *timer = t;
 141              		.loc 1 30 0
 142 0008 002C     		cmp	r4, #0
 143 000a 00D0     		beq	.L6
 144              		.loc 1 30 0 is_stmt 0 discriminator 1
 145 000c 2060     		str	r0, [r4]
 146              	.L6:
  31:..\acn-sdk-c\platforms\senseability\time/_time.c ****     return t;
  32:..\acn-sdk-c\platforms\senseability\time/_time.c **** }
 147              		.loc 1 32 0 is_stmt 1
 148              		@ sp needed
 149              	.LVL14:
 150 000e 10BD     		pop	{r4, pc}
 151              		.cfi_endproc
 152              	.LFE66:
 153              		.size	time, .-time
 154              		.section	.text.stime,"ax",%progbits
 155              		.align	1
 156              		.global	stime
 157              		.code	16
 158              		.thumb_func
 159              		.type	stime, %function
 160              	stime:
 161              	.LFB67:
  33:..\acn-sdk-c\platforms\senseability\time/_time.c **** 
  34:..\acn-sdk-c\platforms\senseability\time/_time.c **** int stime(time_t *timer) {
 162              		.loc 1 34 0
 163              		.cfi_startproc
 164              	.LVL15:
 165 0000 08B5     		push	{r3, lr}
 166              		.cfi_def_cfa_offset 8
 167              		.cfi_offset 3, -8
 168              		.cfi_offset 14, -4
  35:..\acn-sdk-c\platforms\senseability\time/_time.c ****     RTC_SetUnixTime(*timer);
 169              		.loc 1 35 0
 170 0002 0068     		ldr	r0, [r0]
 171              	.LVL16:
  36:..\acn-sdk-c\platforms\senseability\time/_time.c ****     return 0;
  37:..\acn-sdk-c\platforms\senseability\time/_time.c **** }
 172              		.loc 1 37 0
 173              		@ sp needed
  35:..\acn-sdk-c\platforms\senseability\time/_time.c ****     RTC_SetUnixTime(*timer);
 174              		.loc 1 35 0
 175 0004 C117     		asr	r1, r0, #31
 176 0006 FFF7FEFF 		bl	RTC_SetUnixTime
 177              	.LVL17:
 178              		.loc 1 37 0
 179 000a 0020     		mov	r0, #0
 180 000c 08BD     		pop	{r3, pc}
 181              		.cfi_endproc
 182              	.LFE67:
 183              		.size	stime, .-stime
 184              		.section	.rodata.str1.1,"aMS",%progbits,1
 185              	.LC0:
 186 0000 25303464 		.ascii	"%04d-%02d-%02dT%02d:%02d:%02d.%03dZ\000"
 186      2D253032 
 186      642D2530 
ARM GAS  C:\Users\ddemidov\AppData\Local\Temp\ccYmawMU.s 			page 5


 186      32645425 
 186      3032643A 
 187              		.text
 188              	.Letext0:
 189              		.file 2 "c:\\program files (x86)\\cypress\\psoc creator\\3.3\\psoc creator\\import\\gnu\\arm\\4.9.
 190              		.file 3 "c:\\program files (x86)\\cypress\\psoc creator\\3.3\\psoc creator\\import\\gnu\\arm\\4.9.
 191              		.file 4 "c:\\program files (x86)\\cypress\\psoc creator\\3.3\\psoc creator\\import\\gnu\\arm\\4.9.
 192              		.file 5 "Generated_Source\\PSoC4/cytypes.h"
 193              		.file 6 "<built-in>"
 194              		.file 7 "Generated_Source\\PSoC4/RTC.h"
 195              		.file 8 "Generated_Source\\PSoC4/RTC_PPS.h"