ARM GAS  C:\Users\ddemidov\AppData\Local\Temp\ccTwWFqA.s 			page 1


   1              		.cpu cortex-m0
   2              		.fpu softvfp
   3              		.eabi_attribute 20, 1
   4              		.eabi_attribute 21, 1
   5              		.eabi_attribute 23, 3
   6              		.eabi_attribute 24, 1
   7              		.eabi_attribute 25, 1
   8              		.eabi_attribute 26, 1
   9              		.eabi_attribute 30, 1
  10              		.eabi_attribute 34, 0
  11              		.eabi_attribute 18, 4
  12              		.code	16
  13              		.file	"aes.c"
  14              		.text
  15              	.Ltext0:
  16              		.cfi_sections	.debug_frame
  17              		.section	.text.wc_AesEncrypt,"ax",%progbits
  18              		.align	2
  19              		.code	16
  20              		.thumb_func
  21              		.type	wc_AesEncrypt, %function
  22              	wc_AesEncrypt:
  23              	.LFB12:
  24              		.file 1 "..\\kronos-c-sdk\\src\\wolfSSL\\wolfcrypt\\src\\aes.c"
   1:..\kronos-c-sdk\src\wolfSSL\wolfcrypt\src/aes.c **** /* aes.c
   2:..\kronos-c-sdk\src\wolfSSL\wolfcrypt\src/aes.c ****  *
   3:..\kronos-c-sdk\src\wolfSSL\wolfcrypt\src/aes.c ****  * Copyright (C) 2006-2016 wolfSSL Inc.
   4:..\kronos-c-sdk\src\wolfSSL\wolfcrypt\src/aes.c ****  *
   5:..\kronos-c-sdk\src\wolfSSL\wolfcrypt\src/aes.c ****  * This file is part of wolfSSL.
   6:..\kronos-c-sdk\src\wolfSSL\wolfcrypt\src/aes.c ****  *
   7:..\kronos-c-sdk\src\wolfSSL\wolfcrypt\src/aes.c ****  * wolfSSL is free software; you can redistribute it and/or modify
   8:..\kronos-c-sdk\src\wolfSSL\wolfcrypt\src/aes.c ****  * it under the terms of the GNU General Public License as published by
   9:..\kronos-c-sdk\src\wolfSSL\wolfcrypt\src/aes.c ****  * the Free Software Foundation; either version 2 of the License, or
  10:..\kronos-c-sdk\src\wolfSSL\wolfcrypt\src/aes.c ****  * (at your option) any later version.
  11:..\kronos-c-sdk\src\wolfSSL\wolfcrypt\src/aes.c ****  *
  12:..\kronos-c-sdk\src\wolfSSL\wolfcrypt\src/aes.c ****  * wolfSSL is distributed in the hope that it will be useful,
  13:..\kronos-c-sdk\src\wolfSSL\wolfcrypt\src/aes.c ****  * but WITHOUT ANY WARRANTY; without even the implied warranty of
  14:..\kronos-c-sdk\src\wolfSSL\wolfcrypt\src/aes.c ****  * MERCHANTABILITY or FITNESS FOR A PARTICULAR PURPOSE.  See the
  15:..\kronos-c-sdk\src\wolfSSL\wolfcrypt\src/aes.c ****  * GNU General Public License for more details.
  16:..\kronos-c-sdk\src\wolfSSL\wolfcrypt\src/aes.c ****  *
  17:..\kronos-c-sdk\src\wolfSSL\wolfcrypt\src/aes.c ****  * You should have received a copy of the GNU General Public License
  18:..\kronos-c-sdk\src\wolfSSL\wolfcrypt\src/aes.c ****  * along with this program; if not, write to the Free Software
  19:..\kronos-c-sdk\src\wolfSSL\wolfcrypt\src/aes.c ****  * Foundation, Inc., 51 Franklin Street, Fifth Floor, Boston, MA 02110-1335, USA
  20:..\kronos-c-sdk\src\wolfSSL\wolfcrypt\src/aes.c ****  */
  21:..\kronos-c-sdk\src\wolfSSL\wolfcrypt\src/aes.c **** 
  22:..\kronos-c-sdk\src\wolfSSL\wolfcrypt\src/aes.c **** 
  23:..\kronos-c-sdk\src\wolfSSL\wolfcrypt\src/aes.c **** #ifdef HAVE_CONFIG_H
  24:..\kronos-c-sdk\src\wolfSSL\wolfcrypt\src/aes.c ****     #include <config.h>
  25:..\kronos-c-sdk\src\wolfSSL\wolfcrypt\src/aes.c **** #endif
  26:..\kronos-c-sdk\src\wolfSSL\wolfcrypt\src/aes.c **** 
  27:..\kronos-c-sdk\src\wolfSSL\wolfcrypt\src/aes.c **** #include <wolfssl/wolfcrypt/settings.h>
  28:..\kronos-c-sdk\src\wolfSSL\wolfcrypt\src/aes.c **** 
  29:..\kronos-c-sdk\src\wolfSSL\wolfcrypt\src/aes.c **** #ifndef NO_AES
  30:..\kronos-c-sdk\src\wolfSSL\wolfcrypt\src/aes.c **** 
  31:..\kronos-c-sdk\src\wolfSSL\wolfcrypt\src/aes.c **** #include <wolfssl/wolfcrypt/aes.h>
  32:..\kronos-c-sdk\src\wolfSSL\wolfcrypt\src/aes.c **** 
  33:..\kronos-c-sdk\src\wolfSSL\wolfcrypt\src/aes.c **** #ifdef HAVE_FIPS
ARM GAS  C:\Users\ddemidov\AppData\Local\Temp\ccTwWFqA.s 			page 2


  34:..\kronos-c-sdk\src\wolfSSL\wolfcrypt\src/aes.c **** int wc_AesSetKey(Aes* aes, const byte* key, word32 len, const byte* iv,
  35:..\kronos-c-sdk\src\wolfSSL\wolfcrypt\src/aes.c ****                           int dir)
  36:..\kronos-c-sdk\src\wolfSSL\wolfcrypt\src/aes.c **** {
  37:..\kronos-c-sdk\src\wolfSSL\wolfcrypt\src/aes.c ****     return AesSetKey_fips(aes, key, len, iv, dir);
  38:..\kronos-c-sdk\src\wolfSSL\wolfcrypt\src/aes.c **** }
  39:..\kronos-c-sdk\src\wolfSSL\wolfcrypt\src/aes.c **** 
  40:..\kronos-c-sdk\src\wolfSSL\wolfcrypt\src/aes.c **** 
  41:..\kronos-c-sdk\src\wolfSSL\wolfcrypt\src/aes.c **** int wc_AesSetIV(Aes* aes, const byte* iv)
  42:..\kronos-c-sdk\src\wolfSSL\wolfcrypt\src/aes.c **** {
  43:..\kronos-c-sdk\src\wolfSSL\wolfcrypt\src/aes.c ****     return AesSetIV_fips(aes, iv);
  44:..\kronos-c-sdk\src\wolfSSL\wolfcrypt\src/aes.c **** }
  45:..\kronos-c-sdk\src\wolfSSL\wolfcrypt\src/aes.c **** 
  46:..\kronos-c-sdk\src\wolfSSL\wolfcrypt\src/aes.c **** 
  47:..\kronos-c-sdk\src\wolfSSL\wolfcrypt\src/aes.c **** #ifdef HAVE_AES_CBC
  48:..\kronos-c-sdk\src\wolfSSL\wolfcrypt\src/aes.c **** int wc_AesCbcEncrypt(Aes* aes, byte* out, const byte* in, word32 sz)
  49:..\kronos-c-sdk\src\wolfSSL\wolfcrypt\src/aes.c **** {
  50:..\kronos-c-sdk\src\wolfSSL\wolfcrypt\src/aes.c ****     return AesCbcEncrypt_fips(aes, out, in, sz);
  51:..\kronos-c-sdk\src\wolfSSL\wolfcrypt\src/aes.c **** }
  52:..\kronos-c-sdk\src\wolfSSL\wolfcrypt\src/aes.c **** 
  53:..\kronos-c-sdk\src\wolfSSL\wolfcrypt\src/aes.c **** #ifdef HAVE_AES_DECRYPT
  54:..\kronos-c-sdk\src\wolfSSL\wolfcrypt\src/aes.c **** int wc_AesCbcDecrypt(Aes* aes, byte* out, const byte* in, word32 sz)
  55:..\kronos-c-sdk\src\wolfSSL\wolfcrypt\src/aes.c **** {
  56:..\kronos-c-sdk\src\wolfSSL\wolfcrypt\src/aes.c ****     return AesCbcDecrypt_fips(aes, out, in, sz);
  57:..\kronos-c-sdk\src\wolfSSL\wolfcrypt\src/aes.c **** }
  58:..\kronos-c-sdk\src\wolfSSL\wolfcrypt\src/aes.c **** #endif /* HAVE_AES_DECRYPT */
  59:..\kronos-c-sdk\src\wolfSSL\wolfcrypt\src/aes.c **** #endif /* HAVE_AES_CBC */
  60:..\kronos-c-sdk\src\wolfSSL\wolfcrypt\src/aes.c **** 
  61:..\kronos-c-sdk\src\wolfSSL\wolfcrypt\src/aes.c **** /* AES-CTR */
  62:..\kronos-c-sdk\src\wolfSSL\wolfcrypt\src/aes.c **** #ifdef WOLFSSL_AES_COUNTER
  63:..\kronos-c-sdk\src\wolfSSL\wolfcrypt\src/aes.c **** void wc_AesCtrEncrypt(Aes* aes, byte* out, const byte* in, word32 sz)
  64:..\kronos-c-sdk\src\wolfSSL\wolfcrypt\src/aes.c **** {
  65:..\kronos-c-sdk\src\wolfSSL\wolfcrypt\src/aes.c ****     AesCtrEncrypt(aes, out, in, sz);
  66:..\kronos-c-sdk\src\wolfSSL\wolfcrypt\src/aes.c **** }
  67:..\kronos-c-sdk\src\wolfSSL\wolfcrypt\src/aes.c **** #endif
  68:..\kronos-c-sdk\src\wolfSSL\wolfcrypt\src/aes.c **** 
  69:..\kronos-c-sdk\src\wolfSSL\wolfcrypt\src/aes.c **** /* AES-DIRECT */
  70:..\kronos-c-sdk\src\wolfSSL\wolfcrypt\src/aes.c **** #if defined(WOLFSSL_AES_DIRECT)
  71:..\kronos-c-sdk\src\wolfSSL\wolfcrypt\src/aes.c **** void wc_AesEncryptDirect(Aes* aes, byte* out, const byte* in)
  72:..\kronos-c-sdk\src\wolfSSL\wolfcrypt\src/aes.c **** {
  73:..\kronos-c-sdk\src\wolfSSL\wolfcrypt\src/aes.c ****     AesEncryptDirect(aes, out, in);
  74:..\kronos-c-sdk\src\wolfSSL\wolfcrypt\src/aes.c **** }
  75:..\kronos-c-sdk\src\wolfSSL\wolfcrypt\src/aes.c **** 
  76:..\kronos-c-sdk\src\wolfSSL\wolfcrypt\src/aes.c **** #ifdef HAVE_AES_DECRYPT
  77:..\kronos-c-sdk\src\wolfSSL\wolfcrypt\src/aes.c **** void wc_AesDecryptDirect(Aes* aes, byte* out, const byte* in)
  78:..\kronos-c-sdk\src\wolfSSL\wolfcrypt\src/aes.c **** {
  79:..\kronos-c-sdk\src\wolfSSL\wolfcrypt\src/aes.c ****     AesDecryptDirect(aes, out, in);
  80:..\kronos-c-sdk\src\wolfSSL\wolfcrypt\src/aes.c **** }
  81:..\kronos-c-sdk\src\wolfSSL\wolfcrypt\src/aes.c **** #endif /* HAVE_AES_DECRYPT */
  82:..\kronos-c-sdk\src\wolfSSL\wolfcrypt\src/aes.c **** 
  83:..\kronos-c-sdk\src\wolfSSL\wolfcrypt\src/aes.c **** int wc_AesSetKeyDirect(Aes* aes, const byte* key, word32 len,
  84:..\kronos-c-sdk\src\wolfSSL\wolfcrypt\src/aes.c ****                                 const byte* iv, int dir)
  85:..\kronos-c-sdk\src\wolfSSL\wolfcrypt\src/aes.c **** {
  86:..\kronos-c-sdk\src\wolfSSL\wolfcrypt\src/aes.c ****     return AesSetKeyDirect(aes, key, len, iv, dir);
  87:..\kronos-c-sdk\src\wolfSSL\wolfcrypt\src/aes.c **** }
  88:..\kronos-c-sdk\src\wolfSSL\wolfcrypt\src/aes.c **** #endif
  89:..\kronos-c-sdk\src\wolfSSL\wolfcrypt\src/aes.c **** 
  90:..\kronos-c-sdk\src\wolfSSL\wolfcrypt\src/aes.c **** 
ARM GAS  C:\Users\ddemidov\AppData\Local\Temp\ccTwWFqA.s 			page 3


  91:..\kronos-c-sdk\src\wolfSSL\wolfcrypt\src/aes.c **** #ifdef HAVE_AESGCM
  92:..\kronos-c-sdk\src\wolfSSL\wolfcrypt\src/aes.c **** int wc_AesGcmSetKey(Aes* aes, const byte* key, word32 len)
  93:..\kronos-c-sdk\src\wolfSSL\wolfcrypt\src/aes.c **** {
  94:..\kronos-c-sdk\src\wolfSSL\wolfcrypt\src/aes.c ****     return AesGcmSetKey_fips(aes, key, len);
  95:..\kronos-c-sdk\src\wolfSSL\wolfcrypt\src/aes.c **** }
  96:..\kronos-c-sdk\src\wolfSSL\wolfcrypt\src/aes.c **** 
  97:..\kronos-c-sdk\src\wolfSSL\wolfcrypt\src/aes.c **** 
  98:..\kronos-c-sdk\src\wolfSSL\wolfcrypt\src/aes.c **** int wc_AesGcmEncrypt(Aes* aes, byte* out, const byte* in, word32 sz,
  99:..\kronos-c-sdk\src\wolfSSL\wolfcrypt\src/aes.c ****                               const byte* iv, word32 ivSz,
 100:..\kronos-c-sdk\src\wolfSSL\wolfcrypt\src/aes.c ****                               byte* authTag, word32 authTagSz,
 101:..\kronos-c-sdk\src\wolfSSL\wolfcrypt\src/aes.c ****                               const byte* authIn, word32 authInSz)
 102:..\kronos-c-sdk\src\wolfSSL\wolfcrypt\src/aes.c **** {
 103:..\kronos-c-sdk\src\wolfSSL\wolfcrypt\src/aes.c ****     return AesGcmEncrypt_fips(aes, out, in, sz, iv, ivSz, authTag, authTagSz,
 104:..\kronos-c-sdk\src\wolfSSL\wolfcrypt\src/aes.c ****                               authIn, authInSz);
 105:..\kronos-c-sdk\src\wolfSSL\wolfcrypt\src/aes.c **** }
 106:..\kronos-c-sdk\src\wolfSSL\wolfcrypt\src/aes.c **** 
 107:..\kronos-c-sdk\src\wolfSSL\wolfcrypt\src/aes.c **** #ifdef HAVE_AES_DECRYPT
 108:..\kronos-c-sdk\src\wolfSSL\wolfcrypt\src/aes.c **** int wc_AesGcmDecrypt(Aes* aes, byte* out, const byte* in, word32 sz,
 109:..\kronos-c-sdk\src\wolfSSL\wolfcrypt\src/aes.c ****                               const byte* iv, word32 ivSz,
 110:..\kronos-c-sdk\src\wolfSSL\wolfcrypt\src/aes.c ****                               const byte* authTag, word32 authTagSz,
 111:..\kronos-c-sdk\src\wolfSSL\wolfcrypt\src/aes.c ****                               const byte* authIn, word32 authInSz)
 112:..\kronos-c-sdk\src\wolfSSL\wolfcrypt\src/aes.c **** {
 113:..\kronos-c-sdk\src\wolfSSL\wolfcrypt\src/aes.c ****     return AesGcmDecrypt_fips(aes, out, in, sz, iv, ivSz, authTag, authTagSz,
 114:..\kronos-c-sdk\src\wolfSSL\wolfcrypt\src/aes.c ****                               authIn, authInSz);
 115:..\kronos-c-sdk\src\wolfSSL\wolfcrypt\src/aes.c **** }
 116:..\kronos-c-sdk\src\wolfSSL\wolfcrypt\src/aes.c **** #endif /* HAVE_AES_DECRYPT */
 117:..\kronos-c-sdk\src\wolfSSL\wolfcrypt\src/aes.c **** 
 118:..\kronos-c-sdk\src\wolfSSL\wolfcrypt\src/aes.c **** int wc_GmacSetKey(Gmac* gmac, const byte* key, word32 len)
 119:..\kronos-c-sdk\src\wolfSSL\wolfcrypt\src/aes.c **** {
 120:..\kronos-c-sdk\src\wolfSSL\wolfcrypt\src/aes.c ****     return GmacSetKey(gmac, key, len);
 121:..\kronos-c-sdk\src\wolfSSL\wolfcrypt\src/aes.c **** }
 122:..\kronos-c-sdk\src\wolfSSL\wolfcrypt\src/aes.c **** 
 123:..\kronos-c-sdk\src\wolfSSL\wolfcrypt\src/aes.c **** 
 124:..\kronos-c-sdk\src\wolfSSL\wolfcrypt\src/aes.c **** int wc_GmacUpdate(Gmac* gmac, const byte* iv, word32 ivSz,
 125:..\kronos-c-sdk\src\wolfSSL\wolfcrypt\src/aes.c ****                               const byte* authIn, word32 authInSz,
 126:..\kronos-c-sdk\src\wolfSSL\wolfcrypt\src/aes.c ****                               byte* authTag, word32 authTagSz)
 127:..\kronos-c-sdk\src\wolfSSL\wolfcrypt\src/aes.c **** {
 128:..\kronos-c-sdk\src\wolfSSL\wolfcrypt\src/aes.c ****     return GmacUpdate(gmac, iv, ivSz, authIn, authInSz,
 129:..\kronos-c-sdk\src\wolfSSL\wolfcrypt\src/aes.c ****                       authTag, authTagSz);
 130:..\kronos-c-sdk\src\wolfSSL\wolfcrypt\src/aes.c **** }
 131:..\kronos-c-sdk\src\wolfSSL\wolfcrypt\src/aes.c **** 
 132:..\kronos-c-sdk\src\wolfSSL\wolfcrypt\src/aes.c **** #endif /* HAVE_AESGCM */
 133:..\kronos-c-sdk\src\wolfSSL\wolfcrypt\src/aes.c **** #ifdef HAVE_AESCCM
 134:..\kronos-c-sdk\src\wolfSSL\wolfcrypt\src/aes.c **** void wc_AesCcmSetKey(Aes* aes, const byte* key, word32 keySz)
 135:..\kronos-c-sdk\src\wolfSSL\wolfcrypt\src/aes.c **** {
 136:..\kronos-c-sdk\src\wolfSSL\wolfcrypt\src/aes.c ****     AesCcmSetKey(aes, key, keySz);
 137:..\kronos-c-sdk\src\wolfSSL\wolfcrypt\src/aes.c **** }
 138:..\kronos-c-sdk\src\wolfSSL\wolfcrypt\src/aes.c **** 
 139:..\kronos-c-sdk\src\wolfSSL\wolfcrypt\src/aes.c **** 
 140:..\kronos-c-sdk\src\wolfSSL\wolfcrypt\src/aes.c **** int wc_AesCcmEncrypt(Aes* aes, byte* out, const byte* in, word32 inSz,
 141:..\kronos-c-sdk\src\wolfSSL\wolfcrypt\src/aes.c ****                               const byte* nonce, word32 nonceSz,
 142:..\kronos-c-sdk\src\wolfSSL\wolfcrypt\src/aes.c ****                               byte* authTag, word32 authTagSz,
 143:..\kronos-c-sdk\src\wolfSSL\wolfcrypt\src/aes.c ****                               const byte* authIn, word32 authInSz)
 144:..\kronos-c-sdk\src\wolfSSL\wolfcrypt\src/aes.c **** {
 145:..\kronos-c-sdk\src\wolfSSL\wolfcrypt\src/aes.c ****     /* sanity check on arguments */
 146:..\kronos-c-sdk\src\wolfSSL\wolfcrypt\src/aes.c ****     if (aes == NULL || out == NULL || in == NULL || nonce == NULL
 147:..\kronos-c-sdk\src\wolfSSL\wolfcrypt\src/aes.c ****             || authTag == NULL || nonceSz < 7 || nonceSz > 13)
ARM GAS  C:\Users\ddemidov\AppData\Local\Temp\ccTwWFqA.s 			page 4


 148:..\kronos-c-sdk\src\wolfSSL\wolfcrypt\src/aes.c ****         return BAD_FUNC_ARG;
 149:..\kronos-c-sdk\src\wolfSSL\wolfcrypt\src/aes.c **** 
 150:..\kronos-c-sdk\src\wolfSSL\wolfcrypt\src/aes.c ****     AesCcmEncrypt(aes, out, in, inSz, nonce, nonceSz, authTag, authTagSz,
 151:..\kronos-c-sdk\src\wolfSSL\wolfcrypt\src/aes.c ****                   authIn, authInSz);
 152:..\kronos-c-sdk\src\wolfSSL\wolfcrypt\src/aes.c ****     return 0;
 153:..\kronos-c-sdk\src\wolfSSL\wolfcrypt\src/aes.c **** }
 154:..\kronos-c-sdk\src\wolfSSL\wolfcrypt\src/aes.c **** 
 155:..\kronos-c-sdk\src\wolfSSL\wolfcrypt\src/aes.c **** #ifdef HAVE_AES_DECRYPT
 156:..\kronos-c-sdk\src\wolfSSL\wolfcrypt\src/aes.c **** int  wc_AesCcmDecrypt(Aes* aes, byte* out, const byte* in, word32 inSz,
 157:..\kronos-c-sdk\src\wolfSSL\wolfcrypt\src/aes.c ****                               const byte* nonce, word32 nonceSz,
 158:..\kronos-c-sdk\src\wolfSSL\wolfcrypt\src/aes.c ****                               const byte* authTag, word32 authTagSz,
 159:..\kronos-c-sdk\src\wolfSSL\wolfcrypt\src/aes.c ****                               const byte* authIn, word32 authInSz)
 160:..\kronos-c-sdk\src\wolfSSL\wolfcrypt\src/aes.c **** {
 161:..\kronos-c-sdk\src\wolfSSL\wolfcrypt\src/aes.c ****     return AesCcmDecrypt(aes, out, in, inSz, nonce, nonceSz, authTag, authTagSz,
 162:..\kronos-c-sdk\src\wolfSSL\wolfcrypt\src/aes.c ****                          authIn, authInSz);
 163:..\kronos-c-sdk\src\wolfSSL\wolfcrypt\src/aes.c **** }
 164:..\kronos-c-sdk\src\wolfSSL\wolfcrypt\src/aes.c **** #endif /* HAVE_AES_DECRYPT */
 165:..\kronos-c-sdk\src\wolfSSL\wolfcrypt\src/aes.c **** #endif /* HAVE_AESCCM */
 166:..\kronos-c-sdk\src\wolfSSL\wolfcrypt\src/aes.c **** 
 167:..\kronos-c-sdk\src\wolfSSL\wolfcrypt\src/aes.c **** #ifdef HAVE_CAVIUM
 168:..\kronos-c-sdk\src\wolfSSL\wolfcrypt\src/aes.c **** int  wc_AesInitCavium(Aes* aes, int i)
 169:..\kronos-c-sdk\src\wolfSSL\wolfcrypt\src/aes.c **** {
 170:..\kronos-c-sdk\src\wolfSSL\wolfcrypt\src/aes.c ****     return AesInitCavium(aes, i);
 171:..\kronos-c-sdk\src\wolfSSL\wolfcrypt\src/aes.c **** }
 172:..\kronos-c-sdk\src\wolfSSL\wolfcrypt\src/aes.c **** 
 173:..\kronos-c-sdk\src\wolfSSL\wolfcrypt\src/aes.c **** 
 174:..\kronos-c-sdk\src\wolfSSL\wolfcrypt\src/aes.c **** void wc_AesFreeCavium(Aes* aes)
 175:..\kronos-c-sdk\src\wolfSSL\wolfcrypt\src/aes.c **** {
 176:..\kronos-c-sdk\src\wolfSSL\wolfcrypt\src/aes.c ****     AesFreeCavium(aes);
 177:..\kronos-c-sdk\src\wolfSSL\wolfcrypt\src/aes.c **** }
 178:..\kronos-c-sdk\src\wolfSSL\wolfcrypt\src/aes.c **** #endif
 179:..\kronos-c-sdk\src\wolfSSL\wolfcrypt\src/aes.c **** #else /* HAVE_FIPS */
 180:..\kronos-c-sdk\src\wolfSSL\wolfcrypt\src/aes.c **** 
 181:..\kronos-c-sdk\src\wolfSSL\wolfcrypt\src/aes.c **** #ifdef WOLFSSL_TI_CRYPT
 182:..\kronos-c-sdk\src\wolfSSL\wolfcrypt\src/aes.c **** #include <wolfcrypt/src/port/ti/ti-aes.c>
 183:..\kronos-c-sdk\src\wolfSSL\wolfcrypt\src/aes.c **** #else
 184:..\kronos-c-sdk\src\wolfSSL\wolfcrypt\src/aes.c **** 
 185:..\kronos-c-sdk\src\wolfSSL\wolfcrypt\src/aes.c **** #include <wolfssl/wolfcrypt/error-crypt.h>
 186:..\kronos-c-sdk\src\wolfSSL\wolfcrypt\src/aes.c **** #include <wolfssl/wolfcrypt/logging.h>
 187:..\kronos-c-sdk\src\wolfSSL\wolfcrypt\src/aes.c **** #ifdef NO_INLINE
 188:..\kronos-c-sdk\src\wolfSSL\wolfcrypt\src/aes.c ****     #include <wolfssl/wolfcrypt/misc.h>
 189:..\kronos-c-sdk\src\wolfSSL\wolfcrypt\src/aes.c **** #else
 190:..\kronos-c-sdk\src\wolfSSL\wolfcrypt\src/aes.c ****     #include <wolfcrypt/src/misc.c>
 191:..\kronos-c-sdk\src\wolfSSL\wolfcrypt\src/aes.c **** #endif
 192:..\kronos-c-sdk\src\wolfSSL\wolfcrypt\src/aes.c **** #ifdef DEBUG_AESNI
 193:..\kronos-c-sdk\src\wolfSSL\wolfcrypt\src/aes.c ****     #include <stdio.h>
 194:..\kronos-c-sdk\src\wolfSSL\wolfcrypt\src/aes.c **** #endif
 195:..\kronos-c-sdk\src\wolfSSL\wolfcrypt\src/aes.c **** 
 196:..\kronos-c-sdk\src\wolfSSL\wolfcrypt\src/aes.c **** 
 197:..\kronos-c-sdk\src\wolfSSL\wolfcrypt\src/aes.c **** #ifdef _MSC_VER
 198:..\kronos-c-sdk\src\wolfSSL\wolfcrypt\src/aes.c ****     /* 4127 warning constant while(1)  */
 199:..\kronos-c-sdk\src\wolfSSL\wolfcrypt\src/aes.c ****     #pragma warning(disable: 4127)
 200:..\kronos-c-sdk\src\wolfSSL\wolfcrypt\src/aes.c **** #endif
 201:..\kronos-c-sdk\src\wolfSSL\wolfcrypt\src/aes.c **** 
 202:..\kronos-c-sdk\src\wolfSSL\wolfcrypt\src/aes.c **** /* Define AES implementation includes and functions */
 203:..\kronos-c-sdk\src\wolfSSL\wolfcrypt\src/aes.c **** #if defined(STM32F2_CRYPTO)
 204:..\kronos-c-sdk\src\wolfSSL\wolfcrypt\src/aes.c ****      /* STM32F2 hardware AES support for CBC, CTR modes through the STM32F2
ARM GAS  C:\Users\ddemidov\AppData\Local\Temp\ccTwWFqA.s 			page 5


 205:..\kronos-c-sdk\src\wolfSSL\wolfcrypt\src/aes.c ****       * Standard Peripheral Library. Documentation located in STM32F2xx
 206:..\kronos-c-sdk\src\wolfSSL\wolfcrypt\src/aes.c ****       * Standard Peripheral Library document (See note in README).
 207:..\kronos-c-sdk\src\wolfSSL\wolfcrypt\src/aes.c ****       * NOTE: no support for AES-GCM/CCM/Direct */
 208:..\kronos-c-sdk\src\wolfSSL\wolfcrypt\src/aes.c ****     #include "stm32f2xx.h"
 209:..\kronos-c-sdk\src\wolfSSL\wolfcrypt\src/aes.c ****     #include "stm32f2xx_cryp.h"
 210:..\kronos-c-sdk\src\wolfSSL\wolfcrypt\src/aes.c **** #elif defined(HAVE_COLDFIRE_SEC)
 211:..\kronos-c-sdk\src\wolfSSL\wolfcrypt\src/aes.c ****     /* Freescale Coldfire SEC support for CBC mode.
 212:..\kronos-c-sdk\src\wolfSSL\wolfcrypt\src/aes.c ****      * NOTE: no support for AES-CTR/GCM/CCM/Direct */
 213:..\kronos-c-sdk\src\wolfSSL\wolfcrypt\src/aes.c ****     #include <wolfssl/wolfcrypt/types.h>
 214:..\kronos-c-sdk\src\wolfSSL\wolfcrypt\src/aes.c ****     #include "sec.h"
 215:..\kronos-c-sdk\src\wolfSSL\wolfcrypt\src/aes.c ****     #include "mcf5475_sec.h"
 216:..\kronos-c-sdk\src\wolfSSL\wolfcrypt\src/aes.c ****     #include "mcf5475_siu.h"
 217:..\kronos-c-sdk\src\wolfSSL\wolfcrypt\src/aes.c **** #elif defined(FREESCALE_MMCAU)
 218:..\kronos-c-sdk\src\wolfSSL\wolfcrypt\src/aes.c ****     /* Freescale mmCAU hardware AES support for Direct, CBC, CCM, GCM modes
 219:..\kronos-c-sdk\src\wolfSSL\wolfcrypt\src/aes.c ****      * through the CAU/mmCAU library. Documentation located in
 220:..\kronos-c-sdk\src\wolfSSL\wolfcrypt\src/aes.c ****      * ColdFire/ColdFire+ CAU and Kinetis mmCAU Software Library User
 221:..\kronos-c-sdk\src\wolfSSL\wolfcrypt\src/aes.c ****      * Guide (See note in README).
 222:..\kronos-c-sdk\src\wolfSSL\wolfcrypt\src/aes.c ****      * NOTE: no support for AES-CTR */
 223:..\kronos-c-sdk\src\wolfSSL\wolfcrypt\src/aes.c ****     #include "cau_api.h"
 224:..\kronos-c-sdk\src\wolfSSL\wolfcrypt\src/aes.c **** 
 225:..\kronos-c-sdk\src\wolfSSL\wolfcrypt\src/aes.c ****     static int wc_AesEncrypt(Aes* aes, const byte* inBlock, byte* outBlock)
 226:..\kronos-c-sdk\src\wolfSSL\wolfcrypt\src/aes.c ****     {
 227:..\kronos-c-sdk\src\wolfSSL\wolfcrypt\src/aes.c ****         int ret = wolfSSL_CryptHwMutexLock();
 228:..\kronos-c-sdk\src\wolfSSL\wolfcrypt\src/aes.c ****         if(ret == 0) {
 229:..\kronos-c-sdk\src\wolfSSL\wolfcrypt\src/aes.c ****             cau_aes_encrypt(inBlock, (byte*)aes->key, aes->rounds, outBlock);
 230:..\kronos-c-sdk\src\wolfSSL\wolfcrypt\src/aes.c ****             wolfSSL_CryptHwMutexUnLock();
 231:..\kronos-c-sdk\src\wolfSSL\wolfcrypt\src/aes.c ****         }
 232:..\kronos-c-sdk\src\wolfSSL\wolfcrypt\src/aes.c ****         return ret;
 233:..\kronos-c-sdk\src\wolfSSL\wolfcrypt\src/aes.c ****     }
 234:..\kronos-c-sdk\src\wolfSSL\wolfcrypt\src/aes.c ****     #ifdef HAVE_AES_DECRYPT
 235:..\kronos-c-sdk\src\wolfSSL\wolfcrypt\src/aes.c ****     static int wc_AesDecrypt(Aes* aes, const byte* inBlock, byte* outBlock)
 236:..\kronos-c-sdk\src\wolfSSL\wolfcrypt\src/aes.c ****     {
 237:..\kronos-c-sdk\src\wolfSSL\wolfcrypt\src/aes.c ****         int ret = wolfSSL_CryptHwMutexLock();
 238:..\kronos-c-sdk\src\wolfSSL\wolfcrypt\src/aes.c ****         if(ret == 0) {
 239:..\kronos-c-sdk\src\wolfSSL\wolfcrypt\src/aes.c ****             cau_aes_decrypt(inBlock, (byte*)aes->key, aes->rounds, outBlock);
 240:..\kronos-c-sdk\src\wolfSSL\wolfcrypt\src/aes.c ****             wolfSSL_CryptHwMutexUnLock();
 241:..\kronos-c-sdk\src\wolfSSL\wolfcrypt\src/aes.c ****         }
 242:..\kronos-c-sdk\src\wolfSSL\wolfcrypt\src/aes.c ****         return ret;
 243:..\kronos-c-sdk\src\wolfSSL\wolfcrypt\src/aes.c ****     }
 244:..\kronos-c-sdk\src\wolfSSL\wolfcrypt\src/aes.c ****     #endif /* HAVE_AES_DECRYPT */
 245:..\kronos-c-sdk\src\wolfSSL\wolfcrypt\src/aes.c **** #elif defined(WOLFSSL_PIC32MZ_CRYPT)
 246:..\kronos-c-sdk\src\wolfSSL\wolfcrypt\src/aes.c ****     /* NOTE: no support for AES-CCM/Direct */
 247:..\kronos-c-sdk\src\wolfSSL\wolfcrypt\src/aes.c ****     #define DEBUG_WOLFSSL
 248:..\kronos-c-sdk\src\wolfSSL\wolfcrypt\src/aes.c ****     #include "wolfssl/wolfcrypt/port/pic32/pic32mz-crypt.h"
 249:..\kronos-c-sdk\src\wolfSSL\wolfcrypt\src/aes.c **** #elif defined(HAVE_CAVIUM)
 250:..\kronos-c-sdk\src\wolfSSL\wolfcrypt\src/aes.c ****     #include <wolfssl/wolfcrypt/logging.h>
 251:..\kronos-c-sdk\src\wolfSSL\wolfcrypt\src/aes.c ****     #include "cavium_common.h"
 252:..\kronos-c-sdk\src\wolfSSL\wolfcrypt\src/aes.c **** 
 253:..\kronos-c-sdk\src\wolfSSL\wolfcrypt\src/aes.c ****     /* still leave SW crypto available */
 254:..\kronos-c-sdk\src\wolfSSL\wolfcrypt\src/aes.c ****     #define NEED_AES_TABLES
 255:..\kronos-c-sdk\src\wolfSSL\wolfcrypt\src/aes.c **** 
 256:..\kronos-c-sdk\src\wolfSSL\wolfcrypt\src/aes.c ****     static int  wc_AesCaviumSetKey(Aes* aes, const byte* key, word32 length,
 257:..\kronos-c-sdk\src\wolfSSL\wolfcrypt\src/aes.c ****                                 const byte* iv);
 258:..\kronos-c-sdk\src\wolfSSL\wolfcrypt\src/aes.c ****     #ifdef HAVE_AES_CBC
 259:..\kronos-c-sdk\src\wolfSSL\wolfcrypt\src/aes.c ****     static int  wc_AesCaviumCbcEncrypt(Aes* aes, byte* out, const byte* in,
 260:..\kronos-c-sdk\src\wolfSSL\wolfcrypt\src/aes.c ****                                     word32 length);
 261:..\kronos-c-sdk\src\wolfSSL\wolfcrypt\src/aes.c ****     #ifdef HAVE_AES_DECRYPT
ARM GAS  C:\Users\ddemidov\AppData\Local\Temp\ccTwWFqA.s 			page 6


 262:..\kronos-c-sdk\src\wolfSSL\wolfcrypt\src/aes.c ****     static int  wc_AesCaviumCbcDecrypt(Aes* aes, byte* out, const byte* in,
 263:..\kronos-c-sdk\src\wolfSSL\wolfcrypt\src/aes.c ****                                     word32 length);
 264:..\kronos-c-sdk\src\wolfSSL\wolfcrypt\src/aes.c ****     #endif /* HAVE_AES_DECRYPT */
 265:..\kronos-c-sdk\src\wolfSSL\wolfcrypt\src/aes.c ****     #endif /* HAVE_AES_CBC */
 266:..\kronos-c-sdk\src\wolfSSL\wolfcrypt\src/aes.c **** #elif defined(WOLFSSL_NRF51_AES)
 267:..\kronos-c-sdk\src\wolfSSL\wolfcrypt\src/aes.c ****     /* Use built-in AES hardware - AES 128 ECB Encrypt Only */
 268:..\kronos-c-sdk\src\wolfSSL\wolfcrypt\src/aes.c ****     #include "wolfssl/wolfcrypt/port/nrf51.h"
 269:..\kronos-c-sdk\src\wolfSSL\wolfcrypt\src/aes.c **** 
 270:..\kronos-c-sdk\src\wolfSSL\wolfcrypt\src/aes.c ****     static int wc_AesEncrypt(Aes* aes, const byte* inBlock, byte* outBlock)
 271:..\kronos-c-sdk\src\wolfSSL\wolfcrypt\src/aes.c ****     {
 272:..\kronos-c-sdk\src\wolfSSL\wolfcrypt\src/aes.c ****         return nrf51_aes_encrypt(inBlock, (byte*)aes->key, aes->rounds, outBlock);
 273:..\kronos-c-sdk\src\wolfSSL\wolfcrypt\src/aes.c ****     }
 274:..\kronos-c-sdk\src\wolfSSL\wolfcrypt\src/aes.c ****     #ifdef HAVE_AES_DECRYPT
 275:..\kronos-c-sdk\src\wolfSSL\wolfcrypt\src/aes.c ****         #error nRF51 AES Hardware does not support decrypt
 276:..\kronos-c-sdk\src\wolfSSL\wolfcrypt\src/aes.c ****     #endif /* HAVE_AES_DECRYPT */
 277:..\kronos-c-sdk\src\wolfSSL\wolfcrypt\src/aes.c **** 
 278:..\kronos-c-sdk\src\wolfSSL\wolfcrypt\src/aes.c **** #else
 279:..\kronos-c-sdk\src\wolfSSL\wolfcrypt\src/aes.c **** 
 280:..\kronos-c-sdk\src\wolfSSL\wolfcrypt\src/aes.c ****     /* using wolfCrypt software AES implementation */
 281:..\kronos-c-sdk\src\wolfSSL\wolfcrypt\src/aes.c ****     #define NEED_AES_TABLES
 282:..\kronos-c-sdk\src\wolfSSL\wolfcrypt\src/aes.c **** #endif
 283:..\kronos-c-sdk\src\wolfSSL\wolfcrypt\src/aes.c **** 
 284:..\kronos-c-sdk\src\wolfSSL\wolfcrypt\src/aes.c **** 
 285:..\kronos-c-sdk\src\wolfSSL\wolfcrypt\src/aes.c **** #ifdef NEED_AES_TABLES
 286:..\kronos-c-sdk\src\wolfSSL\wolfcrypt\src/aes.c **** 
 287:..\kronos-c-sdk\src\wolfSSL\wolfcrypt\src/aes.c **** static const word32 rcon[] = {
 288:..\kronos-c-sdk\src\wolfSSL\wolfcrypt\src/aes.c ****     0x01000000, 0x02000000, 0x04000000, 0x08000000,
 289:..\kronos-c-sdk\src\wolfSSL\wolfcrypt\src/aes.c ****     0x10000000, 0x20000000, 0x40000000, 0x80000000,
 290:..\kronos-c-sdk\src\wolfSSL\wolfcrypt\src/aes.c ****     0x1B000000, 0x36000000,
 291:..\kronos-c-sdk\src\wolfSSL\wolfcrypt\src/aes.c ****     /* for 128-bit blocks, Rijndael never uses more than 10 rcon values */
 292:..\kronos-c-sdk\src\wolfSSL\wolfcrypt\src/aes.c **** };
 293:..\kronos-c-sdk\src\wolfSSL\wolfcrypt\src/aes.c **** 
 294:..\kronos-c-sdk\src\wolfSSL\wolfcrypt\src/aes.c **** static const word32 Te[5][256] = {
 295:..\kronos-c-sdk\src\wolfSSL\wolfcrypt\src/aes.c **** {
 296:..\kronos-c-sdk\src\wolfSSL\wolfcrypt\src/aes.c ****     0xc66363a5U, 0xf87c7c84U, 0xee777799U, 0xf67b7b8dU,
 297:..\kronos-c-sdk\src\wolfSSL\wolfcrypt\src/aes.c ****     0xfff2f20dU, 0xd66b6bbdU, 0xde6f6fb1U, 0x91c5c554U,
 298:..\kronos-c-sdk\src\wolfSSL\wolfcrypt\src/aes.c ****     0x60303050U, 0x02010103U, 0xce6767a9U, 0x562b2b7dU,
 299:..\kronos-c-sdk\src\wolfSSL\wolfcrypt\src/aes.c ****     0xe7fefe19U, 0xb5d7d762U, 0x4dababe6U, 0xec76769aU,
 300:..\kronos-c-sdk\src\wolfSSL\wolfcrypt\src/aes.c ****     0x8fcaca45U, 0x1f82829dU, 0x89c9c940U, 0xfa7d7d87U,
 301:..\kronos-c-sdk\src\wolfSSL\wolfcrypt\src/aes.c ****     0xeffafa15U, 0xb25959ebU, 0x8e4747c9U, 0xfbf0f00bU,
 302:..\kronos-c-sdk\src\wolfSSL\wolfcrypt\src/aes.c ****     0x41adadecU, 0xb3d4d467U, 0x5fa2a2fdU, 0x45afafeaU,
 303:..\kronos-c-sdk\src\wolfSSL\wolfcrypt\src/aes.c ****     0x239c9cbfU, 0x53a4a4f7U, 0xe4727296U, 0x9bc0c05bU,
 304:..\kronos-c-sdk\src\wolfSSL\wolfcrypt\src/aes.c ****     0x75b7b7c2U, 0xe1fdfd1cU, 0x3d9393aeU, 0x4c26266aU,
 305:..\kronos-c-sdk\src\wolfSSL\wolfcrypt\src/aes.c ****     0x6c36365aU, 0x7e3f3f41U, 0xf5f7f702U, 0x83cccc4fU,
 306:..\kronos-c-sdk\src\wolfSSL\wolfcrypt\src/aes.c ****     0x6834345cU, 0x51a5a5f4U, 0xd1e5e534U, 0xf9f1f108U,
 307:..\kronos-c-sdk\src\wolfSSL\wolfcrypt\src/aes.c ****     0xe2717193U, 0xabd8d873U, 0x62313153U, 0x2a15153fU,
 308:..\kronos-c-sdk\src\wolfSSL\wolfcrypt\src/aes.c ****     0x0804040cU, 0x95c7c752U, 0x46232365U, 0x9dc3c35eU,
 309:..\kronos-c-sdk\src\wolfSSL\wolfcrypt\src/aes.c ****     0x30181828U, 0x379696a1U, 0x0a05050fU, 0x2f9a9ab5U,
 310:..\kronos-c-sdk\src\wolfSSL\wolfcrypt\src/aes.c ****     0x0e070709U, 0x24121236U, 0x1b80809bU, 0xdfe2e23dU,
 311:..\kronos-c-sdk\src\wolfSSL\wolfcrypt\src/aes.c ****     0xcdebeb26U, 0x4e272769U, 0x7fb2b2cdU, 0xea75759fU,
 312:..\kronos-c-sdk\src\wolfSSL\wolfcrypt\src/aes.c ****     0x1209091bU, 0x1d83839eU, 0x582c2c74U, 0x341a1a2eU,
 313:..\kronos-c-sdk\src\wolfSSL\wolfcrypt\src/aes.c ****     0x361b1b2dU, 0xdc6e6eb2U, 0xb45a5aeeU, 0x5ba0a0fbU,
 314:..\kronos-c-sdk\src\wolfSSL\wolfcrypt\src/aes.c ****     0xa45252f6U, 0x763b3b4dU, 0xb7d6d661U, 0x7db3b3ceU,
 315:..\kronos-c-sdk\src\wolfSSL\wolfcrypt\src/aes.c ****     0x5229297bU, 0xdde3e33eU, 0x5e2f2f71U, 0x13848497U,
 316:..\kronos-c-sdk\src\wolfSSL\wolfcrypt\src/aes.c ****     0xa65353f5U, 0xb9d1d168U, 0x00000000U, 0xc1eded2cU,
 317:..\kronos-c-sdk\src\wolfSSL\wolfcrypt\src/aes.c ****     0x40202060U, 0xe3fcfc1fU, 0x79b1b1c8U, 0xb65b5bedU,
 318:..\kronos-c-sdk\src\wolfSSL\wolfcrypt\src/aes.c ****     0xd46a6abeU, 0x8dcbcb46U, 0x67bebed9U, 0x7239394bU,
ARM GAS  C:\Users\ddemidov\AppData\Local\Temp\ccTwWFqA.s 			page 7


 319:..\kronos-c-sdk\src\wolfSSL\wolfcrypt\src/aes.c ****     0x944a4adeU, 0x984c4cd4U, 0xb05858e8U, 0x85cfcf4aU,
 320:..\kronos-c-sdk\src\wolfSSL\wolfcrypt\src/aes.c ****     0xbbd0d06bU, 0xc5efef2aU, 0x4faaaae5U, 0xedfbfb16U,
 321:..\kronos-c-sdk\src\wolfSSL\wolfcrypt\src/aes.c ****     0x864343c5U, 0x9a4d4dd7U, 0x66333355U, 0x11858594U,
 322:..\kronos-c-sdk\src\wolfSSL\wolfcrypt\src/aes.c ****     0x8a4545cfU, 0xe9f9f910U, 0x04020206U, 0xfe7f7f81U,
 323:..\kronos-c-sdk\src\wolfSSL\wolfcrypt\src/aes.c ****     0xa05050f0U, 0x783c3c44U, 0x259f9fbaU, 0x4ba8a8e3U,
 324:..\kronos-c-sdk\src\wolfSSL\wolfcrypt\src/aes.c ****     0xa25151f3U, 0x5da3a3feU, 0x804040c0U, 0x058f8f8aU,
 325:..\kronos-c-sdk\src\wolfSSL\wolfcrypt\src/aes.c ****     0x3f9292adU, 0x219d9dbcU, 0x70383848U, 0xf1f5f504U,
 326:..\kronos-c-sdk\src\wolfSSL\wolfcrypt\src/aes.c ****     0x63bcbcdfU, 0x77b6b6c1U, 0xafdada75U, 0x42212163U,
 327:..\kronos-c-sdk\src\wolfSSL\wolfcrypt\src/aes.c ****     0x20101030U, 0xe5ffff1aU, 0xfdf3f30eU, 0xbfd2d26dU,
 328:..\kronos-c-sdk\src\wolfSSL\wolfcrypt\src/aes.c ****     0x81cdcd4cU, 0x180c0c14U, 0x26131335U, 0xc3ecec2fU,
 329:..\kronos-c-sdk\src\wolfSSL\wolfcrypt\src/aes.c ****     0xbe5f5fe1U, 0x359797a2U, 0x884444ccU, 0x2e171739U,
 330:..\kronos-c-sdk\src\wolfSSL\wolfcrypt\src/aes.c ****     0x93c4c457U, 0x55a7a7f2U, 0xfc7e7e82U, 0x7a3d3d47U,
 331:..\kronos-c-sdk\src\wolfSSL\wolfcrypt\src/aes.c ****     0xc86464acU, 0xba5d5de7U, 0x3219192bU, 0xe6737395U,
 332:..\kronos-c-sdk\src\wolfSSL\wolfcrypt\src/aes.c ****     0xc06060a0U, 0x19818198U, 0x9e4f4fd1U, 0xa3dcdc7fU,
 333:..\kronos-c-sdk\src\wolfSSL\wolfcrypt\src/aes.c ****     0x44222266U, 0x542a2a7eU, 0x3b9090abU, 0x0b888883U,
 334:..\kronos-c-sdk\src\wolfSSL\wolfcrypt\src/aes.c ****     0x8c4646caU, 0xc7eeee29U, 0x6bb8b8d3U, 0x2814143cU,
 335:..\kronos-c-sdk\src\wolfSSL\wolfcrypt\src/aes.c ****     0xa7dede79U, 0xbc5e5ee2U, 0x160b0b1dU, 0xaddbdb76U,
 336:..\kronos-c-sdk\src\wolfSSL\wolfcrypt\src/aes.c ****     0xdbe0e03bU, 0x64323256U, 0x743a3a4eU, 0x140a0a1eU,
 337:..\kronos-c-sdk\src\wolfSSL\wolfcrypt\src/aes.c ****     0x924949dbU, 0x0c06060aU, 0x4824246cU, 0xb85c5ce4U,
 338:..\kronos-c-sdk\src\wolfSSL\wolfcrypt\src/aes.c ****     0x9fc2c25dU, 0xbdd3d36eU, 0x43acacefU, 0xc46262a6U,
 339:..\kronos-c-sdk\src\wolfSSL\wolfcrypt\src/aes.c ****     0x399191a8U, 0x319595a4U, 0xd3e4e437U, 0xf279798bU,
 340:..\kronos-c-sdk\src\wolfSSL\wolfcrypt\src/aes.c ****     0xd5e7e732U, 0x8bc8c843U, 0x6e373759U, 0xda6d6db7U,
 341:..\kronos-c-sdk\src\wolfSSL\wolfcrypt\src/aes.c ****     0x018d8d8cU, 0xb1d5d564U, 0x9c4e4ed2U, 0x49a9a9e0U,
 342:..\kronos-c-sdk\src\wolfSSL\wolfcrypt\src/aes.c ****     0xd86c6cb4U, 0xac5656faU, 0xf3f4f407U, 0xcfeaea25U,
 343:..\kronos-c-sdk\src\wolfSSL\wolfcrypt\src/aes.c ****     0xca6565afU, 0xf47a7a8eU, 0x47aeaee9U, 0x10080818U,
 344:..\kronos-c-sdk\src\wolfSSL\wolfcrypt\src/aes.c ****     0x6fbabad5U, 0xf0787888U, 0x4a25256fU, 0x5c2e2e72U,
 345:..\kronos-c-sdk\src\wolfSSL\wolfcrypt\src/aes.c ****     0x381c1c24U, 0x57a6a6f1U, 0x73b4b4c7U, 0x97c6c651U,
 346:..\kronos-c-sdk\src\wolfSSL\wolfcrypt\src/aes.c ****     0xcbe8e823U, 0xa1dddd7cU, 0xe874749cU, 0x3e1f1f21U,
 347:..\kronos-c-sdk\src\wolfSSL\wolfcrypt\src/aes.c ****     0x964b4bddU, 0x61bdbddcU, 0x0d8b8b86U, 0x0f8a8a85U,
 348:..\kronos-c-sdk\src\wolfSSL\wolfcrypt\src/aes.c ****     0xe0707090U, 0x7c3e3e42U, 0x71b5b5c4U, 0xcc6666aaU,
 349:..\kronos-c-sdk\src\wolfSSL\wolfcrypt\src/aes.c ****     0x904848d8U, 0x06030305U, 0xf7f6f601U, 0x1c0e0e12U,
 350:..\kronos-c-sdk\src\wolfSSL\wolfcrypt\src/aes.c ****     0xc26161a3U, 0x6a35355fU, 0xae5757f9U, 0x69b9b9d0U,
 351:..\kronos-c-sdk\src\wolfSSL\wolfcrypt\src/aes.c ****     0x17868691U, 0x99c1c158U, 0x3a1d1d27U, 0x279e9eb9U,
 352:..\kronos-c-sdk\src\wolfSSL\wolfcrypt\src/aes.c ****     0xd9e1e138U, 0xebf8f813U, 0x2b9898b3U, 0x22111133U,
 353:..\kronos-c-sdk\src\wolfSSL\wolfcrypt\src/aes.c ****     0xd26969bbU, 0xa9d9d970U, 0x078e8e89U, 0x339494a7U,
 354:..\kronos-c-sdk\src\wolfSSL\wolfcrypt\src/aes.c ****     0x2d9b9bb6U, 0x3c1e1e22U, 0x15878792U, 0xc9e9e920U,
 355:..\kronos-c-sdk\src\wolfSSL\wolfcrypt\src/aes.c ****     0x87cece49U, 0xaa5555ffU, 0x50282878U, 0xa5dfdf7aU,
 356:..\kronos-c-sdk\src\wolfSSL\wolfcrypt\src/aes.c ****     0x038c8c8fU, 0x59a1a1f8U, 0x09898980U, 0x1a0d0d17U,
 357:..\kronos-c-sdk\src\wolfSSL\wolfcrypt\src/aes.c ****     0x65bfbfdaU, 0xd7e6e631U, 0x844242c6U, 0xd06868b8U,
 358:..\kronos-c-sdk\src\wolfSSL\wolfcrypt\src/aes.c ****     0x824141c3U, 0x299999b0U, 0x5a2d2d77U, 0x1e0f0f11U,
 359:..\kronos-c-sdk\src\wolfSSL\wolfcrypt\src/aes.c ****     0x7bb0b0cbU, 0xa85454fcU, 0x6dbbbbd6U, 0x2c16163aU,
 360:..\kronos-c-sdk\src\wolfSSL\wolfcrypt\src/aes.c **** },
 361:..\kronos-c-sdk\src\wolfSSL\wolfcrypt\src/aes.c **** {
 362:..\kronos-c-sdk\src\wolfSSL\wolfcrypt\src/aes.c ****     0xa5c66363U, 0x84f87c7cU, 0x99ee7777U, 0x8df67b7bU,
 363:..\kronos-c-sdk\src\wolfSSL\wolfcrypt\src/aes.c ****     0x0dfff2f2U, 0xbdd66b6bU, 0xb1de6f6fU, 0x5491c5c5U,
 364:..\kronos-c-sdk\src\wolfSSL\wolfcrypt\src/aes.c ****     0x50603030U, 0x03020101U, 0xa9ce6767U, 0x7d562b2bU,
 365:..\kronos-c-sdk\src\wolfSSL\wolfcrypt\src/aes.c ****     0x19e7fefeU, 0x62b5d7d7U, 0xe64dababU, 0x9aec7676U,
 366:..\kronos-c-sdk\src\wolfSSL\wolfcrypt\src/aes.c ****     0x458fcacaU, 0x9d1f8282U, 0x4089c9c9U, 0x87fa7d7dU,
 367:..\kronos-c-sdk\src\wolfSSL\wolfcrypt\src/aes.c ****     0x15effafaU, 0xebb25959U, 0xc98e4747U, 0x0bfbf0f0U,
 368:..\kronos-c-sdk\src\wolfSSL\wolfcrypt\src/aes.c ****     0xec41adadU, 0x67b3d4d4U, 0xfd5fa2a2U, 0xea45afafU,
 369:..\kronos-c-sdk\src\wolfSSL\wolfcrypt\src/aes.c ****     0xbf239c9cU, 0xf753a4a4U, 0x96e47272U, 0x5b9bc0c0U,
 370:..\kronos-c-sdk\src\wolfSSL\wolfcrypt\src/aes.c ****     0xc275b7b7U, 0x1ce1fdfdU, 0xae3d9393U, 0x6a4c2626U,
 371:..\kronos-c-sdk\src\wolfSSL\wolfcrypt\src/aes.c ****     0x5a6c3636U, 0x417e3f3fU, 0x02f5f7f7U, 0x4f83ccccU,
 372:..\kronos-c-sdk\src\wolfSSL\wolfcrypt\src/aes.c ****     0x5c683434U, 0xf451a5a5U, 0x34d1e5e5U, 0x08f9f1f1U,
 373:..\kronos-c-sdk\src\wolfSSL\wolfcrypt\src/aes.c ****     0x93e27171U, 0x73abd8d8U, 0x53623131U, 0x3f2a1515U,
 374:..\kronos-c-sdk\src\wolfSSL\wolfcrypt\src/aes.c ****     0x0c080404U, 0x5295c7c7U, 0x65462323U, 0x5e9dc3c3U,
 375:..\kronos-c-sdk\src\wolfSSL\wolfcrypt\src/aes.c ****     0x28301818U, 0xa1379696U, 0x0f0a0505U, 0xb52f9a9aU,
ARM GAS  C:\Users\ddemidov\AppData\Local\Temp\ccTwWFqA.s 			page 8


 376:..\kronos-c-sdk\src\wolfSSL\wolfcrypt\src/aes.c ****     0x090e0707U, 0x36241212U, 0x9b1b8080U, 0x3ddfe2e2U,
 377:..\kronos-c-sdk\src\wolfSSL\wolfcrypt\src/aes.c ****     0x26cdebebU, 0x694e2727U, 0xcd7fb2b2U, 0x9fea7575U,
 378:..\kronos-c-sdk\src\wolfSSL\wolfcrypt\src/aes.c ****     0x1b120909U, 0x9e1d8383U, 0x74582c2cU, 0x2e341a1aU,
 379:..\kronos-c-sdk\src\wolfSSL\wolfcrypt\src/aes.c ****     0x2d361b1bU, 0xb2dc6e6eU, 0xeeb45a5aU, 0xfb5ba0a0U,
 380:..\kronos-c-sdk\src\wolfSSL\wolfcrypt\src/aes.c ****     0xf6a45252U, 0x4d763b3bU, 0x61b7d6d6U, 0xce7db3b3U,
 381:..\kronos-c-sdk\src\wolfSSL\wolfcrypt\src/aes.c ****     0x7b522929U, 0x3edde3e3U, 0x715e2f2fU, 0x97138484U,
 382:..\kronos-c-sdk\src\wolfSSL\wolfcrypt\src/aes.c ****     0xf5a65353U, 0x68b9d1d1U, 0x00000000U, 0x2cc1ededU,
 383:..\kronos-c-sdk\src\wolfSSL\wolfcrypt\src/aes.c ****     0x60402020U, 0x1fe3fcfcU, 0xc879b1b1U, 0xedb65b5bU,
 384:..\kronos-c-sdk\src\wolfSSL\wolfcrypt\src/aes.c ****     0xbed46a6aU, 0x468dcbcbU, 0xd967bebeU, 0x4b723939U,
 385:..\kronos-c-sdk\src\wolfSSL\wolfcrypt\src/aes.c ****     0xde944a4aU, 0xd4984c4cU, 0xe8b05858U, 0x4a85cfcfU,
 386:..\kronos-c-sdk\src\wolfSSL\wolfcrypt\src/aes.c ****     0x6bbbd0d0U, 0x2ac5efefU, 0xe54faaaaU, 0x16edfbfbU,
 387:..\kronos-c-sdk\src\wolfSSL\wolfcrypt\src/aes.c ****     0xc5864343U, 0xd79a4d4dU, 0x55663333U, 0x94118585U,
 388:..\kronos-c-sdk\src\wolfSSL\wolfcrypt\src/aes.c ****     0xcf8a4545U, 0x10e9f9f9U, 0x06040202U, 0x81fe7f7fU,
 389:..\kronos-c-sdk\src\wolfSSL\wolfcrypt\src/aes.c ****     0xf0a05050U, 0x44783c3cU, 0xba259f9fU, 0xe34ba8a8U,
 390:..\kronos-c-sdk\src\wolfSSL\wolfcrypt\src/aes.c ****     0xf3a25151U, 0xfe5da3a3U, 0xc0804040U, 0x8a058f8fU,
 391:..\kronos-c-sdk\src\wolfSSL\wolfcrypt\src/aes.c ****     0xad3f9292U, 0xbc219d9dU, 0x48703838U, 0x04f1f5f5U,
 392:..\kronos-c-sdk\src\wolfSSL\wolfcrypt\src/aes.c ****     0xdf63bcbcU, 0xc177b6b6U, 0x75afdadaU, 0x63422121U,
 393:..\kronos-c-sdk\src\wolfSSL\wolfcrypt\src/aes.c ****     0x30201010U, 0x1ae5ffffU, 0x0efdf3f3U, 0x6dbfd2d2U,
 394:..\kronos-c-sdk\src\wolfSSL\wolfcrypt\src/aes.c ****     0x4c81cdcdU, 0x14180c0cU, 0x35261313U, 0x2fc3ececU,
 395:..\kronos-c-sdk\src\wolfSSL\wolfcrypt\src/aes.c ****     0xe1be5f5fU, 0xa2359797U, 0xcc884444U, 0x392e1717U,
 396:..\kronos-c-sdk\src\wolfSSL\wolfcrypt\src/aes.c ****     0x5793c4c4U, 0xf255a7a7U, 0x82fc7e7eU, 0x477a3d3dU,
 397:..\kronos-c-sdk\src\wolfSSL\wolfcrypt\src/aes.c ****     0xacc86464U, 0xe7ba5d5dU, 0x2b321919U, 0x95e67373U,
 398:..\kronos-c-sdk\src\wolfSSL\wolfcrypt\src/aes.c ****     0xa0c06060U, 0x98198181U, 0xd19e4f4fU, 0x7fa3dcdcU,
 399:..\kronos-c-sdk\src\wolfSSL\wolfcrypt\src/aes.c ****     0x66442222U, 0x7e542a2aU, 0xab3b9090U, 0x830b8888U,
 400:..\kronos-c-sdk\src\wolfSSL\wolfcrypt\src/aes.c ****     0xca8c4646U, 0x29c7eeeeU, 0xd36bb8b8U, 0x3c281414U,
 401:..\kronos-c-sdk\src\wolfSSL\wolfcrypt\src/aes.c ****     0x79a7dedeU, 0xe2bc5e5eU, 0x1d160b0bU, 0x76addbdbU,
 402:..\kronos-c-sdk\src\wolfSSL\wolfcrypt\src/aes.c ****     0x3bdbe0e0U, 0x56643232U, 0x4e743a3aU, 0x1e140a0aU,
 403:..\kronos-c-sdk\src\wolfSSL\wolfcrypt\src/aes.c ****     0xdb924949U, 0x0a0c0606U, 0x6c482424U, 0xe4b85c5cU,
 404:..\kronos-c-sdk\src\wolfSSL\wolfcrypt\src/aes.c ****     0x5d9fc2c2U, 0x6ebdd3d3U, 0xef43acacU, 0xa6c46262U,
 405:..\kronos-c-sdk\src\wolfSSL\wolfcrypt\src/aes.c ****     0xa8399191U, 0xa4319595U, 0x37d3e4e4U, 0x8bf27979U,
 406:..\kronos-c-sdk\src\wolfSSL\wolfcrypt\src/aes.c ****     0x32d5e7e7U, 0x438bc8c8U, 0x596e3737U, 0xb7da6d6dU,
 407:..\kronos-c-sdk\src\wolfSSL\wolfcrypt\src/aes.c ****     0x8c018d8dU, 0x64b1d5d5U, 0xd29c4e4eU, 0xe049a9a9U,
 408:..\kronos-c-sdk\src\wolfSSL\wolfcrypt\src/aes.c ****     0xb4d86c6cU, 0xfaac5656U, 0x07f3f4f4U, 0x25cfeaeaU,
 409:..\kronos-c-sdk\src\wolfSSL\wolfcrypt\src/aes.c ****     0xafca6565U, 0x8ef47a7aU, 0xe947aeaeU, 0x18100808U,
 410:..\kronos-c-sdk\src\wolfSSL\wolfcrypt\src/aes.c ****     0xd56fbabaU, 0x88f07878U, 0x6f4a2525U, 0x725c2e2eU,
 411:..\kronos-c-sdk\src\wolfSSL\wolfcrypt\src/aes.c ****     0x24381c1cU, 0xf157a6a6U, 0xc773b4b4U, 0x5197c6c6U,
 412:..\kronos-c-sdk\src\wolfSSL\wolfcrypt\src/aes.c ****     0x23cbe8e8U, 0x7ca1ddddU, 0x9ce87474U, 0x213e1f1fU,
 413:..\kronos-c-sdk\src\wolfSSL\wolfcrypt\src/aes.c ****     0xdd964b4bU, 0xdc61bdbdU, 0x860d8b8bU, 0x850f8a8aU,
 414:..\kronos-c-sdk\src\wolfSSL\wolfcrypt\src/aes.c ****     0x90e07070U, 0x427c3e3eU, 0xc471b5b5U, 0xaacc6666U,
 415:..\kronos-c-sdk\src\wolfSSL\wolfcrypt\src/aes.c ****     0xd8904848U, 0x05060303U, 0x01f7f6f6U, 0x121c0e0eU,
 416:..\kronos-c-sdk\src\wolfSSL\wolfcrypt\src/aes.c ****     0xa3c26161U, 0x5f6a3535U, 0xf9ae5757U, 0xd069b9b9U,
 417:..\kronos-c-sdk\src\wolfSSL\wolfcrypt\src/aes.c ****     0x91178686U, 0x5899c1c1U, 0x273a1d1dU, 0xb9279e9eU,
 418:..\kronos-c-sdk\src\wolfSSL\wolfcrypt\src/aes.c ****     0x38d9e1e1U, 0x13ebf8f8U, 0xb32b9898U, 0x33221111U,
 419:..\kronos-c-sdk\src\wolfSSL\wolfcrypt\src/aes.c ****     0xbbd26969U, 0x70a9d9d9U, 0x89078e8eU, 0xa7339494U,
 420:..\kronos-c-sdk\src\wolfSSL\wolfcrypt\src/aes.c ****     0xb62d9b9bU, 0x223c1e1eU, 0x92158787U, 0x20c9e9e9U,
 421:..\kronos-c-sdk\src\wolfSSL\wolfcrypt\src/aes.c ****     0x4987ceceU, 0xffaa5555U, 0x78502828U, 0x7aa5dfdfU,
 422:..\kronos-c-sdk\src\wolfSSL\wolfcrypt\src/aes.c ****     0x8f038c8cU, 0xf859a1a1U, 0x80098989U, 0x171a0d0dU,
 423:..\kronos-c-sdk\src\wolfSSL\wolfcrypt\src/aes.c ****     0xda65bfbfU, 0x31d7e6e6U, 0xc6844242U, 0xb8d06868U,
 424:..\kronos-c-sdk\src\wolfSSL\wolfcrypt\src/aes.c ****     0xc3824141U, 0xb0299999U, 0x775a2d2dU, 0x111e0f0fU,
 425:..\kronos-c-sdk\src\wolfSSL\wolfcrypt\src/aes.c ****     0xcb7bb0b0U, 0xfca85454U, 0xd66dbbbbU, 0x3a2c1616U,
 426:..\kronos-c-sdk\src\wolfSSL\wolfcrypt\src/aes.c **** },
 427:..\kronos-c-sdk\src\wolfSSL\wolfcrypt\src/aes.c **** {
 428:..\kronos-c-sdk\src\wolfSSL\wolfcrypt\src/aes.c ****     0x63a5c663U, 0x7c84f87cU, 0x7799ee77U, 0x7b8df67bU,
 429:..\kronos-c-sdk\src\wolfSSL\wolfcrypt\src/aes.c ****     0xf20dfff2U, 0x6bbdd66bU, 0x6fb1de6fU, 0xc55491c5U,
 430:..\kronos-c-sdk\src\wolfSSL\wolfcrypt\src/aes.c ****     0x30506030U, 0x01030201U, 0x67a9ce67U, 0x2b7d562bU,
 431:..\kronos-c-sdk\src\wolfSSL\wolfcrypt\src/aes.c ****     0xfe19e7feU, 0xd762b5d7U, 0xabe64dabU, 0x769aec76U,
 432:..\kronos-c-sdk\src\wolfSSL\wolfcrypt\src/aes.c ****     0xca458fcaU, 0x829d1f82U, 0xc94089c9U, 0x7d87fa7dU,
ARM GAS  C:\Users\ddemidov\AppData\Local\Temp\ccTwWFqA.s 			page 9


 433:..\kronos-c-sdk\src\wolfSSL\wolfcrypt\src/aes.c ****     0xfa15effaU, 0x59ebb259U, 0x47c98e47U, 0xf00bfbf0U,
 434:..\kronos-c-sdk\src\wolfSSL\wolfcrypt\src/aes.c ****     0xadec41adU, 0xd467b3d4U, 0xa2fd5fa2U, 0xafea45afU,
 435:..\kronos-c-sdk\src\wolfSSL\wolfcrypt\src/aes.c ****     0x9cbf239cU, 0xa4f753a4U, 0x7296e472U, 0xc05b9bc0U,
 436:..\kronos-c-sdk\src\wolfSSL\wolfcrypt\src/aes.c ****     0xb7c275b7U, 0xfd1ce1fdU, 0x93ae3d93U, 0x266a4c26U,
 437:..\kronos-c-sdk\src\wolfSSL\wolfcrypt\src/aes.c ****     0x365a6c36U, 0x3f417e3fU, 0xf702f5f7U, 0xcc4f83ccU,
 438:..\kronos-c-sdk\src\wolfSSL\wolfcrypt\src/aes.c ****     0x345c6834U, 0xa5f451a5U, 0xe534d1e5U, 0xf108f9f1U,
 439:..\kronos-c-sdk\src\wolfSSL\wolfcrypt\src/aes.c ****     0x7193e271U, 0xd873abd8U, 0x31536231U, 0x153f2a15U,
 440:..\kronos-c-sdk\src\wolfSSL\wolfcrypt\src/aes.c ****     0x040c0804U, 0xc75295c7U, 0x23654623U, 0xc35e9dc3U,
 441:..\kronos-c-sdk\src\wolfSSL\wolfcrypt\src/aes.c ****     0x18283018U, 0x96a13796U, 0x050f0a05U, 0x9ab52f9aU,
 442:..\kronos-c-sdk\src\wolfSSL\wolfcrypt\src/aes.c ****     0x07090e07U, 0x12362412U, 0x809b1b80U, 0xe23ddfe2U,
 443:..\kronos-c-sdk\src\wolfSSL\wolfcrypt\src/aes.c ****     0xeb26cdebU, 0x27694e27U, 0xb2cd7fb2U, 0x759fea75U,
 444:..\kronos-c-sdk\src\wolfSSL\wolfcrypt\src/aes.c ****     0x091b1209U, 0x839e1d83U, 0x2c74582cU, 0x1a2e341aU,
 445:..\kronos-c-sdk\src\wolfSSL\wolfcrypt\src/aes.c ****     0x1b2d361bU, 0x6eb2dc6eU, 0x5aeeb45aU, 0xa0fb5ba0U,
 446:..\kronos-c-sdk\src\wolfSSL\wolfcrypt\src/aes.c ****     0x52f6a452U, 0x3b4d763bU, 0xd661b7d6U, 0xb3ce7db3U,
 447:..\kronos-c-sdk\src\wolfSSL\wolfcrypt\src/aes.c ****     0x297b5229U, 0xe33edde3U, 0x2f715e2fU, 0x84971384U,
 448:..\kronos-c-sdk\src\wolfSSL\wolfcrypt\src/aes.c ****     0x53f5a653U, 0xd168b9d1U, 0x00000000U, 0xed2cc1edU,
 449:..\kronos-c-sdk\src\wolfSSL\wolfcrypt\src/aes.c ****     0x20604020U, 0xfc1fe3fcU, 0xb1c879b1U, 0x5bedb65bU,
 450:..\kronos-c-sdk\src\wolfSSL\wolfcrypt\src/aes.c ****     0x6abed46aU, 0xcb468dcbU, 0xbed967beU, 0x394b7239U,
 451:..\kronos-c-sdk\src\wolfSSL\wolfcrypt\src/aes.c ****     0x4ade944aU, 0x4cd4984cU, 0x58e8b058U, 0xcf4a85cfU,
 452:..\kronos-c-sdk\src\wolfSSL\wolfcrypt\src/aes.c ****     0xd06bbbd0U, 0xef2ac5efU, 0xaae54faaU, 0xfb16edfbU,
 453:..\kronos-c-sdk\src\wolfSSL\wolfcrypt\src/aes.c ****     0x43c58643U, 0x4dd79a4dU, 0x33556633U, 0x85941185U,
 454:..\kronos-c-sdk\src\wolfSSL\wolfcrypt\src/aes.c ****     0x45cf8a45U, 0xf910e9f9U, 0x02060402U, 0x7f81fe7fU,
 455:..\kronos-c-sdk\src\wolfSSL\wolfcrypt\src/aes.c ****     0x50f0a050U, 0x3c44783cU, 0x9fba259fU, 0xa8e34ba8U,
 456:..\kronos-c-sdk\src\wolfSSL\wolfcrypt\src/aes.c ****     0x51f3a251U, 0xa3fe5da3U, 0x40c08040U, 0x8f8a058fU,
 457:..\kronos-c-sdk\src\wolfSSL\wolfcrypt\src/aes.c ****     0x92ad3f92U, 0x9dbc219dU, 0x38487038U, 0xf504f1f5U,
 458:..\kronos-c-sdk\src\wolfSSL\wolfcrypt\src/aes.c ****     0xbcdf63bcU, 0xb6c177b6U, 0xda75afdaU, 0x21634221U,
 459:..\kronos-c-sdk\src\wolfSSL\wolfcrypt\src/aes.c ****     0x10302010U, 0xff1ae5ffU, 0xf30efdf3U, 0xd26dbfd2U,
 460:..\kronos-c-sdk\src\wolfSSL\wolfcrypt\src/aes.c ****     0xcd4c81cdU, 0x0c14180cU, 0x13352613U, 0xec2fc3ecU,
 461:..\kronos-c-sdk\src\wolfSSL\wolfcrypt\src/aes.c ****     0x5fe1be5fU, 0x97a23597U, 0x44cc8844U, 0x17392e17U,
 462:..\kronos-c-sdk\src\wolfSSL\wolfcrypt\src/aes.c ****     0xc45793c4U, 0xa7f255a7U, 0x7e82fc7eU, 0x3d477a3dU,
 463:..\kronos-c-sdk\src\wolfSSL\wolfcrypt\src/aes.c ****     0x64acc864U, 0x5de7ba5dU, 0x192b3219U, 0x7395e673U,
 464:..\kronos-c-sdk\src\wolfSSL\wolfcrypt\src/aes.c ****     0x60a0c060U, 0x81981981U, 0x4fd19e4fU, 0xdc7fa3dcU,
 465:..\kronos-c-sdk\src\wolfSSL\wolfcrypt\src/aes.c ****     0x22664422U, 0x2a7e542aU, 0x90ab3b90U, 0x88830b88U,
 466:..\kronos-c-sdk\src\wolfSSL\wolfcrypt\src/aes.c ****     0x46ca8c46U, 0xee29c7eeU, 0xb8d36bb8U, 0x143c2814U,
 467:..\kronos-c-sdk\src\wolfSSL\wolfcrypt\src/aes.c ****     0xde79a7deU, 0x5ee2bc5eU, 0x0b1d160bU, 0xdb76addbU,
 468:..\kronos-c-sdk\src\wolfSSL\wolfcrypt\src/aes.c ****     0xe03bdbe0U, 0x32566432U, 0x3a4e743aU, 0x0a1e140aU,
 469:..\kronos-c-sdk\src\wolfSSL\wolfcrypt\src/aes.c ****     0x49db9249U, 0x060a0c06U, 0x246c4824U, 0x5ce4b85cU,
 470:..\kronos-c-sdk\src\wolfSSL\wolfcrypt\src/aes.c ****     0xc25d9fc2U, 0xd36ebdd3U, 0xacef43acU, 0x62a6c462U,
 471:..\kronos-c-sdk\src\wolfSSL\wolfcrypt\src/aes.c ****     0x91a83991U, 0x95a43195U, 0xe437d3e4U, 0x798bf279U,
 472:..\kronos-c-sdk\src\wolfSSL\wolfcrypt\src/aes.c ****     0xe732d5e7U, 0xc8438bc8U, 0x37596e37U, 0x6db7da6dU,
 473:..\kronos-c-sdk\src\wolfSSL\wolfcrypt\src/aes.c ****     0x8d8c018dU, 0xd564b1d5U, 0x4ed29c4eU, 0xa9e049a9U,
 474:..\kronos-c-sdk\src\wolfSSL\wolfcrypt\src/aes.c ****     0x6cb4d86cU, 0x56faac56U, 0xf407f3f4U, 0xea25cfeaU,
 475:..\kronos-c-sdk\src\wolfSSL\wolfcrypt\src/aes.c ****     0x65afca65U, 0x7a8ef47aU, 0xaee947aeU, 0x08181008U,
 476:..\kronos-c-sdk\src\wolfSSL\wolfcrypt\src/aes.c ****     0xbad56fbaU, 0x7888f078U, 0x256f4a25U, 0x2e725c2eU,
 477:..\kronos-c-sdk\src\wolfSSL\wolfcrypt\src/aes.c ****     0x1c24381cU, 0xa6f157a6U, 0xb4c773b4U, 0xc65197c6U,
 478:..\kronos-c-sdk\src\wolfSSL\wolfcrypt\src/aes.c ****     0xe823cbe8U, 0xdd7ca1ddU, 0x749ce874U, 0x1f213e1fU,
 479:..\kronos-c-sdk\src\wolfSSL\wolfcrypt\src/aes.c ****     0x4bdd964bU, 0xbddc61bdU, 0x8b860d8bU, 0x8a850f8aU,
 480:..\kronos-c-sdk\src\wolfSSL\wolfcrypt\src/aes.c ****     0x7090e070U, 0x3e427c3eU, 0xb5c471b5U, 0x66aacc66U,
 481:..\kronos-c-sdk\src\wolfSSL\wolfcrypt\src/aes.c ****     0x48d89048U, 0x03050603U, 0xf601f7f6U, 0x0e121c0eU,
 482:..\kronos-c-sdk\src\wolfSSL\wolfcrypt\src/aes.c ****     0x61a3c261U, 0x355f6a35U, 0x57f9ae57U, 0xb9d069b9U,
 483:..\kronos-c-sdk\src\wolfSSL\wolfcrypt\src/aes.c ****     0x86911786U, 0xc15899c1U, 0x1d273a1dU, 0x9eb9279eU,
 484:..\kronos-c-sdk\src\wolfSSL\wolfcrypt\src/aes.c ****     0xe138d9e1U, 0xf813ebf8U, 0x98b32b98U, 0x11332211U,
 485:..\kronos-c-sdk\src\wolfSSL\wolfcrypt\src/aes.c ****     0x69bbd269U, 0xd970a9d9U, 0x8e89078eU, 0x94a73394U,
 486:..\kronos-c-sdk\src\wolfSSL\wolfcrypt\src/aes.c ****     0x9bb62d9bU, 0x1e223c1eU, 0x87921587U, 0xe920c9e9U,
 487:..\kronos-c-sdk\src\wolfSSL\wolfcrypt\src/aes.c ****     0xce4987ceU, 0x55ffaa55U, 0x28785028U, 0xdf7aa5dfU,
 488:..\kronos-c-sdk\src\wolfSSL\wolfcrypt\src/aes.c ****     0x8c8f038cU, 0xa1f859a1U, 0x89800989U, 0x0d171a0dU,
 489:..\kronos-c-sdk\src\wolfSSL\wolfcrypt\src/aes.c ****     0xbfda65bfU, 0xe631d7e6U, 0x42c68442U, 0x68b8d068U,
ARM GAS  C:\Users\ddemidov\AppData\Local\Temp\ccTwWFqA.s 			page 10


 490:..\kronos-c-sdk\src\wolfSSL\wolfcrypt\src/aes.c ****     0x41c38241U, 0x99b02999U, 0x2d775a2dU, 0x0f111e0fU,
 491:..\kronos-c-sdk\src\wolfSSL\wolfcrypt\src/aes.c ****     0xb0cb7bb0U, 0x54fca854U, 0xbbd66dbbU, 0x163a2c16U,
 492:..\kronos-c-sdk\src\wolfSSL\wolfcrypt\src/aes.c **** },
 493:..\kronos-c-sdk\src\wolfSSL\wolfcrypt\src/aes.c **** {
 494:..\kronos-c-sdk\src\wolfSSL\wolfcrypt\src/aes.c ****     0x6363a5c6U, 0x7c7c84f8U, 0x777799eeU, 0x7b7b8df6U,
 495:..\kronos-c-sdk\src\wolfSSL\wolfcrypt\src/aes.c ****     0xf2f20dffU, 0x6b6bbdd6U, 0x6f6fb1deU, 0xc5c55491U,
 496:..\kronos-c-sdk\src\wolfSSL\wolfcrypt\src/aes.c ****     0x30305060U, 0x01010302U, 0x6767a9ceU, 0x2b2b7d56U,
 497:..\kronos-c-sdk\src\wolfSSL\wolfcrypt\src/aes.c ****     0xfefe19e7U, 0xd7d762b5U, 0xababe64dU, 0x76769aecU,
 498:..\kronos-c-sdk\src\wolfSSL\wolfcrypt\src/aes.c ****     0xcaca458fU, 0x82829d1fU, 0xc9c94089U, 0x7d7d87faU,
 499:..\kronos-c-sdk\src\wolfSSL\wolfcrypt\src/aes.c ****     0xfafa15efU, 0x5959ebb2U, 0x4747c98eU, 0xf0f00bfbU,
 500:..\kronos-c-sdk\src\wolfSSL\wolfcrypt\src/aes.c ****     0xadadec41U, 0xd4d467b3U, 0xa2a2fd5fU, 0xafafea45U,
 501:..\kronos-c-sdk\src\wolfSSL\wolfcrypt\src/aes.c ****     0x9c9cbf23U, 0xa4a4f753U, 0x727296e4U, 0xc0c05b9bU,
 502:..\kronos-c-sdk\src\wolfSSL\wolfcrypt\src/aes.c ****     0xb7b7c275U, 0xfdfd1ce1U, 0x9393ae3dU, 0x26266a4cU,
 503:..\kronos-c-sdk\src\wolfSSL\wolfcrypt\src/aes.c ****     0x36365a6cU, 0x3f3f417eU, 0xf7f702f5U, 0xcccc4f83U,
 504:..\kronos-c-sdk\src\wolfSSL\wolfcrypt\src/aes.c ****     0x34345c68U, 0xa5a5f451U, 0xe5e534d1U, 0xf1f108f9U,
 505:..\kronos-c-sdk\src\wolfSSL\wolfcrypt\src/aes.c ****     0x717193e2U, 0xd8d873abU, 0x31315362U, 0x15153f2aU,
 506:..\kronos-c-sdk\src\wolfSSL\wolfcrypt\src/aes.c ****     0x04040c08U, 0xc7c75295U, 0x23236546U, 0xc3c35e9dU,
 507:..\kronos-c-sdk\src\wolfSSL\wolfcrypt\src/aes.c ****     0x18182830U, 0x9696a137U, 0x05050f0aU, 0x9a9ab52fU,
 508:..\kronos-c-sdk\src\wolfSSL\wolfcrypt\src/aes.c ****     0x0707090eU, 0x12123624U, 0x80809b1bU, 0xe2e23ddfU,
 509:..\kronos-c-sdk\src\wolfSSL\wolfcrypt\src/aes.c ****     0xebeb26cdU, 0x2727694eU, 0xb2b2cd7fU, 0x75759feaU,
 510:..\kronos-c-sdk\src\wolfSSL\wolfcrypt\src/aes.c ****     0x09091b12U, 0x83839e1dU, 0x2c2c7458U, 0x1a1a2e34U,
 511:..\kronos-c-sdk\src\wolfSSL\wolfcrypt\src/aes.c ****     0x1b1b2d36U, 0x6e6eb2dcU, 0x5a5aeeb4U, 0xa0a0fb5bU,
 512:..\kronos-c-sdk\src\wolfSSL\wolfcrypt\src/aes.c ****     0x5252f6a4U, 0x3b3b4d76U, 0xd6d661b7U, 0xb3b3ce7dU,
 513:..\kronos-c-sdk\src\wolfSSL\wolfcrypt\src/aes.c ****     0x29297b52U, 0xe3e33eddU, 0x2f2f715eU, 0x84849713U,
 514:..\kronos-c-sdk\src\wolfSSL\wolfcrypt\src/aes.c ****     0x5353f5a6U, 0xd1d168b9U, 0x00000000U, 0xeded2cc1U,
 515:..\kronos-c-sdk\src\wolfSSL\wolfcrypt\src/aes.c ****     0x20206040U, 0xfcfc1fe3U, 0xb1b1c879U, 0x5b5bedb6U,
 516:..\kronos-c-sdk\src\wolfSSL\wolfcrypt\src/aes.c ****     0x6a6abed4U, 0xcbcb468dU, 0xbebed967U, 0x39394b72U,
 517:..\kronos-c-sdk\src\wolfSSL\wolfcrypt\src/aes.c ****     0x4a4ade94U, 0x4c4cd498U, 0x5858e8b0U, 0xcfcf4a85U,
 518:..\kronos-c-sdk\src\wolfSSL\wolfcrypt\src/aes.c ****     0xd0d06bbbU, 0xefef2ac5U, 0xaaaae54fU, 0xfbfb16edU,
 519:..\kronos-c-sdk\src\wolfSSL\wolfcrypt\src/aes.c ****     0x4343c586U, 0x4d4dd79aU, 0x33335566U, 0x85859411U,
 520:..\kronos-c-sdk\src\wolfSSL\wolfcrypt\src/aes.c ****     0x4545cf8aU, 0xf9f910e9U, 0x02020604U, 0x7f7f81feU,
 521:..\kronos-c-sdk\src\wolfSSL\wolfcrypt\src/aes.c ****     0x5050f0a0U, 0x3c3c4478U, 0x9f9fba25U, 0xa8a8e34bU,
 522:..\kronos-c-sdk\src\wolfSSL\wolfcrypt\src/aes.c ****     0x5151f3a2U, 0xa3a3fe5dU, 0x4040c080U, 0x8f8f8a05U,
 523:..\kronos-c-sdk\src\wolfSSL\wolfcrypt\src/aes.c ****     0x9292ad3fU, 0x9d9dbc21U, 0x38384870U, 0xf5f504f1U,
 524:..\kronos-c-sdk\src\wolfSSL\wolfcrypt\src/aes.c ****     0xbcbcdf63U, 0xb6b6c177U, 0xdada75afU, 0x21216342U,
 525:..\kronos-c-sdk\src\wolfSSL\wolfcrypt\src/aes.c ****     0x10103020U, 0xffff1ae5U, 0xf3f30efdU, 0xd2d26dbfU,
 526:..\kronos-c-sdk\src\wolfSSL\wolfcrypt\src/aes.c ****     0xcdcd4c81U, 0x0c0c1418U, 0x13133526U, 0xecec2fc3U,
 527:..\kronos-c-sdk\src\wolfSSL\wolfcrypt\src/aes.c ****     0x5f5fe1beU, 0x9797a235U, 0x4444cc88U, 0x1717392eU,
 528:..\kronos-c-sdk\src\wolfSSL\wolfcrypt\src/aes.c ****     0xc4c45793U, 0xa7a7f255U, 0x7e7e82fcU, 0x3d3d477aU,
 529:..\kronos-c-sdk\src\wolfSSL\wolfcrypt\src/aes.c ****     0x6464acc8U, 0x5d5de7baU, 0x19192b32U, 0x737395e6U,
 530:..\kronos-c-sdk\src\wolfSSL\wolfcrypt\src/aes.c ****     0x6060a0c0U, 0x81819819U, 0x4f4fd19eU, 0xdcdc7fa3U,
 531:..\kronos-c-sdk\src\wolfSSL\wolfcrypt\src/aes.c ****     0x22226644U, 0x2a2a7e54U, 0x9090ab3bU, 0x8888830bU,
 532:..\kronos-c-sdk\src\wolfSSL\wolfcrypt\src/aes.c ****     0x4646ca8cU, 0xeeee29c7U, 0xb8b8d36bU, 0x14143c28U,
 533:..\kronos-c-sdk\src\wolfSSL\wolfcrypt\src/aes.c ****     0xdede79a7U, 0x5e5ee2bcU, 0x0b0b1d16U, 0xdbdb76adU,
 534:..\kronos-c-sdk\src\wolfSSL\wolfcrypt\src/aes.c ****     0xe0e03bdbU, 0x32325664U, 0x3a3a4e74U, 0x0a0a1e14U,
 535:..\kronos-c-sdk\src\wolfSSL\wolfcrypt\src/aes.c ****     0x4949db92U, 0x06060a0cU, 0x24246c48U, 0x5c5ce4b8U,
 536:..\kronos-c-sdk\src\wolfSSL\wolfcrypt\src/aes.c ****     0xc2c25d9fU, 0xd3d36ebdU, 0xacacef43U, 0x6262a6c4U,
 537:..\kronos-c-sdk\src\wolfSSL\wolfcrypt\src/aes.c ****     0x9191a839U, 0x9595a431U, 0xe4e437d3U, 0x79798bf2U,
 538:..\kronos-c-sdk\src\wolfSSL\wolfcrypt\src/aes.c ****     0xe7e732d5U, 0xc8c8438bU, 0x3737596eU, 0x6d6db7daU,
 539:..\kronos-c-sdk\src\wolfSSL\wolfcrypt\src/aes.c ****     0x8d8d8c01U, 0xd5d564b1U, 0x4e4ed29cU, 0xa9a9e049U,
 540:..\kronos-c-sdk\src\wolfSSL\wolfcrypt\src/aes.c ****     0x6c6cb4d8U, 0x5656faacU, 0xf4f407f3U, 0xeaea25cfU,
 541:..\kronos-c-sdk\src\wolfSSL\wolfcrypt\src/aes.c ****     0x6565afcaU, 0x7a7a8ef4U, 0xaeaee947U, 0x08081810U,
 542:..\kronos-c-sdk\src\wolfSSL\wolfcrypt\src/aes.c ****     0xbabad56fU, 0x787888f0U, 0x25256f4aU, 0x2e2e725cU,
 543:..\kronos-c-sdk\src\wolfSSL\wolfcrypt\src/aes.c ****     0x1c1c2438U, 0xa6a6f157U, 0xb4b4c773U, 0xc6c65197U,
 544:..\kronos-c-sdk\src\wolfSSL\wolfcrypt\src/aes.c ****     0xe8e823cbU, 0xdddd7ca1U, 0x74749ce8U, 0x1f1f213eU,
 545:..\kronos-c-sdk\src\wolfSSL\wolfcrypt\src/aes.c ****     0x4b4bdd96U, 0xbdbddc61U, 0x8b8b860dU, 0x8a8a850fU,
 546:..\kronos-c-sdk\src\wolfSSL\wolfcrypt\src/aes.c ****     0x707090e0U, 0x3e3e427cU, 0xb5b5c471U, 0x6666aaccU,
ARM GAS  C:\Users\ddemidov\AppData\Local\Temp\ccTwWFqA.s 			page 11


 547:..\kronos-c-sdk\src\wolfSSL\wolfcrypt\src/aes.c ****     0x4848d890U, 0x03030506U, 0xf6f601f7U, 0x0e0e121cU,
 548:..\kronos-c-sdk\src\wolfSSL\wolfcrypt\src/aes.c ****     0x6161a3c2U, 0x35355f6aU, 0x5757f9aeU, 0xb9b9d069U,
 549:..\kronos-c-sdk\src\wolfSSL\wolfcrypt\src/aes.c ****     0x86869117U, 0xc1c15899U, 0x1d1d273aU, 0x9e9eb927U,
 550:..\kronos-c-sdk\src\wolfSSL\wolfcrypt\src/aes.c ****     0xe1e138d9U, 0xf8f813ebU, 0x9898b32bU, 0x11113322U,
 551:..\kronos-c-sdk\src\wolfSSL\wolfcrypt\src/aes.c ****     0x6969bbd2U, 0xd9d970a9U, 0x8e8e8907U, 0x9494a733U,
 552:..\kronos-c-sdk\src\wolfSSL\wolfcrypt\src/aes.c ****     0x9b9bb62dU, 0x1e1e223cU, 0x87879215U, 0xe9e920c9U,
 553:..\kronos-c-sdk\src\wolfSSL\wolfcrypt\src/aes.c ****     0xcece4987U, 0x5555ffaaU, 0x28287850U, 0xdfdf7aa5U,
 554:..\kronos-c-sdk\src\wolfSSL\wolfcrypt\src/aes.c ****     0x8c8c8f03U, 0xa1a1f859U, 0x89898009U, 0x0d0d171aU,
 555:..\kronos-c-sdk\src\wolfSSL\wolfcrypt\src/aes.c ****     0xbfbfda65U, 0xe6e631d7U, 0x4242c684U, 0x6868b8d0U,
 556:..\kronos-c-sdk\src\wolfSSL\wolfcrypt\src/aes.c ****     0x4141c382U, 0x9999b029U, 0x2d2d775aU, 0x0f0f111eU,
 557:..\kronos-c-sdk\src\wolfSSL\wolfcrypt\src/aes.c ****     0xb0b0cb7bU, 0x5454fca8U, 0xbbbbd66dU, 0x16163a2cU,
 558:..\kronos-c-sdk\src\wolfSSL\wolfcrypt\src/aes.c **** },
 559:..\kronos-c-sdk\src\wolfSSL\wolfcrypt\src/aes.c **** {
 560:..\kronos-c-sdk\src\wolfSSL\wolfcrypt\src/aes.c ****     0x63636363U, 0x7c7c7c7cU, 0x77777777U, 0x7b7b7b7bU,
 561:..\kronos-c-sdk\src\wolfSSL\wolfcrypt\src/aes.c ****     0xf2f2f2f2U, 0x6b6b6b6bU, 0x6f6f6f6fU, 0xc5c5c5c5U,
 562:..\kronos-c-sdk\src\wolfSSL\wolfcrypt\src/aes.c ****     0x30303030U, 0x01010101U, 0x67676767U, 0x2b2b2b2bU,
 563:..\kronos-c-sdk\src\wolfSSL\wolfcrypt\src/aes.c ****     0xfefefefeU, 0xd7d7d7d7U, 0xababababU, 0x76767676U,
 564:..\kronos-c-sdk\src\wolfSSL\wolfcrypt\src/aes.c ****     0xcacacacaU, 0x82828282U, 0xc9c9c9c9U, 0x7d7d7d7dU,
 565:..\kronos-c-sdk\src\wolfSSL\wolfcrypt\src/aes.c ****     0xfafafafaU, 0x59595959U, 0x47474747U, 0xf0f0f0f0U,
 566:..\kronos-c-sdk\src\wolfSSL\wolfcrypt\src/aes.c ****     0xadadadadU, 0xd4d4d4d4U, 0xa2a2a2a2U, 0xafafafafU,
 567:..\kronos-c-sdk\src\wolfSSL\wolfcrypt\src/aes.c ****     0x9c9c9c9cU, 0xa4a4a4a4U, 0x72727272U, 0xc0c0c0c0U,
 568:..\kronos-c-sdk\src\wolfSSL\wolfcrypt\src/aes.c ****     0xb7b7b7b7U, 0xfdfdfdfdU, 0x93939393U, 0x26262626U,
 569:..\kronos-c-sdk\src\wolfSSL\wolfcrypt\src/aes.c ****     0x36363636U, 0x3f3f3f3fU, 0xf7f7f7f7U, 0xccccccccU,
 570:..\kronos-c-sdk\src\wolfSSL\wolfcrypt\src/aes.c ****     0x34343434U, 0xa5a5a5a5U, 0xe5e5e5e5U, 0xf1f1f1f1U,
 571:..\kronos-c-sdk\src\wolfSSL\wolfcrypt\src/aes.c ****     0x71717171U, 0xd8d8d8d8U, 0x31313131U, 0x15151515U,
 572:..\kronos-c-sdk\src\wolfSSL\wolfcrypt\src/aes.c ****     0x04040404U, 0xc7c7c7c7U, 0x23232323U, 0xc3c3c3c3U,
 573:..\kronos-c-sdk\src\wolfSSL\wolfcrypt\src/aes.c ****     0x18181818U, 0x96969696U, 0x05050505U, 0x9a9a9a9aU,
 574:..\kronos-c-sdk\src\wolfSSL\wolfcrypt\src/aes.c ****     0x07070707U, 0x12121212U, 0x80808080U, 0xe2e2e2e2U,
 575:..\kronos-c-sdk\src\wolfSSL\wolfcrypt\src/aes.c ****     0xebebebebU, 0x27272727U, 0xb2b2b2b2U, 0x75757575U,
 576:..\kronos-c-sdk\src\wolfSSL\wolfcrypt\src/aes.c ****     0x09090909U, 0x83838383U, 0x2c2c2c2cU, 0x1a1a1a1aU,
 577:..\kronos-c-sdk\src\wolfSSL\wolfcrypt\src/aes.c ****     0x1b1b1b1bU, 0x6e6e6e6eU, 0x5a5a5a5aU, 0xa0a0a0a0U,
 578:..\kronos-c-sdk\src\wolfSSL\wolfcrypt\src/aes.c ****     0x52525252U, 0x3b3b3b3bU, 0xd6d6d6d6U, 0xb3b3b3b3U,
 579:..\kronos-c-sdk\src\wolfSSL\wolfcrypt\src/aes.c ****     0x29292929U, 0xe3e3e3e3U, 0x2f2f2f2fU, 0x84848484U,
 580:..\kronos-c-sdk\src\wolfSSL\wolfcrypt\src/aes.c ****     0x53535353U, 0xd1d1d1d1U, 0x00000000U, 0xededededU,
 581:..\kronos-c-sdk\src\wolfSSL\wolfcrypt\src/aes.c ****     0x20202020U, 0xfcfcfcfcU, 0xb1b1b1b1U, 0x5b5b5b5bU,
 582:..\kronos-c-sdk\src\wolfSSL\wolfcrypt\src/aes.c ****     0x6a6a6a6aU, 0xcbcbcbcbU, 0xbebebebeU, 0x39393939U,
 583:..\kronos-c-sdk\src\wolfSSL\wolfcrypt\src/aes.c ****     0x4a4a4a4aU, 0x4c4c4c4cU, 0x58585858U, 0xcfcfcfcfU,
 584:..\kronos-c-sdk\src\wolfSSL\wolfcrypt\src/aes.c ****     0xd0d0d0d0U, 0xefefefefU, 0xaaaaaaaaU, 0xfbfbfbfbU,
 585:..\kronos-c-sdk\src\wolfSSL\wolfcrypt\src/aes.c ****     0x43434343U, 0x4d4d4d4dU, 0x33333333U, 0x85858585U,
 586:..\kronos-c-sdk\src\wolfSSL\wolfcrypt\src/aes.c ****     0x45454545U, 0xf9f9f9f9U, 0x02020202U, 0x7f7f7f7fU,
 587:..\kronos-c-sdk\src\wolfSSL\wolfcrypt\src/aes.c ****     0x50505050U, 0x3c3c3c3cU, 0x9f9f9f9fU, 0xa8a8a8a8U,
 588:..\kronos-c-sdk\src\wolfSSL\wolfcrypt\src/aes.c ****     0x51515151U, 0xa3a3a3a3U, 0x40404040U, 0x8f8f8f8fU,
 589:..\kronos-c-sdk\src\wolfSSL\wolfcrypt\src/aes.c ****     0x92929292U, 0x9d9d9d9dU, 0x38383838U, 0xf5f5f5f5U,
 590:..\kronos-c-sdk\src\wolfSSL\wolfcrypt\src/aes.c ****     0xbcbcbcbcU, 0xb6b6b6b6U, 0xdadadadaU, 0x21212121U,
 591:..\kronos-c-sdk\src\wolfSSL\wolfcrypt\src/aes.c ****     0x10101010U, 0xffffffffU, 0xf3f3f3f3U, 0xd2d2d2d2U,
 592:..\kronos-c-sdk\src\wolfSSL\wolfcrypt\src/aes.c ****     0xcdcdcdcdU, 0x0c0c0c0cU, 0x13131313U, 0xececececU,
 593:..\kronos-c-sdk\src\wolfSSL\wolfcrypt\src/aes.c ****     0x5f5f5f5fU, 0x97979797U, 0x44444444U, 0x17171717U,
 594:..\kronos-c-sdk\src\wolfSSL\wolfcrypt\src/aes.c ****     0xc4c4c4c4U, 0xa7a7a7a7U, 0x7e7e7e7eU, 0x3d3d3d3dU,
 595:..\kronos-c-sdk\src\wolfSSL\wolfcrypt\src/aes.c ****     0x64646464U, 0x5d5d5d5dU, 0x19191919U, 0x73737373U,
 596:..\kronos-c-sdk\src\wolfSSL\wolfcrypt\src/aes.c ****     0x60606060U, 0x81818181U, 0x4f4f4f4fU, 0xdcdcdcdcU,
 597:..\kronos-c-sdk\src\wolfSSL\wolfcrypt\src/aes.c ****     0x22222222U, 0x2a2a2a2aU, 0x90909090U, 0x88888888U,
 598:..\kronos-c-sdk\src\wolfSSL\wolfcrypt\src/aes.c ****     0x46464646U, 0xeeeeeeeeU, 0xb8b8b8b8U, 0x14141414U,
 599:..\kronos-c-sdk\src\wolfSSL\wolfcrypt\src/aes.c ****     0xdedededeU, 0x5e5e5e5eU, 0x0b0b0b0bU, 0xdbdbdbdbU,
 600:..\kronos-c-sdk\src\wolfSSL\wolfcrypt\src/aes.c ****     0xe0e0e0e0U, 0x32323232U, 0x3a3a3a3aU, 0x0a0a0a0aU,
 601:..\kronos-c-sdk\src\wolfSSL\wolfcrypt\src/aes.c ****     0x49494949U, 0x06060606U, 0x24242424U, 0x5c5c5c5cU,
 602:..\kronos-c-sdk\src\wolfSSL\wolfcrypt\src/aes.c ****     0xc2c2c2c2U, 0xd3d3d3d3U, 0xacacacacU, 0x62626262U,
 603:..\kronos-c-sdk\src\wolfSSL\wolfcrypt\src/aes.c ****     0x91919191U, 0x95959595U, 0xe4e4e4e4U, 0x79797979U,
ARM GAS  C:\Users\ddemidov\AppData\Local\Temp\ccTwWFqA.s 			page 12


 604:..\kronos-c-sdk\src\wolfSSL\wolfcrypt\src/aes.c ****     0xe7e7e7e7U, 0xc8c8c8c8U, 0x37373737U, 0x6d6d6d6dU,
 605:..\kronos-c-sdk\src\wolfSSL\wolfcrypt\src/aes.c ****     0x8d8d8d8dU, 0xd5d5d5d5U, 0x4e4e4e4eU, 0xa9a9a9a9U,
 606:..\kronos-c-sdk\src\wolfSSL\wolfcrypt\src/aes.c ****     0x6c6c6c6cU, 0x56565656U, 0xf4f4f4f4U, 0xeaeaeaeaU,
 607:..\kronos-c-sdk\src\wolfSSL\wolfcrypt\src/aes.c ****     0x65656565U, 0x7a7a7a7aU, 0xaeaeaeaeU, 0x08080808U,
 608:..\kronos-c-sdk\src\wolfSSL\wolfcrypt\src/aes.c ****     0xbabababaU, 0x78787878U, 0x25252525U, 0x2e2e2e2eU,
 609:..\kronos-c-sdk\src\wolfSSL\wolfcrypt\src/aes.c ****     0x1c1c1c1cU, 0xa6a6a6a6U, 0xb4b4b4b4U, 0xc6c6c6c6U,
 610:..\kronos-c-sdk\src\wolfSSL\wolfcrypt\src/aes.c ****     0xe8e8e8e8U, 0xddddddddU, 0x74747474U, 0x1f1f1f1fU,
 611:..\kronos-c-sdk\src\wolfSSL\wolfcrypt\src/aes.c ****     0x4b4b4b4bU, 0xbdbdbdbdU, 0x8b8b8b8bU, 0x8a8a8a8aU,
 612:..\kronos-c-sdk\src\wolfSSL\wolfcrypt\src/aes.c ****     0x70707070U, 0x3e3e3e3eU, 0xb5b5b5b5U, 0x66666666U,
 613:..\kronos-c-sdk\src\wolfSSL\wolfcrypt\src/aes.c ****     0x48484848U, 0x03030303U, 0xf6f6f6f6U, 0x0e0e0e0eU,
 614:..\kronos-c-sdk\src\wolfSSL\wolfcrypt\src/aes.c ****     0x61616161U, 0x35353535U, 0x57575757U, 0xb9b9b9b9U,
 615:..\kronos-c-sdk\src\wolfSSL\wolfcrypt\src/aes.c ****     0x86868686U, 0xc1c1c1c1U, 0x1d1d1d1dU, 0x9e9e9e9eU,
 616:..\kronos-c-sdk\src\wolfSSL\wolfcrypt\src/aes.c ****     0xe1e1e1e1U, 0xf8f8f8f8U, 0x98989898U, 0x11111111U,
 617:..\kronos-c-sdk\src\wolfSSL\wolfcrypt\src/aes.c ****     0x69696969U, 0xd9d9d9d9U, 0x8e8e8e8eU, 0x94949494U,
 618:..\kronos-c-sdk\src\wolfSSL\wolfcrypt\src/aes.c ****     0x9b9b9b9bU, 0x1e1e1e1eU, 0x87878787U, 0xe9e9e9e9U,
 619:..\kronos-c-sdk\src\wolfSSL\wolfcrypt\src/aes.c ****     0xcecececeU, 0x55555555U, 0x28282828U, 0xdfdfdfdfU,
 620:..\kronos-c-sdk\src\wolfSSL\wolfcrypt\src/aes.c ****     0x8c8c8c8cU, 0xa1a1a1a1U, 0x89898989U, 0x0d0d0d0dU,
 621:..\kronos-c-sdk\src\wolfSSL\wolfcrypt\src/aes.c ****     0xbfbfbfbfU, 0xe6e6e6e6U, 0x42424242U, 0x68686868U,
 622:..\kronos-c-sdk\src\wolfSSL\wolfcrypt\src/aes.c ****     0x41414141U, 0x99999999U, 0x2d2d2d2dU, 0x0f0f0f0fU,
 623:..\kronos-c-sdk\src\wolfSSL\wolfcrypt\src/aes.c ****     0xb0b0b0b0U, 0x54545454U, 0xbbbbbbbbU, 0x16161616U,
 624:..\kronos-c-sdk\src\wolfSSL\wolfcrypt\src/aes.c **** }
 625:..\kronos-c-sdk\src\wolfSSL\wolfcrypt\src/aes.c **** };
 626:..\kronos-c-sdk\src\wolfSSL\wolfcrypt\src/aes.c **** 
 627:..\kronos-c-sdk\src\wolfSSL\wolfcrypt\src/aes.c **** static const word32 Td[5][256] = {
 628:..\kronos-c-sdk\src\wolfSSL\wolfcrypt\src/aes.c **** {
 629:..\kronos-c-sdk\src\wolfSSL\wolfcrypt\src/aes.c ****     0x51f4a750U, 0x7e416553U, 0x1a17a4c3U, 0x3a275e96U,
 630:..\kronos-c-sdk\src\wolfSSL\wolfcrypt\src/aes.c ****     0x3bab6bcbU, 0x1f9d45f1U, 0xacfa58abU, 0x4be30393U,
 631:..\kronos-c-sdk\src\wolfSSL\wolfcrypt\src/aes.c ****     0x2030fa55U, 0xad766df6U, 0x88cc7691U, 0xf5024c25U,
 632:..\kronos-c-sdk\src\wolfSSL\wolfcrypt\src/aes.c ****     0x4fe5d7fcU, 0xc52acbd7U, 0x26354480U, 0xb562a38fU,
 633:..\kronos-c-sdk\src\wolfSSL\wolfcrypt\src/aes.c ****     0xdeb15a49U, 0x25ba1b67U, 0x45ea0e98U, 0x5dfec0e1U,
 634:..\kronos-c-sdk\src\wolfSSL\wolfcrypt\src/aes.c ****     0xc32f7502U, 0x814cf012U, 0x8d4697a3U, 0x6bd3f9c6U,
 635:..\kronos-c-sdk\src\wolfSSL\wolfcrypt\src/aes.c ****     0x038f5fe7U, 0x15929c95U, 0xbf6d7aebU, 0x955259daU,
 636:..\kronos-c-sdk\src\wolfSSL\wolfcrypt\src/aes.c ****     0xd4be832dU, 0x587421d3U, 0x49e06929U, 0x8ec9c844U,
 637:..\kronos-c-sdk\src\wolfSSL\wolfcrypt\src/aes.c ****     0x75c2896aU, 0xf48e7978U, 0x99583e6bU, 0x27b971ddU,
 638:..\kronos-c-sdk\src\wolfSSL\wolfcrypt\src/aes.c ****     0xbee14fb6U, 0xf088ad17U, 0xc920ac66U, 0x7dce3ab4U,
 639:..\kronos-c-sdk\src\wolfSSL\wolfcrypt\src/aes.c ****     0x63df4a18U, 0xe51a3182U, 0x97513360U, 0x62537f45U,
 640:..\kronos-c-sdk\src\wolfSSL\wolfcrypt\src/aes.c ****     0xb16477e0U, 0xbb6bae84U, 0xfe81a01cU, 0xf9082b94U,
 641:..\kronos-c-sdk\src\wolfSSL\wolfcrypt\src/aes.c ****     0x70486858U, 0x8f45fd19U, 0x94de6c87U, 0x527bf8b7U,
 642:..\kronos-c-sdk\src\wolfSSL\wolfcrypt\src/aes.c ****     0xab73d323U, 0x724b02e2U, 0xe31f8f57U, 0x6655ab2aU,
 643:..\kronos-c-sdk\src\wolfSSL\wolfcrypt\src/aes.c ****     0xb2eb2807U, 0x2fb5c203U, 0x86c57b9aU, 0xd33708a5U,
 644:..\kronos-c-sdk\src\wolfSSL\wolfcrypt\src/aes.c ****     0x302887f2U, 0x23bfa5b2U, 0x02036abaU, 0xed16825cU,
 645:..\kronos-c-sdk\src\wolfSSL\wolfcrypt\src/aes.c ****     0x8acf1c2bU, 0xa779b492U, 0xf307f2f0U, 0x4e69e2a1U,
 646:..\kronos-c-sdk\src\wolfSSL\wolfcrypt\src/aes.c ****     0x65daf4cdU, 0x0605bed5U, 0xd134621fU, 0xc4a6fe8aU,
 647:..\kronos-c-sdk\src\wolfSSL\wolfcrypt\src/aes.c ****     0x342e539dU, 0xa2f355a0U, 0x058ae132U, 0xa4f6eb75U,
 648:..\kronos-c-sdk\src\wolfSSL\wolfcrypt\src/aes.c ****     0x0b83ec39U, 0x4060efaaU, 0x5e719f06U, 0xbd6e1051U,
 649:..\kronos-c-sdk\src\wolfSSL\wolfcrypt\src/aes.c ****     0x3e218af9U, 0x96dd063dU, 0xdd3e05aeU, 0x4de6bd46U,
 650:..\kronos-c-sdk\src\wolfSSL\wolfcrypt\src/aes.c ****     0x91548db5U, 0x71c45d05U, 0x0406d46fU, 0x605015ffU,
 651:..\kronos-c-sdk\src\wolfSSL\wolfcrypt\src/aes.c ****     0x1998fb24U, 0xd6bde997U, 0x894043ccU, 0x67d99e77U,
 652:..\kronos-c-sdk\src\wolfSSL\wolfcrypt\src/aes.c ****     0xb0e842bdU, 0x07898b88U, 0xe7195b38U, 0x79c8eedbU,
 653:..\kronos-c-sdk\src\wolfSSL\wolfcrypt\src/aes.c ****     0xa17c0a47U, 0x7c420fe9U, 0xf8841ec9U, 0x00000000U,
 654:..\kronos-c-sdk\src\wolfSSL\wolfcrypt\src/aes.c ****     0x09808683U, 0x322bed48U, 0x1e1170acU, 0x6c5a724eU,
 655:..\kronos-c-sdk\src\wolfSSL\wolfcrypt\src/aes.c ****     0xfd0efffbU, 0x0f853856U, 0x3daed51eU, 0x362d3927U,
 656:..\kronos-c-sdk\src\wolfSSL\wolfcrypt\src/aes.c ****     0x0a0fd964U, 0x685ca621U, 0x9b5b54d1U, 0x24362e3aU,
 657:..\kronos-c-sdk\src\wolfSSL\wolfcrypt\src/aes.c ****     0x0c0a67b1U, 0x9357e70fU, 0xb4ee96d2U, 0x1b9b919eU,
 658:..\kronos-c-sdk\src\wolfSSL\wolfcrypt\src/aes.c ****     0x80c0c54fU, 0x61dc20a2U, 0x5a774b69U, 0x1c121a16U,
 659:..\kronos-c-sdk\src\wolfSSL\wolfcrypt\src/aes.c ****     0xe293ba0aU, 0xc0a02ae5U, 0x3c22e043U, 0x121b171dU,
 660:..\kronos-c-sdk\src\wolfSSL\wolfcrypt\src/aes.c ****     0x0e090d0bU, 0xf28bc7adU, 0x2db6a8b9U, 0x141ea9c8U,
ARM GAS  C:\Users\ddemidov\AppData\Local\Temp\ccTwWFqA.s 			page 13


 661:..\kronos-c-sdk\src\wolfSSL\wolfcrypt\src/aes.c ****     0x57f11985U, 0xaf75074cU, 0xee99ddbbU, 0xa37f60fdU,
 662:..\kronos-c-sdk\src\wolfSSL\wolfcrypt\src/aes.c ****     0xf701269fU, 0x5c72f5bcU, 0x44663bc5U, 0x5bfb7e34U,
 663:..\kronos-c-sdk\src\wolfSSL\wolfcrypt\src/aes.c ****     0x8b432976U, 0xcb23c6dcU, 0xb6edfc68U, 0xb8e4f163U,
 664:..\kronos-c-sdk\src\wolfSSL\wolfcrypt\src/aes.c ****     0xd731dccaU, 0x42638510U, 0x13972240U, 0x84c61120U,
 665:..\kronos-c-sdk\src\wolfSSL\wolfcrypt\src/aes.c ****     0x854a247dU, 0xd2bb3df8U, 0xaef93211U, 0xc729a16dU,
 666:..\kronos-c-sdk\src\wolfSSL\wolfcrypt\src/aes.c ****     0x1d9e2f4bU, 0xdcb230f3U, 0x0d8652ecU, 0x77c1e3d0U,
 667:..\kronos-c-sdk\src\wolfSSL\wolfcrypt\src/aes.c ****     0x2bb3166cU, 0xa970b999U, 0x119448faU, 0x47e96422U,
 668:..\kronos-c-sdk\src\wolfSSL\wolfcrypt\src/aes.c ****     0xa8fc8cc4U, 0xa0f03f1aU, 0x567d2cd8U, 0x223390efU,
 669:..\kronos-c-sdk\src\wolfSSL\wolfcrypt\src/aes.c ****     0x87494ec7U, 0xd938d1c1U, 0x8ccaa2feU, 0x98d40b36U,
 670:..\kronos-c-sdk\src\wolfSSL\wolfcrypt\src/aes.c ****     0xa6f581cfU, 0xa57ade28U, 0xdab78e26U, 0x3fadbfa4U,
 671:..\kronos-c-sdk\src\wolfSSL\wolfcrypt\src/aes.c ****     0x2c3a9de4U, 0x5078920dU, 0x6a5fcc9bU, 0x547e4662U,
 672:..\kronos-c-sdk\src\wolfSSL\wolfcrypt\src/aes.c ****     0xf68d13c2U, 0x90d8b8e8U, 0x2e39f75eU, 0x82c3aff5U,
 673:..\kronos-c-sdk\src\wolfSSL\wolfcrypt\src/aes.c ****     0x9f5d80beU, 0x69d0937cU, 0x6fd52da9U, 0xcf2512b3U,
 674:..\kronos-c-sdk\src\wolfSSL\wolfcrypt\src/aes.c ****     0xc8ac993bU, 0x10187da7U, 0xe89c636eU, 0xdb3bbb7bU,
 675:..\kronos-c-sdk\src\wolfSSL\wolfcrypt\src/aes.c ****     0xcd267809U, 0x6e5918f4U, 0xec9ab701U, 0x834f9aa8U,
 676:..\kronos-c-sdk\src\wolfSSL\wolfcrypt\src/aes.c ****     0xe6956e65U, 0xaaffe67eU, 0x21bccf08U, 0xef15e8e6U,
 677:..\kronos-c-sdk\src\wolfSSL\wolfcrypt\src/aes.c ****     0xbae79bd9U, 0x4a6f36ceU, 0xea9f09d4U, 0x29b07cd6U,
 678:..\kronos-c-sdk\src\wolfSSL\wolfcrypt\src/aes.c ****     0x31a4b2afU, 0x2a3f2331U, 0xc6a59430U, 0x35a266c0U,
 679:..\kronos-c-sdk\src\wolfSSL\wolfcrypt\src/aes.c ****     0x744ebc37U, 0xfc82caa6U, 0xe090d0b0U, 0x33a7d815U,
 680:..\kronos-c-sdk\src\wolfSSL\wolfcrypt\src/aes.c ****     0xf104984aU, 0x41ecdaf7U, 0x7fcd500eU, 0x1791f62fU,
 681:..\kronos-c-sdk\src\wolfSSL\wolfcrypt\src/aes.c ****     0x764dd68dU, 0x43efb04dU, 0xccaa4d54U, 0xe49604dfU,
 682:..\kronos-c-sdk\src\wolfSSL\wolfcrypt\src/aes.c ****     0x9ed1b5e3U, 0x4c6a881bU, 0xc12c1fb8U, 0x4665517fU,
 683:..\kronos-c-sdk\src\wolfSSL\wolfcrypt\src/aes.c ****     0x9d5eea04U, 0x018c355dU, 0xfa877473U, 0xfb0b412eU,
 684:..\kronos-c-sdk\src\wolfSSL\wolfcrypt\src/aes.c ****     0xb3671d5aU, 0x92dbd252U, 0xe9105633U, 0x6dd64713U,
 685:..\kronos-c-sdk\src\wolfSSL\wolfcrypt\src/aes.c ****     0x9ad7618cU, 0x37a10c7aU, 0x59f8148eU, 0xeb133c89U,
 686:..\kronos-c-sdk\src\wolfSSL\wolfcrypt\src/aes.c ****     0xcea927eeU, 0xb761c935U, 0xe11ce5edU, 0x7a47b13cU,
 687:..\kronos-c-sdk\src\wolfSSL\wolfcrypt\src/aes.c ****     0x9cd2df59U, 0x55f2733fU, 0x1814ce79U, 0x73c737bfU,
 688:..\kronos-c-sdk\src\wolfSSL\wolfcrypt\src/aes.c ****     0x53f7cdeaU, 0x5ffdaa5bU, 0xdf3d6f14U, 0x7844db86U,
 689:..\kronos-c-sdk\src\wolfSSL\wolfcrypt\src/aes.c ****     0xcaaff381U, 0xb968c43eU, 0x3824342cU, 0xc2a3405fU,
 690:..\kronos-c-sdk\src\wolfSSL\wolfcrypt\src/aes.c ****     0x161dc372U, 0xbce2250cU, 0x283c498bU, 0xff0d9541U,
 691:..\kronos-c-sdk\src\wolfSSL\wolfcrypt\src/aes.c ****     0x39a80171U, 0x080cb3deU, 0xd8b4e49cU, 0x6456c190U,
 692:..\kronos-c-sdk\src\wolfSSL\wolfcrypt\src/aes.c ****     0x7bcb8461U, 0xd532b670U, 0x486c5c74U, 0xd0b85742U,
 693:..\kronos-c-sdk\src\wolfSSL\wolfcrypt\src/aes.c **** },
 694:..\kronos-c-sdk\src\wolfSSL\wolfcrypt\src/aes.c **** {
 695:..\kronos-c-sdk\src\wolfSSL\wolfcrypt\src/aes.c ****     0x5051f4a7U, 0x537e4165U, 0xc31a17a4U, 0x963a275eU,
 696:..\kronos-c-sdk\src\wolfSSL\wolfcrypt\src/aes.c ****     0xcb3bab6bU, 0xf11f9d45U, 0xabacfa58U, 0x934be303U,
 697:..\kronos-c-sdk\src\wolfSSL\wolfcrypt\src/aes.c ****     0x552030faU, 0xf6ad766dU, 0x9188cc76U, 0x25f5024cU,
 698:..\kronos-c-sdk\src\wolfSSL\wolfcrypt\src/aes.c ****     0xfc4fe5d7U, 0xd7c52acbU, 0x80263544U, 0x8fb562a3U,
 699:..\kronos-c-sdk\src\wolfSSL\wolfcrypt\src/aes.c ****     0x49deb15aU, 0x6725ba1bU, 0x9845ea0eU, 0xe15dfec0U,
 700:..\kronos-c-sdk\src\wolfSSL\wolfcrypt\src/aes.c ****     0x02c32f75U, 0x12814cf0U, 0xa38d4697U, 0xc66bd3f9U,
 701:..\kronos-c-sdk\src\wolfSSL\wolfcrypt\src/aes.c ****     0xe7038f5fU, 0x9515929cU, 0xebbf6d7aU, 0xda955259U,
 702:..\kronos-c-sdk\src\wolfSSL\wolfcrypt\src/aes.c ****     0x2dd4be83U, 0xd3587421U, 0x2949e069U, 0x448ec9c8U,
 703:..\kronos-c-sdk\src\wolfSSL\wolfcrypt\src/aes.c ****     0x6a75c289U, 0x78f48e79U, 0x6b99583eU, 0xdd27b971U,
 704:..\kronos-c-sdk\src\wolfSSL\wolfcrypt\src/aes.c ****     0xb6bee14fU, 0x17f088adU, 0x66c920acU, 0xb47dce3aU,
 705:..\kronos-c-sdk\src\wolfSSL\wolfcrypt\src/aes.c ****     0x1863df4aU, 0x82e51a31U, 0x60975133U, 0x4562537fU,
 706:..\kronos-c-sdk\src\wolfSSL\wolfcrypt\src/aes.c ****     0xe0b16477U, 0x84bb6baeU, 0x1cfe81a0U, 0x94f9082bU,
 707:..\kronos-c-sdk\src\wolfSSL\wolfcrypt\src/aes.c ****     0x58704868U, 0x198f45fdU, 0x8794de6cU, 0xb7527bf8U,
 708:..\kronos-c-sdk\src\wolfSSL\wolfcrypt\src/aes.c ****     0x23ab73d3U, 0xe2724b02U, 0x57e31f8fU, 0x2a6655abU,
 709:..\kronos-c-sdk\src\wolfSSL\wolfcrypt\src/aes.c ****     0x07b2eb28U, 0x032fb5c2U, 0x9a86c57bU, 0xa5d33708U,
 710:..\kronos-c-sdk\src\wolfSSL\wolfcrypt\src/aes.c ****     0xf2302887U, 0xb223bfa5U, 0xba02036aU, 0x5ced1682U,
 711:..\kronos-c-sdk\src\wolfSSL\wolfcrypt\src/aes.c ****     0x2b8acf1cU, 0x92a779b4U, 0xf0f307f2U, 0xa14e69e2U,
 712:..\kronos-c-sdk\src\wolfSSL\wolfcrypt\src/aes.c ****     0xcd65daf4U, 0xd50605beU, 0x1fd13462U, 0x8ac4a6feU,
 713:..\kronos-c-sdk\src\wolfSSL\wolfcrypt\src/aes.c ****     0x9d342e53U, 0xa0a2f355U, 0x32058ae1U, 0x75a4f6ebU,
 714:..\kronos-c-sdk\src\wolfSSL\wolfcrypt\src/aes.c ****     0x390b83ecU, 0xaa4060efU, 0x065e719fU, 0x51bd6e10U,
 715:..\kronos-c-sdk\src\wolfSSL\wolfcrypt\src/aes.c ****     0xf93e218aU, 0x3d96dd06U, 0xaedd3e05U, 0x464de6bdU,
 716:..\kronos-c-sdk\src\wolfSSL\wolfcrypt\src/aes.c ****     0xb591548dU, 0x0571c45dU, 0x6f0406d4U, 0xff605015U,
 717:..\kronos-c-sdk\src\wolfSSL\wolfcrypt\src/aes.c ****     0x241998fbU, 0x97d6bde9U, 0xcc894043U, 0x7767d99eU,
ARM GAS  C:\Users\ddemidov\AppData\Local\Temp\ccTwWFqA.s 			page 14


 718:..\kronos-c-sdk\src\wolfSSL\wolfcrypt\src/aes.c ****     0xbdb0e842U, 0x8807898bU, 0x38e7195bU, 0xdb79c8eeU,
 719:..\kronos-c-sdk\src\wolfSSL\wolfcrypt\src/aes.c ****     0x47a17c0aU, 0xe97c420fU, 0xc9f8841eU, 0x00000000U,
 720:..\kronos-c-sdk\src\wolfSSL\wolfcrypt\src/aes.c ****     0x83098086U, 0x48322bedU, 0xac1e1170U, 0x4e6c5a72U,
 721:..\kronos-c-sdk\src\wolfSSL\wolfcrypt\src/aes.c ****     0xfbfd0effU, 0x560f8538U, 0x1e3daed5U, 0x27362d39U,
 722:..\kronos-c-sdk\src\wolfSSL\wolfcrypt\src/aes.c ****     0x640a0fd9U, 0x21685ca6U, 0xd19b5b54U, 0x3a24362eU,
 723:..\kronos-c-sdk\src\wolfSSL\wolfcrypt\src/aes.c ****     0xb10c0a67U, 0x0f9357e7U, 0xd2b4ee96U, 0x9e1b9b91U,
 724:..\kronos-c-sdk\src\wolfSSL\wolfcrypt\src/aes.c ****     0x4f80c0c5U, 0xa261dc20U, 0x695a774bU, 0x161c121aU,
 725:..\kronos-c-sdk\src\wolfSSL\wolfcrypt\src/aes.c ****     0x0ae293baU, 0xe5c0a02aU, 0x433c22e0U, 0x1d121b17U,
 726:..\kronos-c-sdk\src\wolfSSL\wolfcrypt\src/aes.c ****     0x0b0e090dU, 0xadf28bc7U, 0xb92db6a8U, 0xc8141ea9U,
 727:..\kronos-c-sdk\src\wolfSSL\wolfcrypt\src/aes.c ****     0x8557f119U, 0x4caf7507U, 0xbbee99ddU, 0xfda37f60U,
 728:..\kronos-c-sdk\src\wolfSSL\wolfcrypt\src/aes.c ****     0x9ff70126U, 0xbc5c72f5U, 0xc544663bU, 0x345bfb7eU,
 729:..\kronos-c-sdk\src\wolfSSL\wolfcrypt\src/aes.c ****     0x768b4329U, 0xdccb23c6U, 0x68b6edfcU, 0x63b8e4f1U,
 730:..\kronos-c-sdk\src\wolfSSL\wolfcrypt\src/aes.c ****     0xcad731dcU, 0x10426385U, 0x40139722U, 0x2084c611U,
 731:..\kronos-c-sdk\src\wolfSSL\wolfcrypt\src/aes.c ****     0x7d854a24U, 0xf8d2bb3dU, 0x11aef932U, 0x6dc729a1U,
 732:..\kronos-c-sdk\src\wolfSSL\wolfcrypt\src/aes.c ****     0x4b1d9e2fU, 0xf3dcb230U, 0xec0d8652U, 0xd077c1e3U,
 733:..\kronos-c-sdk\src\wolfSSL\wolfcrypt\src/aes.c ****     0x6c2bb316U, 0x99a970b9U, 0xfa119448U, 0x2247e964U,
 734:..\kronos-c-sdk\src\wolfSSL\wolfcrypt\src/aes.c ****     0xc4a8fc8cU, 0x1aa0f03fU, 0xd8567d2cU, 0xef223390U,
 735:..\kronos-c-sdk\src\wolfSSL\wolfcrypt\src/aes.c ****     0xc787494eU, 0xc1d938d1U, 0xfe8ccaa2U, 0x3698d40bU,
 736:..\kronos-c-sdk\src\wolfSSL\wolfcrypt\src/aes.c ****     0xcfa6f581U, 0x28a57adeU, 0x26dab78eU, 0xa43fadbfU,
 737:..\kronos-c-sdk\src\wolfSSL\wolfcrypt\src/aes.c ****     0xe42c3a9dU, 0x0d507892U, 0x9b6a5fccU, 0x62547e46U,
 738:..\kronos-c-sdk\src\wolfSSL\wolfcrypt\src/aes.c ****     0xc2f68d13U, 0xe890d8b8U, 0x5e2e39f7U, 0xf582c3afU,
 739:..\kronos-c-sdk\src\wolfSSL\wolfcrypt\src/aes.c ****     0xbe9f5d80U, 0x7c69d093U, 0xa96fd52dU, 0xb3cf2512U,
 740:..\kronos-c-sdk\src\wolfSSL\wolfcrypt\src/aes.c ****     0x3bc8ac99U, 0xa710187dU, 0x6ee89c63U, 0x7bdb3bbbU,
 741:..\kronos-c-sdk\src\wolfSSL\wolfcrypt\src/aes.c ****     0x09cd2678U, 0xf46e5918U, 0x01ec9ab7U, 0xa8834f9aU,
 742:..\kronos-c-sdk\src\wolfSSL\wolfcrypt\src/aes.c ****     0x65e6956eU, 0x7eaaffe6U, 0x0821bccfU, 0xe6ef15e8U,
 743:..\kronos-c-sdk\src\wolfSSL\wolfcrypt\src/aes.c ****     0xd9bae79bU, 0xce4a6f36U, 0xd4ea9f09U, 0xd629b07cU,
 744:..\kronos-c-sdk\src\wolfSSL\wolfcrypt\src/aes.c ****     0xaf31a4b2U, 0x312a3f23U, 0x30c6a594U, 0xc035a266U,
 745:..\kronos-c-sdk\src\wolfSSL\wolfcrypt\src/aes.c ****     0x37744ebcU, 0xa6fc82caU, 0xb0e090d0U, 0x1533a7d8U,
 746:..\kronos-c-sdk\src\wolfSSL\wolfcrypt\src/aes.c ****     0x4af10498U, 0xf741ecdaU, 0x0e7fcd50U, 0x2f1791f6U,
 747:..\kronos-c-sdk\src\wolfSSL\wolfcrypt\src/aes.c ****     0x8d764dd6U, 0x4d43efb0U, 0x54ccaa4dU, 0xdfe49604U,
 748:..\kronos-c-sdk\src\wolfSSL\wolfcrypt\src/aes.c ****     0xe39ed1b5U, 0x1b4c6a88U, 0xb8c12c1fU, 0x7f466551U,
 749:..\kronos-c-sdk\src\wolfSSL\wolfcrypt\src/aes.c ****     0x049d5eeaU, 0x5d018c35U, 0x73fa8774U, 0x2efb0b41U,
 750:..\kronos-c-sdk\src\wolfSSL\wolfcrypt\src/aes.c ****     0x5ab3671dU, 0x5292dbd2U, 0x33e91056U, 0x136dd647U,
 751:..\kronos-c-sdk\src\wolfSSL\wolfcrypt\src/aes.c ****     0x8c9ad761U, 0x7a37a10cU, 0x8e59f814U, 0x89eb133cU,
 752:..\kronos-c-sdk\src\wolfSSL\wolfcrypt\src/aes.c ****     0xeecea927U, 0x35b761c9U, 0xede11ce5U, 0x3c7a47b1U,
 753:..\kronos-c-sdk\src\wolfSSL\wolfcrypt\src/aes.c ****     0x599cd2dfU, 0x3f55f273U, 0x791814ceU, 0xbf73c737U,
 754:..\kronos-c-sdk\src\wolfSSL\wolfcrypt\src/aes.c ****     0xea53f7cdU, 0x5b5ffdaaU, 0x14df3d6fU, 0x867844dbU,
 755:..\kronos-c-sdk\src\wolfSSL\wolfcrypt\src/aes.c ****     0x81caaff3U, 0x3eb968c4U, 0x2c382434U, 0x5fc2a340U,
 756:..\kronos-c-sdk\src\wolfSSL\wolfcrypt\src/aes.c ****     0x72161dc3U, 0x0cbce225U, 0x8b283c49U, 0x41ff0d95U,
 757:..\kronos-c-sdk\src\wolfSSL\wolfcrypt\src/aes.c ****     0x7139a801U, 0xde080cb3U, 0x9cd8b4e4U, 0x906456c1U,
 758:..\kronos-c-sdk\src\wolfSSL\wolfcrypt\src/aes.c ****     0x617bcb84U, 0x70d532b6U, 0x74486c5cU, 0x42d0b857U,
 759:..\kronos-c-sdk\src\wolfSSL\wolfcrypt\src/aes.c **** },
 760:..\kronos-c-sdk\src\wolfSSL\wolfcrypt\src/aes.c **** {
 761:..\kronos-c-sdk\src\wolfSSL\wolfcrypt\src/aes.c ****     0xa75051f4U, 0x65537e41U, 0xa4c31a17U, 0x5e963a27U,
 762:..\kronos-c-sdk\src\wolfSSL\wolfcrypt\src/aes.c ****     0x6bcb3babU, 0x45f11f9dU, 0x58abacfaU, 0x03934be3U,
 763:..\kronos-c-sdk\src\wolfSSL\wolfcrypt\src/aes.c ****     0xfa552030U, 0x6df6ad76U, 0x769188ccU, 0x4c25f502U,
 764:..\kronos-c-sdk\src\wolfSSL\wolfcrypt\src/aes.c ****     0xd7fc4fe5U, 0xcbd7c52aU, 0x44802635U, 0xa38fb562U,
 765:..\kronos-c-sdk\src\wolfSSL\wolfcrypt\src/aes.c ****     0x5a49deb1U, 0x1b6725baU, 0x0e9845eaU, 0xc0e15dfeU,
 766:..\kronos-c-sdk\src\wolfSSL\wolfcrypt\src/aes.c ****     0x7502c32fU, 0xf012814cU, 0x97a38d46U, 0xf9c66bd3U,
 767:..\kronos-c-sdk\src\wolfSSL\wolfcrypt\src/aes.c ****     0x5fe7038fU, 0x9c951592U, 0x7aebbf6dU, 0x59da9552U,
 768:..\kronos-c-sdk\src\wolfSSL\wolfcrypt\src/aes.c ****     0x832dd4beU, 0x21d35874U, 0x692949e0U, 0xc8448ec9U,
 769:..\kronos-c-sdk\src\wolfSSL\wolfcrypt\src/aes.c ****     0x896a75c2U, 0x7978f48eU, 0x3e6b9958U, 0x71dd27b9U,
 770:..\kronos-c-sdk\src\wolfSSL\wolfcrypt\src/aes.c ****     0x4fb6bee1U, 0xad17f088U, 0xac66c920U, 0x3ab47dceU,
 771:..\kronos-c-sdk\src\wolfSSL\wolfcrypt\src/aes.c ****     0x4a1863dfU, 0x3182e51aU, 0x33609751U, 0x7f456253U,
 772:..\kronos-c-sdk\src\wolfSSL\wolfcrypt\src/aes.c ****     0x77e0b164U, 0xae84bb6bU, 0xa01cfe81U, 0x2b94f908U,
 773:..\kronos-c-sdk\src\wolfSSL\wolfcrypt\src/aes.c ****     0x68587048U, 0xfd198f45U, 0x6c8794deU, 0xf8b7527bU,
 774:..\kronos-c-sdk\src\wolfSSL\wolfcrypt\src/aes.c ****     0xd323ab73U, 0x02e2724bU, 0x8f57e31fU, 0xab2a6655U,
ARM GAS  C:\Users\ddemidov\AppData\Local\Temp\ccTwWFqA.s 			page 15


 775:..\kronos-c-sdk\src\wolfSSL\wolfcrypt\src/aes.c ****     0x2807b2ebU, 0xc2032fb5U, 0x7b9a86c5U, 0x08a5d337U,
 776:..\kronos-c-sdk\src\wolfSSL\wolfcrypt\src/aes.c ****     0x87f23028U, 0xa5b223bfU, 0x6aba0203U, 0x825ced16U,
 777:..\kronos-c-sdk\src\wolfSSL\wolfcrypt\src/aes.c ****     0x1c2b8acfU, 0xb492a779U, 0xf2f0f307U, 0xe2a14e69U,
 778:..\kronos-c-sdk\src\wolfSSL\wolfcrypt\src/aes.c ****     0xf4cd65daU, 0xbed50605U, 0x621fd134U, 0xfe8ac4a6U,
 779:..\kronos-c-sdk\src\wolfSSL\wolfcrypt\src/aes.c ****     0x539d342eU, 0x55a0a2f3U, 0xe132058aU, 0xeb75a4f6U,
 780:..\kronos-c-sdk\src\wolfSSL\wolfcrypt\src/aes.c ****     0xec390b83U, 0xefaa4060U, 0x9f065e71U, 0x1051bd6eU,
 781:..\kronos-c-sdk\src\wolfSSL\wolfcrypt\src/aes.c **** 
 782:..\kronos-c-sdk\src\wolfSSL\wolfcrypt\src/aes.c ****     0x8af93e21U, 0x063d96ddU, 0x05aedd3eU, 0xbd464de6U,
 783:..\kronos-c-sdk\src\wolfSSL\wolfcrypt\src/aes.c ****     0x8db59154U, 0x5d0571c4U, 0xd46f0406U, 0x15ff6050U,
 784:..\kronos-c-sdk\src\wolfSSL\wolfcrypt\src/aes.c ****     0xfb241998U, 0xe997d6bdU, 0x43cc8940U, 0x9e7767d9U,
 785:..\kronos-c-sdk\src\wolfSSL\wolfcrypt\src/aes.c ****     0x42bdb0e8U, 0x8b880789U, 0x5b38e719U, 0xeedb79c8U,
 786:..\kronos-c-sdk\src\wolfSSL\wolfcrypt\src/aes.c ****     0x0a47a17cU, 0x0fe97c42U, 0x1ec9f884U, 0x00000000U,
 787:..\kronos-c-sdk\src\wolfSSL\wolfcrypt\src/aes.c ****     0x86830980U, 0xed48322bU, 0x70ac1e11U, 0x724e6c5aU,
 788:..\kronos-c-sdk\src\wolfSSL\wolfcrypt\src/aes.c ****     0xfffbfd0eU, 0x38560f85U, 0xd51e3daeU, 0x3927362dU,
 789:..\kronos-c-sdk\src\wolfSSL\wolfcrypt\src/aes.c ****     0xd9640a0fU, 0xa621685cU, 0x54d19b5bU, 0x2e3a2436U,
 790:..\kronos-c-sdk\src\wolfSSL\wolfcrypt\src/aes.c ****     0x67b10c0aU, 0xe70f9357U, 0x96d2b4eeU, 0x919e1b9bU,
 791:..\kronos-c-sdk\src\wolfSSL\wolfcrypt\src/aes.c ****     0xc54f80c0U, 0x20a261dcU, 0x4b695a77U, 0x1a161c12U,
 792:..\kronos-c-sdk\src\wolfSSL\wolfcrypt\src/aes.c ****     0xba0ae293U, 0x2ae5c0a0U, 0xe0433c22U, 0x171d121bU,
 793:..\kronos-c-sdk\src\wolfSSL\wolfcrypt\src/aes.c ****     0x0d0b0e09U, 0xc7adf28bU, 0xa8b92db6U, 0xa9c8141eU,
 794:..\kronos-c-sdk\src\wolfSSL\wolfcrypt\src/aes.c ****     0x198557f1U, 0x074caf75U, 0xddbbee99U, 0x60fda37fU,
 795:..\kronos-c-sdk\src\wolfSSL\wolfcrypt\src/aes.c ****     0x269ff701U, 0xf5bc5c72U, 0x3bc54466U, 0x7e345bfbU,
 796:..\kronos-c-sdk\src\wolfSSL\wolfcrypt\src/aes.c ****     0x29768b43U, 0xc6dccb23U, 0xfc68b6edU, 0xf163b8e4U,
 797:..\kronos-c-sdk\src\wolfSSL\wolfcrypt\src/aes.c ****     0xdccad731U, 0x85104263U, 0x22401397U, 0x112084c6U,
 798:..\kronos-c-sdk\src\wolfSSL\wolfcrypt\src/aes.c ****     0x247d854aU, 0x3df8d2bbU, 0x3211aef9U, 0xa16dc729U,
 799:..\kronos-c-sdk\src\wolfSSL\wolfcrypt\src/aes.c ****     0x2f4b1d9eU, 0x30f3dcb2U, 0x52ec0d86U, 0xe3d077c1U,
 800:..\kronos-c-sdk\src\wolfSSL\wolfcrypt\src/aes.c ****     0x166c2bb3U, 0xb999a970U, 0x48fa1194U, 0x642247e9U,
 801:..\kronos-c-sdk\src\wolfSSL\wolfcrypt\src/aes.c ****     0x8cc4a8fcU, 0x3f1aa0f0U, 0x2cd8567dU, 0x90ef2233U,
 802:..\kronos-c-sdk\src\wolfSSL\wolfcrypt\src/aes.c ****     0x4ec78749U, 0xd1c1d938U, 0xa2fe8ccaU, 0x0b3698d4U,
 803:..\kronos-c-sdk\src\wolfSSL\wolfcrypt\src/aes.c ****     0x81cfa6f5U, 0xde28a57aU, 0x8e26dab7U, 0xbfa43fadU,
 804:..\kronos-c-sdk\src\wolfSSL\wolfcrypt\src/aes.c ****     0x9de42c3aU, 0x920d5078U, 0xcc9b6a5fU, 0x4662547eU,
 805:..\kronos-c-sdk\src\wolfSSL\wolfcrypt\src/aes.c ****     0x13c2f68dU, 0xb8e890d8U, 0xf75e2e39U, 0xaff582c3U,
 806:..\kronos-c-sdk\src\wolfSSL\wolfcrypt\src/aes.c ****     0x80be9f5dU, 0x937c69d0U, 0x2da96fd5U, 0x12b3cf25U,
 807:..\kronos-c-sdk\src\wolfSSL\wolfcrypt\src/aes.c ****     0x993bc8acU, 0x7da71018U, 0x636ee89cU, 0xbb7bdb3bU,
 808:..\kronos-c-sdk\src\wolfSSL\wolfcrypt\src/aes.c ****     0x7809cd26U, 0x18f46e59U, 0xb701ec9aU, 0x9aa8834fU,
 809:..\kronos-c-sdk\src\wolfSSL\wolfcrypt\src/aes.c ****     0x6e65e695U, 0xe67eaaffU, 0xcf0821bcU, 0xe8e6ef15U,
 810:..\kronos-c-sdk\src\wolfSSL\wolfcrypt\src/aes.c ****     0x9bd9bae7U, 0x36ce4a6fU, 0x09d4ea9fU, 0x7cd629b0U,
 811:..\kronos-c-sdk\src\wolfSSL\wolfcrypt\src/aes.c ****     0xb2af31a4U, 0x23312a3fU, 0x9430c6a5U, 0x66c035a2U,
 812:..\kronos-c-sdk\src\wolfSSL\wolfcrypt\src/aes.c ****     0xbc37744eU, 0xcaa6fc82U, 0xd0b0e090U, 0xd81533a7U,
 813:..\kronos-c-sdk\src\wolfSSL\wolfcrypt\src/aes.c ****     0x984af104U, 0xdaf741ecU, 0x500e7fcdU, 0xf62f1791U,
 814:..\kronos-c-sdk\src\wolfSSL\wolfcrypt\src/aes.c ****     0xd68d764dU, 0xb04d43efU, 0x4d54ccaaU, 0x04dfe496U,
 815:..\kronos-c-sdk\src\wolfSSL\wolfcrypt\src/aes.c ****     0xb5e39ed1U, 0x881b4c6aU, 0x1fb8c12cU, 0x517f4665U,
 816:..\kronos-c-sdk\src\wolfSSL\wolfcrypt\src/aes.c ****     0xea049d5eU, 0x355d018cU, 0x7473fa87U, 0x412efb0bU,
 817:..\kronos-c-sdk\src\wolfSSL\wolfcrypt\src/aes.c ****     0x1d5ab367U, 0xd25292dbU, 0x5633e910U, 0x47136dd6U,
 818:..\kronos-c-sdk\src\wolfSSL\wolfcrypt\src/aes.c ****     0x618c9ad7U, 0x0c7a37a1U, 0x148e59f8U, 0x3c89eb13U,
 819:..\kronos-c-sdk\src\wolfSSL\wolfcrypt\src/aes.c ****     0x27eecea9U, 0xc935b761U, 0xe5ede11cU, 0xb13c7a47U,
 820:..\kronos-c-sdk\src\wolfSSL\wolfcrypt\src/aes.c ****     0xdf599cd2U, 0x733f55f2U, 0xce791814U, 0x37bf73c7U,
 821:..\kronos-c-sdk\src\wolfSSL\wolfcrypt\src/aes.c ****     0xcdea53f7U, 0xaa5b5ffdU, 0x6f14df3dU, 0xdb867844U,
 822:..\kronos-c-sdk\src\wolfSSL\wolfcrypt\src/aes.c ****     0xf381caafU, 0xc43eb968U, 0x342c3824U, 0x405fc2a3U,
 823:..\kronos-c-sdk\src\wolfSSL\wolfcrypt\src/aes.c ****     0xc372161dU, 0x250cbce2U, 0x498b283cU, 0x9541ff0dU,
 824:..\kronos-c-sdk\src\wolfSSL\wolfcrypt\src/aes.c ****     0x017139a8U, 0xb3de080cU, 0xe49cd8b4U, 0xc1906456U,
 825:..\kronos-c-sdk\src\wolfSSL\wolfcrypt\src/aes.c ****     0x84617bcbU, 0xb670d532U, 0x5c74486cU, 0x5742d0b8U,
 826:..\kronos-c-sdk\src\wolfSSL\wolfcrypt\src/aes.c **** },
 827:..\kronos-c-sdk\src\wolfSSL\wolfcrypt\src/aes.c **** {
 828:..\kronos-c-sdk\src\wolfSSL\wolfcrypt\src/aes.c ****     0xf4a75051U, 0x4165537eU, 0x17a4c31aU, 0x275e963aU,
 829:..\kronos-c-sdk\src\wolfSSL\wolfcrypt\src/aes.c ****     0xab6bcb3bU, 0x9d45f11fU, 0xfa58abacU, 0xe303934bU,
 830:..\kronos-c-sdk\src\wolfSSL\wolfcrypt\src/aes.c ****     0x30fa5520U, 0x766df6adU, 0xcc769188U, 0x024c25f5U,
 831:..\kronos-c-sdk\src\wolfSSL\wolfcrypt\src/aes.c ****     0xe5d7fc4fU, 0x2acbd7c5U, 0x35448026U, 0x62a38fb5U,
ARM GAS  C:\Users\ddemidov\AppData\Local\Temp\ccTwWFqA.s 			page 16


 832:..\kronos-c-sdk\src\wolfSSL\wolfcrypt\src/aes.c ****     0xb15a49deU, 0xba1b6725U, 0xea0e9845U, 0xfec0e15dU,
 833:..\kronos-c-sdk\src\wolfSSL\wolfcrypt\src/aes.c ****     0x2f7502c3U, 0x4cf01281U, 0x4697a38dU, 0xd3f9c66bU,
 834:..\kronos-c-sdk\src\wolfSSL\wolfcrypt\src/aes.c ****     0x8f5fe703U, 0x929c9515U, 0x6d7aebbfU, 0x5259da95U,
 835:..\kronos-c-sdk\src\wolfSSL\wolfcrypt\src/aes.c ****     0xbe832dd4U, 0x7421d358U, 0xe0692949U, 0xc9c8448eU,
 836:..\kronos-c-sdk\src\wolfSSL\wolfcrypt\src/aes.c ****     0xc2896a75U, 0x8e7978f4U, 0x583e6b99U, 0xb971dd27U,
 837:..\kronos-c-sdk\src\wolfSSL\wolfcrypt\src/aes.c ****     0xe14fb6beU, 0x88ad17f0U, 0x20ac66c9U, 0xce3ab47dU,
 838:..\kronos-c-sdk\src\wolfSSL\wolfcrypt\src/aes.c ****     0xdf4a1863U, 0x1a3182e5U, 0x51336097U, 0x537f4562U,
 839:..\kronos-c-sdk\src\wolfSSL\wolfcrypt\src/aes.c ****     0x6477e0b1U, 0x6bae84bbU, 0x81a01cfeU, 0x082b94f9U,
 840:..\kronos-c-sdk\src\wolfSSL\wolfcrypt\src/aes.c ****     0x48685870U, 0x45fd198fU, 0xde6c8794U, 0x7bf8b752U,
 841:..\kronos-c-sdk\src\wolfSSL\wolfcrypt\src/aes.c ****     0x73d323abU, 0x4b02e272U, 0x1f8f57e3U, 0x55ab2a66U,
 842:..\kronos-c-sdk\src\wolfSSL\wolfcrypt\src/aes.c ****     0xeb2807b2U, 0xb5c2032fU, 0xc57b9a86U, 0x3708a5d3U,
 843:..\kronos-c-sdk\src\wolfSSL\wolfcrypt\src/aes.c ****     0x2887f230U, 0xbfa5b223U, 0x036aba02U, 0x16825cedU,
 844:..\kronos-c-sdk\src\wolfSSL\wolfcrypt\src/aes.c ****     0xcf1c2b8aU, 0x79b492a7U, 0x07f2f0f3U, 0x69e2a14eU,
 845:..\kronos-c-sdk\src\wolfSSL\wolfcrypt\src/aes.c ****     0xdaf4cd65U, 0x05bed506U, 0x34621fd1U, 0xa6fe8ac4U,
 846:..\kronos-c-sdk\src\wolfSSL\wolfcrypt\src/aes.c ****     0x2e539d34U, 0xf355a0a2U, 0x8ae13205U, 0xf6eb75a4U,
 847:..\kronos-c-sdk\src\wolfSSL\wolfcrypt\src/aes.c ****     0x83ec390bU, 0x60efaa40U, 0x719f065eU, 0x6e1051bdU,
 848:..\kronos-c-sdk\src\wolfSSL\wolfcrypt\src/aes.c ****     0x218af93eU, 0xdd063d96U, 0x3e05aeddU, 0xe6bd464dU,
 849:..\kronos-c-sdk\src\wolfSSL\wolfcrypt\src/aes.c ****     0x548db591U, 0xc45d0571U, 0x06d46f04U, 0x5015ff60U,
 850:..\kronos-c-sdk\src\wolfSSL\wolfcrypt\src/aes.c ****     0x98fb2419U, 0xbde997d6U, 0x4043cc89U, 0xd99e7767U,
 851:..\kronos-c-sdk\src\wolfSSL\wolfcrypt\src/aes.c ****     0xe842bdb0U, 0x898b8807U, 0x195b38e7U, 0xc8eedb79U,
 852:..\kronos-c-sdk\src\wolfSSL\wolfcrypt\src/aes.c ****     0x7c0a47a1U, 0x420fe97cU, 0x841ec9f8U, 0x00000000U,
 853:..\kronos-c-sdk\src\wolfSSL\wolfcrypt\src/aes.c ****     0x80868309U, 0x2bed4832U, 0x1170ac1eU, 0x5a724e6cU,
 854:..\kronos-c-sdk\src\wolfSSL\wolfcrypt\src/aes.c ****     0x0efffbfdU, 0x8538560fU, 0xaed51e3dU, 0x2d392736U,
 855:..\kronos-c-sdk\src\wolfSSL\wolfcrypt\src/aes.c ****     0x0fd9640aU, 0x5ca62168U, 0x5b54d19bU, 0x362e3a24U,
 856:..\kronos-c-sdk\src\wolfSSL\wolfcrypt\src/aes.c ****     0x0a67b10cU, 0x57e70f93U, 0xee96d2b4U, 0x9b919e1bU,
 857:..\kronos-c-sdk\src\wolfSSL\wolfcrypt\src/aes.c ****     0xc0c54f80U, 0xdc20a261U, 0x774b695aU, 0x121a161cU,
 858:..\kronos-c-sdk\src\wolfSSL\wolfcrypt\src/aes.c ****     0x93ba0ae2U, 0xa02ae5c0U, 0x22e0433cU, 0x1b171d12U,
 859:..\kronos-c-sdk\src\wolfSSL\wolfcrypt\src/aes.c ****     0x090d0b0eU, 0x8bc7adf2U, 0xb6a8b92dU, 0x1ea9c814U,
 860:..\kronos-c-sdk\src\wolfSSL\wolfcrypt\src/aes.c ****     0xf1198557U, 0x75074cafU, 0x99ddbbeeU, 0x7f60fda3U,
 861:..\kronos-c-sdk\src\wolfSSL\wolfcrypt\src/aes.c ****     0x01269ff7U, 0x72f5bc5cU, 0x663bc544U, 0xfb7e345bU,
 862:..\kronos-c-sdk\src\wolfSSL\wolfcrypt\src/aes.c ****     0x4329768bU, 0x23c6dccbU, 0xedfc68b6U, 0xe4f163b8U,
 863:..\kronos-c-sdk\src\wolfSSL\wolfcrypt\src/aes.c ****     0x31dccad7U, 0x63851042U, 0x97224013U, 0xc6112084U,
 864:..\kronos-c-sdk\src\wolfSSL\wolfcrypt\src/aes.c ****     0x4a247d85U, 0xbb3df8d2U, 0xf93211aeU, 0x29a16dc7U,
 865:..\kronos-c-sdk\src\wolfSSL\wolfcrypt\src/aes.c ****     0x9e2f4b1dU, 0xb230f3dcU, 0x8652ec0dU, 0xc1e3d077U,
 866:..\kronos-c-sdk\src\wolfSSL\wolfcrypt\src/aes.c ****     0xb3166c2bU, 0x70b999a9U, 0x9448fa11U, 0xe9642247U,
 867:..\kronos-c-sdk\src\wolfSSL\wolfcrypt\src/aes.c ****     0xfc8cc4a8U, 0xf03f1aa0U, 0x7d2cd856U, 0x3390ef22U,
 868:..\kronos-c-sdk\src\wolfSSL\wolfcrypt\src/aes.c ****     0x494ec787U, 0x38d1c1d9U, 0xcaa2fe8cU, 0xd40b3698U,
 869:..\kronos-c-sdk\src\wolfSSL\wolfcrypt\src/aes.c ****     0xf581cfa6U, 0x7ade28a5U, 0xb78e26daU, 0xadbfa43fU,
 870:..\kronos-c-sdk\src\wolfSSL\wolfcrypt\src/aes.c ****     0x3a9de42cU, 0x78920d50U, 0x5fcc9b6aU, 0x7e466254U,
 871:..\kronos-c-sdk\src\wolfSSL\wolfcrypt\src/aes.c ****     0x8d13c2f6U, 0xd8b8e890U, 0x39f75e2eU, 0xc3aff582U,
 872:..\kronos-c-sdk\src\wolfSSL\wolfcrypt\src/aes.c ****     0x5d80be9fU, 0xd0937c69U, 0xd52da96fU, 0x2512b3cfU,
 873:..\kronos-c-sdk\src\wolfSSL\wolfcrypt\src/aes.c ****     0xac993bc8U, 0x187da710U, 0x9c636ee8U, 0x3bbb7bdbU,
 874:..\kronos-c-sdk\src\wolfSSL\wolfcrypt\src/aes.c ****     0x267809cdU, 0x5918f46eU, 0x9ab701ecU, 0x4f9aa883U,
 875:..\kronos-c-sdk\src\wolfSSL\wolfcrypt\src/aes.c ****     0x956e65e6U, 0xffe67eaaU, 0xbccf0821U, 0x15e8e6efU,
 876:..\kronos-c-sdk\src\wolfSSL\wolfcrypt\src/aes.c ****     0xe79bd9baU, 0x6f36ce4aU, 0x9f09d4eaU, 0xb07cd629U,
 877:..\kronos-c-sdk\src\wolfSSL\wolfcrypt\src/aes.c ****     0xa4b2af31U, 0x3f23312aU, 0xa59430c6U, 0xa266c035U,
 878:..\kronos-c-sdk\src\wolfSSL\wolfcrypt\src/aes.c ****     0x4ebc3774U, 0x82caa6fcU, 0x90d0b0e0U, 0xa7d81533U,
 879:..\kronos-c-sdk\src\wolfSSL\wolfcrypt\src/aes.c ****     0x04984af1U, 0xecdaf741U, 0xcd500e7fU, 0x91f62f17U,
 880:..\kronos-c-sdk\src\wolfSSL\wolfcrypt\src/aes.c ****     0x4dd68d76U, 0xefb04d43U, 0xaa4d54ccU, 0x9604dfe4U,
 881:..\kronos-c-sdk\src\wolfSSL\wolfcrypt\src/aes.c ****     0xd1b5e39eU, 0x6a881b4cU, 0x2c1fb8c1U, 0x65517f46U,
 882:..\kronos-c-sdk\src\wolfSSL\wolfcrypt\src/aes.c ****     0x5eea049dU, 0x8c355d01U, 0x877473faU, 0x0b412efbU,
 883:..\kronos-c-sdk\src\wolfSSL\wolfcrypt\src/aes.c ****     0x671d5ab3U, 0xdbd25292U, 0x105633e9U, 0xd647136dU,
 884:..\kronos-c-sdk\src\wolfSSL\wolfcrypt\src/aes.c ****     0xd7618c9aU, 0xa10c7a37U, 0xf8148e59U, 0x133c89ebU,
 885:..\kronos-c-sdk\src\wolfSSL\wolfcrypt\src/aes.c ****     0xa927eeceU, 0x61c935b7U, 0x1ce5ede1U, 0x47b13c7aU,
 886:..\kronos-c-sdk\src\wolfSSL\wolfcrypt\src/aes.c ****     0xd2df599cU, 0xf2733f55U, 0x14ce7918U, 0xc737bf73U,
 887:..\kronos-c-sdk\src\wolfSSL\wolfcrypt\src/aes.c ****     0xf7cdea53U, 0xfdaa5b5fU, 0x3d6f14dfU, 0x44db8678U,
 888:..\kronos-c-sdk\src\wolfSSL\wolfcrypt\src/aes.c ****     0xaff381caU, 0x68c43eb9U, 0x24342c38U, 0xa3405fc2U,
ARM GAS  C:\Users\ddemidov\AppData\Local\Temp\ccTwWFqA.s 			page 17


 889:..\kronos-c-sdk\src\wolfSSL\wolfcrypt\src/aes.c ****     0x1dc37216U, 0xe2250cbcU, 0x3c498b28U, 0x0d9541ffU,
 890:..\kronos-c-sdk\src\wolfSSL\wolfcrypt\src/aes.c ****     0xa8017139U, 0x0cb3de08U, 0xb4e49cd8U, 0x56c19064U,
 891:..\kronos-c-sdk\src\wolfSSL\wolfcrypt\src/aes.c ****     0xcb84617bU, 0x32b670d5U, 0x6c5c7448U, 0xb85742d0U,
 892:..\kronos-c-sdk\src\wolfSSL\wolfcrypt\src/aes.c **** },
 893:..\kronos-c-sdk\src\wolfSSL\wolfcrypt\src/aes.c **** {
 894:..\kronos-c-sdk\src\wolfSSL\wolfcrypt\src/aes.c ****     0x52525252U, 0x09090909U, 0x6a6a6a6aU, 0xd5d5d5d5U,
 895:..\kronos-c-sdk\src\wolfSSL\wolfcrypt\src/aes.c ****     0x30303030U, 0x36363636U, 0xa5a5a5a5U, 0x38383838U,
 896:..\kronos-c-sdk\src\wolfSSL\wolfcrypt\src/aes.c ****     0xbfbfbfbfU, 0x40404040U, 0xa3a3a3a3U, 0x9e9e9e9eU,
 897:..\kronos-c-sdk\src\wolfSSL\wolfcrypt\src/aes.c ****     0x81818181U, 0xf3f3f3f3U, 0xd7d7d7d7U, 0xfbfbfbfbU,
 898:..\kronos-c-sdk\src\wolfSSL\wolfcrypt\src/aes.c ****     0x7c7c7c7cU, 0xe3e3e3e3U, 0x39393939U, 0x82828282U,
 899:..\kronos-c-sdk\src\wolfSSL\wolfcrypt\src/aes.c ****     0x9b9b9b9bU, 0x2f2f2f2fU, 0xffffffffU, 0x87878787U,
 900:..\kronos-c-sdk\src\wolfSSL\wolfcrypt\src/aes.c ****     0x34343434U, 0x8e8e8e8eU, 0x43434343U, 0x44444444U,
 901:..\kronos-c-sdk\src\wolfSSL\wolfcrypt\src/aes.c ****     0xc4c4c4c4U, 0xdedededeU, 0xe9e9e9e9U, 0xcbcbcbcbU,
 902:..\kronos-c-sdk\src\wolfSSL\wolfcrypt\src/aes.c ****     0x54545454U, 0x7b7b7b7bU, 0x94949494U, 0x32323232U,
 903:..\kronos-c-sdk\src\wolfSSL\wolfcrypt\src/aes.c ****     0xa6a6a6a6U, 0xc2c2c2c2U, 0x23232323U, 0x3d3d3d3dU,
 904:..\kronos-c-sdk\src\wolfSSL\wolfcrypt\src/aes.c ****     0xeeeeeeeeU, 0x4c4c4c4cU, 0x95959595U, 0x0b0b0b0bU,
 905:..\kronos-c-sdk\src\wolfSSL\wolfcrypt\src/aes.c ****     0x42424242U, 0xfafafafaU, 0xc3c3c3c3U, 0x4e4e4e4eU,
 906:..\kronos-c-sdk\src\wolfSSL\wolfcrypt\src/aes.c ****     0x08080808U, 0x2e2e2e2eU, 0xa1a1a1a1U, 0x66666666U,
 907:..\kronos-c-sdk\src\wolfSSL\wolfcrypt\src/aes.c ****     0x28282828U, 0xd9d9d9d9U, 0x24242424U, 0xb2b2b2b2U,
 908:..\kronos-c-sdk\src\wolfSSL\wolfcrypt\src/aes.c ****     0x76767676U, 0x5b5b5b5bU, 0xa2a2a2a2U, 0x49494949U,
 909:..\kronos-c-sdk\src\wolfSSL\wolfcrypt\src/aes.c ****     0x6d6d6d6dU, 0x8b8b8b8bU, 0xd1d1d1d1U, 0x25252525U,
 910:..\kronos-c-sdk\src\wolfSSL\wolfcrypt\src/aes.c ****     0x72727272U, 0xf8f8f8f8U, 0xf6f6f6f6U, 0x64646464U,
 911:..\kronos-c-sdk\src\wolfSSL\wolfcrypt\src/aes.c ****     0x86868686U, 0x68686868U, 0x98989898U, 0x16161616U,
 912:..\kronos-c-sdk\src\wolfSSL\wolfcrypt\src/aes.c ****     0xd4d4d4d4U, 0xa4a4a4a4U, 0x5c5c5c5cU, 0xccccccccU,
 913:..\kronos-c-sdk\src\wolfSSL\wolfcrypt\src/aes.c ****     0x5d5d5d5dU, 0x65656565U, 0xb6b6b6b6U, 0x92929292U,
 914:..\kronos-c-sdk\src\wolfSSL\wolfcrypt\src/aes.c ****     0x6c6c6c6cU, 0x70707070U, 0x48484848U, 0x50505050U,
 915:..\kronos-c-sdk\src\wolfSSL\wolfcrypt\src/aes.c ****     0xfdfdfdfdU, 0xededededU, 0xb9b9b9b9U, 0xdadadadaU,
 916:..\kronos-c-sdk\src\wolfSSL\wolfcrypt\src/aes.c ****     0x5e5e5e5eU, 0x15151515U, 0x46464646U, 0x57575757U,
 917:..\kronos-c-sdk\src\wolfSSL\wolfcrypt\src/aes.c ****     0xa7a7a7a7U, 0x8d8d8d8dU, 0x9d9d9d9dU, 0x84848484U,
 918:..\kronos-c-sdk\src\wolfSSL\wolfcrypt\src/aes.c ****     0x90909090U, 0xd8d8d8d8U, 0xababababU, 0x00000000U,
 919:..\kronos-c-sdk\src\wolfSSL\wolfcrypt\src/aes.c ****     0x8c8c8c8cU, 0xbcbcbcbcU, 0xd3d3d3d3U, 0x0a0a0a0aU,
 920:..\kronos-c-sdk\src\wolfSSL\wolfcrypt\src/aes.c ****     0xf7f7f7f7U, 0xe4e4e4e4U, 0x58585858U, 0x05050505U,
 921:..\kronos-c-sdk\src\wolfSSL\wolfcrypt\src/aes.c ****     0xb8b8b8b8U, 0xb3b3b3b3U, 0x45454545U, 0x06060606U,
 922:..\kronos-c-sdk\src\wolfSSL\wolfcrypt\src/aes.c ****     0xd0d0d0d0U, 0x2c2c2c2cU, 0x1e1e1e1eU, 0x8f8f8f8fU,
 923:..\kronos-c-sdk\src\wolfSSL\wolfcrypt\src/aes.c ****     0xcacacacaU, 0x3f3f3f3fU, 0x0f0f0f0fU, 0x02020202U,
 924:..\kronos-c-sdk\src\wolfSSL\wolfcrypt\src/aes.c ****     0xc1c1c1c1U, 0xafafafafU, 0xbdbdbdbdU, 0x03030303U,
 925:..\kronos-c-sdk\src\wolfSSL\wolfcrypt\src/aes.c ****     0x01010101U, 0x13131313U, 0x8a8a8a8aU, 0x6b6b6b6bU,
 926:..\kronos-c-sdk\src\wolfSSL\wolfcrypt\src/aes.c ****     0x3a3a3a3aU, 0x91919191U, 0x11111111U, 0x41414141U,
 927:..\kronos-c-sdk\src\wolfSSL\wolfcrypt\src/aes.c ****     0x4f4f4f4fU, 0x67676767U, 0xdcdcdcdcU, 0xeaeaeaeaU,
 928:..\kronos-c-sdk\src\wolfSSL\wolfcrypt\src/aes.c ****     0x97979797U, 0xf2f2f2f2U, 0xcfcfcfcfU, 0xcecececeU,
 929:..\kronos-c-sdk\src\wolfSSL\wolfcrypt\src/aes.c ****     0xf0f0f0f0U, 0xb4b4b4b4U, 0xe6e6e6e6U, 0x73737373U,
 930:..\kronos-c-sdk\src\wolfSSL\wolfcrypt\src/aes.c ****     0x96969696U, 0xacacacacU, 0x74747474U, 0x22222222U,
 931:..\kronos-c-sdk\src\wolfSSL\wolfcrypt\src/aes.c ****     0xe7e7e7e7U, 0xadadadadU, 0x35353535U, 0x85858585U,
 932:..\kronos-c-sdk\src\wolfSSL\wolfcrypt\src/aes.c ****     0xe2e2e2e2U, 0xf9f9f9f9U, 0x37373737U, 0xe8e8e8e8U,
 933:..\kronos-c-sdk\src\wolfSSL\wolfcrypt\src/aes.c ****     0x1c1c1c1cU, 0x75757575U, 0xdfdfdfdfU, 0x6e6e6e6eU,
 934:..\kronos-c-sdk\src\wolfSSL\wolfcrypt\src/aes.c ****     0x47474747U, 0xf1f1f1f1U, 0x1a1a1a1aU, 0x71717171U,
 935:..\kronos-c-sdk\src\wolfSSL\wolfcrypt\src/aes.c ****     0x1d1d1d1dU, 0x29292929U, 0xc5c5c5c5U, 0x89898989U,
 936:..\kronos-c-sdk\src\wolfSSL\wolfcrypt\src/aes.c ****     0x6f6f6f6fU, 0xb7b7b7b7U, 0x62626262U, 0x0e0e0e0eU,
 937:..\kronos-c-sdk\src\wolfSSL\wolfcrypt\src/aes.c ****     0xaaaaaaaaU, 0x18181818U, 0xbebebebeU, 0x1b1b1b1bU,
 938:..\kronos-c-sdk\src\wolfSSL\wolfcrypt\src/aes.c ****     0xfcfcfcfcU, 0x56565656U, 0x3e3e3e3eU, 0x4b4b4b4bU,
 939:..\kronos-c-sdk\src\wolfSSL\wolfcrypt\src/aes.c ****     0xc6c6c6c6U, 0xd2d2d2d2U, 0x79797979U, 0x20202020U,
 940:..\kronos-c-sdk\src\wolfSSL\wolfcrypt\src/aes.c ****     0x9a9a9a9aU, 0xdbdbdbdbU, 0xc0c0c0c0U, 0xfefefefeU,
 941:..\kronos-c-sdk\src\wolfSSL\wolfcrypt\src/aes.c ****     0x78787878U, 0xcdcdcdcdU, 0x5a5a5a5aU, 0xf4f4f4f4U,
 942:..\kronos-c-sdk\src\wolfSSL\wolfcrypt\src/aes.c ****     0x1f1f1f1fU, 0xddddddddU, 0xa8a8a8a8U, 0x33333333U,
 943:..\kronos-c-sdk\src\wolfSSL\wolfcrypt\src/aes.c ****     0x88888888U, 0x07070707U, 0xc7c7c7c7U, 0x31313131U,
 944:..\kronos-c-sdk\src\wolfSSL\wolfcrypt\src/aes.c ****     0xb1b1b1b1U, 0x12121212U, 0x10101010U, 0x59595959U,
 945:..\kronos-c-sdk\src\wolfSSL\wolfcrypt\src/aes.c ****     0x27272727U, 0x80808080U, 0xececececU, 0x5f5f5f5fU,
ARM GAS  C:\Users\ddemidov\AppData\Local\Temp\ccTwWFqA.s 			page 18


 946:..\kronos-c-sdk\src\wolfSSL\wolfcrypt\src/aes.c ****     0x60606060U, 0x51515151U, 0x7f7f7f7fU, 0xa9a9a9a9U,
 947:..\kronos-c-sdk\src\wolfSSL\wolfcrypt\src/aes.c ****     0x19191919U, 0xb5b5b5b5U, 0x4a4a4a4aU, 0x0d0d0d0dU,
 948:..\kronos-c-sdk\src\wolfSSL\wolfcrypt\src/aes.c ****     0x2d2d2d2dU, 0xe5e5e5e5U, 0x7a7a7a7aU, 0x9f9f9f9fU,
 949:..\kronos-c-sdk\src\wolfSSL\wolfcrypt\src/aes.c ****     0x93939393U, 0xc9c9c9c9U, 0x9c9c9c9cU, 0xefefefefU,
 950:..\kronos-c-sdk\src\wolfSSL\wolfcrypt\src/aes.c ****     0xa0a0a0a0U, 0xe0e0e0e0U, 0x3b3b3b3bU, 0x4d4d4d4dU,
 951:..\kronos-c-sdk\src\wolfSSL\wolfcrypt\src/aes.c ****     0xaeaeaeaeU, 0x2a2a2a2aU, 0xf5f5f5f5U, 0xb0b0b0b0U,
 952:..\kronos-c-sdk\src\wolfSSL\wolfcrypt\src/aes.c ****     0xc8c8c8c8U, 0xebebebebU, 0xbbbbbbbbU, 0x3c3c3c3cU,
 953:..\kronos-c-sdk\src\wolfSSL\wolfcrypt\src/aes.c ****     0x83838383U, 0x53535353U, 0x99999999U, 0x61616161U,
 954:..\kronos-c-sdk\src\wolfSSL\wolfcrypt\src/aes.c ****     0x17171717U, 0x2b2b2b2bU, 0x04040404U, 0x7e7e7e7eU,
 955:..\kronos-c-sdk\src\wolfSSL\wolfcrypt\src/aes.c ****     0xbabababaU, 0x77777777U, 0xd6d6d6d6U, 0x26262626U,
 956:..\kronos-c-sdk\src\wolfSSL\wolfcrypt\src/aes.c ****     0xe1e1e1e1U, 0x69696969U, 0x14141414U, 0x63636363U,
 957:..\kronos-c-sdk\src\wolfSSL\wolfcrypt\src/aes.c ****     0x55555555U, 0x21212121U, 0x0c0c0c0cU, 0x7d7d7d7dU,
 958:..\kronos-c-sdk\src\wolfSSL\wolfcrypt\src/aes.c **** }
 959:..\kronos-c-sdk\src\wolfSSL\wolfcrypt\src/aes.c **** };
 960:..\kronos-c-sdk\src\wolfSSL\wolfcrypt\src/aes.c **** 
 961:..\kronos-c-sdk\src\wolfSSL\wolfcrypt\src/aes.c **** #define GETBYTE(x, y) (word32)((byte)((x) >> (8 * (y))))
 962:..\kronos-c-sdk\src\wolfSSL\wolfcrypt\src/aes.c **** 
 963:..\kronos-c-sdk\src\wolfSSL\wolfcrypt\src/aes.c **** 
 964:..\kronos-c-sdk\src\wolfSSL\wolfcrypt\src/aes.c **** #ifdef WOLFSSL_AESNI
 965:..\kronos-c-sdk\src\wolfSSL\wolfcrypt\src/aes.c **** 
 966:..\kronos-c-sdk\src\wolfSSL\wolfcrypt\src/aes.c **** /* Each platform needs to query info type 1 from cpuid to see if aesni is
 967:..\kronos-c-sdk\src\wolfSSL\wolfcrypt\src/aes.c ****  * supported. Also, let's setup a macro for proper linkage w/o ABI conflicts
 968:..\kronos-c-sdk\src\wolfSSL\wolfcrypt\src/aes.c ****  */
 969:..\kronos-c-sdk\src\wolfSSL\wolfcrypt\src/aes.c **** 
 970:..\kronos-c-sdk\src\wolfSSL\wolfcrypt\src/aes.c **** #ifndef _MSC_VER
 971:..\kronos-c-sdk\src\wolfSSL\wolfcrypt\src/aes.c **** 
 972:..\kronos-c-sdk\src\wolfSSL\wolfcrypt\src/aes.c ****     #define cpuid(reg, func)\
 973:..\kronos-c-sdk\src\wolfSSL\wolfcrypt\src/aes.c ****         __asm__ __volatile__ ("cpuid":\
 974:..\kronos-c-sdk\src\wolfSSL\wolfcrypt\src/aes.c ****              "=a" (reg[0]), "=b" (reg[1]), "=c" (reg[2]), "=d" (reg[3]) :\
 975:..\kronos-c-sdk\src\wolfSSL\wolfcrypt\src/aes.c ****              "a" (func));
 976:..\kronos-c-sdk\src\wolfSSL\wolfcrypt\src/aes.c **** 
 977:..\kronos-c-sdk\src\wolfSSL\wolfcrypt\src/aes.c ****     #define XASM_LINK(f) asm(f)
 978:..\kronos-c-sdk\src\wolfSSL\wolfcrypt\src/aes.c **** #else
 979:..\kronos-c-sdk\src\wolfSSL\wolfcrypt\src/aes.c **** 
 980:..\kronos-c-sdk\src\wolfSSL\wolfcrypt\src/aes.c ****     #include <intrin.h>
 981:..\kronos-c-sdk\src\wolfSSL\wolfcrypt\src/aes.c ****     #define cpuid(a,b) __cpuid((int*)a,b)
 982:..\kronos-c-sdk\src\wolfSSL\wolfcrypt\src/aes.c **** 
 983:..\kronos-c-sdk\src\wolfSSL\wolfcrypt\src/aes.c ****     #define XASM_LINK(f)
 984:..\kronos-c-sdk\src\wolfSSL\wolfcrypt\src/aes.c **** 
 985:..\kronos-c-sdk\src\wolfSSL\wolfcrypt\src/aes.c **** #endif /* _MSC_VER */
 986:..\kronos-c-sdk\src\wolfSSL\wolfcrypt\src/aes.c **** 
 987:..\kronos-c-sdk\src\wolfSSL\wolfcrypt\src/aes.c **** 
 988:..\kronos-c-sdk\src\wolfSSL\wolfcrypt\src/aes.c **** static int Check_CPU_support_AES(void)
 989:..\kronos-c-sdk\src\wolfSSL\wolfcrypt\src/aes.c **** {
 990:..\kronos-c-sdk\src\wolfSSL\wolfcrypt\src/aes.c ****     unsigned int reg[4];  /* put a,b,c,d into 0,1,2,3 */
 991:..\kronos-c-sdk\src\wolfSSL\wolfcrypt\src/aes.c ****     cpuid(reg, 1);        /* query info 1 */
 992:..\kronos-c-sdk\src\wolfSSL\wolfcrypt\src/aes.c **** 
 993:..\kronos-c-sdk\src\wolfSSL\wolfcrypt\src/aes.c ****     if (reg[2] & 0x2000000)
 994:..\kronos-c-sdk\src\wolfSSL\wolfcrypt\src/aes.c ****         return 1;
 995:..\kronos-c-sdk\src\wolfSSL\wolfcrypt\src/aes.c **** 
 996:..\kronos-c-sdk\src\wolfSSL\wolfcrypt\src/aes.c ****     return 0;
 997:..\kronos-c-sdk\src\wolfSSL\wolfcrypt\src/aes.c **** }
 998:..\kronos-c-sdk\src\wolfSSL\wolfcrypt\src/aes.c **** 
 999:..\kronos-c-sdk\src\wolfSSL\wolfcrypt\src/aes.c **** static int checkAESNI = 0;
1000:..\kronos-c-sdk\src\wolfSSL\wolfcrypt\src/aes.c **** static int haveAESNI  = 0;
1001:..\kronos-c-sdk\src\wolfSSL\wolfcrypt\src/aes.c **** 
1002:..\kronos-c-sdk\src\wolfSSL\wolfcrypt\src/aes.c **** 
ARM GAS  C:\Users\ddemidov\AppData\Local\Temp\ccTwWFqA.s 			page 19


1003:..\kronos-c-sdk\src\wolfSSL\wolfcrypt\src/aes.c **** /* tell C compiler these are asm functions in case any mix up of ABI underscore
1004:..\kronos-c-sdk\src\wolfSSL\wolfcrypt\src/aes.c ****    prefix between clang/gcc/llvm etc */
1005:..\kronos-c-sdk\src\wolfSSL\wolfcrypt\src/aes.c **** #ifdef HAVE_AES_CBC
1006:..\kronos-c-sdk\src\wolfSSL\wolfcrypt\src/aes.c **** void AES_CBC_encrypt(const unsigned char* in, unsigned char* out,
1007:..\kronos-c-sdk\src\wolfSSL\wolfcrypt\src/aes.c ****                      unsigned char* ivec, unsigned long length,
1008:..\kronos-c-sdk\src\wolfSSL\wolfcrypt\src/aes.c ****                      const unsigned char* KS, int nr)
1009:..\kronos-c-sdk\src\wolfSSL\wolfcrypt\src/aes.c ****                      XASM_LINK("AES_CBC_encrypt");
1010:..\kronos-c-sdk\src\wolfSSL\wolfcrypt\src/aes.c **** 
1011:..\kronos-c-sdk\src\wolfSSL\wolfcrypt\src/aes.c **** #ifdef HAVE_AES_DECRYPT
1012:..\kronos-c-sdk\src\wolfSSL\wolfcrypt\src/aes.c **** void AES_CBC_decrypt(const unsigned char* in, unsigned char* out,
1013:..\kronos-c-sdk\src\wolfSSL\wolfcrypt\src/aes.c ****                      unsigned char* ivec, unsigned long length,
1014:..\kronos-c-sdk\src\wolfSSL\wolfcrypt\src/aes.c ****                      const unsigned char* KS, int nr)
1015:..\kronos-c-sdk\src\wolfSSL\wolfcrypt\src/aes.c ****                      XASM_LINK("AES_CBC_decrypt");
1016:..\kronos-c-sdk\src\wolfSSL\wolfcrypt\src/aes.c **** #endif /* HAVE_AES_DECRYPT */
1017:..\kronos-c-sdk\src\wolfSSL\wolfcrypt\src/aes.c **** #endif /* HAVE_AES_CBC */
1018:..\kronos-c-sdk\src\wolfSSL\wolfcrypt\src/aes.c ****                      
1019:..\kronos-c-sdk\src\wolfSSL\wolfcrypt\src/aes.c **** void AES_ECB_encrypt(const unsigned char* in, unsigned char* out,
1020:..\kronos-c-sdk\src\wolfSSL\wolfcrypt\src/aes.c ****                      unsigned long length, const unsigned char* KS, int nr)
1021:..\kronos-c-sdk\src\wolfSSL\wolfcrypt\src/aes.c ****                      XASM_LINK("AES_ECB_encrypt");
1022:..\kronos-c-sdk\src\wolfSSL\wolfcrypt\src/aes.c **** 
1023:..\kronos-c-sdk\src\wolfSSL\wolfcrypt\src/aes.c **** #ifdef HAVE_AES_DECRYPT
1024:..\kronos-c-sdk\src\wolfSSL\wolfcrypt\src/aes.c **** void AES_ECB_decrypt(const unsigned char* in, unsigned char* out,
1025:..\kronos-c-sdk\src\wolfSSL\wolfcrypt\src/aes.c ****                      unsigned long length, const unsigned char* KS, int nr)
1026:..\kronos-c-sdk\src\wolfSSL\wolfcrypt\src/aes.c ****                      XASM_LINK("AES_ECB_decrypt");
1027:..\kronos-c-sdk\src\wolfSSL\wolfcrypt\src/aes.c **** #endif
1028:..\kronos-c-sdk\src\wolfSSL\wolfcrypt\src/aes.c **** 
1029:..\kronos-c-sdk\src\wolfSSL\wolfcrypt\src/aes.c **** void AES_128_Key_Expansion(const unsigned char* userkey,
1030:..\kronos-c-sdk\src\wolfSSL\wolfcrypt\src/aes.c ****                            unsigned char* key_schedule)
1031:..\kronos-c-sdk\src\wolfSSL\wolfcrypt\src/aes.c ****                            XASM_LINK("AES_128_Key_Expansion");
1032:..\kronos-c-sdk\src\wolfSSL\wolfcrypt\src/aes.c **** 
1033:..\kronos-c-sdk\src\wolfSSL\wolfcrypt\src/aes.c **** void AES_192_Key_Expansion(const unsigned char* userkey,
1034:..\kronos-c-sdk\src\wolfSSL\wolfcrypt\src/aes.c ****                            unsigned char* key_schedule)
1035:..\kronos-c-sdk\src\wolfSSL\wolfcrypt\src/aes.c ****                            XASM_LINK("AES_192_Key_Expansion");
1036:..\kronos-c-sdk\src\wolfSSL\wolfcrypt\src/aes.c **** 
1037:..\kronos-c-sdk\src\wolfSSL\wolfcrypt\src/aes.c **** void AES_256_Key_Expansion(const unsigned char* userkey,
1038:..\kronos-c-sdk\src\wolfSSL\wolfcrypt\src/aes.c ****                            unsigned char* key_schedule)
1039:..\kronos-c-sdk\src\wolfSSL\wolfcrypt\src/aes.c ****                            XASM_LINK("AES_256_Key_Expansion");
1040:..\kronos-c-sdk\src\wolfSSL\wolfcrypt\src/aes.c **** 
1041:..\kronos-c-sdk\src\wolfSSL\wolfcrypt\src/aes.c **** 
1042:..\kronos-c-sdk\src\wolfSSL\wolfcrypt\src/aes.c **** static int AES_set_encrypt_key(const unsigned char *userKey, const int bits,
1043:..\kronos-c-sdk\src\wolfSSL\wolfcrypt\src/aes.c ****                                Aes* aes)
1044:..\kronos-c-sdk\src\wolfSSL\wolfcrypt\src/aes.c **** {
1045:..\kronos-c-sdk\src\wolfSSL\wolfcrypt\src/aes.c ****     if (!userKey || !aes)
1046:..\kronos-c-sdk\src\wolfSSL\wolfcrypt\src/aes.c ****         return BAD_FUNC_ARG;
1047:..\kronos-c-sdk\src\wolfSSL\wolfcrypt\src/aes.c **** 
1048:..\kronos-c-sdk\src\wolfSSL\wolfcrypt\src/aes.c ****     if (bits == 128) {
1049:..\kronos-c-sdk\src\wolfSSL\wolfcrypt\src/aes.c ****        AES_128_Key_Expansion (userKey,(byte*)aes->key); aes->rounds = 10;
1050:..\kronos-c-sdk\src\wolfSSL\wolfcrypt\src/aes.c ****        return 0;
1051:..\kronos-c-sdk\src\wolfSSL\wolfcrypt\src/aes.c ****     }
1052:..\kronos-c-sdk\src\wolfSSL\wolfcrypt\src/aes.c ****     else if (bits == 192) {
1053:..\kronos-c-sdk\src\wolfSSL\wolfcrypt\src/aes.c ****        AES_192_Key_Expansion (userKey,(byte*)aes->key); aes->rounds = 12;
1054:..\kronos-c-sdk\src\wolfSSL\wolfcrypt\src/aes.c ****        return 0;
1055:..\kronos-c-sdk\src\wolfSSL\wolfcrypt\src/aes.c ****     }
1056:..\kronos-c-sdk\src\wolfSSL\wolfcrypt\src/aes.c ****     else if (bits == 256) {
1057:..\kronos-c-sdk\src\wolfSSL\wolfcrypt\src/aes.c ****        AES_256_Key_Expansion (userKey,(byte*)aes->key); aes->rounds = 14;
1058:..\kronos-c-sdk\src\wolfSSL\wolfcrypt\src/aes.c ****        return 0;
1059:..\kronos-c-sdk\src\wolfSSL\wolfcrypt\src/aes.c ****     }
ARM GAS  C:\Users\ddemidov\AppData\Local\Temp\ccTwWFqA.s 			page 20


1060:..\kronos-c-sdk\src\wolfSSL\wolfcrypt\src/aes.c ****     return BAD_FUNC_ARG;
1061:..\kronos-c-sdk\src\wolfSSL\wolfcrypt\src/aes.c **** }
1062:..\kronos-c-sdk\src\wolfSSL\wolfcrypt\src/aes.c **** 
1063:..\kronos-c-sdk\src\wolfSSL\wolfcrypt\src/aes.c **** #ifdef HAVE_AES_DECRYPT
1064:..\kronos-c-sdk\src\wolfSSL\wolfcrypt\src/aes.c **** static int AES_set_decrypt_key(const unsigned char* userKey, const int bits,
1065:..\kronos-c-sdk\src\wolfSSL\wolfcrypt\src/aes.c ****                                Aes* aes)
1066:..\kronos-c-sdk\src\wolfSSL\wolfcrypt\src/aes.c **** {
1067:..\kronos-c-sdk\src\wolfSSL\wolfcrypt\src/aes.c ****     int nr;
1068:..\kronos-c-sdk\src\wolfSSL\wolfcrypt\src/aes.c ****     Aes temp_key;
1069:..\kronos-c-sdk\src\wolfSSL\wolfcrypt\src/aes.c ****     __m128i *Key_Schedule = (__m128i*)aes->key;
1070:..\kronos-c-sdk\src\wolfSSL\wolfcrypt\src/aes.c ****     __m128i *Temp_Key_Schedule = (__m128i*)temp_key.key;
1071:..\kronos-c-sdk\src\wolfSSL\wolfcrypt\src/aes.c **** 
1072:..\kronos-c-sdk\src\wolfSSL\wolfcrypt\src/aes.c ****     if (!userKey || !aes)
1073:..\kronos-c-sdk\src\wolfSSL\wolfcrypt\src/aes.c ****         return BAD_FUNC_ARG;
1074:..\kronos-c-sdk\src\wolfSSL\wolfcrypt\src/aes.c **** 
1075:..\kronos-c-sdk\src\wolfSSL\wolfcrypt\src/aes.c ****     if (AES_set_encrypt_key(userKey,bits,&temp_key) == BAD_FUNC_ARG)
1076:..\kronos-c-sdk\src\wolfSSL\wolfcrypt\src/aes.c ****         return BAD_FUNC_ARG;
1077:..\kronos-c-sdk\src\wolfSSL\wolfcrypt\src/aes.c **** 
1078:..\kronos-c-sdk\src\wolfSSL\wolfcrypt\src/aes.c ****     nr = temp_key.rounds;
1079:..\kronos-c-sdk\src\wolfSSL\wolfcrypt\src/aes.c ****     aes->rounds = nr;
1080:..\kronos-c-sdk\src\wolfSSL\wolfcrypt\src/aes.c **** 
1081:..\kronos-c-sdk\src\wolfSSL\wolfcrypt\src/aes.c ****     Key_Schedule[nr] = Temp_Key_Schedule[0];
1082:..\kronos-c-sdk\src\wolfSSL\wolfcrypt\src/aes.c ****     Key_Schedule[nr-1] = _mm_aesimc_si128(Temp_Key_Schedule[1]);
1083:..\kronos-c-sdk\src\wolfSSL\wolfcrypt\src/aes.c ****     Key_Schedule[nr-2] = _mm_aesimc_si128(Temp_Key_Schedule[2]);
1084:..\kronos-c-sdk\src\wolfSSL\wolfcrypt\src/aes.c ****     Key_Schedule[nr-3] = _mm_aesimc_si128(Temp_Key_Schedule[3]);
1085:..\kronos-c-sdk\src\wolfSSL\wolfcrypt\src/aes.c ****     Key_Schedule[nr-4] = _mm_aesimc_si128(Temp_Key_Schedule[4]);
1086:..\kronos-c-sdk\src\wolfSSL\wolfcrypt\src/aes.c ****     Key_Schedule[nr-5] = _mm_aesimc_si128(Temp_Key_Schedule[5]);
1087:..\kronos-c-sdk\src\wolfSSL\wolfcrypt\src/aes.c ****     Key_Schedule[nr-6] = _mm_aesimc_si128(Temp_Key_Schedule[6]);
1088:..\kronos-c-sdk\src\wolfSSL\wolfcrypt\src/aes.c ****     Key_Schedule[nr-7] = _mm_aesimc_si128(Temp_Key_Schedule[7]);
1089:..\kronos-c-sdk\src\wolfSSL\wolfcrypt\src/aes.c ****     Key_Schedule[nr-8] = _mm_aesimc_si128(Temp_Key_Schedule[8]);
1090:..\kronos-c-sdk\src\wolfSSL\wolfcrypt\src/aes.c ****     Key_Schedule[nr-9] = _mm_aesimc_si128(Temp_Key_Schedule[9]);
1091:..\kronos-c-sdk\src\wolfSSL\wolfcrypt\src/aes.c **** 
1092:..\kronos-c-sdk\src\wolfSSL\wolfcrypt\src/aes.c ****     if(nr>10) {
1093:..\kronos-c-sdk\src\wolfSSL\wolfcrypt\src/aes.c ****         Key_Schedule[nr-10] = _mm_aesimc_si128(Temp_Key_Schedule[10]);
1094:..\kronos-c-sdk\src\wolfSSL\wolfcrypt\src/aes.c ****         Key_Schedule[nr-11] = _mm_aesimc_si128(Temp_Key_Schedule[11]);
1095:..\kronos-c-sdk\src\wolfSSL\wolfcrypt\src/aes.c ****     }
1096:..\kronos-c-sdk\src\wolfSSL\wolfcrypt\src/aes.c **** 
1097:..\kronos-c-sdk\src\wolfSSL\wolfcrypt\src/aes.c ****     if(nr>12) {
1098:..\kronos-c-sdk\src\wolfSSL\wolfcrypt\src/aes.c ****         Key_Schedule[nr-12] = _mm_aesimc_si128(Temp_Key_Schedule[12]);
1099:..\kronos-c-sdk\src\wolfSSL\wolfcrypt\src/aes.c ****         Key_Schedule[nr-13] = _mm_aesimc_si128(Temp_Key_Schedule[13]);
1100:..\kronos-c-sdk\src\wolfSSL\wolfcrypt\src/aes.c ****     }
1101:..\kronos-c-sdk\src\wolfSSL\wolfcrypt\src/aes.c **** 
1102:..\kronos-c-sdk\src\wolfSSL\wolfcrypt\src/aes.c ****     Key_Schedule[0] = Temp_Key_Schedule[nr];
1103:..\kronos-c-sdk\src\wolfSSL\wolfcrypt\src/aes.c **** 
1104:..\kronos-c-sdk\src\wolfSSL\wolfcrypt\src/aes.c ****     return 0;
1105:..\kronos-c-sdk\src\wolfSSL\wolfcrypt\src/aes.c **** }
1106:..\kronos-c-sdk\src\wolfSSL\wolfcrypt\src/aes.c **** #endif /* HAVE_AES_DECRYPT */
1107:..\kronos-c-sdk\src\wolfSSL\wolfcrypt\src/aes.c **** #endif /* WOLFSSL_AESNI */
1108:..\kronos-c-sdk\src\wolfSSL\wolfcrypt\src/aes.c **** 
1109:..\kronos-c-sdk\src\wolfSSL\wolfcrypt\src/aes.c **** #if defined(HAVE_AES_CBC) || defined(WOLFSSL_AES_DIRECT) ||\
1110:..\kronos-c-sdk\src\wolfSSL\wolfcrypt\src/aes.c ****     defined(HAVE_AESGCM)
1111:..\kronos-c-sdk\src\wolfSSL\wolfcrypt\src/aes.c **** 
1112:..\kronos-c-sdk\src\wolfSSL\wolfcrypt\src/aes.c **** static void wc_AesEncrypt(Aes* aes, const byte* inBlock, byte* outBlock)
1113:..\kronos-c-sdk\src\wolfSSL\wolfcrypt\src/aes.c **** {
  25              		.loc 1 1113 0
  26              		.cfi_startproc
  27              	.LVL0:
ARM GAS  C:\Users\ddemidov\AppData\Local\Temp\ccTwWFqA.s 			page 21


  28 0000 F0B5     		push	{r4, r5, r6, r7, lr}
  29              		.cfi_def_cfa_offset 20
  30              		.cfi_offset 4, -20
  31              		.cfi_offset 5, -16
  32              		.cfi_offset 6, -12
  33              		.cfi_offset 7, -8
  34              		.cfi_offset 14, -4
  35 0002 5F46     		mov	r7, fp
  36 0004 5646     		mov	r6, r10
  37 0006 4D46     		mov	r5, r9
  38 0008 4446     		mov	r4, r8
  39 000a F0B4     		push	{r4, r5, r6, r7}
  40              		.cfi_def_cfa_offset 36
  41              		.cfi_offset 8, -36
  42              		.cfi_offset 9, -32
  43              		.cfi_offset 10, -28
  44              		.cfi_offset 11, -24
  45 000c 89B0     		sub	sp, sp, #36
  46              		.cfi_def_cfa_offset 72
1114:..\kronos-c-sdk\src\wolfSSL\wolfcrypt\src/aes.c ****     word32 s0, s1, s2, s3;
1115:..\kronos-c-sdk\src\wolfSSL\wolfcrypt\src/aes.c ****     word32 t0, t1, t2, t3;
1116:..\kronos-c-sdk\src\wolfSSL\wolfcrypt\src/aes.c ****     word32 r = aes->rounds >> 1;
  47              		.loc 1 1116 0
  48 000e F023     		mov	r3, #240
  49 0010 C358     		ldr	r3, [r0, r3]
  50 0012 5B08     		lsr	r3, r3, #1
  51 0014 9846     		mov	r8, r3
  52              	.LVL1:
1117:..\kronos-c-sdk\src\wolfSSL\wolfcrypt\src/aes.c **** 
1118:..\kronos-c-sdk\src\wolfSSL\wolfcrypt\src/aes.c ****     const word32* rk = aes->key;
  53              		.loc 1 1118 0
  54 0016 0090     		str	r0, [sp]
  55              	.LVL2:
1119:..\kronos-c-sdk\src\wolfSSL\wolfcrypt\src/aes.c ****     if (r > 7 || r == 0) {
  56              		.loc 1 1119 0
  57 0018 013B     		sub	r3, r3, #1
  58              	.LVL3:
  59 001a 062B     		cmp	r3, #6
  60 001c 00D9     		bls	.LCB36
  61 001e 84E2     		b	.L1	@long jump
  62              	.LCB36:
  63 0020 0392     		str	r2, [sp, #12]
  64 0022 0D1C     		mov	r5, r1
  65 0024 041C     		mov	r4, r0
1120:..\kronos-c-sdk\src\wolfSSL\wolfcrypt\src/aes.c ****         WOLFSSL_MSG("AesEncrypt encountered improper key, set it up");
1121:..\kronos-c-sdk\src\wolfSSL\wolfcrypt\src/aes.c ****         return;  /* stop instead of segfaulting, set up your keys! */
1122:..\kronos-c-sdk\src\wolfSSL\wolfcrypt\src/aes.c ****     }
1123:..\kronos-c-sdk\src\wolfSSL\wolfcrypt\src/aes.c **** #ifdef WOLFSSL_AESNI
1124:..\kronos-c-sdk\src\wolfSSL\wolfcrypt\src/aes.c ****     if (haveAESNI && aes->use_aesni) {
1125:..\kronos-c-sdk\src\wolfSSL\wolfcrypt\src/aes.c ****         #ifdef DEBUG_AESNI
1126:..\kronos-c-sdk\src\wolfSSL\wolfcrypt\src/aes.c ****             printf("about to aes encrypt\n");
1127:..\kronos-c-sdk\src\wolfSSL\wolfcrypt\src/aes.c ****             printf("in  = %p\n", inBlock);
1128:..\kronos-c-sdk\src\wolfSSL\wolfcrypt\src/aes.c ****             printf("out = %p\n", outBlock);
1129:..\kronos-c-sdk\src\wolfSSL\wolfcrypt\src/aes.c ****             printf("aes->key = %p\n", aes->key);
1130:..\kronos-c-sdk\src\wolfSSL\wolfcrypt\src/aes.c ****             printf("aes->rounds = %d\n", aes->rounds);
1131:..\kronos-c-sdk\src\wolfSSL\wolfcrypt\src/aes.c ****             printf("sz = %d\n", AES_BLOCK_SIZE);
1132:..\kronos-c-sdk\src\wolfSSL\wolfcrypt\src/aes.c ****         #endif
ARM GAS  C:\Users\ddemidov\AppData\Local\Temp\ccTwWFqA.s 			page 22


1133:..\kronos-c-sdk\src\wolfSSL\wolfcrypt\src/aes.c **** 
1134:..\kronos-c-sdk\src\wolfSSL\wolfcrypt\src/aes.c ****         /* check alignment, decrypt doesn't need alignment */
1135:..\kronos-c-sdk\src\wolfSSL\wolfcrypt\src/aes.c ****         if ((wolfssl_word)inBlock % 16) {
1136:..\kronos-c-sdk\src\wolfSSL\wolfcrypt\src/aes.c ****         #ifndef NO_WOLFSSL_ALLOC_ALIGN
1137:..\kronos-c-sdk\src\wolfSSL\wolfcrypt\src/aes.c ****             byte* tmp = (byte*)XMALLOC(AES_BLOCK_SIZE, NULL,
1138:..\kronos-c-sdk\src\wolfSSL\wolfcrypt\src/aes.c ****                                                       DYNAMIC_TYPE_TMP_BUFFER);
1139:..\kronos-c-sdk\src\wolfSSL\wolfcrypt\src/aes.c ****             if (tmp == NULL) return;
1140:..\kronos-c-sdk\src\wolfSSL\wolfcrypt\src/aes.c **** 
1141:..\kronos-c-sdk\src\wolfSSL\wolfcrypt\src/aes.c ****             XMEMCPY(tmp, inBlock, AES_BLOCK_SIZE);
1142:..\kronos-c-sdk\src\wolfSSL\wolfcrypt\src/aes.c ****             AES_ECB_encrypt(tmp, tmp, AES_BLOCK_SIZE, (byte*)aes->key,
1143:..\kronos-c-sdk\src\wolfSSL\wolfcrypt\src/aes.c ****                             aes->rounds);
1144:..\kronos-c-sdk\src\wolfSSL\wolfcrypt\src/aes.c ****             XMEMCPY(outBlock, tmp, AES_BLOCK_SIZE);
1145:..\kronos-c-sdk\src\wolfSSL\wolfcrypt\src/aes.c ****             XFREE(tmp, NULL, DYNAMIC_TYPE_TMP_BUFFER);
1146:..\kronos-c-sdk\src\wolfSSL\wolfcrypt\src/aes.c ****             return;
1147:..\kronos-c-sdk\src\wolfSSL\wolfcrypt\src/aes.c ****         #else
1148:..\kronos-c-sdk\src\wolfSSL\wolfcrypt\src/aes.c ****             WOLFSSL_MSG("AES-ECB encrypt with bad alignment");
1149:..\kronos-c-sdk\src\wolfSSL\wolfcrypt\src/aes.c ****             return;
1150:..\kronos-c-sdk\src\wolfSSL\wolfcrypt\src/aes.c ****         #endif
1151:..\kronos-c-sdk\src\wolfSSL\wolfcrypt\src/aes.c ****         }
1152:..\kronos-c-sdk\src\wolfSSL\wolfcrypt\src/aes.c **** 
1153:..\kronos-c-sdk\src\wolfSSL\wolfcrypt\src/aes.c ****         AES_ECB_encrypt(inBlock, outBlock, AES_BLOCK_SIZE, (byte*)aes->key,
1154:..\kronos-c-sdk\src\wolfSSL\wolfcrypt\src/aes.c ****                         aes->rounds);
1155:..\kronos-c-sdk\src\wolfSSL\wolfcrypt\src/aes.c **** 
1156:..\kronos-c-sdk\src\wolfSSL\wolfcrypt\src/aes.c ****         return;
1157:..\kronos-c-sdk\src\wolfSSL\wolfcrypt\src/aes.c ****     }
1158:..\kronos-c-sdk\src\wolfSSL\wolfcrypt\src/aes.c ****     else {
1159:..\kronos-c-sdk\src\wolfSSL\wolfcrypt\src/aes.c ****         #ifdef DEBUG_AESNI
1160:..\kronos-c-sdk\src\wolfSSL\wolfcrypt\src/aes.c ****             printf("Skipping AES-NI\n");
1161:..\kronos-c-sdk\src\wolfSSL\wolfcrypt\src/aes.c ****         #endif
1162:..\kronos-c-sdk\src\wolfSSL\wolfcrypt\src/aes.c ****     }
1163:..\kronos-c-sdk\src\wolfSSL\wolfcrypt\src/aes.c **** #endif
1164:..\kronos-c-sdk\src\wolfSSL\wolfcrypt\src/aes.c **** 
1165:..\kronos-c-sdk\src\wolfSSL\wolfcrypt\src/aes.c ****     /*
1166:..\kronos-c-sdk\src\wolfSSL\wolfcrypt\src/aes.c ****      * map byte array block to cipher state
1167:..\kronos-c-sdk\src\wolfSSL\wolfcrypt\src/aes.c ****      * and add initial round key:
1168:..\kronos-c-sdk\src\wolfSSL\wolfcrypt\src/aes.c ****      */
1169:..\kronos-c-sdk\src\wolfSSL\wolfcrypt\src/aes.c ****     XMEMCPY(&s0, inBlock,                  sizeof(s0));
  66              		.loc 1 1169 0
  67 0026 07A8     		add	r0, sp, #28
  68              	.LVL4:
  69 0028 0422     		mov	r2, #4
  70              	.LVL5:
  71 002a FFF7FEFF 		bl	memcpy
  72              	.LVL6:
1170:..\kronos-c-sdk\src\wolfSSL\wolfcrypt\src/aes.c ****     XMEMCPY(&s1, inBlock + sizeof(s0),     sizeof(s1));
  73              		.loc 1 1170 0
  74 002e 291D     		add	r1, r5, #4
  75 0030 06A8     		add	r0, sp, #24
  76 0032 0422     		mov	r2, #4
  77 0034 FFF7FEFF 		bl	memcpy
  78              	.LVL7:
1171:..\kronos-c-sdk\src\wolfSSL\wolfcrypt\src/aes.c ****     XMEMCPY(&s2, inBlock + 2 * sizeof(s0), sizeof(s2));
  79              		.loc 1 1171 0
  80 0038 291C     		mov	r1, r5
  81 003a 0831     		add	r1, r1, #8
  82 003c 05A8     		add	r0, sp, #20
  83 003e 0422     		mov	r2, #4
ARM GAS  C:\Users\ddemidov\AppData\Local\Temp\ccTwWFqA.s 			page 23


  84 0040 FFF7FEFF 		bl	memcpy
  85              	.LVL8:
1172:..\kronos-c-sdk\src\wolfSSL\wolfcrypt\src/aes.c ****     XMEMCPY(&s3, inBlock + 3 * sizeof(s0), sizeof(s3));
  86              		.loc 1 1172 0
  87 0044 291C     		mov	r1, r5
  88 0046 0C31     		add	r1, r1, #12
  89 0048 04A8     		add	r0, sp, #16
  90 004a 0422     		mov	r2, #4
  91 004c FFF7FEFF 		bl	memcpy
  92              	.LVL9:
1173:..\kronos-c-sdk\src\wolfSSL\wolfcrypt\src/aes.c **** 
1174:..\kronos-c-sdk\src\wolfSSL\wolfcrypt\src/aes.c ****     #ifdef LITTLE_ENDIAN_ORDER
1175:..\kronos-c-sdk\src\wolfSSL\wolfcrypt\src/aes.c ****         s0 = ByteReverseWord32(s0);
  93              		.loc 1 1175 0
  94 0050 079A     		ldr	r2, [sp, #28]
  95              	.LVL10:
  96              	.LBB82:
  97              	.LBB83:
  98              		.file 2 "..\\kronos-c-sdk\\src\\wolfSSL/wolfcrypt/src/misc.c"
   1:..\kronos-c-sdk\src\wolfSSL\wolfcrypt\src/misc.c **** /* misc.c
   2:..\kronos-c-sdk\src\wolfSSL\wolfcrypt\src/misc.c ****  *
   3:..\kronos-c-sdk\src\wolfSSL\wolfcrypt\src/misc.c ****  * Copyright (C) 2006-2016 wolfSSL Inc.
   4:..\kronos-c-sdk\src\wolfSSL\wolfcrypt\src/misc.c ****  *
   5:..\kronos-c-sdk\src\wolfSSL\wolfcrypt\src/misc.c ****  * This file is part of wolfSSL.
   6:..\kronos-c-sdk\src\wolfSSL\wolfcrypt\src/misc.c ****  *
   7:..\kronos-c-sdk\src\wolfSSL\wolfcrypt\src/misc.c ****  * wolfSSL is free software; you can redistribute it and/or modify
   8:..\kronos-c-sdk\src\wolfSSL\wolfcrypt\src/misc.c ****  * it under the terms of the GNU General Public License as published by
   9:..\kronos-c-sdk\src\wolfSSL\wolfcrypt\src/misc.c ****  * the Free Software Foundation; either version 2 of the License, or
  10:..\kronos-c-sdk\src\wolfSSL\wolfcrypt\src/misc.c ****  * (at your option) any later version.
  11:..\kronos-c-sdk\src\wolfSSL\wolfcrypt\src/misc.c ****  *
  12:..\kronos-c-sdk\src\wolfSSL\wolfcrypt\src/misc.c ****  * wolfSSL is distributed in the hope that it will be useful,
  13:..\kronos-c-sdk\src\wolfSSL\wolfcrypt\src/misc.c ****  * but WITHOUT ANY WARRANTY; without even the implied warranty of
  14:..\kronos-c-sdk\src\wolfSSL\wolfcrypt\src/misc.c ****  * MERCHANTABILITY or FITNESS FOR A PARTICULAR PURPOSE.  See the
  15:..\kronos-c-sdk\src\wolfSSL\wolfcrypt\src/misc.c ****  * GNU General Public License for more details.
  16:..\kronos-c-sdk\src\wolfSSL\wolfcrypt\src/misc.c ****  *
  17:..\kronos-c-sdk\src\wolfSSL\wolfcrypt\src/misc.c ****  * You should have received a copy of the GNU General Public License
  18:..\kronos-c-sdk\src\wolfSSL\wolfcrypt\src/misc.c ****  * along with this program; if not, write to the Free Software
  19:..\kronos-c-sdk\src\wolfSSL\wolfcrypt\src/misc.c ****  * Foundation, Inc., 51 Franklin Street, Fifth Floor, Boston, MA 02110-1335, USA
  20:..\kronos-c-sdk\src\wolfSSL\wolfcrypt\src/misc.c ****  */
  21:..\kronos-c-sdk\src\wolfSSL\wolfcrypt\src/misc.c **** 
  22:..\kronos-c-sdk\src\wolfSSL\wolfcrypt\src/misc.c **** 
  23:..\kronos-c-sdk\src\wolfSSL\wolfcrypt\src/misc.c **** #ifdef HAVE_CONFIG_H
  24:..\kronos-c-sdk\src\wolfSSL\wolfcrypt\src/misc.c ****     #include <config.h>
  25:..\kronos-c-sdk\src\wolfSSL\wolfcrypt\src/misc.c **** #endif
  26:..\kronos-c-sdk\src\wolfSSL\wolfcrypt\src/misc.c **** 
  27:..\kronos-c-sdk\src\wolfSSL\wolfcrypt\src/misc.c **** #include <wolfssl/wolfcrypt/settings.h>
  28:..\kronos-c-sdk\src\wolfSSL\wolfcrypt\src/misc.c **** 
  29:..\kronos-c-sdk\src\wolfSSL\wolfcrypt\src/misc.c **** #ifndef WOLF_CRYPT_MISC_C
  30:..\kronos-c-sdk\src\wolfSSL\wolfcrypt\src/misc.c **** #define WOLF_CRYPT_MISC_C
  31:..\kronos-c-sdk\src\wolfSSL\wolfcrypt\src/misc.c **** 
  32:..\kronos-c-sdk\src\wolfSSL\wolfcrypt\src/misc.c **** #include <wolfssl/wolfcrypt/misc.h>
  33:..\kronos-c-sdk\src\wolfSSL\wolfcrypt\src/misc.c **** 
  34:..\kronos-c-sdk\src\wolfSSL\wolfcrypt\src/misc.c **** /* inlining these functions is a huge speed increase and a small size decrease, 
  35:..\kronos-c-sdk\src\wolfSSL\wolfcrypt\src/misc.c ****    because the functions are smaller than function call setup/cleanup, e.g.,
  36:..\kronos-c-sdk\src\wolfSSL\wolfcrypt\src/misc.c ****    md5 benchmark is twice as fast with inline.  If you don't want it, then
  37:..\kronos-c-sdk\src\wolfSSL\wolfcrypt\src/misc.c ****    define NO_INLINE and compile this file into wolfssl, otherwise it's used as
  38:..\kronos-c-sdk\src\wolfSSL\wolfcrypt\src/misc.c ****    a source header
ARM GAS  C:\Users\ddemidov\AppData\Local\Temp\ccTwWFqA.s 			page 24


  39:..\kronos-c-sdk\src\wolfSSL\wolfcrypt\src/misc.c ****  */
  40:..\kronos-c-sdk\src\wolfSSL\wolfcrypt\src/misc.c **** 
  41:..\kronos-c-sdk\src\wolfSSL\wolfcrypt\src/misc.c **** #ifdef NO_INLINE
  42:..\kronos-c-sdk\src\wolfSSL\wolfcrypt\src/misc.c ****     #define STATIC
  43:..\kronos-c-sdk\src\wolfSSL\wolfcrypt\src/misc.c **** #else
  44:..\kronos-c-sdk\src\wolfSSL\wolfcrypt\src/misc.c ****     #define STATIC static
  45:..\kronos-c-sdk\src\wolfSSL\wolfcrypt\src/misc.c **** #endif
  46:..\kronos-c-sdk\src\wolfSSL\wolfcrypt\src/misc.c **** 
  47:..\kronos-c-sdk\src\wolfSSL\wolfcrypt\src/misc.c **** 
  48:..\kronos-c-sdk\src\wolfSSL\wolfcrypt\src/misc.c **** #ifdef INTEL_INTRINSICS
  49:..\kronos-c-sdk\src\wolfSSL\wolfcrypt\src/misc.c **** 
  50:..\kronos-c-sdk\src\wolfSSL\wolfcrypt\src/misc.c ****     #include <stdlib.h>      /* get intrinsic definitions */
  51:..\kronos-c-sdk\src\wolfSSL\wolfcrypt\src/misc.c **** 
  52:..\kronos-c-sdk\src\wolfSSL\wolfcrypt\src/misc.c ****     /* for non visual studio probably need no long version, 32 bit only
  53:..\kronos-c-sdk\src\wolfSSL\wolfcrypt\src/misc.c ****      * i.e., _rotl and _rotr */
  54:..\kronos-c-sdk\src\wolfSSL\wolfcrypt\src/misc.c ****     #pragma intrinsic(_lrotl, _lrotr)
  55:..\kronos-c-sdk\src\wolfSSL\wolfcrypt\src/misc.c **** 
  56:..\kronos-c-sdk\src\wolfSSL\wolfcrypt\src/misc.c ****     STATIC INLINE word32 rotlFixed(word32 x, word32 y)
  57:..\kronos-c-sdk\src\wolfSSL\wolfcrypt\src/misc.c ****     {
  58:..\kronos-c-sdk\src\wolfSSL\wolfcrypt\src/misc.c ****         return y ? _lrotl(x, y) : x;
  59:..\kronos-c-sdk\src\wolfSSL\wolfcrypt\src/misc.c ****     }
  60:..\kronos-c-sdk\src\wolfSSL\wolfcrypt\src/misc.c **** 
  61:..\kronos-c-sdk\src\wolfSSL\wolfcrypt\src/misc.c ****     STATIC INLINE word32 rotrFixed(word32 x, word32 y)
  62:..\kronos-c-sdk\src\wolfSSL\wolfcrypt\src/misc.c ****     {
  63:..\kronos-c-sdk\src\wolfSSL\wolfcrypt\src/misc.c ****         return y ? _lrotr(x, y) : x;
  64:..\kronos-c-sdk\src\wolfSSL\wolfcrypt\src/misc.c ****     }
  65:..\kronos-c-sdk\src\wolfSSL\wolfcrypt\src/misc.c **** 
  66:..\kronos-c-sdk\src\wolfSSL\wolfcrypt\src/misc.c **** #else /* generic */
  67:..\kronos-c-sdk\src\wolfSSL\wolfcrypt\src/misc.c **** 
  68:..\kronos-c-sdk\src\wolfSSL\wolfcrypt\src/misc.c ****     STATIC INLINE word32 rotlFixed(word32 x, word32 y)
  69:..\kronos-c-sdk\src\wolfSSL\wolfcrypt\src/misc.c ****     {
  70:..\kronos-c-sdk\src\wolfSSL\wolfcrypt\src/misc.c ****         return (x << y) | (x >> (sizeof(y) * 8 - y));
  71:..\kronos-c-sdk\src\wolfSSL\wolfcrypt\src/misc.c ****     }   
  72:..\kronos-c-sdk\src\wolfSSL\wolfcrypt\src/misc.c **** 
  73:..\kronos-c-sdk\src\wolfSSL\wolfcrypt\src/misc.c **** 
  74:..\kronos-c-sdk\src\wolfSSL\wolfcrypt\src/misc.c ****     STATIC INLINE word32 rotrFixed(word32 x, word32 y)
  75:..\kronos-c-sdk\src\wolfSSL\wolfcrypt\src/misc.c ****     {
  76:..\kronos-c-sdk\src\wolfSSL\wolfcrypt\src/misc.c ****         return (x >> y) | (x << (sizeof(y) * 8 - y));
  77:..\kronos-c-sdk\src\wolfSSL\wolfcrypt\src/misc.c ****     }
  78:..\kronos-c-sdk\src\wolfSSL\wolfcrypt\src/misc.c **** 
  79:..\kronos-c-sdk\src\wolfSSL\wolfcrypt\src/misc.c **** #endif
  80:..\kronos-c-sdk\src\wolfSSL\wolfcrypt\src/misc.c **** 
  81:..\kronos-c-sdk\src\wolfSSL\wolfcrypt\src/misc.c **** 
  82:..\kronos-c-sdk\src\wolfSSL\wolfcrypt\src/misc.c **** STATIC INLINE word32 ByteReverseWord32(word32 value)
  83:..\kronos-c-sdk\src\wolfSSL\wolfcrypt\src/misc.c **** {
  84:..\kronos-c-sdk\src\wolfSSL\wolfcrypt\src/misc.c **** #ifdef PPC_INTRINSICS
  85:..\kronos-c-sdk\src\wolfSSL\wolfcrypt\src/misc.c ****     /* PPC: load reverse indexed instruction */
  86:..\kronos-c-sdk\src\wolfSSL\wolfcrypt\src/misc.c ****     return (word32)__lwbrx(&value,0);
  87:..\kronos-c-sdk\src\wolfSSL\wolfcrypt\src/misc.c **** #elif defined(KEIL_INTRINSICS)
  88:..\kronos-c-sdk\src\wolfSSL\wolfcrypt\src/misc.c ****     return (word32)__rev(value);
  89:..\kronos-c-sdk\src\wolfSSL\wolfcrypt\src/misc.c **** #elif defined(FAST_ROTATE)
  90:..\kronos-c-sdk\src\wolfSSL\wolfcrypt\src/misc.c ****     /* 5 instructions with rotate instruction, 9 without */
  91:..\kronos-c-sdk\src\wolfSSL\wolfcrypt\src/misc.c ****     return (rotrFixed(value, 8U) & 0xff00ff00) |
  92:..\kronos-c-sdk\src\wolfSSL\wolfcrypt\src/misc.c ****            (rotlFixed(value, 8U) & 0x00ff00ff);
  93:..\kronos-c-sdk\src\wolfSSL\wolfcrypt\src/misc.c **** #else
  94:..\kronos-c-sdk\src\wolfSSL\wolfcrypt\src/misc.c ****     /* 6 instructions with rotate instruction, 8 without */
  95:..\kronos-c-sdk\src\wolfSSL\wolfcrypt\src/misc.c ****     value = ((value & 0xFF00FF00) >> 8) | ((value & 0x00FF00FF) << 8);
ARM GAS  C:\Users\ddemidov\AppData\Local\Temp\ccTwWFqA.s 			page 25


  99              		.loc 2 95 0
 100 0052 B04B     		ldr	r3, .L6
 101 0054 9C46     		mov	ip, r3
 102 0056 1D1C     		mov	r5, r3
 103              	.LVL11:
 104 0058 1540     		and	r5, r2
 105 005a 2D0A     		lsr	r5, r5, #8
 106 005c AE4B     		ldr	r3, .L6+4
 107 005e 1A40     		and	r2, r3
 108              	.LVL12:
 109 0060 1202     		lsl	r2, r2, #8
 110 0062 1543     		orr	r5, r2
 111              	.LVL13:
 112              	.LBB84:
 113              	.LBB85:
  70:..\kronos-c-sdk\src\wolfSSL\wolfcrypt\src/misc.c ****     }   
 114              		.loc 2 70 0
 115 0064 1027     		mov	r7, #16
 116 0066 FD41     		ror	r5, r5, r7
 117              	.LVL14:
 118              	.LBE85:
 119              	.LBE84:
 120              	.LBE83:
 121              	.LBE82:
1176:..\kronos-c-sdk\src\wolfSSL\wolfcrypt\src/aes.c ****         s1 = ByteReverseWord32(s1);
 122              		.loc 1 1176 0
 123 0068 069A     		ldr	r2, [sp, #24]
 124              	.LVL15:
 125              	.LBB86:
 126              	.LBB87:
 127              		.loc 2 95 0
 128 006a 6146     		mov	r1, ip
 129 006c 1140     		and	r1, r2
 130 006e 090A     		lsr	r1, r1, #8
 131 0070 1A40     		and	r2, r3
 132              	.LVL16:
 133 0072 1202     		lsl	r2, r2, #8
 134 0074 1143     		orr	r1, r2
 135              	.LVL17:
 136              	.LBB88:
 137              	.LBB89:
  70:..\kronos-c-sdk\src\wolfSSL\wolfcrypt\src/misc.c ****     }   
 138              		.loc 2 70 0
 139 0076 F941     		ror	r1, r1, r7
 140              	.LVL18:
 141              	.LBE89:
 142              	.LBE88:
 143              	.LBE87:
 144              	.LBE86:
1177:..\kronos-c-sdk\src\wolfSSL\wolfcrypt\src/aes.c ****         s2 = ByteReverseWord32(s2);
 145              		.loc 1 1177 0
 146 0078 059A     		ldr	r2, [sp, #20]
 147              	.LVL19:
 148              	.LBB90:
 149              	.LBB91:
 150              		.loc 2 95 0
 151 007a 6046     		mov	r0, ip
ARM GAS  C:\Users\ddemidov\AppData\Local\Temp\ccTwWFqA.s 			page 26


 152 007c 1040     		and	r0, r2
 153 007e 000A     		lsr	r0, r0, #8
 154 0080 1A40     		and	r2, r3
 155              	.LVL20:
 156 0082 1202     		lsl	r2, r2, #8
 157 0084 0243     		orr	r2, r0
 158              	.LVL21:
 159              	.LBB92:
 160              	.LBB93:
  70:..\kronos-c-sdk\src\wolfSSL\wolfcrypt\src/misc.c ****     }   
 161              		.loc 2 70 0
 162 0086 FA41     		ror	r2, r2, r7
 163              	.LVL22:
 164              	.LBE93:
 165              	.LBE92:
 166              	.LBE91:
 167              	.LBE90:
 168              	.LBB94:
 169              	.LBB95:
 170              		.loc 2 95 0
 171 0088 6046     		mov	r0, ip
 172              	.LVL23:
 173 008a 049E     		ldr	r6, [sp, #16]
 174 008c 3040     		and	r0, r6
 175 008e 000A     		lsr	r0, r0, #8
 176 0090 3340     		and	r3, r6
 177              	.LVL24:
 178 0092 1B02     		lsl	r3, r3, #8
 179 0094 0343     		orr	r3, r0
 180              	.LVL25:
 181              	.LBB96:
 182              	.LBB97:
  70:..\kronos-c-sdk\src\wolfSSL\wolfcrypt\src/misc.c ****     }   
 183              		.loc 2 70 0
 184 0096 FB41     		ror	r3, r3, r7
 185              	.LVL26:
 186              	.LBE97:
 187              	.LBE96:
 188              	.LBE95:
 189              	.LBE94:
1178:..\kronos-c-sdk\src\wolfSSL\wolfcrypt\src/aes.c ****         s3 = ByteReverseWord32(s3);
1179:..\kronos-c-sdk\src\wolfSSL\wolfcrypt\src/aes.c ****     #endif
1180:..\kronos-c-sdk\src\wolfSSL\wolfcrypt\src/aes.c **** 
1181:..\kronos-c-sdk\src\wolfSSL\wolfcrypt\src/aes.c ****     s0 ^= rk[0];
 190              		.loc 1 1181 0
 191 0098 2068     		ldr	r0, [r4]
 192              	.LVL27:
 193 009a 4540     		eor	r5, r0
 194 009c 0795     		str	r5, [sp, #28]
 195              	.LVL28:
1182:..\kronos-c-sdk\src\wolfSSL\wolfcrypt\src/aes.c ****     s1 ^= rk[1];
 196              		.loc 1 1182 0
 197 009e 6068     		ldr	r0, [r4, #4]
 198 00a0 4140     		eor	r1, r0
 199 00a2 0691     		str	r1, [sp, #24]
 200              	.LVL29:
1183:..\kronos-c-sdk\src\wolfSSL\wolfcrypt\src/aes.c ****     s2 ^= rk[2];
ARM GAS  C:\Users\ddemidov\AppData\Local\Temp\ccTwWFqA.s 			page 27


 201              		.loc 1 1183 0
 202 00a4 A168     		ldr	r1, [r4, #8]
 203 00a6 4A40     		eor	r2, r1
 204 00a8 0592     		str	r2, [sp, #20]
 205              	.LVL30:
1184:..\kronos-c-sdk\src\wolfSSL\wolfcrypt\src/aes.c ****     s3 ^= rk[3];
 206              		.loc 1 1184 0
 207 00aa E268     		ldr	r2, [r4, #12]
 208 00ac 5340     		eor	r3, r2
 209 00ae 0493     		str	r3, [sp, #16]
 210              	.LVL31:
 211 00b0 009E     		ldr	r6, [sp]
 212              	.LVL32:
 213              	.L4:
1185:..\kronos-c-sdk\src\wolfSSL\wolfcrypt\src/aes.c **** 
1186:..\kronos-c-sdk\src\wolfSSL\wolfcrypt\src/aes.c ****     /*
1187:..\kronos-c-sdk\src\wolfSSL\wolfcrypt\src/aes.c ****      * Nr - 1 full rounds:
1188:..\kronos-c-sdk\src\wolfSSL\wolfcrypt\src/aes.c ****      */
1189:..\kronos-c-sdk\src\wolfSSL\wolfcrypt\src/aes.c **** 
1190:..\kronos-c-sdk\src\wolfSSL\wolfcrypt\src/aes.c ****     for (;;) {
1191:..\kronos-c-sdk\src\wolfSSL\wolfcrypt\src/aes.c ****         t0 =
1192:..\kronos-c-sdk\src\wolfSSL\wolfcrypt\src/aes.c ****             Te[0][GETBYTE(s0, 3)]  ^
 214              		.loc 1 1192 0
 215 00b2 0799     		ldr	r1, [sp, #28]
 216 00b4 0B0E     		lsr	r3, r1, #24
 217 00b6 994D     		ldr	r5, .L6+8
 218 00b8 9B00     		lsl	r3, r3, #2
 219 00ba 5859     		ldr	r0, [r3, r5]
1193:..\kronos-c-sdk\src\wolfSSL\wolfcrypt\src/aes.c ****             Te[1][GETBYTE(s1, 2)]  ^
 220              		.loc 1 1193 0
 221 00bc 069F     		ldr	r7, [sp, #24]
 222 00be 3B0C     		lsr	r3, r7, #16
 223 00c0 FF24     		mov	r4, #255
 224 00c2 2340     		and	r3, r4
 225 00c4 0133     		add	r3, r3, #1
 226 00c6 FF33     		add	r3, r3, #255
 227 00c8 9B00     		lsl	r3, r3, #2
 228 00ca 5B59     		ldr	r3, [r3, r5]
1192:..\kronos-c-sdk\src\wolfSSL\wolfcrypt\src/aes.c ****             Te[1][GETBYTE(s1, 2)]  ^
 229              		.loc 1 1192 0
 230 00cc 5840     		eor	r0, r3
1194:..\kronos-c-sdk\src\wolfSSL\wolfcrypt\src/aes.c ****             Te[2][GETBYTE(s2, 1)]  ^
 231              		.loc 1 1194 0
 232 00ce 059B     		ldr	r3, [sp, #20]
 233 00d0 1A0A     		lsr	r2, r3, #8
 234 00d2 2240     		and	r2, r4
 235 00d4 8023     		mov	r3, #128
 236 00d6 9B00     		lsl	r3, r3, #2
 237 00d8 9C46     		mov	ip, r3
 238 00da 6244     		add	r2, r2, ip
 239 00dc 9200     		lsl	r2, r2, #2
 240 00de 5259     		ldr	r2, [r2, r5]
1193:..\kronos-c-sdk\src\wolfSSL\wolfcrypt\src/aes.c ****             Te[1][GETBYTE(s1, 2)]  ^
 241              		.loc 1 1193 0
 242 00e0 5040     		eor	r0, r2
 243 00e2 8446     		mov	ip, r0
1195:..\kronos-c-sdk\src\wolfSSL\wolfcrypt\src/aes.c ****             Te[3][GETBYTE(s3, 0)]  ^
ARM GAS  C:\Users\ddemidov\AppData\Local\Temp\ccTwWFqA.s 			page 28


 244              		.loc 1 1195 0
 245 00e4 201C     		mov	r0, r4
 246 00e6 049B     		ldr	r3, [sp, #16]
 247 00e8 1840     		and	r0, r3
 248 00ea C023     		mov	r3, #192
 249 00ec 9B00     		lsl	r3, r3, #2
 250 00ee 9946     		mov	r9, r3
 251 00f0 4844     		add	r0, r0, r9
 252 00f2 8000     		lsl	r0, r0, #2
 253 00f4 4059     		ldr	r0, [r0, r5]
1194:..\kronos-c-sdk\src\wolfSSL\wolfcrypt\src/aes.c ****             Te[2][GETBYTE(s2, 1)]  ^
 254              		.loc 1 1194 0
 255 00f6 6346     		mov	r3, ip
 256 00f8 5840     		eor	r0, r3
1191:..\kronos-c-sdk\src\wolfSSL\wolfcrypt\src/aes.c ****             Te[0][GETBYTE(s0, 3)]  ^
 257              		.loc 1 1191 0
 258 00fa 3369     		ldr	r3, [r6, #16]
 259 00fc 5840     		eor	r0, r3
 260              	.LVL33:
1196:..\kronos-c-sdk\src\wolfSSL\wolfcrypt\src/aes.c ****             rk[4];
1197:..\kronos-c-sdk\src\wolfSSL\wolfcrypt\src/aes.c ****         t1 =
1198:..\kronos-c-sdk\src\wolfSSL\wolfcrypt\src/aes.c ****             Te[0][GETBYTE(s1, 3)]  ^
 261              		.loc 1 1198 0
 262 00fe 3B0E     		lsr	r3, r7, #24
 263 0100 9B00     		lsl	r3, r3, #2
 264 0102 5B59     		ldr	r3, [r3, r5]
 265 0104 9C46     		mov	ip, r3
1199:..\kronos-c-sdk\src\wolfSSL\wolfcrypt\src/aes.c ****             Te[1][GETBYTE(s2, 2)]  ^
 266              		.loc 1 1199 0
 267 0106 059B     		ldr	r3, [sp, #20]
 268 0108 1B0C     		lsr	r3, r3, #16
 269 010a 2340     		and	r3, r4
 270 010c 9946     		mov	r9, r3
 271 010e 8023     		mov	r3, #128
 272 0110 5B00     		lsl	r3, r3, #1
 273 0112 9A46     		mov	r10, r3
 274 0114 D144     		add	r9, r9, r10
 275 0116 4B46     		mov	r3, r9
 276 0118 9B00     		lsl	r3, r3, #2
 277 011a 5B59     		ldr	r3, [r3, r5]
 278 011c 9946     		mov	r9, r3
1198:..\kronos-c-sdk\src\wolfSSL\wolfcrypt\src/aes.c ****             Te[1][GETBYTE(s2, 2)]  ^
 279              		.loc 1 1198 0
 280 011e 6346     		mov	r3, ip
 281 0120 4A46     		mov	r2, r9
 282 0122 5340     		eor	r3, r2
 283 0124 9C46     		mov	ip, r3
1200:..\kronos-c-sdk\src\wolfSSL\wolfcrypt\src/aes.c ****             Te[2][GETBYTE(s3, 1)]  ^
 284              		.loc 1 1200 0
 285 0126 049B     		ldr	r3, [sp, #16]
 286 0128 1B0A     		lsr	r3, r3, #8
 287 012a 2340     		and	r3, r4
 288 012c 9946     		mov	r9, r3
 289 012e 8023     		mov	r3, #128
 290 0130 9B00     		lsl	r3, r3, #2
 291 0132 9A46     		mov	r10, r3
 292 0134 D144     		add	r9, r9, r10
ARM GAS  C:\Users\ddemidov\AppData\Local\Temp\ccTwWFqA.s 			page 29


 293 0136 4B46     		mov	r3, r9
 294 0138 9B00     		lsl	r3, r3, #2
 295 013a 5B59     		ldr	r3, [r3, r5]
 296 013c 9946     		mov	r9, r3
1199:..\kronos-c-sdk\src\wolfSSL\wolfcrypt\src/aes.c ****             Te[1][GETBYTE(s2, 2)]  ^
 297              		.loc 1 1199 0
 298 013e 6346     		mov	r3, ip
 299 0140 4A46     		mov	r2, r9
 300 0142 5340     		eor	r3, r2
 301 0144 9C46     		mov	ip, r3
1201:..\kronos-c-sdk\src\wolfSSL\wolfcrypt\src/aes.c ****             Te[3][GETBYTE(s0, 0)]  ^
 302              		.loc 1 1201 0
 303 0146 231C     		mov	r3, r4
 304 0148 0B40     		and	r3, r1
 305 014a 9946     		mov	r9, r3
 306 014c C023     		mov	r3, #192
 307 014e 9B00     		lsl	r3, r3, #2
 308 0150 9A46     		mov	r10, r3
 309 0152 D144     		add	r9, r9, r10
 310 0154 4B46     		mov	r3, r9
 311 0156 9B00     		lsl	r3, r3, #2
 312 0158 5B59     		ldr	r3, [r3, r5]
 313 015a 9946     		mov	r9, r3
1200:..\kronos-c-sdk\src\wolfSSL\wolfcrypt\src/aes.c ****             Te[2][GETBYTE(s3, 1)]  ^
 314              		.loc 1 1200 0
 315 015c 6346     		mov	r3, ip
 316 015e 4A46     		mov	r2, r9
 317 0160 5340     		eor	r3, r2
1197:..\kronos-c-sdk\src\wolfSSL\wolfcrypt\src/aes.c ****             Te[0][GETBYTE(s1, 3)]  ^
 318              		.loc 1 1197 0
 319 0162 7269     		ldr	r2, [r6, #20]
 320 0164 5340     		eor	r3, r2
 321 0166 9C46     		mov	ip, r3
 322              	.LVL34:
1202:..\kronos-c-sdk\src\wolfSSL\wolfcrypt\src/aes.c ****             rk[5];
1203:..\kronos-c-sdk\src\wolfSSL\wolfcrypt\src/aes.c ****         t2 =
1204:..\kronos-c-sdk\src\wolfSSL\wolfcrypt\src/aes.c ****             Te[0][GETBYTE(s2, 3)] ^
 323              		.loc 1 1204 0
 324 0168 059B     		ldr	r3, [sp, #20]
 325              	.LVL35:
 326 016a 1B0E     		lsr	r3, r3, #24
 327 016c 9B00     		lsl	r3, r3, #2
 328 016e 5B59     		ldr	r3, [r3, r5]
 329 0170 9946     		mov	r9, r3
1205:..\kronos-c-sdk\src\wolfSSL\wolfcrypt\src/aes.c ****             Te[1][GETBYTE(s3, 2)]  ^
 330              		.loc 1 1205 0
 331 0172 049B     		ldr	r3, [sp, #16]
 332 0174 1B0C     		lsr	r3, r3, #16
 333 0176 2340     		and	r3, r4
 334 0178 9A46     		mov	r10, r3
 335 017a 8023     		mov	r3, #128
 336 017c 5B00     		lsl	r3, r3, #1
 337 017e 9B46     		mov	fp, r3
 338 0180 DA44     		add	r10, r10, fp
 339 0182 5346     		mov	r3, r10
 340 0184 9B00     		lsl	r3, r3, #2
 341 0186 5B59     		ldr	r3, [r3, r5]
ARM GAS  C:\Users\ddemidov\AppData\Local\Temp\ccTwWFqA.s 			page 30


 342 0188 9A46     		mov	r10, r3
1204:..\kronos-c-sdk\src\wolfSSL\wolfcrypt\src/aes.c ****             Te[1][GETBYTE(s3, 2)]  ^
 343              		.loc 1 1204 0
 344 018a 4B46     		mov	r3, r9
 345 018c 5246     		mov	r2, r10
 346 018e 5340     		eor	r3, r2
 347 0190 9946     		mov	r9, r3
1206:..\kronos-c-sdk\src\wolfSSL\wolfcrypt\src/aes.c ****             Te[2][GETBYTE(s0, 1)]  ^
 348              		.loc 1 1206 0
 349 0192 0B0A     		lsr	r3, r1, #8
 350 0194 2340     		and	r3, r4
 351 0196 9A46     		mov	r10, r3
 352 0198 8023     		mov	r3, #128
 353 019a 9B00     		lsl	r3, r3, #2
 354 019c 9B46     		mov	fp, r3
 355 019e DA44     		add	r10, r10, fp
 356 01a0 5346     		mov	r3, r10
 357 01a2 9B00     		lsl	r3, r3, #2
 358 01a4 5B59     		ldr	r3, [r3, r5]
 359 01a6 9A46     		mov	r10, r3
1205:..\kronos-c-sdk\src\wolfSSL\wolfcrypt\src/aes.c ****             Te[1][GETBYTE(s3, 2)]  ^
 360              		.loc 1 1205 0
 361 01a8 4B46     		mov	r3, r9
 362 01aa 5246     		mov	r2, r10
 363 01ac 5340     		eor	r3, r2
 364 01ae 9946     		mov	r9, r3
1207:..\kronos-c-sdk\src\wolfSSL\wolfcrypt\src/aes.c ****             Te[3][GETBYTE(s1, 0)]  ^
 365              		.loc 1 1207 0
 366 01b0 231C     		mov	r3, r4
 367 01b2 3B40     		and	r3, r7
 368 01b4 9A46     		mov	r10, r3
 369 01b6 C023     		mov	r3, #192
 370 01b8 9B00     		lsl	r3, r3, #2
 371 01ba 9B46     		mov	fp, r3
 372 01bc DA44     		add	r10, r10, fp
 373 01be 5346     		mov	r3, r10
 374 01c0 9B00     		lsl	r3, r3, #2
 375 01c2 5B59     		ldr	r3, [r3, r5]
 376 01c4 9A46     		mov	r10, r3
1206:..\kronos-c-sdk\src\wolfSSL\wolfcrypt\src/aes.c ****             Te[2][GETBYTE(s0, 1)]  ^
 377              		.loc 1 1206 0
 378 01c6 4B46     		mov	r3, r9
 379 01c8 5246     		mov	r2, r10
 380 01ca 5340     		eor	r3, r2
1203:..\kronos-c-sdk\src\wolfSSL\wolfcrypt\src/aes.c ****             Te[0][GETBYTE(s2, 3)] ^
 381              		.loc 1 1203 0
 382 01cc B269     		ldr	r2, [r6, #24]
 383 01ce 5340     		eor	r3, r2
 384 01d0 9946     		mov	r9, r3
 385              	.LVL36:
1208:..\kronos-c-sdk\src\wolfSSL\wolfcrypt\src/aes.c ****             rk[6];
1209:..\kronos-c-sdk\src\wolfSSL\wolfcrypt\src/aes.c ****         t3 =
1210:..\kronos-c-sdk\src\wolfSSL\wolfcrypt\src/aes.c ****             Te[0][GETBYTE(s3, 3)] ^
 386              		.loc 1 1210 0
 387 01d2 049B     		ldr	r3, [sp, #16]
 388              	.LVL37:
 389 01d4 1A0E     		lsr	r2, r3, #24
ARM GAS  C:\Users\ddemidov\AppData\Local\Temp\ccTwWFqA.s 			page 31


 390 01d6 9200     		lsl	r2, r2, #2
 391 01d8 5259     		ldr	r2, [r2, r5]
1211:..\kronos-c-sdk\src\wolfSSL\wolfcrypt\src/aes.c ****             Te[1][GETBYTE(s0, 2)]  ^
 392              		.loc 1 1211 0
 393 01da 090C     		lsr	r1, r1, #16
 394 01dc 2140     		and	r1, r4
 395 01de 0131     		add	r1, r1, #1
 396 01e0 FF31     		add	r1, r1, #255
 397 01e2 8900     		lsl	r1, r1, #2
 398 01e4 4959     		ldr	r1, [r1, r5]
1210:..\kronos-c-sdk\src\wolfSSL\wolfcrypt\src/aes.c ****             Te[1][GETBYTE(s0, 2)]  ^
 399              		.loc 1 1210 0
 400 01e6 4A40     		eor	r2, r1
1212:..\kronos-c-sdk\src\wolfSSL\wolfcrypt\src/aes.c ****             Te[2][GETBYTE(s1, 1)]  ^
 401              		.loc 1 1212 0
 402 01e8 3F0A     		lsr	r7, r7, #8
 403 01ea 2740     		and	r7, r4
 404 01ec 8023     		mov	r3, #128
 405 01ee 9B00     		lsl	r3, r3, #2
 406 01f0 9A46     		mov	r10, r3
 407 01f2 5744     		add	r7, r7, r10
 408 01f4 BF00     		lsl	r7, r7, #2
 409 01f6 7959     		ldr	r1, [r7, r5]
1211:..\kronos-c-sdk\src\wolfSSL\wolfcrypt\src/aes.c ****             Te[1][GETBYTE(s0, 2)]  ^
 410              		.loc 1 1211 0
 411 01f8 4A40     		eor	r2, r1
1213:..\kronos-c-sdk\src\wolfSSL\wolfcrypt\src/aes.c ****             Te[3][GETBYTE(s2, 0)]  ^
 412              		.loc 1 1213 0
 413 01fa 059B     		ldr	r3, [sp, #20]
 414 01fc 2340     		and	r3, r4
 415 01fe 5B44     		add	r3, r3, fp
 416 0200 9B00     		lsl	r3, r3, #2
 417 0202 5B59     		ldr	r3, [r3, r5]
1212:..\kronos-c-sdk\src\wolfSSL\wolfcrypt\src/aes.c ****             Te[2][GETBYTE(s1, 1)]  ^
 418              		.loc 1 1212 0
 419 0204 5A40     		eor	r2, r3
1209:..\kronos-c-sdk\src\wolfSSL\wolfcrypt\src/aes.c ****             Te[0][GETBYTE(s3, 3)] ^
 420              		.loc 1 1209 0
 421 0206 F369     		ldr	r3, [r6, #28]
 422 0208 5A40     		eor	r2, r3
 423              	.LVL38:
1214:..\kronos-c-sdk\src\wolfSSL\wolfcrypt\src/aes.c ****             rk[7];
1215:..\kronos-c-sdk\src\wolfSSL\wolfcrypt\src/aes.c **** 
1216:..\kronos-c-sdk\src\wolfSSL\wolfcrypt\src/aes.c ****         rk += 8;
 424              		.loc 1 1216 0
 425 020a 2036     		add	r6, r6, #32
 426              	.LVL39:
1217:..\kronos-c-sdk\src\wolfSSL\wolfcrypt\src/aes.c ****         if (--r == 0) {
 427              		.loc 1 1217 0
 428 020c 0123     		mov	r3, #1
 429 020e 5B42     		neg	r3, r3
 430 0210 9A46     		mov	r10, r3
 431 0212 D044     		add	r8, r8, r10
 432              	.LVL40:
 433 0214 4346     		mov	r3, r8
 434 0216 002B     		cmp	r3, #0
 435 0218 00D1     		bne	.LCB408
ARM GAS  C:\Users\ddemidov\AppData\Local\Temp\ccTwWFqA.s 			page 32


 436 021a 81E0     		b	.L3	@long jump
 437              	.LCB408:
1218:..\kronos-c-sdk\src\wolfSSL\wolfcrypt\src/aes.c ****             break;
1219:..\kronos-c-sdk\src\wolfSSL\wolfcrypt\src/aes.c ****         }
1220:..\kronos-c-sdk\src\wolfSSL\wolfcrypt\src/aes.c **** 
1221:..\kronos-c-sdk\src\wolfSSL\wolfcrypt\src/aes.c ****         s0 =
1222:..\kronos-c-sdk\src\wolfSSL\wolfcrypt\src/aes.c ****             Te[0][GETBYTE(t0, 3)] ^
 438              		.loc 1 1222 0
 439 021c 030E     		lsr	r3, r0, #24
 440 021e 9B00     		lsl	r3, r3, #2
 441 0220 5959     		ldr	r1, [r3, r5]
1223:..\kronos-c-sdk\src\wolfSSL\wolfcrypt\src/aes.c ****             Te[1][GETBYTE(t1, 2)] ^
 442              		.loc 1 1223 0
 443 0222 6346     		mov	r3, ip
 444 0224 1B0C     		lsr	r3, r3, #16
 445 0226 2340     		and	r3, r4
 446 0228 0133     		add	r3, r3, #1
 447 022a FF33     		add	r3, r3, #255
 448 022c 9B00     		lsl	r3, r3, #2
 449 022e 5F59     		ldr	r7, [r3, r5]
1222:..\kronos-c-sdk\src\wolfSSL\wolfcrypt\src/aes.c ****             Te[1][GETBYTE(t1, 2)] ^
 450              		.loc 1 1222 0
 451 0230 4F40     		eor	r7, r1
1224:..\kronos-c-sdk\src\wolfSSL\wolfcrypt\src/aes.c ****             Te[2][GETBYTE(t2, 1)] ^
 452              		.loc 1 1224 0
 453 0232 4B46     		mov	r3, r9
 454 0234 1B0A     		lsr	r3, r3, #8
 455 0236 2340     		and	r3, r4
 456 0238 8021     		mov	r1, #128
 457 023a 8900     		lsl	r1, r1, #2
 458 023c 8A46     		mov	r10, r1
 459 023e 5344     		add	r3, r3, r10
 460 0240 9B00     		lsl	r3, r3, #2
 461 0242 5B59     		ldr	r3, [r3, r5]
1223:..\kronos-c-sdk\src\wolfSSL\wolfcrypt\src/aes.c ****             Te[1][GETBYTE(t1, 2)] ^
 462              		.loc 1 1223 0
 463 0244 5F40     		eor	r7, r3
1225:..\kronos-c-sdk\src\wolfSSL\wolfcrypt\src/aes.c ****             Te[3][GETBYTE(t3, 0)] ^
 464              		.loc 1 1225 0
 465 0246 231C     		mov	r3, r4
 466 0248 1340     		and	r3, r2
 467 024a 5B44     		add	r3, r3, fp
 468 024c 9B00     		lsl	r3, r3, #2
 469 024e 5959     		ldr	r1, [r3, r5]
1224:..\kronos-c-sdk\src\wolfSSL\wolfcrypt\src/aes.c ****             Te[2][GETBYTE(t2, 1)] ^
 470              		.loc 1 1224 0
 471 0250 3B1C     		mov	r3, r7
 472 0252 4B40     		eor	r3, r1
 473              		.loc 1 1225 0
 474 0254 3168     		ldr	r1, [r6]
 475 0256 4B40     		eor	r3, r1
1221:..\kronos-c-sdk\src\wolfSSL\wolfcrypt\src/aes.c ****             Te[0][GETBYTE(t0, 3)] ^
 476              		.loc 1 1221 0
 477 0258 0793     		str	r3, [sp, #28]
1226:..\kronos-c-sdk\src\wolfSSL\wolfcrypt\src/aes.c ****             rk[0];
1227:..\kronos-c-sdk\src\wolfSSL\wolfcrypt\src/aes.c ****         s1 =
1228:..\kronos-c-sdk\src\wolfSSL\wolfcrypt\src/aes.c ****             Te[0][GETBYTE(t1, 3)] ^
ARM GAS  C:\Users\ddemidov\AppData\Local\Temp\ccTwWFqA.s 			page 33


 478              		.loc 1 1228 0
 479 025a 6346     		mov	r3, ip
 480 025c 1B0E     		lsr	r3, r3, #24
 481 025e 9B00     		lsl	r3, r3, #2
 482 0260 5959     		ldr	r1, [r3, r5]
1229:..\kronos-c-sdk\src\wolfSSL\wolfcrypt\src/aes.c ****             Te[1][GETBYTE(t2, 2)] ^
 483              		.loc 1 1229 0
 484 0262 4B46     		mov	r3, r9
 485 0264 1B0C     		lsr	r3, r3, #16
 486 0266 2340     		and	r3, r4
 487 0268 0133     		add	r3, r3, #1
 488 026a FF33     		add	r3, r3, #255
 489 026c 9B00     		lsl	r3, r3, #2
 490 026e 5F59     		ldr	r7, [r3, r5]
1228:..\kronos-c-sdk\src\wolfSSL\wolfcrypt\src/aes.c ****             Te[1][GETBYTE(t2, 2)] ^
 491              		.loc 1 1228 0
 492 0270 4F40     		eor	r7, r1
1230:..\kronos-c-sdk\src\wolfSSL\wolfcrypt\src/aes.c ****             Te[2][GETBYTE(t3, 1)] ^
 493              		.loc 1 1230 0
 494 0272 130A     		lsr	r3, r2, #8
 495 0274 2340     		and	r3, r4
 496 0276 8021     		mov	r1, #128
 497 0278 8900     		lsl	r1, r1, #2
 498 027a 8A46     		mov	r10, r1
 499 027c 5344     		add	r3, r3, r10
 500 027e 9B00     		lsl	r3, r3, #2
 501 0280 5B59     		ldr	r3, [r3, r5]
1229:..\kronos-c-sdk\src\wolfSSL\wolfcrypt\src/aes.c ****             Te[1][GETBYTE(t2, 2)] ^
 502              		.loc 1 1229 0
 503 0282 5F40     		eor	r7, r3
1231:..\kronos-c-sdk\src\wolfSSL\wolfcrypt\src/aes.c ****             Te[3][GETBYTE(t0, 0)] ^
 504              		.loc 1 1231 0
 505 0284 231C     		mov	r3, r4
 506 0286 0340     		and	r3, r0
 507 0288 5B44     		add	r3, r3, fp
 508 028a 9B00     		lsl	r3, r3, #2
 509 028c 5959     		ldr	r1, [r3, r5]
1230:..\kronos-c-sdk\src\wolfSSL\wolfcrypt\src/aes.c ****             Te[2][GETBYTE(t3, 1)] ^
 510              		.loc 1 1230 0
 511 028e 3B1C     		mov	r3, r7
 512 0290 4B40     		eor	r3, r1
 513              		.loc 1 1231 0
 514 0292 7168     		ldr	r1, [r6, #4]
 515 0294 4B40     		eor	r3, r1
1227:..\kronos-c-sdk\src\wolfSSL\wolfcrypt\src/aes.c ****             Te[0][GETBYTE(t1, 3)] ^
 516              		.loc 1 1227 0
 517 0296 0693     		str	r3, [sp, #24]
1232:..\kronos-c-sdk\src\wolfSSL\wolfcrypt\src/aes.c ****             rk[1];
1233:..\kronos-c-sdk\src\wolfSSL\wolfcrypt\src/aes.c ****         s2 =
1234:..\kronos-c-sdk\src\wolfSSL\wolfcrypt\src/aes.c ****             Te[0][GETBYTE(t2, 3)] ^
 518              		.loc 1 1234 0
 519 0298 4B46     		mov	r3, r9
 520 029a 1B0E     		lsr	r3, r3, #24
 521 029c 9B00     		lsl	r3, r3, #2
 522 029e 5959     		ldr	r1, [r3, r5]
1235:..\kronos-c-sdk\src\wolfSSL\wolfcrypt\src/aes.c ****             Te[1][GETBYTE(t3, 2)] ^
 523              		.loc 1 1235 0
ARM GAS  C:\Users\ddemidov\AppData\Local\Temp\ccTwWFqA.s 			page 34


 524 02a0 130C     		lsr	r3, r2, #16
 525 02a2 2340     		and	r3, r4
 526 02a4 0133     		add	r3, r3, #1
 527 02a6 FF33     		add	r3, r3, #255
 528 02a8 9B00     		lsl	r3, r3, #2
 529 02aa 5F59     		ldr	r7, [r3, r5]
1234:..\kronos-c-sdk\src\wolfSSL\wolfcrypt\src/aes.c ****             Te[1][GETBYTE(t3, 2)] ^
 530              		.loc 1 1234 0
 531 02ac 4F40     		eor	r7, r1
1236:..\kronos-c-sdk\src\wolfSSL\wolfcrypt\src/aes.c ****             Te[2][GETBYTE(t0, 1)] ^
 532              		.loc 1 1236 0
 533 02ae 030A     		lsr	r3, r0, #8
 534 02b0 2340     		and	r3, r4
 535 02b2 8021     		mov	r1, #128
 536 02b4 8900     		lsl	r1, r1, #2
 537 02b6 8A46     		mov	r10, r1
 538 02b8 5344     		add	r3, r3, r10
 539 02ba 9B00     		lsl	r3, r3, #2
 540 02bc 5B59     		ldr	r3, [r3, r5]
1235:..\kronos-c-sdk\src\wolfSSL\wolfcrypt\src/aes.c ****             Te[1][GETBYTE(t3, 2)] ^
 541              		.loc 1 1235 0
 542 02be 5F40     		eor	r7, r3
1237:..\kronos-c-sdk\src\wolfSSL\wolfcrypt\src/aes.c ****             Te[3][GETBYTE(t1, 0)] ^
 543              		.loc 1 1237 0
 544 02c0 6346     		mov	r3, ip
 545 02c2 2340     		and	r3, r4
 546 02c4 5B44     		add	r3, r3, fp
 547 02c6 9B00     		lsl	r3, r3, #2
 548 02c8 5959     		ldr	r1, [r3, r5]
1236:..\kronos-c-sdk\src\wolfSSL\wolfcrypt\src/aes.c ****             Te[2][GETBYTE(t0, 1)] ^
 549              		.loc 1 1236 0
 550 02ca 3B1C     		mov	r3, r7
 551 02cc 4B40     		eor	r3, r1
 552              		.loc 1 1237 0
 553 02ce B168     		ldr	r1, [r6, #8]
 554 02d0 4B40     		eor	r3, r1
1233:..\kronos-c-sdk\src\wolfSSL\wolfcrypt\src/aes.c ****             Te[0][GETBYTE(t2, 3)] ^
 555              		.loc 1 1233 0
 556 02d2 0593     		str	r3, [sp, #20]
1238:..\kronos-c-sdk\src\wolfSSL\wolfcrypt\src/aes.c ****             rk[2];
1239:..\kronos-c-sdk\src\wolfSSL\wolfcrypt\src/aes.c ****         s3 =
1240:..\kronos-c-sdk\src\wolfSSL\wolfcrypt\src/aes.c ****             Te[0][GETBYTE(t3, 3)] ^
 557              		.loc 1 1240 0
 558 02d4 120E     		lsr	r2, r2, #24
 559              	.LVL41:
 560 02d6 9200     		lsl	r2, r2, #2
 561 02d8 5159     		ldr	r1, [r2, r5]
1241:..\kronos-c-sdk\src\wolfSSL\wolfcrypt\src/aes.c ****             Te[1][GETBYTE(t0, 2)] ^
 562              		.loc 1 1241 0
 563 02da 000C     		lsr	r0, r0, #16
 564              	.LVL42:
 565 02dc 2040     		and	r0, r4
 566 02de 0130     		add	r0, r0, #1
 567 02e0 FF30     		add	r0, r0, #255
 568 02e2 8000     		lsl	r0, r0, #2
 569 02e4 4359     		ldr	r3, [r0, r5]
1240:..\kronos-c-sdk\src\wolfSSL\wolfcrypt\src/aes.c ****             Te[1][GETBYTE(t0, 2)] ^
ARM GAS  C:\Users\ddemidov\AppData\Local\Temp\ccTwWFqA.s 			page 35


 570              		.loc 1 1240 0
 571 02e6 5940     		eor	r1, r3
1242:..\kronos-c-sdk\src\wolfSSL\wolfcrypt\src/aes.c ****             Te[2][GETBYTE(t1, 1)] ^
 572              		.loc 1 1242 0
 573 02e8 6346     		mov	r3, ip
 574 02ea 1B0A     		lsr	r3, r3, #8
 575 02ec 2340     		and	r3, r4
 576 02ee 8022     		mov	r2, #128
 577 02f0 9200     		lsl	r2, r2, #2
 578 02f2 9446     		mov	ip, r2
 579              	.LVL43:
 580 02f4 6344     		add	r3, r3, ip
 581 02f6 9B00     		lsl	r3, r3, #2
 582 02f8 5A59     		ldr	r2, [r3, r5]
1241:..\kronos-c-sdk\src\wolfSSL\wolfcrypt\src/aes.c ****             Te[1][GETBYTE(t0, 2)] ^
 583              		.loc 1 1241 0
 584 02fa 0B1C     		mov	r3, r1
 585 02fc 5340     		eor	r3, r2
1243:..\kronos-c-sdk\src\wolfSSL\wolfcrypt\src/aes.c ****             Te[3][GETBYTE(t2, 0)] ^
 586              		.loc 1 1243 0
 587 02fe 4A46     		mov	r2, r9
 588 0300 1440     		and	r4, r2
 589 0302 5C44     		add	r4, r4, fp
 590 0304 A400     		lsl	r4, r4, #2
 591 0306 6259     		ldr	r2, [r4, r5]
1242:..\kronos-c-sdk\src\wolfSSL\wolfcrypt\src/aes.c ****             Te[2][GETBYTE(t1, 1)] ^
 592              		.loc 1 1242 0
 593 0308 5340     		eor	r3, r2
 594              		.loc 1 1243 0
 595 030a F268     		ldr	r2, [r6, #12]
 596 030c 5340     		eor	r3, r2
1239:..\kronos-c-sdk\src\wolfSSL\wolfcrypt\src/aes.c ****             Te[0][GETBYTE(t3, 3)] ^
 597              		.loc 1 1239 0
 598 030e 0493     		str	r3, [sp, #16]
1244:..\kronos-c-sdk\src\wolfSSL\wolfcrypt\src/aes.c ****             rk[3];
1245:..\kronos-c-sdk\src\wolfSSL\wolfcrypt\src/aes.c ****     }
 599              		.loc 1 1245 0
 600 0310 CFE6     		b	.L4
 601              	.L7:
 602 0312 C046     		.align	2
 603              	.L6:
 604 0314 00FF00FF 		.word	-16711936
 605 0318 FF00FF00 		.word	16711935
 606 031c 00000000 		.word	.LANCHOR0
 607              	.LVL44:
 608              	.L3:
 609 0320 B346     		mov	fp, r6
 610 0322 4E46     		mov	r6, r9
 611              	.LVL45:
 612 0324 111C     		mov	r1, r2
 613 0326 6246     		mov	r2, ip
 614              	.LVL46:
1246:..\kronos-c-sdk\src\wolfSSL\wolfcrypt\src/aes.c **** 
1247:..\kronos-c-sdk\src\wolfSSL\wolfcrypt\src/aes.c ****     /*
1248:..\kronos-c-sdk\src\wolfSSL\wolfcrypt\src/aes.c ****      * apply last round and
1249:..\kronos-c-sdk\src\wolfSSL\wolfcrypt\src/aes.c ****      * map cipher state to byte array block:
1250:..\kronos-c-sdk\src\wolfSSL\wolfcrypt\src/aes.c ****      */
ARM GAS  C:\Users\ddemidov\AppData\Local\Temp\ccTwWFqA.s 			page 36


1251:..\kronos-c-sdk\src\wolfSSL\wolfcrypt\src/aes.c **** 
1252:..\kronos-c-sdk\src\wolfSSL\wolfcrypt\src/aes.c ****     s0 =
1253:..\kronos-c-sdk\src\wolfSSL\wolfcrypt\src/aes.c ****         (Te[4][GETBYTE(t0, 3)] & 0xff000000) ^
 615              		.loc 1 1253 0
 616 0328 040E     		lsr	r4, r0, #24
 617 032a 834D     		ldr	r5, .L8
 618 032c 8023     		mov	r3, #128
 619              	.LVL47:
 620 032e DB00     		lsl	r3, r3, #3
 621 0330 9C46     		mov	ip, r3
 622              	.LVL48:
 623 0332 6444     		add	r4, r4, ip
 624 0334 A400     		lsl	r4, r4, #2
 625 0336 6759     		ldr	r7, [r4, r5]
 626 0338 3F0E     		lsr	r7, r7, #24
 627 033a 3B06     		lsl	r3, r7, #24
 628 033c 9C46     		mov	ip, r3
1254:..\kronos-c-sdk\src\wolfSSL\wolfcrypt\src/aes.c ****         (Te[4][GETBYTE(t1, 2)] & 0x00ff0000) ^
 629              		.loc 1 1254 0
 630 033e 170C     		lsr	r7, r2, #16
 631 0340 FF24     		mov	r4, #255
 632 0342 2740     		and	r7, r4
 633 0344 8023     		mov	r3, #128
 634 0346 DB00     		lsl	r3, r3, #3
 635 0348 9846     		mov	r8, r3
 636              	.LVL49:
 637 034a 4744     		add	r7, r7, r8
 638 034c BF00     		lsl	r7, r7, #2
 639 034e 7F59     		ldr	r7, [r7, r5]
 640 0350 FF23     		mov	r3, #255
 641 0352 1B04     		lsl	r3, r3, #16
 642 0354 9846     		mov	r8, r3
 643 0356 1F40     		and	r7, r3
1253:..\kronos-c-sdk\src\wolfSSL\wolfcrypt\src/aes.c ****         (Te[4][GETBYTE(t1, 2)] & 0x00ff0000) ^
 644              		.loc 1 1253 0
 645 0358 6346     		mov	r3, ip
 646 035a 7B40     		eor	r3, r7
 647 035c 9A46     		mov	r10, r3
1255:..\kronos-c-sdk\src\wolfSSL\wolfcrypt\src/aes.c ****         (Te[4][GETBYTE(t2, 1)] & 0x0000ff00) ^
 648              		.loc 1 1255 0
 649 035e 370A     		lsr	r7, r6, #8
 650 0360 2740     		and	r7, r4
 651 0362 8023     		mov	r3, #128
 652 0364 DB00     		lsl	r3, r3, #3
 653 0366 9C46     		mov	ip, r3
 654 0368 6744     		add	r7, r7, ip
 655 036a BF00     		lsl	r7, r7, #2
 656 036c 7F59     		ldr	r7, [r7, r5]
 657 036e FF23     		mov	r3, #255
 658 0370 1B02     		lsl	r3, r3, #8
 659 0372 9C46     		mov	ip, r3
 660 0374 1F40     		and	r7, r3
1254:..\kronos-c-sdk\src\wolfSSL\wolfcrypt\src/aes.c ****         (Te[4][GETBYTE(t1, 2)] & 0x00ff0000) ^
 661              		.loc 1 1254 0
 662 0376 5346     		mov	r3, r10
 663 0378 7B40     		eor	r3, r7
 664 037a 9A46     		mov	r10, r3
ARM GAS  C:\Users\ddemidov\AppData\Local\Temp\ccTwWFqA.s 			page 37


1256:..\kronos-c-sdk\src\wolfSSL\wolfcrypt\src/aes.c ****         (Te[4][GETBYTE(t3, 0)] & 0x000000ff) ^
 665              		.loc 1 1256 0
 666 037c 271C     		mov	r7, r4
 667 037e 0F40     		and	r7, r1
 668 0380 8023     		mov	r3, #128
 669 0382 DB00     		lsl	r3, r3, #3
 670 0384 9946     		mov	r9, r3
 671              	.LVL50:
 672 0386 4F44     		add	r7, r7, r9
 673 0388 BF00     		lsl	r7, r7, #2
 674 038a 7F59     		ldr	r7, [r7, r5]
 675 038c 2740     		and	r7, r4
1255:..\kronos-c-sdk\src\wolfSSL\wolfcrypt\src/aes.c ****         (Te[4][GETBYTE(t2, 1)] & 0x0000ff00) ^
 676              		.loc 1 1255 0
 677 038e 5346     		mov	r3, r10
 678 0390 5F40     		eor	r7, r3
 679              		.loc 1 1256 0
 680 0392 5B46     		mov	r3, fp
 681 0394 0093     		str	r3, [sp]
 682              	.LVL51:
 683 0396 1B68     		ldr	r3, [r3]
 684 0398 5F40     		eor	r7, r3
1257:..\kronos-c-sdk\src\wolfSSL\wolfcrypt\src/aes.c ****         rk[0];
1258:..\kronos-c-sdk\src\wolfSSL\wolfcrypt\src/aes.c ****     s1 =
1259:..\kronos-c-sdk\src\wolfSSL\wolfcrypt\src/aes.c ****         (Te[4][GETBYTE(t1, 3)] & 0xff000000) ^
 685              		.loc 1 1259 0
 686 039a 130E     		lsr	r3, r2, #24
 687 039c 9A46     		mov	r10, r3
 688 039e CA44     		add	r10, r10, r9
 689 03a0 5346     		mov	r3, r10
 690 03a2 9B00     		lsl	r3, r3, #2
 691 03a4 5B59     		ldr	r3, [r3, r5]
 692 03a6 1B0E     		lsr	r3, r3, #24
 693 03a8 1B06     		lsl	r3, r3, #24
 694 03aa 9B46     		mov	fp, r3
 695              	.LVL52:
1260:..\kronos-c-sdk\src\wolfSSL\wolfcrypt\src/aes.c ****         (Te[4][GETBYTE(t2, 2)] & 0x00ff0000) ^
 696              		.loc 1 1260 0
 697 03ac 0196     		str	r6, [sp, #4]
 698 03ae 330C     		lsr	r3, r6, #16
 699 03b0 2340     		and	r3, r4
 700 03b2 9A46     		mov	r10, r3
 701 03b4 CA44     		add	r10, r10, r9
 702 03b6 5346     		mov	r3, r10
 703 03b8 9B00     		lsl	r3, r3, #2
 704 03ba 5B59     		ldr	r3, [r3, r5]
 705 03bc 4646     		mov	r6, r8
 706              	.LVL53:
 707 03be 3340     		and	r3, r6
 708 03c0 9A46     		mov	r10, r3
1259:..\kronos-c-sdk\src\wolfSSL\wolfcrypt\src/aes.c ****         (Te[4][GETBYTE(t2, 2)] & 0x00ff0000) ^
 709              		.loc 1 1259 0
 710 03c2 5B46     		mov	r3, fp
 711 03c4 5646     		mov	r6, r10
 712 03c6 7340     		eor	r3, r6
 713 03c8 9B46     		mov	fp, r3
1261:..\kronos-c-sdk\src\wolfSSL\wolfcrypt\src/aes.c ****         (Te[4][GETBYTE(t3, 1)] & 0x0000ff00) ^
ARM GAS  C:\Users\ddemidov\AppData\Local\Temp\ccTwWFqA.s 			page 38


 714              		.loc 1 1261 0
 715 03ca 0B0A     		lsr	r3, r1, #8
 716 03cc 2340     		and	r3, r4
 717 03ce 9A46     		mov	r10, r3
 718 03d0 CA44     		add	r10, r10, r9
 719 03d2 5346     		mov	r3, r10
 720 03d4 9B00     		lsl	r3, r3, #2
 721 03d6 5B59     		ldr	r3, [r3, r5]
 722 03d8 6646     		mov	r6, ip
 723 03da 3340     		and	r3, r6
 724 03dc 9A46     		mov	r10, r3
1260:..\kronos-c-sdk\src\wolfSSL\wolfcrypt\src/aes.c ****         (Te[4][GETBYTE(t2, 2)] & 0x00ff0000) ^
 725              		.loc 1 1260 0
 726 03de 5B46     		mov	r3, fp
 727 03e0 5646     		mov	r6, r10
 728 03e2 7340     		eor	r3, r6
 729 03e4 9B46     		mov	fp, r3
1262:..\kronos-c-sdk\src\wolfSSL\wolfcrypt\src/aes.c ****         (Te[4][GETBYTE(t0, 0)] & 0x000000ff) ^
 730              		.loc 1 1262 0
 731 03e6 231C     		mov	r3, r4
 732 03e8 0340     		and	r3, r0
 733 03ea 9A46     		mov	r10, r3
 734 03ec CA44     		add	r10, r10, r9
 735 03ee 5346     		mov	r3, r10
 736 03f0 9B00     		lsl	r3, r3, #2
 737 03f2 5B59     		ldr	r3, [r3, r5]
 738 03f4 2340     		and	r3, r4
 739 03f6 9A46     		mov	r10, r3
1261:..\kronos-c-sdk\src\wolfSSL\wolfcrypt\src/aes.c ****         (Te[4][GETBYTE(t3, 1)] & 0x0000ff00) ^
 740              		.loc 1 1261 0
 741 03f8 5B46     		mov	r3, fp
 742 03fa 5646     		mov	r6, r10
 743 03fc 7340     		eor	r3, r6
 744              		.loc 1 1262 0
 745 03fe 009E     		ldr	r6, [sp]
 746 0400 7668     		ldr	r6, [r6, #4]
 747 0402 7340     		eor	r3, r6
 748 0404 0293     		str	r3, [sp, #8]
1263:..\kronos-c-sdk\src\wolfSSL\wolfcrypt\src/aes.c ****         rk[1];
1264:..\kronos-c-sdk\src\wolfSSL\wolfcrypt\src/aes.c ****     s2 =
1265:..\kronos-c-sdk\src\wolfSSL\wolfcrypt\src/aes.c ****         (Te[4][GETBYTE(t2, 3)] & 0xff000000) ^
 749              		.loc 1 1265 0
 750 0406 019B     		ldr	r3, [sp, #4]
 751 0408 1B0E     		lsr	r3, r3, #24
 752 040a 9A46     		mov	r10, r3
 753 040c CA44     		add	r10, r10, r9
 754 040e 5346     		mov	r3, r10
 755 0410 9B00     		lsl	r3, r3, #2
 756 0412 5B59     		ldr	r3, [r3, r5]
 757 0414 1B0E     		lsr	r3, r3, #24
 758 0416 1B06     		lsl	r3, r3, #24
 759 0418 9B46     		mov	fp, r3
1266:..\kronos-c-sdk\src\wolfSSL\wolfcrypt\src/aes.c ****         (Te[4][GETBYTE(t3, 2)] & 0x00ff0000) ^
 760              		.loc 1 1266 0
 761 041a 0B0C     		lsr	r3, r1, #16
 762 041c 2340     		and	r3, r4
 763 041e 9A46     		mov	r10, r3
ARM GAS  C:\Users\ddemidov\AppData\Local\Temp\ccTwWFqA.s 			page 39


 764 0420 CA44     		add	r10, r10, r9
 765 0422 5346     		mov	r3, r10
 766 0424 9B00     		lsl	r3, r3, #2
 767 0426 5B59     		ldr	r3, [r3, r5]
 768 0428 4646     		mov	r6, r8
 769 042a 3340     		and	r3, r6
 770 042c 9A46     		mov	r10, r3
1265:..\kronos-c-sdk\src\wolfSSL\wolfcrypt\src/aes.c ****         (Te[4][GETBYTE(t3, 2)] & 0x00ff0000) ^
 771              		.loc 1 1265 0
 772 042e 5B46     		mov	r3, fp
 773 0430 5646     		mov	r6, r10
 774 0432 7340     		eor	r3, r6
 775 0434 9B46     		mov	fp, r3
1267:..\kronos-c-sdk\src\wolfSSL\wolfcrypt\src/aes.c ****         (Te[4][GETBYTE(t0, 1)] & 0x0000ff00) ^
 776              		.loc 1 1267 0
 777 0436 030A     		lsr	r3, r0, #8
 778 0438 2340     		and	r3, r4
 779 043a 9A46     		mov	r10, r3
 780 043c CA44     		add	r10, r10, r9
 781 043e 5346     		mov	r3, r10
 782 0440 9B00     		lsl	r3, r3, #2
 783 0442 5B59     		ldr	r3, [r3, r5]
 784 0444 6646     		mov	r6, ip
 785 0446 3340     		and	r3, r6
 786 0448 9A46     		mov	r10, r3
1266:..\kronos-c-sdk\src\wolfSSL\wolfcrypt\src/aes.c ****         (Te[4][GETBYTE(t3, 2)] & 0x00ff0000) ^
 787              		.loc 1 1266 0
 788 044a 5B46     		mov	r3, fp
 789 044c 5646     		mov	r6, r10
 790 044e 7340     		eor	r3, r6
 791 0450 9B46     		mov	fp, r3
1268:..\kronos-c-sdk\src\wolfSSL\wolfcrypt\src/aes.c ****         (Te[4][GETBYTE(t1, 0)] & 0x000000ff) ^
 792              		.loc 1 1268 0
 793 0452 231C     		mov	r3, r4
 794 0454 1340     		and	r3, r2
 795 0456 9A46     		mov	r10, r3
 796 0458 CA44     		add	r10, r10, r9
 797 045a 5346     		mov	r3, r10
 798 045c 9B00     		lsl	r3, r3, #2
 799 045e 5B59     		ldr	r3, [r3, r5]
 800 0460 2340     		and	r3, r4
 801 0462 9A46     		mov	r10, r3
1267:..\kronos-c-sdk\src\wolfSSL\wolfcrypt\src/aes.c ****         (Te[4][GETBYTE(t0, 1)] & 0x0000ff00) ^
 802              		.loc 1 1267 0
 803 0464 5B46     		mov	r3, fp
 804 0466 5646     		mov	r6, r10
 805 0468 7340     		eor	r3, r6
 806              		.loc 1 1268 0
 807 046a 009E     		ldr	r6, [sp]
 808 046c B668     		ldr	r6, [r6, #8]
 809 046e 7340     		eor	r3, r6
 810 0470 9B46     		mov	fp, r3
1269:..\kronos-c-sdk\src\wolfSSL\wolfcrypt\src/aes.c ****         rk[2];
1270:..\kronos-c-sdk\src\wolfSSL\wolfcrypt\src/aes.c ****     s3 =
1271:..\kronos-c-sdk\src\wolfSSL\wolfcrypt\src/aes.c ****         (Te[4][GETBYTE(t3, 3)] & 0xff000000) ^
 811              		.loc 1 1271 0
 812 0472 090E     		lsr	r1, r1, #24
ARM GAS  C:\Users\ddemidov\AppData\Local\Temp\ccTwWFqA.s 			page 40


 813              	.LVL54:
 814 0474 4944     		add	r1, r1, r9
 815 0476 8900     		lsl	r1, r1, #2
 816 0478 4959     		ldr	r1, [r1, r5]
 817 047a 090E     		lsr	r1, r1, #24
 818 047c 0906     		lsl	r1, r1, #24
1272:..\kronos-c-sdk\src\wolfSSL\wolfcrypt\src/aes.c ****         (Te[4][GETBYTE(t0, 2)] & 0x00ff0000) ^
 819              		.loc 1 1272 0
 820 047e 000C     		lsr	r0, r0, #16
 821              	.LVL55:
 822 0480 2040     		and	r0, r4
 823 0482 4844     		add	r0, r0, r9
 824 0484 8000     		lsl	r0, r0, #2
 825 0486 4059     		ldr	r0, [r0, r5]
 826 0488 4346     		mov	r3, r8
 827 048a 1840     		and	r0, r3
1271:..\kronos-c-sdk\src\wolfSSL\wolfcrypt\src/aes.c ****         (Te[4][GETBYTE(t0, 2)] & 0x00ff0000) ^
 828              		.loc 1 1271 0
 829 048c 4140     		eor	r1, r0
1273:..\kronos-c-sdk\src\wolfSSL\wolfcrypt\src/aes.c ****         (Te[4][GETBYTE(t1, 1)] & 0x0000ff00) ^
 830              		.loc 1 1273 0
 831 048e 120A     		lsr	r2, r2, #8
 832              	.LVL56:
 833 0490 2240     		and	r2, r4
 834 0492 4A44     		add	r2, r2, r9
 835 0494 9200     		lsl	r2, r2, #2
 836 0496 5259     		ldr	r2, [r2, r5]
 837 0498 6346     		mov	r3, ip
 838 049a 1A40     		and	r2, r3
1272:..\kronos-c-sdk\src\wolfSSL\wolfcrypt\src/aes.c ****         (Te[4][GETBYTE(t0, 2)] & 0x00ff0000) ^
 839              		.loc 1 1272 0
 840 049c 5140     		eor	r1, r2
1274:..\kronos-c-sdk\src\wolfSSL\wolfcrypt\src/aes.c ****         (Te[4][GETBYTE(t2, 0)] & 0x000000ff) ^
 841              		.loc 1 1274 0
 842 049e 019B     		ldr	r3, [sp, #4]
 843 04a0 2340     		and	r3, r4
 844 04a2 4B44     		add	r3, r3, r9
 845 04a4 9B00     		lsl	r3, r3, #2
 846 04a6 5B59     		ldr	r3, [r3, r5]
 847 04a8 1C40     		and	r4, r3
 848              	.LVL57:
1273:..\kronos-c-sdk\src\wolfSSL\wolfcrypt\src/aes.c ****         (Te[4][GETBYTE(t1, 1)] & 0x0000ff00) ^
 849              		.loc 1 1273 0
 850 04aa 6140     		eor	r1, r4
1275:..\kronos-c-sdk\src\wolfSSL\wolfcrypt\src/aes.c ****         rk[3];
 851              		.loc 1 1275 0
 852 04ac 009E     		ldr	r6, [sp]
 853 04ae F368     		ldr	r3, [r6, #12]
1274:..\kronos-c-sdk\src\wolfSSL\wolfcrypt\src/aes.c ****         (Te[4][GETBYTE(t2, 0)] & 0x000000ff) ^
 854              		.loc 1 1274 0
 855 04b0 5940     		eor	r1, r3
 856              	.LVL58:
 857              	.LBB98:
 858              	.LBB99:
 859              		.loc 2 95 0
 860 04b2 224D     		ldr	r5, .L8+4
 861              	.LVL59:
ARM GAS  C:\Users\ddemidov\AppData\Local\Temp\ccTwWFqA.s 			page 41


 862 04b4 3A1C     		mov	r2, r7
 863 04b6 2A40     		and	r2, r5
 864 04b8 120A     		lsr	r2, r2, #8
 865 04ba 214B     		ldr	r3, .L8+8
 866 04bc 1F40     		and	r7, r3
 867              	.LVL60:
 868 04be 3F02     		lsl	r7, r7, #8
 869 04c0 1743     		orr	r7, r2
 870              	.LVL61:
 871              	.LBB100:
 872              	.LBB101:
  70:..\kronos-c-sdk\src\wolfSSL\wolfcrypt\src/misc.c ****     }   
 873              		.loc 2 70 0
 874 04c2 1020     		mov	r0, #16
 875 04c4 C741     		ror	r7, r7, r0
 876              	.LVL62:
 877              	.LBE101:
 878              	.LBE100:
 879              	.LBE99:
 880              	.LBE98:
1276:..\kronos-c-sdk\src\wolfSSL\wolfcrypt\src/aes.c **** 
1277:..\kronos-c-sdk\src\wolfSSL\wolfcrypt\src/aes.c ****     /* write out */
1278:..\kronos-c-sdk\src\wolfSSL\wolfcrypt\src/aes.c ****     #ifdef LITTLE_ENDIAN_ORDER
1279:..\kronos-c-sdk\src\wolfSSL\wolfcrypt\src/aes.c ****         s0 = ByteReverseWord32(s0);
 881              		.loc 1 1279 0
 882 04c6 0797     		str	r7, [sp, #28]
 883              	.LVL63:
 884              	.LBB102:
 885              	.LBB103:
 886              		.loc 2 95 0
 887 04c8 029E     		ldr	r6, [sp, #8]
 888 04ca 321C     		mov	r2, r6
 889 04cc 2A40     		and	r2, r5
 890 04ce 140A     		lsr	r4, r2, #8
 891 04d0 321C     		mov	r2, r6
 892 04d2 1A40     		and	r2, r3
 893 04d4 1202     		lsl	r2, r2, #8
 894 04d6 2243     		orr	r2, r4
 895              	.LVL64:
 896              	.LBB104:
 897              	.LBB105:
  70:..\kronos-c-sdk\src\wolfSSL\wolfcrypt\src/misc.c ****     }   
 898              		.loc 2 70 0
 899 04d8 C241     		ror	r2, r2, r0
 900              	.LVL65:
 901              	.LBE105:
 902              	.LBE104:
 903              	.LBE103:
 904              	.LBE102:
1280:..\kronos-c-sdk\src\wolfSSL\wolfcrypt\src/aes.c ****         s1 = ByteReverseWord32(s1);
 905              		.loc 1 1280 0
 906 04da 0692     		str	r2, [sp, #24]
 907              	.LVL66:
 908              	.LBB106:
 909              	.LBB107:
 910              		.loc 2 95 0
 911 04dc 5A46     		mov	r2, fp
ARM GAS  C:\Users\ddemidov\AppData\Local\Temp\ccTwWFqA.s 			page 42


 912 04de 2A40     		and	r2, r5
 913 04e0 140A     		lsr	r4, r2, #8
 914              	.LVL67:
 915 04e2 5A46     		mov	r2, fp
 916 04e4 1A40     		and	r2, r3
 917 04e6 1202     		lsl	r2, r2, #8
 918 04e8 2243     		orr	r2, r4
 919              	.LVL68:
 920              	.LBB108:
 921              	.LBB109:
  70:..\kronos-c-sdk\src\wolfSSL\wolfcrypt\src/misc.c ****     }   
 922              		.loc 2 70 0
 923 04ea C241     		ror	r2, r2, r0
 924              	.LVL69:
 925              	.LBE109:
 926              	.LBE108:
 927              	.LBE107:
 928              	.LBE106:
1281:..\kronos-c-sdk\src\wolfSSL\wolfcrypt\src/aes.c ****         s2 = ByteReverseWord32(s2);
 929              		.loc 1 1281 0
 930 04ec 0592     		str	r2, [sp, #20]
 931              	.LVL70:
 932              	.LBB110:
 933              	.LBB111:
 934              		.loc 2 95 0
 935 04ee 0D40     		and	r5, r1
 936              	.LVL71:
 937 04f0 2D0A     		lsr	r5, r5, #8
 938 04f2 0B40     		and	r3, r1
 939              	.LVL72:
 940 04f4 1B02     		lsl	r3, r3, #8
 941 04f6 2B43     		orr	r3, r5
 942              	.LVL73:
 943              	.LBB112:
 944              	.LBB113:
  70:..\kronos-c-sdk\src\wolfSSL\wolfcrypt\src/misc.c ****     }   
 945              		.loc 2 70 0
 946 04f8 C341     		ror	r3, r3, r0
 947              	.LVL74:
 948              	.LBE113:
 949              	.LBE112:
 950              	.LBE111:
 951              	.LBE110:
1282:..\kronos-c-sdk\src\wolfSSL\wolfcrypt\src/aes.c ****         s3 = ByteReverseWord32(s3);
 952              		.loc 1 1282 0
 953 04fa 0493     		str	r3, [sp, #16]
1283:..\kronos-c-sdk\src\wolfSSL\wolfcrypt\src/aes.c ****     #endif
1284:..\kronos-c-sdk\src\wolfSSL\wolfcrypt\src/aes.c **** 
1285:..\kronos-c-sdk\src\wolfSSL\wolfcrypt\src/aes.c ****     XMEMCPY(outBlock,                  &s0, sizeof(s0));
 954              		.loc 1 1285 0
 955 04fc 039C     		ldr	r4, [sp, #12]
 956              	.LVL75:
 957 04fe 201C     		mov	r0, r4
 958 0500 07A9     		add	r1, sp, #28
 959              	.LVL76:
 960 0502 0422     		mov	r2, #4
 961 0504 FFF7FEFF 		bl	memcpy
ARM GAS  C:\Users\ddemidov\AppData\Local\Temp\ccTwWFqA.s 			page 43


 962              	.LVL77:
1286:..\kronos-c-sdk\src\wolfSSL\wolfcrypt\src/aes.c ****     XMEMCPY(outBlock + sizeof(s0),     &s1, sizeof(s1));
 963              		.loc 1 1286 0
 964 0508 201D     		add	r0, r4, #4
 965 050a 06A9     		add	r1, sp, #24
 966 050c 0422     		mov	r2, #4
 967 050e FFF7FEFF 		bl	memcpy
 968              	.LVL78:
1287:..\kronos-c-sdk\src\wolfSSL\wolfcrypt\src/aes.c ****     XMEMCPY(outBlock + 2 * sizeof(s0), &s2, sizeof(s2));
 969              		.loc 1 1287 0
 970 0512 201C     		mov	r0, r4
 971 0514 0830     		add	r0, r0, #8
 972 0516 05A9     		add	r1, sp, #20
 973 0518 0422     		mov	r2, #4
 974 051a FFF7FEFF 		bl	memcpy
 975              	.LVL79:
1288:..\kronos-c-sdk\src\wolfSSL\wolfcrypt\src/aes.c ****     XMEMCPY(outBlock + 3 * sizeof(s0), &s3, sizeof(s3));
 976              		.loc 1 1288 0
 977 051e 201C     		mov	r0, r4
 978 0520 0C30     		add	r0, r0, #12
 979 0522 04A9     		add	r1, sp, #16
 980 0524 0422     		mov	r2, #4
 981 0526 FFF7FEFF 		bl	memcpy
 982              	.LVL80:
 983              	.L1:
1289:..\kronos-c-sdk\src\wolfSSL\wolfcrypt\src/aes.c **** }
 984              		.loc 1 1289 0
 985 052a 09B0     		add	sp, sp, #36
 986              	.LVL81:
 987              		@ sp needed
 988 052c 3CBC     		pop	{r2, r3, r4, r5}
 989 052e 9046     		mov	r8, r2
 990 0530 9946     		mov	r9, r3
 991 0532 A246     		mov	r10, r4
 992 0534 AB46     		mov	fp, r5
 993 0536 F0BD     		pop	{r4, r5, r6, r7, pc}
 994              	.L9:
 995              		.align	2
 996              	.L8:
 997 0538 00000000 		.word	.LANCHOR0
 998 053c 00FF00FF 		.word	-16711936
 999 0540 FF00FF00 		.word	16711935
 1000              		.cfi_endproc
 1001              	.LFE12:
 1002              		.size	wc_AesEncrypt, .-wc_AesEncrypt
 1003              		.section	.text.wc_AesDecrypt,"ax",%progbits
 1004              		.align	2
 1005              		.code	16
 1006              		.thumb_func
 1007              		.type	wc_AesDecrypt, %function
 1008              	wc_AesDecrypt:
 1009              	.LFB13:
1290:..\kronos-c-sdk\src\wolfSSL\wolfcrypt\src/aes.c **** #endif /* HAVE_AES_CBC || WOLFSSL_AES_DIRECT || HAVE_AESGCM */
1291:..\kronos-c-sdk\src\wolfSSL\wolfcrypt\src/aes.c **** 
1292:..\kronos-c-sdk\src\wolfSSL\wolfcrypt\src/aes.c **** #ifdef HAVE_AES_DECRYPT
1293:..\kronos-c-sdk\src\wolfSSL\wolfcrypt\src/aes.c **** #if defined(HAVE_AES_CBC) || defined(WOLFSSL_AES_DIRECT)
1294:..\kronos-c-sdk\src\wolfSSL\wolfcrypt\src/aes.c **** static void wc_AesDecrypt(Aes* aes, const byte* inBlock, byte* outBlock)
ARM GAS  C:\Users\ddemidov\AppData\Local\Temp\ccTwWFqA.s 			page 44


1295:..\kronos-c-sdk\src\wolfSSL\wolfcrypt\src/aes.c **** {
 1010              		.loc 1 1295 0
 1011              		.cfi_startproc
 1012              	.LVL82:
 1013 0000 F0B5     		push	{r4, r5, r6, r7, lr}
 1014              		.cfi_def_cfa_offset 20
 1015              		.cfi_offset 4, -20
 1016              		.cfi_offset 5, -16
 1017              		.cfi_offset 6, -12
 1018              		.cfi_offset 7, -8
 1019              		.cfi_offset 14, -4
 1020 0002 5F46     		mov	r7, fp
 1021 0004 5646     		mov	r6, r10
 1022 0006 4D46     		mov	r5, r9
 1023 0008 4446     		mov	r4, r8
 1024 000a F0B4     		push	{r4, r5, r6, r7}
 1025              		.cfi_def_cfa_offset 36
 1026              		.cfi_offset 8, -36
 1027              		.cfi_offset 9, -32
 1028              		.cfi_offset 10, -28
 1029              		.cfi_offset 11, -24
 1030 000c 89B0     		sub	sp, sp, #36
 1031              		.cfi_def_cfa_offset 72
1296:..\kronos-c-sdk\src\wolfSSL\wolfcrypt\src/aes.c ****     word32 s0, s1, s2, s3;
1297:..\kronos-c-sdk\src\wolfSSL\wolfcrypt\src/aes.c ****     word32 t0, t1, t2, t3;
1298:..\kronos-c-sdk\src\wolfSSL\wolfcrypt\src/aes.c ****     word32 r = aes->rounds >> 1;
 1032              		.loc 1 1298 0
 1033 000e F023     		mov	r3, #240
 1034 0010 C358     		ldr	r3, [r0, r3]
 1035 0012 5B08     		lsr	r3, r3, #1
 1036 0014 9846     		mov	r8, r3
 1037              	.LVL83:
1299:..\kronos-c-sdk\src\wolfSSL\wolfcrypt\src/aes.c **** 
1300:..\kronos-c-sdk\src\wolfSSL\wolfcrypt\src/aes.c ****     const word32* rk = aes->key;
 1038              		.loc 1 1300 0
 1039 0016 0090     		str	r0, [sp]
 1040              	.LVL84:
1301:..\kronos-c-sdk\src\wolfSSL\wolfcrypt\src/aes.c ****     if (r > 7 || r == 0) {
 1041              		.loc 1 1301 0
 1042 0018 013B     		sub	r3, r3, #1
 1043              	.LVL85:
 1044 001a 062B     		cmp	r3, #6
 1045 001c 00D9     		bls	.LCB1029
 1046 001e 78E2     		b	.L10	@long jump
 1047              	.LCB1029:
 1048 0020 0392     		str	r2, [sp, #12]
 1049 0022 0D1C     		mov	r5, r1
 1050 0024 041C     		mov	r4, r0
1302:..\kronos-c-sdk\src\wolfSSL\wolfcrypt\src/aes.c ****         WOLFSSL_MSG("AesDecrypt encountered improper key, set it up");
1303:..\kronos-c-sdk\src\wolfSSL\wolfcrypt\src/aes.c ****         return;  /* stop instead of segfaulting, set up your keys! */
1304:..\kronos-c-sdk\src\wolfSSL\wolfcrypt\src/aes.c ****     }
1305:..\kronos-c-sdk\src\wolfSSL\wolfcrypt\src/aes.c **** #ifdef WOLFSSL_AESNI
1306:..\kronos-c-sdk\src\wolfSSL\wolfcrypt\src/aes.c ****     if (haveAESNI && aes->use_aesni) {
1307:..\kronos-c-sdk\src\wolfSSL\wolfcrypt\src/aes.c ****         #ifdef DEBUG_AESNI
1308:..\kronos-c-sdk\src\wolfSSL\wolfcrypt\src/aes.c ****             printf("about to aes decrypt\n");
1309:..\kronos-c-sdk\src\wolfSSL\wolfcrypt\src/aes.c ****             printf("in  = %p\n", inBlock);
1310:..\kronos-c-sdk\src\wolfSSL\wolfcrypt\src/aes.c ****             printf("out = %p\n", outBlock);
ARM GAS  C:\Users\ddemidov\AppData\Local\Temp\ccTwWFqA.s 			page 45


1311:..\kronos-c-sdk\src\wolfSSL\wolfcrypt\src/aes.c ****             printf("aes->key = %p\n", aes->key);
1312:..\kronos-c-sdk\src\wolfSSL\wolfcrypt\src/aes.c ****             printf("aes->rounds = %d\n", aes->rounds);
1313:..\kronos-c-sdk\src\wolfSSL\wolfcrypt\src/aes.c ****             printf("sz = %d\n", AES_BLOCK_SIZE);
1314:..\kronos-c-sdk\src\wolfSSL\wolfcrypt\src/aes.c ****         #endif
1315:..\kronos-c-sdk\src\wolfSSL\wolfcrypt\src/aes.c **** 
1316:..\kronos-c-sdk\src\wolfSSL\wolfcrypt\src/aes.c ****         /* if input and output same will overwrite input iv */
1317:..\kronos-c-sdk\src\wolfSSL\wolfcrypt\src/aes.c ****         XMEMCPY(aes->tmp, inBlock, AES_BLOCK_SIZE);
1318:..\kronos-c-sdk\src\wolfSSL\wolfcrypt\src/aes.c ****         AES_ECB_decrypt(inBlock, outBlock, AES_BLOCK_SIZE, (byte*)aes->key,
1319:..\kronos-c-sdk\src\wolfSSL\wolfcrypt\src/aes.c ****                         aes->rounds);
1320:..\kronos-c-sdk\src\wolfSSL\wolfcrypt\src/aes.c ****         return;
1321:..\kronos-c-sdk\src\wolfSSL\wolfcrypt\src/aes.c ****     }
1322:..\kronos-c-sdk\src\wolfSSL\wolfcrypt\src/aes.c ****     else {
1323:..\kronos-c-sdk\src\wolfSSL\wolfcrypt\src/aes.c ****         #ifdef DEBUG_AESNI
1324:..\kronos-c-sdk\src\wolfSSL\wolfcrypt\src/aes.c ****             printf("Skipping AES-NI\n");
1325:..\kronos-c-sdk\src\wolfSSL\wolfcrypt\src/aes.c ****         #endif
1326:..\kronos-c-sdk\src\wolfSSL\wolfcrypt\src/aes.c ****     }
1327:..\kronos-c-sdk\src\wolfSSL\wolfcrypt\src/aes.c **** #endif
1328:..\kronos-c-sdk\src\wolfSSL\wolfcrypt\src/aes.c **** 
1329:..\kronos-c-sdk\src\wolfSSL\wolfcrypt\src/aes.c ****     /*
1330:..\kronos-c-sdk\src\wolfSSL\wolfcrypt\src/aes.c ****      * map byte array block to cipher state
1331:..\kronos-c-sdk\src\wolfSSL\wolfcrypt\src/aes.c ****      * and add initial round key:
1332:..\kronos-c-sdk\src\wolfSSL\wolfcrypt\src/aes.c ****      */
1333:..\kronos-c-sdk\src\wolfSSL\wolfcrypt\src/aes.c ****     XMEMCPY(&s0, inBlock,                  sizeof(s0));
 1051              		.loc 1 1333 0
 1052 0026 07A8     		add	r0, sp, #28
 1053              	.LVL86:
 1054 0028 0422     		mov	r2, #4
 1055              	.LVL87:
 1056 002a FFF7FEFF 		bl	memcpy
 1057              	.LVL88:
1334:..\kronos-c-sdk\src\wolfSSL\wolfcrypt\src/aes.c ****     XMEMCPY(&s1, inBlock + sizeof(s0),     sizeof(s1));
 1058              		.loc 1 1334 0
 1059 002e 291D     		add	r1, r5, #4
 1060 0030 06A8     		add	r0, sp, #24
 1061 0032 0422     		mov	r2, #4
 1062 0034 FFF7FEFF 		bl	memcpy
 1063              	.LVL89:
1335:..\kronos-c-sdk\src\wolfSSL\wolfcrypt\src/aes.c ****     XMEMCPY(&s2, inBlock + 2 * sizeof(s0), sizeof(s2));
 1064              		.loc 1 1335 0
 1065 0038 291C     		mov	r1, r5
 1066 003a 0831     		add	r1, r1, #8
 1067 003c 05A8     		add	r0, sp, #20
 1068 003e 0422     		mov	r2, #4
 1069 0040 FFF7FEFF 		bl	memcpy
 1070              	.LVL90:
1336:..\kronos-c-sdk\src\wolfSSL\wolfcrypt\src/aes.c ****     XMEMCPY(&s3, inBlock + 3 * sizeof(s0), sizeof(s3));
 1071              		.loc 1 1336 0
 1072 0044 291C     		mov	r1, r5
 1073 0046 0C31     		add	r1, r1, #12
 1074 0048 04A8     		add	r0, sp, #16
 1075 004a 0422     		mov	r2, #4
 1076 004c FFF7FEFF 		bl	memcpy
 1077              	.LVL91:
1337:..\kronos-c-sdk\src\wolfSSL\wolfcrypt\src/aes.c **** 
1338:..\kronos-c-sdk\src\wolfSSL\wolfcrypt\src/aes.c ****     #ifdef LITTLE_ENDIAN_ORDER
1339:..\kronos-c-sdk\src\wolfSSL\wolfcrypt\src/aes.c ****         s0 = ByteReverseWord32(s0);
 1078              		.loc 1 1339 0
ARM GAS  C:\Users\ddemidov\AppData\Local\Temp\ccTwWFqA.s 			page 46


 1079 0050 079A     		ldr	r2, [sp, #28]
 1080              	.LVL92:
 1081              	.LBB114:
 1082              	.LBB115:
 1083              		.loc 2 95 0
 1084 0052 AA4B     		ldr	r3, .L15
 1085 0054 9C46     		mov	ip, r3
 1086 0056 1D1C     		mov	r5, r3
 1087              	.LVL93:
 1088 0058 1540     		and	r5, r2
 1089 005a 2D0A     		lsr	r5, r5, #8
 1090 005c A84B     		ldr	r3, .L15+4
 1091 005e 1A40     		and	r2, r3
 1092              	.LVL94:
 1093 0060 1202     		lsl	r2, r2, #8
 1094 0062 1543     		orr	r5, r2
 1095              	.LVL95:
 1096              	.LBB116:
 1097              	.LBB117:
  70:..\kronos-c-sdk\src\wolfSSL\wolfcrypt\src/misc.c ****     }   
 1098              		.loc 2 70 0
 1099 0064 1027     		mov	r7, #16
 1100 0066 FD41     		ror	r5, r5, r7
 1101              	.LVL96:
 1102              	.LBE117:
 1103              	.LBE116:
 1104              	.LBE115:
 1105              	.LBE114:
1340:..\kronos-c-sdk\src\wolfSSL\wolfcrypt\src/aes.c ****         s1 = ByteReverseWord32(s1);
 1106              		.loc 1 1340 0
 1107 0068 069A     		ldr	r2, [sp, #24]
 1108              	.LVL97:
 1109              	.LBB118:
 1110              	.LBB119:
 1111              		.loc 2 95 0
 1112 006a 6146     		mov	r1, ip
 1113 006c 1140     		and	r1, r2
 1114 006e 090A     		lsr	r1, r1, #8
 1115 0070 1A40     		and	r2, r3
 1116              	.LVL98:
 1117 0072 1202     		lsl	r2, r2, #8
 1118 0074 1143     		orr	r1, r2
 1119              	.LVL99:
 1120              	.LBB120:
 1121              	.LBB121:
  70:..\kronos-c-sdk\src\wolfSSL\wolfcrypt\src/misc.c ****     }   
 1122              		.loc 2 70 0
 1123 0076 F941     		ror	r1, r1, r7
 1124              	.LVL100:
 1125              	.LBE121:
 1126              	.LBE120:
 1127              	.LBE119:
 1128              	.LBE118:
1341:..\kronos-c-sdk\src\wolfSSL\wolfcrypt\src/aes.c ****         s2 = ByteReverseWord32(s2);
 1129              		.loc 1 1341 0
 1130 0078 059A     		ldr	r2, [sp, #20]
 1131              	.LVL101:
ARM GAS  C:\Users\ddemidov\AppData\Local\Temp\ccTwWFqA.s 			page 47


 1132              	.LBB122:
 1133              	.LBB123:
 1134              		.loc 2 95 0
 1135 007a 6046     		mov	r0, ip
 1136 007c 1040     		and	r0, r2
 1137 007e 000A     		lsr	r0, r0, #8
 1138 0080 1A40     		and	r2, r3
 1139              	.LVL102:
 1140 0082 1202     		lsl	r2, r2, #8
 1141 0084 0243     		orr	r2, r0
 1142              	.LVL103:
 1143              	.LBB124:
 1144              	.LBB125:
  70:..\kronos-c-sdk\src\wolfSSL\wolfcrypt\src/misc.c ****     }   
 1145              		.loc 2 70 0
 1146 0086 FA41     		ror	r2, r2, r7
 1147              	.LVL104:
 1148              	.LBE125:
 1149              	.LBE124:
 1150              	.LBE123:
 1151              	.LBE122:
 1152              	.LBB126:
 1153              	.LBB127:
 1154              		.loc 2 95 0
 1155 0088 6046     		mov	r0, ip
 1156              	.LVL105:
 1157 008a 049E     		ldr	r6, [sp, #16]
 1158 008c 3040     		and	r0, r6
 1159 008e 000A     		lsr	r0, r0, #8
 1160 0090 3340     		and	r3, r6
 1161              	.LVL106:
 1162 0092 1B02     		lsl	r3, r3, #8
 1163 0094 0343     		orr	r3, r0
 1164              	.LVL107:
 1165              	.LBB128:
 1166              	.LBB129:
  70:..\kronos-c-sdk\src\wolfSSL\wolfcrypt\src/misc.c ****     }   
 1167              		.loc 2 70 0
 1168 0096 FB41     		ror	r3, r3, r7
 1169              	.LVL108:
 1170              	.LBE129:
 1171              	.LBE128:
 1172              	.LBE127:
 1173              	.LBE126:
1342:..\kronos-c-sdk\src\wolfSSL\wolfcrypt\src/aes.c ****         s3 = ByteReverseWord32(s3);
1343:..\kronos-c-sdk\src\wolfSSL\wolfcrypt\src/aes.c ****     #endif
1344:..\kronos-c-sdk\src\wolfSSL\wolfcrypt\src/aes.c **** 
1345:..\kronos-c-sdk\src\wolfSSL\wolfcrypt\src/aes.c ****     s0 ^= rk[0];
 1174              		.loc 1 1345 0
 1175 0098 2068     		ldr	r0, [r4]
 1176              	.LVL109:
 1177 009a 4540     		eor	r5, r0
 1178 009c 0795     		str	r5, [sp, #28]
 1179              	.LVL110:
1346:..\kronos-c-sdk\src\wolfSSL\wolfcrypt\src/aes.c ****     s1 ^= rk[1];
 1180              		.loc 1 1346 0
 1181 009e 6068     		ldr	r0, [r4, #4]
ARM GAS  C:\Users\ddemidov\AppData\Local\Temp\ccTwWFqA.s 			page 48


 1182 00a0 4140     		eor	r1, r0
 1183 00a2 0691     		str	r1, [sp, #24]
 1184              	.LVL111:
1347:..\kronos-c-sdk\src\wolfSSL\wolfcrypt\src/aes.c ****     s2 ^= rk[2];
 1185              		.loc 1 1347 0
 1186 00a4 A168     		ldr	r1, [r4, #8]
 1187 00a6 4A40     		eor	r2, r1
 1188 00a8 0592     		str	r2, [sp, #20]
 1189              	.LVL112:
1348:..\kronos-c-sdk\src\wolfSSL\wolfcrypt\src/aes.c ****     s3 ^= rk[3];
 1190              		.loc 1 1348 0
 1191 00aa E268     		ldr	r2, [r4, #12]
 1192 00ac 5340     		eor	r3, r2
 1193 00ae 0493     		str	r3, [sp, #16]
 1194              	.LVL113:
 1195 00b0 009E     		ldr	r6, [sp]
 1196              	.LVL114:
 1197              	.L13:
1349:..\kronos-c-sdk\src\wolfSSL\wolfcrypt\src/aes.c **** 
1350:..\kronos-c-sdk\src\wolfSSL\wolfcrypt\src/aes.c ****     /*
1351:..\kronos-c-sdk\src\wolfSSL\wolfcrypt\src/aes.c ****      * Nr - 1 full rounds:
1352:..\kronos-c-sdk\src\wolfSSL\wolfcrypt\src/aes.c ****      */
1353:..\kronos-c-sdk\src\wolfSSL\wolfcrypt\src/aes.c **** 
1354:..\kronos-c-sdk\src\wolfSSL\wolfcrypt\src/aes.c ****     for (;;) {
1355:..\kronos-c-sdk\src\wolfSSL\wolfcrypt\src/aes.c ****         t0 =
1356:..\kronos-c-sdk\src\wolfSSL\wolfcrypt\src/aes.c ****             Td[0][GETBYTE(s0, 3)] ^
 1198              		.loc 1 1356 0
 1199 00b2 079B     		ldr	r3, [sp, #28]
 1200 00b4 1A0E     		lsr	r2, r3, #24
 1201 00b6 934D     		ldr	r5, .L15+8
 1202 00b8 9200     		lsl	r2, r2, #2
 1203 00ba 5159     		ldr	r1, [r2, r5]
1357:..\kronos-c-sdk\src\wolfSSL\wolfcrypt\src/aes.c ****             Td[1][GETBYTE(s3, 2)] ^
 1204              		.loc 1 1357 0
 1205 00bc 0498     		ldr	r0, [sp, #16]
 1206 00be 020C     		lsr	r2, r0, #16
 1207 00c0 FF24     		mov	r4, #255
 1208 00c2 2240     		and	r2, r4
 1209 00c4 0132     		add	r2, r2, #1
 1210 00c6 FF32     		add	r2, r2, #255
 1211 00c8 9200     		lsl	r2, r2, #2
 1212 00ca 5259     		ldr	r2, [r2, r5]
1356:..\kronos-c-sdk\src\wolfSSL\wolfcrypt\src/aes.c ****             Td[1][GETBYTE(s3, 2)] ^
 1213              		.loc 1 1356 0
 1214 00cc 5140     		eor	r1, r2
1358:..\kronos-c-sdk\src\wolfSSL\wolfcrypt\src/aes.c ****             Td[2][GETBYTE(s2, 1)] ^
 1215              		.loc 1 1358 0
 1216 00ce 059B     		ldr	r3, [sp, #20]
 1217 00d0 1A0A     		lsr	r2, r3, #8
 1218 00d2 2240     		and	r2, r4
 1219 00d4 8023     		mov	r3, #128
 1220 00d6 9B00     		lsl	r3, r3, #2
 1221 00d8 9C46     		mov	ip, r3
 1222 00da 6244     		add	r2, r2, ip
 1223 00dc 9200     		lsl	r2, r2, #2
 1224 00de 5759     		ldr	r7, [r2, r5]
1357:..\kronos-c-sdk\src\wolfSSL\wolfcrypt\src/aes.c ****             Td[1][GETBYTE(s3, 2)] ^
ARM GAS  C:\Users\ddemidov\AppData\Local\Temp\ccTwWFqA.s 			page 49


 1225              		.loc 1 1357 0
 1226 00e0 0A1C     		mov	r2, r1
 1227 00e2 7A40     		eor	r2, r7
 1228 00e4 9146     		mov	r9, r2
1359:..\kronos-c-sdk\src\wolfSSL\wolfcrypt\src/aes.c ****             Td[3][GETBYTE(s1, 0)] ^
 1229              		.loc 1 1359 0
 1230 00e6 069F     		ldr	r7, [sp, #24]
 1231 00e8 221C     		mov	r2, r4
 1232 00ea 3A40     		and	r2, r7
 1233 00ec 0133     		add	r3, r3, #1
 1234 00ee FF33     		add	r3, r3, #255
 1235 00f0 9C46     		mov	ip, r3
 1236 00f2 6244     		add	r2, r2, ip
 1237 00f4 9200     		lsl	r2, r2, #2
 1238 00f6 5259     		ldr	r2, [r2, r5]
1358:..\kronos-c-sdk\src\wolfSSL\wolfcrypt\src/aes.c ****             Td[2][GETBYTE(s2, 1)] ^
 1239              		.loc 1 1358 0
 1240 00f8 4B46     		mov	r3, r9
 1241 00fa 5A40     		eor	r2, r3
1355:..\kronos-c-sdk\src\wolfSSL\wolfcrypt\src/aes.c ****             Td[0][GETBYTE(s0, 3)] ^
 1242              		.loc 1 1355 0
 1243 00fc 3369     		ldr	r3, [r6, #16]
 1244 00fe 5340     		eor	r3, r2
 1245 0100 9946     		mov	r9, r3
 1246              	.LVL115:
1360:..\kronos-c-sdk\src\wolfSSL\wolfcrypt\src/aes.c ****             rk[4];
1361:..\kronos-c-sdk\src\wolfSSL\wolfcrypt\src/aes.c ****         t1 =
1362:..\kronos-c-sdk\src\wolfSSL\wolfcrypt\src/aes.c ****             Td[0][GETBYTE(s1, 3)] ^
 1247              		.loc 1 1362 0
 1248 0102 3A0E     		lsr	r2, r7, #24
 1249 0104 9200     		lsl	r2, r2, #2
 1250 0106 5359     		ldr	r3, [r2, r5]
 1251              	.LVL116:
 1252 0108 9C46     		mov	ip, r3
1363:..\kronos-c-sdk\src\wolfSSL\wolfcrypt\src/aes.c ****             Td[1][GETBYTE(s0, 2)] ^
 1253              		.loc 1 1363 0
 1254 010a 079B     		ldr	r3, [sp, #28]
 1255 010c 1A0C     		lsr	r2, r3, #16
 1256 010e 2240     		and	r2, r4
 1257 0110 0132     		add	r2, r2, #1
 1258 0112 FF32     		add	r2, r2, #255
 1259 0114 9200     		lsl	r2, r2, #2
 1260 0116 5259     		ldr	r2, [r2, r5]
1362:..\kronos-c-sdk\src\wolfSSL\wolfcrypt\src/aes.c ****             Td[1][GETBYTE(s0, 2)] ^
 1261              		.loc 1 1362 0
 1262 0118 6346     		mov	r3, ip
 1263 011a 5340     		eor	r3, r2
 1264 011c 9C46     		mov	ip, r3
1364:..\kronos-c-sdk\src\wolfSSL\wolfcrypt\src/aes.c ****             Td[2][GETBYTE(s3, 1)] ^
 1265              		.loc 1 1364 0
 1266 011e 020A     		lsr	r2, r0, #8
 1267 0120 2240     		and	r2, r4
 1268 0122 8023     		mov	r3, #128
 1269 0124 9B00     		lsl	r3, r3, #2
 1270 0126 9A46     		mov	r10, r3
 1271 0128 5244     		add	r2, r2, r10
 1272 012a 9200     		lsl	r2, r2, #2
ARM GAS  C:\Users\ddemidov\AppData\Local\Temp\ccTwWFqA.s 			page 50


 1273 012c 5259     		ldr	r2, [r2, r5]
1363:..\kronos-c-sdk\src\wolfSSL\wolfcrypt\src/aes.c ****             Td[1][GETBYTE(s0, 2)] ^
 1274              		.loc 1 1363 0
 1275 012e 6346     		mov	r3, ip
 1276 0130 5340     		eor	r3, r2
 1277 0132 9C46     		mov	ip, r3
1365:..\kronos-c-sdk\src\wolfSSL\wolfcrypt\src/aes.c ****             Td[3][GETBYTE(s2, 0)] ^
 1278              		.loc 1 1365 0
 1279 0134 221C     		mov	r2, r4
 1280 0136 059B     		ldr	r3, [sp, #20]
 1281 0138 1A40     		and	r2, r3
 1282 013a C023     		mov	r3, #192
 1283 013c 9B00     		lsl	r3, r3, #2
 1284 013e 9A46     		mov	r10, r3
 1285 0140 5244     		add	r2, r2, r10
 1286 0142 9200     		lsl	r2, r2, #2
 1287 0144 5259     		ldr	r2, [r2, r5]
1364:..\kronos-c-sdk\src\wolfSSL\wolfcrypt\src/aes.c ****             Td[2][GETBYTE(s3, 1)] ^
 1288              		.loc 1 1364 0
 1289 0146 6346     		mov	r3, ip
 1290 0148 5A40     		eor	r2, r3
1361:..\kronos-c-sdk\src\wolfSSL\wolfcrypt\src/aes.c ****             Td[0][GETBYTE(s1, 3)] ^
 1291              		.loc 1 1361 0
 1292 014a 7369     		ldr	r3, [r6, #20]
 1293 014c 5A40     		eor	r2, r3
 1294              	.LVL117:
1366:..\kronos-c-sdk\src\wolfSSL\wolfcrypt\src/aes.c ****             rk[5];
1367:..\kronos-c-sdk\src\wolfSSL\wolfcrypt\src/aes.c ****         t2 =
1368:..\kronos-c-sdk\src\wolfSSL\wolfcrypt\src/aes.c ****             Td[0][GETBYTE(s2, 3)] ^
 1295              		.loc 1 1368 0
 1296 014e 059B     		ldr	r3, [sp, #20]
 1297 0150 1B0E     		lsr	r3, r3, #24
 1298 0152 9B00     		lsl	r3, r3, #2
 1299 0154 5B59     		ldr	r3, [r3, r5]
 1300 0156 9C46     		mov	ip, r3
1369:..\kronos-c-sdk\src\wolfSSL\wolfcrypt\src/aes.c ****             Td[1][GETBYTE(s1, 2)] ^
 1301              		.loc 1 1369 0
 1302 0158 3B0C     		lsr	r3, r7, #16
 1303 015a 2340     		and	r3, r4
 1304 015c 9A46     		mov	r10, r3
 1305 015e 8023     		mov	r3, #128
 1306 0160 5B00     		lsl	r3, r3, #1
 1307 0162 9B46     		mov	fp, r3
 1308 0164 DA44     		add	r10, r10, fp
 1309 0166 5346     		mov	r3, r10
 1310 0168 9B00     		lsl	r3, r3, #2
 1311 016a 5B59     		ldr	r3, [r3, r5]
 1312 016c 9A46     		mov	r10, r3
1368:..\kronos-c-sdk\src\wolfSSL\wolfcrypt\src/aes.c ****             Td[1][GETBYTE(s1, 2)] ^
 1313              		.loc 1 1368 0
 1314 016e 6346     		mov	r3, ip
 1315 0170 5146     		mov	r1, r10
 1316 0172 4B40     		eor	r3, r1
 1317 0174 9C46     		mov	ip, r3
1370:..\kronos-c-sdk\src\wolfSSL\wolfcrypt\src/aes.c ****             Td[2][GETBYTE(s0, 1)] ^
 1318              		.loc 1 1370 0
 1319 0176 079B     		ldr	r3, [sp, #28]
ARM GAS  C:\Users\ddemidov\AppData\Local\Temp\ccTwWFqA.s 			page 51


 1320 0178 1B0A     		lsr	r3, r3, #8
 1321 017a 2340     		and	r3, r4
 1322 017c 9A46     		mov	r10, r3
 1323 017e 8023     		mov	r3, #128
 1324 0180 9B00     		lsl	r3, r3, #2
 1325 0182 9B46     		mov	fp, r3
 1326 0184 DA44     		add	r10, r10, fp
 1327 0186 5346     		mov	r3, r10
 1328 0188 9B00     		lsl	r3, r3, #2
 1329 018a 5B59     		ldr	r3, [r3, r5]
 1330 018c 9A46     		mov	r10, r3
1369:..\kronos-c-sdk\src\wolfSSL\wolfcrypt\src/aes.c ****             Td[1][GETBYTE(s1, 2)] ^
 1331              		.loc 1 1369 0
 1332 018e 6346     		mov	r3, ip
 1333 0190 5146     		mov	r1, r10
 1334 0192 4B40     		eor	r3, r1
 1335 0194 9C46     		mov	ip, r3
1371:..\kronos-c-sdk\src\wolfSSL\wolfcrypt\src/aes.c ****             Td[3][GETBYTE(s3, 0)] ^
 1336              		.loc 1 1371 0
 1337 0196 231C     		mov	r3, r4
 1338 0198 0340     		and	r3, r0
 1339 019a 9A46     		mov	r10, r3
 1340 019c C023     		mov	r3, #192
 1341 019e 9B00     		lsl	r3, r3, #2
 1342 01a0 9B46     		mov	fp, r3
 1343 01a2 DA44     		add	r10, r10, fp
 1344 01a4 5346     		mov	r3, r10
 1345 01a6 9B00     		lsl	r3, r3, #2
 1346 01a8 5B59     		ldr	r3, [r3, r5]
 1347 01aa 9A46     		mov	r10, r3
1370:..\kronos-c-sdk\src\wolfSSL\wolfcrypt\src/aes.c ****             Td[2][GETBYTE(s0, 1)] ^
 1348              		.loc 1 1370 0
 1349 01ac 6346     		mov	r3, ip
 1350 01ae 5146     		mov	r1, r10
 1351 01b0 4B40     		eor	r3, r1
1367:..\kronos-c-sdk\src\wolfSSL\wolfcrypt\src/aes.c ****             Td[0][GETBYTE(s2, 3)] ^
 1352              		.loc 1 1367 0
 1353 01b2 B169     		ldr	r1, [r6, #24]
 1354 01b4 4B40     		eor	r3, r1
 1355 01b6 9C46     		mov	ip, r3
 1356              	.LVL118:
1372:..\kronos-c-sdk\src\wolfSSL\wolfcrypt\src/aes.c ****             rk[6];
1373:..\kronos-c-sdk\src\wolfSSL\wolfcrypt\src/aes.c ****         t3 =
1374:..\kronos-c-sdk\src\wolfSSL\wolfcrypt\src/aes.c ****             Td[0][GETBYTE(s3, 3)] ^
 1357              		.loc 1 1374 0
 1358 01b8 000E     		lsr	r0, r0, #24
 1359 01ba 8000     		lsl	r0, r0, #2
 1360 01bc 4359     		ldr	r3, [r0, r5]
 1361              	.LVL119:
 1362 01be 9A46     		mov	r10, r3
1375:..\kronos-c-sdk\src\wolfSSL\wolfcrypt\src/aes.c ****             Td[1][GETBYTE(s2, 2)] ^
 1363              		.loc 1 1375 0
 1364 01c0 059B     		ldr	r3, [sp, #20]
 1365 01c2 190C     		lsr	r1, r3, #16
 1366 01c4 2140     		and	r1, r4
 1367 01c6 481C     		add	r0, r1, #1
 1368 01c8 FF30     		add	r0, r0, #255
ARM GAS  C:\Users\ddemidov\AppData\Local\Temp\ccTwWFqA.s 			page 52


 1369 01ca 8000     		lsl	r0, r0, #2
 1370 01cc 4159     		ldr	r1, [r0, r5]
1374:..\kronos-c-sdk\src\wolfSSL\wolfcrypt\src/aes.c ****             Td[1][GETBYTE(s2, 2)] ^
 1371              		.loc 1 1374 0
 1372 01ce 5346     		mov	r3, r10
 1373 01d0 5940     		eor	r1, r3
1376:..\kronos-c-sdk\src\wolfSSL\wolfcrypt\src/aes.c ****             Td[2][GETBYTE(s1, 1)] ^
 1374              		.loc 1 1376 0
 1375 01d2 3F0A     		lsr	r7, r7, #8
 1376 01d4 2740     		and	r7, r4
 1377 01d6 8023     		mov	r3, #128
 1378 01d8 9B00     		lsl	r3, r3, #2
 1379 01da 9A46     		mov	r10, r3
 1380 01dc 5744     		add	r7, r7, r10
 1381 01de BF00     		lsl	r7, r7, #2
 1382 01e0 7859     		ldr	r0, [r7, r5]
1375:..\kronos-c-sdk\src\wolfSSL\wolfcrypt\src/aes.c ****             Td[1][GETBYTE(s2, 2)] ^
 1383              		.loc 1 1375 0
 1384 01e2 4140     		eor	r1, r0
1377:..\kronos-c-sdk\src\wolfSSL\wolfcrypt\src/aes.c ****             Td[3][GETBYTE(s0, 0)] ^
 1385              		.loc 1 1377 0
 1386 01e4 079B     		ldr	r3, [sp, #28]
 1387 01e6 2340     		and	r3, r4
 1388 01e8 5B44     		add	r3, r3, fp
 1389 01ea 9B00     		lsl	r3, r3, #2
 1390 01ec 5B59     		ldr	r3, [r3, r5]
1376:..\kronos-c-sdk\src\wolfSSL\wolfcrypt\src/aes.c ****             Td[2][GETBYTE(s1, 1)] ^
 1391              		.loc 1 1376 0
 1392 01ee 5940     		eor	r1, r3
1373:..\kronos-c-sdk\src\wolfSSL\wolfcrypt\src/aes.c ****             Td[0][GETBYTE(s3, 3)] ^
 1393              		.loc 1 1373 0
 1394 01f0 F369     		ldr	r3, [r6, #28]
 1395 01f2 5940     		eor	r1, r3
 1396              	.LVL120:
1378:..\kronos-c-sdk\src\wolfSSL\wolfcrypt\src/aes.c ****             rk[7];
1379:..\kronos-c-sdk\src\wolfSSL\wolfcrypt\src/aes.c **** 
1380:..\kronos-c-sdk\src\wolfSSL\wolfcrypt\src/aes.c ****         rk += 8;
 1397              		.loc 1 1380 0
 1398 01f4 2036     		add	r6, r6, #32
 1399              	.LVL121:
1381:..\kronos-c-sdk\src\wolfSSL\wolfcrypt\src/aes.c ****         if (--r == 0) {
 1400              		.loc 1 1381 0
 1401 01f6 0123     		mov	r3, #1
 1402 01f8 5B42     		neg	r3, r3
 1403 01fa 9A46     		mov	r10, r3
 1404 01fc D044     		add	r8, r8, r10
 1405              	.LVL122:
 1406 01fe 4346     		mov	r3, r8
 1407 0200 002B     		cmp	r3, #0
 1408 0202 00D1     		bne	.LCB1390
 1409 0204 80E0     		b	.L12	@long jump
 1410              	.LCB1390:
1382:..\kronos-c-sdk\src\wolfSSL\wolfcrypt\src/aes.c ****             break;
1383:..\kronos-c-sdk\src\wolfSSL\wolfcrypt\src/aes.c ****         }
1384:..\kronos-c-sdk\src\wolfSSL\wolfcrypt\src/aes.c **** 
1385:..\kronos-c-sdk\src\wolfSSL\wolfcrypt\src/aes.c ****         s0 =
1386:..\kronos-c-sdk\src\wolfSSL\wolfcrypt\src/aes.c ****             Td[0][GETBYTE(t0, 3)] ^
ARM GAS  C:\Users\ddemidov\AppData\Local\Temp\ccTwWFqA.s 			page 53


 1411              		.loc 1 1386 0
 1412 0206 4B46     		mov	r3, r9
 1413 0208 1B0E     		lsr	r3, r3, #24
 1414 020a 9B00     		lsl	r3, r3, #2
 1415 020c 5859     		ldr	r0, [r3, r5]
1387:..\kronos-c-sdk\src\wolfSSL\wolfcrypt\src/aes.c ****             Td[1][GETBYTE(t3, 2)] ^
 1416              		.loc 1 1387 0
 1417 020e 0B0C     		lsr	r3, r1, #16
 1418 0210 2340     		and	r3, r4
 1419 0212 0133     		add	r3, r3, #1
 1420 0214 FF33     		add	r3, r3, #255
 1421 0216 9B00     		lsl	r3, r3, #2
 1422 0218 5F59     		ldr	r7, [r3, r5]
1386:..\kronos-c-sdk\src\wolfSSL\wolfcrypt\src/aes.c ****             Td[1][GETBYTE(t3, 2)] ^
 1423              		.loc 1 1386 0
 1424 021a 4740     		eor	r7, r0
1388:..\kronos-c-sdk\src\wolfSSL\wolfcrypt\src/aes.c ****             Td[2][GETBYTE(t2, 1)] ^
 1425              		.loc 1 1388 0
 1426 021c 6346     		mov	r3, ip
 1427 021e 1B0A     		lsr	r3, r3, #8
 1428 0220 2340     		and	r3, r4
 1429 0222 8020     		mov	r0, #128
 1430 0224 8000     		lsl	r0, r0, #2
 1431 0226 8246     		mov	r10, r0
 1432 0228 5344     		add	r3, r3, r10
 1433 022a 9B00     		lsl	r3, r3, #2
 1434 022c 5B59     		ldr	r3, [r3, r5]
1387:..\kronos-c-sdk\src\wolfSSL\wolfcrypt\src/aes.c ****             Td[1][GETBYTE(t3, 2)] ^
 1435              		.loc 1 1387 0
 1436 022e 5F40     		eor	r7, r3
1389:..\kronos-c-sdk\src\wolfSSL\wolfcrypt\src/aes.c ****             Td[3][GETBYTE(t1, 0)] ^
 1437              		.loc 1 1389 0
 1438 0230 231C     		mov	r3, r4
 1439 0232 1340     		and	r3, r2
 1440 0234 5B44     		add	r3, r3, fp
 1441 0236 9B00     		lsl	r3, r3, #2
 1442 0238 5859     		ldr	r0, [r3, r5]
1388:..\kronos-c-sdk\src\wolfSSL\wolfcrypt\src/aes.c ****             Td[2][GETBYTE(t2, 1)] ^
 1443              		.loc 1 1388 0
 1444 023a 3B1C     		mov	r3, r7
 1445 023c 4340     		eor	r3, r0
 1446              		.loc 1 1389 0
 1447 023e 3068     		ldr	r0, [r6]
 1448 0240 4340     		eor	r3, r0
1385:..\kronos-c-sdk\src\wolfSSL\wolfcrypt\src/aes.c ****             Td[0][GETBYTE(t0, 3)] ^
 1449              		.loc 1 1385 0
 1450 0242 0793     		str	r3, [sp, #28]
1390:..\kronos-c-sdk\src\wolfSSL\wolfcrypt\src/aes.c ****             rk[0];
1391:..\kronos-c-sdk\src\wolfSSL\wolfcrypt\src/aes.c ****         s1 =
1392:..\kronos-c-sdk\src\wolfSSL\wolfcrypt\src/aes.c ****             Td[0][GETBYTE(t1, 3)] ^
 1451              		.loc 1 1392 0
 1452 0244 130E     		lsr	r3, r2, #24
 1453 0246 9B00     		lsl	r3, r3, #2
 1454 0248 5859     		ldr	r0, [r3, r5]
1393:..\kronos-c-sdk\src\wolfSSL\wolfcrypt\src/aes.c ****             Td[1][GETBYTE(t0, 2)] ^
 1455              		.loc 1 1393 0
 1456 024a 4B46     		mov	r3, r9
ARM GAS  C:\Users\ddemidov\AppData\Local\Temp\ccTwWFqA.s 			page 54


 1457 024c 1B0C     		lsr	r3, r3, #16
 1458 024e 2340     		and	r3, r4
 1459 0250 0133     		add	r3, r3, #1
 1460 0252 FF33     		add	r3, r3, #255
 1461 0254 9B00     		lsl	r3, r3, #2
 1462 0256 5F59     		ldr	r7, [r3, r5]
1392:..\kronos-c-sdk\src\wolfSSL\wolfcrypt\src/aes.c ****             Td[1][GETBYTE(t0, 2)] ^
 1463              		.loc 1 1392 0
 1464 0258 4740     		eor	r7, r0
1394:..\kronos-c-sdk\src\wolfSSL\wolfcrypt\src/aes.c ****             Td[2][GETBYTE(t3, 1)] ^
 1465              		.loc 1 1394 0
 1466 025a 0B0A     		lsr	r3, r1, #8
 1467 025c 2340     		and	r3, r4
 1468 025e 8020     		mov	r0, #128
 1469 0260 8000     		lsl	r0, r0, #2
 1470 0262 8246     		mov	r10, r0
 1471 0264 5344     		add	r3, r3, r10
 1472 0266 9B00     		lsl	r3, r3, #2
 1473 0268 5B59     		ldr	r3, [r3, r5]
1393:..\kronos-c-sdk\src\wolfSSL\wolfcrypt\src/aes.c ****             Td[1][GETBYTE(t0, 2)] ^
 1474              		.loc 1 1393 0
 1475 026a 5F40     		eor	r7, r3
1395:..\kronos-c-sdk\src\wolfSSL\wolfcrypt\src/aes.c ****             Td[3][GETBYTE(t2, 0)] ^
 1476              		.loc 1 1395 0
 1477 026c 6346     		mov	r3, ip
 1478 026e 2340     		and	r3, r4
 1479 0270 5B44     		add	r3, r3, fp
 1480 0272 9B00     		lsl	r3, r3, #2
 1481 0274 5859     		ldr	r0, [r3, r5]
1394:..\kronos-c-sdk\src\wolfSSL\wolfcrypt\src/aes.c ****             Td[2][GETBYTE(t3, 1)] ^
 1482              		.loc 1 1394 0
 1483 0276 3B1C     		mov	r3, r7
 1484 0278 4340     		eor	r3, r0
 1485              		.loc 1 1395 0
 1486 027a 7068     		ldr	r0, [r6, #4]
 1487 027c 4340     		eor	r3, r0
1391:..\kronos-c-sdk\src\wolfSSL\wolfcrypt\src/aes.c ****             Td[0][GETBYTE(t1, 3)] ^
 1488              		.loc 1 1391 0
 1489 027e 0693     		str	r3, [sp, #24]
1396:..\kronos-c-sdk\src\wolfSSL\wolfcrypt\src/aes.c ****             rk[1];
1397:..\kronos-c-sdk\src\wolfSSL\wolfcrypt\src/aes.c ****         s2 =
1398:..\kronos-c-sdk\src\wolfSSL\wolfcrypt\src/aes.c ****             Td[0][GETBYTE(t2, 3)] ^
 1490              		.loc 1 1398 0
 1491 0280 6346     		mov	r3, ip
 1492 0282 1B0E     		lsr	r3, r3, #24
 1493 0284 9B00     		lsl	r3, r3, #2
 1494 0286 5859     		ldr	r0, [r3, r5]
1399:..\kronos-c-sdk\src\wolfSSL\wolfcrypt\src/aes.c ****             Td[1][GETBYTE(t1, 2)] ^
 1495              		.loc 1 1399 0
 1496 0288 130C     		lsr	r3, r2, #16
 1497 028a 2340     		and	r3, r4
 1498 028c 0133     		add	r3, r3, #1
 1499 028e FF33     		add	r3, r3, #255
 1500 0290 9B00     		lsl	r3, r3, #2
 1501 0292 5F59     		ldr	r7, [r3, r5]
1398:..\kronos-c-sdk\src\wolfSSL\wolfcrypt\src/aes.c ****             Td[1][GETBYTE(t1, 2)] ^
 1502              		.loc 1 1398 0
ARM GAS  C:\Users\ddemidov\AppData\Local\Temp\ccTwWFqA.s 			page 55


 1503 0294 4740     		eor	r7, r0
1400:..\kronos-c-sdk\src\wolfSSL\wolfcrypt\src/aes.c ****             Td[2][GETBYTE(t0, 1)] ^
 1504              		.loc 1 1400 0
 1505 0296 4B46     		mov	r3, r9
 1506 0298 1B0A     		lsr	r3, r3, #8
 1507 029a 2340     		and	r3, r4
 1508 029c 8020     		mov	r0, #128
 1509 029e 8000     		lsl	r0, r0, #2
 1510 02a0 8246     		mov	r10, r0
 1511 02a2 5344     		add	r3, r3, r10
 1512 02a4 9B00     		lsl	r3, r3, #2
 1513 02a6 5B59     		ldr	r3, [r3, r5]
1399:..\kronos-c-sdk\src\wolfSSL\wolfcrypt\src/aes.c ****             Td[1][GETBYTE(t1, 2)] ^
 1514              		.loc 1 1399 0
 1515 02a8 5F40     		eor	r7, r3
1401:..\kronos-c-sdk\src\wolfSSL\wolfcrypt\src/aes.c ****             Td[3][GETBYTE(t3, 0)] ^
 1516              		.loc 1 1401 0
 1517 02aa 231C     		mov	r3, r4
 1518 02ac 0B40     		and	r3, r1
 1519 02ae 5B44     		add	r3, r3, fp
 1520 02b0 9B00     		lsl	r3, r3, #2
 1521 02b2 5859     		ldr	r0, [r3, r5]
1400:..\kronos-c-sdk\src\wolfSSL\wolfcrypt\src/aes.c ****             Td[2][GETBYTE(t0, 1)] ^
 1522              		.loc 1 1400 0
 1523 02b4 3B1C     		mov	r3, r7
 1524 02b6 4340     		eor	r3, r0
 1525              		.loc 1 1401 0
 1526 02b8 B068     		ldr	r0, [r6, #8]
 1527 02ba 4340     		eor	r3, r0
1397:..\kronos-c-sdk\src\wolfSSL\wolfcrypt\src/aes.c ****             Td[0][GETBYTE(t2, 3)] ^
 1528              		.loc 1 1397 0
 1529 02bc 0593     		str	r3, [sp, #20]
1402:..\kronos-c-sdk\src\wolfSSL\wolfcrypt\src/aes.c ****             rk[2];
1403:..\kronos-c-sdk\src\wolfSSL\wolfcrypt\src/aes.c ****         s3 =
1404:..\kronos-c-sdk\src\wolfSSL\wolfcrypt\src/aes.c ****             Td[0][GETBYTE(t3, 3)] ^
 1530              		.loc 1 1404 0
 1531 02be 090E     		lsr	r1, r1, #24
 1532              	.LVL123:
 1533 02c0 8900     		lsl	r1, r1, #2
 1534 02c2 4959     		ldr	r1, [r1, r5]
1405:..\kronos-c-sdk\src\wolfSSL\wolfcrypt\src/aes.c ****             Td[1][GETBYTE(t2, 2)] ^
 1535              		.loc 1 1405 0
 1536 02c4 6346     		mov	r3, ip
 1537 02c6 1B0C     		lsr	r3, r3, #16
 1538 02c8 2340     		and	r3, r4
 1539 02ca 0133     		add	r3, r3, #1
 1540 02cc FF33     		add	r3, r3, #255
 1541 02ce 9B00     		lsl	r3, r3, #2
 1542 02d0 5B59     		ldr	r3, [r3, r5]
1404:..\kronos-c-sdk\src\wolfSSL\wolfcrypt\src/aes.c ****             Td[1][GETBYTE(t2, 2)] ^
 1543              		.loc 1 1404 0
 1544 02d2 4B40     		eor	r3, r1
1406:..\kronos-c-sdk\src\wolfSSL\wolfcrypt\src/aes.c ****             Td[2][GETBYTE(t1, 1)] ^
 1545              		.loc 1 1406 0
 1546 02d4 120A     		lsr	r2, r2, #8
 1547              	.LVL124:
 1548 02d6 2240     		and	r2, r4
ARM GAS  C:\Users\ddemidov\AppData\Local\Temp\ccTwWFqA.s 			page 56


 1549 02d8 8021     		mov	r1, #128
 1550 02da 8900     		lsl	r1, r1, #2
 1551 02dc 8C46     		mov	ip, r1
 1552              	.LVL125:
 1553 02de 6244     		add	r2, r2, ip
 1554 02e0 9200     		lsl	r2, r2, #2
 1555 02e2 5259     		ldr	r2, [r2, r5]
1405:..\kronos-c-sdk\src\wolfSSL\wolfcrypt\src/aes.c ****             Td[1][GETBYTE(t2, 2)] ^
 1556              		.loc 1 1405 0
 1557 02e4 5340     		eor	r3, r2
1407:..\kronos-c-sdk\src\wolfSSL\wolfcrypt\src/aes.c ****             Td[3][GETBYTE(t0, 0)] ^
 1558              		.loc 1 1407 0
 1559 02e6 4A46     		mov	r2, r9
 1560 02e8 1440     		and	r4, r2
 1561 02ea 5C44     		add	r4, r4, fp
 1562 02ec A400     		lsl	r4, r4, #2
 1563 02ee 6259     		ldr	r2, [r4, r5]
1406:..\kronos-c-sdk\src\wolfSSL\wolfcrypt\src/aes.c ****             Td[2][GETBYTE(t1, 1)] ^
 1564              		.loc 1 1406 0
 1565 02f0 5340     		eor	r3, r2
 1566              		.loc 1 1407 0
 1567 02f2 F268     		ldr	r2, [r6, #12]
 1568 02f4 5340     		eor	r3, r2
1403:..\kronos-c-sdk\src\wolfSSL\wolfcrypt\src/aes.c ****             Td[0][GETBYTE(t3, 3)] ^
 1569              		.loc 1 1403 0
 1570 02f6 0493     		str	r3, [sp, #16]
1408:..\kronos-c-sdk\src\wolfSSL\wolfcrypt\src/aes.c ****             rk[3];
1409:..\kronos-c-sdk\src\wolfSSL\wolfcrypt\src/aes.c ****     }
 1571              		.loc 1 1409 0
 1572 02f8 DBE6     		b	.L13
 1573              	.L16:
 1574 02fa C046     		.align	2
 1575              	.L15:
 1576 02fc 00FF00FF 		.word	-16711936
 1577 0300 FF00FF00 		.word	16711935
 1578 0304 00140000 		.word	.LANCHOR1
 1579              	.LVL126:
 1580              	.L12:
 1581 0308 B346     		mov	fp, r6
 1582 030a 4B46     		mov	r3, r9
 1583              	.LVL127:
 1584 030c 4E46     		mov	r6, r9
 1585              	.LVL128:
 1586 030e 6046     		mov	r0, ip
1410:..\kronos-c-sdk\src\wolfSSL\wolfcrypt\src/aes.c ****     /*
1411:..\kronos-c-sdk\src\wolfSSL\wolfcrypt\src/aes.c ****      * apply last round and
1412:..\kronos-c-sdk\src\wolfSSL\wolfcrypt\src/aes.c ****      * map cipher state to byte array block:
1413:..\kronos-c-sdk\src\wolfSSL\wolfcrypt\src/aes.c ****      */
1414:..\kronos-c-sdk\src\wolfSSL\wolfcrypt\src/aes.c ****     s0 =
1415:..\kronos-c-sdk\src\wolfSSL\wolfcrypt\src/aes.c ****         (Td[4][GETBYTE(t0, 3)] & 0xff000000) ^
 1587              		.loc 1 1415 0
 1588 0310 1C0E     		lsr	r4, r3, #24
 1589 0312 834D     		ldr	r5, .L17
 1590 0314 8023     		mov	r3, #128
 1591 0316 DB00     		lsl	r3, r3, #3
 1592 0318 9C46     		mov	ip, r3
 1593              	.LVL129:
ARM GAS  C:\Users\ddemidov\AppData\Local\Temp\ccTwWFqA.s 			page 57


 1594 031a 6444     		add	r4, r4, ip
 1595 031c A400     		lsl	r4, r4, #2
 1596 031e 6759     		ldr	r7, [r4, r5]
 1597 0320 3F0E     		lsr	r7, r7, #24
 1598 0322 3B06     		lsl	r3, r7, #24
 1599 0324 9C46     		mov	ip, r3
1416:..\kronos-c-sdk\src\wolfSSL\wolfcrypt\src/aes.c ****         (Td[4][GETBYTE(t3, 2)] & 0x00ff0000) ^
 1600              		.loc 1 1416 0
 1601 0326 0F0C     		lsr	r7, r1, #16
 1602 0328 FF24     		mov	r4, #255
 1603 032a 2740     		and	r7, r4
 1604 032c 8023     		mov	r3, #128
 1605 032e DB00     		lsl	r3, r3, #3
 1606 0330 9846     		mov	r8, r3
 1607              	.LVL130:
 1608 0332 4744     		add	r7, r7, r8
 1609 0334 BF00     		lsl	r7, r7, #2
 1610 0336 7F59     		ldr	r7, [r7, r5]
 1611 0338 FF23     		mov	r3, #255
 1612 033a 1B04     		lsl	r3, r3, #16
 1613 033c 9846     		mov	r8, r3
 1614 033e 1F40     		and	r7, r3
1415:..\kronos-c-sdk\src\wolfSSL\wolfcrypt\src/aes.c ****         (Td[4][GETBYTE(t3, 2)] & 0x00ff0000) ^
 1615              		.loc 1 1415 0
 1616 0340 6346     		mov	r3, ip
 1617 0342 7B40     		eor	r3, r7
 1618 0344 9A46     		mov	r10, r3
1417:..\kronos-c-sdk\src\wolfSSL\wolfcrypt\src/aes.c ****         (Td[4][GETBYTE(t2, 1)] & 0x0000ff00) ^
 1619              		.loc 1 1417 0
 1620 0346 070A     		lsr	r7, r0, #8
 1621 0348 2740     		and	r7, r4
 1622 034a 8023     		mov	r3, #128
 1623 034c DB00     		lsl	r3, r3, #3
 1624 034e 9C46     		mov	ip, r3
 1625 0350 6744     		add	r7, r7, ip
 1626 0352 BF00     		lsl	r7, r7, #2
 1627 0354 7F59     		ldr	r7, [r7, r5]
 1628 0356 FF23     		mov	r3, #255
 1629 0358 1B02     		lsl	r3, r3, #8
 1630 035a 9C46     		mov	ip, r3
 1631 035c 1F40     		and	r7, r3
1416:..\kronos-c-sdk\src\wolfSSL\wolfcrypt\src/aes.c ****         (Td[4][GETBYTE(t3, 2)] & 0x00ff0000) ^
 1632              		.loc 1 1416 0
 1633 035e 5346     		mov	r3, r10
 1634 0360 7B40     		eor	r3, r7
 1635 0362 9A46     		mov	r10, r3
1418:..\kronos-c-sdk\src\wolfSSL\wolfcrypt\src/aes.c ****         (Td[4][GETBYTE(t1, 0)] & 0x000000ff) ^
 1636              		.loc 1 1418 0
 1637 0364 271C     		mov	r7, r4
 1638 0366 1740     		and	r7, r2
 1639 0368 8023     		mov	r3, #128
 1640 036a DB00     		lsl	r3, r3, #3
 1641 036c 9946     		mov	r9, r3
 1642              	.LVL131:
 1643 036e 4F44     		add	r7, r7, r9
 1644 0370 BF00     		lsl	r7, r7, #2
 1645 0372 7F59     		ldr	r7, [r7, r5]
ARM GAS  C:\Users\ddemidov\AppData\Local\Temp\ccTwWFqA.s 			page 58


 1646 0374 2740     		and	r7, r4
1417:..\kronos-c-sdk\src\wolfSSL\wolfcrypt\src/aes.c ****         (Td[4][GETBYTE(t2, 1)] & 0x0000ff00) ^
 1647              		.loc 1 1417 0
 1648 0376 5346     		mov	r3, r10
 1649 0378 5F40     		eor	r7, r3
 1650              		.loc 1 1418 0
 1651 037a 5B46     		mov	r3, fp
 1652 037c 0093     		str	r3, [sp]
 1653              	.LVL132:
 1654 037e 1B68     		ldr	r3, [r3]
 1655 0380 5F40     		eor	r7, r3
1419:..\kronos-c-sdk\src\wolfSSL\wolfcrypt\src/aes.c ****         rk[0];
1420:..\kronos-c-sdk\src\wolfSSL\wolfcrypt\src/aes.c ****     s1 =
1421:..\kronos-c-sdk\src\wolfSSL\wolfcrypt\src/aes.c ****         (Td[4][GETBYTE(t1, 3)] & 0xff000000) ^
 1656              		.loc 1 1421 0
 1657 0382 130E     		lsr	r3, r2, #24
 1658 0384 9A46     		mov	r10, r3
 1659 0386 CA44     		add	r10, r10, r9
 1660 0388 5346     		mov	r3, r10
 1661 038a 9B00     		lsl	r3, r3, #2
 1662 038c 5B59     		ldr	r3, [r3, r5]
 1663 038e 1B0E     		lsr	r3, r3, #24
 1664 0390 1B06     		lsl	r3, r3, #24
 1665 0392 9B46     		mov	fp, r3
 1666              	.LVL133:
1422:..\kronos-c-sdk\src\wolfSSL\wolfcrypt\src/aes.c ****         (Td[4][GETBYTE(t0, 2)] & 0x00ff0000) ^
 1667              		.loc 1 1422 0
 1668 0394 0196     		str	r6, [sp, #4]
 1669 0396 330C     		lsr	r3, r6, #16
 1670 0398 2340     		and	r3, r4
 1671 039a 9A46     		mov	r10, r3
 1672 039c CA44     		add	r10, r10, r9
 1673 039e 5346     		mov	r3, r10
 1674 03a0 9B00     		lsl	r3, r3, #2
 1675 03a2 5B59     		ldr	r3, [r3, r5]
 1676 03a4 4646     		mov	r6, r8
 1677              	.LVL134:
 1678 03a6 3340     		and	r3, r6
 1679 03a8 9A46     		mov	r10, r3
1421:..\kronos-c-sdk\src\wolfSSL\wolfcrypt\src/aes.c ****         (Td[4][GETBYTE(t0, 2)] & 0x00ff0000) ^
 1680              		.loc 1 1421 0
 1681 03aa 5B46     		mov	r3, fp
 1682 03ac 5646     		mov	r6, r10
 1683 03ae 7340     		eor	r3, r6
 1684 03b0 9B46     		mov	fp, r3
1423:..\kronos-c-sdk\src\wolfSSL\wolfcrypt\src/aes.c ****         (Td[4][GETBYTE(t3, 1)] & 0x0000ff00) ^
 1685              		.loc 1 1423 0
 1686 03b2 0B0A     		lsr	r3, r1, #8
 1687 03b4 2340     		and	r3, r4
 1688 03b6 9A46     		mov	r10, r3
 1689 03b8 CA44     		add	r10, r10, r9
 1690 03ba 5346     		mov	r3, r10
 1691 03bc 9B00     		lsl	r3, r3, #2
 1692 03be 5B59     		ldr	r3, [r3, r5]
 1693 03c0 6646     		mov	r6, ip
 1694 03c2 3340     		and	r3, r6
 1695 03c4 9A46     		mov	r10, r3
ARM GAS  C:\Users\ddemidov\AppData\Local\Temp\ccTwWFqA.s 			page 59


1422:..\kronos-c-sdk\src\wolfSSL\wolfcrypt\src/aes.c ****         (Td[4][GETBYTE(t0, 2)] & 0x00ff0000) ^
 1696              		.loc 1 1422 0
 1697 03c6 5B46     		mov	r3, fp
 1698 03c8 5646     		mov	r6, r10
 1699 03ca 7340     		eor	r3, r6
 1700 03cc 9B46     		mov	fp, r3
1424:..\kronos-c-sdk\src\wolfSSL\wolfcrypt\src/aes.c ****         (Td[4][GETBYTE(t2, 0)] & 0x000000ff) ^
 1701              		.loc 1 1424 0
 1702 03ce 231C     		mov	r3, r4
 1703 03d0 0340     		and	r3, r0
 1704 03d2 9A46     		mov	r10, r3
 1705 03d4 CA44     		add	r10, r10, r9
 1706 03d6 5346     		mov	r3, r10
 1707 03d8 9B00     		lsl	r3, r3, #2
 1708 03da 5B59     		ldr	r3, [r3, r5]
 1709 03dc 2340     		and	r3, r4
 1710 03de 9A46     		mov	r10, r3
1423:..\kronos-c-sdk\src\wolfSSL\wolfcrypt\src/aes.c ****         (Td[4][GETBYTE(t3, 1)] & 0x0000ff00) ^
 1711              		.loc 1 1423 0
 1712 03e0 5B46     		mov	r3, fp
 1713 03e2 5646     		mov	r6, r10
 1714 03e4 7340     		eor	r3, r6
 1715              		.loc 1 1424 0
 1716 03e6 009E     		ldr	r6, [sp]
 1717 03e8 7668     		ldr	r6, [r6, #4]
 1718 03ea 7340     		eor	r3, r6
 1719 03ec 0293     		str	r3, [sp, #8]
1425:..\kronos-c-sdk\src\wolfSSL\wolfcrypt\src/aes.c ****         rk[1];
1426:..\kronos-c-sdk\src\wolfSSL\wolfcrypt\src/aes.c ****     s2 =
1427:..\kronos-c-sdk\src\wolfSSL\wolfcrypt\src/aes.c ****         (Td[4][GETBYTE(t2, 3)] & 0xff000000) ^
 1720              		.loc 1 1427 0
 1721 03ee 030E     		lsr	r3, r0, #24
 1722 03f0 9A46     		mov	r10, r3
 1723 03f2 CA44     		add	r10, r10, r9
 1724 03f4 5346     		mov	r3, r10
 1725 03f6 9B00     		lsl	r3, r3, #2
 1726 03f8 5B59     		ldr	r3, [r3, r5]
 1727 03fa 1B0E     		lsr	r3, r3, #24
 1728 03fc 1B06     		lsl	r3, r3, #24
 1729 03fe 9B46     		mov	fp, r3
1428:..\kronos-c-sdk\src\wolfSSL\wolfcrypt\src/aes.c ****         (Td[4][GETBYTE(t1, 2)] & 0x00ff0000) ^
 1730              		.loc 1 1428 0
 1731 0400 130C     		lsr	r3, r2, #16
 1732 0402 2340     		and	r3, r4
 1733 0404 9A46     		mov	r10, r3
 1734 0406 CA44     		add	r10, r10, r9
 1735 0408 5346     		mov	r3, r10
 1736 040a 9B00     		lsl	r3, r3, #2
 1737 040c 5B59     		ldr	r3, [r3, r5]
 1738 040e 4646     		mov	r6, r8
 1739 0410 3340     		and	r3, r6
 1740 0412 9A46     		mov	r10, r3
1427:..\kronos-c-sdk\src\wolfSSL\wolfcrypt\src/aes.c ****         (Td[4][GETBYTE(t1, 2)] & 0x00ff0000) ^
 1741              		.loc 1 1427 0
 1742 0414 5B46     		mov	r3, fp
 1743 0416 5646     		mov	r6, r10
 1744 0418 7340     		eor	r3, r6
ARM GAS  C:\Users\ddemidov\AppData\Local\Temp\ccTwWFqA.s 			page 60


 1745 041a 9B46     		mov	fp, r3
1429:..\kronos-c-sdk\src\wolfSSL\wolfcrypt\src/aes.c ****         (Td[4][GETBYTE(t0, 1)] & 0x0000ff00) ^
 1746              		.loc 1 1429 0
 1747 041c 019B     		ldr	r3, [sp, #4]
 1748 041e 1B0A     		lsr	r3, r3, #8
 1749 0420 2340     		and	r3, r4
 1750 0422 9A46     		mov	r10, r3
 1751 0424 CA44     		add	r10, r10, r9
 1752 0426 5346     		mov	r3, r10
 1753 0428 9B00     		lsl	r3, r3, #2
 1754 042a 5B59     		ldr	r3, [r3, r5]
 1755 042c 6646     		mov	r6, ip
 1756 042e 3340     		and	r3, r6
 1757 0430 9A46     		mov	r10, r3
1428:..\kronos-c-sdk\src\wolfSSL\wolfcrypt\src/aes.c ****         (Td[4][GETBYTE(t1, 2)] & 0x00ff0000) ^
 1758              		.loc 1 1428 0
 1759 0432 5B46     		mov	r3, fp
 1760 0434 5646     		mov	r6, r10
 1761 0436 7340     		eor	r3, r6
 1762 0438 9B46     		mov	fp, r3
1430:..\kronos-c-sdk\src\wolfSSL\wolfcrypt\src/aes.c ****         (Td[4][GETBYTE(t3, 0)] & 0x000000ff) ^
 1763              		.loc 1 1430 0
 1764 043a 231C     		mov	r3, r4
 1765 043c 0B40     		and	r3, r1
 1766 043e 9A46     		mov	r10, r3
 1767 0440 CA44     		add	r10, r10, r9
 1768 0442 5346     		mov	r3, r10
 1769 0444 9B00     		lsl	r3, r3, #2
 1770 0446 5B59     		ldr	r3, [r3, r5]
 1771 0448 2340     		and	r3, r4
 1772 044a 9A46     		mov	r10, r3
1429:..\kronos-c-sdk\src\wolfSSL\wolfcrypt\src/aes.c ****         (Td[4][GETBYTE(t0, 1)] & 0x0000ff00) ^
 1773              		.loc 1 1429 0
 1774 044c 5B46     		mov	r3, fp
 1775 044e 5646     		mov	r6, r10
 1776 0450 7340     		eor	r3, r6
 1777              		.loc 1 1430 0
 1778 0452 009E     		ldr	r6, [sp]
 1779 0454 B668     		ldr	r6, [r6, #8]
 1780 0456 7340     		eor	r3, r6
 1781 0458 9B46     		mov	fp, r3
1431:..\kronos-c-sdk\src\wolfSSL\wolfcrypt\src/aes.c ****         rk[2];
1432:..\kronos-c-sdk\src\wolfSSL\wolfcrypt\src/aes.c ****     s3 =
1433:..\kronos-c-sdk\src\wolfSSL\wolfcrypt\src/aes.c ****         (Td[4][GETBYTE(t3, 3)] & 0xff000000) ^
 1782              		.loc 1 1433 0
 1783 045a 090E     		lsr	r1, r1, #24
 1784              	.LVL135:
 1785 045c 4944     		add	r1, r1, r9
 1786 045e 8900     		lsl	r1, r1, #2
 1787 0460 4959     		ldr	r1, [r1, r5]
 1788 0462 090E     		lsr	r1, r1, #24
 1789 0464 0906     		lsl	r1, r1, #24
1434:..\kronos-c-sdk\src\wolfSSL\wolfcrypt\src/aes.c ****         (Td[4][GETBYTE(t2, 2)] & 0x00ff0000) ^
 1790              		.loc 1 1434 0
 1791 0466 000C     		lsr	r0, r0, #16
 1792              	.LVL136:
 1793 0468 2040     		and	r0, r4
ARM GAS  C:\Users\ddemidov\AppData\Local\Temp\ccTwWFqA.s 			page 61


 1794 046a 4844     		add	r0, r0, r9
 1795 046c 8000     		lsl	r0, r0, #2
 1796 046e 4059     		ldr	r0, [r0, r5]
 1797 0470 4346     		mov	r3, r8
 1798 0472 1840     		and	r0, r3
1433:..\kronos-c-sdk\src\wolfSSL\wolfcrypt\src/aes.c ****         (Td[4][GETBYTE(t2, 2)] & 0x00ff0000) ^
 1799              		.loc 1 1433 0
 1800 0474 4140     		eor	r1, r0
1435:..\kronos-c-sdk\src\wolfSSL\wolfcrypt\src/aes.c ****         (Td[4][GETBYTE(t1, 1)] & 0x0000ff00) ^
 1801              		.loc 1 1435 0
 1802 0476 120A     		lsr	r2, r2, #8
 1803              	.LVL137:
 1804 0478 2240     		and	r2, r4
 1805 047a 4A44     		add	r2, r2, r9
 1806 047c 9200     		lsl	r2, r2, #2
 1807 047e 5259     		ldr	r2, [r2, r5]
 1808 0480 6346     		mov	r3, ip
 1809 0482 1A40     		and	r2, r3
1434:..\kronos-c-sdk\src\wolfSSL\wolfcrypt\src/aes.c ****         (Td[4][GETBYTE(t2, 2)] & 0x00ff0000) ^
 1810              		.loc 1 1434 0
 1811 0484 5140     		eor	r1, r2
1436:..\kronos-c-sdk\src\wolfSSL\wolfcrypt\src/aes.c ****         (Td[4][GETBYTE(t0, 0)] & 0x000000ff) ^
 1812              		.loc 1 1436 0
 1813 0486 019B     		ldr	r3, [sp, #4]
 1814 0488 2340     		and	r3, r4
 1815 048a 4B44     		add	r3, r3, r9
 1816 048c 9B00     		lsl	r3, r3, #2
 1817 048e 5B59     		ldr	r3, [r3, r5]
 1818 0490 1C40     		and	r4, r3
 1819              	.LVL138:
1435:..\kronos-c-sdk\src\wolfSSL\wolfcrypt\src/aes.c ****         (Td[4][GETBYTE(t1, 1)] & 0x0000ff00) ^
 1820              		.loc 1 1435 0
 1821 0492 6140     		eor	r1, r4
1437:..\kronos-c-sdk\src\wolfSSL\wolfcrypt\src/aes.c ****         rk[3];
 1822              		.loc 1 1437 0
 1823 0494 009E     		ldr	r6, [sp]
 1824 0496 F368     		ldr	r3, [r6, #12]
1436:..\kronos-c-sdk\src\wolfSSL\wolfcrypt\src/aes.c ****         (Td[4][GETBYTE(t0, 0)] & 0x000000ff) ^
 1825              		.loc 1 1436 0
 1826 0498 5940     		eor	r1, r3
 1827              	.LVL139:
 1828              	.LBB130:
 1829              	.LBB131:
 1830              		.loc 2 95 0
 1831 049a 224D     		ldr	r5, .L17+4
 1832              	.LVL140:
 1833 049c 3A1C     		mov	r2, r7
 1834 049e 2A40     		and	r2, r5
 1835 04a0 120A     		lsr	r2, r2, #8
 1836 04a2 214B     		ldr	r3, .L17+8
 1837 04a4 1F40     		and	r7, r3
 1838              	.LVL141:
 1839 04a6 3F02     		lsl	r7, r7, #8
 1840 04a8 1743     		orr	r7, r2
 1841              	.LVL142:
 1842              	.LBB132:
 1843              	.LBB133:
ARM GAS  C:\Users\ddemidov\AppData\Local\Temp\ccTwWFqA.s 			page 62


  70:..\kronos-c-sdk\src\wolfSSL\wolfcrypt\src/misc.c ****     }   
 1844              		.loc 2 70 0
 1845 04aa 1020     		mov	r0, #16
 1846 04ac C741     		ror	r7, r7, r0
 1847              	.LVL143:
 1848              	.LBE133:
 1849              	.LBE132:
 1850              	.LBE131:
 1851              	.LBE130:
1438:..\kronos-c-sdk\src\wolfSSL\wolfcrypt\src/aes.c **** 
1439:..\kronos-c-sdk\src\wolfSSL\wolfcrypt\src/aes.c ****     /* write out */
1440:..\kronos-c-sdk\src\wolfSSL\wolfcrypt\src/aes.c ****     #ifdef LITTLE_ENDIAN_ORDER
1441:..\kronos-c-sdk\src\wolfSSL\wolfcrypt\src/aes.c ****         s0 = ByteReverseWord32(s0);
 1852              		.loc 1 1441 0
 1853 04ae 0797     		str	r7, [sp, #28]
 1854              	.LVL144:
 1855              	.LBB134:
 1856              	.LBB135:
 1857              		.loc 2 95 0
 1858 04b0 029E     		ldr	r6, [sp, #8]
 1859 04b2 321C     		mov	r2, r6
 1860 04b4 2A40     		and	r2, r5
 1861 04b6 140A     		lsr	r4, r2, #8
 1862 04b8 321C     		mov	r2, r6
 1863 04ba 1A40     		and	r2, r3
 1864 04bc 1202     		lsl	r2, r2, #8
 1865 04be 2243     		orr	r2, r4
 1866              	.LVL145:
 1867              	.LBB136:
 1868              	.LBB137:
  70:..\kronos-c-sdk\src\wolfSSL\wolfcrypt\src/misc.c ****     }   
 1869              		.loc 2 70 0
 1870 04c0 C241     		ror	r2, r2, r0
 1871              	.LVL146:
 1872              	.LBE137:
 1873              	.LBE136:
 1874              	.LBE135:
 1875              	.LBE134:
1442:..\kronos-c-sdk\src\wolfSSL\wolfcrypt\src/aes.c ****         s1 = ByteReverseWord32(s1);
 1876              		.loc 1 1442 0
 1877 04c2 0692     		str	r2, [sp, #24]
 1878              	.LVL147:
 1879              	.LBB138:
 1880              	.LBB139:
 1881              		.loc 2 95 0
 1882 04c4 5A46     		mov	r2, fp
 1883 04c6 2A40     		and	r2, r5
 1884 04c8 140A     		lsr	r4, r2, #8
 1885              	.LVL148:
 1886 04ca 5A46     		mov	r2, fp
 1887 04cc 1A40     		and	r2, r3
 1888 04ce 1202     		lsl	r2, r2, #8
 1889 04d0 2243     		orr	r2, r4
 1890              	.LVL149:
 1891              	.LBB140:
 1892              	.LBB141:
  70:..\kronos-c-sdk\src\wolfSSL\wolfcrypt\src/misc.c ****     }   
ARM GAS  C:\Users\ddemidov\AppData\Local\Temp\ccTwWFqA.s 			page 63


 1893              		.loc 2 70 0
 1894 04d2 C241     		ror	r2, r2, r0
 1895              	.LVL150:
 1896              	.LBE141:
 1897              	.LBE140:
 1898              	.LBE139:
 1899              	.LBE138:
1443:..\kronos-c-sdk\src\wolfSSL\wolfcrypt\src/aes.c ****         s2 = ByteReverseWord32(s2);
 1900              		.loc 1 1443 0
 1901 04d4 0592     		str	r2, [sp, #20]
 1902              	.LVL151:
 1903              	.LBB142:
 1904              	.LBB143:
 1905              		.loc 2 95 0
 1906 04d6 0D40     		and	r5, r1
 1907              	.LVL152:
 1908 04d8 2D0A     		lsr	r5, r5, #8
 1909 04da 0B40     		and	r3, r1
 1910              	.LVL153:
 1911 04dc 1B02     		lsl	r3, r3, #8
 1912 04de 2B43     		orr	r3, r5
 1913              	.LVL154:
 1914              	.LBB144:
 1915              	.LBB145:
  70:..\kronos-c-sdk\src\wolfSSL\wolfcrypt\src/misc.c ****     }   
 1916              		.loc 2 70 0
 1917 04e0 C341     		ror	r3, r3, r0
 1918              	.LVL155:
 1919              	.LBE145:
 1920              	.LBE144:
 1921              	.LBE143:
 1922              	.LBE142:
1444:..\kronos-c-sdk\src\wolfSSL\wolfcrypt\src/aes.c ****         s3 = ByteReverseWord32(s3);
 1923              		.loc 1 1444 0
 1924 04e2 0493     		str	r3, [sp, #16]
1445:..\kronos-c-sdk\src\wolfSSL\wolfcrypt\src/aes.c ****     #endif
1446:..\kronos-c-sdk\src\wolfSSL\wolfcrypt\src/aes.c **** 
1447:..\kronos-c-sdk\src\wolfSSL\wolfcrypt\src/aes.c ****     XMEMCPY(outBlock,                  &s0, sizeof(s0));
 1925              		.loc 1 1447 0
 1926 04e4 039C     		ldr	r4, [sp, #12]
 1927              	.LVL156:
 1928 04e6 201C     		mov	r0, r4
 1929 04e8 07A9     		add	r1, sp, #28
 1930              	.LVL157:
 1931 04ea 0422     		mov	r2, #4
 1932 04ec FFF7FEFF 		bl	memcpy
 1933              	.LVL158:
1448:..\kronos-c-sdk\src\wolfSSL\wolfcrypt\src/aes.c ****     XMEMCPY(outBlock + sizeof(s0),     &s1, sizeof(s1));
 1934              		.loc 1 1448 0
 1935 04f0 201D     		add	r0, r4, #4
 1936 04f2 06A9     		add	r1, sp, #24
 1937 04f4 0422     		mov	r2, #4
 1938 04f6 FFF7FEFF 		bl	memcpy
 1939              	.LVL159:
1449:..\kronos-c-sdk\src\wolfSSL\wolfcrypt\src/aes.c ****     XMEMCPY(outBlock + 2 * sizeof(s0), &s2, sizeof(s2));
 1940              		.loc 1 1449 0
 1941 04fa 201C     		mov	r0, r4
ARM GAS  C:\Users\ddemidov\AppData\Local\Temp\ccTwWFqA.s 			page 64


 1942 04fc 0830     		add	r0, r0, #8
 1943 04fe 05A9     		add	r1, sp, #20
 1944 0500 0422     		mov	r2, #4
 1945 0502 FFF7FEFF 		bl	memcpy
 1946              	.LVL160:
1450:..\kronos-c-sdk\src\wolfSSL\wolfcrypt\src/aes.c ****     XMEMCPY(outBlock + 3 * sizeof(s0), &s3, sizeof(s3));
 1947              		.loc 1 1450 0
 1948 0506 201C     		mov	r0, r4
 1949 0508 0C30     		add	r0, r0, #12
 1950 050a 04A9     		add	r1, sp, #16
 1951 050c 0422     		mov	r2, #4
 1952 050e FFF7FEFF 		bl	memcpy
 1953              	.LVL161:
 1954              	.L10:
1451:..\kronos-c-sdk\src\wolfSSL\wolfcrypt\src/aes.c **** }
 1955              		.loc 1 1451 0
 1956 0512 09B0     		add	sp, sp, #36
 1957              	.LVL162:
 1958              		@ sp needed
 1959 0514 3CBC     		pop	{r2, r3, r4, r5}
 1960 0516 9046     		mov	r8, r2
 1961 0518 9946     		mov	r9, r3
 1962 051a A246     		mov	r10, r4
 1963 051c AB46     		mov	fp, r5
 1964 051e F0BD     		pop	{r4, r5, r6, r7, pc}
 1965              	.L18:
 1966              		.align	2
 1967              	.L17:
 1968 0520 00140000 		.word	.LANCHOR1
 1969 0524 00FF00FF 		.word	-16711936
 1970 0528 FF00FF00 		.word	16711935
 1971              		.cfi_endproc
 1972              	.LFE13:
 1973              		.size	wc_AesDecrypt, .-wc_AesDecrypt
 1974              		.section	.text.wc_AesSetIV,"ax",%progbits
 1975              		.align	2
 1976              		.global	wc_AesSetIV
 1977              		.code	16
 1978              		.thumb_func
 1979              		.type	wc_AesSetIV, %function
 1980              	wc_AesSetIV:
 1981              	.LFB16:
1452:..\kronos-c-sdk\src\wolfSSL\wolfcrypt\src/aes.c **** #endif /* HAVE_AES_DECRYPT */
1453:..\kronos-c-sdk\src\wolfSSL\wolfcrypt\src/aes.c **** #endif /* HAVE_AES_CBC || WOLFSSL_AES_DIRECT */
1454:..\kronos-c-sdk\src\wolfSSL\wolfcrypt\src/aes.c **** 
1455:..\kronos-c-sdk\src\wolfSSL\wolfcrypt\src/aes.c **** #endif /* NEED_AES_TABLES */
1456:..\kronos-c-sdk\src\wolfSSL\wolfcrypt\src/aes.c **** 
1457:..\kronos-c-sdk\src\wolfSSL\wolfcrypt\src/aes.c **** 
1458:..\kronos-c-sdk\src\wolfSSL\wolfcrypt\src/aes.c **** /* wc_AesSetKey */
1459:..\kronos-c-sdk\src\wolfSSL\wolfcrypt\src/aes.c **** #ifdef STM32F2_CRYPTO
1460:..\kronos-c-sdk\src\wolfSSL\wolfcrypt\src/aes.c ****     int wc_AesSetKey(Aes* aes, const byte* userKey, word32 keylen, const byte* iv,
1461:..\kronos-c-sdk\src\wolfSSL\wolfcrypt\src/aes.c ****                   int dir)
1462:..\kronos-c-sdk\src\wolfSSL\wolfcrypt\src/aes.c ****     {
1463:..\kronos-c-sdk\src\wolfSSL\wolfcrypt\src/aes.c ****         word32 *rk = aes->key;
1464:..\kronos-c-sdk\src\wolfSSL\wolfcrypt\src/aes.c **** 
1465:..\kronos-c-sdk\src\wolfSSL\wolfcrypt\src/aes.c ****         if (!((keylen == 16) || (keylen == 24) || (keylen == 32)))
1466:..\kronos-c-sdk\src\wolfSSL\wolfcrypt\src/aes.c ****             return BAD_FUNC_ARG;
ARM GAS  C:\Users\ddemidov\AppData\Local\Temp\ccTwWFqA.s 			page 65


1467:..\kronos-c-sdk\src\wolfSSL\wolfcrypt\src/aes.c **** 
1468:..\kronos-c-sdk\src\wolfSSL\wolfcrypt\src/aes.c ****         aes->rounds = keylen/4 + 6;
1469:..\kronos-c-sdk\src\wolfSSL\wolfcrypt\src/aes.c ****         XMEMCPY(rk, userKey, keylen);
1470:..\kronos-c-sdk\src\wolfSSL\wolfcrypt\src/aes.c ****         ByteReverseWords(rk, rk, keylen);
1471:..\kronos-c-sdk\src\wolfSSL\wolfcrypt\src/aes.c **** 
1472:..\kronos-c-sdk\src\wolfSSL\wolfcrypt\src/aes.c ****         return wc_AesSetIV(aes, iv);
1473:..\kronos-c-sdk\src\wolfSSL\wolfcrypt\src/aes.c ****     }
1474:..\kronos-c-sdk\src\wolfSSL\wolfcrypt\src/aes.c **** 
1475:..\kronos-c-sdk\src\wolfSSL\wolfcrypt\src/aes.c ****     int wc_AesSetKeyDirect(Aes* aes, const byte* userKey, word32 keylen,
1476:..\kronos-c-sdk\src\wolfSSL\wolfcrypt\src/aes.c ****                         const byte* iv, int dir)
1477:..\kronos-c-sdk\src\wolfSSL\wolfcrypt\src/aes.c ****     {
1478:..\kronos-c-sdk\src\wolfSSL\wolfcrypt\src/aes.c ****         return wc_AesSetKey(aes, userKey, keylen, iv, dir);
1479:..\kronos-c-sdk\src\wolfSSL\wolfcrypt\src/aes.c ****     }
1480:..\kronos-c-sdk\src\wolfSSL\wolfcrypt\src/aes.c **** 
1481:..\kronos-c-sdk\src\wolfSSL\wolfcrypt\src/aes.c **** #elif defined(HAVE_COLDFIRE_SEC)
1482:..\kronos-c-sdk\src\wolfSSL\wolfcrypt\src/aes.c ****     #if defined (HAVE_THREADX)
1483:..\kronos-c-sdk\src\wolfSSL\wolfcrypt\src/aes.c ****         #include "memory_pools.h"
1484:..\kronos-c-sdk\src\wolfSSL\wolfcrypt\src/aes.c ****         extern TX_BYTE_POOL mp_ncached;  /* Non Cached memory pool */
1485:..\kronos-c-sdk\src\wolfSSL\wolfcrypt\src/aes.c ****     #endif
1486:..\kronos-c-sdk\src\wolfSSL\wolfcrypt\src/aes.c **** 
1487:..\kronos-c-sdk\src\wolfSSL\wolfcrypt\src/aes.c ****     #define AES_BUFFER_SIZE (AES_BLOCK_SIZE * 64)
1488:..\kronos-c-sdk\src\wolfSSL\wolfcrypt\src/aes.c ****     static unsigned char *AESBuffIn = NULL;
1489:..\kronos-c-sdk\src\wolfSSL\wolfcrypt\src/aes.c ****     static unsigned char *AESBuffOut = NULL;
1490:..\kronos-c-sdk\src\wolfSSL\wolfcrypt\src/aes.c ****     static byte *secReg;
1491:..\kronos-c-sdk\src\wolfSSL\wolfcrypt\src/aes.c ****     static byte *secKey;
1492:..\kronos-c-sdk\src\wolfSSL\wolfcrypt\src/aes.c ****     static volatile SECdescriptorType *secDesc;
1493:..\kronos-c-sdk\src\wolfSSL\wolfcrypt\src/aes.c **** 
1494:..\kronos-c-sdk\src\wolfSSL\wolfcrypt\src/aes.c ****     static wolfSSL_Mutex Mutex_AesSEC;
1495:..\kronos-c-sdk\src\wolfSSL\wolfcrypt\src/aes.c **** 
1496:..\kronos-c-sdk\src\wolfSSL\wolfcrypt\src/aes.c ****     #define SEC_DESC_AES_CBC_ENCRYPT 0x60300010
1497:..\kronos-c-sdk\src\wolfSSL\wolfcrypt\src/aes.c ****     #define SEC_DESC_AES_CBC_DECRYPT 0x60200010
1498:..\kronos-c-sdk\src\wolfSSL\wolfcrypt\src/aes.c **** 
1499:..\kronos-c-sdk\src\wolfSSL\wolfcrypt\src/aes.c ****     extern volatile unsigned char __MBAR[];
1500:..\kronos-c-sdk\src\wolfSSL\wolfcrypt\src/aes.c **** 
1501:..\kronos-c-sdk\src\wolfSSL\wolfcrypt\src/aes.c ****     int wc_AesSetKey(Aes* aes, const byte* userKey, word32 keylen, const byte* iv,
1502:..\kronos-c-sdk\src\wolfSSL\wolfcrypt\src/aes.c ****                   int dir)
1503:..\kronos-c-sdk\src\wolfSSL\wolfcrypt\src/aes.c ****     {
1504:..\kronos-c-sdk\src\wolfSSL\wolfcrypt\src/aes.c ****         if (AESBuffIn == NULL) {
1505:..\kronos-c-sdk\src\wolfSSL\wolfcrypt\src/aes.c ****             #if defined (HAVE_THREADX)
1506:..\kronos-c-sdk\src\wolfSSL\wolfcrypt\src/aes.c **** 			    int s1, s2, s3, s4, s5 ;
1507:..\kronos-c-sdk\src\wolfSSL\wolfcrypt\src/aes.c ****                 s5 = tx_byte_allocate(&mp_ncached,(void *)&secDesc,
1508:..\kronos-c-sdk\src\wolfSSL\wolfcrypt\src/aes.c ****                                       sizeof(SECdescriptorType), TX_NO_WAIT);
1509:..\kronos-c-sdk\src\wolfSSL\wolfcrypt\src/aes.c ****                 s1 = tx_byte_allocate(&mp_ncached, (void *)&AESBuffIn,
1510:..\kronos-c-sdk\src\wolfSSL\wolfcrypt\src/aes.c ****                                       AES_BUFFER_SIZE, TX_NO_WAIT);
1511:..\kronos-c-sdk\src\wolfSSL\wolfcrypt\src/aes.c ****                 s2 = tx_byte_allocate(&mp_ncached, (void *)&AESBuffOut,
1512:..\kronos-c-sdk\src\wolfSSL\wolfcrypt\src/aes.c ****                                       AES_BUFFER_SIZE, TX_NO_WAIT);
1513:..\kronos-c-sdk\src\wolfSSL\wolfcrypt\src/aes.c ****                 s3 = tx_byte_allocate(&mp_ncached, (void *)&secKey,
1514:..\kronos-c-sdk\src\wolfSSL\wolfcrypt\src/aes.c ****                                       AES_BLOCK_SIZE*2, TX_NO_WAIT);
1515:..\kronos-c-sdk\src\wolfSSL\wolfcrypt\src/aes.c ****                 s4 = tx_byte_allocate(&mp_ncached, (void *)&secReg,
1516:..\kronos-c-sdk\src\wolfSSL\wolfcrypt\src/aes.c ****                                       AES_BLOCK_SIZE, TX_NO_WAIT);
1517:..\kronos-c-sdk\src\wolfSSL\wolfcrypt\src/aes.c **** 
1518:..\kronos-c-sdk\src\wolfSSL\wolfcrypt\src/aes.c ****                 if(s1 || s2 || s3 || s4 || s5)
1519:..\kronos-c-sdk\src\wolfSSL\wolfcrypt\src/aes.c ****                     return BAD_FUNC_ARG;
1520:..\kronos-c-sdk\src\wolfSSL\wolfcrypt\src/aes.c ****             #else
1521:..\kronos-c-sdk\src\wolfSSL\wolfcrypt\src/aes.c ****                 #warning "Allocate non-Cache buffers"
1522:..\kronos-c-sdk\src\wolfSSL\wolfcrypt\src/aes.c ****             #endif
1523:..\kronos-c-sdk\src\wolfSSL\wolfcrypt\src/aes.c **** 
ARM GAS  C:\Users\ddemidov\AppData\Local\Temp\ccTwWFqA.s 			page 66


1524:..\kronos-c-sdk\src\wolfSSL\wolfcrypt\src/aes.c ****             InitMutex(&Mutex_AesSEC);
1525:..\kronos-c-sdk\src\wolfSSL\wolfcrypt\src/aes.c ****         }
1526:..\kronos-c-sdk\src\wolfSSL\wolfcrypt\src/aes.c **** 
1527:..\kronos-c-sdk\src\wolfSSL\wolfcrypt\src/aes.c ****         if (!((keylen == 16) || (keylen == 24) || (keylen == 32)))
1528:..\kronos-c-sdk\src\wolfSSL\wolfcrypt\src/aes.c ****             return BAD_FUNC_ARG;
1529:..\kronos-c-sdk\src\wolfSSL\wolfcrypt\src/aes.c **** 
1530:..\kronos-c-sdk\src\wolfSSL\wolfcrypt\src/aes.c ****         if (aes == NULL)
1531:..\kronos-c-sdk\src\wolfSSL\wolfcrypt\src/aes.c ****             return BAD_FUNC_ARG;
1532:..\kronos-c-sdk\src\wolfSSL\wolfcrypt\src/aes.c **** 
1533:..\kronos-c-sdk\src\wolfSSL\wolfcrypt\src/aes.c ****         aes->rounds = keylen/4 + 6;
1534:..\kronos-c-sdk\src\wolfSSL\wolfcrypt\src/aes.c ****         XMEMCPY(aes->key, userKey, keylen);
1535:..\kronos-c-sdk\src\wolfSSL\wolfcrypt\src/aes.c **** 
1536:..\kronos-c-sdk\src\wolfSSL\wolfcrypt\src/aes.c ****         if (iv)
1537:..\kronos-c-sdk\src\wolfSSL\wolfcrypt\src/aes.c ****             XMEMCPY(aes->reg, iv, AES_BLOCK_SIZE);
1538:..\kronos-c-sdk\src\wolfSSL\wolfcrypt\src/aes.c **** 
1539:..\kronos-c-sdk\src\wolfSSL\wolfcrypt\src/aes.c ****         return 0;
1540:..\kronos-c-sdk\src\wolfSSL\wolfcrypt\src/aes.c ****     }
1541:..\kronos-c-sdk\src\wolfSSL\wolfcrypt\src/aes.c **** #elif defined(FREESCALE_MMCAU)
1542:..\kronos-c-sdk\src\wolfSSL\wolfcrypt\src/aes.c ****     int wc_AesSetKey(Aes* aes, const byte* userKey, word32 keylen, const byte* iv,
1543:..\kronos-c-sdk\src\wolfSSL\wolfcrypt\src/aes.c ****                   int dir)
1544:..\kronos-c-sdk\src\wolfSSL\wolfcrypt\src/aes.c ****     {
1545:..\kronos-c-sdk\src\wolfSSL\wolfcrypt\src/aes.c ****         int ret;
1546:..\kronos-c-sdk\src\wolfSSL\wolfcrypt\src/aes.c ****         byte *rk = (byte*)aes->key;
1547:..\kronos-c-sdk\src\wolfSSL\wolfcrypt\src/aes.c **** 
1548:..\kronos-c-sdk\src\wolfSSL\wolfcrypt\src/aes.c ****         (void)dir;
1549:..\kronos-c-sdk\src\wolfSSL\wolfcrypt\src/aes.c **** 
1550:..\kronos-c-sdk\src\wolfSSL\wolfcrypt\src/aes.c ****         if (!((keylen == 16) || (keylen == 24) || (keylen == 32)))
1551:..\kronos-c-sdk\src\wolfSSL\wolfcrypt\src/aes.c ****             return BAD_FUNC_ARG;
1552:..\kronos-c-sdk\src\wolfSSL\wolfcrypt\src/aes.c **** 
1553:..\kronos-c-sdk\src\wolfSSL\wolfcrypt\src/aes.c ****         if (rk == NULL)
1554:..\kronos-c-sdk\src\wolfSSL\wolfcrypt\src/aes.c ****             return BAD_FUNC_ARG;
1555:..\kronos-c-sdk\src\wolfSSL\wolfcrypt\src/aes.c **** 
1556:..\kronos-c-sdk\src\wolfSSL\wolfcrypt\src/aes.c ****         aes->rounds = keylen/4 + 6;
1557:..\kronos-c-sdk\src\wolfSSL\wolfcrypt\src/aes.c **** 
1558:..\kronos-c-sdk\src\wolfSSL\wolfcrypt\src/aes.c ****         ret = wolfSSL_CryptHwMutexLock();
1559:..\kronos-c-sdk\src\wolfSSL\wolfcrypt\src/aes.c ****         if(ret == 0) {
1560:..\kronos-c-sdk\src\wolfSSL\wolfcrypt\src/aes.c ****             cau_aes_set_key(userKey, keylen*8, rk);
1561:..\kronos-c-sdk\src\wolfSSL\wolfcrypt\src/aes.c ****             wolfSSL_CryptHwMutexUnLock();
1562:..\kronos-c-sdk\src\wolfSSL\wolfcrypt\src/aes.c **** 
1563:..\kronos-c-sdk\src\wolfSSL\wolfcrypt\src/aes.c ****             ret = wc_AesSetIV(aes, iv);
1564:..\kronos-c-sdk\src\wolfSSL\wolfcrypt\src/aes.c ****         }
1565:..\kronos-c-sdk\src\wolfSSL\wolfcrypt\src/aes.c **** 
1566:..\kronos-c-sdk\src\wolfSSL\wolfcrypt\src/aes.c ****         return ret;
1567:..\kronos-c-sdk\src\wolfSSL\wolfcrypt\src/aes.c ****     }
1568:..\kronos-c-sdk\src\wolfSSL\wolfcrypt\src/aes.c **** 
1569:..\kronos-c-sdk\src\wolfSSL\wolfcrypt\src/aes.c ****     int wc_AesSetKeyDirect(Aes* aes, const byte* userKey, word32 keylen,
1570:..\kronos-c-sdk\src\wolfSSL\wolfcrypt\src/aes.c ****                         const byte* iv, int dir)
1571:..\kronos-c-sdk\src\wolfSSL\wolfcrypt\src/aes.c ****     {
1572:..\kronos-c-sdk\src\wolfSSL\wolfcrypt\src/aes.c ****         return wc_AesSetKey(aes, userKey, keylen, iv, dir);
1573:..\kronos-c-sdk\src\wolfSSL\wolfcrypt\src/aes.c ****     }
1574:..\kronos-c-sdk\src\wolfSSL\wolfcrypt\src/aes.c **** #elif defined(WOLFSSL_NRF51_AES)
1575:..\kronos-c-sdk\src\wolfSSL\wolfcrypt\src/aes.c ****     int wc_AesSetKey(Aes* aes, const byte* userKey, word32 keylen, const byte* iv,
1576:..\kronos-c-sdk\src\wolfSSL\wolfcrypt\src/aes.c ****                   int dir)
1577:..\kronos-c-sdk\src\wolfSSL\wolfcrypt\src/aes.c ****     {
1578:..\kronos-c-sdk\src\wolfSSL\wolfcrypt\src/aes.c ****         int ret;
1579:..\kronos-c-sdk\src\wolfSSL\wolfcrypt\src/aes.c **** 
1580:..\kronos-c-sdk\src\wolfSSL\wolfcrypt\src/aes.c ****         (void)dir;
ARM GAS  C:\Users\ddemidov\AppData\Local\Temp\ccTwWFqA.s 			page 67


1581:..\kronos-c-sdk\src\wolfSSL\wolfcrypt\src/aes.c ****         (void)iv;
1582:..\kronos-c-sdk\src\wolfSSL\wolfcrypt\src/aes.c **** 
1583:..\kronos-c-sdk\src\wolfSSL\wolfcrypt\src/aes.c ****         if (keylen != 16)
1584:..\kronos-c-sdk\src\wolfSSL\wolfcrypt\src/aes.c ****             return BAD_FUNC_ARG;
1585:..\kronos-c-sdk\src\wolfSSL\wolfcrypt\src/aes.c **** 
1586:..\kronos-c-sdk\src\wolfSSL\wolfcrypt\src/aes.c ****         aes->rounds = keylen/4 + 6;
1587:..\kronos-c-sdk\src\wolfSSL\wolfcrypt\src/aes.c ****         ret = nrf51_aes_set_key(userKey);
1588:..\kronos-c-sdk\src\wolfSSL\wolfcrypt\src/aes.c **** 
1589:..\kronos-c-sdk\src\wolfSSL\wolfcrypt\src/aes.c ****         return ret;
1590:..\kronos-c-sdk\src\wolfSSL\wolfcrypt\src/aes.c ****     }
1591:..\kronos-c-sdk\src\wolfSSL\wolfcrypt\src/aes.c **** 
1592:..\kronos-c-sdk\src\wolfSSL\wolfcrypt\src/aes.c ****     int wc_AesSetKeyDirect(Aes* aes, const byte* userKey, word32 keylen,
1593:..\kronos-c-sdk\src\wolfSSL\wolfcrypt\src/aes.c ****                         const byte* iv, int dir)
1594:..\kronos-c-sdk\src\wolfSSL\wolfcrypt\src/aes.c ****     {
1595:..\kronos-c-sdk\src\wolfSSL\wolfcrypt\src/aes.c ****         return wc_AesSetKey(aes, userKey, keylen, iv, dir);
1596:..\kronos-c-sdk\src\wolfSSL\wolfcrypt\src/aes.c ****     }
1597:..\kronos-c-sdk\src\wolfSSL\wolfcrypt\src/aes.c **** #else
1598:..\kronos-c-sdk\src\wolfSSL\wolfcrypt\src/aes.c ****     static int wc_AesSetKeyLocal(Aes* aes, const byte* userKey, word32 keylen,
1599:..\kronos-c-sdk\src\wolfSSL\wolfcrypt\src/aes.c ****                 const byte* iv, int dir)
1600:..\kronos-c-sdk\src\wolfSSL\wolfcrypt\src/aes.c ****     {
1601:..\kronos-c-sdk\src\wolfSSL\wolfcrypt\src/aes.c ****         word32 temp, *rk = aes->key;
1602:..\kronos-c-sdk\src\wolfSSL\wolfcrypt\src/aes.c ****         unsigned int i = 0;
1603:..\kronos-c-sdk\src\wolfSSL\wolfcrypt\src/aes.c **** 
1604:..\kronos-c-sdk\src\wolfSSL\wolfcrypt\src/aes.c ****         #ifdef WOLFSSL_AESNI
1605:..\kronos-c-sdk\src\wolfSSL\wolfcrypt\src/aes.c ****             aes->use_aesni = 0;
1606:..\kronos-c-sdk\src\wolfSSL\wolfcrypt\src/aes.c ****         #endif /* WOLFSSL_AESNI */
1607:..\kronos-c-sdk\src\wolfSSL\wolfcrypt\src/aes.c ****         #ifdef WOLFSSL_AES_COUNTER
1608:..\kronos-c-sdk\src\wolfSSL\wolfcrypt\src/aes.c ****             aes->left = 0;
1609:..\kronos-c-sdk\src\wolfSSL\wolfcrypt\src/aes.c ****         #endif /* WOLFSSL_AES_COUNTER */
1610:..\kronos-c-sdk\src\wolfSSL\wolfcrypt\src/aes.c **** 
1611:..\kronos-c-sdk\src\wolfSSL\wolfcrypt\src/aes.c ****         aes->rounds = keylen/4 + 6;
1612:..\kronos-c-sdk\src\wolfSSL\wolfcrypt\src/aes.c **** 
1613:..\kronos-c-sdk\src\wolfSSL\wolfcrypt\src/aes.c ****         XMEMCPY(rk, userKey, keylen);
1614:..\kronos-c-sdk\src\wolfSSL\wolfcrypt\src/aes.c ****         #ifdef LITTLE_ENDIAN_ORDER
1615:..\kronos-c-sdk\src\wolfSSL\wolfcrypt\src/aes.c ****             ByteReverseWords(rk, rk, keylen);
1616:..\kronos-c-sdk\src\wolfSSL\wolfcrypt\src/aes.c ****         #endif
1617:..\kronos-c-sdk\src\wolfSSL\wolfcrypt\src/aes.c **** 
1618:..\kronos-c-sdk\src\wolfSSL\wolfcrypt\src/aes.c ****         #ifdef WOLFSSL_PIC32MZ_CRYPT
1619:..\kronos-c-sdk\src\wolfSSL\wolfcrypt\src/aes.c ****         {
1620:..\kronos-c-sdk\src\wolfSSL\wolfcrypt\src/aes.c ****             word32 *akey1 = aes->key_ce;
1621:..\kronos-c-sdk\src\wolfSSL\wolfcrypt\src/aes.c ****             word32 *areg = aes->iv_ce ;
1622:..\kronos-c-sdk\src\wolfSSL\wolfcrypt\src/aes.c ****             aes->keylen = keylen ;
1623:..\kronos-c-sdk\src\wolfSSL\wolfcrypt\src/aes.c ****             XMEMCPY(akey1, userKey, keylen);
1624:..\kronos-c-sdk\src\wolfSSL\wolfcrypt\src/aes.c ****             if (iv)
1625:..\kronos-c-sdk\src\wolfSSL\wolfcrypt\src/aes.c ****                 XMEMCPY(areg, iv, AES_BLOCK_SIZE);
1626:..\kronos-c-sdk\src\wolfSSL\wolfcrypt\src/aes.c ****             else
1627:..\kronos-c-sdk\src\wolfSSL\wolfcrypt\src/aes.c ****                 XMEMSET(areg,  0, AES_BLOCK_SIZE);
1628:..\kronos-c-sdk\src\wolfSSL\wolfcrypt\src/aes.c ****         }
1629:..\kronos-c-sdk\src\wolfSSL\wolfcrypt\src/aes.c ****         #endif
1630:..\kronos-c-sdk\src\wolfSSL\wolfcrypt\src/aes.c **** 
1631:..\kronos-c-sdk\src\wolfSSL\wolfcrypt\src/aes.c ****         switch(keylen)
1632:..\kronos-c-sdk\src\wolfSSL\wolfcrypt\src/aes.c ****         {
1633:..\kronos-c-sdk\src\wolfSSL\wolfcrypt\src/aes.c **** #if defined(AES_MAX_KEY_SIZE) && AES_MAX_KEY_SIZE >= 128
1634:..\kronos-c-sdk\src\wolfSSL\wolfcrypt\src/aes.c ****         case 16:
1635:..\kronos-c-sdk\src\wolfSSL\wolfcrypt\src/aes.c ****             while (1)
1636:..\kronos-c-sdk\src\wolfSSL\wolfcrypt\src/aes.c ****             {
1637:..\kronos-c-sdk\src\wolfSSL\wolfcrypt\src/aes.c ****                 temp  = rk[3];
ARM GAS  C:\Users\ddemidov\AppData\Local\Temp\ccTwWFqA.s 			page 68


1638:..\kronos-c-sdk\src\wolfSSL\wolfcrypt\src/aes.c ****                 rk[4] = rk[0] ^
1639:..\kronos-c-sdk\src\wolfSSL\wolfcrypt\src/aes.c ****                     (Te[4][GETBYTE(temp, 2)] & 0xff000000) ^
1640:..\kronos-c-sdk\src\wolfSSL\wolfcrypt\src/aes.c ****                     (Te[4][GETBYTE(temp, 1)] & 0x00ff0000) ^
1641:..\kronos-c-sdk\src\wolfSSL\wolfcrypt\src/aes.c ****                     (Te[4][GETBYTE(temp, 0)] & 0x0000ff00) ^
1642:..\kronos-c-sdk\src\wolfSSL\wolfcrypt\src/aes.c ****                     (Te[4][GETBYTE(temp, 3)] & 0x000000ff) ^
1643:..\kronos-c-sdk\src\wolfSSL\wolfcrypt\src/aes.c ****                     rcon[i];
1644:..\kronos-c-sdk\src\wolfSSL\wolfcrypt\src/aes.c ****                 rk[5] = rk[1] ^ rk[4];
1645:..\kronos-c-sdk\src\wolfSSL\wolfcrypt\src/aes.c ****                 rk[6] = rk[2] ^ rk[5];
1646:..\kronos-c-sdk\src\wolfSSL\wolfcrypt\src/aes.c ****                 rk[7] = rk[3] ^ rk[6];
1647:..\kronos-c-sdk\src\wolfSSL\wolfcrypt\src/aes.c ****                 if (++i == 10)
1648:..\kronos-c-sdk\src\wolfSSL\wolfcrypt\src/aes.c ****                     break;
1649:..\kronos-c-sdk\src\wolfSSL\wolfcrypt\src/aes.c ****                 rk += 4;
1650:..\kronos-c-sdk\src\wolfSSL\wolfcrypt\src/aes.c ****             }
1651:..\kronos-c-sdk\src\wolfSSL\wolfcrypt\src/aes.c ****             break;
1652:..\kronos-c-sdk\src\wolfSSL\wolfcrypt\src/aes.c **** #endif /* 128 */
1653:..\kronos-c-sdk\src\wolfSSL\wolfcrypt\src/aes.c **** 
1654:..\kronos-c-sdk\src\wolfSSL\wolfcrypt\src/aes.c **** #if defined(AES_MAX_KEY_SIZE) && AES_MAX_KEY_SIZE >= 192
1655:..\kronos-c-sdk\src\wolfSSL\wolfcrypt\src/aes.c ****         case 24:
1656:..\kronos-c-sdk\src\wolfSSL\wolfcrypt\src/aes.c ****             /* for (;;) here triggers a bug in VC60 SP4 w/ Pro Pack */
1657:..\kronos-c-sdk\src\wolfSSL\wolfcrypt\src/aes.c ****             while (1)
1658:..\kronos-c-sdk\src\wolfSSL\wolfcrypt\src/aes.c ****             {
1659:..\kronos-c-sdk\src\wolfSSL\wolfcrypt\src/aes.c ****                 temp = rk[ 5];
1660:..\kronos-c-sdk\src\wolfSSL\wolfcrypt\src/aes.c ****                 rk[ 6] = rk[ 0] ^
1661:..\kronos-c-sdk\src\wolfSSL\wolfcrypt\src/aes.c ****                     (Te[4][GETBYTE(temp, 2)] & 0xff000000) ^
1662:..\kronos-c-sdk\src\wolfSSL\wolfcrypt\src/aes.c ****                     (Te[4][GETBYTE(temp, 1)] & 0x00ff0000) ^
1663:..\kronos-c-sdk\src\wolfSSL\wolfcrypt\src/aes.c ****                     (Te[4][GETBYTE(temp, 0)] & 0x0000ff00) ^
1664:..\kronos-c-sdk\src\wolfSSL\wolfcrypt\src/aes.c ****                     (Te[4][GETBYTE(temp, 3)] & 0x000000ff) ^
1665:..\kronos-c-sdk\src\wolfSSL\wolfcrypt\src/aes.c ****                     rcon[i];
1666:..\kronos-c-sdk\src\wolfSSL\wolfcrypt\src/aes.c ****                 rk[ 7] = rk[ 1] ^ rk[ 6];
1667:..\kronos-c-sdk\src\wolfSSL\wolfcrypt\src/aes.c ****                 rk[ 8] = rk[ 2] ^ rk[ 7];
1668:..\kronos-c-sdk\src\wolfSSL\wolfcrypt\src/aes.c ****                 rk[ 9] = rk[ 3] ^ rk[ 8];
1669:..\kronos-c-sdk\src\wolfSSL\wolfcrypt\src/aes.c ****                 if (++i == 8)
1670:..\kronos-c-sdk\src\wolfSSL\wolfcrypt\src/aes.c ****                     break;
1671:..\kronos-c-sdk\src\wolfSSL\wolfcrypt\src/aes.c ****                 rk[10] = rk[ 4] ^ rk[ 9];
1672:..\kronos-c-sdk\src\wolfSSL\wolfcrypt\src/aes.c ****                 rk[11] = rk[ 5] ^ rk[10];
1673:..\kronos-c-sdk\src\wolfSSL\wolfcrypt\src/aes.c ****                 rk += 6;
1674:..\kronos-c-sdk\src\wolfSSL\wolfcrypt\src/aes.c ****             }
1675:..\kronos-c-sdk\src\wolfSSL\wolfcrypt\src/aes.c ****             break;
1676:..\kronos-c-sdk\src\wolfSSL\wolfcrypt\src/aes.c **** #endif /* 192 */
1677:..\kronos-c-sdk\src\wolfSSL\wolfcrypt\src/aes.c **** 
1678:..\kronos-c-sdk\src\wolfSSL\wolfcrypt\src/aes.c **** #if defined(AES_MAX_KEY_SIZE) && AES_MAX_KEY_SIZE >= 256
1679:..\kronos-c-sdk\src\wolfSSL\wolfcrypt\src/aes.c ****         case 32:
1680:..\kronos-c-sdk\src\wolfSSL\wolfcrypt\src/aes.c ****             while (1)
1681:..\kronos-c-sdk\src\wolfSSL\wolfcrypt\src/aes.c ****             {
1682:..\kronos-c-sdk\src\wolfSSL\wolfcrypt\src/aes.c ****                 temp = rk[ 7];
1683:..\kronos-c-sdk\src\wolfSSL\wolfcrypt\src/aes.c ****                 rk[ 8] = rk[ 0] ^
1684:..\kronos-c-sdk\src\wolfSSL\wolfcrypt\src/aes.c ****                     (Te[4][GETBYTE(temp, 2)] & 0xff000000) ^
1685:..\kronos-c-sdk\src\wolfSSL\wolfcrypt\src/aes.c ****                     (Te[4][GETBYTE(temp, 1)] & 0x00ff0000) ^
1686:..\kronos-c-sdk\src\wolfSSL\wolfcrypt\src/aes.c ****                     (Te[4][GETBYTE(temp, 0)] & 0x0000ff00) ^
1687:..\kronos-c-sdk\src\wolfSSL\wolfcrypt\src/aes.c ****                     (Te[4][GETBYTE(temp, 3)] & 0x000000ff) ^
1688:..\kronos-c-sdk\src\wolfSSL\wolfcrypt\src/aes.c ****                     rcon[i];
1689:..\kronos-c-sdk\src\wolfSSL\wolfcrypt\src/aes.c ****                 rk[ 9] = rk[ 1] ^ rk[ 8];
1690:..\kronos-c-sdk\src\wolfSSL\wolfcrypt\src/aes.c ****                 rk[10] = rk[ 2] ^ rk[ 9];
1691:..\kronos-c-sdk\src\wolfSSL\wolfcrypt\src/aes.c ****                 rk[11] = rk[ 3] ^ rk[10];
1692:..\kronos-c-sdk\src\wolfSSL\wolfcrypt\src/aes.c ****                 if (++i == 7)
1693:..\kronos-c-sdk\src\wolfSSL\wolfcrypt\src/aes.c ****                     break;
1694:..\kronos-c-sdk\src\wolfSSL\wolfcrypt\src/aes.c ****                 temp = rk[11];
ARM GAS  C:\Users\ddemidov\AppData\Local\Temp\ccTwWFqA.s 			page 69


1695:..\kronos-c-sdk\src\wolfSSL\wolfcrypt\src/aes.c ****                 rk[12] = rk[ 4] ^
1696:..\kronos-c-sdk\src\wolfSSL\wolfcrypt\src/aes.c ****                     (Te[4][GETBYTE(temp, 3)] & 0xff000000) ^
1697:..\kronos-c-sdk\src\wolfSSL\wolfcrypt\src/aes.c ****                     (Te[4][GETBYTE(temp, 2)] & 0x00ff0000) ^
1698:..\kronos-c-sdk\src\wolfSSL\wolfcrypt\src/aes.c ****                     (Te[4][GETBYTE(temp, 1)] & 0x0000ff00) ^
1699:..\kronos-c-sdk\src\wolfSSL\wolfcrypt\src/aes.c ****                     (Te[4][GETBYTE(temp, 0)] & 0x000000ff);
1700:..\kronos-c-sdk\src\wolfSSL\wolfcrypt\src/aes.c ****                 rk[13] = rk[ 5] ^ rk[12];
1701:..\kronos-c-sdk\src\wolfSSL\wolfcrypt\src/aes.c ****                 rk[14] = rk[ 6] ^ rk[13];
1702:..\kronos-c-sdk\src\wolfSSL\wolfcrypt\src/aes.c ****                 rk[15] = rk[ 7] ^ rk[14];
1703:..\kronos-c-sdk\src\wolfSSL\wolfcrypt\src/aes.c **** 
1704:..\kronos-c-sdk\src\wolfSSL\wolfcrypt\src/aes.c ****                 rk += 8;
1705:..\kronos-c-sdk\src\wolfSSL\wolfcrypt\src/aes.c ****             }
1706:..\kronos-c-sdk\src\wolfSSL\wolfcrypt\src/aes.c ****             break;
1707:..\kronos-c-sdk\src\wolfSSL\wolfcrypt\src/aes.c **** #endif /* 256 */
1708:..\kronos-c-sdk\src\wolfSSL\wolfcrypt\src/aes.c **** 
1709:..\kronos-c-sdk\src\wolfSSL\wolfcrypt\src/aes.c ****         default:
1710:..\kronos-c-sdk\src\wolfSSL\wolfcrypt\src/aes.c ****             return BAD_FUNC_ARG;
1711:..\kronos-c-sdk\src\wolfSSL\wolfcrypt\src/aes.c ****         }
1712:..\kronos-c-sdk\src\wolfSSL\wolfcrypt\src/aes.c **** 
1713:..\kronos-c-sdk\src\wolfSSL\wolfcrypt\src/aes.c **** #ifdef HAVE_AES_DECRYPT
1714:..\kronos-c-sdk\src\wolfSSL\wolfcrypt\src/aes.c ****         if (dir == AES_DECRYPTION)
1715:..\kronos-c-sdk\src\wolfSSL\wolfcrypt\src/aes.c ****         {
1716:..\kronos-c-sdk\src\wolfSSL\wolfcrypt\src/aes.c ****             unsigned int j;
1717:..\kronos-c-sdk\src\wolfSSL\wolfcrypt\src/aes.c ****             rk = aes->key;
1718:..\kronos-c-sdk\src\wolfSSL\wolfcrypt\src/aes.c **** 
1719:..\kronos-c-sdk\src\wolfSSL\wolfcrypt\src/aes.c ****             /* invert the order of the round keys: */
1720:..\kronos-c-sdk\src\wolfSSL\wolfcrypt\src/aes.c ****             for (i = 0, j = 4* aes->rounds; i < j; i += 4, j -= 4) {
1721:..\kronos-c-sdk\src\wolfSSL\wolfcrypt\src/aes.c ****                 temp = rk[i    ]; rk[i    ] = rk[j    ]; rk[j    ] = temp;
1722:..\kronos-c-sdk\src\wolfSSL\wolfcrypt\src/aes.c ****                 temp = rk[i + 1]; rk[i + 1] = rk[j + 1]; rk[j + 1] = temp;
1723:..\kronos-c-sdk\src\wolfSSL\wolfcrypt\src/aes.c ****                 temp = rk[i + 2]; rk[i + 2] = rk[j + 2]; rk[j + 2] = temp;
1724:..\kronos-c-sdk\src\wolfSSL\wolfcrypt\src/aes.c ****                 temp = rk[i + 3]; rk[i + 3] = rk[j + 3]; rk[j + 3] = temp;
1725:..\kronos-c-sdk\src\wolfSSL\wolfcrypt\src/aes.c ****             }
1726:..\kronos-c-sdk\src\wolfSSL\wolfcrypt\src/aes.c ****             /* apply the inverse MixColumn transform to all round keys but the
1727:..\kronos-c-sdk\src\wolfSSL\wolfcrypt\src/aes.c ****                first and the last: */
1728:..\kronos-c-sdk\src\wolfSSL\wolfcrypt\src/aes.c ****             for (i = 1; i < aes->rounds; i++) {
1729:..\kronos-c-sdk\src\wolfSSL\wolfcrypt\src/aes.c ****                 rk += 4;
1730:..\kronos-c-sdk\src\wolfSSL\wolfcrypt\src/aes.c ****                 rk[0] =
1731:..\kronos-c-sdk\src\wolfSSL\wolfcrypt\src/aes.c ****                     Td[0][Te[4][GETBYTE(rk[0], 3)] & 0xff] ^
1732:..\kronos-c-sdk\src\wolfSSL\wolfcrypt\src/aes.c ****                     Td[1][Te[4][GETBYTE(rk[0], 2)] & 0xff] ^
1733:..\kronos-c-sdk\src\wolfSSL\wolfcrypt\src/aes.c ****                     Td[2][Te[4][GETBYTE(rk[0], 1)] & 0xff] ^
1734:..\kronos-c-sdk\src\wolfSSL\wolfcrypt\src/aes.c ****                     Td[3][Te[4][GETBYTE(rk[0], 0)] & 0xff];
1735:..\kronos-c-sdk\src\wolfSSL\wolfcrypt\src/aes.c ****                 rk[1] =
1736:..\kronos-c-sdk\src\wolfSSL\wolfcrypt\src/aes.c ****                     Td[0][Te[4][GETBYTE(rk[1], 3)] & 0xff] ^
1737:..\kronos-c-sdk\src\wolfSSL\wolfcrypt\src/aes.c ****                     Td[1][Te[4][GETBYTE(rk[1], 2)] & 0xff] ^
1738:..\kronos-c-sdk\src\wolfSSL\wolfcrypt\src/aes.c ****                     Td[2][Te[4][GETBYTE(rk[1], 1)] & 0xff] ^
1739:..\kronos-c-sdk\src\wolfSSL\wolfcrypt\src/aes.c ****                     Td[3][Te[4][GETBYTE(rk[1], 0)] & 0xff];
1740:..\kronos-c-sdk\src\wolfSSL\wolfcrypt\src/aes.c ****                 rk[2] =
1741:..\kronos-c-sdk\src\wolfSSL\wolfcrypt\src/aes.c ****                     Td[0][Te[4][GETBYTE(rk[2], 3)] & 0xff] ^
1742:..\kronos-c-sdk\src\wolfSSL\wolfcrypt\src/aes.c ****                     Td[1][Te[4][GETBYTE(rk[2], 2)] & 0xff] ^
1743:..\kronos-c-sdk\src\wolfSSL\wolfcrypt\src/aes.c ****                     Td[2][Te[4][GETBYTE(rk[2], 1)] & 0xff] ^
1744:..\kronos-c-sdk\src\wolfSSL\wolfcrypt\src/aes.c ****                     Td[3][Te[4][GETBYTE(rk[2], 0)] & 0xff];
1745:..\kronos-c-sdk\src\wolfSSL\wolfcrypt\src/aes.c ****                 rk[3] =
1746:..\kronos-c-sdk\src\wolfSSL\wolfcrypt\src/aes.c ****                     Td[0][Te[4][GETBYTE(rk[3], 3)] & 0xff] ^
1747:..\kronos-c-sdk\src\wolfSSL\wolfcrypt\src/aes.c ****                     Td[1][Te[4][GETBYTE(rk[3], 2)] & 0xff] ^
1748:..\kronos-c-sdk\src\wolfSSL\wolfcrypt\src/aes.c ****                     Td[2][Te[4][GETBYTE(rk[3], 1)] & 0xff] ^
1749:..\kronos-c-sdk\src\wolfSSL\wolfcrypt\src/aes.c ****                     Td[3][Te[4][GETBYTE(rk[3], 0)] & 0xff];
1750:..\kronos-c-sdk\src\wolfSSL\wolfcrypt\src/aes.c ****             }
1751:..\kronos-c-sdk\src\wolfSSL\wolfcrypt\src/aes.c ****         }
ARM GAS  C:\Users\ddemidov\AppData\Local\Temp\ccTwWFqA.s 			page 70


1752:..\kronos-c-sdk\src\wolfSSL\wolfcrypt\src/aes.c **** #endif /* HAVE_AES_DECRYPT */
1753:..\kronos-c-sdk\src\wolfSSL\wolfcrypt\src/aes.c **** 
1754:..\kronos-c-sdk\src\wolfSSL\wolfcrypt\src/aes.c ****         return wc_AesSetIV(aes, iv);
1755:..\kronos-c-sdk\src\wolfSSL\wolfcrypt\src/aes.c ****     }
1756:..\kronos-c-sdk\src\wolfSSL\wolfcrypt\src/aes.c **** 
1757:..\kronos-c-sdk\src\wolfSSL\wolfcrypt\src/aes.c ****     int wc_AesSetKey(Aes* aes, const byte* userKey, word32 keylen, const byte* iv,
1758:..\kronos-c-sdk\src\wolfSSL\wolfcrypt\src/aes.c ****                   int dir)
1759:..\kronos-c-sdk\src\wolfSSL\wolfcrypt\src/aes.c ****     {
1760:..\kronos-c-sdk\src\wolfSSL\wolfcrypt\src/aes.c ****     #if defined(AES_MAX_KEY_SIZE)
1761:..\kronos-c-sdk\src\wolfSSL\wolfcrypt\src/aes.c ****         const word32 max_key_len = (AES_MAX_KEY_SIZE / 8);
1762:..\kronos-c-sdk\src\wolfSSL\wolfcrypt\src/aes.c ****     #endif
1763:..\kronos-c-sdk\src\wolfSSL\wolfcrypt\src/aes.c **** 
1764:..\kronos-c-sdk\src\wolfSSL\wolfcrypt\src/aes.c ****         if (!((keylen == 16) || (keylen == 24) || (keylen == 32)))
1765:..\kronos-c-sdk\src\wolfSSL\wolfcrypt\src/aes.c ****             return BAD_FUNC_ARG;
1766:..\kronos-c-sdk\src\wolfSSL\wolfcrypt\src/aes.c **** 
1767:..\kronos-c-sdk\src\wolfSSL\wolfcrypt\src/aes.c ****     #if defined(AES_MAX_KEY_SIZE)
1768:..\kronos-c-sdk\src\wolfSSL\wolfcrypt\src/aes.c ****         /* Check key length */
1769:..\kronos-c-sdk\src\wolfSSL\wolfcrypt\src/aes.c ****         if (keylen > max_key_len) {
1770:..\kronos-c-sdk\src\wolfSSL\wolfcrypt\src/aes.c ****             return BAD_FUNC_ARG;
1771:..\kronos-c-sdk\src\wolfSSL\wolfcrypt\src/aes.c ****         }
1772:..\kronos-c-sdk\src\wolfSSL\wolfcrypt\src/aes.c ****     #endif
1773:..\kronos-c-sdk\src\wolfSSL\wolfcrypt\src/aes.c **** 
1774:..\kronos-c-sdk\src\wolfSSL\wolfcrypt\src/aes.c ****     #ifdef HAVE_CAVIUM
1775:..\kronos-c-sdk\src\wolfSSL\wolfcrypt\src/aes.c ****         if (aes->magic == WOLFSSL_AES_CAVIUM_MAGIC)
1776:..\kronos-c-sdk\src\wolfSSL\wolfcrypt\src/aes.c ****             return wc_AesCaviumSetKey(aes, userKey, keylen, iv);
1777:..\kronos-c-sdk\src\wolfSSL\wolfcrypt\src/aes.c ****     #endif
1778:..\kronos-c-sdk\src\wolfSSL\wolfcrypt\src/aes.c **** 
1779:..\kronos-c-sdk\src\wolfSSL\wolfcrypt\src/aes.c ****     #ifdef WOLFSSL_AESNI
1780:..\kronos-c-sdk\src\wolfSSL\wolfcrypt\src/aes.c ****         if (checkAESNI == 0) {
1781:..\kronos-c-sdk\src\wolfSSL\wolfcrypt\src/aes.c ****             haveAESNI  = Check_CPU_support_AES();
1782:..\kronos-c-sdk\src\wolfSSL\wolfcrypt\src/aes.c ****             checkAESNI = 1;
1783:..\kronos-c-sdk\src\wolfSSL\wolfcrypt\src/aes.c ****         }
1784:..\kronos-c-sdk\src\wolfSSL\wolfcrypt\src/aes.c ****         if (haveAESNI) {
1785:..\kronos-c-sdk\src\wolfSSL\wolfcrypt\src/aes.c ****             aes->use_aesni = 1;
1786:..\kronos-c-sdk\src\wolfSSL\wolfcrypt\src/aes.c ****             if (iv)
1787:..\kronos-c-sdk\src\wolfSSL\wolfcrypt\src/aes.c ****                 XMEMCPY(aes->reg, iv, AES_BLOCK_SIZE);
1788:..\kronos-c-sdk\src\wolfSSL\wolfcrypt\src/aes.c ****             if (dir == AES_ENCRYPTION)
1789:..\kronos-c-sdk\src\wolfSSL\wolfcrypt\src/aes.c ****                 return AES_set_encrypt_key(userKey, keylen * 8, aes);
1790:..\kronos-c-sdk\src\wolfSSL\wolfcrypt\src/aes.c ****         #ifdef HAVE_AES_DECRYPT
1791:..\kronos-c-sdk\src\wolfSSL\wolfcrypt\src/aes.c ****             else
1792:..\kronos-c-sdk\src\wolfSSL\wolfcrypt\src/aes.c ****                 return AES_set_decrypt_key(userKey, keylen * 8, aes);
1793:..\kronos-c-sdk\src\wolfSSL\wolfcrypt\src/aes.c ****         #endif
1794:..\kronos-c-sdk\src\wolfSSL\wolfcrypt\src/aes.c ****         }
1795:..\kronos-c-sdk\src\wolfSSL\wolfcrypt\src/aes.c ****     #endif /* WOLFSSL_AESNI */
1796:..\kronos-c-sdk\src\wolfSSL\wolfcrypt\src/aes.c **** 
1797:..\kronos-c-sdk\src\wolfSSL\wolfcrypt\src/aes.c ****         return wc_AesSetKeyLocal(aes, userKey, keylen, iv, dir);
1798:..\kronos-c-sdk\src\wolfSSL\wolfcrypt\src/aes.c ****     }
1799:..\kronos-c-sdk\src\wolfSSL\wolfcrypt\src/aes.c **** 
1800:..\kronos-c-sdk\src\wolfSSL\wolfcrypt\src/aes.c ****     #if defined(WOLFSSL_AES_DIRECT) || defined(WOLFSSL_AES_COUNTER)
1801:..\kronos-c-sdk\src\wolfSSL\wolfcrypt\src/aes.c **** 
1802:..\kronos-c-sdk\src\wolfSSL\wolfcrypt\src/aes.c ****     /* AES-CTR and AES-DIRECT need to use this for key setup, no aesni yet */
1803:..\kronos-c-sdk\src\wolfSSL\wolfcrypt\src/aes.c ****     int wc_AesSetKeyDirect(Aes* aes, const byte* userKey, word32 keylen,
1804:..\kronos-c-sdk\src\wolfSSL\wolfcrypt\src/aes.c ****                         const byte* iv, int dir)
1805:..\kronos-c-sdk\src\wolfSSL\wolfcrypt\src/aes.c ****     {
1806:..\kronos-c-sdk\src\wolfSSL\wolfcrypt\src/aes.c ****         return wc_AesSetKeyLocal(aes, userKey, keylen, iv, dir);
1807:..\kronos-c-sdk\src\wolfSSL\wolfcrypt\src/aes.c ****     }
1808:..\kronos-c-sdk\src\wolfSSL\wolfcrypt\src/aes.c **** 
ARM GAS  C:\Users\ddemidov\AppData\Local\Temp\ccTwWFqA.s 			page 71


1809:..\kronos-c-sdk\src\wolfSSL\wolfcrypt\src/aes.c ****     #endif /* WOLFSSL_AES_DIRECT || WOLFSSL_AES_COUNTER */
1810:..\kronos-c-sdk\src\wolfSSL\wolfcrypt\src/aes.c **** #endif /* STM32F2_CRYPTO, wc_AesSetKey block */
1811:..\kronos-c-sdk\src\wolfSSL\wolfcrypt\src/aes.c **** 
1812:..\kronos-c-sdk\src\wolfSSL\wolfcrypt\src/aes.c **** 
1813:..\kronos-c-sdk\src\wolfSSL\wolfcrypt\src/aes.c **** /* wc_AesSetIV is shared between software and hardware */
1814:..\kronos-c-sdk\src\wolfSSL\wolfcrypt\src/aes.c **** int wc_AesSetIV(Aes* aes, const byte* iv)
1815:..\kronos-c-sdk\src\wolfSSL\wolfcrypt\src/aes.c **** {
 1982              		.loc 1 1815 0
 1983              		.cfi_startproc
 1984              	.LVL163:
 1985 0000 08B5     		push	{r3, lr}
 1986              		.cfi_def_cfa_offset 8
 1987              		.cfi_offset 3, -8
 1988              		.cfi_offset 14, -4
1816:..\kronos-c-sdk\src\wolfSSL\wolfcrypt\src/aes.c ****     if (aes == NULL)
 1989              		.loc 1 1816 0
 1990 0002 0028     		cmp	r0, #0
 1991 0004 0ED0     		beq	.L22
1817:..\kronos-c-sdk\src\wolfSSL\wolfcrypt\src/aes.c ****         return BAD_FUNC_ARG;
1818:..\kronos-c-sdk\src\wolfSSL\wolfcrypt\src/aes.c **** 
1819:..\kronos-c-sdk\src\wolfSSL\wolfcrypt\src/aes.c ****     if (iv)
 1992              		.loc 1 1819 0
 1993 0006 0029     		cmp	r1, #0
 1994 0008 05D0     		beq	.L21
1820:..\kronos-c-sdk\src\wolfSSL\wolfcrypt\src/aes.c ****         XMEMCPY(aes->reg, iv, AES_BLOCK_SIZE);
 1995              		.loc 1 1820 0
 1996 000a F430     		add	r0, r0, #244
 1997              	.LVL164:
 1998 000c 1022     		mov	r2, #16
 1999 000e FFF7FEFF 		bl	memcpy
 2000              	.LVL165:
1821:..\kronos-c-sdk\src\wolfSSL\wolfcrypt\src/aes.c ****     else
1822:..\kronos-c-sdk\src\wolfSSL\wolfcrypt\src/aes.c ****         XMEMSET(aes->reg,  0, AES_BLOCK_SIZE);
1823:..\kronos-c-sdk\src\wolfSSL\wolfcrypt\src/aes.c **** 
1824:..\kronos-c-sdk\src\wolfSSL\wolfcrypt\src/aes.c ****     return 0;
 2001              		.loc 1 1824 0
 2002 0012 0020     		mov	r0, #0
 2003 0014 08E0     		b	.L20
 2004              	.LVL166:
 2005              	.L21:
1822:..\kronos-c-sdk\src\wolfSSL\wolfcrypt\src/aes.c **** 
 2006              		.loc 1 1822 0
 2007 0016 F430     		add	r0, r0, #244
 2008              	.LVL167:
 2009 0018 0021     		mov	r1, #0
 2010              	.LVL168:
 2011 001a 1022     		mov	r2, #16
 2012 001c FFF7FEFF 		bl	memset
 2013              	.LVL169:
 2014              		.loc 1 1824 0
 2015 0020 0020     		mov	r0, #0
 2016 0022 01E0     		b	.L20
 2017              	.LVL170:
 2018              	.L22:
1817:..\kronos-c-sdk\src\wolfSSL\wolfcrypt\src/aes.c **** 
 2019              		.loc 1 1817 0
 2020 0024 AD20     		mov	r0, #173
ARM GAS  C:\Users\ddemidov\AppData\Local\Temp\ccTwWFqA.s 			page 72


 2021              	.LVL171:
 2022 0026 4042     		neg	r0, r0
 2023              	.LVL172:
 2024              	.L20:
1825:..\kronos-c-sdk\src\wolfSSL\wolfcrypt\src/aes.c **** }
 2025              		.loc 1 1825 0
 2026              		@ sp needed
 2027 0028 08BD     		pop	{r3, pc}
 2028              		.cfi_endproc
 2029              	.LFE16:
 2030              		.size	wc_AesSetIV, .-wc_AesSetIV
 2031 002a C046     		.section	.text.wc_AesSetKeyLocal,"ax",%progbits
 2032              		.align	2
 2033              		.code	16
 2034              		.thumb_func
 2035              		.type	wc_AesSetKeyLocal, %function
 2036              	wc_AesSetKeyLocal:
 2037              	.LFB14:
1600:..\kronos-c-sdk\src\wolfSSL\wolfcrypt\src/aes.c ****         word32 temp, *rk = aes->key;
 2038              		.loc 1 1600 0
 2039              		.cfi_startproc
 2040              	.LVL173:
 2041 0000 F0B5     		push	{r4, r5, r6, r7, lr}
 2042              		.cfi_def_cfa_offset 20
 2043              		.cfi_offset 4, -20
 2044              		.cfi_offset 5, -16
 2045              		.cfi_offset 6, -12
 2046              		.cfi_offset 7, -8
 2047              		.cfi_offset 14, -4
 2048 0002 5F46     		mov	r7, fp
 2049 0004 5646     		mov	r6, r10
 2050 0006 4D46     		mov	r5, r9
 2051 0008 4446     		mov	r4, r8
 2052 000a F0B4     		push	{r4, r5, r6, r7}
 2053              		.cfi_def_cfa_offset 36
 2054              		.cfi_offset 8, -36
 2055              		.cfi_offset 9, -32
 2056              		.cfi_offset 10, -28
 2057              		.cfi_offset 11, -24
 2058 000c 83B0     		sub	sp, sp, #12
 2059              		.cfi_def_cfa_offset 48
 2060 000e 8346     		mov	fp, r0
 2061 0010 141C     		mov	r4, r2
 2062 0012 0193     		str	r3, [sp, #4]
1601:..\kronos-c-sdk\src\wolfSSL\wolfcrypt\src/aes.c ****         unsigned int i = 0;
 2063              		.loc 1 1601 0
 2064 0014 051C     		mov	r5, r0
 2065              	.LVL174:
1611:..\kronos-c-sdk\src\wolfSSL\wolfcrypt\src/aes.c **** 
 2066              		.loc 1 1611 0
 2067 0016 9608     		lsr	r6, r2, #2
 2068 0018 B21D     		add	r2, r6, #6
 2069              	.LVL175:
 2070 001a F023     		mov	r3, #240
 2071              	.LVL176:
 2072 001c C250     		str	r2, [r0, r3]
1613:..\kronos-c-sdk\src\wolfSSL\wolfcrypt\src/aes.c ****         #ifdef LITTLE_ENDIAN_ORDER
ARM GAS  C:\Users\ddemidov\AppData\Local\Temp\ccTwWFqA.s 			page 73


 2073              		.loc 1 1613 0
 2074 001e 221C     		mov	r2, r4
 2075 0020 FFF7FEFF 		bl	memcpy
 2076              	.LVL177:
 2077              	.LBB146:
 2078              	.LBB147:
  96:..\kronos-c-sdk\src\wolfSSL\wolfcrypt\src/misc.c ****     return rotlFixed(value, 16U);
  97:..\kronos-c-sdk\src\wolfSSL\wolfcrypt\src/misc.c **** #endif
  98:..\kronos-c-sdk\src\wolfSSL\wolfcrypt\src/misc.c **** }
  99:..\kronos-c-sdk\src\wolfSSL\wolfcrypt\src/misc.c **** 
 100:..\kronos-c-sdk\src\wolfSSL\wolfcrypt\src/misc.c **** 
 101:..\kronos-c-sdk\src\wolfSSL\wolfcrypt\src/misc.c **** STATIC INLINE void ByteReverseWords(word32* out, const word32* in,
 102:..\kronos-c-sdk\src\wolfSSL\wolfcrypt\src/misc.c ****                                     word32 byteCount)
 103:..\kronos-c-sdk\src\wolfSSL\wolfcrypt\src/misc.c **** {
 104:..\kronos-c-sdk\src\wolfSSL\wolfcrypt\src/misc.c ****     word32 count = byteCount/(word32)sizeof(word32), i;
 105:..\kronos-c-sdk\src\wolfSSL\wolfcrypt\src/misc.c **** 
 106:..\kronos-c-sdk\src\wolfSSL\wolfcrypt\src/misc.c ****     for (i = 0; i < count; i++)
 2079              		.loc 2 106 0
 2080 0024 0020     		mov	r0, #0
 2081 0026 0EE0     		b	.L24
 2082              	.LVL178:
 2083              	.L25:
 107:..\kronos-c-sdk\src\wolfSSL\wolfcrypt\src/misc.c ****         out[i] = ByteReverseWord32(in[i]);
 2084              		.loc 2 107 0
 2085 0028 8100     		lsl	r1, r0, #2
 2086 002a 6918     		add	r1, r5, r1
 2087              	.LVL179:
 2088              	.LBB148:
 2089              	.LBB149:
  95:..\kronos-c-sdk\src\wolfSSL\wolfcrypt\src/misc.c ****     return rotlFixed(value, 16U);
 2090              		.loc 2 95 0
 2091 002c AC4B     		ldr	r3, .L41
 2092 002e 0A68     		ldr	r2, [r1]
 2093 0030 1340     		and	r3, r2
 2094 0032 1F0A     		lsr	r7, r3, #8
 2095 0034 AB4A     		ldr	r2, .L41+4
 2096 0036 0B68     		ldr	r3, [r1]
 2097 0038 1340     		and	r3, r2
 2098 003a 1B02     		lsl	r3, r3, #8
 2099 003c 3B43     		orr	r3, r7
 2100              	.LVL180:
 2101              	.LBB150:
 2102              	.LBB151:
  70:..\kronos-c-sdk\src\wolfSSL\wolfcrypt\src/misc.c ****     }   
 2103              		.loc 2 70 0
 2104 003e 1022     		mov	r2, #16
 2105 0040 D341     		ror	r3, r3, r2
 2106              	.LVL181:
 2107              	.LBE151:
 2108              	.LBE150:
 2109              	.LBE149:
 2110              	.LBE148:
 2111              		.loc 2 107 0
 2112 0042 0B60     		str	r3, [r1]
 2113              	.LVL182:
 106:..\kronos-c-sdk\src\wolfSSL\wolfcrypt\src/misc.c ****         out[i] = ByteReverseWord32(in[i]);
 2114              		.loc 2 106 0
ARM GAS  C:\Users\ddemidov\AppData\Local\Temp\ccTwWFqA.s 			page 74


 2115 0044 0130     		add	r0, r0, #1
 2116              	.LVL183:
 2117              	.L24:
 2118 0046 8642     		cmp	r6, r0
 2119 0048 EED8     		bhi	.L25
 2120              	.LBE147:
 2121              	.LBE146:
1631:..\kronos-c-sdk\src\wolfSSL\wolfcrypt\src/aes.c ****         {
 2122              		.loc 1 1631 0
 2123 004a 182C     		cmp	r4, #24
 2124 004c 4AD0     		beq	.L38
 2125 004e 202C     		cmp	r4, #32
 2126 0050 00D1     		bne	.LCB2142
 2127 0052 92E0     		b	.L39	@long jump
 2128              	.LCB2142:
 2129 0054 102C     		cmp	r4, #16
 2130 0056 00D0     		beq	.LCB2144
 2131 0058 3BE2     		b	.L40	@long jump
 2132              	.LCB2144:
 2133 005a 5B46     		mov	r3, fp
 2134 005c 0022     		mov	r2, #0
 2135 005e 9046     		mov	r8, r2
 2136              	.LVL184:
 2137              	.L29:
1637:..\kronos-c-sdk\src\wolfSSL\wolfcrypt\src/aes.c ****                 rk[4] = rk[0] ^
 2138              		.loc 1 1637 0
 2139 0060 D868     		ldr	r0, [r3, #12]
 2140              	.LVL185:
1639:..\kronos-c-sdk\src\wolfSSL\wolfcrypt\src/aes.c ****                     (Te[4][GETBYTE(temp, 1)] & 0x00ff0000) ^
 2141              		.loc 1 1639 0
 2142 0062 020C     		lsr	r2, r0, #16
 2143 0064 FF26     		mov	r6, #255
 2144 0066 3240     		and	r2, r6
 2145 0068 9F4F     		ldr	r7, .L41+8
 2146 006a 8021     		mov	r1, #128
 2147 006c C900     		lsl	r1, r1, #3
 2148 006e 8C46     		mov	ip, r1
 2149 0070 6244     		add	r2, r2, ip
 2150 0072 9200     		lsl	r2, r2, #2
 2151 0074 D259     		ldr	r2, [r2, r7]
 2152 0076 120E     		lsr	r2, r2, #24
 2153 0078 1206     		lsl	r2, r2, #24
1638:..\kronos-c-sdk\src\wolfSSL\wolfcrypt\src/aes.c ****                     (Te[4][GETBYTE(temp, 2)] & 0xff000000) ^
 2154              		.loc 1 1638 0
 2155 007a 1968     		ldr	r1, [r3]
 2156 007c 4A40     		eor	r2, r1
1640:..\kronos-c-sdk\src\wolfSSL\wolfcrypt\src/aes.c ****                     (Te[4][GETBYTE(temp, 0)] & 0x0000ff00) ^
 2157              		.loc 1 1640 0
 2158 007e 010A     		lsr	r1, r0, #8
 2159 0080 3140     		and	r1, r6
 2160 0082 6144     		add	r1, r1, ip
 2161 0084 8900     		lsl	r1, r1, #2
 2162 0086 C959     		ldr	r1, [r1, r7]
 2163 0088 8946     		mov	r9, r1
 2164 008a FF21     		mov	r1, #255
 2165 008c 0904     		lsl	r1, r1, #16
 2166 008e 4C46     		mov	r4, r9
ARM GAS  C:\Users\ddemidov\AppData\Local\Temp\ccTwWFqA.s 			page 75


 2167 0090 2140     		and	r1, r4
1639:..\kronos-c-sdk\src\wolfSSL\wolfcrypt\src/aes.c ****                     (Te[4][GETBYTE(temp, 1)] & 0x00ff0000) ^
 2168              		.loc 1 1639 0
 2169 0092 4A40     		eor	r2, r1
1641:..\kronos-c-sdk\src\wolfSSL\wolfcrypt\src/aes.c ****                     (Te[4][GETBYTE(temp, 3)] & 0x000000ff) ^
 2170              		.loc 1 1641 0
 2171 0094 311C     		mov	r1, r6
 2172 0096 0140     		and	r1, r0
 2173 0098 6144     		add	r1, r1, ip
 2174 009a 8900     		lsl	r1, r1, #2
 2175 009c C959     		ldr	r1, [r1, r7]
 2176 009e 8946     		mov	r9, r1
 2177 00a0 FF21     		mov	r1, #255
 2178 00a2 0902     		lsl	r1, r1, #8
 2179 00a4 4C46     		mov	r4, r9
 2180 00a6 2140     		and	r1, r4
1640:..\kronos-c-sdk\src\wolfSSL\wolfcrypt\src/aes.c ****                     (Te[4][GETBYTE(temp, 0)] & 0x0000ff00) ^
 2181              		.loc 1 1640 0
 2182 00a8 4A40     		eor	r2, r1
1642:..\kronos-c-sdk\src\wolfSSL\wolfcrypt\src/aes.c ****                     rcon[i];
 2183              		.loc 1 1642 0
 2184 00aa 010E     		lsr	r1, r0, #24
 2185 00ac 6144     		add	r1, r1, ip
 2186 00ae 8900     		lsl	r1, r1, #2
 2187 00b0 C959     		ldr	r1, [r1, r7]
 2188 00b2 0E40     		and	r6, r1
1641:..\kronos-c-sdk\src\wolfSSL\wolfcrypt\src/aes.c ****                     (Te[4][GETBYTE(temp, 3)] & 0x000000ff) ^
 2189              		.loc 1 1641 0
 2190 00b4 5640     		eor	r6, r2
1643:..\kronos-c-sdk\src\wolfSSL\wolfcrypt\src/aes.c ****                 rk[5] = rk[1] ^ rk[4];
 2191              		.loc 1 1643 0
 2192 00b6 4246     		mov	r2, r8
 2193 00b8 9100     		lsl	r1, r2, #2
 2194 00ba 8C4A     		ldr	r2, .L41+12
 2195 00bc 8A58     		ldr	r2, [r1, r2]
1642:..\kronos-c-sdk\src\wolfSSL\wolfcrypt\src/aes.c ****                     rcon[i];
 2196              		.loc 1 1642 0
 2197 00be 5640     		eor	r6, r2
1638:..\kronos-c-sdk\src\wolfSSL\wolfcrypt\src/aes.c ****                     (Te[4][GETBYTE(temp, 2)] & 0xff000000) ^
 2198              		.loc 1 1638 0
 2199 00c0 1E61     		str	r6, [r3, #16]
1644:..\kronos-c-sdk\src\wolfSSL\wolfcrypt\src/aes.c ****                 rk[6] = rk[2] ^ rk[5];
 2200              		.loc 1 1644 0
 2201 00c2 5A68     		ldr	r2, [r3, #4]
 2202 00c4 5640     		eor	r6, r2
 2203 00c6 5E61     		str	r6, [r3, #20]
1645:..\kronos-c-sdk\src\wolfSSL\wolfcrypt\src/aes.c ****                 rk[7] = rk[3] ^ rk[6];
 2204              		.loc 1 1645 0
 2205 00c8 9A68     		ldr	r2, [r3, #8]
 2206 00ca 5640     		eor	r6, r2
 2207 00cc 9E61     		str	r6, [r3, #24]
1646:..\kronos-c-sdk\src\wolfSSL\wolfcrypt\src/aes.c ****                 if (++i == 10)
 2208              		.loc 1 1646 0
 2209 00ce 7040     		eor	r0, r6
 2210              	.LVL186:
 2211 00d0 D861     		str	r0, [r3, #28]
1647:..\kronos-c-sdk\src\wolfSSL\wolfcrypt\src/aes.c ****                     break;
ARM GAS  C:\Users\ddemidov\AppData\Local\Temp\ccTwWFqA.s 			page 76


 2212              		.loc 1 1647 0
 2213 00d2 0122     		mov	r2, #1
 2214 00d4 9446     		mov	ip, r2
 2215 00d6 E044     		add	r8, r8, ip
 2216              	.LVL187:
 2217 00d8 4246     		mov	r2, r8
 2218 00da 0A2A     		cmp	r2, #10
 2219 00dc 00D1     		bne	.LCB2227
 2220 00de C8E0     		b	.L30	@long jump
 2221              	.LCB2227:
1649:..\kronos-c-sdk\src\wolfSSL\wolfcrypt\src/aes.c ****             }
 2222              		.loc 1 1649 0
 2223 00e0 1033     		add	r3, r3, #16
 2224              	.LVL188:
1650:..\kronos-c-sdk\src\wolfSSL\wolfcrypt\src/aes.c ****             break;
 2225              		.loc 1 1650 0
 2226 00e2 BDE7     		b	.L29
 2227              	.LVL189:
 2228              	.L38:
1631:..\kronos-c-sdk\src\wolfSSL\wolfcrypt\src/aes.c ****         {
 2229              		.loc 1 1631 0
 2230 00e4 5B46     		mov	r3, fp
 2231 00e6 0022     		mov	r2, #0
 2232 00e8 9046     		mov	r8, r2
 2233              	.LVL190:
 2234              	.L27:
1659:..\kronos-c-sdk\src\wolfSSL\wolfcrypt\src/aes.c ****                 rk[ 6] = rk[ 0] ^
 2235              		.loc 1 1659 0
 2236 00ea 5869     		ldr	r0, [r3, #20]
 2237              	.LVL191:
1661:..\kronos-c-sdk\src\wolfSSL\wolfcrypt\src/aes.c ****                     (Te[4][GETBYTE(temp, 1)] & 0x00ff0000) ^
 2238              		.loc 1 1661 0
 2239 00ec 020C     		lsr	r2, r0, #16
 2240 00ee FF26     		mov	r6, #255
 2241 00f0 3240     		and	r2, r6
 2242 00f2 7D4F     		ldr	r7, .L41+8
 2243 00f4 8021     		mov	r1, #128
 2244 00f6 C900     		lsl	r1, r1, #3
 2245 00f8 8C46     		mov	ip, r1
 2246 00fa 6244     		add	r2, r2, ip
 2247 00fc 9200     		lsl	r2, r2, #2
 2248 00fe D259     		ldr	r2, [r2, r7]
 2249 0100 120E     		lsr	r2, r2, #24
 2250 0102 1206     		lsl	r2, r2, #24
1660:..\kronos-c-sdk\src\wolfSSL\wolfcrypt\src/aes.c ****                     (Te[4][GETBYTE(temp, 2)] & 0xff000000) ^
 2251              		.loc 1 1660 0
 2252 0104 1968     		ldr	r1, [r3]
 2253 0106 4A40     		eor	r2, r1
1662:..\kronos-c-sdk\src\wolfSSL\wolfcrypt\src/aes.c ****                     (Te[4][GETBYTE(temp, 0)] & 0x0000ff00) ^
 2254              		.loc 1 1662 0
 2255 0108 010A     		lsr	r1, r0, #8
 2256 010a 3140     		and	r1, r6
 2257 010c 6144     		add	r1, r1, ip
 2258 010e 8900     		lsl	r1, r1, #2
 2259 0110 C959     		ldr	r1, [r1, r7]
 2260 0112 8946     		mov	r9, r1
 2261 0114 FF21     		mov	r1, #255
ARM GAS  C:\Users\ddemidov\AppData\Local\Temp\ccTwWFqA.s 			page 77


 2262 0116 0904     		lsl	r1, r1, #16
 2263 0118 4C46     		mov	r4, r9
 2264 011a 2140     		and	r1, r4
1661:..\kronos-c-sdk\src\wolfSSL\wolfcrypt\src/aes.c ****                     (Te[4][GETBYTE(temp, 1)] & 0x00ff0000) ^
 2265              		.loc 1 1661 0
 2266 011c 4A40     		eor	r2, r1
1663:..\kronos-c-sdk\src\wolfSSL\wolfcrypt\src/aes.c ****                     (Te[4][GETBYTE(temp, 3)] & 0x000000ff) ^
 2267              		.loc 1 1663 0
 2268 011e 311C     		mov	r1, r6
 2269 0120 0140     		and	r1, r0
 2270 0122 6144     		add	r1, r1, ip
 2271 0124 8900     		lsl	r1, r1, #2
 2272 0126 C959     		ldr	r1, [r1, r7]
 2273 0128 8946     		mov	r9, r1
 2274 012a FF21     		mov	r1, #255
 2275 012c 0902     		lsl	r1, r1, #8
 2276 012e 4C46     		mov	r4, r9
 2277 0130 2140     		and	r1, r4
1662:..\kronos-c-sdk\src\wolfSSL\wolfcrypt\src/aes.c ****                     (Te[4][GETBYTE(temp, 0)] & 0x0000ff00) ^
 2278              		.loc 1 1662 0
 2279 0132 4A40     		eor	r2, r1
1664:..\kronos-c-sdk\src\wolfSSL\wolfcrypt\src/aes.c ****                     rcon[i];
 2280              		.loc 1 1664 0
 2281 0134 010E     		lsr	r1, r0, #24
 2282 0136 6144     		add	r1, r1, ip
 2283 0138 8900     		lsl	r1, r1, #2
 2284 013a C959     		ldr	r1, [r1, r7]
 2285 013c 0E40     		and	r6, r1
1663:..\kronos-c-sdk\src\wolfSSL\wolfcrypt\src/aes.c ****                     (Te[4][GETBYTE(temp, 3)] & 0x000000ff) ^
 2286              		.loc 1 1663 0
 2287 013e 5640     		eor	r6, r2
1665:..\kronos-c-sdk\src\wolfSSL\wolfcrypt\src/aes.c ****                 rk[ 7] = rk[ 1] ^ rk[ 6];
 2288              		.loc 1 1665 0
 2289 0140 4246     		mov	r2, r8
 2290 0142 9100     		lsl	r1, r2, #2
 2291 0144 694A     		ldr	r2, .L41+12
 2292 0146 8A58     		ldr	r2, [r1, r2]
1664:..\kronos-c-sdk\src\wolfSSL\wolfcrypt\src/aes.c ****                     rcon[i];
 2293              		.loc 1 1664 0
 2294 0148 7240     		eor	r2, r6
1660:..\kronos-c-sdk\src\wolfSSL\wolfcrypt\src/aes.c ****                     (Te[4][GETBYTE(temp, 2)] & 0xff000000) ^
 2295              		.loc 1 1660 0
 2296 014a 9A61     		str	r2, [r3, #24]
1666:..\kronos-c-sdk\src\wolfSSL\wolfcrypt\src/aes.c ****                 rk[ 8] = rk[ 2] ^ rk[ 7];
 2297              		.loc 1 1666 0
 2298 014c 5968     		ldr	r1, [r3, #4]
 2299 014e 4A40     		eor	r2, r1
 2300 0150 DA61     		str	r2, [r3, #28]
1667:..\kronos-c-sdk\src\wolfSSL\wolfcrypt\src/aes.c ****                 rk[ 9] = rk[ 3] ^ rk[ 8];
 2301              		.loc 1 1667 0
 2302 0152 9968     		ldr	r1, [r3, #8]
 2303 0154 4A40     		eor	r2, r1
 2304 0156 1A62     		str	r2, [r3, #32]
1668:..\kronos-c-sdk\src\wolfSSL\wolfcrypt\src/aes.c ****                 if (++i == 8)
 2305              		.loc 1 1668 0
 2306 0158 D968     		ldr	r1, [r3, #12]
 2307 015a 4A40     		eor	r2, r1
ARM GAS  C:\Users\ddemidov\AppData\Local\Temp\ccTwWFqA.s 			page 78


 2308 015c 5A62     		str	r2, [r3, #36]
1669:..\kronos-c-sdk\src\wolfSSL\wolfcrypt\src/aes.c ****                     break;
 2309              		.loc 1 1669 0
 2310 015e 0121     		mov	r1, #1
 2311 0160 8C46     		mov	ip, r1
 2312 0162 E044     		add	r8, r8, ip
 2313              	.LVL192:
 2314 0164 4146     		mov	r1, r8
 2315 0166 0829     		cmp	r1, #8
 2316 0168 00D1     		bne	.LCB2331
 2317 016a 82E0     		b	.L30	@long jump
 2318              	.LCB2331:
1671:..\kronos-c-sdk\src\wolfSSL\wolfcrypt\src/aes.c ****                 rk[11] = rk[ 5] ^ rk[10];
 2319              		.loc 1 1671 0
 2320 016c 1969     		ldr	r1, [r3, #16]
 2321 016e 4A40     		eor	r2, r1
 2322 0170 9A62     		str	r2, [r3, #40]
1672:..\kronos-c-sdk\src\wolfSSL\wolfcrypt\src/aes.c ****                 rk += 6;
 2323              		.loc 1 1672 0
 2324 0172 5040     		eor	r0, r2
 2325              	.LVL193:
 2326 0174 D862     		str	r0, [r3, #44]
1673:..\kronos-c-sdk\src\wolfSSL\wolfcrypt\src/aes.c ****             }
 2327              		.loc 1 1673 0
 2328 0176 1833     		add	r3, r3, #24
 2329              	.LVL194:
1674:..\kronos-c-sdk\src\wolfSSL\wolfcrypt\src/aes.c ****             break;
 2330              		.loc 1 1674 0
 2331 0178 B7E7     		b	.L27
 2332              	.LVL195:
 2333              	.L39:
1631:..\kronos-c-sdk\src\wolfSSL\wolfcrypt\src/aes.c ****         {
 2334              		.loc 1 1631 0
 2335 017a 5B46     		mov	r3, fp
 2336 017c 0022     		mov	r2, #0
 2337 017e 0092     		str	r2, [sp]
 2338              	.LVL196:
 2339              	.L28:
1682:..\kronos-c-sdk\src\wolfSSL\wolfcrypt\src/aes.c ****                 rk[ 8] = rk[ 0] ^
 2340              		.loc 1 1682 0
 2341 0180 D869     		ldr	r0, [r3, #28]
 2342              	.LVL197:
1684:..\kronos-c-sdk\src\wolfSSL\wolfcrypt\src/aes.c ****                     (Te[4][GETBYTE(temp, 1)] & 0x00ff0000) ^
 2343              		.loc 1 1684 0
 2344 0182 020C     		lsr	r2, r0, #16
 2345 0184 FF24     		mov	r4, #255
 2346 0186 2240     		and	r2, r4
 2347 0188 574F     		ldr	r7, .L41+8
 2348 018a 8021     		mov	r1, #128
 2349 018c C900     		lsl	r1, r1, #3
 2350 018e 8C46     		mov	ip, r1
 2351 0190 6244     		add	r2, r2, ip
 2352 0192 9200     		lsl	r2, r2, #2
 2353 0194 D259     		ldr	r2, [r2, r7]
 2354 0196 120E     		lsr	r2, r2, #24
 2355 0198 1206     		lsl	r2, r2, #24
1683:..\kronos-c-sdk\src\wolfSSL\wolfcrypt\src/aes.c ****                     (Te[4][GETBYTE(temp, 2)] & 0xff000000) ^
ARM GAS  C:\Users\ddemidov\AppData\Local\Temp\ccTwWFqA.s 			page 79


 2356              		.loc 1 1683 0
 2357 019a 1968     		ldr	r1, [r3]
 2358 019c 4A40     		eor	r2, r1
1685:..\kronos-c-sdk\src\wolfSSL\wolfcrypt\src/aes.c ****                     (Te[4][GETBYTE(temp, 0)] & 0x0000ff00) ^
 2359              		.loc 1 1685 0
 2360 019e 010A     		lsr	r1, r0, #8
 2361 01a0 2140     		and	r1, r4
 2362 01a2 6144     		add	r1, r1, ip
 2363 01a4 8900     		lsl	r1, r1, #2
 2364 01a6 C959     		ldr	r1, [r1, r7]
 2365 01a8 8946     		mov	r9, r1
 2366 01aa FF21     		mov	r1, #255
 2367 01ac 0904     		lsl	r1, r1, #16
 2368 01ae 4E46     		mov	r6, r9
 2369 01b0 3140     		and	r1, r6
1684:..\kronos-c-sdk\src\wolfSSL\wolfcrypt\src/aes.c ****                     (Te[4][GETBYTE(temp, 1)] & 0x00ff0000) ^
 2370              		.loc 1 1684 0
 2371 01b2 4A40     		eor	r2, r1
1686:..\kronos-c-sdk\src\wolfSSL\wolfcrypt\src/aes.c ****                     (Te[4][GETBYTE(temp, 3)] & 0x000000ff) ^
 2372              		.loc 1 1686 0
 2373 01b4 211C     		mov	r1, r4
 2374 01b6 0140     		and	r1, r0
 2375 01b8 6144     		add	r1, r1, ip
 2376 01ba 8900     		lsl	r1, r1, #2
 2377 01bc C959     		ldr	r1, [r1, r7]
 2378 01be 8946     		mov	r9, r1
 2379 01c0 FF21     		mov	r1, #255
 2380 01c2 0902     		lsl	r1, r1, #8
 2381 01c4 4E46     		mov	r6, r9
 2382 01c6 3140     		and	r1, r6
1685:..\kronos-c-sdk\src\wolfSSL\wolfcrypt\src/aes.c ****                     (Te[4][GETBYTE(temp, 0)] & 0x0000ff00) ^
 2383              		.loc 1 1685 0
 2384 01c8 4A40     		eor	r2, r1
1687:..\kronos-c-sdk\src\wolfSSL\wolfcrypt\src/aes.c ****                     rcon[i];
 2385              		.loc 1 1687 0
 2386 01ca 010E     		lsr	r1, r0, #24
 2387 01cc 6144     		add	r1, r1, ip
 2388 01ce 8900     		lsl	r1, r1, #2
 2389 01d0 C959     		ldr	r1, [r1, r7]
 2390 01d2 2140     		and	r1, r4
1686:..\kronos-c-sdk\src\wolfSSL\wolfcrypt\src/aes.c ****                     (Te[4][GETBYTE(temp, 3)] & 0x000000ff) ^
 2391              		.loc 1 1686 0
 2392 01d4 4A40     		eor	r2, r1
1688:..\kronos-c-sdk\src\wolfSSL\wolfcrypt\src/aes.c ****                 rk[ 9] = rk[ 1] ^ rk[ 8];
 2393              		.loc 1 1688 0
 2394 01d6 009E     		ldr	r6, [sp]
 2395 01d8 B400     		lsl	r4, r6, #2
 2396 01da 4449     		ldr	r1, .L41+12
 2397 01dc 6158     		ldr	r1, [r4, r1]
1687:..\kronos-c-sdk\src\wolfSSL\wolfcrypt\src/aes.c ****                     rcon[i];
 2398              		.loc 1 1687 0
 2399 01de 4A40     		eor	r2, r1
1683:..\kronos-c-sdk\src\wolfSSL\wolfcrypt\src/aes.c ****                     (Te[4][GETBYTE(temp, 2)] & 0xff000000) ^
 2400              		.loc 1 1683 0
 2401 01e0 1A62     		str	r2, [r3, #32]
1689:..\kronos-c-sdk\src\wolfSSL\wolfcrypt\src/aes.c ****                 rk[10] = rk[ 2] ^ rk[ 9];
 2402              		.loc 1 1689 0
ARM GAS  C:\Users\ddemidov\AppData\Local\Temp\ccTwWFqA.s 			page 80


 2403 01e2 5968     		ldr	r1, [r3, #4]
 2404 01e4 4A40     		eor	r2, r1
 2405 01e6 5A62     		str	r2, [r3, #36]
1690:..\kronos-c-sdk\src\wolfSSL\wolfcrypt\src/aes.c ****                 rk[11] = rk[ 3] ^ rk[10];
 2406              		.loc 1 1690 0
 2407 01e8 9968     		ldr	r1, [r3, #8]
 2408 01ea 4A40     		eor	r2, r1
 2409 01ec 9A62     		str	r2, [r3, #40]
1691:..\kronos-c-sdk\src\wolfSSL\wolfcrypt\src/aes.c ****                 if (++i == 7)
 2410              		.loc 1 1691 0
 2411 01ee D968     		ldr	r1, [r3, #12]
 2412 01f0 4A40     		eor	r2, r1
 2413 01f2 DA62     		str	r2, [r3, #44]
1692:..\kronos-c-sdk\src\wolfSSL\wolfcrypt\src/aes.c ****                     break;
 2414              		.loc 1 1692 0
 2415 01f4 311C     		mov	r1, r6
 2416 01f6 0131     		add	r1, r1, #1
 2417 01f8 0091     		str	r1, [sp]
 2418              	.LVL198:
 2419 01fa 0729     		cmp	r1, #7
 2420 01fc 39D0     		beq	.L30
 2421              	.LVL199:
1696:..\kronos-c-sdk\src\wolfSSL\wolfcrypt\src/aes.c ****                     (Te[4][GETBYTE(temp, 2)] & 0x00ff0000) ^
 2422              		.loc 1 1696 0
 2423 01fe 110E     		lsr	r1, r2, #24
 2424              	.LVL200:
 2425 0200 B846     		mov	r8, r7
 2426 0202 6144     		add	r1, r1, ip
 2427 0204 8900     		lsl	r1, r1, #2
 2428 0206 C959     		ldr	r1, [r1, r7]
 2429 0208 090E     		lsr	r1, r1, #24
 2430 020a 0906     		lsl	r1, r1, #24
1695:..\kronos-c-sdk\src\wolfSSL\wolfcrypt\src/aes.c ****                     (Te[4][GETBYTE(temp, 3)] & 0xff000000) ^
 2431              		.loc 1 1695 0
 2432 020c 1C69     		ldr	r4, [r3, #16]
 2433 020e 6140     		eor	r1, r4
1697:..\kronos-c-sdk\src\wolfSSL\wolfcrypt\src/aes.c ****                     (Te[4][GETBYTE(temp, 1)] & 0x0000ff00) ^
 2434              		.loc 1 1697 0
 2435 0210 140C     		lsr	r4, r2, #16
 2436 0212 A146     		mov	r9, r4
 2437 0214 FF24     		mov	r4, #255
 2438 0216 4F46     		mov	r7, r9
 2439 0218 2740     		and	r7, r4
 2440 021a B946     		mov	r9, r7
 2441 021c E144     		add	r9, r9, ip
 2442 021e 4E46     		mov	r6, r9
 2443 0220 B600     		lsl	r6, r6, #2
 2444 0222 B146     		mov	r9, r6
 2445 0224 4646     		mov	r6, r8
 2446 0226 4F46     		mov	r7, r9
 2447 0228 BE59     		ldr	r6, [r7, r6]
 2448 022a B246     		mov	r10, r6
 2449 022c FF26     		mov	r6, #255
 2450 022e 3604     		lsl	r6, r6, #16
 2451 0230 5746     		mov	r7, r10
 2452 0232 3740     		and	r7, r6
1696:..\kronos-c-sdk\src\wolfSSL\wolfcrypt\src/aes.c ****                     (Te[4][GETBYTE(temp, 2)] & 0x00ff0000) ^
ARM GAS  C:\Users\ddemidov\AppData\Local\Temp\ccTwWFqA.s 			page 81


 2453              		.loc 1 1696 0
 2454 0234 4F40     		eor	r7, r1
1698:..\kronos-c-sdk\src\wolfSSL\wolfcrypt\src/aes.c ****                     (Te[4][GETBYTE(temp, 0)] & 0x000000ff);
 2455              		.loc 1 1698 0
 2456 0236 110A     		lsr	r1, r2, #8
 2457 0238 2140     		and	r1, r4
 2458 023a 6144     		add	r1, r1, ip
 2459 023c 8900     		lsl	r1, r1, #2
 2460 023e 4646     		mov	r6, r8
 2461 0240 8959     		ldr	r1, [r1, r6]
 2462 0242 8A46     		mov	r10, r1
 2463 0244 FF21     		mov	r1, #255
 2464 0246 0902     		lsl	r1, r1, #8
 2465 0248 5646     		mov	r6, r10
 2466 024a 3140     		and	r1, r6
1697:..\kronos-c-sdk\src\wolfSSL\wolfcrypt\src/aes.c ****                     (Te[4][GETBYTE(temp, 1)] & 0x0000ff00) ^
 2467              		.loc 1 1697 0
 2468 024c 7940     		eor	r1, r7
1699:..\kronos-c-sdk\src\wolfSSL\wolfcrypt\src/aes.c ****                 rk[13] = rk[ 5] ^ rk[12];
 2469              		.loc 1 1699 0
 2470 024e 2240     		and	r2, r4
 2471              	.LVL201:
 2472 0250 6244     		add	r2, r2, ip
 2473 0252 9200     		lsl	r2, r2, #2
 2474 0254 4646     		mov	r6, r8
 2475 0256 9259     		ldr	r2, [r2, r6]
 2476 0258 2240     		and	r2, r4
1698:..\kronos-c-sdk\src\wolfSSL\wolfcrypt\src/aes.c ****                     (Te[4][GETBYTE(temp, 0)] & 0x000000ff);
 2477              		.loc 1 1698 0
 2478 025a 4A40     		eor	r2, r1
1695:..\kronos-c-sdk\src\wolfSSL\wolfcrypt\src/aes.c ****                     (Te[4][GETBYTE(temp, 3)] & 0xff000000) ^
 2479              		.loc 1 1695 0
 2480 025c 1A63     		str	r2, [r3, #48]
1700:..\kronos-c-sdk\src\wolfSSL\wolfcrypt\src/aes.c ****                 rk[14] = rk[ 6] ^ rk[13];
 2481              		.loc 1 1700 0
 2482 025e 5969     		ldr	r1, [r3, #20]
 2483 0260 4A40     		eor	r2, r1
 2484 0262 5A63     		str	r2, [r3, #52]
1701:..\kronos-c-sdk\src\wolfSSL\wolfcrypt\src/aes.c ****                 rk[15] = rk[ 7] ^ rk[14];
 2485              		.loc 1 1701 0
 2486 0264 9969     		ldr	r1, [r3, #24]
 2487 0266 4A40     		eor	r2, r1
 2488 0268 9A63     		str	r2, [r3, #56]
1702:..\kronos-c-sdk\src\wolfSSL\wolfcrypt\src/aes.c **** 
 2489              		.loc 1 1702 0
 2490 026a 5040     		eor	r0, r2
 2491 026c D863     		str	r0, [r3, #60]
1704:..\kronos-c-sdk\src\wolfSSL\wolfcrypt\src/aes.c ****             }
 2492              		.loc 1 1704 0
 2493 026e 2033     		add	r3, r3, #32
 2494              	.LVL202:
1705:..\kronos-c-sdk\src\wolfSSL\wolfcrypt\src/aes.c ****             break;
 2495              		.loc 1 1705 0
 2496 0270 86E7     		b	.L28
 2497              	.LVL203:
 2498              	.L30:
1714:..\kronos-c-sdk\src\wolfSSL\wolfcrypt\src/aes.c ****         {
ARM GAS  C:\Users\ddemidov\AppData\Local\Temp\ccTwWFqA.s 			page 82


 2499              		.loc 1 1714 0
 2500 0272 0C9B     		ldr	r3, [sp, #48]
 2501              	.LVL204:
 2502 0274 012B     		cmp	r3, #1
 2503 0276 00D0     		beq	.LCB2522
 2504 0278 26E1     		b	.L31	@long jump
 2505              	.LCB2522:
 2506              	.LVL205:
 2507              	.LBB152:
1720:..\kronos-c-sdk\src\wolfSSL\wolfcrypt\src/aes.c ****                 temp = rk[i    ]; rk[i    ] = rk[j    ]; rk[j    ] = temp;
 2508              		.loc 1 1720 0
 2509 027a EF33     		add	r3, r3, #239
 2510 027c 5A46     		mov	r2, fp
 2511 027e D358     		ldr	r3, [r2, r3]
 2512 0280 9B00     		lsl	r3, r3, #2
 2513              	.LVL206:
 2514 0282 0022     		mov	r2, #0
 2515 0284 27E0     		b	.L32
 2516              	.LVL207:
 2517              	.L33:
1721:..\kronos-c-sdk\src\wolfSSL\wolfcrypt\src/aes.c ****                 temp = rk[i + 1]; rk[i + 1] = rk[j + 1]; rk[j + 1] = temp;
 2518              		.loc 1 1721 0 discriminator 3
 2519 0286 9000     		lsl	r0, r2, #2
 2520 0288 2818     		add	r0, r5, r0
 2521 028a 0668     		ldr	r6, [r0]
 2522              	.LVL208:
 2523 028c 9900     		lsl	r1, r3, #2
 2524 028e 6918     		add	r1, r5, r1
 2525 0290 0C68     		ldr	r4, [r1]
 2526 0292 0460     		str	r4, [r0]
 2527 0294 0E60     		str	r6, [r1]
1722:..\kronos-c-sdk\src\wolfSSL\wolfcrypt\src/aes.c ****                 temp = rk[i + 2]; rk[i + 2] = rk[j + 2]; rk[j + 2] = temp;
 2528              		.loc 1 1722 0 discriminator 3
 2529 0296 501C     		add	r0, r2, #1
 2530 0298 8000     		lsl	r0, r0, #2
 2531 029a 2818     		add	r0, r5, r0
 2532 029c 0668     		ldr	r6, [r0]
 2533              	.LVL209:
 2534 029e 591C     		add	r1, r3, #1
 2535 02a0 8900     		lsl	r1, r1, #2
 2536 02a2 6918     		add	r1, r5, r1
 2537 02a4 0C68     		ldr	r4, [r1]
 2538 02a6 0460     		str	r4, [r0]
 2539 02a8 0E60     		str	r6, [r1]
1723:..\kronos-c-sdk\src\wolfSSL\wolfcrypt\src/aes.c ****                 temp = rk[i + 3]; rk[i + 3] = rk[j + 3]; rk[j + 3] = temp;
 2540              		.loc 1 1723 0 discriminator 3
 2541 02aa 901C     		add	r0, r2, #2
 2542 02ac 8000     		lsl	r0, r0, #2
 2543 02ae 2818     		add	r0, r5, r0
 2544 02b0 0668     		ldr	r6, [r0]
 2545              	.LVL210:
 2546 02b2 991C     		add	r1, r3, #2
 2547 02b4 8900     		lsl	r1, r1, #2
 2548 02b6 6918     		add	r1, r5, r1
 2549 02b8 0C68     		ldr	r4, [r1]
 2550 02ba 0460     		str	r4, [r0]
 2551 02bc 0E60     		str	r6, [r1]
ARM GAS  C:\Users\ddemidov\AppData\Local\Temp\ccTwWFqA.s 			page 83


1724:..\kronos-c-sdk\src\wolfSSL\wolfcrypt\src/aes.c ****             }
 2552              		.loc 1 1724 0 discriminator 3
 2553 02be D01C     		add	r0, r2, #3
 2554 02c0 8000     		lsl	r0, r0, #2
 2555 02c2 2818     		add	r0, r5, r0
 2556 02c4 0668     		ldr	r6, [r0]
 2557              	.LVL211:
 2558 02c6 D91C     		add	r1, r3, #3
 2559 02c8 8900     		lsl	r1, r1, #2
 2560 02ca 6918     		add	r1, r5, r1
 2561 02cc 0C68     		ldr	r4, [r1]
 2562 02ce 0460     		str	r4, [r0]
 2563 02d0 0E60     		str	r6, [r1]
1720:..\kronos-c-sdk\src\wolfSSL\wolfcrypt\src/aes.c ****                 temp = rk[i    ]; rk[i    ] = rk[j    ]; rk[j    ] = temp;
 2564              		.loc 1 1720 0 discriminator 3
 2565 02d2 0432     		add	r2, r2, #4
 2566              	.LVL212:
 2567 02d4 043B     		sub	r3, r3, #4
 2568              	.LVL213:
 2569              	.L32:
1720:..\kronos-c-sdk\src\wolfSSL\wolfcrypt\src/aes.c ****                 temp = rk[i    ]; rk[i    ] = rk[j    ]; rk[j    ] = temp;
 2570              		.loc 1 1720 0 is_stmt 0 discriminator 1
 2571 02d6 9A42     		cmp	r2, r3
 2572 02d8 D5D3     		bcc	.L33
 2573 02da 0126     		mov	r6, #1
 2574 02dc EEE0     		b	.L34
 2575              	.L42:
 2576 02de C046     		.align	2
 2577              	.L41:
 2578 02e0 00FF00FF 		.word	-16711936
 2579 02e4 FF00FF00 		.word	16711935
 2580 02e8 00000000 		.word	.LANCHOR0
 2581 02ec 00280000 		.word	.LANCHOR2
 2582              	.LVL214:
 2583              	.L35:
1729:..\kronos-c-sdk\src\wolfSSL\wolfcrypt\src/aes.c ****                 rk[0] =
 2584              		.loc 1 1729 0 is_stmt 1 discriminator 3
 2585 02f0 1035     		add	r5, r5, #16
 2586              	.LVL215:
1731:..\kronos-c-sdk\src\wolfSSL\wolfcrypt\src/aes.c ****                     Td[1][Te[4][GETBYTE(rk[0], 2)] & 0xff] ^
 2587              		.loc 1 1731 0 discriminator 3
 2588 02f2 2868     		ldr	r0, [r5]
 2589 02f4 020E     		lsr	r2, r0, #24
 2590              	.LVL216:
 2591 02f6 7B49     		ldr	r1, .L43
 2592 02f8 8023     		mov	r3, #128
 2593 02fa DB00     		lsl	r3, r3, #3
 2594 02fc 9C46     		mov	ip, r3
 2595 02fe 6244     		add	r2, r2, ip
 2596 0300 9200     		lsl	r2, r2, #2
 2597 0302 FF23     		mov	r3, #255
 2598 0304 8C5C     		ldrb	r4, [r1, r2]
 2599 0306 784A     		ldr	r2, .L43+4
 2600 0308 A400     		lsl	r4, r4, #2
 2601 030a A458     		ldr	r4, [r4, r2]
 2602 030c A446     		mov	ip, r4
1732:..\kronos-c-sdk\src\wolfSSL\wolfcrypt\src/aes.c ****                     Td[2][Te[4][GETBYTE(rk[0], 1)] & 0xff] ^
ARM GAS  C:\Users\ddemidov\AppData\Local\Temp\ccTwWFqA.s 			page 84


 2603              		.loc 1 1732 0 discriminator 3
 2604 030e 040C     		lsr	r4, r0, #16
 2605 0310 1C40     		and	r4, r3
 2606 0312 8027     		mov	r7, #128
 2607 0314 FF00     		lsl	r7, r7, #3
 2608 0316 B846     		mov	r8, r7
 2609 0318 4444     		add	r4, r4, r8
 2610 031a A400     		lsl	r4, r4, #2
 2611 031c 6458     		ldr	r4, [r4, r1]
 2612 031e 1C40     		and	r4, r3
 2613 0320 0134     		add	r4, r4, #1
 2614 0322 FF34     		add	r4, r4, #255
 2615 0324 A400     		lsl	r4, r4, #2
 2616 0326 A458     		ldr	r4, [r4, r2]
1731:..\kronos-c-sdk\src\wolfSSL\wolfcrypt\src/aes.c ****                     Td[1][Te[4][GETBYTE(rk[0], 2)] & 0xff] ^
 2617              		.loc 1 1731 0 discriminator 3
 2618 0328 6746     		mov	r7, ip
 2619 032a 6740     		eor	r7, r4
 2620 032c BC46     		mov	ip, r7
1733:..\kronos-c-sdk\src\wolfSSL\wolfcrypt\src/aes.c ****                     Td[3][Te[4][GETBYTE(rk[0], 0)] & 0xff];
 2621              		.loc 1 1733 0 discriminator 3
 2622 032e 040A     		lsr	r4, r0, #8
 2623 0330 1C40     		and	r4, r3
 2624 0332 4444     		add	r4, r4, r8
 2625 0334 A400     		lsl	r4, r4, #2
 2626 0336 6458     		ldr	r4, [r4, r1]
 2627 0338 1C40     		and	r4, r3
 2628 033a 8027     		mov	r7, #128
 2629 033c BF00     		lsl	r7, r7, #2
 2630 033e B846     		mov	r8, r7
 2631 0340 4444     		add	r4, r4, r8
 2632 0342 A400     		lsl	r4, r4, #2
 2633 0344 A458     		ldr	r4, [r4, r2]
1732:..\kronos-c-sdk\src\wolfSSL\wolfcrypt\src/aes.c ****                     Td[2][Te[4][GETBYTE(rk[0], 1)] & 0xff] ^
 2634              		.loc 1 1732 0 discriminator 3
 2635 0346 6746     		mov	r7, ip
 2636 0348 7C40     		eor	r4, r7
1734:..\kronos-c-sdk\src\wolfSSL\wolfcrypt\src/aes.c ****                 rk[1] =
 2637              		.loc 1 1734 0 discriminator 3
 2638 034a 1840     		and	r0, r3
 2639 034c 8027     		mov	r7, #128
 2640 034e FF00     		lsl	r7, r7, #3
 2641 0350 BC46     		mov	ip, r7
 2642 0352 6044     		add	r0, r0, ip
 2643 0354 8000     		lsl	r0, r0, #2
 2644 0356 4058     		ldr	r0, [r0, r1]
 2645 0358 1840     		and	r0, r3
 2646 035a 013F     		sub	r7, r7, #1
 2647 035c FF3F     		sub	r7, r7, #255
 2648 035e BC46     		mov	ip, r7
 2649 0360 6044     		add	r0, r0, ip
 2650 0362 8000     		lsl	r0, r0, #2
 2651 0364 8058     		ldr	r0, [r0, r2]
1733:..\kronos-c-sdk\src\wolfSSL\wolfcrypt\src/aes.c ****                     Td[3][Te[4][GETBYTE(rk[0], 0)] & 0xff];
 2652              		.loc 1 1733 0 discriminator 3
 2653 0366 6040     		eor	r0, r4
1730:..\kronos-c-sdk\src\wolfSSL\wolfcrypt\src/aes.c ****                     Td[0][Te[4][GETBYTE(rk[0], 3)] & 0xff] ^
ARM GAS  C:\Users\ddemidov\AppData\Local\Temp\ccTwWFqA.s 			page 85


 2654              		.loc 1 1730 0 discriminator 3
 2655 0368 2860     		str	r0, [r5]
1736:..\kronos-c-sdk\src\wolfSSL\wolfcrypt\src/aes.c ****                     Td[1][Te[4][GETBYTE(rk[1], 2)] & 0xff] ^
 2656              		.loc 1 1736 0 discriminator 3
 2657 036a 6868     		ldr	r0, [r5, #4]
 2658 036c 040E     		lsr	r4, r0, #24
 2659 036e 0137     		add	r7, r7, #1
 2660 0370 FF37     		add	r7, r7, #255
 2661 0372 BC46     		mov	ip, r7
 2662 0374 6444     		add	r4, r4, ip
 2663 0376 A400     		lsl	r4, r4, #2
 2664 0378 6458     		ldr	r4, [r4, r1]
 2665 037a 1C40     		and	r4, r3
 2666 037c A400     		lsl	r4, r4, #2
 2667 037e A458     		ldr	r4, [r4, r2]
 2668 0380 A446     		mov	ip, r4
1737:..\kronos-c-sdk\src\wolfSSL\wolfcrypt\src/aes.c ****                     Td[2][Te[4][GETBYTE(rk[1], 1)] & 0xff] ^
 2669              		.loc 1 1737 0 discriminator 3
 2670 0382 040C     		lsr	r4, r0, #16
 2671 0384 1C40     		and	r4, r3
 2672 0386 B846     		mov	r8, r7
 2673 0388 4444     		add	r4, r4, r8
 2674 038a A400     		lsl	r4, r4, #2
 2675 038c 6458     		ldr	r4, [r4, r1]
 2676 038e 1C40     		and	r4, r3
 2677 0390 0134     		add	r4, r4, #1
 2678 0392 FF34     		add	r4, r4, #255
 2679 0394 A400     		lsl	r4, r4, #2
 2680 0396 A458     		ldr	r4, [r4, r2]
1736:..\kronos-c-sdk\src\wolfSSL\wolfcrypt\src/aes.c ****                     Td[1][Te[4][GETBYTE(rk[1], 2)] & 0xff] ^
 2681              		.loc 1 1736 0 discriminator 3
 2682 0398 6746     		mov	r7, ip
 2683 039a 6740     		eor	r7, r4
 2684 039c BC46     		mov	ip, r7
1738:..\kronos-c-sdk\src\wolfSSL\wolfcrypt\src/aes.c ****                     Td[3][Te[4][GETBYTE(rk[1], 0)] & 0xff];
 2685              		.loc 1 1738 0 discriminator 3
 2686 039e 040A     		lsr	r4, r0, #8
 2687 03a0 1C40     		and	r4, r3
 2688 03a2 4444     		add	r4, r4, r8
 2689 03a4 A400     		lsl	r4, r4, #2
 2690 03a6 6458     		ldr	r4, [r4, r1]
 2691 03a8 1C40     		and	r4, r3
 2692 03aa 8027     		mov	r7, #128
 2693 03ac BF00     		lsl	r7, r7, #2
 2694 03ae B846     		mov	r8, r7
 2695 03b0 4444     		add	r4, r4, r8
 2696 03b2 A400     		lsl	r4, r4, #2
 2697 03b4 A458     		ldr	r4, [r4, r2]
1737:..\kronos-c-sdk\src\wolfSSL\wolfcrypt\src/aes.c ****                     Td[2][Te[4][GETBYTE(rk[1], 1)] & 0xff] ^
 2698              		.loc 1 1737 0 discriminator 3
 2699 03b6 6746     		mov	r7, ip
 2700 03b8 7C40     		eor	r4, r7
1739:..\kronos-c-sdk\src\wolfSSL\wolfcrypt\src/aes.c ****                 rk[2] =
 2701              		.loc 1 1739 0 discriminator 3
 2702 03ba 1840     		and	r0, r3
 2703 03bc 8027     		mov	r7, #128
 2704 03be FF00     		lsl	r7, r7, #3
ARM GAS  C:\Users\ddemidov\AppData\Local\Temp\ccTwWFqA.s 			page 86


 2705 03c0 BC46     		mov	ip, r7
 2706 03c2 6044     		add	r0, r0, ip
 2707 03c4 8000     		lsl	r0, r0, #2
 2708 03c6 4058     		ldr	r0, [r0, r1]
 2709 03c8 1840     		and	r0, r3
 2710 03ca 013F     		sub	r7, r7, #1
 2711 03cc FF3F     		sub	r7, r7, #255
 2712 03ce BC46     		mov	ip, r7
 2713 03d0 6044     		add	r0, r0, ip
 2714 03d2 8000     		lsl	r0, r0, #2
 2715 03d4 8058     		ldr	r0, [r0, r2]
1738:..\kronos-c-sdk\src\wolfSSL\wolfcrypt\src/aes.c ****                     Td[3][Te[4][GETBYTE(rk[1], 0)] & 0xff];
 2716              		.loc 1 1738 0 discriminator 3
 2717 03d6 6040     		eor	r0, r4
1735:..\kronos-c-sdk\src\wolfSSL\wolfcrypt\src/aes.c ****                     Td[0][Te[4][GETBYTE(rk[1], 3)] & 0xff] ^
 2718              		.loc 1 1735 0 discriminator 3
 2719 03d8 6860     		str	r0, [r5, #4]
1741:..\kronos-c-sdk\src\wolfSSL\wolfcrypt\src/aes.c ****                     Td[1][Te[4][GETBYTE(rk[2], 2)] & 0xff] ^
 2720              		.loc 1 1741 0 discriminator 3
 2721 03da A868     		ldr	r0, [r5, #8]
 2722 03dc 040E     		lsr	r4, r0, #24
 2723 03de 0137     		add	r7, r7, #1
 2724 03e0 FF37     		add	r7, r7, #255
 2725 03e2 BC46     		mov	ip, r7
 2726 03e4 6444     		add	r4, r4, ip
 2727 03e6 A400     		lsl	r4, r4, #2
 2728 03e8 6458     		ldr	r4, [r4, r1]
 2729 03ea 1C40     		and	r4, r3
 2730 03ec A400     		lsl	r4, r4, #2
 2731 03ee A458     		ldr	r4, [r4, r2]
 2732 03f0 A446     		mov	ip, r4
1742:..\kronos-c-sdk\src\wolfSSL\wolfcrypt\src/aes.c ****                     Td[2][Te[4][GETBYTE(rk[2], 1)] & 0xff] ^
 2733              		.loc 1 1742 0 discriminator 3
 2734 03f2 040C     		lsr	r4, r0, #16
 2735 03f4 1C40     		and	r4, r3
 2736 03f6 B846     		mov	r8, r7
 2737 03f8 4444     		add	r4, r4, r8
 2738 03fa A400     		lsl	r4, r4, #2
 2739 03fc 6458     		ldr	r4, [r4, r1]
 2740 03fe 1C40     		and	r4, r3
 2741 0400 0134     		add	r4, r4, #1
 2742 0402 FF34     		add	r4, r4, #255
 2743 0404 A400     		lsl	r4, r4, #2
 2744 0406 A458     		ldr	r4, [r4, r2]
1741:..\kronos-c-sdk\src\wolfSSL\wolfcrypt\src/aes.c ****                     Td[1][Te[4][GETBYTE(rk[2], 2)] & 0xff] ^
 2745              		.loc 1 1741 0 discriminator 3
 2746 0408 6746     		mov	r7, ip
 2747 040a 6740     		eor	r7, r4
 2748 040c BC46     		mov	ip, r7
1743:..\kronos-c-sdk\src\wolfSSL\wolfcrypt\src/aes.c ****                     Td[3][Te[4][GETBYTE(rk[2], 0)] & 0xff];
 2749              		.loc 1 1743 0 discriminator 3
 2750 040e 040A     		lsr	r4, r0, #8
 2751 0410 1C40     		and	r4, r3
 2752 0412 4444     		add	r4, r4, r8
 2753 0414 A400     		lsl	r4, r4, #2
 2754 0416 6458     		ldr	r4, [r4, r1]
 2755 0418 1C40     		and	r4, r3
ARM GAS  C:\Users\ddemidov\AppData\Local\Temp\ccTwWFqA.s 			page 87


 2756 041a 8027     		mov	r7, #128
 2757 041c BF00     		lsl	r7, r7, #2
 2758 041e B846     		mov	r8, r7
 2759 0420 4444     		add	r4, r4, r8
 2760 0422 A400     		lsl	r4, r4, #2
 2761 0424 A458     		ldr	r4, [r4, r2]
1742:..\kronos-c-sdk\src\wolfSSL\wolfcrypt\src/aes.c ****                     Td[2][Te[4][GETBYTE(rk[2], 1)] & 0xff] ^
 2762              		.loc 1 1742 0 discriminator 3
 2763 0426 6746     		mov	r7, ip
 2764 0428 7C40     		eor	r4, r7
1744:..\kronos-c-sdk\src\wolfSSL\wolfcrypt\src/aes.c ****                 rk[3] =
 2765              		.loc 1 1744 0 discriminator 3
 2766 042a 1840     		and	r0, r3
 2767 042c 8027     		mov	r7, #128
 2768 042e FF00     		lsl	r7, r7, #3
 2769 0430 BC46     		mov	ip, r7
 2770 0432 6044     		add	r0, r0, ip
 2771 0434 8000     		lsl	r0, r0, #2
 2772 0436 4058     		ldr	r0, [r0, r1]
 2773 0438 1840     		and	r0, r3
 2774 043a 013F     		sub	r7, r7, #1
 2775 043c FF3F     		sub	r7, r7, #255
 2776 043e BC46     		mov	ip, r7
 2777 0440 6044     		add	r0, r0, ip
 2778 0442 8000     		lsl	r0, r0, #2
 2779 0444 8058     		ldr	r0, [r0, r2]
1743:..\kronos-c-sdk\src\wolfSSL\wolfcrypt\src/aes.c ****                     Td[3][Te[4][GETBYTE(rk[2], 0)] & 0xff];
 2780              		.loc 1 1743 0 discriminator 3
 2781 0446 6040     		eor	r0, r4
1740:..\kronos-c-sdk\src\wolfSSL\wolfcrypt\src/aes.c ****                     Td[0][Te[4][GETBYTE(rk[2], 3)] & 0xff] ^
 2782              		.loc 1 1740 0 discriminator 3
 2783 0448 A860     		str	r0, [r5, #8]
1746:..\kronos-c-sdk\src\wolfSSL\wolfcrypt\src/aes.c ****                     Td[1][Te[4][GETBYTE(rk[3], 2)] & 0xff] ^
 2784              		.loc 1 1746 0 discriminator 3
 2785 044a E868     		ldr	r0, [r5, #12]
 2786 044c 040E     		lsr	r4, r0, #24
 2787 044e 0137     		add	r7, r7, #1
 2788 0450 FF37     		add	r7, r7, #255
 2789 0452 BC46     		mov	ip, r7
 2790 0454 6444     		add	r4, r4, ip
 2791 0456 A400     		lsl	r4, r4, #2
 2792 0458 6458     		ldr	r4, [r4, r1]
 2793 045a 1C40     		and	r4, r3
 2794 045c A400     		lsl	r4, r4, #2
 2795 045e A458     		ldr	r4, [r4, r2]
 2796 0460 A446     		mov	ip, r4
1747:..\kronos-c-sdk\src\wolfSSL\wolfcrypt\src/aes.c ****                     Td[2][Te[4][GETBYTE(rk[3], 1)] & 0xff] ^
 2797              		.loc 1 1747 0 discriminator 3
 2798 0462 040C     		lsr	r4, r0, #16
 2799 0464 1C40     		and	r4, r3
 2800 0466 B846     		mov	r8, r7
 2801 0468 4444     		add	r4, r4, r8
 2802 046a A400     		lsl	r4, r4, #2
 2803 046c 6458     		ldr	r4, [r4, r1]
 2804 046e 1C40     		and	r4, r3
 2805 0470 0134     		add	r4, r4, #1
 2806 0472 FF34     		add	r4, r4, #255
ARM GAS  C:\Users\ddemidov\AppData\Local\Temp\ccTwWFqA.s 			page 88


 2807 0474 A400     		lsl	r4, r4, #2
 2808 0476 A458     		ldr	r4, [r4, r2]
1746:..\kronos-c-sdk\src\wolfSSL\wolfcrypt\src/aes.c ****                     Td[1][Te[4][GETBYTE(rk[3], 2)] & 0xff] ^
 2809              		.loc 1 1746 0 discriminator 3
 2810 0478 6746     		mov	r7, ip
 2811 047a 6740     		eor	r7, r4
 2812 047c BC46     		mov	ip, r7
1748:..\kronos-c-sdk\src\wolfSSL\wolfcrypt\src/aes.c ****                     Td[3][Te[4][GETBYTE(rk[3], 0)] & 0xff];
 2813              		.loc 1 1748 0 discriminator 3
 2814 047e 040A     		lsr	r4, r0, #8
 2815 0480 1C40     		and	r4, r3
 2816 0482 4444     		add	r4, r4, r8
 2817 0484 A400     		lsl	r4, r4, #2
 2818 0486 6458     		ldr	r4, [r4, r1]
 2819 0488 1C40     		and	r4, r3
 2820 048a 8027     		mov	r7, #128
 2821 048c BF00     		lsl	r7, r7, #2
 2822 048e B846     		mov	r8, r7
 2823 0490 4444     		add	r4, r4, r8
 2824 0492 A400     		lsl	r4, r4, #2
 2825 0494 A458     		ldr	r4, [r4, r2]
1747:..\kronos-c-sdk\src\wolfSSL\wolfcrypt\src/aes.c ****                     Td[2][Te[4][GETBYTE(rk[3], 1)] & 0xff] ^
 2826              		.loc 1 1747 0 discriminator 3
 2827 0496 6746     		mov	r7, ip
 2828 0498 7C40     		eor	r4, r7
1749:..\kronos-c-sdk\src\wolfSSL\wolfcrypt\src/aes.c ****             }
 2829              		.loc 1 1749 0 discriminator 3
 2830 049a 1840     		and	r0, r3
 2831 049c 8027     		mov	r7, #128
 2832 049e FF00     		lsl	r7, r7, #3
 2833 04a0 BC46     		mov	ip, r7
 2834 04a2 6044     		add	r0, r0, ip
 2835 04a4 8000     		lsl	r0, r0, #2
 2836 04a6 4158     		ldr	r1, [r0, r1]
 2837 04a8 0B40     		and	r3, r1
 2838 04aa C021     		mov	r1, #192
 2839 04ac 8900     		lsl	r1, r1, #2
 2840 04ae 8C46     		mov	ip, r1
 2841 04b0 6344     		add	r3, r3, ip
 2842 04b2 9B00     		lsl	r3, r3, #2
 2843 04b4 9B58     		ldr	r3, [r3, r2]
1748:..\kronos-c-sdk\src\wolfSSL\wolfcrypt\src/aes.c ****                     Td[3][Te[4][GETBYTE(rk[3], 0)] & 0xff];
 2844              		.loc 1 1748 0 discriminator 3
 2845 04b6 6340     		eor	r3, r4
1745:..\kronos-c-sdk\src\wolfSSL\wolfcrypt\src/aes.c ****                     Td[0][Te[4][GETBYTE(rk[3], 3)] & 0xff] ^
 2846              		.loc 1 1745 0 discriminator 3
 2847 04b8 EB60     		str	r3, [r5, #12]
1728:..\kronos-c-sdk\src\wolfSSL\wolfcrypt\src/aes.c ****                 rk += 4;
 2848              		.loc 1 1728 0 discriminator 3
 2849 04ba 0136     		add	r6, r6, #1
 2850              	.LVL217:
 2851              	.L34:
1728:..\kronos-c-sdk\src\wolfSSL\wolfcrypt\src/aes.c ****                 rk += 4;
 2852              		.loc 1 1728 0 is_stmt 0 discriminator 1
 2853 04bc F023     		mov	r3, #240
 2854 04be 5A46     		mov	r2, fp
 2855 04c0 D358     		ldr	r3, [r2, r3]
ARM GAS  C:\Users\ddemidov\AppData\Local\Temp\ccTwWFqA.s 			page 89


 2856 04c2 B342     		cmp	r3, r6
 2857 04c4 00D9     		bls	.LCB2879
 2858 04c6 13E7     		b	.L35	@long jump
 2859              	.LCB2879:
 2860              	.LVL218:
 2861              	.L31:
 2862              	.LBE152:
1754:..\kronos-c-sdk\src\wolfSSL\wolfcrypt\src/aes.c ****     }
 2863              		.loc 1 1754 0 is_stmt 1
 2864 04c8 5846     		mov	r0, fp
 2865 04ca 0199     		ldr	r1, [sp, #4]
 2866 04cc FFF7FEFF 		bl	wc_AesSetIV
 2867              	.LVL219:
 2868 04d0 01E0     		b	.L26
 2869              	.LVL220:
 2870              	.L40:
1710:..\kronos-c-sdk\src\wolfSSL\wolfcrypt\src/aes.c ****         }
 2871              		.loc 1 1710 0
 2872 04d2 AD20     		mov	r0, #173
 2873              	.LVL221:
 2874 04d4 4042     		neg	r0, r0
 2875              	.LVL222:
 2876              	.L26:
1755:..\kronos-c-sdk\src\wolfSSL\wolfcrypt\src/aes.c **** 
 2877              		.loc 1 1755 0
 2878 04d6 03B0     		add	sp, sp, #12
 2879              		@ sp needed
 2880              	.LVL223:
 2881 04d8 3CBC     		pop	{r2, r3, r4, r5}
 2882 04da 9046     		mov	r8, r2
 2883 04dc 9946     		mov	r9, r3
 2884 04de A246     		mov	r10, r4
 2885 04e0 AB46     		mov	fp, r5
 2886 04e2 F0BD     		pop	{r4, r5, r6, r7, pc}
 2887              	.L44:
 2888              		.align	2
 2889              	.L43:
 2890 04e4 00000000 		.word	.LANCHOR0
 2891 04e8 00140000 		.word	.LANCHOR1
 2892              		.cfi_endproc
 2893              	.LFE14:
 2894              		.size	wc_AesSetKeyLocal, .-wc_AesSetKeyLocal
 2895              		.section	.text.wc_AesSetKey,"ax",%progbits
 2896              		.align	2
 2897              		.global	wc_AesSetKey
 2898              		.code	16
 2899              		.thumb_func
 2900              		.type	wc_AesSetKey, %function
 2901              	wc_AesSetKey:
 2902              	.LFB15:
1759:..\kronos-c-sdk\src\wolfSSL\wolfcrypt\src/aes.c ****     #if defined(AES_MAX_KEY_SIZE)
 2903              		.loc 1 1759 0
 2904              		.cfi_startproc
 2905              	.LVL224:
 2906 0000 10B5     		push	{r4, lr}
 2907              		.cfi_def_cfa_offset 8
 2908              		.cfi_offset 4, -8
ARM GAS  C:\Users\ddemidov\AppData\Local\Temp\ccTwWFqA.s 			page 90


 2909              		.cfi_offset 14, -4
 2910 0002 82B0     		sub	sp, sp, #8
 2911              		.cfi_def_cfa_offset 16
 2912              	.LVL225:
1764:..\kronos-c-sdk\src\wolfSSL\wolfcrypt\src/aes.c ****             return BAD_FUNC_ARG;
 2913              		.loc 1 1764 0
 2914 0004 102A     		cmp	r2, #16
 2915 0006 03D0     		beq	.L46
1764:..\kronos-c-sdk\src\wolfSSL\wolfcrypt\src/aes.c ****             return BAD_FUNC_ARG;
 2916              		.loc 1 1764 0 is_stmt 0 discriminator 1
 2917 0008 182A     		cmp	r2, #24
 2918 000a 01D0     		beq	.L46
1764:..\kronos-c-sdk\src\wolfSSL\wolfcrypt\src/aes.c ****             return BAD_FUNC_ARG;
 2919              		.loc 1 1764 0 discriminator 2
 2920 000c 202A     		cmp	r2, #32
 2921 000e 06D1     		bne	.L48
 2922              	.L46:
1769:..\kronos-c-sdk\src\wolfSSL\wolfcrypt\src/aes.c ****             return BAD_FUNC_ARG;
 2923              		.loc 1 1769 0 is_stmt 1
 2924 0010 202A     		cmp	r2, #32
 2925 0012 07D8     		bhi	.L49
1797:..\kronos-c-sdk\src\wolfSSL\wolfcrypt\src/aes.c ****     }
 2926              		.loc 1 1797 0
 2927 0014 049C     		ldr	r4, [sp, #16]
 2928 0016 0094     		str	r4, [sp]
 2929 0018 FFF7FEFF 		bl	wc_AesSetKeyLocal
 2930              	.LVL226:
 2931 001c 04E0     		b	.L47
 2932              	.LVL227:
 2933              	.L48:
1765:..\kronos-c-sdk\src\wolfSSL\wolfcrypt\src/aes.c **** 
 2934              		.loc 1 1765 0
 2935 001e AD20     		mov	r0, #173
 2936              	.LVL228:
 2937 0020 4042     		neg	r0, r0
 2938 0022 01E0     		b	.L47
 2939              	.LVL229:
 2940              	.L49:
1770:..\kronos-c-sdk\src\wolfSSL\wolfcrypt\src/aes.c ****         }
 2941              		.loc 1 1770 0
 2942 0024 AD20     		mov	r0, #173
 2943              	.LVL230:
 2944 0026 4042     		neg	r0, r0
 2945              	.LVL231:
 2946              	.L47:
1798:..\kronos-c-sdk\src\wolfSSL\wolfcrypt\src/aes.c **** 
 2947              		.loc 1 1798 0
 2948 0028 02B0     		add	sp, sp, #8
 2949              		@ sp needed
 2950 002a 10BD     		pop	{r4, pc}
 2951              		.cfi_endproc
 2952              	.LFE15:
 2953              		.size	wc_AesSetKey, .-wc_AesSetKey
 2954              		.section	.text.wc_AesCbcEncrypt,"ax",%progbits
 2955              		.align	2
 2956              		.global	wc_AesCbcEncrypt
 2957              		.code	16
ARM GAS  C:\Users\ddemidov\AppData\Local\Temp\ccTwWFqA.s 			page 91


 2958              		.thumb_func
 2959              		.type	wc_AesCbcEncrypt, %function
 2960              	wc_AesCbcEncrypt:
 2961              	.LFB17:
1826:..\kronos-c-sdk\src\wolfSSL\wolfcrypt\src/aes.c **** 
1827:..\kronos-c-sdk\src\wolfSSL\wolfcrypt\src/aes.c **** 
1828:..\kronos-c-sdk\src\wolfSSL\wolfcrypt\src/aes.c **** 
1829:..\kronos-c-sdk\src\wolfSSL\wolfcrypt\src/aes.c **** 
1830:..\kronos-c-sdk\src\wolfSSL\wolfcrypt\src/aes.c **** /* AES-DIRECT */
1831:..\kronos-c-sdk\src\wolfSSL\wolfcrypt\src/aes.c **** #if defined(WOLFSSL_AES_DIRECT)
1832:..\kronos-c-sdk\src\wolfSSL\wolfcrypt\src/aes.c ****     #if defined(STM32F2_CRYPTO)
1833:..\kronos-c-sdk\src\wolfSSL\wolfcrypt\src/aes.c ****         #error "STM32F2 crypto doesn't yet support AES direct"
1834:..\kronos-c-sdk\src\wolfSSL\wolfcrypt\src/aes.c **** 
1835:..\kronos-c-sdk\src\wolfSSL\wolfcrypt\src/aes.c ****     #elif defined(HAVE_COLDFIRE_SEC)
1836:..\kronos-c-sdk\src\wolfSSL\wolfcrypt\src/aes.c ****         #error "Coldfire SEC doesn't yet support AES direct"
1837:..\kronos-c-sdk\src\wolfSSL\wolfcrypt\src/aes.c **** 
1838:..\kronos-c-sdk\src\wolfSSL\wolfcrypt\src/aes.c ****     #elif defined(WOLFSSL_PIC32MZ_CRYPT)
1839:..\kronos-c-sdk\src\wolfSSL\wolfcrypt\src/aes.c ****         #error "PIC32MZ doesn't yet support AES direct"
1840:..\kronos-c-sdk\src\wolfSSL\wolfcrypt\src/aes.c **** 
1841:..\kronos-c-sdk\src\wolfSSL\wolfcrypt\src/aes.c ****     #else
1842:..\kronos-c-sdk\src\wolfSSL\wolfcrypt\src/aes.c ****         /* Allow direct access to one block encrypt */
1843:..\kronos-c-sdk\src\wolfSSL\wolfcrypt\src/aes.c ****         void wc_AesEncryptDirect(Aes* aes, byte* out, const byte* in)
1844:..\kronos-c-sdk\src\wolfSSL\wolfcrypt\src/aes.c ****         {
1845:..\kronos-c-sdk\src\wolfSSL\wolfcrypt\src/aes.c ****             wc_AesEncrypt(aes, in, out);
1846:..\kronos-c-sdk\src\wolfSSL\wolfcrypt\src/aes.c ****         }
1847:..\kronos-c-sdk\src\wolfSSL\wolfcrypt\src/aes.c ****     #ifdef HAVE_AES_DECRYPT
1848:..\kronos-c-sdk\src\wolfSSL\wolfcrypt\src/aes.c ****         /* Allow direct access to one block decrypt */
1849:..\kronos-c-sdk\src\wolfSSL\wolfcrypt\src/aes.c ****         void wc_AesDecryptDirect(Aes* aes, byte* out, const byte* in)
1850:..\kronos-c-sdk\src\wolfSSL\wolfcrypt\src/aes.c ****         {
1851:..\kronos-c-sdk\src\wolfSSL\wolfcrypt\src/aes.c ****             wc_AesDecrypt(aes, in, out);
1852:..\kronos-c-sdk\src\wolfSSL\wolfcrypt\src/aes.c ****         }
1853:..\kronos-c-sdk\src\wolfSSL\wolfcrypt\src/aes.c ****     #endif /* HAVE_AES_DECRYPT */
1854:..\kronos-c-sdk\src\wolfSSL\wolfcrypt\src/aes.c ****     #endif /* AES direct block */
1855:..\kronos-c-sdk\src\wolfSSL\wolfcrypt\src/aes.c **** #endif /* WOLFSSL_AES_DIRECT */
1856:..\kronos-c-sdk\src\wolfSSL\wolfcrypt\src/aes.c **** 
1857:..\kronos-c-sdk\src\wolfSSL\wolfcrypt\src/aes.c **** 
1858:..\kronos-c-sdk\src\wolfSSL\wolfcrypt\src/aes.c **** /* AES-CBC */
1859:..\kronos-c-sdk\src\wolfSSL\wolfcrypt\src/aes.c **** #ifdef HAVE_AES_CBC
1860:..\kronos-c-sdk\src\wolfSSL\wolfcrypt\src/aes.c **** #ifdef STM32F2_CRYPTO
1861:..\kronos-c-sdk\src\wolfSSL\wolfcrypt\src/aes.c ****     int wc_AesCbcEncrypt(Aes* aes, byte* out, const byte* in, word32 sz)
1862:..\kronos-c-sdk\src\wolfSSL\wolfcrypt\src/aes.c ****     {
1863:..\kronos-c-sdk\src\wolfSSL\wolfcrypt\src/aes.c ****         word32 *enc_key, *iv;
1864:..\kronos-c-sdk\src\wolfSSL\wolfcrypt\src/aes.c ****         CRYP_InitTypeDef AES_CRYP_InitStructure;
1865:..\kronos-c-sdk\src\wolfSSL\wolfcrypt\src/aes.c ****         CRYP_KeyInitTypeDef AES_CRYP_KeyInitStructure;
1866:..\kronos-c-sdk\src\wolfSSL\wolfcrypt\src/aes.c ****         CRYP_IVInitTypeDef AES_CRYP_IVInitStructure;
1867:..\kronos-c-sdk\src\wolfSSL\wolfcrypt\src/aes.c **** 
1868:..\kronos-c-sdk\src\wolfSSL\wolfcrypt\src/aes.c ****         enc_key = aes->key;
1869:..\kronos-c-sdk\src\wolfSSL\wolfcrypt\src/aes.c ****         iv = aes->reg;
1870:..\kronos-c-sdk\src\wolfSSL\wolfcrypt\src/aes.c **** 
1871:..\kronos-c-sdk\src\wolfSSL\wolfcrypt\src/aes.c ****         /* crypto structure initialization */
1872:..\kronos-c-sdk\src\wolfSSL\wolfcrypt\src/aes.c ****         CRYP_KeyStructInit(&AES_CRYP_KeyInitStructure);
1873:..\kronos-c-sdk\src\wolfSSL\wolfcrypt\src/aes.c ****         CRYP_StructInit(&AES_CRYP_InitStructure);
1874:..\kronos-c-sdk\src\wolfSSL\wolfcrypt\src/aes.c ****         CRYP_IVStructInit(&AES_CRYP_IVInitStructure);
1875:..\kronos-c-sdk\src\wolfSSL\wolfcrypt\src/aes.c **** 
1876:..\kronos-c-sdk\src\wolfSSL\wolfcrypt\src/aes.c ****         /* reset registers to their default values */
1877:..\kronos-c-sdk\src\wolfSSL\wolfcrypt\src/aes.c ****         CRYP_DeInit();
1878:..\kronos-c-sdk\src\wolfSSL\wolfcrypt\src/aes.c **** 
ARM GAS  C:\Users\ddemidov\AppData\Local\Temp\ccTwWFqA.s 			page 92


1879:..\kronos-c-sdk\src\wolfSSL\wolfcrypt\src/aes.c ****         /* load key into correct registers */
1880:..\kronos-c-sdk\src\wolfSSL\wolfcrypt\src/aes.c ****         switch(aes->rounds)
1881:..\kronos-c-sdk\src\wolfSSL\wolfcrypt\src/aes.c ****         {
1882:..\kronos-c-sdk\src\wolfSSL\wolfcrypt\src/aes.c ****             case 10: /* 128-bit key */
1883:..\kronos-c-sdk\src\wolfSSL\wolfcrypt\src/aes.c ****                 AES_CRYP_InitStructure.CRYP_KeySize = CRYP_KeySize_128b;
1884:..\kronos-c-sdk\src\wolfSSL\wolfcrypt\src/aes.c ****                 AES_CRYP_KeyInitStructure.CRYP_Key2Left  = enc_key[0];
1885:..\kronos-c-sdk\src\wolfSSL\wolfcrypt\src/aes.c ****                 AES_CRYP_KeyInitStructure.CRYP_Key2Right = enc_key[1];
1886:..\kronos-c-sdk\src\wolfSSL\wolfcrypt\src/aes.c ****                 AES_CRYP_KeyInitStructure.CRYP_Key3Left  = enc_key[2];
1887:..\kronos-c-sdk\src\wolfSSL\wolfcrypt\src/aes.c ****                 AES_CRYP_KeyInitStructure.CRYP_Key3Right = enc_key[3];
1888:..\kronos-c-sdk\src\wolfSSL\wolfcrypt\src/aes.c ****                 break;
1889:..\kronos-c-sdk\src\wolfSSL\wolfcrypt\src/aes.c **** 
1890:..\kronos-c-sdk\src\wolfSSL\wolfcrypt\src/aes.c ****             case 12: /* 192-bit key */
1891:..\kronos-c-sdk\src\wolfSSL\wolfcrypt\src/aes.c ****                 AES_CRYP_InitStructure.CRYP_KeySize = CRYP_KeySize_192b;
1892:..\kronos-c-sdk\src\wolfSSL\wolfcrypt\src/aes.c ****                 AES_CRYP_KeyInitStructure.CRYP_Key1Left  = enc_key[0];
1893:..\kronos-c-sdk\src\wolfSSL\wolfcrypt\src/aes.c ****                 AES_CRYP_KeyInitStructure.CRYP_Key1Right = enc_key[1];
1894:..\kronos-c-sdk\src\wolfSSL\wolfcrypt\src/aes.c ****                 AES_CRYP_KeyInitStructure.CRYP_Key2Left  = enc_key[2];
1895:..\kronos-c-sdk\src\wolfSSL\wolfcrypt\src/aes.c ****                 AES_CRYP_KeyInitStructure.CRYP_Key2Right = enc_key[3];
1896:..\kronos-c-sdk\src\wolfSSL\wolfcrypt\src/aes.c ****                 AES_CRYP_KeyInitStructure.CRYP_Key3Left  = enc_key[4];
1897:..\kronos-c-sdk\src\wolfSSL\wolfcrypt\src/aes.c ****                 AES_CRYP_KeyInitStructure.CRYP_Key3Right = enc_key[5];
1898:..\kronos-c-sdk\src\wolfSSL\wolfcrypt\src/aes.c ****                 break;
1899:..\kronos-c-sdk\src\wolfSSL\wolfcrypt\src/aes.c **** 
1900:..\kronos-c-sdk\src\wolfSSL\wolfcrypt\src/aes.c ****             case 14: /* 256-bit key */
1901:..\kronos-c-sdk\src\wolfSSL\wolfcrypt\src/aes.c ****                 AES_CRYP_InitStructure.CRYP_KeySize = CRYP_KeySize_256b;
1902:..\kronos-c-sdk\src\wolfSSL\wolfcrypt\src/aes.c ****                 AES_CRYP_KeyInitStructure.CRYP_Key0Left  = enc_key[0];
1903:..\kronos-c-sdk\src\wolfSSL\wolfcrypt\src/aes.c ****                 AES_CRYP_KeyInitStructure.CRYP_Key0Right = enc_key[1];
1904:..\kronos-c-sdk\src\wolfSSL\wolfcrypt\src/aes.c ****                 AES_CRYP_KeyInitStructure.CRYP_Key1Left  = enc_key[2];
1905:..\kronos-c-sdk\src\wolfSSL\wolfcrypt\src/aes.c ****                 AES_CRYP_KeyInitStructure.CRYP_Key1Right = enc_key[3];
1906:..\kronos-c-sdk\src\wolfSSL\wolfcrypt\src/aes.c ****                 AES_CRYP_KeyInitStructure.CRYP_Key2Left  = enc_key[4];
1907:..\kronos-c-sdk\src\wolfSSL\wolfcrypt\src/aes.c ****                 AES_CRYP_KeyInitStructure.CRYP_Key2Right = enc_key[5];
1908:..\kronos-c-sdk\src\wolfSSL\wolfcrypt\src/aes.c ****                 AES_CRYP_KeyInitStructure.CRYP_Key3Left  = enc_key[6];
1909:..\kronos-c-sdk\src\wolfSSL\wolfcrypt\src/aes.c ****                 AES_CRYP_KeyInitStructure.CRYP_Key3Right = enc_key[7];
1910:..\kronos-c-sdk\src\wolfSSL\wolfcrypt\src/aes.c ****                 break;
1911:..\kronos-c-sdk\src\wolfSSL\wolfcrypt\src/aes.c **** 
1912:..\kronos-c-sdk\src\wolfSSL\wolfcrypt\src/aes.c ****             default:
1913:..\kronos-c-sdk\src\wolfSSL\wolfcrypt\src/aes.c ****                 break;
1914:..\kronos-c-sdk\src\wolfSSL\wolfcrypt\src/aes.c ****         }
1915:..\kronos-c-sdk\src\wolfSSL\wolfcrypt\src/aes.c ****         CRYP_KeyInit(&AES_CRYP_KeyInitStructure);
1916:..\kronos-c-sdk\src\wolfSSL\wolfcrypt\src/aes.c **** 
1917:..\kronos-c-sdk\src\wolfSSL\wolfcrypt\src/aes.c ****         /* set iv */
1918:..\kronos-c-sdk\src\wolfSSL\wolfcrypt\src/aes.c ****         ByteReverseWords(iv, iv, AES_BLOCK_SIZE);
1919:..\kronos-c-sdk\src\wolfSSL\wolfcrypt\src/aes.c ****         AES_CRYP_IVInitStructure.CRYP_IV0Left  = iv[0];
1920:..\kronos-c-sdk\src\wolfSSL\wolfcrypt\src/aes.c ****         AES_CRYP_IVInitStructure.CRYP_IV0Right = iv[1];
1921:..\kronos-c-sdk\src\wolfSSL\wolfcrypt\src/aes.c ****         AES_CRYP_IVInitStructure.CRYP_IV1Left  = iv[2];
1922:..\kronos-c-sdk\src\wolfSSL\wolfcrypt\src/aes.c ****         AES_CRYP_IVInitStructure.CRYP_IV1Right = iv[3];
1923:..\kronos-c-sdk\src\wolfSSL\wolfcrypt\src/aes.c ****         CRYP_IVInit(&AES_CRYP_IVInitStructure);
1924:..\kronos-c-sdk\src\wolfSSL\wolfcrypt\src/aes.c **** 
1925:..\kronos-c-sdk\src\wolfSSL\wolfcrypt\src/aes.c ****         /* set direction, mode, and datatype */
1926:..\kronos-c-sdk\src\wolfSSL\wolfcrypt\src/aes.c ****         AES_CRYP_InitStructure.CRYP_AlgoDir  = CRYP_AlgoDir_Encrypt;
1927:..\kronos-c-sdk\src\wolfSSL\wolfcrypt\src/aes.c ****         AES_CRYP_InitStructure.CRYP_AlgoMode = CRYP_AlgoMode_AES_CBC;
1928:..\kronos-c-sdk\src\wolfSSL\wolfcrypt\src/aes.c ****         AES_CRYP_InitStructure.CRYP_DataType = CRYP_DataType_8b;
1929:..\kronos-c-sdk\src\wolfSSL\wolfcrypt\src/aes.c ****         CRYP_Init(&AES_CRYP_InitStructure);
1930:..\kronos-c-sdk\src\wolfSSL\wolfcrypt\src/aes.c **** 
1931:..\kronos-c-sdk\src\wolfSSL\wolfcrypt\src/aes.c ****         /* enable crypto processor */
1932:..\kronos-c-sdk\src\wolfSSL\wolfcrypt\src/aes.c ****         CRYP_Cmd(ENABLE);
1933:..\kronos-c-sdk\src\wolfSSL\wolfcrypt\src/aes.c **** 
1934:..\kronos-c-sdk\src\wolfSSL\wolfcrypt\src/aes.c ****         while (sz > 0)
1935:..\kronos-c-sdk\src\wolfSSL\wolfcrypt\src/aes.c ****         {
ARM GAS  C:\Users\ddemidov\AppData\Local\Temp\ccTwWFqA.s 			page 93


1936:..\kronos-c-sdk\src\wolfSSL\wolfcrypt\src/aes.c ****             /* flush IN/OUT FIFOs */
1937:..\kronos-c-sdk\src\wolfSSL\wolfcrypt\src/aes.c ****             CRYP_FIFOFlush();
1938:..\kronos-c-sdk\src\wolfSSL\wolfcrypt\src/aes.c **** 
1939:..\kronos-c-sdk\src\wolfSSL\wolfcrypt\src/aes.c ****             CRYP_DataIn(*(uint32_t*)&in[0]);
1940:..\kronos-c-sdk\src\wolfSSL\wolfcrypt\src/aes.c ****             CRYP_DataIn(*(uint32_t*)&in[4]);
1941:..\kronos-c-sdk\src\wolfSSL\wolfcrypt\src/aes.c ****             CRYP_DataIn(*(uint32_t*)&in[8]);
1942:..\kronos-c-sdk\src\wolfSSL\wolfcrypt\src/aes.c ****             CRYP_DataIn(*(uint32_t*)&in[12]);
1943:..\kronos-c-sdk\src\wolfSSL\wolfcrypt\src/aes.c **** 
1944:..\kronos-c-sdk\src\wolfSSL\wolfcrypt\src/aes.c ****             /* wait until the complete message has been processed */
1945:..\kronos-c-sdk\src\wolfSSL\wolfcrypt\src/aes.c ****             while(CRYP_GetFlagStatus(CRYP_FLAG_BUSY) != RESET) {}
1946:..\kronos-c-sdk\src\wolfSSL\wolfcrypt\src/aes.c **** 
1947:..\kronos-c-sdk\src\wolfSSL\wolfcrypt\src/aes.c ****             *(uint32_t*)&out[0]  = CRYP_DataOut();
1948:..\kronos-c-sdk\src\wolfSSL\wolfcrypt\src/aes.c ****             *(uint32_t*)&out[4]  = CRYP_DataOut();
1949:..\kronos-c-sdk\src\wolfSSL\wolfcrypt\src/aes.c ****             *(uint32_t*)&out[8]  = CRYP_DataOut();
1950:..\kronos-c-sdk\src\wolfSSL\wolfcrypt\src/aes.c ****             *(uint32_t*)&out[12] = CRYP_DataOut();
1951:..\kronos-c-sdk\src\wolfSSL\wolfcrypt\src/aes.c **** 
1952:..\kronos-c-sdk\src\wolfSSL\wolfcrypt\src/aes.c ****             /* store iv for next call */
1953:..\kronos-c-sdk\src\wolfSSL\wolfcrypt\src/aes.c ****             XMEMCPY(aes->reg, out + sz - AES_BLOCK_SIZE, AES_BLOCK_SIZE);
1954:..\kronos-c-sdk\src\wolfSSL\wolfcrypt\src/aes.c **** 
1955:..\kronos-c-sdk\src\wolfSSL\wolfcrypt\src/aes.c ****             sz  -= 16;
1956:..\kronos-c-sdk\src\wolfSSL\wolfcrypt\src/aes.c ****             in  += 16;
1957:..\kronos-c-sdk\src\wolfSSL\wolfcrypt\src/aes.c ****             out += 16;
1958:..\kronos-c-sdk\src\wolfSSL\wolfcrypt\src/aes.c ****         }
1959:..\kronos-c-sdk\src\wolfSSL\wolfcrypt\src/aes.c **** 
1960:..\kronos-c-sdk\src\wolfSSL\wolfcrypt\src/aes.c ****         /* disable crypto processor */
1961:..\kronos-c-sdk\src\wolfSSL\wolfcrypt\src/aes.c ****         CRYP_Cmd(DISABLE);
1962:..\kronos-c-sdk\src\wolfSSL\wolfcrypt\src/aes.c **** 
1963:..\kronos-c-sdk\src\wolfSSL\wolfcrypt\src/aes.c ****         return 0;
1964:..\kronos-c-sdk\src\wolfSSL\wolfcrypt\src/aes.c ****     }
1965:..\kronos-c-sdk\src\wolfSSL\wolfcrypt\src/aes.c **** 
1966:..\kronos-c-sdk\src\wolfSSL\wolfcrypt\src/aes.c ****     #ifdef HAVE_AES_DECRYPT
1967:..\kronos-c-sdk\src\wolfSSL\wolfcrypt\src/aes.c ****     int wc_AesCbcDecrypt(Aes* aes, byte* out, const byte* in, word32 sz)
1968:..\kronos-c-sdk\src\wolfSSL\wolfcrypt\src/aes.c ****     {
1969:..\kronos-c-sdk\src\wolfSSL\wolfcrypt\src/aes.c ****         word32 *dec_key, *iv;
1970:..\kronos-c-sdk\src\wolfSSL\wolfcrypt\src/aes.c ****         CRYP_InitTypeDef AES_CRYP_InitStructure;
1971:..\kronos-c-sdk\src\wolfSSL\wolfcrypt\src/aes.c ****         CRYP_KeyInitTypeDef AES_CRYP_KeyInitStructure;
1972:..\kronos-c-sdk\src\wolfSSL\wolfcrypt\src/aes.c ****         CRYP_IVInitTypeDef AES_CRYP_IVInitStructure;
1973:..\kronos-c-sdk\src\wolfSSL\wolfcrypt\src/aes.c **** 
1974:..\kronos-c-sdk\src\wolfSSL\wolfcrypt\src/aes.c ****         dec_key = aes->key;
1975:..\kronos-c-sdk\src\wolfSSL\wolfcrypt\src/aes.c ****         iv = aes->reg;
1976:..\kronos-c-sdk\src\wolfSSL\wolfcrypt\src/aes.c **** 
1977:..\kronos-c-sdk\src\wolfSSL\wolfcrypt\src/aes.c ****         /* crypto structure initialization */
1978:..\kronos-c-sdk\src\wolfSSL\wolfcrypt\src/aes.c ****         CRYP_KeyStructInit(&AES_CRYP_KeyInitStructure);
1979:..\kronos-c-sdk\src\wolfSSL\wolfcrypt\src/aes.c ****         CRYP_StructInit(&AES_CRYP_InitStructure);
1980:..\kronos-c-sdk\src\wolfSSL\wolfcrypt\src/aes.c ****         CRYP_IVStructInit(&AES_CRYP_IVInitStructure);
1981:..\kronos-c-sdk\src\wolfSSL\wolfcrypt\src/aes.c **** 
1982:..\kronos-c-sdk\src\wolfSSL\wolfcrypt\src/aes.c ****         /* if input and output same will overwrite input iv */
1983:..\kronos-c-sdk\src\wolfSSL\wolfcrypt\src/aes.c ****         XMEMCPY(aes->tmp, in + sz - AES_BLOCK_SIZE, AES_BLOCK_SIZE);
1984:..\kronos-c-sdk\src\wolfSSL\wolfcrypt\src/aes.c **** 
1985:..\kronos-c-sdk\src\wolfSSL\wolfcrypt\src/aes.c ****         /* reset registers to their default values */
1986:..\kronos-c-sdk\src\wolfSSL\wolfcrypt\src/aes.c ****         CRYP_DeInit();
1987:..\kronos-c-sdk\src\wolfSSL\wolfcrypt\src/aes.c **** 
1988:..\kronos-c-sdk\src\wolfSSL\wolfcrypt\src/aes.c ****         /* load key into correct registers */
1989:..\kronos-c-sdk\src\wolfSSL\wolfcrypt\src/aes.c ****         switch(aes->rounds)
1990:..\kronos-c-sdk\src\wolfSSL\wolfcrypt\src/aes.c ****         {
1991:..\kronos-c-sdk\src\wolfSSL\wolfcrypt\src/aes.c ****             case 10: /* 128-bit key */
1992:..\kronos-c-sdk\src\wolfSSL\wolfcrypt\src/aes.c ****                 AES_CRYP_InitStructure.CRYP_KeySize = CRYP_KeySize_128b;
ARM GAS  C:\Users\ddemidov\AppData\Local\Temp\ccTwWFqA.s 			page 94


1993:..\kronos-c-sdk\src\wolfSSL\wolfcrypt\src/aes.c ****                 AES_CRYP_KeyInitStructure.CRYP_Key2Left  = dec_key[0];
1994:..\kronos-c-sdk\src\wolfSSL\wolfcrypt\src/aes.c ****                 AES_CRYP_KeyInitStructure.CRYP_Key2Right = dec_key[1];
1995:..\kronos-c-sdk\src\wolfSSL\wolfcrypt\src/aes.c ****                 AES_CRYP_KeyInitStructure.CRYP_Key3Left  = dec_key[2];
1996:..\kronos-c-sdk\src\wolfSSL\wolfcrypt\src/aes.c ****                 AES_CRYP_KeyInitStructure.CRYP_Key3Right = dec_key[3];
1997:..\kronos-c-sdk\src\wolfSSL\wolfcrypt\src/aes.c ****                 break;
1998:..\kronos-c-sdk\src\wolfSSL\wolfcrypt\src/aes.c **** 
1999:..\kronos-c-sdk\src\wolfSSL\wolfcrypt\src/aes.c ****             case 12: /* 192-bit key */
2000:..\kronos-c-sdk\src\wolfSSL\wolfcrypt\src/aes.c ****                 AES_CRYP_InitStructure.CRYP_KeySize = CRYP_KeySize_192b;
2001:..\kronos-c-sdk\src\wolfSSL\wolfcrypt\src/aes.c ****                 AES_CRYP_KeyInitStructure.CRYP_Key1Left  = dec_key[0];
2002:..\kronos-c-sdk\src\wolfSSL\wolfcrypt\src/aes.c ****                 AES_CRYP_KeyInitStructure.CRYP_Key1Right = dec_key[1];
2003:..\kronos-c-sdk\src\wolfSSL\wolfcrypt\src/aes.c ****                 AES_CRYP_KeyInitStructure.CRYP_Key2Left  = dec_key[2];
2004:..\kronos-c-sdk\src\wolfSSL\wolfcrypt\src/aes.c ****                 AES_CRYP_KeyInitStructure.CRYP_Key2Right = dec_key[3];
2005:..\kronos-c-sdk\src\wolfSSL\wolfcrypt\src/aes.c ****                 AES_CRYP_KeyInitStructure.CRYP_Key3Left  = dec_key[4];
2006:..\kronos-c-sdk\src\wolfSSL\wolfcrypt\src/aes.c ****                 AES_CRYP_KeyInitStructure.CRYP_Key3Right = dec_key[5];
2007:..\kronos-c-sdk\src\wolfSSL\wolfcrypt\src/aes.c ****                 break;
2008:..\kronos-c-sdk\src\wolfSSL\wolfcrypt\src/aes.c **** 
2009:..\kronos-c-sdk\src\wolfSSL\wolfcrypt\src/aes.c ****             case 14: /* 256-bit key */
2010:..\kronos-c-sdk\src\wolfSSL\wolfcrypt\src/aes.c ****                 AES_CRYP_InitStructure.CRYP_KeySize = CRYP_KeySize_256b;
2011:..\kronos-c-sdk\src\wolfSSL\wolfcrypt\src/aes.c ****                 AES_CRYP_KeyInitStructure.CRYP_Key0Left  = dec_key[0];
2012:..\kronos-c-sdk\src\wolfSSL\wolfcrypt\src/aes.c ****                 AES_CRYP_KeyInitStructure.CRYP_Key0Right = dec_key[1];
2013:..\kronos-c-sdk\src\wolfSSL\wolfcrypt\src/aes.c ****                 AES_CRYP_KeyInitStructure.CRYP_Key1Left  = dec_key[2];
2014:..\kronos-c-sdk\src\wolfSSL\wolfcrypt\src/aes.c ****                 AES_CRYP_KeyInitStructure.CRYP_Key1Right = dec_key[3];
2015:..\kronos-c-sdk\src\wolfSSL\wolfcrypt\src/aes.c ****                 AES_CRYP_KeyInitStructure.CRYP_Key2Left  = dec_key[4];
2016:..\kronos-c-sdk\src\wolfSSL\wolfcrypt\src/aes.c ****                 AES_CRYP_KeyInitStructure.CRYP_Key2Right = dec_key[5];
2017:..\kronos-c-sdk\src\wolfSSL\wolfcrypt\src/aes.c ****                 AES_CRYP_KeyInitStructure.CRYP_Key3Left  = dec_key[6];
2018:..\kronos-c-sdk\src\wolfSSL\wolfcrypt\src/aes.c ****                 AES_CRYP_KeyInitStructure.CRYP_Key3Right = dec_key[7];
2019:..\kronos-c-sdk\src\wolfSSL\wolfcrypt\src/aes.c ****                 break;
2020:..\kronos-c-sdk\src\wolfSSL\wolfcrypt\src/aes.c **** 
2021:..\kronos-c-sdk\src\wolfSSL\wolfcrypt\src/aes.c ****             default:
2022:..\kronos-c-sdk\src\wolfSSL\wolfcrypt\src/aes.c ****                 break;
2023:..\kronos-c-sdk\src\wolfSSL\wolfcrypt\src/aes.c ****         }
2024:..\kronos-c-sdk\src\wolfSSL\wolfcrypt\src/aes.c **** 
2025:..\kronos-c-sdk\src\wolfSSL\wolfcrypt\src/aes.c ****         /* set direction, mode, and datatype for key preparation */
2026:..\kronos-c-sdk\src\wolfSSL\wolfcrypt\src/aes.c ****         AES_CRYP_InitStructure.CRYP_AlgoDir  = CRYP_AlgoDir_Decrypt;
2027:..\kronos-c-sdk\src\wolfSSL\wolfcrypt\src/aes.c ****         AES_CRYP_InitStructure.CRYP_AlgoMode = CRYP_AlgoMode_AES_Key;
2028:..\kronos-c-sdk\src\wolfSSL\wolfcrypt\src/aes.c ****         AES_CRYP_InitStructure.CRYP_DataType = CRYP_DataType_32b;
2029:..\kronos-c-sdk\src\wolfSSL\wolfcrypt\src/aes.c ****         CRYP_Init(&AES_CRYP_InitStructure);
2030:..\kronos-c-sdk\src\wolfSSL\wolfcrypt\src/aes.c ****         CRYP_KeyInit(&AES_CRYP_KeyInitStructure);
2031:..\kronos-c-sdk\src\wolfSSL\wolfcrypt\src/aes.c **** 
2032:..\kronos-c-sdk\src\wolfSSL\wolfcrypt\src/aes.c ****         /* enable crypto processor */
2033:..\kronos-c-sdk\src\wolfSSL\wolfcrypt\src/aes.c ****         CRYP_Cmd(ENABLE);
2034:..\kronos-c-sdk\src\wolfSSL\wolfcrypt\src/aes.c **** 
2035:..\kronos-c-sdk\src\wolfSSL\wolfcrypt\src/aes.c ****         /* wait until key has been prepared */
2036:..\kronos-c-sdk\src\wolfSSL\wolfcrypt\src/aes.c ****         while(CRYP_GetFlagStatus(CRYP_FLAG_BUSY) != RESET) {}
2037:..\kronos-c-sdk\src\wolfSSL\wolfcrypt\src/aes.c **** 
2038:..\kronos-c-sdk\src\wolfSSL\wolfcrypt\src/aes.c ****         /* set direction, mode, and datatype for decryption */
2039:..\kronos-c-sdk\src\wolfSSL\wolfcrypt\src/aes.c ****         AES_CRYP_InitStructure.CRYP_AlgoDir  = CRYP_AlgoDir_Decrypt;
2040:..\kronos-c-sdk\src\wolfSSL\wolfcrypt\src/aes.c ****         AES_CRYP_InitStructure.CRYP_AlgoMode = CRYP_AlgoMode_AES_CBC;
2041:..\kronos-c-sdk\src\wolfSSL\wolfcrypt\src/aes.c ****         AES_CRYP_InitStructure.CRYP_DataType = CRYP_DataType_8b;
2042:..\kronos-c-sdk\src\wolfSSL\wolfcrypt\src/aes.c ****         CRYP_Init(&AES_CRYP_InitStructure);
2043:..\kronos-c-sdk\src\wolfSSL\wolfcrypt\src/aes.c **** 
2044:..\kronos-c-sdk\src\wolfSSL\wolfcrypt\src/aes.c ****         /* set iv */
2045:..\kronos-c-sdk\src\wolfSSL\wolfcrypt\src/aes.c ****         ByteReverseWords(iv, iv, AES_BLOCK_SIZE);
2046:..\kronos-c-sdk\src\wolfSSL\wolfcrypt\src/aes.c **** 
2047:..\kronos-c-sdk\src\wolfSSL\wolfcrypt\src/aes.c ****         AES_CRYP_IVInitStructure.CRYP_IV0Left  = iv[0];
2048:..\kronos-c-sdk\src\wolfSSL\wolfcrypt\src/aes.c ****         AES_CRYP_IVInitStructure.CRYP_IV0Right = iv[1];
2049:..\kronos-c-sdk\src\wolfSSL\wolfcrypt\src/aes.c ****         AES_CRYP_IVInitStructure.CRYP_IV1Left  = iv[2];
ARM GAS  C:\Users\ddemidov\AppData\Local\Temp\ccTwWFqA.s 			page 95


2050:..\kronos-c-sdk\src\wolfSSL\wolfcrypt\src/aes.c ****         AES_CRYP_IVInitStructure.CRYP_IV1Right = iv[3];
2051:..\kronos-c-sdk\src\wolfSSL\wolfcrypt\src/aes.c ****         CRYP_IVInit(&AES_CRYP_IVInitStructure);
2052:..\kronos-c-sdk\src\wolfSSL\wolfcrypt\src/aes.c **** 
2053:..\kronos-c-sdk\src\wolfSSL\wolfcrypt\src/aes.c ****         /* enable crypto processor */
2054:..\kronos-c-sdk\src\wolfSSL\wolfcrypt\src/aes.c ****         CRYP_Cmd(ENABLE);
2055:..\kronos-c-sdk\src\wolfSSL\wolfcrypt\src/aes.c **** 
2056:..\kronos-c-sdk\src\wolfSSL\wolfcrypt\src/aes.c ****         while (sz > 0)
2057:..\kronos-c-sdk\src\wolfSSL\wolfcrypt\src/aes.c ****         {
2058:..\kronos-c-sdk\src\wolfSSL\wolfcrypt\src/aes.c ****             /* flush IN/OUT FIFOs */
2059:..\kronos-c-sdk\src\wolfSSL\wolfcrypt\src/aes.c ****             CRYP_FIFOFlush();
2060:..\kronos-c-sdk\src\wolfSSL\wolfcrypt\src/aes.c **** 
2061:..\kronos-c-sdk\src\wolfSSL\wolfcrypt\src/aes.c ****             CRYP_DataIn(*(uint32_t*)&in[0]);
2062:..\kronos-c-sdk\src\wolfSSL\wolfcrypt\src/aes.c ****             CRYP_DataIn(*(uint32_t*)&in[4]);
2063:..\kronos-c-sdk\src\wolfSSL\wolfcrypt\src/aes.c ****             CRYP_DataIn(*(uint32_t*)&in[8]);
2064:..\kronos-c-sdk\src\wolfSSL\wolfcrypt\src/aes.c ****             CRYP_DataIn(*(uint32_t*)&in[12]);
2065:..\kronos-c-sdk\src\wolfSSL\wolfcrypt\src/aes.c **** 
2066:..\kronos-c-sdk\src\wolfSSL\wolfcrypt\src/aes.c ****             /* wait until the complete message has been processed */
2067:..\kronos-c-sdk\src\wolfSSL\wolfcrypt\src/aes.c ****             while(CRYP_GetFlagStatus(CRYP_FLAG_BUSY) != RESET) {}
2068:..\kronos-c-sdk\src\wolfSSL\wolfcrypt\src/aes.c **** 
2069:..\kronos-c-sdk\src\wolfSSL\wolfcrypt\src/aes.c ****             *(uint32_t*)&out[0]  = CRYP_DataOut();
2070:..\kronos-c-sdk\src\wolfSSL\wolfcrypt\src/aes.c ****             *(uint32_t*)&out[4]  = CRYP_DataOut();
2071:..\kronos-c-sdk\src\wolfSSL\wolfcrypt\src/aes.c ****             *(uint32_t*)&out[8]  = CRYP_DataOut();
2072:..\kronos-c-sdk\src\wolfSSL\wolfcrypt\src/aes.c ****             *(uint32_t*)&out[12] = CRYP_DataOut();
2073:..\kronos-c-sdk\src\wolfSSL\wolfcrypt\src/aes.c **** 
2074:..\kronos-c-sdk\src\wolfSSL\wolfcrypt\src/aes.c ****             /* store iv for next call */
2075:..\kronos-c-sdk\src\wolfSSL\wolfcrypt\src/aes.c ****             XMEMCPY(aes->reg, aes->tmp, AES_BLOCK_SIZE);
2076:..\kronos-c-sdk\src\wolfSSL\wolfcrypt\src/aes.c **** 
2077:..\kronos-c-sdk\src\wolfSSL\wolfcrypt\src/aes.c ****             sz -= 16;
2078:..\kronos-c-sdk\src\wolfSSL\wolfcrypt\src/aes.c ****             in += 16;
2079:..\kronos-c-sdk\src\wolfSSL\wolfcrypt\src/aes.c ****             out += 16;
2080:..\kronos-c-sdk\src\wolfSSL\wolfcrypt\src/aes.c ****         }
2081:..\kronos-c-sdk\src\wolfSSL\wolfcrypt\src/aes.c **** 
2082:..\kronos-c-sdk\src\wolfSSL\wolfcrypt\src/aes.c ****         /* disable crypto processor */
2083:..\kronos-c-sdk\src\wolfSSL\wolfcrypt\src/aes.c ****         CRYP_Cmd(DISABLE);
2084:..\kronos-c-sdk\src\wolfSSL\wolfcrypt\src/aes.c **** 
2085:..\kronos-c-sdk\src\wolfSSL\wolfcrypt\src/aes.c ****         return 0;
2086:..\kronos-c-sdk\src\wolfSSL\wolfcrypt\src/aes.c ****     }
2087:..\kronos-c-sdk\src\wolfSSL\wolfcrypt\src/aes.c ****     #endif /* HAVE_AES_DECRYPT */
2088:..\kronos-c-sdk\src\wolfSSL\wolfcrypt\src/aes.c **** #elif defined(HAVE_COLDFIRE_SEC)
2089:..\kronos-c-sdk\src\wolfSSL\wolfcrypt\src/aes.c ****     static int wc_AesCbcCrypt(Aes* aes, byte* po, const byte* pi, word32 sz,
2090:..\kronos-c-sdk\src\wolfSSL\wolfcrypt\src/aes.c ****                            word32 descHeader)
2091:..\kronos-c-sdk\src\wolfSSL\wolfcrypt\src/aes.c ****     {
2092:..\kronos-c-sdk\src\wolfSSL\wolfcrypt\src/aes.c ****         #ifdef DEBUG_WOLFSSL
2093:..\kronos-c-sdk\src\wolfSSL\wolfcrypt\src/aes.c ****             int i; int stat1, stat2; int ret;
2094:..\kronos-c-sdk\src\wolfSSL\wolfcrypt\src/aes.c **** 	    #endif
2095:..\kronos-c-sdk\src\wolfSSL\wolfcrypt\src/aes.c **** 
2096:..\kronos-c-sdk\src\wolfSSL\wolfcrypt\src/aes.c ****         int size;
2097:..\kronos-c-sdk\src\wolfSSL\wolfcrypt\src/aes.c ****         volatile int v;
2098:..\kronos-c-sdk\src\wolfSSL\wolfcrypt\src/aes.c **** 
2099:..\kronos-c-sdk\src\wolfSSL\wolfcrypt\src/aes.c ****         if ((pi == NULL) || (po == NULL))
2100:..\kronos-c-sdk\src\wolfSSL\wolfcrypt\src/aes.c ****             return BAD_FUNC_ARG;    /*wrong pointer*/
2101:..\kronos-c-sdk\src\wolfSSL\wolfcrypt\src/aes.c **** 
2102:..\kronos-c-sdk\src\wolfSSL\wolfcrypt\src/aes.c ****         LockMutex(&Mutex_AesSEC);
2103:..\kronos-c-sdk\src\wolfSSL\wolfcrypt\src/aes.c **** 
2104:..\kronos-c-sdk\src\wolfSSL\wolfcrypt\src/aes.c ****         /* Set descriptor for SEC */
2105:..\kronos-c-sdk\src\wolfSSL\wolfcrypt\src/aes.c ****         secDesc->length1 = 0x0;
2106:..\kronos-c-sdk\src\wolfSSL\wolfcrypt\src/aes.c ****         secDesc->pointer1 = NULL;
ARM GAS  C:\Users\ddemidov\AppData\Local\Temp\ccTwWFqA.s 			page 96


2107:..\kronos-c-sdk\src\wolfSSL\wolfcrypt\src/aes.c **** 
2108:..\kronos-c-sdk\src\wolfSSL\wolfcrypt\src/aes.c ****         secDesc->length2 = AES_BLOCK_SIZE;
2109:..\kronos-c-sdk\src\wolfSSL\wolfcrypt\src/aes.c ****         secDesc->pointer2 = (byte *)secReg; /* Initial Vector */
2110:..\kronos-c-sdk\src\wolfSSL\wolfcrypt\src/aes.c **** 
2111:..\kronos-c-sdk\src\wolfSSL\wolfcrypt\src/aes.c ****         switch(aes->rounds) {
2112:..\kronos-c-sdk\src\wolfSSL\wolfcrypt\src/aes.c ****             case 10: secDesc->length3 = 16 ; break ;
2113:..\kronos-c-sdk\src\wolfSSL\wolfcrypt\src/aes.c ****             case 12: secDesc->length3 = 24 ; break ;
2114:..\kronos-c-sdk\src\wolfSSL\wolfcrypt\src/aes.c ****             case 14: secDesc->length3 = 32 ; break ;
2115:..\kronos-c-sdk\src\wolfSSL\wolfcrypt\src/aes.c ****         }
2116:..\kronos-c-sdk\src\wolfSSL\wolfcrypt\src/aes.c ****         XMEMCPY(secKey, aes->key, secDesc->length3);
2117:..\kronos-c-sdk\src\wolfSSL\wolfcrypt\src/aes.c **** 
2118:..\kronos-c-sdk\src\wolfSSL\wolfcrypt\src/aes.c ****         secDesc->pointer3 = (byte *)secKey;
2119:..\kronos-c-sdk\src\wolfSSL\wolfcrypt\src/aes.c ****         secDesc->pointer4 = AESBuffIn;
2120:..\kronos-c-sdk\src\wolfSSL\wolfcrypt\src/aes.c ****         secDesc->pointer5 = AESBuffOut;
2121:..\kronos-c-sdk\src\wolfSSL\wolfcrypt\src/aes.c ****         secDesc->length6 = 0x0;
2122:..\kronos-c-sdk\src\wolfSSL\wolfcrypt\src/aes.c ****         secDesc->pointer6 = NULL;
2123:..\kronos-c-sdk\src\wolfSSL\wolfcrypt\src/aes.c ****         secDesc->length7 = 0x0;
2124:..\kronos-c-sdk\src\wolfSSL\wolfcrypt\src/aes.c ****         secDesc->pointer7 = NULL;
2125:..\kronos-c-sdk\src\wolfSSL\wolfcrypt\src/aes.c ****         secDesc->nextDescriptorPtr = NULL;
2126:..\kronos-c-sdk\src\wolfSSL\wolfcrypt\src/aes.c **** 
2127:..\kronos-c-sdk\src\wolfSSL\wolfcrypt\src/aes.c ****         while (sz) {
2128:..\kronos-c-sdk\src\wolfSSL\wolfcrypt\src/aes.c ****             secDesc->header = descHeader;
2129:..\kronos-c-sdk\src\wolfSSL\wolfcrypt\src/aes.c ****             XMEMCPY(secReg, aes->reg, AES_BLOCK_SIZE);
2130:..\kronos-c-sdk\src\wolfSSL\wolfcrypt\src/aes.c ****             if ((sz % AES_BUFFER_SIZE) == sz) {
2131:..\kronos-c-sdk\src\wolfSSL\wolfcrypt\src/aes.c ****                 size = sz;
2132:..\kronos-c-sdk\src\wolfSSL\wolfcrypt\src/aes.c ****                 sz = 0;
2133:..\kronos-c-sdk\src\wolfSSL\wolfcrypt\src/aes.c ****             } else {
2134:..\kronos-c-sdk\src\wolfSSL\wolfcrypt\src/aes.c ****                 size = AES_BUFFER_SIZE;
2135:..\kronos-c-sdk\src\wolfSSL\wolfcrypt\src/aes.c ****                 sz -= AES_BUFFER_SIZE;
2136:..\kronos-c-sdk\src\wolfSSL\wolfcrypt\src/aes.c ****             }
2137:..\kronos-c-sdk\src\wolfSSL\wolfcrypt\src/aes.c ****             secDesc->length4 = size;
2138:..\kronos-c-sdk\src\wolfSSL\wolfcrypt\src/aes.c ****             secDesc->length5 = size;
2139:..\kronos-c-sdk\src\wolfSSL\wolfcrypt\src/aes.c **** 
2140:..\kronos-c-sdk\src\wolfSSL\wolfcrypt\src/aes.c ****             XMEMCPY(AESBuffIn, pi, size);
2141:..\kronos-c-sdk\src\wolfSSL\wolfcrypt\src/aes.c ****             if(descHeader == SEC_DESC_AES_CBC_DECRYPT) {
2142:..\kronos-c-sdk\src\wolfSSL\wolfcrypt\src/aes.c ****                 XMEMCPY((void*)aes->tmp, (void*)&(pi[size-AES_BLOCK_SIZE]),
2143:..\kronos-c-sdk\src\wolfSSL\wolfcrypt\src/aes.c ****                         AES_BLOCK_SIZE);
2144:..\kronos-c-sdk\src\wolfSSL\wolfcrypt\src/aes.c ****             }
2145:..\kronos-c-sdk\src\wolfSSL\wolfcrypt\src/aes.c **** 
2146:..\kronos-c-sdk\src\wolfSSL\wolfcrypt\src/aes.c ****             /* Point SEC to the location of the descriptor */
2147:..\kronos-c-sdk\src\wolfSSL\wolfcrypt\src/aes.c ****             MCF_SEC_FR0 = (uint32)secDesc;
2148:..\kronos-c-sdk\src\wolfSSL\wolfcrypt\src/aes.c ****             /* Initialize SEC and wait for encryption to complete */
2149:..\kronos-c-sdk\src\wolfSSL\wolfcrypt\src/aes.c ****             MCF_SEC_CCCR0 = 0x0000001a;
2150:..\kronos-c-sdk\src\wolfSSL\wolfcrypt\src/aes.c ****             /* poll SISR to determine when channel is complete */
2151:..\kronos-c-sdk\src\wolfSSL\wolfcrypt\src/aes.c ****             v=0;
2152:..\kronos-c-sdk\src\wolfSSL\wolfcrypt\src/aes.c **** 
2153:..\kronos-c-sdk\src\wolfSSL\wolfcrypt\src/aes.c ****             while ((secDesc->header>> 24) != 0xff) v++;
2154:..\kronos-c-sdk\src\wolfSSL\wolfcrypt\src/aes.c **** 
2155:..\kronos-c-sdk\src\wolfSSL\wolfcrypt\src/aes.c ****             #ifdef DEBUG_WOLFSSL
2156:..\kronos-c-sdk\src\wolfSSL\wolfcrypt\src/aes.c ****                 ret = MCF_SEC_SISRH;
2157:..\kronos-c-sdk\src\wolfSSL\wolfcrypt\src/aes.c ****                 stat1 = MCF_SEC_AESSR;
2158:..\kronos-c-sdk\src\wolfSSL\wolfcrypt\src/aes.c ****                 stat2 = MCF_SEC_AESISR;
2159:..\kronos-c-sdk\src\wolfSSL\wolfcrypt\src/aes.c ****                 if (ret & 0xe0000000) {
2160:..\kronos-c-sdk\src\wolfSSL\wolfcrypt\src/aes.c ****                     db_printf("Aes_Cbc(i=%d):ISRH=%08x, AESSR=%08x, "
2161:..\kronos-c-sdk\src\wolfSSL\wolfcrypt\src/aes.c ****                               "AESISR=%08x\n", i, ret, stat1, stat2);
2162:..\kronos-c-sdk\src\wolfSSL\wolfcrypt\src/aes.c ****                 }
2163:..\kronos-c-sdk\src\wolfSSL\wolfcrypt\src/aes.c ****             #endif
ARM GAS  C:\Users\ddemidov\AppData\Local\Temp\ccTwWFqA.s 			page 97


2164:..\kronos-c-sdk\src\wolfSSL\wolfcrypt\src/aes.c **** 
2165:..\kronos-c-sdk\src\wolfSSL\wolfcrypt\src/aes.c ****             XMEMCPY(po, AESBuffOut, size);
2166:..\kronos-c-sdk\src\wolfSSL\wolfcrypt\src/aes.c **** 
2167:..\kronos-c-sdk\src\wolfSSL\wolfcrypt\src/aes.c ****             if (descHeader == SEC_DESC_AES_CBC_ENCRYPT) {
2168:..\kronos-c-sdk\src\wolfSSL\wolfcrypt\src/aes.c ****                 XMEMCPY((void*)aes->reg, (void*)&(po[size-AES_BLOCK_SIZE]),
2169:..\kronos-c-sdk\src\wolfSSL\wolfcrypt\src/aes.c ****                         AES_BLOCK_SIZE);
2170:..\kronos-c-sdk\src\wolfSSL\wolfcrypt\src/aes.c ****             } else {
2171:..\kronos-c-sdk\src\wolfSSL\wolfcrypt\src/aes.c ****                 XMEMCPY((void*)aes->reg, (void*)aes->tmp, AES_BLOCK_SIZE);
2172:..\kronos-c-sdk\src\wolfSSL\wolfcrypt\src/aes.c ****             }
2173:..\kronos-c-sdk\src\wolfSSL\wolfcrypt\src/aes.c **** 
2174:..\kronos-c-sdk\src\wolfSSL\wolfcrypt\src/aes.c ****             pi += size;
2175:..\kronos-c-sdk\src\wolfSSL\wolfcrypt\src/aes.c ****             po += size;
2176:..\kronos-c-sdk\src\wolfSSL\wolfcrypt\src/aes.c ****         }
2177:..\kronos-c-sdk\src\wolfSSL\wolfcrypt\src/aes.c **** 
2178:..\kronos-c-sdk\src\wolfSSL\wolfcrypt\src/aes.c ****         UnLockMutex(&Mutex_AesSEC);
2179:..\kronos-c-sdk\src\wolfSSL\wolfcrypt\src/aes.c ****         return 0;
2180:..\kronos-c-sdk\src\wolfSSL\wolfcrypt\src/aes.c ****     }
2181:..\kronos-c-sdk\src\wolfSSL\wolfcrypt\src/aes.c **** 
2182:..\kronos-c-sdk\src\wolfSSL\wolfcrypt\src/aes.c ****     int wc_AesCbcEncrypt(Aes* aes, byte* po, const byte* pi, word32 sz)
2183:..\kronos-c-sdk\src\wolfSSL\wolfcrypt\src/aes.c ****     {
2184:..\kronos-c-sdk\src\wolfSSL\wolfcrypt\src/aes.c ****         return (wc_AesCbcCrypt(aes, po, pi, sz, SEC_DESC_AES_CBC_ENCRYPT));
2185:..\kronos-c-sdk\src\wolfSSL\wolfcrypt\src/aes.c ****     }
2186:..\kronos-c-sdk\src\wolfSSL\wolfcrypt\src/aes.c **** 
2187:..\kronos-c-sdk\src\wolfSSL\wolfcrypt\src/aes.c ****     #ifdef HAVE_AES_DECRYPT
2188:..\kronos-c-sdk\src\wolfSSL\wolfcrypt\src/aes.c ****     int wc_AesCbcDecrypt(Aes* aes, byte* po, const byte* pi, word32 sz)
2189:..\kronos-c-sdk\src\wolfSSL\wolfcrypt\src/aes.c ****     {
2190:..\kronos-c-sdk\src\wolfSSL\wolfcrypt\src/aes.c ****         return (wc_AesCbcCrypt(aes, po, pi, sz, SEC_DESC_AES_CBC_DECRYPT));
2191:..\kronos-c-sdk\src\wolfSSL\wolfcrypt\src/aes.c ****     }
2192:..\kronos-c-sdk\src\wolfSSL\wolfcrypt\src/aes.c ****     #endif /* HAVE_AES_DECRYPT */
2193:..\kronos-c-sdk\src\wolfSSL\wolfcrypt\src/aes.c **** #elif defined(FREESCALE_MMCAU)
2194:..\kronos-c-sdk\src\wolfSSL\wolfcrypt\src/aes.c ****     int wc_AesCbcEncrypt(Aes* aes, byte* out, const byte* in, word32 sz)
2195:..\kronos-c-sdk\src\wolfSSL\wolfcrypt\src/aes.c ****     {
2196:..\kronos-c-sdk\src\wolfSSL\wolfcrypt\src/aes.c ****         int i;
2197:..\kronos-c-sdk\src\wolfSSL\wolfcrypt\src/aes.c ****         int offset = 0;
2198:..\kronos-c-sdk\src\wolfSSL\wolfcrypt\src/aes.c ****         int len = sz;
2199:..\kronos-c-sdk\src\wolfSSL\wolfcrypt\src/aes.c **** 
2200:..\kronos-c-sdk\src\wolfSSL\wolfcrypt\src/aes.c ****         byte *iv;
2201:..\kronos-c-sdk\src\wolfSSL\wolfcrypt\src/aes.c ****         byte temp_block[AES_BLOCK_SIZE];
2202:..\kronos-c-sdk\src\wolfSSL\wolfcrypt\src/aes.c **** 
2203:..\kronos-c-sdk\src\wolfSSL\wolfcrypt\src/aes.c ****         iv      = (byte*)aes->reg;
2204:..\kronos-c-sdk\src\wolfSSL\wolfcrypt\src/aes.c **** 
2205:..\kronos-c-sdk\src\wolfSSL\wolfcrypt\src/aes.c ****         if ((wolfssl_word)out % WOLFSSL_MMCAU_ALIGNMENT) {
2206:..\kronos-c-sdk\src\wolfSSL\wolfcrypt\src/aes.c ****             WOLFSSL_MSG("Bad cau_aes_encrypt alignment");
2207:..\kronos-c-sdk\src\wolfSSL\wolfcrypt\src/aes.c ****             return BAD_ALIGN_E;
2208:..\kronos-c-sdk\src\wolfSSL\wolfcrypt\src/aes.c ****         }
2209:..\kronos-c-sdk\src\wolfSSL\wolfcrypt\src/aes.c **** 
2210:..\kronos-c-sdk\src\wolfSSL\wolfcrypt\src/aes.c ****         while (len > 0)
2211:..\kronos-c-sdk\src\wolfSSL\wolfcrypt\src/aes.c ****         {
2212:..\kronos-c-sdk\src\wolfSSL\wolfcrypt\src/aes.c ****             XMEMCPY(temp_block, in + offset, AES_BLOCK_SIZE);
2213:..\kronos-c-sdk\src\wolfSSL\wolfcrypt\src/aes.c **** 
2214:..\kronos-c-sdk\src\wolfSSL\wolfcrypt\src/aes.c ****             /* XOR block with IV for CBC */
2215:..\kronos-c-sdk\src\wolfSSL\wolfcrypt\src/aes.c ****             for (i = 0; i < AES_BLOCK_SIZE; i++)
2216:..\kronos-c-sdk\src\wolfSSL\wolfcrypt\src/aes.c ****                 temp_block[i] ^= iv[i];
2217:..\kronos-c-sdk\src\wolfSSL\wolfcrypt\src/aes.c **** 
2218:..\kronos-c-sdk\src\wolfSSL\wolfcrypt\src/aes.c ****             wc_AesEncrypt(aes, temp_block, out + offset);
2219:..\kronos-c-sdk\src\wolfSSL\wolfcrypt\src/aes.c **** 
2220:..\kronos-c-sdk\src\wolfSSL\wolfcrypt\src/aes.c ****             len    -= AES_BLOCK_SIZE;
ARM GAS  C:\Users\ddemidov\AppData\Local\Temp\ccTwWFqA.s 			page 98


2221:..\kronos-c-sdk\src\wolfSSL\wolfcrypt\src/aes.c ****             offset += AES_BLOCK_SIZE;
2222:..\kronos-c-sdk\src\wolfSSL\wolfcrypt\src/aes.c **** 
2223:..\kronos-c-sdk\src\wolfSSL\wolfcrypt\src/aes.c ****             /* store IV for next block */
2224:..\kronos-c-sdk\src\wolfSSL\wolfcrypt\src/aes.c ****             XMEMCPY(iv, out + offset - AES_BLOCK_SIZE, AES_BLOCK_SIZE);
2225:..\kronos-c-sdk\src\wolfSSL\wolfcrypt\src/aes.c ****         }
2226:..\kronos-c-sdk\src\wolfSSL\wolfcrypt\src/aes.c **** 
2227:..\kronos-c-sdk\src\wolfSSL\wolfcrypt\src/aes.c ****         return 0;
2228:..\kronos-c-sdk\src\wolfSSL\wolfcrypt\src/aes.c ****     }
2229:..\kronos-c-sdk\src\wolfSSL\wolfcrypt\src/aes.c ****     #ifdef HAVE_AES_DECRYPT
2230:..\kronos-c-sdk\src\wolfSSL\wolfcrypt\src/aes.c ****     int wc_AesCbcDecrypt(Aes* aes, byte* out, const byte* in, word32 sz)
2231:..\kronos-c-sdk\src\wolfSSL\wolfcrypt\src/aes.c ****     {
2232:..\kronos-c-sdk\src\wolfSSL\wolfcrypt\src/aes.c ****         int i;
2233:..\kronos-c-sdk\src\wolfSSL\wolfcrypt\src/aes.c ****         int offset = 0;
2234:..\kronos-c-sdk\src\wolfSSL\wolfcrypt\src/aes.c ****         int len = sz;
2235:..\kronos-c-sdk\src\wolfSSL\wolfcrypt\src/aes.c **** 
2236:..\kronos-c-sdk\src\wolfSSL\wolfcrypt\src/aes.c ****         byte* iv;
2237:..\kronos-c-sdk\src\wolfSSL\wolfcrypt\src/aes.c ****         byte temp_block[AES_BLOCK_SIZE];
2238:..\kronos-c-sdk\src\wolfSSL\wolfcrypt\src/aes.c **** 
2239:..\kronos-c-sdk\src\wolfSSL\wolfcrypt\src/aes.c ****         iv      = (byte*)aes->reg;
2240:..\kronos-c-sdk\src\wolfSSL\wolfcrypt\src/aes.c **** 
2241:..\kronos-c-sdk\src\wolfSSL\wolfcrypt\src/aes.c ****         if ((wolfssl_word)out % WOLFSSL_MMCAU_ALIGNMENT) {
2242:..\kronos-c-sdk\src\wolfSSL\wolfcrypt\src/aes.c ****             WOLFSSL_MSG("Bad cau_aes_decrypt alignment");
2243:..\kronos-c-sdk\src\wolfSSL\wolfcrypt\src/aes.c ****             return BAD_ALIGN_E;
2244:..\kronos-c-sdk\src\wolfSSL\wolfcrypt\src/aes.c ****         }
2245:..\kronos-c-sdk\src\wolfSSL\wolfcrypt\src/aes.c **** 
2246:..\kronos-c-sdk\src\wolfSSL\wolfcrypt\src/aes.c ****         while (len > 0)
2247:..\kronos-c-sdk\src\wolfSSL\wolfcrypt\src/aes.c ****         {
2248:..\kronos-c-sdk\src\wolfSSL\wolfcrypt\src/aes.c ****             XMEMCPY(temp_block, in + offset, AES_BLOCK_SIZE);
2249:..\kronos-c-sdk\src\wolfSSL\wolfcrypt\src/aes.c **** 
2250:..\kronos-c-sdk\src\wolfSSL\wolfcrypt\src/aes.c ****             wc_AesDecrypt(aes, in + offset, out + offset);
2251:..\kronos-c-sdk\src\wolfSSL\wolfcrypt\src/aes.c **** 
2252:..\kronos-c-sdk\src\wolfSSL\wolfcrypt\src/aes.c ****             /* XOR block with IV for CBC */
2253:..\kronos-c-sdk\src\wolfSSL\wolfcrypt\src/aes.c ****             for (i = 0; i < AES_BLOCK_SIZE; i++)
2254:..\kronos-c-sdk\src\wolfSSL\wolfcrypt\src/aes.c ****                 (out + offset)[i] ^= iv[i];
2255:..\kronos-c-sdk\src\wolfSSL\wolfcrypt\src/aes.c **** 
2256:..\kronos-c-sdk\src\wolfSSL\wolfcrypt\src/aes.c ****             /* store IV for next block */
2257:..\kronos-c-sdk\src\wolfSSL\wolfcrypt\src/aes.c ****             XMEMCPY(iv, temp_block, AES_BLOCK_SIZE);
2258:..\kronos-c-sdk\src\wolfSSL\wolfcrypt\src/aes.c **** 
2259:..\kronos-c-sdk\src\wolfSSL\wolfcrypt\src/aes.c ****             len    -= AES_BLOCK_SIZE;
2260:..\kronos-c-sdk\src\wolfSSL\wolfcrypt\src/aes.c ****             offset += AES_BLOCK_SIZE;
2261:..\kronos-c-sdk\src\wolfSSL\wolfcrypt\src/aes.c ****         }
2262:..\kronos-c-sdk\src\wolfSSL\wolfcrypt\src/aes.c **** 
2263:..\kronos-c-sdk\src\wolfSSL\wolfcrypt\src/aes.c ****         return 0;
2264:..\kronos-c-sdk\src\wolfSSL\wolfcrypt\src/aes.c ****     }
2265:..\kronos-c-sdk\src\wolfSSL\wolfcrypt\src/aes.c ****     #endif /* HAVE_AES_DECRYPT */
2266:..\kronos-c-sdk\src\wolfSSL\wolfcrypt\src/aes.c **** #elif defined(WOLFSSL_PIC32MZ_CRYPT)
2267:..\kronos-c-sdk\src\wolfSSL\wolfcrypt\src/aes.c ****     /* core hardware crypt engine driver */
2268:..\kronos-c-sdk\src\wolfSSL\wolfcrypt\src/aes.c ****     static void wc_AesCrypt(Aes *aes, byte* out, const byte* in, word32 sz,
2269:..\kronos-c-sdk\src\wolfSSL\wolfcrypt\src/aes.c ****                                             int dir, int algo, int cryptoalgo)
2270:..\kronos-c-sdk\src\wolfSSL\wolfcrypt\src/aes.c ****     {
2271:..\kronos-c-sdk\src\wolfSSL\wolfcrypt\src/aes.c ****         securityAssociation *sa_p ;
2272:..\kronos-c-sdk\src\wolfSSL\wolfcrypt\src/aes.c ****         bufferDescriptor *bd_p ;
2273:..\kronos-c-sdk\src\wolfSSL\wolfcrypt\src/aes.c **** 
2274:..\kronos-c-sdk\src\wolfSSL\wolfcrypt\src/aes.c ****         volatile securityAssociation sa __attribute__((aligned (8)));
2275:..\kronos-c-sdk\src\wolfSSL\wolfcrypt\src/aes.c ****         volatile bufferDescriptor bd __attribute__((aligned (8)));
2276:..\kronos-c-sdk\src\wolfSSL\wolfcrypt\src/aes.c ****         volatile int k ;
2277:..\kronos-c-sdk\src\wolfSSL\wolfcrypt\src/aes.c **** 
ARM GAS  C:\Users\ddemidov\AppData\Local\Temp\ccTwWFqA.s 			page 99


2278:..\kronos-c-sdk\src\wolfSSL\wolfcrypt\src/aes.c ****         /* get uncached address */
2279:..\kronos-c-sdk\src\wolfSSL\wolfcrypt\src/aes.c ****         sa_p = KVA0_TO_KVA1(&sa) ;
2280:..\kronos-c-sdk\src\wolfSSL\wolfcrypt\src/aes.c ****         bd_p = KVA0_TO_KVA1(&bd) ;
2281:..\kronos-c-sdk\src\wolfSSL\wolfcrypt\src/aes.c **** 
2282:..\kronos-c-sdk\src\wolfSSL\wolfcrypt\src/aes.c ****         /* Sync cache and physical memory */
2283:..\kronos-c-sdk\src\wolfSSL\wolfcrypt\src/aes.c ****         if(PIC32MZ_IF_RAM(in)) {
2284:..\kronos-c-sdk\src\wolfSSL\wolfcrypt\src/aes.c ****             XMEMCPY((void *)KVA0_TO_KVA1(in), (void *)in, sz);
2285:..\kronos-c-sdk\src\wolfSSL\wolfcrypt\src/aes.c ****         }
2286:..\kronos-c-sdk\src\wolfSSL\wolfcrypt\src/aes.c ****         XMEMSET((void *)KVA0_TO_KVA1(out), 0, sz);
2287:..\kronos-c-sdk\src\wolfSSL\wolfcrypt\src/aes.c ****         /* Set up the Security Association */
2288:..\kronos-c-sdk\src\wolfSSL\wolfcrypt\src/aes.c ****         XMEMSET((byte *)KVA0_TO_KVA1(&sa), 0, sizeof(sa));
2289:..\kronos-c-sdk\src\wolfSSL\wolfcrypt\src/aes.c ****         sa_p->SA_CTRL.ALGO = algo ; /* AES */
2290:..\kronos-c-sdk\src\wolfSSL\wolfcrypt\src/aes.c ****         sa_p->SA_CTRL.LNC = 1;
2291:..\kronos-c-sdk\src\wolfSSL\wolfcrypt\src/aes.c ****         sa_p->SA_CTRL.LOADIV = 1;
2292:..\kronos-c-sdk\src\wolfSSL\wolfcrypt\src/aes.c ****         sa_p->SA_CTRL.FB = 1;
2293:..\kronos-c-sdk\src\wolfSSL\wolfcrypt\src/aes.c ****         sa_p->SA_CTRL.ENCTYPE = dir ; /* Encryption/Decryption */
2294:..\kronos-c-sdk\src\wolfSSL\wolfcrypt\src/aes.c ****         sa_p->SA_CTRL.CRYPTOALGO = cryptoalgo;
2295:..\kronos-c-sdk\src\wolfSSL\wolfcrypt\src/aes.c **** 
2296:..\kronos-c-sdk\src\wolfSSL\wolfcrypt\src/aes.c ****         if(cryptoalgo == PIC32_CRYPTOALGO_AES_GCM){
2297:..\kronos-c-sdk\src\wolfSSL\wolfcrypt\src/aes.c ****             switch(aes->keylen) {
2298:..\kronos-c-sdk\src\wolfSSL\wolfcrypt\src/aes.c ****             case 32:
2299:..\kronos-c-sdk\src\wolfSSL\wolfcrypt\src/aes.c ****                 sa_p->SA_CTRL.KEYSIZE = PIC32_AES_KEYSIZE_256 ;
2300:..\kronos-c-sdk\src\wolfSSL\wolfcrypt\src/aes.c ****                 break ;
2301:..\kronos-c-sdk\src\wolfSSL\wolfcrypt\src/aes.c ****             case 24:
2302:..\kronos-c-sdk\src\wolfSSL\wolfcrypt\src/aes.c ****                 sa_p->SA_CTRL.KEYSIZE = PIC32_AES_KEYSIZE_192 ;
2303:..\kronos-c-sdk\src\wolfSSL\wolfcrypt\src/aes.c ****                 break ;
2304:..\kronos-c-sdk\src\wolfSSL\wolfcrypt\src/aes.c ****             case 16:
2305:..\kronos-c-sdk\src\wolfSSL\wolfcrypt\src/aes.c ****                 sa_p->SA_CTRL.KEYSIZE = PIC32_AES_KEYSIZE_128 ;
2306:..\kronos-c-sdk\src\wolfSSL\wolfcrypt\src/aes.c ****                 break ;
2307:..\kronos-c-sdk\src\wolfSSL\wolfcrypt\src/aes.c ****             }
2308:..\kronos-c-sdk\src\wolfSSL\wolfcrypt\src/aes.c ****         } else
2309:..\kronos-c-sdk\src\wolfSSL\wolfcrypt\src/aes.c ****             sa_p->SA_CTRL.KEYSIZE = PIC32_AES_KEYSIZE_128 ;
2310:..\kronos-c-sdk\src\wolfSSL\wolfcrypt\src/aes.c **** 
2311:..\kronos-c-sdk\src\wolfSSL\wolfcrypt\src/aes.c ****         ByteReverseWords(
2312:..\kronos-c-sdk\src\wolfSSL\wolfcrypt\src/aes.c ****         (word32 *)KVA0_TO_KVA1(sa.SA_ENCKEY + 8 - aes->keylen/sizeof(word32)),
2313:..\kronos-c-sdk\src\wolfSSL\wolfcrypt\src/aes.c ****                          (word32 *)aes->key_ce, aes->keylen);
2314:..\kronos-c-sdk\src\wolfSSL\wolfcrypt\src/aes.c ****         ByteReverseWords(
2315:..\kronos-c-sdk\src\wolfSSL\wolfcrypt\src/aes.c ****         (word32*)KVA0_TO_KVA1(sa.SA_ENCIV), (word32 *)aes->iv_ce, 16);
2316:..\kronos-c-sdk\src\wolfSSL\wolfcrypt\src/aes.c **** 
2317:..\kronos-c-sdk\src\wolfSSL\wolfcrypt\src/aes.c ****         XMEMSET((byte *)KVA0_TO_KVA1(&bd), 0, sizeof(bd));
2318:..\kronos-c-sdk\src\wolfSSL\wolfcrypt\src/aes.c ****         /* Set up the Buffer Descriptor */
2319:..\kronos-c-sdk\src\wolfSSL\wolfcrypt\src/aes.c ****         bd_p->BD_CTRL.BUFLEN = sz;
2320:..\kronos-c-sdk\src\wolfSSL\wolfcrypt\src/aes.c ****         if(cryptoalgo == PIC32_CRYPTOALGO_AES_GCM) {
2321:..\kronos-c-sdk\src\wolfSSL\wolfcrypt\src/aes.c ****             if(sz % 0x10)
2322:..\kronos-c-sdk\src\wolfSSL\wolfcrypt\src/aes.c ****                 bd_p->BD_CTRL.BUFLEN = (sz/0x10 + 1) * 0x10 ;
2323:..\kronos-c-sdk\src\wolfSSL\wolfcrypt\src/aes.c ****         }
2324:..\kronos-c-sdk\src\wolfSSL\wolfcrypt\src/aes.c ****         bd_p->BD_CTRL.LIFM = 1;
2325:..\kronos-c-sdk\src\wolfSSL\wolfcrypt\src/aes.c ****         bd_p->BD_CTRL.SA_FETCH_EN = 1;
2326:..\kronos-c-sdk\src\wolfSSL\wolfcrypt\src/aes.c ****         bd_p->BD_CTRL.LAST_BD = 1;
2327:..\kronos-c-sdk\src\wolfSSL\wolfcrypt\src/aes.c ****         bd_p->BD_CTRL.DESC_EN = 1;
2328:..\kronos-c-sdk\src\wolfSSL\wolfcrypt\src/aes.c **** 
2329:..\kronos-c-sdk\src\wolfSSL\wolfcrypt\src/aes.c ****         bd_p->SA_ADDR = (unsigned int)KVA_TO_PA(&sa) ;
2330:..\kronos-c-sdk\src\wolfSSL\wolfcrypt\src/aes.c ****         bd_p->SRCADDR = (unsigned int)KVA_TO_PA(in) ;
2331:..\kronos-c-sdk\src\wolfSSL\wolfcrypt\src/aes.c ****         bd_p->DSTADDR = (unsigned int)KVA_TO_PA(out);
2332:..\kronos-c-sdk\src\wolfSSL\wolfcrypt\src/aes.c ****         bd_p->MSGLEN = sz ;
2333:..\kronos-c-sdk\src\wolfSSL\wolfcrypt\src/aes.c **** 
2334:..\kronos-c-sdk\src\wolfSSL\wolfcrypt\src/aes.c ****         CECON = 1 << 6;
ARM GAS  C:\Users\ddemidov\AppData\Local\Temp\ccTwWFqA.s 			page 100


2335:..\kronos-c-sdk\src\wolfSSL\wolfcrypt\src/aes.c ****         while (CECON);
2336:..\kronos-c-sdk\src\wolfSSL\wolfcrypt\src/aes.c **** 
2337:..\kronos-c-sdk\src\wolfSSL\wolfcrypt\src/aes.c ****         /* Run the engine */
2338:..\kronos-c-sdk\src\wolfSSL\wolfcrypt\src/aes.c ****         CEBDPADDR = (unsigned int)KVA_TO_PA(&bd) ;
2339:..\kronos-c-sdk\src\wolfSSL\wolfcrypt\src/aes.c ****         CEINTEN = 0x07;
2340:..\kronos-c-sdk\src\wolfSSL\wolfcrypt\src/aes.c ****         CECON = 0x27;
2341:..\kronos-c-sdk\src\wolfSSL\wolfcrypt\src/aes.c **** 
2342:..\kronos-c-sdk\src\wolfSSL\wolfcrypt\src/aes.c ****         WAIT_ENGINE ;
2343:..\kronos-c-sdk\src\wolfSSL\wolfcrypt\src/aes.c **** 
2344:..\kronos-c-sdk\src\wolfSSL\wolfcrypt\src/aes.c ****         if((cryptoalgo == PIC32_CRYPTOALGO_CBC) ||
2345:..\kronos-c-sdk\src\wolfSSL\wolfcrypt\src/aes.c ****            (cryptoalgo == PIC32_CRYPTOALGO_TCBC)||
2346:..\kronos-c-sdk\src\wolfSSL\wolfcrypt\src/aes.c ****            (cryptoalgo == PIC32_CRYPTOALGO_RCBC)) {
2347:..\kronos-c-sdk\src\wolfSSL\wolfcrypt\src/aes.c ****             /* set iv for the next call */
2348:..\kronos-c-sdk\src\wolfSSL\wolfcrypt\src/aes.c ****             if(dir == PIC32_ENCRYPTION) {
2349:..\kronos-c-sdk\src\wolfSSL\wolfcrypt\src/aes.c ****                 XMEMCPY((void *)aes->iv_ce,
2350:..\kronos-c-sdk\src\wolfSSL\wolfcrypt\src/aes.c ****                         (void*)KVA0_TO_KVA1(out + sz - AES_BLOCK_SIZE),
2351:..\kronos-c-sdk\src\wolfSSL\wolfcrypt\src/aes.c ****                         AES_BLOCK_SIZE) ;
2352:..\kronos-c-sdk\src\wolfSSL\wolfcrypt\src/aes.c ****             } else {
2353:..\kronos-c-sdk\src\wolfSSL\wolfcrypt\src/aes.c ****                 ByteReverseWords((word32*)aes->iv_ce,
2354:..\kronos-c-sdk\src\wolfSSL\wolfcrypt\src/aes.c ****                         (word32 *)KVA0_TO_KVA1(in + sz - AES_BLOCK_SIZE),
2355:..\kronos-c-sdk\src\wolfSSL\wolfcrypt\src/aes.c ****                         AES_BLOCK_SIZE);
2356:..\kronos-c-sdk\src\wolfSSL\wolfcrypt\src/aes.c ****             }
2357:..\kronos-c-sdk\src\wolfSSL\wolfcrypt\src/aes.c ****         }
2358:..\kronos-c-sdk\src\wolfSSL\wolfcrypt\src/aes.c ****         XMEMCPY((byte *)out, (byte *)KVA0_TO_KVA1(out), sz) ;
2359:..\kronos-c-sdk\src\wolfSSL\wolfcrypt\src/aes.c ****         ByteReverseWords((word32*)out, (word32 *)out, sz);
2360:..\kronos-c-sdk\src\wolfSSL\wolfcrypt\src/aes.c ****     }
2361:..\kronos-c-sdk\src\wolfSSL\wolfcrypt\src/aes.c **** 
2362:..\kronos-c-sdk\src\wolfSSL\wolfcrypt\src/aes.c ****     int wc_AesCbcEncrypt(Aes* aes, byte* out, const byte* in, word32 sz)
2363:..\kronos-c-sdk\src\wolfSSL\wolfcrypt\src/aes.c ****     {
2364:..\kronos-c-sdk\src\wolfSSL\wolfcrypt\src/aes.c ****         wc_AesCrypt(aes, out, in, sz, PIC32_ENCRYPTION, PIC32_ALGO_AES,
2365:..\kronos-c-sdk\src\wolfSSL\wolfcrypt\src/aes.c ****                                                       PIC32_CRYPTOALGO_RCBC );
2366:..\kronos-c-sdk\src\wolfSSL\wolfcrypt\src/aes.c ****         return 0 ;
2367:..\kronos-c-sdk\src\wolfSSL\wolfcrypt\src/aes.c ****     }
2368:..\kronos-c-sdk\src\wolfSSL\wolfcrypt\src/aes.c ****     #ifdef HAVE_AES_DECRYPT
2369:..\kronos-c-sdk\src\wolfSSL\wolfcrypt\src/aes.c ****     int wc_AesCbcDecrypt(Aes* aes, byte* out, const byte* in, word32 sz)
2370:..\kronos-c-sdk\src\wolfSSL\wolfcrypt\src/aes.c ****     {
2371:..\kronos-c-sdk\src\wolfSSL\wolfcrypt\src/aes.c ****         wc_AesCrypt(aes, out, in, sz, PIC32_DECRYPTION, PIC32_ALGO_AES,
2372:..\kronos-c-sdk\src\wolfSSL\wolfcrypt\src/aes.c ****                                                       PIC32_CRYPTOALGO_RCBC);
2373:..\kronos-c-sdk\src\wolfSSL\wolfcrypt\src/aes.c ****         return 0 ;
2374:..\kronos-c-sdk\src\wolfSSL\wolfcrypt\src/aes.c ****     }
2375:..\kronos-c-sdk\src\wolfSSL\wolfcrypt\src/aes.c ****     #endif /* HAVE_AES_DECRYPT */
2376:..\kronos-c-sdk\src\wolfSSL\wolfcrypt\src/aes.c **** 
2377:..\kronos-c-sdk\src\wolfSSL\wolfcrypt\src/aes.c **** #else
2378:..\kronos-c-sdk\src\wolfSSL\wolfcrypt\src/aes.c ****     int wc_AesCbcEncrypt(Aes* aes, byte* out, const byte* in, word32 sz)
2379:..\kronos-c-sdk\src\wolfSSL\wolfcrypt\src/aes.c ****     {
 2962              		.loc 1 2379 0
 2963              		.cfi_startproc
 2964              	.LVL232:
 2965 0000 F0B5     		push	{r4, r5, r6, r7, lr}
 2966              		.cfi_def_cfa_offset 20
 2967              		.cfi_offset 4, -20
 2968              		.cfi_offset 5, -16
 2969              		.cfi_offset 6, -12
 2970              		.cfi_offset 7, -8
 2971              		.cfi_offset 14, -4
 2972 0002 4746     		mov	r7, r8
 2973 0004 80B4     		push	{r7}
ARM GAS  C:\Users\ddemidov\AppData\Local\Temp\ccTwWFqA.s 			page 101


 2974              		.cfi_def_cfa_offset 24
 2975              		.cfi_offset 8, -24
 2976 0006 071C     		mov	r7, r0
 2977 0008 0E1C     		mov	r6, r1
 2978 000a 151C     		mov	r5, r2
2380:..\kronos-c-sdk\src\wolfSSL\wolfcrypt\src/aes.c ****         word32 blocks = sz / AES_BLOCK_SIZE;
 2979              		.loc 1 2380 0
 2980 000c 1B09     		lsr	r3, r3, #4
 2981              	.LVL233:
2381:..\kronos-c-sdk\src\wolfSSL\wolfcrypt\src/aes.c **** 
2382:..\kronos-c-sdk\src\wolfSSL\wolfcrypt\src/aes.c ****     #ifdef HAVE_CAVIUM
2383:..\kronos-c-sdk\src\wolfSSL\wolfcrypt\src/aes.c ****         if (aes->magic == WOLFSSL_AES_CAVIUM_MAGIC)
2384:..\kronos-c-sdk\src\wolfSSL\wolfcrypt\src/aes.c ****             return wc_AesCaviumCbcEncrypt(aes, out, in, sz);
2385:..\kronos-c-sdk\src\wolfSSL\wolfcrypt\src/aes.c ****     #endif
2386:..\kronos-c-sdk\src\wolfSSL\wolfcrypt\src/aes.c **** 
2387:..\kronos-c-sdk\src\wolfSSL\wolfcrypt\src/aes.c ****     #ifdef WOLFSSL_AESNI
2388:..\kronos-c-sdk\src\wolfSSL\wolfcrypt\src/aes.c ****         if (haveAESNI) {
2389:..\kronos-c-sdk\src\wolfSSL\wolfcrypt\src/aes.c ****             #ifdef DEBUG_AESNI
2390:..\kronos-c-sdk\src\wolfSSL\wolfcrypt\src/aes.c ****                 printf("about to aes cbc encrypt\n");
2391:..\kronos-c-sdk\src\wolfSSL\wolfcrypt\src/aes.c ****                 printf("in  = %p\n", in);
2392:..\kronos-c-sdk\src\wolfSSL\wolfcrypt\src/aes.c ****                 printf("out = %p\n", out);
2393:..\kronos-c-sdk\src\wolfSSL\wolfcrypt\src/aes.c ****                 printf("aes->key = %p\n", aes->key);
2394:..\kronos-c-sdk\src\wolfSSL\wolfcrypt\src/aes.c ****                 printf("aes->reg = %p\n", aes->reg);
2395:..\kronos-c-sdk\src\wolfSSL\wolfcrypt\src/aes.c ****                 printf("aes->rounds = %d\n", aes->rounds);
2396:..\kronos-c-sdk\src\wolfSSL\wolfcrypt\src/aes.c ****                 printf("sz = %d\n", sz);
2397:..\kronos-c-sdk\src\wolfSSL\wolfcrypt\src/aes.c ****             #endif
2398:..\kronos-c-sdk\src\wolfSSL\wolfcrypt\src/aes.c **** 
2399:..\kronos-c-sdk\src\wolfSSL\wolfcrypt\src/aes.c ****             /* check alignment, decrypt doesn't need alignment */
2400:..\kronos-c-sdk\src\wolfSSL\wolfcrypt\src/aes.c ****             if ((wolfssl_word)in % 16) {
2401:..\kronos-c-sdk\src\wolfSSL\wolfcrypt\src/aes.c ****             #ifndef NO_WOLFSSL_ALLOC_ALIGN
2402:..\kronos-c-sdk\src\wolfSSL\wolfcrypt\src/aes.c ****                 byte* tmp = (byte*)XMALLOC(sz, NULL, DYNAMIC_TYPE_TMP_BUFFER);
2403:..\kronos-c-sdk\src\wolfSSL\wolfcrypt\src/aes.c ****                 WOLFSSL_MSG("AES-CBC encrypt with bad alignment");
2404:..\kronos-c-sdk\src\wolfSSL\wolfcrypt\src/aes.c ****                 if (tmp == NULL) return MEMORY_E;
2405:..\kronos-c-sdk\src\wolfSSL\wolfcrypt\src/aes.c **** 
2406:..\kronos-c-sdk\src\wolfSSL\wolfcrypt\src/aes.c ****                 XMEMCPY(tmp, in, sz);
2407:..\kronos-c-sdk\src\wolfSSL\wolfcrypt\src/aes.c ****                 AES_CBC_encrypt(tmp, tmp, (byte*)aes->reg, sz, (byte*)aes->key,
2408:..\kronos-c-sdk\src\wolfSSL\wolfcrypt\src/aes.c ****                             aes->rounds);
2409:..\kronos-c-sdk\src\wolfSSL\wolfcrypt\src/aes.c ****                 /* store iv for next call */
2410:..\kronos-c-sdk\src\wolfSSL\wolfcrypt\src/aes.c ****                 XMEMCPY(aes->reg, tmp + sz - AES_BLOCK_SIZE, AES_BLOCK_SIZE);
2411:..\kronos-c-sdk\src\wolfSSL\wolfcrypt\src/aes.c **** 
2412:..\kronos-c-sdk\src\wolfSSL\wolfcrypt\src/aes.c ****                 XMEMCPY(out, tmp, sz);
2413:..\kronos-c-sdk\src\wolfSSL\wolfcrypt\src/aes.c ****                 XFREE(tmp, NULL, DYNAMIC_TYPE_TMP_BUFFER);
2414:..\kronos-c-sdk\src\wolfSSL\wolfcrypt\src/aes.c ****                 return 0;
2415:..\kronos-c-sdk\src\wolfSSL\wolfcrypt\src/aes.c ****             #else
2416:..\kronos-c-sdk\src\wolfSSL\wolfcrypt\src/aes.c ****                 return BAD_ALIGN_E;
2417:..\kronos-c-sdk\src\wolfSSL\wolfcrypt\src/aes.c ****             #endif
2418:..\kronos-c-sdk\src\wolfSSL\wolfcrypt\src/aes.c ****             }
2419:..\kronos-c-sdk\src\wolfSSL\wolfcrypt\src/aes.c **** 
2420:..\kronos-c-sdk\src\wolfSSL\wolfcrypt\src/aes.c ****             AES_CBC_encrypt(in, out, (byte*)aes->reg, sz, (byte*)aes->key,
2421:..\kronos-c-sdk\src\wolfSSL\wolfcrypt\src/aes.c ****                             aes->rounds);
2422:..\kronos-c-sdk\src\wolfSSL\wolfcrypt\src/aes.c ****             /* store iv for next call */
2423:..\kronos-c-sdk\src\wolfSSL\wolfcrypt\src/aes.c ****             XMEMCPY(aes->reg, out + sz - AES_BLOCK_SIZE, AES_BLOCK_SIZE);
2424:..\kronos-c-sdk\src\wolfSSL\wolfcrypt\src/aes.c **** 
2425:..\kronos-c-sdk\src\wolfSSL\wolfcrypt\src/aes.c ****             return 0;
2426:..\kronos-c-sdk\src\wolfSSL\wolfcrypt\src/aes.c ****         }
2427:..\kronos-c-sdk\src\wolfSSL\wolfcrypt\src/aes.c ****     #endif
2428:..\kronos-c-sdk\src\wolfSSL\wolfcrypt\src/aes.c **** 
ARM GAS  C:\Users\ddemidov\AppData\Local\Temp\ccTwWFqA.s 			page 102


2429:..\kronos-c-sdk\src\wolfSSL\wolfcrypt\src/aes.c ****         while (blocks--) {
 2982              		.loc 1 2429 0
 2983 000e 28E0     		b	.L51
 2984              	.LVL234:
 2985              	.L57:
2430:..\kronos-c-sdk\src\wolfSSL\wolfcrypt\src/aes.c ****             xorbuf((byte*)aes->reg, in, AES_BLOCK_SIZE);
 2986              		.loc 1 2430 0
 2987 0010 3C1C     		mov	r4, r7
 2988 0012 F434     		add	r4, r4, #244
 2989              	.LVL235:
 2990              	.LBB158:
 2991              	.LBB159:
 108:..\kronos-c-sdk\src\wolfSSL\wolfcrypt\src/misc.c **** 
 109:..\kronos-c-sdk\src\wolfSSL\wolfcrypt\src/misc.c **** }
 110:..\kronos-c-sdk\src\wolfSSL\wolfcrypt\src/misc.c **** 
 111:..\kronos-c-sdk\src\wolfSSL\wolfcrypt\src/misc.c **** 
 112:..\kronos-c-sdk\src\wolfSSL\wolfcrypt\src/misc.c **** #ifdef WORD64_AVAILABLE
 113:..\kronos-c-sdk\src\wolfSSL\wolfcrypt\src/misc.c **** 
 114:..\kronos-c-sdk\src\wolfSSL\wolfcrypt\src/misc.c **** 
 115:..\kronos-c-sdk\src\wolfSSL\wolfcrypt\src/misc.c **** STATIC INLINE word64 rotlFixed64(word64 x, word64 y)
 116:..\kronos-c-sdk\src\wolfSSL\wolfcrypt\src/misc.c **** {
 117:..\kronos-c-sdk\src\wolfSSL\wolfcrypt\src/misc.c ****     return (x << y) | (x >> (sizeof(y) * 8 - y));
 118:..\kronos-c-sdk\src\wolfSSL\wolfcrypt\src/misc.c **** }  
 119:..\kronos-c-sdk\src\wolfSSL\wolfcrypt\src/misc.c **** 
 120:..\kronos-c-sdk\src\wolfSSL\wolfcrypt\src/misc.c **** 
 121:..\kronos-c-sdk\src\wolfSSL\wolfcrypt\src/misc.c **** STATIC INLINE word64 rotrFixed64(word64 x, word64 y)
 122:..\kronos-c-sdk\src\wolfSSL\wolfcrypt\src/misc.c **** {
 123:..\kronos-c-sdk\src\wolfSSL\wolfcrypt\src/misc.c ****     return (x >> y) | (x << (sizeof(y) * 8 - y));
 124:..\kronos-c-sdk\src\wolfSSL\wolfcrypt\src/misc.c **** }
 125:..\kronos-c-sdk\src\wolfSSL\wolfcrypt\src/misc.c **** 
 126:..\kronos-c-sdk\src\wolfSSL\wolfcrypt\src/misc.c **** 
 127:..\kronos-c-sdk\src\wolfSSL\wolfcrypt\src/misc.c **** STATIC INLINE word64 ByteReverseWord64(word64 value)
 128:..\kronos-c-sdk\src\wolfSSL\wolfcrypt\src/misc.c **** {
 129:..\kronos-c-sdk\src\wolfSSL\wolfcrypt\src/misc.c **** #ifdef WOLFCRYPT_SLOW_WORD64
 130:..\kronos-c-sdk\src\wolfSSL\wolfcrypt\src/misc.c **** 	return (word64)(ByteReverseWord32((word32)value)) << 32 | 
 131:..\kronos-c-sdk\src\wolfSSL\wolfcrypt\src/misc.c ****                     ByteReverseWord32((word32)(value>>32));
 132:..\kronos-c-sdk\src\wolfSSL\wolfcrypt\src/misc.c **** #else
 133:..\kronos-c-sdk\src\wolfSSL\wolfcrypt\src/misc.c **** 	value = ((value & W64LIT(0xFF00FF00FF00FF00)) >> 8) |
 134:..\kronos-c-sdk\src\wolfSSL\wolfcrypt\src/misc.c ****             ((value & W64LIT(0x00FF00FF00FF00FF)) << 8);
 135:..\kronos-c-sdk\src\wolfSSL\wolfcrypt\src/misc.c **** 	value = ((value & W64LIT(0xFFFF0000FFFF0000)) >> 16) |
 136:..\kronos-c-sdk\src\wolfSSL\wolfcrypt\src/misc.c ****             ((value & W64LIT(0x0000FFFF0000FFFF)) << 16);
 137:..\kronos-c-sdk\src\wolfSSL\wolfcrypt\src/misc.c **** 	return rotlFixed64(value, 32U);
 138:..\kronos-c-sdk\src\wolfSSL\wolfcrypt\src/misc.c **** #endif
 139:..\kronos-c-sdk\src\wolfSSL\wolfcrypt\src/misc.c **** }
 140:..\kronos-c-sdk\src\wolfSSL\wolfcrypt\src/misc.c **** 
 141:..\kronos-c-sdk\src\wolfSSL\wolfcrypt\src/misc.c **** 
 142:..\kronos-c-sdk\src\wolfSSL\wolfcrypt\src/misc.c **** STATIC INLINE void ByteReverseWords64(word64* out, const word64* in,
 143:..\kronos-c-sdk\src\wolfSSL\wolfcrypt\src/misc.c ****                                       word32 byteCount)
 144:..\kronos-c-sdk\src\wolfSSL\wolfcrypt\src/misc.c **** {
 145:..\kronos-c-sdk\src\wolfSSL\wolfcrypt\src/misc.c ****     word32 count = byteCount/(word32)sizeof(word64), i;
 146:..\kronos-c-sdk\src\wolfSSL\wolfcrypt\src/misc.c **** 
 147:..\kronos-c-sdk\src\wolfSSL\wolfcrypt\src/misc.c ****     for (i = 0; i < count; i++)
 148:..\kronos-c-sdk\src\wolfSSL\wolfcrypt\src/misc.c ****         out[i] = ByteReverseWord64(in[i]);
 149:..\kronos-c-sdk\src\wolfSSL\wolfcrypt\src/misc.c **** 
 150:..\kronos-c-sdk\src\wolfSSL\wolfcrypt\src/misc.c **** }
 151:..\kronos-c-sdk\src\wolfSSL\wolfcrypt\src/misc.c **** 
 152:..\kronos-c-sdk\src\wolfSSL\wolfcrypt\src/misc.c **** #endif /* WORD64_AVAILABLE */
ARM GAS  C:\Users\ddemidov\AppData\Local\Temp\ccTwWFqA.s 			page 103


 153:..\kronos-c-sdk\src\wolfSSL\wolfcrypt\src/misc.c **** 
 154:..\kronos-c-sdk\src\wolfSSL\wolfcrypt\src/misc.c **** 
 155:..\kronos-c-sdk\src\wolfSSL\wolfcrypt\src/misc.c **** STATIC INLINE void XorWords(wolfssl_word* r, const wolfssl_word* a, word32 n)
 156:..\kronos-c-sdk\src\wolfSSL\wolfcrypt\src/misc.c **** {
 157:..\kronos-c-sdk\src\wolfSSL\wolfcrypt\src/misc.c ****     word32 i;
 158:..\kronos-c-sdk\src\wolfSSL\wolfcrypt\src/misc.c **** 
 159:..\kronos-c-sdk\src\wolfSSL\wolfcrypt\src/misc.c ****     for (i = 0; i < n; i++) r[i] ^= a[i];
 160:..\kronos-c-sdk\src\wolfSSL\wolfcrypt\src/misc.c **** }
 161:..\kronos-c-sdk\src\wolfSSL\wolfcrypt\src/misc.c **** 
 162:..\kronos-c-sdk\src\wolfSSL\wolfcrypt\src/misc.c **** 
 163:..\kronos-c-sdk\src\wolfSSL\wolfcrypt\src/misc.c **** STATIC INLINE void xorbuf(void* buf, const void* mask, word32 count)
 164:..\kronos-c-sdk\src\wolfSSL\wolfcrypt\src/misc.c **** {
 165:..\kronos-c-sdk\src\wolfSSL\wolfcrypt\src/misc.c ****     if (((wolfssl_word)buf | (wolfssl_word)mask | count) % WOLFSSL_WORD_SIZE == 0)
 2992              		.loc 2 165 0
 2993 0014 231C     		mov	r3, r4
 2994 0016 2B43     		orr	r3, r5
 2995 0018 9B07     		lsl	r3, r3, #30
 2996 001a 09D0     		beq	.L58
 2997 001c 0023     		mov	r3, #0
 2998 001e 11E0     		b	.L53
 2999              	.LVL236:
 3000              	.L54:
 3001              	.LBB160:
 3002              	.LBB161:
 159:..\kronos-c-sdk\src\wolfSSL\wolfcrypt\src/misc.c **** }
 3003              		.loc 2 159 0
 3004 0020 9A00     		lsl	r2, r3, #2
 3005 0022 A118     		add	r1, r4, r2
 3006 0024 AA58     		ldr	r2, [r5, r2]
 3007 0026 0868     		ldr	r0, [r1]
 3008 0028 4240     		eor	r2, r0
 3009 002a 0A60     		str	r2, [r1]
 3010 002c 0133     		add	r3, r3, #1
 3011              	.LVL237:
 3012 002e 00E0     		b	.L52
 3013              	.LVL238:
 3014              	.L58:
 3015 0030 0023     		mov	r3, #0
 3016              	.LVL239:
 3017              	.L52:
 3018 0032 032B     		cmp	r3, #3
 3019 0034 F4D9     		bls	.L54
 3020 0036 07E0     		b	.L55
 3021              	.LVL240:
 3022              	.L56:
 3023              	.LBE161:
 3024              	.LBE160:
 3025              	.LBB162:
 166:..\kronos-c-sdk\src\wolfSSL\wolfcrypt\src/misc.c ****         XorWords( (wolfssl_word*)buf,
 167:..\kronos-c-sdk\src\wolfSSL\wolfcrypt\src/misc.c ****                   (const wolfssl_word*)mask, count / WOLFSSL_WORD_SIZE);
 168:..\kronos-c-sdk\src\wolfSSL\wolfcrypt\src/misc.c ****     else {
 169:..\kronos-c-sdk\src\wolfSSL\wolfcrypt\src/misc.c ****         word32 i;
 170:..\kronos-c-sdk\src\wolfSSL\wolfcrypt\src/misc.c ****         byte*       b = (byte*)buf;
 171:..\kronos-c-sdk\src\wolfSSL\wolfcrypt\src/misc.c ****         const byte* m = (const byte*)mask;
 172:..\kronos-c-sdk\src\wolfSSL\wolfcrypt\src/misc.c **** 
 173:..\kronos-c-sdk\src\wolfSSL\wolfcrypt\src/misc.c ****         for (i = 0; i < count; i++) b[i] ^= m[i];
 3026              		.loc 2 173 0
ARM GAS  C:\Users\ddemidov\AppData\Local\Temp\ccTwWFqA.s 			page 104


 3027 0038 E118     		add	r1, r4, r3
 3028 003a E85C     		ldrb	r0, [r5, r3]
 3029 003c 0A78     		ldrb	r2, [r1]
 3030 003e 4240     		eor	r2, r0
 3031 0040 0A70     		strb	r2, [r1]
 3032 0042 0133     		add	r3, r3, #1
 3033              	.LVL241:
 3034              	.L53:
 3035 0044 0F2B     		cmp	r3, #15
 3036 0046 F7D9     		bls	.L56
 3037              	.LVL242:
 3038              	.L55:
 3039              	.LBE162:
 3040              	.LBE159:
 3041              	.LBE158:
2431:..\kronos-c-sdk\src\wolfSSL\wolfcrypt\src/aes.c ****             wc_AesEncrypt(aes, (byte*)aes->reg, (byte*)aes->reg);
 3042              		.loc 1 2431 0
 3043 0048 381C     		mov	r0, r7
 3044 004a 211C     		mov	r1, r4
 3045 004c 221C     		mov	r2, r4
 3046 004e FFF7FEFF 		bl	wc_AesEncrypt
 3047              	.LVL243:
2432:..\kronos-c-sdk\src\wolfSSL\wolfcrypt\src/aes.c ****             XMEMCPY(out, aes->reg, AES_BLOCK_SIZE);
 3048              		.loc 1 2432 0
 3049 0052 301C     		mov	r0, r6
 3050 0054 211C     		mov	r1, r4
 3051 0056 1022     		mov	r2, #16
 3052 0058 FFF7FEFF 		bl	memcpy
 3053              	.LVL244:
2433:..\kronos-c-sdk\src\wolfSSL\wolfcrypt\src/aes.c **** 
2434:..\kronos-c-sdk\src\wolfSSL\wolfcrypt\src/aes.c ****             out += AES_BLOCK_SIZE;
 3054              		.loc 1 2434 0
 3055 005c 1036     		add	r6, r6, #16
 3056              	.LVL245:
2435:..\kronos-c-sdk\src\wolfSSL\wolfcrypt\src/aes.c ****             in  += AES_BLOCK_SIZE;
 3057              		.loc 1 2435 0
 3058 005e 1035     		add	r5, r5, #16
 3059              	.LVL246:
2429:..\kronos-c-sdk\src\wolfSSL\wolfcrypt\src/aes.c ****             xorbuf((byte*)aes->reg, in, AES_BLOCK_SIZE);
 3060              		.loc 1 2429 0
 3061 0060 4346     		mov	r3, r8
 3062              	.LVL247:
 3063              	.L51:
 3064 0062 5A1E     		sub	r2, r3, #1
 3065 0064 9046     		mov	r8, r2
 3066              	.LVL248:
 3067 0066 002B     		cmp	r3, #0
 3068 0068 D2D1     		bne	.L57
2436:..\kronos-c-sdk\src\wolfSSL\wolfcrypt\src/aes.c ****         }
2437:..\kronos-c-sdk\src\wolfSSL\wolfcrypt\src/aes.c **** 
2438:..\kronos-c-sdk\src\wolfSSL\wolfcrypt\src/aes.c ****         return 0;
2439:..\kronos-c-sdk\src\wolfSSL\wolfcrypt\src/aes.c ****     }
 3069              		.loc 1 2439 0
 3070 006a 0020     		mov	r0, #0
 3071              		@ sp needed
 3072              	.LVL249:
 3073              	.LVL250:
ARM GAS  C:\Users\ddemidov\AppData\Local\Temp\ccTwWFqA.s 			page 105


 3074              	.LVL251:
 3075 006c 04BC     		pop	{r2}
 3076 006e 9046     		mov	r8, r2
 3077 0070 F0BD     		pop	{r4, r5, r6, r7, pc}
 3078              		.cfi_endproc
 3079              	.LFE17:
 3080              		.size	wc_AesCbcEncrypt, .-wc_AesCbcEncrypt
 3081 0072 C046     		.section	.text.wc_AesCbcDecrypt,"ax",%progbits
 3082              		.align	2
 3083              		.global	wc_AesCbcDecrypt
 3084              		.code	16
 3085              		.thumb_func
 3086              		.type	wc_AesCbcDecrypt, %function
 3087              	wc_AesCbcDecrypt:
 3088              	.LFB18:
2440:..\kronos-c-sdk\src\wolfSSL\wolfcrypt\src/aes.c **** 
2441:..\kronos-c-sdk\src\wolfSSL\wolfcrypt\src/aes.c ****     #ifdef HAVE_AES_DECRYPT
2442:..\kronos-c-sdk\src\wolfSSL\wolfcrypt\src/aes.c ****     int wc_AesCbcDecrypt(Aes* aes, byte* out, const byte* in, word32 sz)
2443:..\kronos-c-sdk\src\wolfSSL\wolfcrypt\src/aes.c ****     {
 3089              		.loc 1 2443 0
 3090              		.cfi_startproc
 3091              	.LVL252:
 3092 0000 F0B5     		push	{r4, r5, r6, r7, lr}
 3093              		.cfi_def_cfa_offset 20
 3094              		.cfi_offset 4, -20
 3095              		.cfi_offset 5, -16
 3096              		.cfi_offset 6, -12
 3097              		.cfi_offset 7, -8
 3098              		.cfi_offset 14, -4
 3099 0002 4746     		mov	r7, r8
 3100 0004 80B4     		push	{r7}
 3101              		.cfi_def_cfa_offset 24
 3102              		.cfi_offset 8, -24
 3103 0006 82B0     		sub	sp, sp, #8
 3104              		.cfi_def_cfa_offset 32
 3105 0008 071C     		mov	r7, r0
 3106 000a 0D1C     		mov	r5, r1
 3107 000c 161C     		mov	r6, r2
2444:..\kronos-c-sdk\src\wolfSSL\wolfcrypt\src/aes.c ****         word32 blocks = sz / AES_BLOCK_SIZE;
 3108              		.loc 1 2444 0
 3109 000e 1B09     		lsr	r3, r3, #4
 3110              	.LVL253:
2445:..\kronos-c-sdk\src\wolfSSL\wolfcrypt\src/aes.c **** 
2446:..\kronos-c-sdk\src\wolfSSL\wolfcrypt\src/aes.c ****     #ifdef HAVE_CAVIUM
2447:..\kronos-c-sdk\src\wolfSSL\wolfcrypt\src/aes.c ****         if (aes->magic == WOLFSSL_AES_CAVIUM_MAGIC)
2448:..\kronos-c-sdk\src\wolfSSL\wolfcrypt\src/aes.c ****             return wc_AesCaviumCbcDecrypt(aes, out, in, sz);
2449:..\kronos-c-sdk\src\wolfSSL\wolfcrypt\src/aes.c ****     #endif
2450:..\kronos-c-sdk\src\wolfSSL\wolfcrypt\src/aes.c **** 
2451:..\kronos-c-sdk\src\wolfSSL\wolfcrypt\src/aes.c ****     #ifdef WOLFSSL_AESNI
2452:..\kronos-c-sdk\src\wolfSSL\wolfcrypt\src/aes.c ****         if (haveAESNI) {
2453:..\kronos-c-sdk\src\wolfSSL\wolfcrypt\src/aes.c ****             #ifdef DEBUG_AESNI
2454:..\kronos-c-sdk\src\wolfSSL\wolfcrypt\src/aes.c ****                 printf("about to aes cbc decrypt\n");
2455:..\kronos-c-sdk\src\wolfSSL\wolfcrypt\src/aes.c ****                 printf("in  = %p\n", in);
2456:..\kronos-c-sdk\src\wolfSSL\wolfcrypt\src/aes.c ****                 printf("out = %p\n", out);
2457:..\kronos-c-sdk\src\wolfSSL\wolfcrypt\src/aes.c ****                 printf("aes->key = %p\n", aes->key);
2458:..\kronos-c-sdk\src\wolfSSL\wolfcrypt\src/aes.c ****                 printf("aes->reg = %p\n", aes->reg);
2459:..\kronos-c-sdk\src\wolfSSL\wolfcrypt\src/aes.c ****                 printf("aes->rounds = %d\n", aes->rounds);
ARM GAS  C:\Users\ddemidov\AppData\Local\Temp\ccTwWFqA.s 			page 106


2460:..\kronos-c-sdk\src\wolfSSL\wolfcrypt\src/aes.c ****                 printf("sz = %d\n", sz);
2461:..\kronos-c-sdk\src\wolfSSL\wolfcrypt\src/aes.c ****             #endif
2462:..\kronos-c-sdk\src\wolfSSL\wolfcrypt\src/aes.c **** 
2463:..\kronos-c-sdk\src\wolfSSL\wolfcrypt\src/aes.c ****             /* if input and output same will overwrite input iv */
2464:..\kronos-c-sdk\src\wolfSSL\wolfcrypt\src/aes.c ****             XMEMCPY(aes->tmp, in + sz - AES_BLOCK_SIZE, AES_BLOCK_SIZE);
2465:..\kronos-c-sdk\src\wolfSSL\wolfcrypt\src/aes.c ****             AES_CBC_decrypt(in, out, (byte*)aes->reg, sz, (byte*)aes->key,
2466:..\kronos-c-sdk\src\wolfSSL\wolfcrypt\src/aes.c ****                             aes->rounds);
2467:..\kronos-c-sdk\src\wolfSSL\wolfcrypt\src/aes.c ****             /* store iv for next call */
2468:..\kronos-c-sdk\src\wolfSSL\wolfcrypt\src/aes.c ****             XMEMCPY(aes->reg, aes->tmp, AES_BLOCK_SIZE);
2469:..\kronos-c-sdk\src\wolfSSL\wolfcrypt\src/aes.c ****             return 0;
2470:..\kronos-c-sdk\src\wolfSSL\wolfcrypt\src/aes.c ****         }
2471:..\kronos-c-sdk\src\wolfSSL\wolfcrypt\src/aes.c ****     #endif
2472:..\kronos-c-sdk\src\wolfSSL\wolfcrypt\src/aes.c **** 
2473:..\kronos-c-sdk\src\wolfSSL\wolfcrypt\src/aes.c ****         while (blocks--) {
 3111              		.loc 1 2473 0
 3112 0010 30E0     		b	.L60
 3113              	.LVL254:
 3114              	.L66:
2474:..\kronos-c-sdk\src\wolfSSL\wolfcrypt\src/aes.c ****             XMEMCPY(aes->tmp, in, AES_BLOCK_SIZE);
 3115              		.loc 1 2474 0
 3116 0012 7B1D     		add	r3, r7, #5
 3117 0014 FF33     		add	r3, r3, #255
 3118 0016 1C1C     		mov	r4, r3
 3119 0018 0193     		str	r3, [sp, #4]
 3120 001a 181C     		mov	r0, r3
 3121 001c 311C     		mov	r1, r6
 3122 001e 1022     		mov	r2, #16
 3123              	.LVL255:
 3124 0020 FFF7FEFF 		bl	memcpy
 3125              	.LVL256:
2475:..\kronos-c-sdk\src\wolfSSL\wolfcrypt\src/aes.c ****             wc_AesDecrypt(aes, (byte*)aes->tmp, out);
 3126              		.loc 1 2475 0
 3127 0024 381C     		mov	r0, r7
 3128 0026 211C     		mov	r1, r4
 3129 0028 2A1C     		mov	r2, r5
 3130 002a FFF7FEFF 		bl	wc_AesDecrypt
 3131              	.LVL257:
2476:..\kronos-c-sdk\src\wolfSSL\wolfcrypt\src/aes.c ****             xorbuf(out, (byte*)aes->reg, AES_BLOCK_SIZE);
 3132              		.loc 1 2476 0
 3133 002e 381C     		mov	r0, r7
 3134 0030 F430     		add	r0, r0, #244
 3135              	.LVL258:
 3136              	.LBB168:
 3137              	.LBB169:
 165:..\kronos-c-sdk\src\wolfSSL\wolfcrypt\src/misc.c ****         XorWords( (wolfssl_word*)buf,
 3138              		.loc 2 165 0
 3139 0032 2B1C     		mov	r3, r5
 3140 0034 0343     		orr	r3, r0
 3141 0036 9B07     		lsl	r3, r3, #30
 3142 0038 09D0     		beq	.L67
 3143 003a 0023     		mov	r3, #0
 3144 003c 11E0     		b	.L62
 3145              	.LVL259:
 3146              	.L63:
 3147              	.LBB170:
 3148              	.LBB171:
 159:..\kronos-c-sdk\src\wolfSSL\wolfcrypt\src/misc.c **** }
ARM GAS  C:\Users\ddemidov\AppData\Local\Temp\ccTwWFqA.s 			page 107


 3149              		.loc 2 159 0
 3150 003e 9A00     		lsl	r2, r3, #2
 3151 0040 A918     		add	r1, r5, r2
 3152 0042 8258     		ldr	r2, [r0, r2]
 3153 0044 0C68     		ldr	r4, [r1]
 3154 0046 6240     		eor	r2, r4
 3155 0048 0A60     		str	r2, [r1]
 3156 004a 0133     		add	r3, r3, #1
 3157              	.LVL260:
 3158 004c 00E0     		b	.L61
 3159              	.LVL261:
 3160              	.L67:
 3161 004e 0023     		mov	r3, #0
 3162              	.L61:
 3163              	.LVL262:
 3164 0050 032B     		cmp	r3, #3
 3165 0052 F4D9     		bls	.L63
 3166 0054 07E0     		b	.L64
 3167              	.LVL263:
 3168              	.L65:
 3169              	.LBE171:
 3170              	.LBE170:
 3171              	.LBB172:
 3172              		.loc 2 173 0
 3173 0056 E918     		add	r1, r5, r3
 3174 0058 C45C     		ldrb	r4, [r0, r3]
 3175 005a 0A78     		ldrb	r2, [r1]
 3176 005c 6240     		eor	r2, r4
 3177 005e 0A70     		strb	r2, [r1]
 3178 0060 0133     		add	r3, r3, #1
 3179              	.LVL264:
 3180              	.L62:
 3181 0062 0F2B     		cmp	r3, #15
 3182 0064 F7D9     		bls	.L65
 3183              	.LVL265:
 3184              	.L64:
 3185              	.LBE172:
 3186              	.LBE169:
 3187              	.LBE168:
2477:..\kronos-c-sdk\src\wolfSSL\wolfcrypt\src/aes.c ****             XMEMCPY(aes->reg, aes->tmp, AES_BLOCK_SIZE);
 3188              		.loc 1 2477 0
 3189 0066 0199     		ldr	r1, [sp, #4]
 3190 0068 1022     		mov	r2, #16
 3191 006a FFF7FEFF 		bl	memcpy
 3192              	.LVL266:
2478:..\kronos-c-sdk\src\wolfSSL\wolfcrypt\src/aes.c **** 
2479:..\kronos-c-sdk\src\wolfSSL\wolfcrypt\src/aes.c ****             out += AES_BLOCK_SIZE;
 3193              		.loc 1 2479 0
 3194 006e 1035     		add	r5, r5, #16
 3195              	.LVL267:
2480:..\kronos-c-sdk\src\wolfSSL\wolfcrypt\src/aes.c ****             in  += AES_BLOCK_SIZE;
 3196              		.loc 1 2480 0
 3197 0070 1036     		add	r6, r6, #16
 3198              	.LVL268:
2473:..\kronos-c-sdk\src\wolfSSL\wolfcrypt\src/aes.c ****             XMEMCPY(aes->tmp, in, AES_BLOCK_SIZE);
 3199              		.loc 1 2473 0
 3200 0072 4346     		mov	r3, r8
ARM GAS  C:\Users\ddemidov\AppData\Local\Temp\ccTwWFqA.s 			page 108


 3201              	.LVL269:
 3202              	.L60:
 3203 0074 5A1E     		sub	r2, r3, #1
 3204 0076 9046     		mov	r8, r2
 3205              	.LVL270:
 3206 0078 002B     		cmp	r3, #0
 3207 007a CAD1     		bne	.L66
2481:..\kronos-c-sdk\src\wolfSSL\wolfcrypt\src/aes.c ****         }
2482:..\kronos-c-sdk\src\wolfSSL\wolfcrypt\src/aes.c **** 
2483:..\kronos-c-sdk\src\wolfSSL\wolfcrypt\src/aes.c ****         return 0;
2484:..\kronos-c-sdk\src\wolfSSL\wolfcrypt\src/aes.c ****     }
 3208              		.loc 1 2484 0
 3209 007c 0020     		mov	r0, #0
 3210 007e 02B0     		add	sp, sp, #8
 3211              		@ sp needed
 3212              	.LVL271:
 3213              	.LVL272:
 3214              	.LVL273:
 3215 0080 04BC     		pop	{r2}
 3216 0082 9046     		mov	r8, r2
 3217 0084 F0BD     		pop	{r4, r5, r6, r7, pc}
 3218              		.cfi_endproc
 3219              	.LFE18:
 3220              		.size	wc_AesCbcDecrypt, .-wc_AesCbcDecrypt
 3221 0086 C046     		.section	.rodata
 3222              		.align	2
 3223              		.set	.LANCHOR0,. + 0
 3224              		.set	.LANCHOR1,. + 5120
 3225              		.set	.LANCHOR2,. + 10240
 3226              		.type	Te, %object
 3227              		.size	Te, 5120
 3228              	Te:
 3229 0000 A56363C6 		.word	-966564955
 3230 0004 847C7CF8 		.word	-126059388
 3231 0008 997777EE 		.word	-294160487
 3232 000c 8D7B7BF6 		.word	-159679603
 3233 0010 0DF2F2FF 		.word	-855539
 3234 0014 BD6B6BD6 		.word	-697603139
 3235 0018 B16F6FDE 		.word	-563122255
 3236 001c 54C5C591 		.word	-1849309868
 3237 0020 50303060 		.word	1613770832
 3238 0024 03010102 		.word	33620227
 3239 0028 A96767CE 		.word	-832084055
 3240 002c 7D2B2B56 		.word	1445669757
 3241 0030 19FEFEE7 		.word	-402719207
 3242 0034 62D7D7B5 		.word	-1244145822
 3243 0038 E6ABAB4D 		.word	1303096294
 3244 003c 9A7676EC 		.word	-327780710
 3245 0040 45CACA8F 		.word	-1882535355
 3246 0044 9D82821F 		.word	528646813
 3247 0048 40C9C989 		.word	-1983264448
 3248 004c 877D7DFA 		.word	-92439161
 3249 0050 15FAFAEF 		.word	-268764651
 3250 0054 EB5959B2 		.word	-1302767125
 3251 0058 C947478E 		.word	-1907931191
 3252 005c 0BF0F0FB 		.word	-68095989
 3253 0060 ECADAD41 		.word	1101901292
ARM GAS  C:\Users\ddemidov\AppData\Local\Temp\ccTwWFqA.s 			page 109


 3254 0064 67D4D4B3 		.word	-1277897625
 3255 0068 FDA2A25F 		.word	1604494077
 3256 006c EAAFAF45 		.word	1169141738
 3257 0070 BF9C9C23 		.word	597466303
 3258 0074 F7A4A453 		.word	1403299063
 3259 0078 967272E4 		.word	-462261610
 3260 007c 5BC0C09B 		.word	-1681866661
 3261 0080 C2B7B775 		.word	1974974402
 3262 0084 1CFDFDE1 		.word	-503448292
 3263 0088 AE93933D 		.word	1033081774
 3264 008c 6A26264C 		.word	1277568618
 3265 0090 5A36366C 		.word	1815492186
 3266 0094 413F3F7E 		.word	2118074177
 3267 0098 02F7F7F5 		.word	-168298750
 3268 009c 4FCCCC83 		.word	-2083730353
 3269 00a0 5C343468 		.word	1748251740
 3270 00a4 F4A5A551 		.word	1369810420
 3271 00a8 34E5E5D1 		.word	-773462732
 3272 00ac 08F1F1F9 		.word	-101584632
 3273 00b0 937171E2 		.word	-495881837
 3274 00b4 73D8D8AB 		.word	-1411852173
 3275 00b8 53313162 		.word	1647391059
 3276 00bc 3F15152A 		.word	706024767
 3277 00c0 0C040408 		.word	134480908
 3278 00c4 52C7C795 		.word	-1782069422
 3279 00c8 65232346 		.word	1176707941
 3280 00cc 5EC3C39D 		.word	-1648114850
 3281 00d0 28181830 		.word	806885416
 3282 00d4 A1969637 		.word	932615841
 3283 00d8 0F05050A 		.word	168101135
 3284 00dc B59A9A2F 		.word	798661301
 3285 00e0 0907070E 		.word	235341577
 3286 00e4 36121224 		.word	605164086
 3287 00e8 9B80801B 		.word	461406363
 3288 00ec 3DE2E2DF 		.word	-538779075
 3289 00f0 26EBEBCD 		.word	-840176858
 3290 00f4 6927274E 		.word	1311188841
 3291 00f8 CDB2B27F 		.word	2142417613
 3292 00fc 9F7575EA 		.word	-361400929
 3293 0100 1B090912 		.word	302582043
 3294 0104 9E83831D 		.word	495158174
 3295 0108 742C2C58 		.word	1479289972
 3296 010c 2E1A1A34 		.word	874125870
 3297 0110 2D1B1B36 		.word	907746093
 3298 0114 B26E6EDC 		.word	-596742478
 3299 0118 EE5A5AB4 		.word	-1269146898
 3300 011c FBA0A05B 		.word	1537253627
 3301 0120 F65252A4 		.word	-1538108682
 3302 0124 4D3B3B76 		.word	1983593293
 3303 0128 61D6D6B7 		.word	-1210657183
 3304 012c CEB3B37D 		.word	2108928974
 3305 0130 7B292952 		.word	1378429307
 3306 0134 3EE3E3DD 		.word	-572267714
 3307 0138 712F2F5E 		.word	1580150641
 3308 013c 97848413 		.word	327451799
 3309 0140 F55353A6 		.word	-1504488459
 3310 0144 68D1D1B9 		.word	-1177431704
ARM GAS  C:\Users\ddemidov\AppData\Local\Temp\ccTwWFqA.s 			page 110


 3311 0148 00000000 		.word	0
 3312 014c 2CEDEDC1 		.word	-1041371860
 3313 0150 60202040 		.word	1075847264
 3314 0154 1FFCFCE3 		.word	-469959649
 3315 0158 C8B1B179 		.word	2041688520
 3316 015c ED5B5BB6 		.word	-1235526675
 3317 0160 BE6A6AD4 		.word	-731223362
 3318 0164 46CBCB8D 		.word	-1916023994
 3319 0168 D9BEBE67 		.word	1740553945
 3320 016c 4B393972 		.word	1916352843
 3321 0170 DE4A4A94 		.word	-1807070498
 3322 0174 D44C4C98 		.word	-1739830060
 3323 0178 E85858B0 		.word	-1336387352
 3324 017c 4ACFCF85 		.word	-2049978550
 3325 0180 6BD0D0BB 		.word	-1143943061
 3326 0184 2AEFEFC5 		.word	-974131414
 3327 0188 E5AAAA4F 		.word	1336584933
 3328 018c 16FBFBED 		.word	-302253290
 3329 0190 C5434386 		.word	-2042412091
 3330 0194 D74D4D9A 		.word	-1706209833
 3331 0198 55333366 		.word	1714631509
 3332 019c 94858511 		.word	293963156
 3333 01a0 CF45458A 		.word	-1975171633
 3334 01a4 10F9F9E9 		.word	-369493744
 3335 01a8 06020204 		.word	67240454
 3336 01ac 817F7FFE 		.word	-25198719
 3337 01b0 F05050A0 		.word	-1605349136
 3338 01b4 443C3C78 		.word	2017213508
 3339 01b8 BA9F9F25 		.word	631218106
 3340 01bc E3A8A84B 		.word	1269344483
 3341 01c0 F35151A2 		.word	-1571728909
 3342 01c4 FEA3A35D 		.word	1571005438
 3343 01c8 C0404080 		.word	-2143272768
 3344 01cc 8A8F8F05 		.word	93294474
 3345 01d0 AD92923F 		.word	1066570413
 3346 01d4 BC9D9D21 		.word	563977660
 3347 01d8 48383870 		.word	1882732616
 3348 01dc 04F5F5F1 		.word	-235539196
 3349 01e0 DFBCBC63 		.word	1673313503
 3350 01e4 C1B6B677 		.word	2008463041
 3351 01e8 75DADAAF 		.word	-1344611723
 3352 01ec 63212142 		.word	1109467491
 3353 01f0 30101020 		.word	537923632
 3354 01f4 1AFFFFE5 		.word	-436207846
 3355 01f8 0EF3F3FD 		.word	-34344178
 3356 01fc 6DD2D2BF 		.word	-1076702611
 3357 0200 4CCDCD81 		.word	-2117218996
 3358 0204 140C0C18 		.word	403442708
 3359 0208 35131326 		.word	638784309
 3360 020c 2FECECC3 		.word	-1007883217
 3361 0210 E15F5FBE 		.word	-1101045791
 3362 0214 A2979735 		.word	899127202
 3363 0218 CC444488 		.word	-2008791860
 3364 021c 3917172E 		.word	773265209
 3365 0220 57C4C493 		.word	-1815821225
 3366 0224 F2A7A755 		.word	1437050866
 3367 0228 827E7EFC 		.word	-58818942
ARM GAS  C:\Users\ddemidov\AppData\Local\Temp\ccTwWFqA.s 			page 111


 3368 022c 473D3D7A 		.word	2050833735
 3369 0230 AC6464C8 		.word	-932944724
 3370 0234 E75D5DBA 		.word	-1168286233
 3371 0238 2B191932 		.word	840505643
 3372 023c 957373E6 		.word	-428641387
 3373 0240 A06060C0 		.word	-1067425632
 3374 0244 98818119 		.word	427917720
 3375 0248 D14F4F9E 		.word	-1638969391
 3376 024c 7FDCDCA3 		.word	-1545806721
 3377 0250 66222244 		.word	1143087718
 3378 0254 7E2A2A54 		.word	1412049534
 3379 0258 AB90903B 		.word	999329963
 3380 025c 8388880B 		.word	193497219
 3381 0260 CA46468C 		.word	-1941551414
 3382 0264 29EEEEC7 		.word	-940642775
 3383 0268 D3B8B86B 		.word	1807268051
 3384 026c 3C141428 		.word	672404540
 3385 0270 79DEDEA7 		.word	-1478566279
 3386 0274 E25E5EBC 		.word	-1134666014
 3387 0278 1D0B0B16 		.word	369822493
 3388 027c 76DBDBAD 		.word	-1378100362
 3389 0280 3BE0E0DB 		.word	-606019525
 3390 0284 56323264 		.word	1681011286
 3391 0288 4E3A3A74 		.word	1949973070
 3392 028c 1E0A0A14 		.word	336202270
 3393 0290 DB494992 		.word	-1840690725
 3394 0294 0A06060C 		.word	201721354
 3395 0298 6C242448 		.word	1210328172
 3396 029c E45C5CB8 		.word	-1201906460
 3397 02a0 5DC2C29F 		.word	-1614626211
 3398 02a4 6ED3D3BD 		.word	-1110191250
 3399 02a8 EFACAC43 		.word	1135389935
 3400 02ac A66262C4 		.word	-1000185178
 3401 02b0 A8919139 		.word	965841320
 3402 02b4 A4959531 		.word	831886756
 3403 02b8 37E4E4D3 		.word	-739974089
 3404 02bc 8B7979F2 		.word	-226920053
 3405 02c0 32E7E7D5 		.word	-706222286
 3406 02c4 43C8C88B 		.word	-1949775805
 3407 02c8 5937376E 		.word	1849112409
 3408 02cc B76D6DDA 		.word	-630362697
 3409 02d0 8C8D8D01 		.word	26054028
 3410 02d4 64D5D5B1 		.word	-1311386268
 3411 02d8 D24E4E9C 		.word	-1672589614
 3412 02dc E0A9A949 		.word	1235855840
 3413 02e0 B46C6CD8 		.word	-663982924
 3414 02e4 FA5656AC 		.word	-1403627782
 3415 02e8 07F4F4F3 		.word	-202050553
 3416 02ec 25EAEACF 		.word	-806688219
 3417 02f0 AF6565CA 		.word	-899324497
 3418 02f4 8E7A7AF4 		.word	-193299826
 3419 02f8 E9AEAE47 		.word	1202630377
 3420 02fc 18080810 		.word	268961816
 3421 0300 D5BABA6F 		.word	1874508501
 3422 0304 887878F0 		.word	-260540280
 3423 0308 6F25254A 		.word	1243948399
 3424 030c 722E2E5C 		.word	1546530418
ARM GAS  C:\Users\ddemidov\AppData\Local\Temp\ccTwWFqA.s 			page 112


 3425 0310 241C1C38 		.word	941366308
 3426 0314 F1A6A657 		.word	1470539505
 3427 0318 C7B4B473 		.word	1941222599
 3428 031c 51C6C697 		.word	-1748580783
 3429 0320 23E8E8CB 		.word	-873928669
 3430 0324 7CDDDDA1 		.word	-1579295364
 3431 0328 9C7474E8 		.word	-395021156
 3432 032c 211F1F3E 		.word	1042226977
 3433 0330 DD4B4B96 		.word	-1773450275
 3434 0334 DCBDBD61 		.word	1639824860
 3435 0338 868B8B0D 		.word	227249030
 3436 033c 858A8A0F 		.word	260737669
 3437 0340 907070E0 		.word	-529502064
 3438 0344 423E3E7C 		.word	2084453954
 3439 0348 C4B5B571 		.word	1907733956
 3440 034c AA6666CC 		.word	-865704278
 3441 0350 D8484890 		.word	-1874310952
 3442 0354 05030306 		.word	100860677
 3443 0358 01F6F6F7 		.word	-134810111
 3444 035c 120E0E1C 		.word	470683154
 3445 0360 A36161C2 		.word	-1033805405
 3446 0364 5F35356A 		.word	1781871967
 3447 0368 F95757AE 		.word	-1370007559
 3448 036c D0B9B969 		.word	1773779408
 3449 0370 91868617 		.word	394692241
 3450 0374 58C1C199 		.word	-1715355304
 3451 0378 271D1D3A 		.word	974986535
 3452 037c B99E9E27 		.word	664706745
 3453 0380 38E1E1D9 		.word	-639508168
 3454 0384 13F8F8EB 		.word	-336005101
 3455 0388 B398982B 		.word	731420851
 3456 038c 33111122 		.word	571543859
 3457 0390 BB6969D2 		.word	-764843589
 3458 0394 70D9D9A9 		.word	-1445340816
 3459 0398 898E8E07 		.word	126783113
 3460 039c A7949433 		.word	865375399
 3461 03a0 B69B9B2D 		.word	765172662
 3462 03a4 221E1E3C 		.word	1008606754
 3463 03a8 92878715 		.word	361203602
 3464 03ac 20E9E9C9 		.word	-907417312
 3465 03b0 49CECE87 		.word	-2016489911
 3466 03b4 FF5555AA 		.word	-1437248001
 3467 03b8 78282850 		.word	1344809080
 3468 03bc 7ADFDFA5 		.word	-1512054918
 3469 03c0 8F8C8C03 		.word	59542671
 3470 03c4 F8A1A159 		.word	1503764984
 3471 03c8 80898909 		.word	160008576
 3472 03cc 170D0D1A 		.word	437062935
 3473 03d0 DABFBF65 		.word	1707065306
 3474 03d4 31E6E6D7 		.word	-672733647
 3475 03d8 C6424284 		.word	-2076032314
 3476 03dc B86868D0 		.word	-798463816
 3477 03e0 C3414182 		.word	-2109652541
 3478 03e4 B0999929 		.word	697932208
 3479 03e8 772D2D5A 		.word	1512910199
 3480 03ec 110F0F1E 		.word	504303377
 3481 03f0 CBB0B07B 		.word	2075177163
ARM GAS  C:\Users\ddemidov\AppData\Local\Temp\ccTwWFqA.s 			page 113


 3482 03f4 FC5454A8 		.word	-1470868228
 3483 03f8 D6BBBB6D 		.word	1841019862
 3484 03fc 3A16162C 		.word	739644986
 3485 0400 6363C6A5 		.word	-1513725085
 3486 0404 7C7CF884 		.word	-2064089988
 3487 0408 7777EE99 		.word	-1712425097
 3488 040c 7B7BF68D 		.word	-1913226373
 3489 0410 F2F2FF0D 		.word	234877682
 3490 0414 6B6BD6BD 		.word	-1110021269
 3491 0418 6F6FDEB1 		.word	-1310822545
 3492 041c C5C59154 		.word	1418839493
 3493 0420 30306050 		.word	1348481072
 3494 0424 01010203 		.word	50462977
 3495 0428 6767CEA9 		.word	-1446090905
 3496 042c 2B2B567D 		.word	2102799147
 3497 0430 FEFEE719 		.word	434634494
 3498 0434 D7D7B562 		.word	1656084439
 3499 0438 ABAB4DE6 		.word	-431117397
 3500 043c 7676EC9A 		.word	-1695779210
 3501 0440 CACA8F45 		.word	1167051466
 3502 0444 82821F9D 		.word	-1658879358
 3503 0448 C9C98940 		.word	1082771913
 3504 044c 7D7DFA87 		.word	-2013627011
 3505 0450 FAFAEF15 		.word	368048890
 3506 0454 5959B2EB 		.word	-340633255
 3507 0458 47478EC9 		.word	-913422521
 3508 045c F0F0FB0B 		.word	201060592
 3509 0460 ADAD41EC 		.word	-331240019
 3510 0464 D4D4B367 		.word	1739838676
 3511 0468 A2A25FFD 		.word	-44064094
 3512 046c AFAF45EA 		.word	-364531793
 3513 0470 9C9C23BF 		.word	-1088185188
 3514 0474 A4A453F7 		.word	-145513308
 3515 0478 7272E496 		.word	-1763413390
 3516 047c C0C09B5B 		.word	1536934080
 3517 0480 B7B775C2 		.word	-1032472649
 3518 0484 FDFDE11C 		.word	484572669
 3519 0488 93933DAE 		.word	-1371696237
 3520 048c 26264C6A 		.word	1783375398
 3521 0490 36366C5A 		.word	1517041206
 3522 0494 3F3F7E41 		.word	1098792767
 3523 0498 F7F7F502 		.word	49674231
 3524 049c CCCC834F 		.word	1334037708
 3525 04a0 3434685C 		.word	1550332980
 3526 04a4 A5A551F4 		.word	-195975771
 3527 04a8 E5E5D134 		.word	886171109
 3528 04ac F1F1F908 		.word	150598129
 3529 04b0 7171E293 		.word	-1813876367
 3530 04b4 D8D8AB73 		.word	1940642008
 3531 04b8 31316253 		.word	1398944049
 3532 04bc 15152A3F 		.word	1059722517
 3533 04c0 0404080C 		.word	201851908
 3534 04c4 C7C79552 		.word	1385547719
 3535 04c8 23234665 		.word	1699095331
 3536 04cc C3C39D5E 		.word	1587397571
 3537 04d0 18183028 		.word	674240536
 3538 04d4 969637A1 		.word	-1590192490
ARM GAS  C:\Users\ddemidov\AppData\Local\Temp\ccTwWFqA.s 			page 114


 3539 04d8 05050A0F 		.word	252314885
 3540 04dc 9A9A2FB5 		.word	-1255171430
 3541 04e0 07070E09 		.word	151914247
 3542 04e4 12122436 		.word	908333586
 3543 04e8 80801B9B 		.word	-1692696448
 3544 04ec E2E2DF3D 		.word	1038082786
 3545 04f0 EBEBCD26 		.word	651029483
 3546 04f4 27274E69 		.word	1766729511
 3547 04f8 B2B27FCD 		.word	-847269198
 3548 04fc 7575EA9F 		.word	-1612024459
 3549 0500 0909121B 		.word	454166793
 3550 0504 83831D9E 		.word	-1642232957
 3551 0508 2C2C5874 		.word	1951935532
 3552 050c 1A1A342E 		.word	775166490
 3553 0510 1B1B362D 		.word	758520603
 3554 0514 6E6EDCB2 		.word	-1294176658
 3555 0518 5A5AB4EE 		.word	-290170278
 3556 051c A0A05BFB 		.word	-77881184
 3557 0520 5252A4F6 		.word	-157003182
 3558 0524 3B3B764D 		.word	1299594043
 3559 0528 D6D6B761 		.word	1639438038
 3560 052c B3B37DCE 		.word	-830622797
 3561 0530 2929527B 		.word	2068982057
 3562 0534 E3E3DD3E 		.word	1054729187
 3563 0538 2F2F5E71 		.word	1901997871
 3564 053c 84841397 		.word	-1760328572
 3565 0540 5353A6F5 		.word	-173649069
 3566 0544 D1D1B968 		.word	1757008337
 3567 0548 00000000 		.word	0
 3568 054c EDEDC12C 		.word	750906861
 3569 0550 20204060 		.word	1614815264
 3570 0554 FCFCE31F 		.word	535035132
 3571 0558 B1B179C8 		.word	-931548751
 3572 055c 5B5BB6ED 		.word	-306816165
 3573 0560 6A6AD4BE 		.word	-1093375382
 3574 0564 CBCB8D46 		.word	1183697867
 3575 0568 BEBE67D9 		.word	-647512386
 3576 056c 3939724B 		.word	1265776953
 3577 0570 4A4A94DE 		.word	-560706998
 3578 0574 4C4C98D4 		.word	-728216500
 3579 0578 5858B0E8 		.word	-391096232
 3580 057c CFCF854A 		.word	1250283471
 3581 0580 D0D0BB6B 		.word	1807470800
 3582 0584 EFEFC52A 		.word	717615087
 3583 0588 AAAA4FE5 		.word	-447763798
 3584 058c FBFBED16 		.word	384695291
 3585 0590 434386C5 		.word	-981056701
 3586 0594 4D4D9AD7 		.word	-677753523
 3587 0598 33336655 		.word	1432761139
 3588 059c 85851194 		.word	-1810791035
 3589 05a0 45458ACF 		.word	-813021883
 3590 05a4 F9F9E910 		.word	283769337
 3591 05a8 02020406 		.word	100925954
 3592 05ac 7F7FFE81 		.word	-2114027649
 3593 05b0 5050A0F0 		.word	-257929136
 3594 05b4 3C3C7844 		.word	1148730428
 3595 05b8 9F9F25BA 		.word	-1171939425
ARM GAS  C:\Users\ddemidov\AppData\Local\Temp\ccTwWFqA.s 			page 115


 3596 05bc A8A84BE3 		.word	-481580888
 3597 05c0 5151A2F3 		.word	-207466159
 3598 05c4 A3A35DFE 		.word	-27417693
 3599 05c8 404080C0 		.word	-1065336768
 3600 05cc 8F8F058A 		.word	-1979347057
 3601 05d0 92923FAD 		.word	-1388342638
 3602 05d4 9D9D21BC 		.word	-1138647651
 3603 05d8 38387048 		.word	1215313976
 3604 05dc F5F5F104 		.word	82966005
 3605 05e0 BCBC63DF 		.word	-547111748
 3606 05e4 B6B677C1 		.word	-1049119050
 3607 05e8 DADAAF75 		.word	1974459098
 3608 05ec 21214263 		.word	1665278241
 3609 05f0 10102030 		.word	807407632
 3610 05f4 FFFFE51A 		.word	451280895
 3611 05f8 F3F3FD0E 		.word	251524083
 3612 05fc D2D2BF6D 		.word	1841287890
 3613 0600 CDCD814C 		.word	1283575245
 3614 0604 0C0C1814 		.word	337120268
 3615 0608 13132635 		.word	891687699
 3616 060c ECECC32F 		.word	801369324
 3617 0610 5F5FBEE1 		.word	-507617441
 3618 0614 979735A2 		.word	-1573546089
 3619 0618 444488CC 		.word	-863484860
 3620 061c 17172E39 		.word	959321879
 3621 0620 C4C49357 		.word	1469301956
 3622 0624 A7A755F2 		.word	-229267545
 3623 0628 7E7EFC82 		.word	-2097381762
 3624 062c 3D3D7A47 		.word	1199193405
 3625 0630 6464C8AC 		.word	-1396153244
 3626 0634 5D5DBAE7 		.word	-407216803
 3627 0638 1919322B 		.word	724703513
 3628 063c 7373E695 		.word	-1780059277
 3629 0640 6060C0A0 		.word	-1598005152
 3630 0644 81811998 		.word	-1743158911
 3631 0648 4F4F9ED1 		.word	-778154161
 3632 064c DCDCA37F 		.word	2141445340
 3633 0650 22224466 		.word	1715741218
 3634 0654 2A2A547E 		.word	2119445034
 3635 0658 90903BAB 		.word	-1422159728
 3636 065c 88880B83 		.word	-2096396152
 3637 0660 46468CCA 		.word	-896776634
 3638 0664 EEEEC729 		.word	700968686
 3639 0668 B8B86BD3 		.word	-747915080
 3640 066c 1414283C 		.word	1009259540
 3641 0670 DEDEA779 		.word	2041044702
 3642 0674 5E5EBCE2 		.word	-490971554
 3643 0678 0B0B161D 		.word	487983883
 3644 067c DBDBAD76 		.word	1991105499
 3645 0680 E0E0DB3B 		.word	1004265696
 3646 0684 32326456 		.word	1449407026
 3647 0688 3A3A744E 		.word	1316239930
 3648 068c 0A0A141E 		.word	504629770
 3649 0690 494992DB 		.word	-611169975
 3650 0694 06060C0A 		.word	168560134
 3651 0698 2424486C 		.word	1816667172
 3652 069c 5C5CB8E4 		.word	-457679780
ARM GAS  C:\Users\ddemidov\AppData\Local\Temp\ccTwWFqA.s 			page 116


 3653 06a0 C2C29F5D 		.word	1570751170
 3654 06a4 D3D3BD6E 		.word	1857934291
 3655 06a8 ACAC43EF 		.word	-280777556
 3656 06ac 6262C4A6 		.word	-1497079198
 3657 06b0 919139A8 		.word	-1472622191
 3658 06b4 959531A4 		.word	-1540254315
 3659 06b8 E4E4D337 		.word	936633572
 3660 06bc 7979F28B 		.word	-1947043463
 3661 06c0 E7E7D532 		.word	852879335
 3662 06c4 C8C88B43 		.word	1133234376
 3663 06c8 37376E59 		.word	1500395319
 3664 06cc 6D6DDAB7 		.word	-1210421907
 3665 06d0 8D8D018C 		.word	-1946055283
 3666 06d4 D5D5B164 		.word	1689376213
 3667 06d8 4E4E9CD2 		.word	-761508274
 3668 06dc A9A949E0 		.word	-532043351
 3669 06e0 6C6CD8B4 		.word	-1260884884
 3670 06e4 5656ACFA 		.word	-89369002
 3671 06e8 F4F4F307 		.word	133428468
 3672 06ec EAEACF25 		.word	634383082
 3673 06f0 6565CAAF 		.word	-1345690267
 3674 06f4 7A7AF48E 		.word	-1896580486
 3675 06f8 AEAE47E9 		.word	-381178194
 3676 06fc 08081018 		.word	403703816
 3677 0700 BABA6FD5 		.word	-714097990
 3678 0704 7878F088 		.word	-1997506440
 3679 0708 25254A6F 		.word	1867130149
 3680 070c 2E2E5C72 		.word	1918643758
 3681 0710 1C1C3824 		.word	607656988
 3682 0714 A6A657F1 		.word	-245913946
 3683 0718 B4B473C7 		.word	-948718412
 3684 071c C6C69751 		.word	1368901318
 3685 0720 E8E8CB23 		.word	600565992
 3686 0724 DDDDA17C 		.word	2090982877
 3687 0728 7474E89C 		.word	-1662487436
 3688 072c 1F1F3E21 		.word	557719327
 3689 0730 4B4B96DD 		.word	-577352885
 3690 0734 BDBD61DC 		.word	-597574211
 3691 0738 8B8B0D86 		.word	-2045932661
 3692 073c 8A8A0F85 		.word	-2062579062
 3693 0740 7070E090 		.word	-1864339344
 3694 0744 3E3E7C42 		.word	1115438654
 3695 0748 B5B571C4 		.word	-999180875
 3696 074c 6666CCAA 		.word	-1429445018
 3697 0750 484890D8 		.word	-661632952
 3698 0754 03030605 		.word	84280067
 3699 0758 F6F6F701 		.word	33027830
 3700 075c 0E0E1C12 		.word	303828494
 3701 0760 6161C2A3 		.word	-1547542175
 3702 0764 35356A5F 		.word	1600795957
 3703 0768 5757AEF9 		.word	-106014889
 3704 076c B9B969D0 		.word	-798377543
 3705 0770 86861791 		.word	-1860729210
 3706 0774 C1C19958 		.word	1486471617
 3707 0778 1D1D3A27 		.word	658119965
 3708 077c 9E9E27B9 		.word	-1188585826
 3709 0780 E1E1D938 		.word	953803233
ARM GAS  C:\Users\ddemidov\AppData\Local\Temp\ccTwWFqA.s 			page 117


 3710 0784 F8F8EB13 		.word	334231800
 3711 0788 98982BB3 		.word	-1288988520
 3712 078c 11112233 		.word	857870609
 3713 0790 6969D2BB 		.word	-1143838359
 3714 0794 D9D9A970 		.word	1890179545
 3715 0798 8E8E0789 		.word	-1995993458
 3716 079c 949433A7 		.word	-1489791852
 3717 07a0 9B9B2DB6 		.word	-1238525029
 3718 07a4 1E1E3C22 		.word	574365214
 3719 07a8 87871592 		.word	-1844082809
 3720 07ac E9E9C920 		.word	550103529
 3721 07b0 CECE8749 		.word	1233637070
 3722 07b4 5555AAFF 		.word	-5614251
 3723 07b8 28285078 		.word	2018519080
 3724 07bc DFDFA57A 		.word	2057691103
 3725 07c0 8C8C038F 		.word	-1895592820
 3726 07c4 A1A159F8 		.word	-128343647
 3727 07c8 89890980 		.word	-2146858615
 3728 07cc 0D0D1A17 		.word	387583245
 3729 07d0 BFBF65DA 		.word	-630865985
 3730 07d4 E6E6D731 		.word	836232934
 3731 07d8 424284C6 		.word	-964410814
 3732 07dc 6868D0B8 		.word	-1194301336
 3733 07e0 414182C3 		.word	-1014873791
 3734 07e4 999929B0 		.word	-1339450983
 3735 07e8 2D2D5A77 		.word	2002398509
 3736 07ec 0F0F1E11 		.word	287182607
 3737 07f0 B0B07BCB 		.word	-881086288
 3738 07f4 5454A8FC 		.word	-56077228
 3739 07f8 BBBB6DD6 		.word	-697451589
 3740 07fc 16162C3A 		.word	975967766
 3741 0800 63C6A563 		.word	1671808611
 3742 0804 7CF8847C 		.word	2089089148
 3743 0808 77EE9977 		.word	2006576759
 3744 080c 7BF68D7B 		.word	2072901243
 3745 0810 F2FF0DF2 		.word	-233963534
 3746 0814 6BD6BD6B 		.word	1807603307
 3747 0818 6FDEB16F 		.word	1873927791
 3748 081c C59154C5 		.word	-984313403
 3749 0820 30605030 		.word	810573872
 3750 0824 01020301 		.word	16974337
 3751 0828 67CEA967 		.word	1739181671
 3752 082c 2B567D2B 		.word	729634347
 3753 0830 FEE719FE 		.word	-31856642
 3754 0834 D7B562D7 		.word	-681396777
 3755 0838 AB4DE6AB 		.word	-1410970197
 3756 083c 76EC9A76 		.word	1989864566
 3757 0840 CA8F45CA 		.word	-901410870
 3758 0844 821F9D82 		.word	-2103631998
 3759 0848 C98940C9 		.word	-918517303
 3760 084c 7DFA877D 		.word	2106063485
 3761 0850 FAEF15FA 		.word	-99225606
 3762 0854 59B2EB59 		.word	1508618841
 3763 0858 478EC947 		.word	1204391495
 3764 085c F0FB0BF0 		.word	-267650064
 3765 0860 AD41ECAD 		.word	-1377025619
 3766 0864 D4B367D4 		.word	-731401260
ARM GAS  C:\Users\ddemidov\AppData\Local\Temp\ccTwWFqA.s 			page 118


 3767 0868 A25FFDA2 		.word	-1560453214
 3768 086c AF45EAAF 		.word	-1343601233
 3769 0870 9C23BF9C 		.word	-1665195108
 3770 0874 A453F7A4 		.word	-1527295068
 3771 0878 72E49672 		.word	1922491506
 3772 087c C09B5BC0 		.word	-1067738176
 3773 0880 B775C2B7 		.word	-1211992649
 3774 0884 FDE11CFD 		.word	-48438787
 3775 0888 933DAE93 		.word	-1817297517
 3776 088c 264C6A26 		.word	644500518
 3777 0890 366C5A36 		.word	911895606
 3778 0894 3F7E413F 		.word	1061256767
 3779 0898 F7F502F7 		.word	-150800905
 3780 089c CC834FCC 		.word	-867204148
 3781 08a0 34685C34 		.word	878471220
 3782 08a4 A551F4A5 		.word	-1510714971
 3783 08a8 E5D134E5 		.word	-449523227
 3784 08ac F1F908F1 		.word	-251069967
 3785 08b0 71E29371 		.word	1905517169
 3786 08b4 D8AB73D8 		.word	-663508008
 3787 08b8 31625331 		.word	827548209
 3788 08bc 152A3F15 		.word	356461077
 3789 08c0 04080C04 		.word	67897348
 3790 08c4 C79552C7 		.word	-950889017
 3791 08c8 23466523 		.word	593839651
 3792 08cc C39D5EC3 		.word	-1017209405
 3793 08d0 18302818 		.word	405286936
 3794 08d4 9637A196 		.word	-1767819370
 3795 08d8 050A0F05 		.word	84871685
 3796 08dc 9A2FB59A 		.word	-1699401830
 3797 08e0 070E0907 		.word	118033927
 3798 08e4 12243612 		.word	305538066
 3799 08e8 801B9B80 		.word	-2137318528
 3800 08ec E2DF3DE2 		.word	-499261470
 3801 08f0 EBCD26EB 		.word	-349778453
 3802 08f4 274E6927 		.word	661212711
 3803 08f8 B27FCDB2 		.word	-1295155278
 3804 08fc 75EA9F75 		.word	1973414517
 3805 0900 09121B09 		.word	152769033
 3806 0904 831D9E83 		.word	-2086789757
 3807 0908 2C58742C 		.word	745822252
 3808 090c 1A342E1A 		.word	439235610
 3809 0910 1B362D1B 		.word	455947803
 3810 0914 6EDCB26E 		.word	1857215598
 3811 0918 5AB4EE5A 		.word	1525593178
 3812 091c A05BFBA0 		.word	-1594139744
 3813 0920 52A4F652 		.word	1391895634
 3814 0924 3B764D3B 		.word	994932283
 3815 0928 D6B761D6 		.word	-698239018
 3816 092c B37DCEB3 		.word	-1278313037
 3817 0930 29527B29 		.word	695947817
 3818 0934 E3DD3EE3 		.word	-482419229
 3819 0938 2F5E712F 		.word	795958831
 3820 093c 84139784 		.word	-2070473852
 3821 0940 53A6F553 		.word	1408607827
 3822 0944 D1B968D1 		.word	-781665839
 3823 0948 00000000 		.word	0
ARM GAS  C:\Users\ddemidov\AppData\Local\Temp\ccTwWFqA.s 			page 119


 3824 094c EDC12CED 		.word	-315833875
 3825 0950 20406020 		.word	543178784
 3826 0954 FCE31FFC 		.word	-65018884
 3827 0958 B179C8B1 		.word	-1312261711
 3828 095c 5BB6ED5B 		.word	1542305371
 3829 0960 6AD4BE6A 		.word	1790891114
 3830 0964 CB8D46CB 		.word	-884568629
 3831 0968 BE67D9BE 		.word	-1093048386
 3832 096c 39724B39 		.word	961245753
 3833 0970 4A94DE4A 		.word	1256100938
 3834 0974 4C98D44C 		.word	1289001036
 3835 0978 58B0E858 		.word	1491644504
 3836 097c CF854ACF 		.word	-817199665
 3837 0980 D0BB6BD0 		.word	-798245936
 3838 0984 EFC52AEF 		.word	-282409489
 3839 0988 AA4FE5AA 		.word	-1427812438
 3840 098c FBED16FB 		.word	-82383365
 3841 0990 4386C543 		.word	1137018435
 3842 0994 4D9AD74D 		.word	1305975373
 3843 0998 33665533 		.word	861234739
 3844 099c 85119485 		.word	-2053893755
 3845 09a0 458ACF45 		.word	1171229253
 3846 09a4 F9E910F9 		.word	-116332039
 3847 09a8 02040602 		.word	33948674
 3848 09ac 7FFE817F 		.word	2139225727
 3849 09b0 50A0F050 		.word	1357946960
 3850 09b4 3C78443C 		.word	1011120188
 3851 09b8 9F25BA9F 		.word	-1615190625
 3852 09bc A84BE3A8 		.word	-1461498968
 3853 09c0 51A2F351 		.word	1374921297
 3854 09c4 A35DFEA3 		.word	-1543610973
 3855 09c8 4080C040 		.word	1086357568
 3856 09cc 8F058A8F 		.word	-1886780017
 3857 09d0 923FAD92 		.word	-1834139758
 3858 09d4 9D21BC9D 		.word	-1648615011
 3859 09d8 38704838 		.word	944271416
 3860 09dc F5F104F5 		.word	-184225291
 3861 09e0 BC63DFBC 		.word	-1126210628
 3862 09e4 B677C1B6 		.word	-1228834890
 3863 09e8 DAAF75DA 		.word	-629821478
 3864 09ec 21426321 		.word	560153121
 3865 09f0 10203010 		.word	271589392
 3866 09f4 FFE51AFF 		.word	-15014401
 3867 09f8 F3FD0EF3 		.word	-217121293
 3868 09fc D2BF6DD2 		.word	-764559406
 3869 0a00 CD814CCD 		.word	-850624051
 3870 0a04 0C18140C 		.word	202643468
 3871 0a08 13263513 		.word	322250259
 3872 0a0c ECC32FEC 		.word	-332413972
 3873 0a10 5FBEE15F 		.word	1608629855
 3874 0a14 9735A297 		.word	-1750977129
 3875 0a18 4488CC44 		.word	1154254916
 3876 0a1c 172E3917 		.word	389623319
 3877 0a20 C49357C4 		.word	-1000893500
 3878 0a24 A755F2A7 		.word	-1477290585
 3879 0a28 7EFC827E 		.word	2122513534
 3880 0a2c 3D7A473D 		.word	1028094525
ARM GAS  C:\Users\ddemidov\AppData\Local\Temp\ccTwWFqA.s 			page 120


 3881 0a30 64C8AC64 		.word	1689045092
 3882 0a34 5DBAE75D 		.word	1575467613
 3883 0a38 19322B19 		.word	422261273
 3884 0a3c 73E69573 		.word	1939203699
 3885 0a40 60C0A060 		.word	1621147744
 3886 0a44 81199881 		.word	-2120738431
 3887 0a48 4F9ED14F 		.word	1339137615
 3888 0a4c DCA37FDC 		.word	-595614756
 3889 0a50 22446622 		.word	577127458
 3890 0a54 2A547E2A 		.word	712922154
 3891 0a58 903BAB90 		.word	-1867826288
 3892 0a5c 880B8388 		.word	-2004677752
 3893 0a60 468CCA46 		.word	1187679302
 3894 0a64 EEC729EE 		.word	-299251730
 3895 0a68 B86BD3B8 		.word	-1194103880
 3896 0a6c 14283C14 		.word	339486740
 3897 0a70 DEA779DE 		.word	-562452514
 3898 0a74 5EBCE25E 		.word	1591917662
 3899 0a78 0B161D0B 		.word	186455563
 3900 0a7c DBAD76DB 		.word	-612979237
 3901 0a80 E0DB3BE0 		.word	-532948000
 3902 0a84 32645632 		.word	844522546
 3903 0a88 3A744E3A 		.word	978220090
 3904 0a8c 0A141E0A 		.word	169743370
 3905 0a90 4992DB49 		.word	1239126601
 3906 0a94 060C0A06 		.word	101321734
 3907 0a98 24486C24 		.word	611076132
 3908 0a9c 5CB8E45C 		.word	1558493276
 3909 0aa0 C29F5DC2 		.word	-1034051646
 3910 0aa4 D3BD6ED3 		.word	-747717165
 3911 0aa8 AC43EFAC 		.word	-1393605716
 3912 0aac 62C4A662 		.word	1655096418
 3913 0ab0 9139A891 		.word	-1851246191
 3914 0ab4 9531A495 		.word	-1784401515
 3915 0ab8 E4D337E4 		.word	-466103324
 3916 0abc 79F28B79 		.word	2039214713
 3917 0ac0 E7D532E7 		.word	-416098841
 3918 0ac4 C88B43C8 		.word	-935097400
 3919 0ac8 376E5937 		.word	928607799
 3920 0acc 6DDAB76D 		.word	1840765549
 3921 0ad0 8D018C8D 		.word	-1920204403
 3922 0ad4 D5B164D5 		.word	-714821163
 3923 0ad8 4E9CD24E 		.word	1322425422
 3924 0adc A949E0A9 		.word	-1444918871
 3925 0ae0 6CD8B46C 		.word	1823791212
 3926 0ae4 56ACFA56 		.word	1459268694
 3927 0ae8 F4F307F4 		.word	-200805388
 3928 0aec EACF25EA 		.word	-366620694
 3929 0af0 65CAAF65 		.word	1706019429
 3930 0af4 7AF48E7A 		.word	2056189050
 3931 0af8 AE47E9AE 		.word	-1360443474
 3932 0afc 08101808 		.word	135794696
 3933 0b00 BA6FD5BA 		.word	-1160417350
 3934 0b04 78F08878 		.word	2022240376
 3935 0b08 254A6F25 		.word	628050469
 3936 0b0c 2E5C722E 		.word	779246638
 3937 0b10 1C38241C 		.word	472135708
ARM GAS  C:\Users\ddemidov\AppData\Local\Temp\ccTwWFqA.s 			page 121


 3938 0b14 A657F1A6 		.word	-1494132826
 3939 0b18 B473C7B4 		.word	-1261997132
 3940 0b1c C69751C6 		.word	-967731258
 3941 0b20 E8CB23E8 		.word	-400307224
 3942 0b24 DDA17CDD 		.word	-579034659
 3943 0b28 74E89C74 		.word	1956440180
 3944 0b2c 1F3E211F 		.word	522272287
 3945 0b30 4B96DD4B 		.word	1272813131
 3946 0b34 BD61DCBD 		.word	-1109630531
 3947 0b38 8B0D868B 		.word	-1954148981
 3948 0b3c 8A0F858A 		.word	-1970991222
 3949 0b40 70E09070 		.word	1888542832
 3950 0b44 3E7C423E 		.word	1044544574
 3951 0b48 B571C4B5 		.word	-1245417035
 3952 0b4c 66CCAA66 		.word	1722469478
 3953 0b50 4890D848 		.word	1222152264
 3954 0b54 03060503 		.word	50660867
 3955 0b58 F6F701F6 		.word	-167643146
 3956 0b5c 0E1C120E 		.word	236067854
 3957 0b60 61C2A361 		.word	1638122081
 3958 0b64 356A5F35 		.word	895445557
 3959 0b68 57AEF957 		.word	1475980887
 3960 0b6c B969D0B9 		.word	-1177523783
 3961 0b70 86179186 		.word	-2037311610
 3962 0b74 C19958C1 		.word	-1051158079
 3963 0b78 1D3A271D 		.word	489110045
 3964 0b7c 9E27B99E 		.word	-1632032866
 3965 0b80 E1D938E1 		.word	-516367903
 3966 0b84 F8EB13F8 		.word	-132912136
 3967 0b88 982BB398 		.word	-1733088360
 3968 0b8c 11223311 		.word	288563729
 3969 0b90 69D2BB69 		.word	1773916777
 3970 0b94 D9A970D9 		.word	-646927911
 3971 0b98 8E07898E 		.word	-1903622258
 3972 0b9c 9433A794 		.word	-1800981612
 3973 0ba0 9B2DB69B 		.word	-1682559589
 3974 0ba4 1E3C221E 		.word	505560094
 3975 0ba8 87159287 		.word	-2020469369
 3976 0bac E9C920E9 		.word	-383727127
 3977 0bb0 CE8749CE 		.word	-834041906
 3978 0bb4 55AAFF55 		.word	1442818645
 3979 0bb8 28507828 		.word	678973480
 3980 0bbc DFA57ADF 		.word	-545610273
 3981 0bc0 8C038F8C 		.word	-1936784500
 3982 0bc4 A159F8A1 		.word	-1577559647
 3983 0bc8 89098089 		.word	-1988097655
 3984 0bcc 0D1A170D 		.word	219617805
 3985 0bd0 BF65DABF 		.word	-1076206145
 3986 0bd4 E6D731E6 		.word	-432941082
 3987 0bd8 4284C642 		.word	1120306242
 3988 0bdc 68D0B868 		.word	1756942440
 3989 0be0 4182C341 		.word	1103331905
 3990 0be4 9929B099 		.word	-1716508263
 3991 0be8 2D5A772D 		.word	762796589
 3992 0bec 0F1E110F 		.word	252780047
 3993 0bf0 B07BCBB0 		.word	-1328841808
 3994 0bf4 54A8FC54 		.word	1425844308
ARM GAS  C:\Users\ddemidov\AppData\Local\Temp\ccTwWFqA.s 			page 122


 3995 0bf8 BB6DD6BB 		.word	-1143575109
 3996 0bfc 162C3A16 		.word	372911126
 3997 0c00 C6A56363 		.word	1667474886
 3998 0c04 F8847C7C 		.word	2088535288
 3999 0c08 EE997777 		.word	2004326894
 4000 0c0c F68D7B7B 		.word	2071694838
 4001 0c10 FF0DF2F2 		.word	-219017729
 4002 0c14 D6BD6B6B 		.word	1802223062
 4003 0c18 DEB16F6F 		.word	1869591006
 4004 0c1c 9154C5C5 		.word	-976923503
 4005 0c20 60503030 		.word	808472672
 4006 0c24 02030101 		.word	16843522
 4007 0c28 CEA96767 		.word	1734846926
 4008 0c2c 567D2B2B 		.word	724270422
 4009 0c30 E719FEFE 		.word	-16901657
 4010 0c34 B562D7D7 		.word	-673750347
 4011 0c38 4DE6ABAB 		.word	-1414797747
 4012 0c3c EC9A7676 		.word	1987484396
 4013 0c40 8F45CACA 		.word	-892713585
 4014 0c44 1F9D8282 		.word	-2105369313
 4015 0c48 8940C9C9 		.word	-909557623
 4016 0c4c FA877D7D 		.word	2105378810
 4017 0c50 EF15FAFA 		.word	-84273681
 4018 0c54 B2EB5959 		.word	1499065266
 4019 0c58 8EC94747 		.word	1195886990
 4020 0c5c FB0BF0F0 		.word	-252703749
 4021 0c60 41ECADAD 		.word	-1381110719
 4022 0c64 B367D4D4 		.word	-724277325
 4023 0c68 5FFDA2A2 		.word	-1566376609
 4024 0c6c 45EAAFAF 		.word	-1347425723
 4025 0c70 23BF9C9C 		.word	-1667449053
 4026 0c74 53F7A4A4 		.word	-1532692653
 4027 0c78 E4967272 		.word	1920112356
 4028 0c7c 9B5BC0C0 		.word	-1061135461
 4029 0c80 75C2B7B7 		.word	-1212693899
 4030 0c84 E11CFDFD 		.word	-33743647
 4031 0c88 3DAE9393 		.word	-1819038147
 4032 0c8c 4C6A2626 		.word	640051788
 4033 0c90 6C5A3636 		.word	909531756
 4034 0c94 7E413F3F 		.word	1061110142
 4035 0c98 F502F7F7 		.word	-134806795
 4036 0c9c 834FCCCC 		.word	-859025533
 4037 0ca0 685C3434 		.word	875846760
 4038 0ca4 51F4A5A5 		.word	-1515850671
 4039 0ca8 D134E5E5 		.word	-437963567
 4040 0cac F908F1F1 		.word	-235861767
 4041 0cb0 E2937171 		.word	1903268834
 4042 0cb4 AB73D8D8 		.word	-656903253
 4043 0cb8 62533131 		.word	825316194
 4044 0cbc 2A3F1515 		.word	353713962
 4045 0cc0 080C0404 		.word	67374088
 4046 0cc4 9552C7C7 		.word	-943238507
 4047 0cc8 46652323 		.word	589522246
 4048 0ccc 9D5EC3C3 		.word	-1010606435
 4049 0cd0 30281818 		.word	404236336
 4050 0cd4 37A19696 		.word	-1768513225
 4051 0cd8 0A0F0505 		.word	84217610
ARM GAS  C:\Users\ddemidov\AppData\Local\Temp\ccTwWFqA.s 			page 123


 4052 0cdc 2FB59A9A 		.word	-1701137105
 4053 0ce0 0E090707 		.word	117901582
 4054 0ce4 24361212 		.word	303183396
 4055 0ce8 1B9B8080 		.word	-2139055333
 4056 0cec DF3DE2E2 		.word	-488489505
 4057 0cf0 CD26EBEB 		.word	-336910643
 4058 0cf4 4E692727 		.word	656894286
 4059 0cf8 7FCDB2B2 		.word	-1296904833
 4060 0cfc EA9F7575 		.word	1970642922
 4061 0d00 121B0909 		.word	151591698
 4062 0d04 1D9E8383 		.word	-2088526307
 4063 0d08 58742C2C 		.word	741110872
 4064 0d0c 342E1A1A 		.word	437923380
 4065 0d10 362D1B1B 		.word	454765878
 4066 0d14 DCB26E6E 		.word	1852748508
 4067 0d18 B4EE5A5A 		.word	1515908788
 4068 0d1c 5BFBA0A0 		.word	-1600062629
 4069 0d20 A4F65252 		.word	1381168804
 4070 0d24 764D3B3B 		.word	993742198
 4071 0d28 B761D6D6 		.word	-690593353
 4072 0d2c 7DCEB3B3 		.word	-1280061827
 4073 0d30 527B2929 		.word	690584402
 4074 0d34 DD3EE3E3 		.word	-471646499
 4075 0d38 5E712F2F 		.word	791638366
 4076 0d3c 13978484 		.word	-2071685357
 4077 0d40 A6F55353 		.word	1398011302
 4078 0d44 B968D1D1 		.word	-774805319
 4079 0d48 00000000 		.word	0
 4080 0d4c C12CEDED 		.word	-303223615
 4081 0d50 40602020 		.word	538992704
 4082 0d54 E31FFCFC 		.word	-50585629
 4083 0d58 79C8B1B1 		.word	-1313748871
 4084 0d5c B6ED5B5B 		.word	1532751286
 4085 0d60 D4BE6A6A 		.word	1785380564
 4086 0d64 8D46CBCB 		.word	-875870579
 4087 0d68 67D9BEBE 		.word	-1094788761
 4088 0d6c 724B3939 		.word	960056178
 4089 0d70 94DE4A4A 		.word	1246420628
 4090 0d74 98D44C4C 		.word	1280103576
 4091 0d78 B0E85858 		.word	1482221744
 4092 0d7c 854ACFCF 		.word	-808498555
 4093 0d80 BB6BD0D0 		.word	-791647301
 4094 0d84 C52AEFEF 		.word	-269538619
 4095 0d88 4FE5AAAA 		.word	-1431640753
 4096 0d8c ED16FBFB 		.word	-67430675
 4097 0d90 86C54343 		.word	1128514950
 4098 0d94 9AD74D4D 		.word	1296947098
 4099 0d98 66553333 		.word	859002214
 4100 0d9c 11948585 		.word	-2054843375
 4101 0da0 8ACF4545 		.word	1162203018
 4102 0da4 E910F9F9 		.word	-101117719
 4103 0da8 04060202 		.word	33687044
 4104 0dac FE817F7F 		.word	2139062782
 4105 0db0 A0F05050 		.word	1347481760
 4106 0db4 78443C3C 		.word	1010582648
 4107 0db8 25BA9F9F 		.word	-1616922075
 4108 0dbc 4BE3A8A8 		.word	-1465326773
ARM GAS  C:\Users\ddemidov\AppData\Local\Temp\ccTwWFqA.s 			page 124


 4109 0dc0 A2F35151 		.word	1364325282
 4110 0dc4 5DFEA3A3 		.word	-1549533603
 4111 0dc8 80C04040 		.word	1077985408
 4112 0dcc 058A8F8F 		.word	-1886418427
 4113 0dd0 3FAD9292 		.word	-1835881153
 4114 0dd4 21BC9D9D 		.word	-1650607071
 4115 0dd8 70483838 		.word	943212656
 4116 0ddc F104F5F5 		.word	-168491791
 4117 0de0 63DFBCBC 		.word	-1128472733
 4118 0de4 77C1B6B6 		.word	-1229536905
 4119 0de8 AF75DADA 		.word	-623217233
 4120 0dec 42632121 		.word	555836226
 4121 0df0 20301010 		.word	269496352
 4122 0df4 E51AFFFF 		.word	-58651
 4123 0df8 FD0EF3F3 		.word	-202174723
 4124 0dfc BF6DD2D2 		.word	-757961281
 4125 0e00 814CCDCD 		.word	-842183551
 4126 0e04 18140C0C 		.word	202118168
 4127 0e08 26351313 		.word	320025894
 4128 0e0c C32FECEC 		.word	-320065597
 4129 0e10 BEE15F5F 		.word	1600119230
 4130 0e14 35A29797 		.word	-1751670219
 4131 0e18 88CC4444 		.word	1145359496
 4132 0e1c 2E391717 		.word	387397934
 4133 0e20 9357C4C4 		.word	-993765485
 4134 0e24 55F2A7A7 		.word	-1482165675
 4135 0e28 FC827E7E 		.word	2122220284
 4136 0e2c 7A473D3D 		.word	1027426170
 4137 0e30 C8AC6464 		.word	1684319432
 4138 0e34 BAE75D5D 		.word	1566435258
 4139 0e38 322B1919 		.word	421079858
 4140 0e3c E6957373 		.word	1936954854
 4141 0e40 C0A06060 		.word	1616945344
 4142 0e44 19988181 		.word	-2122213351
 4143 0e48 9ED14F4F 		.word	1330631070
 4144 0e4c A37FDCDC 		.word	-589529181
 4145 0e50 44662222 		.word	572679748
 4146 0e54 547E2A2A 		.word	707427924
 4147 0e58 3BAB9090 		.word	-1869567173
 4148 0e5c 0B838888 		.word	-2004319477
 4149 0e60 8CCA4646 		.word	1179044492
 4150 0e64 C729EEEE 		.word	-286381625
 4151 0e68 6BD3B8B8 		.word	-1195846805
 4152 0e6c 283C1414 		.word	336870440
 4153 0e70 A779DEDE 		.word	-555845209
 4154 0e74 BCE25E5E 		.word	1583276732
 4155 0e78 161D0B0B 		.word	185277718
 4156 0e7c AD76DBDB 		.word	-606374227
 4157 0e80 DB3BE0E0 		.word	-522175525
 4158 0e84 64563232 		.word	842159716
 4159 0e88 744E3A3A 		.word	976899700
 4160 0e8c 141E0A0A 		.word	168435220
 4161 0e90 92DB4949 		.word	1229577106
 4162 0e94 0C0A0606 		.word	101059084
 4163 0e98 486C2424 		.word	606366792
 4164 0e9c B8E45C5C 		.word	1549591736
 4165 0ea0 9F5DC2C2 		.word	-1027449441
ARM GAS  C:\Users\ddemidov\AppData\Local\Temp\ccTwWFqA.s 			page 125


 4166 0ea4 BD6ED3D3 		.word	-741118275
 4167 0ea8 43EFACAC 		.word	-1397952701
 4168 0eac C4A66262 		.word	1650632388
 4169 0eb0 39A89191 		.word	-1852725191
 4170 0eb4 31A49595 		.word	-1785355215
 4171 0eb8 D337E4E4 		.word	-454805549
 4172 0ebc F28B7979 		.word	2038008818
 4173 0ec0 D532E7E7 		.word	-404278571
 4174 0ec4 8B43C8C8 		.word	-926399605
 4175 0ec8 6E593737 		.word	926374254
 4176 0ecc DAB76D6D 		.word	1835907034
 4177 0ed0 018C8D8D 		.word	-1920103423
 4178 0ed4 B164D5D5 		.word	-707435343
 4179 0ed8 9CD24E4E 		.word	1313788572
 4180 0edc 49E0A9A9 		.word	-1448484791
 4181 0ee0 D8B46C6C 		.word	1819063512
 4182 0ee4 ACFA5656 		.word	1448540844
 4183 0ee8 F307F4F4 		.word	-185333773
 4184 0eec CF25EAEA 		.word	-353753649
 4185 0ef0 CAAF6565 		.word	1701162954
 4186 0ef4 F48E7A7A 		.word	2054852340
 4187 0ef8 47E9AEAE 		.word	-1364268729
 4188 0efc 10180808 		.word	134748176
 4189 0f00 6FD5BABA 		.word	-1162160785
 4190 0f04 F0887878 		.word	2021165296
 4191 0f08 4A6F2525 		.word	623210314
 4192 0f0c 5C722E2E 		.word	774795868
 4193 0f10 38241C1C 		.word	471606328
 4194 0f14 57F1A6A6 		.word	-1499008681
 4195 0f18 73C7B4B4 		.word	-1263220877
 4196 0f1c 9751C6C6 		.word	-960081513
 4197 0f20 CB23E8E8 		.word	-387439669
 4198 0f24 A17CDDDD 		.word	-572687199
 4199 0f28 E89C7474 		.word	1953799400
 4200 0f2c 3E211F1F 		.word	522133822
 4201 0f30 96DD4B4B 		.word	1263263126
 4202 0f34 61DCBDBD 		.word	-1111630751
 4203 0f38 0D868B8B 		.word	-1953790451
 4204 0f3c 0F858A8A 		.word	-1970633457
 4205 0f40 E0907070 		.word	1886425312
 4206 0f44 7C423E3E 		.word	1044267644
 4207 0f48 71C4B5B5 		.word	-1246378895
 4208 0f4c CCAA6666 		.word	1718004428
 4209 0f50 90D84848 		.word	1212733584
 4210 0f54 06050303 		.word	50529542
 4211 0f58 F701F6F6 		.word	-151649801
 4212 0f5c 1C120E0E 		.word	235803164
 4213 0f60 C2A36161 		.word	1633788866
 4214 0f64 6A5F3535 		.word	892690282
 4215 0f68 AEF95757 		.word	1465383342
 4216 0f6c 69D0B9B9 		.word	-1179004823
 4217 0f70 17918686 		.word	-2038001385
 4218 0f74 9958C1C1 		.word	-1044293479
 4219 0f78 3A271D1D 		.word	488449850
 4220 0f7c 27B99E9E 		.word	-1633765081
 4221 0f80 D938E1E1 		.word	-505333543
 4222 0f84 EB13F8F8 		.word	-117959701
ARM GAS  C:\Users\ddemidov\AppData\Local\Temp\ccTwWFqA.s 			page 126


 4223 0f88 2BB39898 		.word	-1734823125
 4224 0f8c 22331111 		.word	286339874
 4225 0f90 D2BB6969 		.word	1768537042
 4226 0f94 A970D9D9 		.word	-640061271
 4227 0f98 07898E8E 		.word	-1903261433
 4228 0f9c 33A79494 		.word	-1802197197
 4229 0fa0 2DB69B9B 		.word	-1684294099
 4230 0fa4 3C221E1E 		.word	505291324
 4231 0fa8 15928787 		.word	-2021158379
 4232 0fac C920E9E9 		.word	-370597687
 4233 0fb0 8749CECE 		.word	-825341561
 4234 0fb4 AAFF5555 		.word	1431699370
 4235 0fb8 50782828 		.word	673740880
 4236 0fbc A57ADFDF 		.word	-539002203
 4237 0fc0 038F8C8C 		.word	-1936945405
 4238 0fc4 59F8A1A1 		.word	-1583220647
 4239 0fc8 09808989 		.word	-1987477495
 4240 0fcc 1A170D0D 		.word	218961690
 4241 0fd0 65DABFBF 		.word	-1077945755
 4242 0fd4 D731E6E6 		.word	-421121577
 4243 0fd8 84C64242 		.word	1111672452
 4244 0fdc D0B86868 		.word	1751693520
 4245 0fe0 82C34141 		.word	1094828930
 4246 0fe4 29B09999 		.word	-1717981143
 4247 0fe8 5A772D2D 		.word	757954394
 4248 0fec 1E110F0F 		.word	252645662
 4249 0ff0 7BCBB0B0 		.word	-1330590853
 4250 0ff4 A8FC5454 		.word	1414855848
 4251 0ff8 6DD6BBBB 		.word	-1145317779
 4252 0ffc 2C3A1616 		.word	370555436
 4253 1000 63636363 		.word	1667457891
 4254 1004 7C7C7C7C 		.word	2088533116
 4255 1008 77777777 		.word	2004318071
 4256 100c 7B7B7B7B 		.word	2071690107
 4257 1010 F2F2F2F2 		.word	-218959118
 4258 1014 6B6B6B6B 		.word	1802201963
 4259 1018 6F6F6F6F 		.word	1869573999
 4260 101c C5C5C5C5 		.word	-976894523
 4261 1020 30303030 		.word	808464432
 4262 1024 01010101 		.word	16843009
 4263 1028 67676767 		.word	1734829927
 4264 102c 2B2B2B2B 		.word	724249387
 4265 1030 FEFEFEFE 		.word	-16843010
 4266 1034 D7D7D7D7 		.word	-673720361
 4267 1038 ABABABAB 		.word	-1414812757
 4268 103c 76767676 		.word	1987475062
 4269 1040 CACACACA 		.word	-892679478
 4270 1044 82828282 		.word	-2105376126
 4271 1048 C9C9C9C9 		.word	-909522487
 4272 104c 7D7D7D7D 		.word	2105376125
 4273 1050 FAFAFAFA 		.word	-84215046
 4274 1054 59595959 		.word	1499027801
 4275 1058 47474747 		.word	1195853639
 4276 105c F0F0F0F0 		.word	-252645136
 4277 1060 ADADADAD 		.word	-1381126739
 4278 1064 D4D4D4D4 		.word	-724249388
 4279 1068 A2A2A2A2 		.word	-1566399838
ARM GAS  C:\Users\ddemidov\AppData\Local\Temp\ccTwWFqA.s 			page 127


 4280 106c AFAFAFAF 		.word	-1347440721
 4281 1070 9C9C9C9C 		.word	-1667457892
 4282 1074 A4A4A4A4 		.word	-1532713820
 4283 1078 72727272 		.word	1920103026
 4284 107c C0C0C0C0 		.word	-1061109568
 4285 1080 B7B7B7B7 		.word	-1212696649
 4286 1084 FDFDFDFD 		.word	-33686019
 4287 1088 93939393 		.word	-1819044973
 4288 108c 26262626 		.word	640034342
 4289 1090 36363636 		.word	909522486
 4290 1094 3F3F3F3F 		.word	1061109567
 4291 1098 F7F7F7F7 		.word	-134744073
 4292 109c CCCCCCCC 		.word	-858993460
 4293 10a0 34343434 		.word	875836468
 4294 10a4 A5A5A5A5 		.word	-1515870811
 4295 10a8 E5E5E5E5 		.word	-437918235
 4296 10ac F1F1F1F1 		.word	-235802127
 4297 10b0 71717171 		.word	1903260017
 4298 10b4 D8D8D8D8 		.word	-656877352
 4299 10b8 31313131 		.word	825307441
 4300 10bc 15151515 		.word	353703189
 4301 10c0 04040404 		.word	67372036
 4302 10c4 C7C7C7C7 		.word	-943208505
 4303 10c8 23232323 		.word	589505315
 4304 10cc C3C3C3C3 		.word	-1010580541
 4305 10d0 18181818 		.word	404232216
 4306 10d4 96969696 		.word	-1768515946
 4307 10d8 05050505 		.word	84215045
 4308 10dc 9A9A9A9A 		.word	-1701143910
 4309 10e0 07070707 		.word	117901063
 4310 10e4 12121212 		.word	303174162
 4311 10e8 80808080 		.word	-2139062144
 4312 10ec E2E2E2E2 		.word	-488447262
 4313 10f0 EBEBEBEB 		.word	-336860181
 4314 10f4 27272727 		.word	656877351
 4315 10f8 B2B2B2B2 		.word	-1296911694
 4316 10fc 75757575 		.word	1970632053
 4317 1100 09090909 		.word	151587081
 4318 1104 83838383 		.word	-2088533117
 4319 1108 2C2C2C2C 		.word	741092396
 4320 110c 1A1A1A1A 		.word	437918234
 4321 1110 1B1B1B1B 		.word	454761243
 4322 1114 6E6E6E6E 		.word	1852730990
 4323 1118 5A5A5A5A 		.word	1515870810
 4324 111c A0A0A0A0 		.word	-1600085856
 4325 1120 52525252 		.word	1381126738
 4326 1124 3B3B3B3B 		.word	993737531
 4327 1128 D6D6D6D6 		.word	-690563370
 4328 112c B3B3B3B3 		.word	-1280068685
 4329 1130 29292929 		.word	690563369
 4330 1134 E3E3E3E3 		.word	-471604253
 4331 1138 2F2F2F2F 		.word	791621423
 4332 113c 84848484 		.word	-2071690108
 4333 1140 53535353 		.word	1397969747
 4334 1144 D1D1D1D1 		.word	-774778415
 4335 1148 00000000 		.word	0
 4336 114c EDEDEDED 		.word	-303174163
ARM GAS  C:\Users\ddemidov\AppData\Local\Temp\ccTwWFqA.s 			page 128


 4337 1150 20202020 		.word	538976288
 4338 1154 FCFCFCFC 		.word	-50529028
 4339 1158 B1B1B1B1 		.word	-1313754703
 4340 115c 5B5B5B5B 		.word	1532713819
 4341 1160 6A6A6A6A 		.word	1785358954
 4342 1164 CBCBCBCB 		.word	-875836469
 4343 1168 BEBEBEBE 		.word	-1094795586
 4344 116c 39393939 		.word	960051513
 4345 1170 4A4A4A4A 		.word	1246382666
 4346 1174 4C4C4C4C 		.word	1280068684
 4347 1178 58585858 		.word	1482184792
 4348 117c CFCFCFCF 		.word	-808464433
 4349 1180 D0D0D0D0 		.word	-791621424
 4350 1184 EFEFEFEF 		.word	-269488145
 4351 1188 AAAAAAAA 		.word	-1431655766
 4352 118c FBFBFBFB 		.word	-67372037
 4353 1190 43434343 		.word	1128481603
 4354 1194 4D4D4D4D 		.word	1296911693
 4355 1198 33333333 		.word	858993459
 4356 119c 85858585 		.word	-2054847099
 4357 11a0 45454545 		.word	1162167621
 4358 11a4 F9F9F9F9 		.word	-101058055
 4359 11a8 02020202 		.word	33686018
 4360 11ac 7F7F7F7F 		.word	2139062143
 4361 11b0 50505050 		.word	1347440720
 4362 11b4 3C3C3C3C 		.word	1010580540
 4363 11b8 9F9F9F9F 		.word	-1616928865
 4364 11bc A8A8A8A8 		.word	-1465341784
 4365 11c0 51515151 		.word	1364283729
 4366 11c4 A3A3A3A3 		.word	-1549556829
 4367 11c8 40404040 		.word	1077952576
 4368 11cc 8F8F8F8F 		.word	-1886417009
 4369 11d0 92929292 		.word	-1835887982
 4370 11d4 9D9D9D9D 		.word	-1650614883
 4371 11d8 38383838 		.word	943208504
 4372 11dc F5F5F5F5 		.word	-168430091
 4373 11e0 BCBCBCBC 		.word	-1128481604
 4374 11e4 B6B6B6B6 		.word	-1229539658
 4375 11e8 DADADADA 		.word	-623191334
 4376 11ec 21212121 		.word	555819297
 4377 11f0 10101010 		.word	269488144
 4378 11f4 FFFFFFFF 		.word	-1
 4379 11f8 F3F3F3F3 		.word	-202116109
 4380 11fc D2D2D2D2 		.word	-757935406
 4381 1200 CDCDCDCD 		.word	-842150451
 4382 1204 0C0C0C0C 		.word	202116108
 4383 1208 13131313 		.word	320017171
 4384 120c ECECECEC 		.word	-320017172
 4385 1210 5F5F5F5F 		.word	1600085855
 4386 1214 97979797 		.word	-1751672937
 4387 1218 44444444 		.word	1145324612
 4388 121c 17171717 		.word	387389207
 4389 1220 C4C4C4C4 		.word	-993737532
 4390 1224 A7A7A7A7 		.word	-1482184793
 4391 1228 7E7E7E7E 		.word	2122219134
 4392 122c 3D3D3D3D 		.word	1027423549
 4393 1230 64646464 		.word	1684300900
ARM GAS  C:\Users\ddemidov\AppData\Local\Temp\ccTwWFqA.s 			page 129


 4394 1234 5D5D5D5D 		.word	1566399837
 4395 1238 19191919 		.word	421075225
 4396 123c 73737373 		.word	1936946035
 4397 1240 60606060 		.word	1616928864
 4398 1244 81818181 		.word	-2122219135
 4399 1248 4F4F4F4F 		.word	1330597711
 4400 124c DCDCDCDC 		.word	-589505316
 4401 1250 22222222 		.word	572662306
 4402 1254 2A2A2A2A 		.word	707406378
 4403 1258 90909090 		.word	-1869574000
 4404 125c 88888888 		.word	-2004318072
 4405 1260 46464646 		.word	1179010630
 4406 1264 EEEEEEEE 		.word	-286331154
 4407 1268 B8B8B8B8 		.word	-1195853640
 4408 126c 14141414 		.word	336860180
 4409 1270 DEDEDEDE 		.word	-555819298
 4410 1274 5E5E5E5E 		.word	1583242846
 4411 1278 0B0B0B0B 		.word	185273099
 4412 127c DBDBDBDB 		.word	-606348325
 4413 1280 E0E0E0E0 		.word	-522133280
 4414 1284 32323232 		.word	842150450
 4415 1288 3A3A3A3A 		.word	976894522
 4416 128c 0A0A0A0A 		.word	168430090
 4417 1290 49494949 		.word	1229539657
 4418 1294 06060606 		.word	101058054
 4419 1298 24242424 		.word	606348324
 4420 129c 5C5C5C5C 		.word	1549556828
 4421 12a0 C2C2C2C2 		.word	-1027423550
 4422 12a4 D3D3D3D3 		.word	-741092397
 4423 12a8 ACACACAC 		.word	-1397969748
 4424 12ac 62626262 		.word	1650614882
 4425 12b0 91919191 		.word	-1852730991
 4426 12b4 95959595 		.word	-1785358955
 4427 12b8 E4E4E4E4 		.word	-454761244
 4428 12bc 79797979 		.word	2038004089
 4429 12c0 E7E7E7E7 		.word	-404232217
 4430 12c4 C8C8C8C8 		.word	-926365496
 4431 12c8 37373737 		.word	926365495
 4432 12cc 6D6D6D6D 		.word	1835887981
 4433 12d0 8D8D8D8D 		.word	-1920103027
 4434 12d4 D5D5D5D5 		.word	-707406379
 4435 12d8 4E4E4E4E 		.word	1313754702
 4436 12dc A9A9A9A9 		.word	-1448498775
 4437 12e0 6C6C6C6C 		.word	1819044972
 4438 12e4 56565656 		.word	1448498774
 4439 12e8 F4F4F4F4 		.word	-185273100
 4440 12ec EAEAEAEA 		.word	-353703190
 4441 12f0 65656565 		.word	1701143909
 4442 12f4 7A7A7A7A 		.word	2054847098
 4443 12f8 AEAEAEAE 		.word	-1364283730
 4444 12fc 08080808 		.word	134744072
 4445 1300 BABABABA 		.word	-1162167622
 4446 1304 78787878 		.word	2021161080
 4447 1308 25252525 		.word	623191333
 4448 130c 2E2E2E2E 		.word	774778414
 4449 1310 1C1C1C1C 		.word	471604252
 4450 1314 A6A6A6A6 		.word	-1499027802
ARM GAS  C:\Users\ddemidov\AppData\Local\Temp\ccTwWFqA.s 			page 130


 4451 1318 B4B4B4B4 		.word	-1263225676
 4452 131c C6C6C6C6 		.word	-960051514
 4453 1320 E8E8E8E8 		.word	-387389208
 4454 1324 DDDDDDDD 		.word	-572662307
 4455 1328 74747474 		.word	1953789044
 4456 132c 1F1F1F1F 		.word	522133279
 4457 1330 4B4B4B4B 		.word	1263225675
 4458 1334 BDBDBDBD 		.word	-1111638595
 4459 1338 8B8B8B8B 		.word	-1953789045
 4460 133c 8A8A8A8A 		.word	-1970632054
 4461 1340 70707070 		.word	1886417008
 4462 1344 3E3E3E3E 		.word	1044266558
 4463 1348 B5B5B5B5 		.word	-1246382667
 4464 134c 66666666 		.word	1717986918
 4465 1350 48484848 		.word	1212696648
 4466 1354 03030303 		.word	50529027
 4467 1358 F6F6F6F6 		.word	-151587082
 4468 135c 0E0E0E0E 		.word	235802126
 4469 1360 61616161 		.word	1633771873
 4470 1364 35353535 		.word	892679477
 4471 1368 57575757 		.word	1465341783
 4472 136c B9B9B9B9 		.word	-1179010631
 4473 1370 86868686 		.word	-2038004090
 4474 1374 C1C1C1C1 		.word	-1044266559
 4475 1378 1D1D1D1D 		.word	488447261
 4476 137c 9E9E9E9E 		.word	-1633771874
 4477 1380 E1E1E1E1 		.word	-505290271
 4478 1384 F8F8F8F8 		.word	-117901064
 4479 1388 98989898 		.word	-1734829928
 4480 138c 11111111 		.word	286331153
 4481 1390 69696969 		.word	1768515945
 4482 1394 D9D9D9D9 		.word	-640034343
 4483 1398 8E8E8E8E 		.word	-1903260018
 4484 139c 94949494 		.word	-1802201964
 4485 13a0 9B9B9B9B 		.word	-1684300901
 4486 13a4 1E1E1E1E 		.word	505290270
 4487 13a8 87878787 		.word	-2021161081
 4488 13ac E9E9E9E9 		.word	-370546199
 4489 13b0 CECECECE 		.word	-825307442
 4490 13b4 55555555 		.word	1431655765
 4491 13b8 28282828 		.word	673720360
 4492 13bc DFDFDFDF 		.word	-538976289
 4493 13c0 8C8C8C8C 		.word	-1936946036
 4494 13c4 A1A1A1A1 		.word	-1583242847
 4495 13c8 89898989 		.word	-1987475063
 4496 13cc 0D0D0D0D 		.word	218959117
 4497 13d0 BFBFBFBF 		.word	-1077952577
 4498 13d4 E6E6E6E6 		.word	-421075226
 4499 13d8 42424242 		.word	1111638594
 4500 13dc 68686868 		.word	1751672936
 4501 13e0 41414141 		.word	1094795585
 4502 13e4 99999999 		.word	-1717986919
 4503 13e8 2D2D2D2D 		.word	757935405
 4504 13ec 0F0F0F0F 		.word	252645135
 4505 13f0 B0B0B0B0 		.word	-1330597712
 4506 13f4 54545454 		.word	1414812756
 4507 13f8 BBBBBBBB 		.word	-1145324613
ARM GAS  C:\Users\ddemidov\AppData\Local\Temp\ccTwWFqA.s 			page 131


 4508 13fc 16161616 		.word	370546198
 4509              		.type	Td, %object
 4510              		.size	Td, 5120
 4511              	Td:
 4512 1400 50A7F451 		.word	1374988112
 4513 1404 5365417E 		.word	2118214995
 4514 1408 C3A4171A 		.word	437757123
 4515 140c 965E273A 		.word	975658646
 4516 1410 CB6BAB3B 		.word	1001089995
 4517 1414 F1459D1F 		.word	530400753
 4518 1418 AB58FAAC 		.word	-1392879445
 4519 141c 9303E34B 		.word	1273168787
 4520 1420 55FA3020 		.word	540080725
 4521 1424 F66D76AD 		.word	-1384747530
 4522 1428 9176CC88 		.word	-1999866223
 4523 142c 254C02F5 		.word	-184398811
 4524 1430 FCD7E54F 		.word	1340463100
 4525 1434 D7CB2AC5 		.word	-987051049
 4526 1438 80443526 		.word	641025152
 4527 143c 8FA362B5 		.word	-1251826801
 4528 1440 495AB1DE 		.word	-558802359
 4529 1444 671BBA25 		.word	632953703
 4530 1448 980EEA45 		.word	1172967064
 4531 144c E1C0FE5D 		.word	1576976609
 4532 1450 02752FC3 		.word	-1020300030
 4533 1454 12F04C81 		.word	-2125664238
 4534 1458 A397468D 		.word	-1924753501
 4535 145c C6F9D36B 		.word	1809054150
 4536 1460 E75F8F03 		.word	59727847
 4537 1464 959C9215 		.word	361929877
 4538 1468 EB7A6DBF 		.word	-1083344149
 4539 146c DA595295 		.word	-1789765158
 4540 1470 2D83BED4 		.word	-725712083
 4541 1474 D3217458 		.word	1484005843
 4542 1478 2969E049 		.word	1239443753
 4543 147c 44C8C98E 		.word	-1899378620
 4544 1480 6A89C275 		.word	1975683434
 4545 1484 78798EF4 		.word	-191989384
 4546 1488 6B3E5899 		.word	-1722270101
 4547 148c DD71B927 		.word	666464733
 4548 1490 B64FE1BE 		.word	-1092530250
 4549 1494 17AD88F0 		.word	-259478249
 4550 1498 66AC20C9 		.word	-920605594
 4551 149c B43ACE7D 		.word	2110667444
 4552 14a0 184ADF63 		.word	1675577880
 4553 14a4 82311AE5 		.word	-451268222
 4554 14a8 60335197 		.word	-1756286112
 4555 14ac 457F5362 		.word	1649639237
 4556 14b0 E07764B1 		.word	-1318815776
 4557 14b4 84AE6BBB 		.word	-1150570876
 4558 14b8 1CA081FE 		.word	-25059300
 4559 14bc 942B08F9 		.word	-116905068
 4560 14c0 58684870 		.word	1883793496
 4561 14c4 19FD458F 		.word	-1891238631
 4562 14c8 876CDE94 		.word	-1797362553
 4563 14cc B7F87B52 		.word	1383856311
 4564 14d0 23D373AB 		.word	-1418472669
ARM GAS  C:\Users\ddemidov\AppData\Local\Temp\ccTwWFqA.s 			page 132


 4565 14d4 E2024B72 		.word	1917518562
 4566 14d8 578F1FE3 		.word	-484470953
 4567 14dc 2AAB5566 		.word	1716890410
 4568 14e0 0728EBB2 		.word	-1293211641
 4569 14e4 03C2B52F 		.word	800440835
 4570 14e8 9A7BC586 		.word	-2033878118
 4571 14ec A50837D3 		.word	-751368027
 4572 14f0 F2872830 		.word	807962610
 4573 14f4 B2A5BF23 		.word	599762354
 4574 14f8 BA6A0302 		.word	33778362
 4575 14fc 5C8216ED 		.word	-317291940
 4576 1500 2B1CCF8A 		.word	-1966138325
 4577 1504 92B479A7 		.word	-1485196142
 4578 1508 F0F207F3 		.word	-217582864
 4579 150c A1E2694E 		.word	1315562145
 4580 1510 CDF4DA65 		.word	1708848333
 4581 1514 D5BE0506 		.word	101039829
 4582 1518 1F6234D1 		.word	-785096161
 4583 151c 8AFEA6C4 		.word	-995688822
 4584 1520 9D532E34 		.word	875451293
 4585 1524 A055F3A2 		.word	-1561111136
 4586 1528 32E18A05 		.word	92987698
 4587 152c 75EBF6A4 		.word	-1527321739
 4588 1530 39EC830B 		.word	193195065
 4589 1534 AAEF6040 		.word	1080094634
 4590 1538 069F715E 		.word	1584504582
 4591 153c 51106EBD 		.word	-1116860335
 4592 1540 F98A213E 		.word	1042385657
 4593 1544 3D06DD96 		.word	-1763899843
 4594 1548 AE053EDD 		.word	-583137874
 4595 154c 46BDE64D 		.word	1306967366
 4596 1550 B58D5491 		.word	-1856729675
 4597 1554 055DC471 		.word	1908694277
 4598 1558 6FD40604 		.word	67556463
 4599 155c FF155060 		.word	1615861247
 4600 1560 24FB9819 		.word	429456164
 4601 1564 97E9BDD6 		.word	-692196969
 4602 1568 CC434089 		.word	-1992277044
 4603 156c 779ED967 		.word	1742315127
 4604 1570 BD42E8B0 		.word	-1326955843
 4605 1574 888B8907 		.word	126454664
 4606 1578 385B19E7 		.word	-417768648
 4607 157c DBEEC879 		.word	2043211483
 4608 1580 470A7CA1 		.word	-1585706425
 4609 1584 E90F427C 		.word	2084704233
 4610 1588 C91E84F8 		.word	-125559095
 4611 158c 00000000 		.word	0
 4612 1590 83868009 		.word	159417987
 4613 1594 48ED2B32 		.word	841739592
 4614 1598 AC70111E 		.word	504459436
 4615 159c 4E725A6C 		.word	1817866830
 4616 15a0 FBFF0EFD 		.word	-49348613
 4617 15a4 5638850F 		.word	260388950
 4618 15a8 1ED5AE3D 		.word	1034867998
 4619 15ac 27392D36 		.word	908933415
 4620 15b0 64D90F0A 		.word	168810852
 4621 15b4 21A65C68 		.word	1750902305
ARM GAS  C:\Users\ddemidov\AppData\Local\Temp\ccTwWFqA.s 			page 133


 4622 15b8 D1545B9B 		.word	-1688513327
 4623 15bc 3A2E3624 		.word	607530554
 4624 15c0 B1670A0C 		.word	202008497
 4625 15c4 0FE75793 		.word	-1822955761
 4626 15c8 D296EEB4 		.word	-1259432238
 4627 15cc 9E919B1B 		.word	463180190
 4628 15d0 4FC5C080 		.word	-2134850225
 4629 15d4 A220DC61 		.word	1641816226
 4630 15d8 694B775A 		.word	1517767529
 4631 15dc 161A121C 		.word	470948374
 4632 15e0 0ABA93E2 		.word	-493635062
 4633 15e4 E52AA0C0 		.word	-1063245083
 4634 15e8 43E0223C 		.word	1008918595
 4635 15ec 1D171B12 		.word	303765277
 4636 15f0 0B0D090E 		.word	235474187
 4637 15f4 ADC78BF2 		.word	-225720403
 4638 15f8 B9A8B62D 		.word	766945465
 4639 15fc C8A91E14 		.word	337553864
 4640 1600 8519F157 		.word	1475418501
 4641 1604 4C0775AF 		.word	-1351284916
 4642 1608 BBDD99EE 		.word	-291906117
 4643 160c FD607FA3 		.word	-1551933187
 4644 1610 9F2601F7 		.word	-150919521
 4645 1614 BCF5725C 		.word	1551037884
 4646 1618 C53B6644 		.word	1147550661
 4647 161c 347EFB5B 		.word	1543208500
 4648 1620 7629438B 		.word	-1958532746
 4649 1624 DCC623CB 		.word	-886847780
 4650 1628 68FCEDB6 		.word	-1225917336
 4651 162c 63F1E4B8 		.word	-1192955549
 4652 1630 CADC31D7 		.word	-684598070
 4653 1634 10856342 		.word	1113818384
 4654 1638 40229713 		.word	328671808
 4655 163c 2011C684 		.word	-2067394272
 4656 1640 7D244A85 		.word	-2058738563
 4657 1644 F83DBBD2 		.word	-759480840
 4658 1648 1132F9AE 		.word	-1359400431
 4659 164c 6DA129C7 		.word	-953573011
 4660 1650 4B2F9E1D 		.word	496906059
 4661 1654 F330B2DC 		.word	-592301837
 4662 1658 EC52860D 		.word	226906860
 4663 165c D0E3C177 		.word	2009195472
 4664 1660 6C16B32B 		.word	733156972
 4665 1664 99B970A9 		.word	-1452230247
 4666 1668 FA489411 		.word	294930682
 4667 166c 2264E947 		.word	1206477858
 4668 1670 C48CFCA8 		.word	-1459843900
 4669 1674 1A3FF0A0 		.word	-1594867942
 4670 1678 D82C7D56 		.word	1451044056
 4671 167c EF903322 		.word	573804783
 4672 1680 C74E4987 		.word	-2025238841
 4673 1684 C1D138D9 		.word	-650587711
 4674 1688 FEA2CA8C 		.word	-1932877058
 4675 168c 360BD498 		.word	-1730933962
 4676 1690 CF81F5A6 		.word	-1493859889
 4677 1694 28DE7AA5 		.word	-1518674392
 4678 1698 268EB7DA 		.word	-625504730
ARM GAS  C:\Users\ddemidov\AppData\Local\Temp\ccTwWFqA.s 			page 134


 4679 169c A4BFAD3F 		.word	1068351396
 4680 16a0 E49D3A2C 		.word	742039012
 4681 16a4 0D927850 		.word	1350078989
 4682 16a8 9BCC5F6A 		.word	1784663195
 4683 16ac 62467E54 		.word	1417561698
 4684 16b0 C2138DF6 		.word	-158526526
 4685 16b4 E8B8D890 		.word	-1864845080
 4686 16b8 5EF7392E 		.word	775550814
 4687 16bc F5AFC382 		.word	-2101104651
 4688 16c0 BE805D9F 		.word	-1621262146
 4689 16c4 7C93D069 		.word	1775276924
 4690 16c8 A92DD56F 		.word	1876241833
 4691 16cc B31225CF 		.word	-819653965
 4692 16d0 3B99ACC8 		.word	-928212677
 4693 16d4 A77D1810 		.word	270040487
 4694 16d8 6E639CE8 		.word	-392404114
 4695 16dc 7BBB3BDB 		.word	-616842373
 4696 16e0 097826CD 		.word	-853116919
 4697 16e4 F418596E 		.word	1851332852
 4698 16e8 01B79AEC 		.word	-325404927
 4699 16ec A89A4F83 		.word	-2091935064
 4700 16f0 656E95E6 		.word	-426414491
 4701 16f4 7EE6FFAA 		.word	-1426069890
 4702 16f8 08CFBC21 		.word	566021896
 4703 16fc E6E815EF 		.word	-283776794
 4704 1700 D99BE7BA 		.word	-1159226407
 4705 1704 CE366F4A 		.word	1248802510
 4706 1708 D4099FEA 		.word	-358676012
 4707 170c D67CB029 		.word	699432150
 4708 1710 AFB2A431 		.word	832877231
 4709 1714 31233F2A 		.word	708780849
 4710 1718 3094A5C6 		.word	-962227152
 4711 171c C066A235 		.word	899835584
 4712 1720 37BC4E74 		.word	1951317047
 4713 1724 A6CA82FC 		.word	-58537306
 4714 1728 B0D090E0 		.word	-527380304
 4715 172c 15D8A733 		.word	866637845
 4716 1730 4A9804F1 		.word	-251357110
 4717 1734 F7DAEC41 		.word	1106041591
 4718 1738 0E50CD7F 		.word	2144161806
 4719 173c 2FF69117 		.word	395441711
 4720 1740 8DD64D76 		.word	1984812685
 4721 1744 4DB0EF43 		.word	1139781709
 4722 1748 544DAACC 		.word	-861254316
 4723 174c DF0496E4 		.word	-459930401
 4724 1750 E3B5D19E 		.word	-1630423581
 4725 1754 1B886A4C 		.word	1282050075
 4726 1758 B81F2CC1 		.word	-1054072904
 4727 175c 7F516546 		.word	1181045119
 4728 1760 04EA5E9D 		.word	-1654724092
 4729 1764 5D358C01 		.word	25965917
 4730 1768 737487FA 		.word	-91786125
 4731 176c 2E410BFB 		.word	-83148498
 4732 1770 5A1D67B3 		.word	-1285087910
 4733 1774 52D2DB92 		.word	-1831087534
 4734 1778 335610E9 		.word	-384805325
 4735 177c 1347D66D 		.word	1842759443
ARM GAS  C:\Users\ddemidov\AppData\Local\Temp\ccTwWFqA.s 			page 135


 4736 1780 8C61D79A 		.word	-1697160820
 4737 1784 7A0CA137 		.word	933301370
 4738 1788 8E14F859 		.word	1509430414
 4739 178c 893C13EB 		.word	-351060855
 4740 1790 EE27A9CE 		.word	-827774994
 4741 1794 35C961B7 		.word	-1218328267
 4742 1798 EDE51CE1 		.word	-518199827
 4743 179c 3CB1477A 		.word	2051518780
 4744 17a0 59DFD29C 		.word	-1663901863
 4745 17a4 3F73F255 		.word	1441952575
 4746 17a8 79CE1418 		.word	404016761
 4747 17ac BF37C773 		.word	1942435775
 4748 17b0 EACDF753 		.word	1408749034
 4749 17b4 5BAAFD5F 		.word	1610459739
 4750 17b8 146F3DDF 		.word	-549621996
 4751 17bc 86DB4478 		.word	2017778566
 4752 17c0 81F3AFCA 		.word	-894438527
 4753 17c4 3EC468B9 		.word	-1184316354
 4754 17c8 2C342438 		.word	941896748
 4755 17cc 5F40A3C2 		.word	-1029488545
 4756 17d0 72C31D16 		.word	371049330
 4757 17d4 0C25E2BC 		.word	-1126030068
 4758 17d8 8B493C28 		.word	675039627
 4759 17dc 41950DFF 		.word	-15887039
 4760 17e0 7101A839 		.word	967311729
 4761 17e4 DEB30C08 		.word	135050206
 4762 17e8 9CE4B4D8 		.word	-659233636
 4763 17ec 90C15664 		.word	1683407248
 4764 17f0 6184CB7B 		.word	2076935265
 4765 17f4 70B632D5 		.word	-718096784
 4766 17f8 745C6C48 		.word	1215061108
 4767 17fc 4257B8D0 		.word	-793225406
 4768 1800 A7F45150 		.word	1347548327
 4769 1804 65417E53 		.word	1400783205
 4770 1808 A4171AC3 		.word	-1021700188
 4771 180c 5E273A96 		.word	-1774573730
 4772 1810 6BAB3BCB 		.word	-885281941
 4773 1814 459D1FF1 		.word	-249586363
 4774 1818 58FAACAB 		.word	-1414727080
 4775 181c 03E34B93 		.word	-1823743229
 4776 1820 FA302055 		.word	1428173050
 4777 1824 6D76ADF6 		.word	-156404115
 4778 1828 76CC8891 		.word	-1853305738
 4779 182c 4C02F525 		.word	636813900
 4780 1830 D7E54FFC 		.word	-61872681
 4781 1834 CB2AC5D7 		.word	-674944309
 4782 1838 44352680 		.word	-2144979644
 4783 183c A362B58F 		.word	-1883938141
 4784 1840 5AB1DE49 		.word	1239331162
 4785 1844 1BBA2567 		.word	1730525723
 4786 1848 0EEA4598 		.word	-1740248562
 4787 184c C0FE5DE1 		.word	-513933632
 4788 1850 752FC302 		.word	46346101
 4789 1854 F04C8112 		.word	310463728
 4790 1858 97468DA3 		.word	-1551022441
 4791 185c F9D36BC6 		.word	-966011911
 4792 1860 5F8F03E7 		.word	-419197089
ARM GAS  C:\Users\ddemidov\AppData\Local\Temp\ccTwWFqA.s 			page 136


 4793 1864 9C921595 		.word	-1793748324
 4794 1868 7A6DBFEB 		.word	-339776134
 4795 186c 595295DA 		.word	-627748263
 4796 1870 83BED42D 		.word	768917123
 4797 1874 217458D3 		.word	-749177823
 4798 1878 69E04929 		.word	692707433
 4799 187c C8C98E44 		.word	1150208456
 4800 1880 89C2756A 		.word	1786102409
 4801 1884 798EF478 		.word	2029293177
 4802 1888 3E58996B 		.word	1805211710
 4803 188c 71B927DD 		.word	-584599183
 4804 1890 4FE1BEB6 		.word	-1229004465
 4805 1894 AD88F017 		.word	401639597
 4806 1898 AC20C966 		.word	1724457132
 4807 189c 3ACE7DB4 		.word	-1266823622
 4808 18a0 4ADF6318 		.word	409198410
 4809 18a4 311AE582 		.word	-2098914767
 4810 18a8 33519760 		.word	1620529459
 4811 18ac 7F536245 		.word	1164071807
 4812 18b0 7764B1E0 		.word	-525245321
 4813 18b4 AE6BBB84 		.word	-2068091986
 4814 18b8 A081FE1C 		.word	486441376
 4815 18bc 2B08F994 		.word	-1795618773
 4816 18c0 68487058 		.word	1483753576
 4817 18c4 FD458F19 		.word	428819965
 4818 18c8 6CDE9487 		.word	-2020286868
 4819 18cc F87B52B7 		.word	-1219331080
 4820 18d0 D373AB23 		.word	598438867
 4821 18d4 024B72E2 		.word	-495826174
 4822 18d8 8F1FE357 		.word	1474502543
 4823 18dc AB55662A 		.word	711349675
 4824 18e0 28EBB207 		.word	129166120
 4825 18e4 C2B52F03 		.word	53458370
 4826 18e8 7BC5869A 		.word	-1702443653
 4827 18ec 0837D3A5 		.word	-1512884472
 4828 18f0 872830F2 		.word	-231724921
 4829 18f4 A5BF23B2 		.word	-1306280027
 4830 18f8 6A0302BA 		.word	-1174273174
 4831 18fc 8216ED5C 		.word	1559041666
 4832 1900 1CCF8A2B 		.word	730517276
 4833 1904 B479A792 		.word	-1834518092
 4834 1908 F207F3F0 		.word	-252508174
 4835 190c E2694EA1 		.word	-1588696606
 4836 1910 F4DA65CD 		.word	-848962828
 4837 1914 BE0506D5 		.word	-721025602
 4838 1918 6234D11F 		.word	533804130
 4839 191c FEA6C48A 		.word	-1966823682
 4840 1920 532E349D 		.word	-1657524653
 4841 1924 55F3A2A0 		.word	-1599933611
 4842 1928 E18A0532 		.word	839224033
 4843 192c EBF6A475 		.word	1973745387
 4844 1930 EC830B39 		.word	957055980
 4845 1934 EF6040AA 		.word	-1438621457
 4846 1938 9F715E06 		.word	106852767
 4847 193c 106EBD51 		.word	1371368976
 4848 1940 8A213EF9 		.word	-113368694
 4849 1944 06DD963D 		.word	1033297158
ARM GAS  C:\Users\ddemidov\AppData\Local\Temp\ccTwWFqA.s 			page 137


 4850 1948 053EDDAE 		.word	-1361232379
 4851 194c BDE64D46 		.word	1179510461
 4852 1950 8D5491B5 		.word	-1248766835
 4853 1954 5DC47105 		.word	91341917
 4854 1958 D406046F 		.word	1862534868
 4855 195c 155060FF 		.word	-10465259
 4856 1960 FB981924 		.word	605657339
 4857 1964 E9BDD697 		.word	-1747534359
 4858 1968 434089CC 		.word	-863420349
 4859 196c 9ED96777 		.word	2003294622
 4860 1970 42E8B0BD 		.word	-1112479678
 4861 1974 8B890788 		.word	-2012771957
 4862 1978 5B19E738 		.word	954669403
 4863 197c EEC879DB 		.word	-612775698
 4864 1980 0A7CA147 		.word	1201765386
 4865 1984 0F427CE9 		.word	-377732593
 4866 1988 1E84F8C9 		.word	-906460130
 4867 198c 00000000 		.word	0
 4868 1990 86800983 		.word	-2096529274
 4869 1994 ED2B3248 		.word	1211247597
 4870 1998 70111EAC 		.word	-1407315600
 4871 199c 725A6C4E 		.word	1315723890
 4872 19a0 FF0EFDFB 		.word	-67301633
 4873 19a4 38850F56 		.word	1443857720
 4874 19a8 D5AE3D1E 		.word	507358933
 4875 19ac 392D3627 		.word	657861945
 4876 19b0 D90F0A64 		.word	1678381017
 4877 19b4 A65C6821 		.word	560487590
 4878 19b8 545B9BD1 		.word	-778347692
 4879 19bc 2E36243A 		.word	975451694
 4880 19c0 670A0CB1 		.word	-1324610969
 4881 19c4 E757930F 		.word	261314535
 4882 19c8 96EEB4D2 		.word	-759894378
 4883 19cc 919B1B9E 		.word	-1642357871
 4884 19d0 C5C0804F 		.word	1333838021
 4885 19d4 20DC61A2 		.word	-1570644960
 4886 19d8 4B775A69 		.word	1767536459
 4887 19dc 1A121C16 		.word	370938394
 4888 19e0 BA93E20A 		.word	182621114
 4889 19e4 2AA0C0E5 		.word	-440360918
 4890 19e8 E0223C43 		.word	1128014560
 4891 19ec 171B121D 		.word	487725847
 4892 19f0 0D090E0B 		.word	185469197
 4893 19f4 C78BF2AD 		.word	-1376613433
 4894 19f8 A8B62DB9 		.word	-1188186456
 4895 19fc A91E14C8 		.word	-938205527
 4896 1a00 19F15785 		.word	-2057834215
 4897 1a04 0775AF4C 		.word	1286567175
 4898 1a08 DD99EEBB 		.word	-1141990947
 4899 1a0c 607FA3FD 		.word	-39616672
 4900 1a10 2601F79F 		.word	-1611202266
 4901 1a14 F5725CBC 		.word	-1134791947
 4902 1a18 3B6644C5 		.word	-985373125
 4903 1a1c 7EFB5B34 		.word	878443390
 4904 1a20 29438B76 		.word	1988838185
 4905 1a24 C623CBDC 		.word	-590666810
 4906 1a28 FCEDB668 		.word	1756818940
ARM GAS  C:\Users\ddemidov\AppData\Local\Temp\ccTwWFqA.s 			page 138


 4907 1a2c F1E4B863 		.word	1673061617
 4908 1a30 DC31D7CA 		.word	-891866660
 4909 1a34 85634210 		.word	272786309
 4910 1a38 22971340 		.word	1075025698
 4911 1a3c 11C68420 		.word	545572369
 4912 1a40 244A857D 		.word	2105887268
 4913 1a44 3DBBD2F8 		.word	-120407235
 4914 1a48 32F9AE11 		.word	296679730
 4915 1a4c A129C76D 		.word	1841768865
 4916 1a50 2F9E1D4B 		.word	1260232239
 4917 1a54 30B2DCF3 		.word	-203640272
 4918 1a58 52860DEC 		.word	-334657966
 4919 1a5c E3C177D0 		.word	-797457949
 4920 1a60 16B32B6C 		.word	1814803222
 4921 1a64 B970A999 		.word	-1716948807
 4922 1a68 489411FA 		.word	-99511224
 4923 1a6c 64E94722 		.word	575138148
 4924 1a70 8CFCA8C4 		.word	-995558260
 4925 1a74 3FF0A01A 		.word	446754879
 4926 1a78 2C7D56D8 		.word	-665420500
 4927 1a7c 903322EF 		.word	-282971248
 4928 1a80 4E4987C7 		.word	-947435186
 4929 1a84 D138D9C1 		.word	-1042728751
 4930 1a88 A2CA8CFE 		.word	-24327518
 4931 1a8c 0BD49836 		.word	915985419
 4932 1a90 81F5A6CF 		.word	-811141759
 4933 1a94 DE7AA528 		.word	681933534
 4934 1a98 8EB7DA26 		.word	651868046
 4935 1a9c BFAD3FA4 		.word	-1539330625
 4936 1aa0 9D3A2CE4 		.word	-466863459
 4937 1aa4 9278500D 		.word	223377554
 4938 1aa8 CC5F6A9B 		.word	-1687527476
 4939 1aac 467E5462 		.word	1649704518
 4940 1ab0 138DF6C2 		.word	-1024029421
 4941 1ab4 B8D890E8 		.word	-393160520
 4942 1ab8 F7392E5E 		.word	1580087799
 4943 1abc AFC382F5 		.word	-175979601
 4944 1ac0 805D9FBE 		.word	-1096852096
 4945 1ac4 93D0697C 		.word	2087309459
 4946 1ac8 2DD56FA9 		.word	-1452288723
 4947 1acc 1225CFB3 		.word	-1278270190
 4948 1ad0 99ACC83B 		.word	1003007129
 4949 1ad4 7D1810A7 		.word	-1492117379
 4950 1ad8 639CE86E 		.word	1860738147
 4951 1adc BB3BDB7B 		.word	2077965243
 4952 1ae0 7826CD09 		.word	164439672
 4953 1ae4 18596EF4 		.word	-194094824
 4954 1ae8 B79AEC01 		.word	32283319
 4955 1aec 9A4F83A8 		.word	-1467789414
 4956 1af0 6E95E665 		.word	1709610350
 4957 1af4 E6FFAA7E 		.word	2125135846
 4958 1af8 CFBC2108 		.word	136428751
 4959 1afc E815EFE6 		.word	-420538904
 4960 1b00 9BE7BAD9 		.word	-642062437
 4961 1b04 366F4ACE 		.word	-833982666
 4962 1b08 099FEAD4 		.word	-722821367
 4963 1b0c 7CB029D6 		.word	-701910916
ARM GAS  C:\Users\ddemidov\AppData\Local\Temp\ccTwWFqA.s 			page 139


 4964 1b10 B2A431AF 		.word	-1355701070
 4965 1b14 233F2A31 		.word	824852259
 4966 1b18 94A5C630 		.word	818324884
 4967 1b1c 66A235C0 		.word	-1070226842
 4968 1b20 BC4E7437 		.word	930369212
 4969 1b24 CA82FCA6 		.word	-1493400886
 4970 1b28 D090E0B0 		.word	-1327460144
 4971 1b2c D8A73315 		.word	355706840
 4972 1b30 9804F14A 		.word	1257309336
 4973 1b34 DAEC41F7 		.word	-146674470
 4974 1b38 50CD7F0E 		.word	243256656
 4975 1b3c F691172F 		.word	790073846
 4976 1b40 D64D768D 		.word	-1921626666
 4977 1b44 B0EF434D 		.word	1296297904
 4978 1b48 4DAACC54 		.word	1422699085
 4979 1b4c 0496E4DF 		.word	-538667516
 4980 1b50 B5D19EE3 		.word	-476130891
 4981 1b54 886A4C1B 		.word	457992840
 4982 1b58 1F2CC1B8 		.word	-1195299809
 4983 1b5c 5165467F 		.word	2135319889
 4984 1b60 EA5E9D04 		.word	77422314
 4985 1b64 358C015D 		.word	1560382517
 4986 1b68 7487FA73 		.word	1945798516
 4987 1b6c 410BFB2E 		.word	788204353
 4988 1b70 1D67B35A 		.word	1521706781
 4989 1b74 D2DB9252 		.word	1385356242
 4990 1b78 5610E933 		.word	870912086
 4991 1b7c 47D66D13 		.word	325965383
 4992 1b80 61D79A8C 		.word	-1936009375
 4993 1b84 0CA1377A 		.word	2050466060
 4994 1b88 14F8598E 		.word	-1906706412
 4995 1b8c 3C13EB89 		.word	-1981082820
 4996 1b90 27A9CEEE 		.word	-288446169
 4997 1b94 C961B735 		.word	901210569
 4998 1b98 E51CE1ED 		.word	-304014107
 4999 1b9c B1477A3C 		.word	1014646705
 5000 1ba0 DFD29C59 		.word	1503449823
 5001 1ba4 73F2553F 		.word	1062597235
 5002 1ba8 CE141879 		.word	2031621326
 5003 1bac 37C773BF 		.word	-1082931401
 5004 1bb0 CDF753EA 		.word	-363595827
 5005 1bb4 AAFD5F5B 		.word	1533017514
 5006 1bb8 6F3DDF14 		.word	350174575
 5007 1bbc DB447886 		.word	-2038938405
 5008 1bc0 F3AFCA81 		.word	-2117423117
 5009 1bc4 C468B93E 		.word	1052338372
 5010 1bc8 3424382C 		.word	741876788
 5011 1bcc 40A3C25F 		.word	1606591296
 5012 1bd0 C31D1672 		.word	1914052035
 5013 1bd4 25E2BC0C 		.word	213705253
 5014 1bd8 493C288B 		.word	-1960297399
 5015 1bdc 950DFF41 		.word	1107234197
 5016 1be0 01A83971 		.word	1899603969
 5017 1be4 B30C08DE 		.word	-569897805
 5018 1be8 E4B4D89C 		.word	-1663519516
 5019 1bec C1566490 		.word	-1872472383
 5020 1bf0 84CB7B61 		.word	1635502980
ARM GAS  C:\Users\ddemidov\AppData\Local\Temp\ccTwWFqA.s 			page 140


 5021 1bf4 B632D570 		.word	1893020342
 5022 1bf8 5C6C4874 		.word	1950903388
 5023 1bfc 57B8D042 		.word	1120974935
 5024 1c00 F45150A7 		.word	-1487908364
 5025 1c04 417E5365 		.word	1699970625
 5026 1c08 171AC3A4 		.word	-1530717673
 5027 1c0c 273A965E 		.word	1586903591
 5028 1c10 AB3BCB6B 		.word	1808481195
 5029 1c14 9D1FF145 		.word	1173430173
 5030 1c18 FAACAB58 		.word	1487645946
 5031 1c1c E34B9303 		.word	59984867
 5032 1c20 302055FA 		.word	-95084496
 5033 1c24 76ADF66D 		.word	1844882806
 5034 1c28 CC889176 		.word	1989249228
 5035 1c2c 02F5254C 		.word	1277555970
 5036 1c30 E54FFCD7 		.word	-671330331
 5037 1c34 2AC5D7CB 		.word	-875051734
 5038 1c38 35268044 		.word	1149249077
 5039 1c3c 62B58FA3 		.word	-1550863006
 5040 1c40 B1DE495A 		.word	1514790577
 5041 1c44 BA25671B 		.word	459744698
 5042 1c48 EA45980E 		.word	244860394
 5043 1c4c FE5DE1C0 		.word	-1058972162
 5044 1c50 2FC30275 		.word	1963115311
 5045 1c54 4C8112F0 		.word	-267222708
 5046 1c58 468DA397 		.word	-1750889146
 5047 1c5c D36BC6F9 		.word	-104436781
 5048 1c60 8F03E75F 		.word	1608975247
 5049 1c64 9215959C 		.word	-1667951214
 5050 1c68 6DBFEB7A 		.word	2062270317
 5051 1c6c 5295DA59 		.word	1507497298
 5052 1c70 BED42D83 		.word	-2094148418
 5053 1c74 7458D321 		.word	567498868
 5054 1c78 E0492969 		.word	1764313568
 5055 1c7c C98E44C8 		.word	-935031095
 5056 1c80 C2756A89 		.word	-1989511742
 5057 1c84 8EF47879 		.word	2037970062
 5058 1c88 58996B3E 		.word	1047239000
 5059 1c8c B927DD71 		.word	1910319033
 5060 1c90 E1BEB64F 		.word	1337376481
 5061 1c94 88F017AD 		.word	-1390940024
 5062 1c98 20C966AC 		.word	-1402549984
 5063 1c9c CE7DB43A 		.word	984907214
 5064 1ca0 DF63184A 		.word	1243112415
 5065 1ca4 1AE58231 		.word	830661914
 5066 1ca8 51976033 		.word	861968209
 5067 1cac 5362457F 		.word	2135253587
 5068 1cb0 64B1E077 		.word	2011214180
 5069 1cb4 6BBB84AE 		.word	-1367032981
 5070 1cb8 81FE1CA0 		.word	-1608712575
 5071 1cbc 08F9942B 		.word	731183368
 5072 1cc0 48705868 		.word	1750626376
 5073 1cc4 458F19FD 		.word	-48656571
 5074 1cc8 DE94876C 		.word	1820824798
 5075 1ccc 7B52B7F8 		.word	-122203525
 5076 1cd0 73AB23D3 		.word	-752637069
 5077 1cd4 4B72E202 		.word	48394827
ARM GAS  C:\Users\ddemidov\AppData\Local\Temp\ccTwWFqA.s 			page 141


 5078 1cd8 1FE3578F 		.word	-1890065633
 5079 1cdc 55662AAB 		.word	-1423284651
 5080 1ce0 EBB20728 		.word	671593195
 5081 1ce4 B52F03C2 		.word	-1039978571
 5082 1ce8 C5869A7B 		.word	2073724613
 5083 1cec 37D3A508 		.word	145085239
 5084 1cf0 2830F287 		.word	-2014171096
 5085 1cf4 BF23B2A5 		.word	-1515052097
 5086 1cf8 0302BA6A 		.word	1790575107
 5087 1cfc 16ED5C82 		.word	-2107839210
 5088 1d00 CF8A2B1C 		.word	472615631
 5089 1d04 79A792B4 		.word	-1265457287
 5090 1d08 07F3F0F2 		.word	-219090169
 5091 1d0c 694EA1E2 		.word	-492745111
 5092 1d10 DA65CDF4 		.word	-187865638
 5093 1d14 0506D5BE 		.word	-1093335547
 5094 1d18 34D11F62 		.word	1646252340
 5095 1d1c A6C48AFE 		.word	-24460122
 5096 1d20 2E349D53 		.word	1402811438
 5097 1d24 F3A2A055 		.word	1436590835
 5098 1d28 8A0532E1 		.word	-516815478
 5099 1d2c F6A475EB 		.word	-344611594
 5100 1d30 830B39EC 		.word	-331805821
 5101 1d34 6040AAEF 		.word	-274055072
 5102 1d38 715E069F 		.word	-1626972559
 5103 1d3c 6EBD5110 		.word	273792366
 5104 1d40 213EF98A 		.word	-1963377119
 5105 1d44 DD963D06 		.word	104699613
 5106 1d48 3EDDAE05 		.word	95345982
 5107 1d4c E64D46BD 		.word	-1119466010
 5108 1d50 5491B58D 		.word	-1917480620
 5109 1d54 C471055D 		.word	1560637892
 5110 1d58 06046FD4 		.word	-730921978
 5111 1d5c 5060FF15 		.word	369057872
 5112 1d60 981924FB 		.word	-81520232
 5113 1d64 BDD697E9 		.word	-375925059
 5114 1d68 4089CC43 		.word	1137477952
 5115 1d6c D967779E 		.word	-1636341799
 5116 1d70 E8B0BD42 		.word	1119727848
 5117 1d74 8907888B 		.word	-1954019447
 5118 1d78 19E7385B 		.word	1530455833
 5119 1d7c C879DBEE 		.word	-287606328
 5120 1d80 7CA1470A 		.word	172466556
 5121 1d84 427CE90F 		.word	266959938
 5122 1d88 84F8C91E 		.word	516552836
 5123 1d8c 00000000 		.word	0
 5124 1d90 80098386 		.word	-2038232704
 5125 1d94 2B3248ED 		.word	-314035669
 5126 1d98 111EAC70 		.word	1890328081
 5127 1d9c 5A6C4E72 		.word	1917742170
 5128 1da0 0EFDFBFF 		.word	-262898
 5129 1da4 850F5638 		.word	945164165
 5130 1da8 AE3D1ED5 		.word	-719438418
 5131 1dac 2D362739 		.word	958871085
 5132 1db0 0F0A64D9 		.word	-647755249
 5133 1db4 5C6821A6 		.word	-1507760036
 5134 1db8 5B9BD154 		.word	1423022939
ARM GAS  C:\Users\ddemidov\AppData\Local\Temp\ccTwWFqA.s 			page 142


 5135 1dbc 36243A2E 		.word	775562294
 5136 1dc0 0A0CB167 		.word	1739656202
 5137 1dc4 57930FE7 		.word	-418409641
 5138 1dc8 EEB4D296 		.word	-1764576018
 5139 1dcc 9B1B9E91 		.word	-1851909221
 5140 1dd0 C0804FC5 		.word	-984645440
 5141 1dd4 DC61A220 		.word	547512796
 5142 1dd8 775A694B 		.word	1265195639
 5143 1ddc 121C161A 		.word	437656594
 5144 1de0 93E20ABA 		.word	-1173691757
 5145 1de4 A0C0E52A 		.word	719700128
 5146 1de8 223C43E0 		.word	-532464606
 5147 1dec 1B121D17 		.word	387781147
 5148 1df0 090E0B0D 		.word	218828297
 5149 1df4 8BF2ADC7 		.word	-944901493
 5150 1df8 B62DB9A8 		.word	-1464259146
 5151 1dfc 1E14C8A9 		.word	-1446505442
 5152 1e00 F1578519 		.word	428169201
 5153 1e04 75AF4C07 		.word	122466165
 5154 1e08 99EEBBDD 		.word	-574886247
 5155 1e0c 7FA3FD60 		.word	1627235199
 5156 1e10 01F79F26 		.word	648017665
 5157 1e14 725CBCF5 		.word	-172204942
 5158 1e18 6644C53B 		.word	1002783846
 5159 1e1c FB5B347E 		.word	2117360635
 5160 1e20 438B7629 		.word	695634755
 5161 1e24 23CBDCC6 		.word	-958608605
 5162 1e28 EDB668FC 		.word	-60246291
 5163 1e2c E4B863F1 		.word	-245122844
 5164 1e30 31D7CADC 		.word	-590686415
 5165 1e34 63421085 		.word	-2062531997
 5166 1e38 97134022 		.word	574624663
 5167 1e3c C6842011 		.word	287343814
 5168 1e40 4A857D24 		.word	612205898
 5169 1e44 BBD2F83D 		.word	1039717051
 5170 1e48 F9AE1132 		.word	840019705
 5171 1e4c 29C76DA1 		.word	-1586641111
 5172 1e50 9E1D4B2F 		.word	793451934
 5173 1e54 B2DCF330 		.word	821288114
 5174 1e58 860DEC52 		.word	1391201670
 5175 1e5c C177D0E3 		.word	-472877119
 5176 1e60 B32B6C16 		.word	376187827
 5177 1e64 70A999B9 		.word	-1181111952
 5178 1e68 9411FA48 		.word	1224348052
 5179 1e6c E9472264 		.word	1679968233
 5180 1e70 FCA8C48C 		.word	-1933268740
 5181 1e74 F0A01A3F 		.word	1058709744
 5182 1e78 7D56D82C 		.word	752375421
 5183 1e7c 3322EF90 		.word	-1863376333
 5184 1e80 4987C74E 		.word	1321699145
 5185 1e84 38D9C1D1 		.word	-775825096
 5186 1e88 CA8CFEA2 		.word	-1560376118
 5187 1e8c D498360B 		.word	188127444
 5188 1e90 F5A6CF81 		.word	-2117097739
 5189 1e94 7AA528DE 		.word	-567761542
 5190 1e98 B7DA268E 		.word	-1910056265
 5191 1e9c AD3FA4BF 		.word	-1079754835
ARM GAS  C:\Users\ddemidov\AppData\Local\Temp\ccTwWFqA.s 			page 143


 5192 1ea0 3A2CE49D 		.word	-1645990854
 5193 1ea4 78500D92 		.word	-1844621192
 5194 1ea8 5F6A9BCC 		.word	-862229921
 5195 1eac 7E546246 		.word	1180849278
 5196 1eb0 8DF6C213 		.word	331544205
 5197 1eb4 D890E8B8 		.word	-1192718120
 5198 1eb8 392E5EF7 		.word	-144822727
 5199 1ebc C382F5AF 		.word	-1342864701
 5200 1ec0 5D9FBE80 		.word	-2134991011
 5201 1ec4 D0697C93 		.word	-1820562992
 5202 1ec8 D56FA92D 		.word	766078933
 5203 1ecc 25CFB312 		.word	313773861
 5204 1ed0 ACC83B99 		.word	-1724135252
 5205 1ed4 1810A77D 		.word	2108100632
 5206 1ed8 9CE86E63 		.word	1668212892
 5207 1edc 3BDB7BBB 		.word	-1149510853
 5208 1ee0 26CD0978 		.word	2013908262
 5209 1ee4 596EF418 		.word	418672217
 5210 1ee8 9AEC01B7 		.word	-1224610662
 5211 1eec 4F83A89A 		.word	-1700232369
 5212 1ef0 95E6656E 		.word	1852171925
 5213 1ef4 FFAA7EE6 		.word	-427906305
 5214 1ef8 BC2108CF 		.word	-821550660
 5215 1efc 15EFE6E8 		.word	-387518699
 5216 1f00 E7BAD99B 		.word	-1680229657
 5217 1f04 6F4ACE36 		.word	919489135
 5218 1f08 9FEAD409 		.word	164948639
 5219 1f0c B029D67C 		.word	2094410160
 5220 1f10 A431AFB2 		.word	-1297141340
 5221 1f14 3F2A3123 		.word	590424639
 5222 1f18 A5C63094 		.word	-1808742747
 5223 1f1c A235C066 		.word	1723872674
 5224 1f20 4E7437BC 		.word	-1137216434
 5225 1f24 82FCA6CA 		.word	-895026046
 5226 1f28 90E0B0D0 		.word	-793714544
 5227 1f2c A73315D8 		.word	-669699161
 5228 1f30 04F14A98 		.word	-1739919100
 5229 1f34 EC41F7DA 		.word	-621329940
 5230 1f38 CD7F0E50 		.word	1343127501
 5231 1f3c 91172FF6 		.word	-164685935
 5232 1f40 4D768DD6 		.word	-695372211
 5233 1f44 EF434DB0 		.word	-1337113617
 5234 1f48 AACC544D 		.word	1297403050
 5235 1f4c 96E4DF04 		.word	81781910
 5236 1f50 D19EE3B5 		.word	-1243373871
 5237 1f54 6A4C1B88 		.word	-2011476886
 5238 1f58 2CC1B81F 		.word	532201772
 5239 1f5c 65467F51 		.word	1367295589
 5240 1f60 5E9D04EA 		.word	-368796322
 5241 1f64 8C015D35 		.word	895287692
 5242 1f68 87FA7374 		.word	1953757831
 5243 1f6c 0BFB2E41 		.word	1093597963
 5244 1f70 67B35A1D 		.word	492483431
 5245 1f74 DB9252D2 		.word	-766340389
 5246 1f78 10E93356 		.word	1446242576
 5247 1f7c D66D1347 		.word	1192455638
 5248 1f80 D79A8C61 		.word	1636604631
ARM GAS  C:\Users\ddemidov\AppData\Local\Temp\ccTwWFqA.s 			page 144


 5249 1f84 A1377A0C 		.word	209336225
 5250 1f88 F8598E14 		.word	344873464
 5251 1f8c 13EB893C 		.word	1015671571
 5252 1f90 A9CEEE27 		.word	669961897
 5253 1f94 61B735C9 		.word	-919226527
 5254 1f98 1CE1EDE5 		.word	-437395172
 5255 1f9c 477A3CB1 		.word	-1321436601
 5256 1fa0 D29C59DF 		.word	-547775278
 5257 1fa4 F2553F73 		.word	1933530610
 5258 1fa8 141879CE 		.word	-830924780
 5259 1fac C773BF37 		.word	935293895
 5260 1fb0 F753EACD 		.word	-840281097
 5261 1fb4 FD5F5BAA 		.word	-1436852227
 5262 1fb8 3DDF146F 		.word	1863638845
 5263 1fbc 447886DB 		.word	-611944380
 5264 1fc0 AFCA81F3 		.word	-209597777
 5265 1fc4 68B93EC4 		.word	-1002522264
 5266 1fc8 24382C34 		.word	875313188
 5267 1fcc A3C25F40 		.word	1080017571
 5268 1fd0 1D1672C3 		.word	-1015933411
 5269 1fd4 E2BC0C25 		.word	621591778
 5270 1fd8 3C288B49 		.word	1233856572
 5271 1fdc 0DFF4195 		.word	-1790836979
 5272 1fe0 A8397101 		.word	24197544
 5273 1fe4 0C08DEB3 		.word	-1277294580
 5274 1fe8 B4D89CE4 		.word	-459482956
 5275 1fec 566490C1 		.word	-1047501738
 5276 1ff0 CB7B6184 		.word	-2073986101
 5277 1ff4 32D570B6 		.word	-1234119374
 5278 1ff8 6C48745C 		.word	1551124588
 5279 1ffc B8D04257 		.word	1463996600
 5280 2000 5150A7F4 		.word	-190361519
 5281 2004 7E536541 		.word	1097159550
 5282 2008 1AC3A417 		.word	396673818
 5283 200c 3A965E27 		.word	660510266
 5284 2010 3BCB6BAB 		.word	-1418998981
 5285 2014 1FF1459D 		.word	-1656360673
 5286 2018 ACAB58FA 		.word	-94852180
 5287 201c 4B9303E3 		.word	-486304949
 5288 2020 2055FA30 		.word	821712160
 5289 2024 ADF66D76 		.word	1986918061
 5290 2028 889176CC 		.word	-864644728
 5291 202c F5254C02 		.word	38544885
 5292 2030 4FFCD7E5 		.word	-438830001
 5293 2034 C5D7CB2A 		.word	718002117
 5294 2038 26804435 		.word	893681702
 5295 203c B58FA362 		.word	1654886325
 5296 2040 DE495AB1 		.word	-1319482914
 5297 2044 25671BBA 		.word	-1172609243
 5298 2048 45980EEA 		.word	-368142267
 5299 204c 5DE1C0FE 		.word	-20913827
 5300 2050 C302752F 		.word	796197571
 5301 2054 8112F04C 		.word	1290801793
 5302 2058 8DA39746 		.word	1184342925
 5303 205c 6BC6F9D3 		.word	-738605461
 5304 2060 03E75F8F 		.word	-1889540349
 5305 2064 15959C92 		.word	-1835231979
ARM GAS  C:\Users\ddemidov\AppData\Local\Temp\ccTwWFqA.s 			page 145


 5306 2068 BFEB7A6D 		.word	1836772287
 5307 206c 95DA5952 		.word	1381620373
 5308 2070 D42D83BE 		.word	-1098699308
 5309 2074 58D32174 		.word	1948373848
 5310 2078 492969E0 		.word	-529979063
 5311 207c 8E44C8C9 		.word	-909622130
 5312 2080 756A89C2 		.word	-1031181707
 5313 2084 F478798E 		.word	-1904641804
 5314 2088 996B3E58 		.word	1480485785
 5315 208c 27DD71B9 		.word	-1183720153
 5316 2090 BEB64FE1 		.word	-514869570
 5317 2094 F017AD88 		.word	-2001922064
 5318 2098 C966AC20 		.word	548169417
 5319 209c 7DB43ACE 		.word	-835013507
 5320 20a0 63184ADF 		.word	-548792221
 5321 20a4 E582311A 		.word	439452389
 5322 20a8 97603351 		.word	1362321559
 5323 20ac 62457F53 		.word	1400849762
 5324 20b0 B1E07764 		.word	1685577905
 5325 20b4 BB84AE6B 		.word	1806599355
 5326 20b8 FE1CA081 		.word	-2120213250
 5327 20bc F9942B08 		.word	137073913
 5328 20c0 70586848 		.word	1214797936
 5329 20c4 8F19FD45 		.word	1174215055
 5330 20c8 94876CDE 		.word	-563312748
 5331 20cc 52B7F87B 		.word	2079897426
 5332 20d0 AB23D373 		.word	1943217067
 5333 20d4 72E2024B 		.word	1258480242
 5334 20d8 E3578F1F 		.word	529487843
 5335 20dc 662AAB55 		.word	1437280870
 5336 20e0 B20728EB 		.word	-349698126
 5337 20e4 2F03C2B5 		.word	-1245576401
 5338 20e8 869A7BC5 		.word	-981755258
 5339 20ec D3A50837 		.word	923313619
 5340 20f0 30F28728 		.word	679998000
 5341 20f4 23B2A5BF 		.word	-1079659997
 5342 20f8 02BA6A03 		.word	57326082
 5343 20fc ED5C8216 		.word	377642221
 5344 2100 8A2B1CCF 		.word	-820237430
 5345 2104 A792B479 		.word	2041877159
 5346 2108 F3F0F207 		.word	133361907
 5347 210c 4EA1E269 		.word	1776460110
 5348 2110 65CDF4DA 		.word	-621490843
 5349 2114 06D5BE05 		.word	96392454
 5350 2118 D11F6234 		.word	878845905
 5351 211c C48AFEA6 		.word	-1493267772
 5352 2120 349D532E 		.word	777231668
 5353 2124 A2A055F3 		.word	-212492126
 5354 2128 0532E18A 		.word	-1964953083
 5355 212c A475EBF6 		.word	-152341084
 5356 2130 0B39EC83 		.word	-2081670901
 5357 2134 40AAEF60 		.word	1626319424
 5358 2138 5E069F71 		.word	1906247262
 5359 213c BD51106E 		.word	1846563261
 5360 2140 3EF98A21 		.word	562755902
 5361 2144 963D06DD 		.word	-586793578
 5362 2148 DDAE053E 		.word	1040559837
ARM GAS  C:\Users\ddemidov\AppData\Local\Temp\ccTwWFqA.s 			page 146


 5363 214c 4D46BDE6 		.word	-423803315
 5364 2150 91B58D54 		.word	1418573201
 5365 2154 71055DC4 		.word	-1000536719
 5366 2158 046FD406 		.word	114585348
 5367 215c 60FF1550 		.word	1343618912
 5368 2160 1924FB98 		.word	-1728371687
 5369 2164 D697E9BD 		.word	-1108764714
 5370 2168 89CC4340 		.word	1078185097
 5371 216c 67779ED9 		.word	-643926169
 5372 2170 B0BD42E8 		.word	-398279248
 5373 2174 07888B89 		.word	-1987344377
 5374 2178 E7385B19 		.word	425408743
 5375 217c 79DBEEC8 		.word	-923870343
 5376 2180 A1470A7C 		.word	2081048481
 5377 2184 7CE90F42 		.word	1108339068
 5378 2188 F8C91E84 		.word	-2078357000
 5379 218c 00000000 		.word	0
 5380 2190 09838680 		.word	-2138668279
 5381 2194 3248ED2B 		.word	736970802
 5382 2198 1EAC7011 		.word	292596766
 5383 219c 6C4E725A 		.word	1517440620
 5384 21a0 FDFBFF0E 		.word	251657213
 5385 21a4 0F563885 		.word	-2059905521
 5386 21a8 3D1ED5AE 		.word	-1361764803
 5387 21ac 3627392D 		.word	758720310
 5388 21b0 0A64D90F 		.word	265905162
 5389 21b4 6821A65C 		.word	1554391400
 5390 21b8 9BD1545B 		.word	1532285339
 5391 21bc 243A2E36 		.word	908999204
 5392 21c0 0CB1670A 		.word	174567692
 5393 21c4 930FE757 		.word	1474760595
 5394 21c8 B4D296EE 		.word	-292105548
 5395 21cc 1B9E919B 		.word	-1684955621
 5396 21d0 804FC5C0 		.word	-1060810880
 5397 21d4 61A220DC 		.word	-601841055
 5398 21d8 5A694B77 		.word	2001430874
 5399 21dc 1C161A12 		.word	303699484
 5400 21e0 E20ABA93 		.word	-1816524062
 5401 21e4 C0E52AA0 		.word	-1607801408
 5402 21e8 3C43E022 		.word	585122620
 5403 21ec 121D171B 		.word	454499602
 5404 21f0 0E0B0D09 		.word	151849742
 5405 21f4 F2ADC78B 		.word	-1949848078
 5406 21f8 2DB9A8B6 		.word	-1230456531
 5407 21fc 14C8A91E 		.word	514443284
 5408 2200 578519F1 		.word	-249985705
 5409 2204 AF4C0775 		.word	1963412655
 5410 2208 EEBBDD99 		.word	-1713521682
 5411 220c A3FD607F 		.word	2137062819
 5412 2210 F79F2601 		.word	19308535
 5413 2214 5CBCF572 		.word	1928707164
 5414 2218 44C53B66 		.word	1715193156
 5415 221c 5B347EFB 		.word	-75615141
 5416 2220 8B762943 		.word	1126790795
 5417 2224 CBDCC623 		.word	600235211
 5418 2228 B668FCED 		.word	-302225226
 5419 222c B863F1E4 		.word	-453942344
ARM GAS  C:\Users\ddemidov\AppData\Local\Temp\ccTwWFqA.s 			page 147


 5420 2230 D7CADC31 		.word	836553431
 5421 2234 42108563 		.word	1669664834
 5422 2238 13402297 		.word	-1759363053
 5423 223c 842011C6 		.word	-971956092
 5424 2240 857D244A 		.word	1243905413
 5425 2244 D2F83DBB 		.word	-1153566510
 5426 2248 AE1132F9 		.word	-114159186
 5427 224c C76DA129 		.word	698445255
 5428 2250 1D4B2F9E 		.word	-1641067747
 5429 2254 DCF330B2 		.word	-1305414692
 5430 2258 0DEC5286 		.word	-2041385971
 5431 225c 77D0E3C1 		.word	-1042034569
 5432 2260 2B6C16B3 		.word	-1290376149
 5433 2264 A999B970 		.word	1891211689
 5434 2268 11FA4894 		.word	-1807156719
 5435 226c 472264E9 		.word	-379313593
 5436 2270 A8C48CFC 		.word	-57883480
 5437 2274 A01A3FF0 		.word	-264299872
 5438 2278 56D82C7D 		.word	2100090966
 5439 227c 22EF9033 		.word	865136418
 5440 2280 87C74E49 		.word	1229899655
 5441 2284 D9C1D138 		.word	953270745
 5442 2288 8CFEA2CA 		.word	-895287668
 5443 228c 98360BD4 		.word	-737462632
 5444 2290 A6CF81F5 		.word	-176042074
 5445 2294 A528DE7A 		.word	2061379749
 5446 2298 DA268EB7 		.word	-1215420710
 5447 229c 3FA4BFAD 		.word	-1379949505
 5448 22a0 2CE49D3A 		.word	983426092
 5449 22a4 500D9278 		.word	2022837584
 5450 22a8 6A9BCC5F 		.word	1607244650
 5451 22ac 5462467E 		.word	2118541908
 5452 22b0 F6C2138D 		.word	-1928084746
 5453 22b4 90E8B8D8 		.word	-658970480
 5454 22b8 2E5EF739 		.word	972512814
 5455 22bc 82F5AFC3 		.word	-1011878526
 5456 22c0 9FBE805D 		.word	1568718495
 5457 22c4 697C93D0 		.word	-795640727
 5458 22c8 6FA92DD5 		.word	-718427793
 5459 22cc CFB31225 		.word	621982671
 5460 22d0 C83B99AC 		.word	-1399243832
 5461 22d4 10A77D18 		.word	410887952
 5462 22d8 E86E639C 		.word	-1671205144
 5463 22dc DB7BBB3B 		.word	1002142683
 5464 22e0 CD097826 		.word	645401037
 5465 22e4 6EF41859 		.word	1494807662
 5466 22e8 EC01B79A 		.word	-1699282452
 5467 22ec 83A89A4F 		.word	1335535747
 5468 22f0 E6656E95 		.word	-1787927066
 5469 22f4 AA7EE6FF 		.word	-1671510
 5470 22f8 2108CFBC 		.word	-1127282655
 5471 22fc EFE6E815 		.word	367585007
 5472 2300 BAD99BE7 		.word	-409216582
 5473 2304 4ACE366F 		.word	1865862730
 5474 2308 EAD4099F 		.word	-1626745622
 5475 230c 29D67CB0 		.word	-1333995991
 5476 2310 31AFB2A4 		.word	-1531793615
ARM GAS  C:\Users\ddemidov\AppData\Local\Temp\ccTwWFqA.s 			page 148


 5477 2314 2A31233F 		.word	1059270954
 5478 2318 C63094A5 		.word	-1517014842
 5479 231c 35C066A2 		.word	-1570324427
 5480 2320 7437BC4E 		.word	1320957812
 5481 2324 FCA6CA82 		.word	-2100648196
 5482 2328 E0B0D090 		.word	-1865371424
 5483 232c 3315D8A7 		.word	-1479011021
 5484 2330 F14A9804 		.word	77089521
 5485 2334 41F7DAEC 		.word	-321194175
 5486 2338 7F0E50CD 		.word	-850391425
 5487 233c 172FF691 		.word	-1846137065
 5488 2340 768DD64D 		.word	1305906550
 5489 2344 434DB0EF 		.word	-273658557
 5490 2348 CC544DAA 		.word	-1437772596
 5491 234c E4DF0496 		.word	-1778065436
 5492 2350 9EE3B5D1 		.word	-776608866
 5493 2354 4C1B886A 		.word	1787304780
 5494 2358 C1B81F2C 		.word	740276417
 5495 235c 467F5165 		.word	1699839814
 5496 2360 9D04EA5E 		.word	1592394909
 5497 2364 015D358C 		.word	-1942659839
 5498 2368 FA737487 		.word	-2022411270
 5499 236c FB2E410B 		.word	188821243
 5500 2370 B35A1D67 		.word	1729977011
 5501 2374 9252D2DB 		.word	-606973294
 5502 2378 E9335610 		.word	274084841
 5503 237c 6D1347D6 		.word	-699985043
 5504 2380 9A8C61D7 		.word	-681472870
 5505 2384 377A0CA1 		.word	-1593017801
 5506 2388 598E14F8 		.word	-132870567
 5507 238c EB893C13 		.word	322734571
 5508 2390 CEEE27A9 		.word	-1457000754
 5509 2394 B735C961 		.word	1640576439
 5510 2398 E1EDE51C 		.word	484830689
 5511 239c 7A3CB147 		.word	1202797690
 5512 23a0 9C59DFD2 		.word	-757114468
 5513 23a4 553F73F2 		.word	-227328171
 5514 23a8 1879CE14 		.word	349075736
 5515 23ac 73BF37C7 		.word	-952647821
 5516 23b0 53EACDF7 		.word	-137500077
 5517 23b4 5F5BAAFD 		.word	-39167137
 5518 23b8 DF146F3D 		.word	1030690015
 5519 23bc 7886DB44 		.word	1155237496
 5520 23c0 CA81F3AF 		.word	-1342996022
 5521 23c4 B93EC468 		.word	1757691577
 5522 23c8 382C3424 		.word	607398968
 5523 23cc C25F40A3 		.word	-1556062270
 5524 23d0 1672C31D 		.word	499347990
 5525 23d4 BC0C25E2 		.word	-500888388
 5526 23d8 288B493C 		.word	1011452712
 5527 23dc FF41950D 		.word	227885567
 5528 23e0 397101A8 		.word	-1476300487
 5529 23e4 08DEB30C 		.word	213114376
 5530 23e8 D89CE4B4 		.word	-1260086056
 5531 23ec 6490C156 		.word	1455525988
 5532 23f0 7B6184CB 		.word	-880516741
 5533 23f4 D570B632 		.word	850817237
ARM GAS  C:\Users\ddemidov\AppData\Local\Temp\ccTwWFqA.s 			page 149


 5534 23f8 48745C6C 		.word	1817998408
 5535 23fc D04257B8 		.word	-1202240816
 5536 2400 52525252 		.word	1381126738
 5537 2404 09090909 		.word	151587081
 5538 2408 6A6A6A6A 		.word	1785358954
 5539 240c D5D5D5D5 		.word	-707406379
 5540 2410 30303030 		.word	808464432
 5541 2414 36363636 		.word	909522486
 5542 2418 A5A5A5A5 		.word	-1515870811
 5543 241c 38383838 		.word	943208504
 5544 2420 BFBFBFBF 		.word	-1077952577
 5545 2424 40404040 		.word	1077952576
 5546 2428 A3A3A3A3 		.word	-1549556829
 5547 242c 9E9E9E9E 		.word	-1633771874
 5548 2430 81818181 		.word	-2122219135
 5549 2434 F3F3F3F3 		.word	-202116109
 5550 2438 D7D7D7D7 		.word	-673720361
 5551 243c FBFBFBFB 		.word	-67372037
 5552 2440 7C7C7C7C 		.word	2088533116
 5553 2444 E3E3E3E3 		.word	-471604253
 5554 2448 39393939 		.word	960051513
 5555 244c 82828282 		.word	-2105376126
 5556 2450 9B9B9B9B 		.word	-1684300901
 5557 2454 2F2F2F2F 		.word	791621423
 5558 2458 FFFFFFFF 		.word	-1
 5559 245c 87878787 		.word	-2021161081
 5560 2460 34343434 		.word	875836468
 5561 2464 8E8E8E8E 		.word	-1903260018
 5562 2468 43434343 		.word	1128481603
 5563 246c 44444444 		.word	1145324612
 5564 2470 C4C4C4C4 		.word	-993737532
 5565 2474 DEDEDEDE 		.word	-555819298
 5566 2478 E9E9E9E9 		.word	-370546199
 5567 247c CBCBCBCB 		.word	-875836469
 5568 2480 54545454 		.word	1414812756
 5569 2484 7B7B7B7B 		.word	2071690107
 5570 2488 94949494 		.word	-1802201964
 5571 248c 32323232 		.word	842150450
 5572 2490 A6A6A6A6 		.word	-1499027802
 5573 2494 C2C2C2C2 		.word	-1027423550
 5574 2498 23232323 		.word	589505315
 5575 249c 3D3D3D3D 		.word	1027423549
 5576 24a0 EEEEEEEE 		.word	-286331154
 5577 24a4 4C4C4C4C 		.word	1280068684
 5578 24a8 95959595 		.word	-1785358955
 5579 24ac 0B0B0B0B 		.word	185273099
 5580 24b0 42424242 		.word	1111638594
 5581 24b4 FAFAFAFA 		.word	-84215046
 5582 24b8 C3C3C3C3 		.word	-1010580541
 5583 24bc 4E4E4E4E 		.word	1313754702
 5584 24c0 08080808 		.word	134744072
 5585 24c4 2E2E2E2E 		.word	774778414
 5586 24c8 A1A1A1A1 		.word	-1583242847
 5587 24cc 66666666 		.word	1717986918
 5588 24d0 28282828 		.word	673720360
 5589 24d4 D9D9D9D9 		.word	-640034343
 5590 24d8 24242424 		.word	606348324
ARM GAS  C:\Users\ddemidov\AppData\Local\Temp\ccTwWFqA.s 			page 150


 5591 24dc B2B2B2B2 		.word	-1296911694
 5592 24e0 76767676 		.word	1987475062
 5593 24e4 5B5B5B5B 		.word	1532713819
 5594 24e8 A2A2A2A2 		.word	-1566399838
 5595 24ec 49494949 		.word	1229539657
 5596 24f0 6D6D6D6D 		.word	1835887981
 5597 24f4 8B8B8B8B 		.word	-1953789045
 5598 24f8 D1D1D1D1 		.word	-774778415
 5599 24fc 25252525 		.word	623191333
 5600 2500 72727272 		.word	1920103026
 5601 2504 F8F8F8F8 		.word	-117901064
 5602 2508 F6F6F6F6 		.word	-151587082
 5603 250c 64646464 		.word	1684300900
 5604 2510 86868686 		.word	-2038004090
 5605 2514 68686868 		.word	1751672936
 5606 2518 98989898 		.word	-1734829928
 5607 251c 16161616 		.word	370546198
 5608 2520 D4D4D4D4 		.word	-724249388
 5609 2524 A4A4A4A4 		.word	-1532713820
 5610 2528 5C5C5C5C 		.word	1549556828
 5611 252c CCCCCCCC 		.word	-858993460
 5612 2530 5D5D5D5D 		.word	1566399837
 5613 2534 65656565 		.word	1701143909
 5614 2538 B6B6B6B6 		.word	-1229539658
 5615 253c 92929292 		.word	-1835887982
 5616 2540 6C6C6C6C 		.word	1819044972
 5617 2544 70707070 		.word	1886417008
 5618 2548 48484848 		.word	1212696648
 5619 254c 50505050 		.word	1347440720
 5620 2550 FDFDFDFD 		.word	-33686019
 5621 2554 EDEDEDED 		.word	-303174163
 5622 2558 B9B9B9B9 		.word	-1179010631
 5623 255c DADADADA 		.word	-623191334
 5624 2560 5E5E5E5E 		.word	1583242846
 5625 2564 15151515 		.word	353703189
 5626 2568 46464646 		.word	1179010630
 5627 256c 57575757 		.word	1465341783
 5628 2570 A7A7A7A7 		.word	-1482184793
 5629 2574 8D8D8D8D 		.word	-1920103027
 5630 2578 9D9D9D9D 		.word	-1650614883
 5631 257c 84848484 		.word	-2071690108
 5632 2580 90909090 		.word	-1869574000
 5633 2584 D8D8D8D8 		.word	-656877352
 5634 2588 ABABABAB 		.word	-1414812757
 5635 258c 00000000 		.word	0
 5636 2590 8C8C8C8C 		.word	-1936946036
 5637 2594 BCBCBCBC 		.word	-1128481604
 5638 2598 D3D3D3D3 		.word	-741092397
 5639 259c 0A0A0A0A 		.word	168430090
 5640 25a0 F7F7F7F7 		.word	-134744073
 5641 25a4 E4E4E4E4 		.word	-454761244
 5642 25a8 58585858 		.word	1482184792
 5643 25ac 05050505 		.word	84215045
 5644 25b0 B8B8B8B8 		.word	-1195853640
 5645 25b4 B3B3B3B3 		.word	-1280068685
 5646 25b8 45454545 		.word	1162167621
 5647 25bc 06060606 		.word	101058054
ARM GAS  C:\Users\ddemidov\AppData\Local\Temp\ccTwWFqA.s 			page 151


 5648 25c0 D0D0D0D0 		.word	-791621424
 5649 25c4 2C2C2C2C 		.word	741092396
 5650 25c8 1E1E1E1E 		.word	505290270
 5651 25cc 8F8F8F8F 		.word	-1886417009
 5652 25d0 CACACACA 		.word	-892679478
 5653 25d4 3F3F3F3F 		.word	1061109567
 5654 25d8 0F0F0F0F 		.word	252645135
 5655 25dc 02020202 		.word	33686018
 5656 25e0 C1C1C1C1 		.word	-1044266559
 5657 25e4 AFAFAFAF 		.word	-1347440721
 5658 25e8 BDBDBDBD 		.word	-1111638595
 5659 25ec 03030303 		.word	50529027
 5660 25f0 01010101 		.word	16843009
 5661 25f4 13131313 		.word	320017171
 5662 25f8 8A8A8A8A 		.word	-1970632054
 5663 25fc 6B6B6B6B 		.word	1802201963
 5664 2600 3A3A3A3A 		.word	976894522
 5665 2604 91919191 		.word	-1852730991
 5666 2608 11111111 		.word	286331153
 5667 260c 41414141 		.word	1094795585
 5668 2610 4F4F4F4F 		.word	1330597711
 5669 2614 67676767 		.word	1734829927
 5670 2618 DCDCDCDC 		.word	-589505316
 5671 261c EAEAEAEA 		.word	-353703190
 5672 2620 97979797 		.word	-1751672937
 5673 2624 F2F2F2F2 		.word	-218959118
 5674 2628 CFCFCFCF 		.word	-808464433
 5675 262c CECECECE 		.word	-825307442
 5676 2630 F0F0F0F0 		.word	-252645136
 5677 2634 B4B4B4B4 		.word	-1263225676
 5678 2638 E6E6E6E6 		.word	-421075226
 5679 263c 73737373 		.word	1936946035
 5680 2640 96969696 		.word	-1768515946
 5681 2644 ACACACAC 		.word	-1397969748
 5682 2648 74747474 		.word	1953789044
 5683 264c 22222222 		.word	572662306
 5684 2650 E7E7E7E7 		.word	-404232217
 5685 2654 ADADADAD 		.word	-1381126739
 5686 2658 35353535 		.word	892679477
 5687 265c 85858585 		.word	-2054847099
 5688 2660 E2E2E2E2 		.word	-488447262
 5689 2664 F9F9F9F9 		.word	-101058055
 5690 2668 37373737 		.word	926365495
 5691 266c E8E8E8E8 		.word	-387389208
 5692 2670 1C1C1C1C 		.word	471604252
 5693 2674 75757575 		.word	1970632053
 5694 2678 DFDFDFDF 		.word	-538976289
 5695 267c 6E6E6E6E 		.word	1852730990
 5696 2680 47474747 		.word	1195853639
 5697 2684 F1F1F1F1 		.word	-235802127
 5698 2688 1A1A1A1A 		.word	437918234
 5699 268c 71717171 		.word	1903260017
 5700 2690 1D1D1D1D 		.word	488447261
 5701 2694 29292929 		.word	690563369
 5702 2698 C5C5C5C5 		.word	-976894523
 5703 269c 89898989 		.word	-1987475063
 5704 26a0 6F6F6F6F 		.word	1869573999
ARM GAS  C:\Users\ddemidov\AppData\Local\Temp\ccTwWFqA.s 			page 152


 5705 26a4 B7B7B7B7 		.word	-1212696649
 5706 26a8 62626262 		.word	1650614882
 5707 26ac 0E0E0E0E 		.word	235802126
 5708 26b0 AAAAAAAA 		.word	-1431655766
 5709 26b4 18181818 		.word	404232216
 5710 26b8 BEBEBEBE 		.word	-1094795586
 5711 26bc 1B1B1B1B 		.word	454761243
 5712 26c0 FCFCFCFC 		.word	-50529028
 5713 26c4 56565656 		.word	1448498774
 5714 26c8 3E3E3E3E 		.word	1044266558
 5715 26cc 4B4B4B4B 		.word	1263225675
 5716 26d0 C6C6C6C6 		.word	-960051514
 5717 26d4 D2D2D2D2 		.word	-757935406
 5718 26d8 79797979 		.word	2038004089
 5719 26dc 20202020 		.word	538976288
 5720 26e0 9A9A9A9A 		.word	-1701143910
 5721 26e4 DBDBDBDB 		.word	-606348325
 5722 26e8 C0C0C0C0 		.word	-1061109568
 5723 26ec FEFEFEFE 		.word	-16843010
 5724 26f0 78787878 		.word	2021161080
 5725 26f4 CDCDCDCD 		.word	-842150451
 5726 26f8 5A5A5A5A 		.word	1515870810
 5727 26fc F4F4F4F4 		.word	-185273100
 5728 2700 1F1F1F1F 		.word	522133279
 5729 2704 DDDDDDDD 		.word	-572662307
 5730 2708 A8A8A8A8 		.word	-1465341784
 5731 270c 33333333 		.word	858993459
 5732 2710 88888888 		.word	-2004318072
 5733 2714 07070707 		.word	117901063
 5734 2718 C7C7C7C7 		.word	-943208505
 5735 271c 31313131 		.word	825307441
 5736 2720 B1B1B1B1 		.word	-1313754703
 5737 2724 12121212 		.word	303174162
 5738 2728 10101010 		.word	269488144
 5739 272c 59595959 		.word	1499027801
 5740 2730 27272727 		.word	656877351
 5741 2734 80808080 		.word	-2139062144
 5742 2738 ECECECEC 		.word	-320017172
 5743 273c 5F5F5F5F 		.word	1600085855
 5744 2740 60606060 		.word	1616928864
 5745 2744 51515151 		.word	1364283729
 5746 2748 7F7F7F7F 		.word	2139062143
 5747 274c A9A9A9A9 		.word	-1448498775
 5748 2750 19191919 		.word	421075225
 5749 2754 B5B5B5B5 		.word	-1246382667
 5750 2758 4A4A4A4A 		.word	1246382666
 5751 275c 0D0D0D0D 		.word	218959117
 5752 2760 2D2D2D2D 		.word	757935405
 5753 2764 E5E5E5E5 		.word	-437918235
 5754 2768 7A7A7A7A 		.word	2054847098
 5755 276c 9F9F9F9F 		.word	-1616928865
 5756 2770 93939393 		.word	-1819044973
 5757 2774 C9C9C9C9 		.word	-909522487
 5758 2778 9C9C9C9C 		.word	-1667457892
 5759 277c EFEFEFEF 		.word	-269488145
 5760 2780 A0A0A0A0 		.word	-1600085856
 5761 2784 E0E0E0E0 		.word	-522133280
ARM GAS  C:\Users\ddemidov\AppData\Local\Temp\ccTwWFqA.s 			page 153


 5762 2788 3B3B3B3B 		.word	993737531
 5763 278c 4D4D4D4D 		.word	1296911693
 5764 2790 AEAEAEAE 		.word	-1364283730
 5765 2794 2A2A2A2A 		.word	707406378
 5766 2798 F5F5F5F5 		.word	-168430091
 5767 279c B0B0B0B0 		.word	-1330597712
 5768 27a0 C8C8C8C8 		.word	-926365496
 5769 27a4 EBEBEBEB 		.word	-336860181
 5770 27a8 BBBBBBBB 		.word	-1145324613
 5771 27ac 3C3C3C3C 		.word	1010580540
 5772 27b0 83838383 		.word	-2088533117
 5773 27b4 53535353 		.word	1397969747
 5774 27b8 99999999 		.word	-1717986919
 5775 27bc 61616161 		.word	1633771873
 5776 27c0 17171717 		.word	387389207
 5777 27c4 2B2B2B2B 		.word	724249387
 5778 27c8 04040404 		.word	67372036
 5779 27cc 7E7E7E7E 		.word	2122219134
 5780 27d0 BABABABA 		.word	-1162167622
 5781 27d4 77777777 		.word	2004318071
 5782 27d8 D6D6D6D6 		.word	-690563370
 5783 27dc 26262626 		.word	640034342
 5784 27e0 E1E1E1E1 		.word	-505290271
 5785 27e4 69696969 		.word	1768515945
 5786 27e8 14141414 		.word	336860180
 5787 27ec 63636363 		.word	1667457891
 5788 27f0 55555555 		.word	1431655765
 5789 27f4 21212121 		.word	555819297
 5790 27f8 0C0C0C0C 		.word	202116108
 5791 27fc 7D7D7D7D 		.word	2105376125
 5792              		.type	rcon, %object
 5793              		.size	rcon, 40
 5794              	rcon:
 5795 2800 00000001 		.word	16777216
 5796 2804 00000002 		.word	33554432
 5797 2808 00000004 		.word	67108864
 5798 280c 00000008 		.word	134217728
 5799 2810 00000010 		.word	268435456
 5800 2814 00000020 		.word	536870912
 5801 2818 00000040 		.word	1073741824
 5802 281c 00000080 		.word	-2147483648
 5803 2820 0000001B 		.word	452984832
 5804 2824 00000036 		.word	905969664
 5805              		.text
 5806              	.Letext0:
 5807              		.file 3 "..\\kronos-c-sdk\\src\\wolfSSL/wolfssl/wolfcrypt/types.h"
 5808              		.file 4 "..\\kronos-c-sdk\\src\\wolfSSL/wolfssl/wolfcrypt/aes.h"
 5809              		.file 5 "..\\kronos-c-sdk\\src\\wolfSSL/wolfssl/wolfcrypt/error-crypt.h"
 5810              		.section	.debug_info,"",%progbits
 5811              	.Ldebug_info0:
 5812 0000 A7120000 		.4byte	0x12a7
 5813 0004 0400     		.2byte	0x4
 5814 0006 00000000 		.4byte	.Ldebug_abbrev0
 5815 000a 04       		.byte	0x4
 5816 000b 01       		.uleb128 0x1
 5817 000c 40060000 		.4byte	.LASF157
 5818 0010 01       		.byte	0x1
ARM GAS  C:\Users\ddemidov\AppData\Local\Temp\ccTwWFqA.s 			page 154


 5819 0011 BF030000 		.4byte	.LASF158
 5820 0015 47050000 		.4byte	.LASF159
 5821 0019 00000000 		.4byte	.Ldebug_ranges0+0
 5822 001d 00000000 		.4byte	0
 5823 0021 00000000 		.4byte	.Ldebug_line0
 5824 0025 02       		.uleb128 0x2
 5825 0026 04       		.byte	0x4
 5826 0027 05       		.byte	0x5
 5827 0028 696E7400 		.ascii	"int\000"
 5828 002c 03       		.uleb128 0x3
 5829 002d B7070000 		.4byte	.LASF2
 5830 0031 03       		.byte	0x3
 5831 0032 2D       		.byte	0x2d
 5832 0033 37000000 		.4byte	0x37
 5833 0037 04       		.uleb128 0x4
 5834 0038 01       		.byte	0x1
 5835 0039 08       		.byte	0x8
 5836 003a DB070000 		.4byte	.LASF0
 5837 003e 04       		.uleb128 0x4
 5838 003f 02       		.byte	0x2
 5839 0040 07       		.byte	0x7
 5840 0041 53080000 		.4byte	.LASF1
 5841 0045 03       		.uleb128 0x3
 5842 0046 18060000 		.4byte	.LASF3
 5843 004a 03       		.byte	0x3
 5844 004b 30       		.byte	0x30
 5845 004c 50000000 		.4byte	0x50
 5846 0050 04       		.uleb128 0x4
 5847 0051 04       		.byte	0x4
 5848 0052 07       		.byte	0x7
 5849 0053 71000000 		.4byte	.LASF4
 5850 0057 04       		.uleb128 0x4
 5851 0058 08       		.byte	0x8
 5852 0059 07       		.byte	0x7
 5853 005a CC010000 		.4byte	.LASF5
 5854 005e 03       		.uleb128 0x3
 5855 005f C3080000 		.4byte	.LASF6
 5856 0063 03       		.byte	0x3
 5857 0064 5E       		.byte	0x5e
 5858 0065 45000000 		.4byte	0x45
 5859 0069 05       		.uleb128 0x5
 5860 006a 01       		.byte	0x1
 5861 006b 03       		.byte	0x3
 5862 006c 65       		.byte	0x65
 5863 006d 84000000 		.4byte	0x84
 5864 0071 06       		.uleb128 0x6
 5865 0072 06010000 		.4byte	.LASF7
 5866 0076 04       		.sleb128 4
 5867 0077 06       		.uleb128 0x6
 5868 0078 9F030000 		.4byte	.LASF8
 5869 007c 08       		.sleb128 8
 5870 007d 06       		.uleb128 0x6
 5871 007e B1080000 		.4byte	.LASF9
 5872 0082 20       		.sleb128 32
 5873 0083 00       		.byte	0
 5874 0084 04       		.uleb128 0x4
 5875 0085 01       		.byte	0x1
ARM GAS  C:\Users\ddemidov\AppData\Local\Temp\ccTwWFqA.s 			page 155


 5876 0086 06       		.byte	0x6
 5877 0087 47080000 		.4byte	.LASF10
 5878 008b 04       		.uleb128 0x4
 5879 008c 02       		.byte	0x2
 5880 008d 05       		.byte	0x5
 5881 008e AF050000 		.4byte	.LASF11
 5882 0092 04       		.uleb128 0x4
 5883 0093 04       		.byte	0x4
 5884 0094 05       		.byte	0x5
 5885 0095 C8050000 		.4byte	.LASF12
 5886 0099 04       		.uleb128 0x4
 5887 009a 04       		.byte	0x4
 5888 009b 07       		.byte	0x7
 5889 009c 80070000 		.4byte	.LASF13
 5890 00a0 04       		.uleb128 0x4
 5891 00a1 08       		.byte	0x8
 5892 00a2 05       		.byte	0x5
 5893 00a3 EF030000 		.4byte	.LASF14
 5894 00a7 04       		.uleb128 0x4
 5895 00a8 04       		.byte	0x4
 5896 00a9 07       		.byte	0x7
 5897 00aa 77070000 		.4byte	.LASF15
 5898 00ae 07       		.uleb128 0x7
 5899 00af 04       		.byte	0x4
 5900 00b0 04       		.uleb128 0x4
 5901 00b1 01       		.byte	0x1
 5902 00b2 08       		.byte	0x8
 5903 00b3 51030000 		.4byte	.LASF16
 5904 00b7 08       		.uleb128 0x8
 5905 00b8 04       		.byte	0x4
 5906 00b9 BD000000 		.4byte	0xbd
 5907 00bd 09       		.uleb128 0x9
 5908 00be 05       		.uleb128 0x5
 5909 00bf 01       		.byte	0x1
 5910 00c0 04       		.byte	0x4
 5911 00c1 4F       		.byte	0x4f
 5912 00c2 DF000000 		.4byte	0xdf
 5913 00c6 06       		.uleb128 0x6
 5914 00c7 27010000 		.4byte	.LASF17
 5915 00cb 01       		.sleb128 1
 5916 00cc 06       		.uleb128 0x6
 5917 00cd 90030000 		.4byte	.LASF18
 5918 00d1 00       		.sleb128 0
 5919 00d2 06       		.uleb128 0x6
 5920 00d3 90050000 		.4byte	.LASF19
 5921 00d7 01       		.sleb128 1
 5922 00d8 06       		.uleb128 0x6
 5923 00d9 1F050000 		.4byte	.LASF20
 5924 00dd 10       		.sleb128 16
 5925 00de 00       		.byte	0
 5926 00df 0A       		.uleb128 0xa
 5927 00e0 41657300 		.ascii	"Aes\000"
 5928 00e4 1401     		.2byte	0x114
 5929 00e6 04       		.byte	0x4
 5930 00e7 57       		.byte	0x57
 5931 00e8 1E010000 		.4byte	0x11e
 5932 00ec 0B       		.uleb128 0xb
ARM GAS  C:\Users\ddemidov\AppData\Local\Temp\ccTwWFqA.s 			page 156


 5933 00ed 6B657900 		.ascii	"key\000"
 5934 00f1 04       		.byte	0x4
 5935 00f2 59       		.byte	0x59
 5936 00f3 1E010000 		.4byte	0x11e
 5937 00f7 00       		.byte	0
 5938 00f8 0C       		.uleb128 0xc
 5939 00f9 BE040000 		.4byte	.LASF21
 5940 00fd 04       		.byte	0x4
 5941 00fe 5A       		.byte	0x5a
 5942 00ff 45000000 		.4byte	0x45
 5943 0103 F0       		.byte	0xf0
 5944 0104 0B       		.uleb128 0xb
 5945 0105 72656700 		.ascii	"reg\000"
 5946 0109 04       		.byte	0x4
 5947 010a 5C       		.byte	0x5c
 5948 010b 2E010000 		.4byte	0x12e
 5949 010f F4       		.byte	0xf4
 5950 0110 0D       		.uleb128 0xd
 5951 0111 746D7000 		.ascii	"tmp\000"
 5952 0115 04       		.byte	0x4
 5953 0116 5D       		.byte	0x5d
 5954 0117 2E010000 		.4byte	0x12e
 5955 011b 0401     		.2byte	0x104
 5956 011d 00       		.byte	0
 5957 011e 0E       		.uleb128 0xe
 5958 011f 45000000 		.4byte	0x45
 5959 0123 2E010000 		.4byte	0x12e
 5960 0127 0F       		.uleb128 0xf
 5961 0128 A7000000 		.4byte	0xa7
 5962 012c 3B       		.byte	0x3b
 5963 012d 00       		.byte	0
 5964 012e 0E       		.uleb128 0xe
 5965 012f 45000000 		.4byte	0x45
 5966 0133 3E010000 		.4byte	0x13e
 5967 0137 0F       		.uleb128 0xf
 5968 0138 A7000000 		.4byte	0xa7
 5969 013c 03       		.byte	0x3
 5970 013d 00       		.byte	0
 5971 013e 10       		.uleb128 0x10
 5972 013f 41657300 		.ascii	"Aes\000"
 5973 0143 04       		.byte	0x4
 5974 0144 7A       		.byte	0x7a
 5975 0145 DF000000 		.4byte	0xdf
 5976 0149 05       		.uleb128 0x5
 5977 014a 02       		.byte	0x2
 5978 014b 05       		.byte	0x5
 5979 014c 27       		.byte	0x27
 5980 014d 62040000 		.4byte	0x462
 5981 0151 06       		.uleb128 0x6
 5982 0152 45000000 		.4byte	.LASF22
 5983 0156 9C7F     		.sleb128 -100
 5984 0158 06       		.uleb128 0x6
 5985 0159 B2010000 		.4byte	.LASF23
 5986 015d 9B7F     		.sleb128 -101
 5987 015f 06       		.uleb128 0x6
 5988 0160 35060000 		.4byte	.LASF24
 5989 0164 9A7F     		.sleb128 -102
ARM GAS  C:\Users\ddemidov\AppData\Local\Temp\ccTwWFqA.s 			page 157


 5990 0166 06       		.uleb128 0x6
 5991 0167 8E020000 		.4byte	.LASF25
 5992 016b 997F     		.sleb128 -103
 5993 016d 06       		.uleb128 0x6
 5994 016e D0070000 		.4byte	.LASF26
 5995 0172 987F     		.sleb128 -104
 5996 0174 06       		.uleb128 0x6
 5997 0175 E7080000 		.4byte	.LASF27
 5998 0179 977F     		.sleb128 -105
 5999 017b 06       		.uleb128 0x6
 6000 017c 04090000 		.4byte	.LASF28
 6001 0180 967F     		.sleb128 -106
 6002 0182 06       		.uleb128 0x6
 6003 0183 34080000 		.4byte	.LASF29
 6004 0187 927F     		.sleb128 -110
 6005 0189 06       		.uleb128 0x6
 6006 018a FD030000 		.4byte	.LASF30
 6007 018e 917F     		.sleb128 -111
 6008 0190 06       		.uleb128 0x6
 6009 0191 C3000000 		.4byte	.LASF31
 6010 0195 907F     		.sleb128 -112
 6011 0197 06       		.uleb128 0x6
 6012 0198 C8070000 		.4byte	.LASF32
 6013 019c 8F7F     		.sleb128 -113
 6014 019e 06       		.uleb128 0x6
 6015 019f 60010000 		.4byte	.LASF33
 6016 01a3 8E7F     		.sleb128 -114
 6017 01a5 06       		.uleb128 0x6
 6018 01a6 7A030000 		.4byte	.LASF34
 6019 01aa 8D7F     		.sleb128 -115
 6020 01ac 06       		.uleb128 0x6
 6021 01ad F3010000 		.4byte	.LASF35
 6022 01b1 8C7F     		.sleb128 -116
 6023 01b3 06       		.uleb128 0x6
 6024 01b4 76010000 		.4byte	.LASF36
 6025 01b8 8B7F     		.sleb128 -117
 6026 01ba 06       		.uleb128 0x6
 6027 01bb F9040000 		.4byte	.LASF37
 6028 01bf 8A7F     		.sleb128 -118
 6029 01c1 06       		.uleb128 0x6
 6030 01c2 BC070000 		.4byte	.LASF38
 6031 01c6 897F     		.sleb128 -119
 6032 01c8 06       		.uleb128 0x6
 6033 01c9 1F060000 		.4byte	.LASF39
 6034 01cd 887F     		.sleb128 -120
 6035 01cf 06       		.uleb128 0x6
 6036 01d0 7C040000 		.4byte	.LASF40
 6037 01d4 877F     		.sleb128 -121
 6038 01d6 06       		.uleb128 0x6
 6039 01d7 76080000 		.4byte	.LASF41
 6040 01db 837F     		.sleb128 -125
 6041 01dd 06       		.uleb128 0x6
 6042 01de B2000000 		.4byte	.LASF42
 6043 01e2 FE7E     		.sleb128 -130
 6044 01e4 06       		.uleb128 0x6
 6045 01e5 0B020000 		.4byte	.LASF43
 6046 01e9 FD7E     		.sleb128 -131
ARM GAS  C:\Users\ddemidov\AppData\Local\Temp\ccTwWFqA.s 			page 158


 6047 01eb 06       		.uleb128 0x6
 6048 01ec 4C040000 		.4byte	.LASF44
 6049 01f0 FC7E     		.sleb128 -132
 6050 01f2 06       		.uleb128 0x6
 6051 01f3 D0080000 		.4byte	.LASF45
 6052 01f7 FB7E     		.sleb128 -133
 6053 01f9 06       		.uleb128 0x6
 6054 01fa EB060000 		.4byte	.LASF46
 6055 01fe FA7E     		.sleb128 -134
 6056 0200 06       		.uleb128 0x6
 6057 0201 59010000 		.4byte	.LASF47
 6058 0205 F97E     		.sleb128 -135
 6059 0207 06       		.uleb128 0x6
 6060 0208 5C040000 		.4byte	.LASF48
 6061 020c F87E     		.sleb128 -136
 6062 020e 06       		.uleb128 0x6
 6063 020f A9010000 		.4byte	.LASF49
 6064 0213 F77E     		.sleb128 -137
 6065 0215 06       		.uleb128 0x6
 6066 0216 E0050000 		.4byte	.LASF50
 6067 021a F67E     		.sleb128 -138
 6068 021c 06       		.uleb128 0x6
 6069 021d 83030000 		.4byte	.LASF51
 6070 0221 F57E     		.sleb128 -139
 6071 0223 06       		.uleb128 0x6
 6072 0224 8A000000 		.4byte	.LASF52
 6073 0228 F47E     		.sleb128 -140
 6074 022a 06       		.uleb128 0x6
 6075 022b 15080000 		.4byte	.LASF53
 6076 022f F37E     		.sleb128 -141
 6077 0231 06       		.uleb128 0x6
 6078 0232 CE060000 		.4byte	.LASF54
 6079 0236 F27E     		.sleb128 -142
 6080 0238 06       		.uleb128 0x6
 6081 0239 56030000 		.4byte	.LASF55
 6082 023d F17E     		.sleb128 -143
 6083 023f 06       		.uleb128 0x6
 6084 0240 63020000 		.4byte	.LASF56
 6085 0244 F07E     		.sleb128 -144
 6086 0246 06       		.uleb128 0x6
 6087 0247 0F030000 		.4byte	.LASF57
 6088 024b EF7E     		.sleb128 -145
 6089 024d 06       		.uleb128 0x6
 6090 024e B9050000 		.4byte	.LASF58
 6091 0252 EE7E     		.sleb128 -146
 6092 0254 06       		.uleb128 0x6
 6093 0255 45020000 		.4byte	.LASF59
 6094 0259 ED7E     		.sleb128 -147
 6095 025b 06       		.uleb128 0x6
 6096 025c D1020000 		.4byte	.LASF60
 6097 0260 EC7E     		.sleb128 -148
 6098 0262 06       		.uleb128 0x6
 6099 0263 9B010000 		.4byte	.LASF61
 6100 0267 EB7E     		.sleb128 -149
 6101 0269 06       		.uleb128 0x6
 6102 026a DE000000 		.4byte	.LASF62
 6103 026e EA7E     		.sleb128 -150
ARM GAS  C:\Users\ddemidov\AppData\Local\Temp\ccTwWFqA.s 			page 159


 6104 0270 06       		.uleb128 0x6
 6105 0271 1D070000 		.4byte	.LASF63
 6106 0275 E97E     		.sleb128 -151
 6107 0277 06       		.uleb128 0x6
 6108 0278 28000000 		.4byte	.LASF64
 6109 027c E87E     		.sleb128 -152
 6110 027e 06       		.uleb128 0x6
 6111 027f B8020000 		.4byte	.LASF65
 6112 0283 E77E     		.sleb128 -153
 6113 0285 06       		.uleb128 0x6
 6114 0286 97080000 		.4byte	.LASF66
 6115 028a E67E     		.sleb128 -154
 6116 028c 06       		.uleb128 0x6
 6117 028d A5070000 		.4byte	.LASF67
 6118 0291 E57E     		.sleb128 -155
 6119 0293 06       		.uleb128 0x6
 6120 0294 FC010000 		.4byte	.LASF68
 6121 0298 E47E     		.sleb128 -156
 6122 029a 06       		.uleb128 0x6
 6123 029b 6C030000 		.4byte	.LASF69
 6124 029f E37E     		.sleb128 -157
 6125 02a1 06       		.uleb128 0x6
 6126 02a2 AA040000 		.4byte	.LASF70
 6127 02a6 E27E     		.sleb128 -158
 6128 02a8 06       		.uleb128 0x6
 6129 02a9 D1050000 		.4byte	.LASF71
 6130 02ad E17E     		.sleb128 -159
 6131 02af 06       		.uleb128 0x6
 6132 02b0 02070000 		.4byte	.LASF72
 6133 02b4 E07E     		.sleb128 -160
 6134 02b6 06       		.uleb128 0x6
 6135 02b7 D0000000 		.4byte	.LASF73
 6136 02bb D67E     		.sleb128 -170
 6137 02bd 06       		.uleb128 0x6
 6138 02be 1A000000 		.4byte	.LASF74
 6139 02c2 D57E     		.sleb128 -171
 6140 02c4 06       		.uleb128 0x6
 6141 02c5 8B010000 		.4byte	.LASF75
 6142 02c9 D47E     		.sleb128 -172
 6143 02cb 06       		.uleb128 0x6
 6144 02cc 38020000 		.4byte	.LASF76
 6145 02d0 D37E     		.sleb128 -173
 6146 02d2 06       		.uleb128 0x6
 6147 02d3 13040000 		.4byte	.LASF77
 6148 02d7 D27E     		.sleb128 -174
 6149 02d9 06       		.uleb128 0x6
 6150 02da B0030000 		.4byte	.LASF78
 6151 02de D17E     		.sleb128 -175
 6152 02e0 06       		.uleb128 0x6
 6153 02e1 11070000 		.4byte	.LASF79
 6154 02e5 D07E     		.sleb128 -176
 6155 02e7 06       		.uleb128 0x6
 6156 02e8 3C050000 		.4byte	.LASF80
 6157 02ec CF7E     		.sleb128 -177
 6158 02ee 06       		.uleb128 0x6
 6159 02ef 50000000 		.4byte	.LASF81
 6160 02f3 CC7E     		.sleb128 -180
ARM GAS  C:\Users\ddemidov\AppData\Local\Temp\ccTwWFqA.s 			page 160


 6161 02f5 06       		.uleb128 0x6
 6162 02f6 18010000 		.4byte	.LASF82
 6163 02fa CB7E     		.sleb128 -181
 6164 02fc 06       		.uleb128 0x6
 6165 02fd 66040000 		.4byte	.LASF83
 6166 0301 CA7E     		.sleb128 -182
 6167 0303 06       		.uleb128 0x6
 6168 0304 86040000 		.4byte	.LASF84
 6169 0308 C97E     		.sleb128 -183
 6170 030a 06       		.uleb128 0x6
 6171 030b 34010000 		.4byte	.LASF85
 6172 030f C87E     		.sleb128 -184
 6173 0311 06       		.uleb128 0x6
 6174 0312 D4040000 		.4byte	.LASF86
 6175 0316 C77E     		.sleb128 -185
 6176 0318 06       		.uleb128 0x6
 6177 0319 DA080000 		.4byte	.LASF87
 6178 031d C67E     		.sleb128 -186
 6179 031f 06       		.uleb128 0x6
 6180 0320 2E040000 		.4byte	.LASF88
 6181 0324 C57E     		.sleb128 -187
 6182 0326 06       		.uleb128 0x6
 6183 0327 E3010000 		.4byte	.LASF89
 6184 032b C47E     		.sleb128 -188
 6185 032d 06       		.uleb128 0x6
 6186 032e 96000000 		.4byte	.LASF90
 6187 0332 C37E     		.sleb128 -189
 6188 0334 06       		.uleb128 0x6
 6189 0335 F0070000 		.4byte	.LASF91
 6190 0339 C27E     		.sleb128 -190
 6191 033b 06       		.uleb128 0x6
 6192 033c 64070000 		.4byte	.LASF92
 6193 0340 C17E     		.sleb128 -191
 6194 0342 06       		.uleb128 0x6
 6195 0343 9F050000 		.4byte	.LASF93
 6196 0347 C07E     		.sleb128 -192
 6197 0349 06       		.uleb128 0x6
 6198 034a F1020000 		.4byte	.LASF94
 6199 034e BF7E     		.sleb128 -193
 6200 0350 06       		.uleb128 0x6
 6201 0351 66080000 		.4byte	.LASF95
 6202 0355 BE7E     		.sleb128 -194
 6203 0357 06       		.uleb128 0x6
 6204 0358 3F010000 		.4byte	.LASF96
 6205 035c BD7E     		.sleb128 -195
 6206 035e 06       		.uleb128 0x6
 6207 035f A3080000 		.4byte	.LASF97
 6208 0363 BC7E     		.sleb128 -196
 6209 0365 06       		.uleb128 0x6
 6210 0366 25020000 		.4byte	.LASF98
 6211 036a BB7E     		.sleb128 -197
 6212 036c 06       		.uleb128 0x6
 6213 036d E6040000 		.4byte	.LASF99
 6214 0371 BA7E     		.sleb128 -198
 6215 0373 06       		.uleb128 0x6
 6216 0374 E3020000 		.4byte	.LASF100
 6217 0378 B97E     		.sleb128 -199
ARM GAS  C:\Users\ddemidov\AppData\Local\Temp\ccTwWFqA.s 			page 161


 6218 037a 06       		.uleb128 0x6
 6219 037b 5F000000 		.4byte	.LASF101
 6220 037f B87E     		.sleb128 -200
 6221 0381 06       		.uleb128 0x6
 6222 0382 1E030000 		.4byte	.LASF102
 6223 0386 B77E     		.sleb128 -201
 6224 0388 06       		.uleb128 0x6
 6225 0389 2E050000 		.4byte	.LASF103
 6226 038d B67E     		.sleb128 -202
 6227 038f 06       		.uleb128 0x6
 6228 0390 36000000 		.4byte	.LASF104
 6229 0394 B57E     		.sleb128 -203
 6230 0396 06       		.uleb128 0x6
 6231 0397 BD010000 		.4byte	.LASF105
 6232 039b B47E     		.sleb128 -204
 6233 039d 06       		.uleb128 0x6
 6234 039e 2E030000 		.4byte	.LASF106
 6235 03a2 B37E     		.sleb128 -205
 6236 03a4 06       		.uleb128 0x6
 6237 03a5 DB060000 		.4byte	.LASF107
 6238 03a9 B27E     		.sleb128 -206
 6239 03ab 06       		.uleb128 0x6
 6240 03ac 96040000 		.4byte	.LASF108
 6241 03b0 B17E     		.sleb128 -207
 6242 03b2 06       		.uleb128 0x6
 6243 03b3 2E070000 		.4byte	.LASF109
 6244 03b7 B07E     		.sleb128 -208
 6245 03b9 06       		.uleb128 0x6
 6246 03ba 3E070000 		.4byte	.LASF110
 6247 03be AF7E     		.sleb128 -209
 6248 03c0 06       		.uleb128 0x6
 6249 03c1 01060000 		.4byte	.LASF111
 6250 03c5 AE7E     		.sleb128 -210
 6251 03c7 06       		.uleb128 0x6
 6252 03c8 92070000 		.4byte	.LASF112
 6253 03cc AD7E     		.sleb128 -211
 6254 03ce 06       		.uleb128 0x6
 6255 03cf 07000000 		.4byte	.LASF113
 6256 03d3 AC7E     		.sleb128 -212
 6257 03d5 06       		.uleb128 0x6
 6258 03d6 F3080000 		.4byte	.LASF114
 6259 03da AB7E     		.sleb128 -213
 6260 03dc 06       		.uleb128 0x6
 6261 03dd 23040000 		.4byte	.LASF115
 6262 03e1 AA7E     		.sleb128 -214
 6263 03e3 06       		.uleb128 0x6
 6264 03e4 F8060000 		.4byte	.LASF116
 6265 03e8 A97E     		.sleb128 -215
 6266 03ea 06       		.uleb128 0x6
 6267 03eb F7000000 		.4byte	.LASF117
 6268 03ef A87E     		.sleb128 -216
 6269 03f1 06       		.uleb128 0x6
 6270 03f2 86080000 		.4byte	.LASF118
 6271 03f6 A77E     		.sleb128 -217
 6272 03f8 06       		.uleb128 0x6
 6273 03f9 18020000 		.4byte	.LASF119
 6274 03fd A67E     		.sleb128 -218
ARM GAS  C:\Users\ddemidov\AppData\Local\Temp\ccTwWFqA.s 			page 162


 6275 03ff 06       		.uleb128 0x6
 6276 0400 4B010000 		.4byte	.LASF120
 6277 0404 A57E     		.sleb128 -219
 6278 0406 06       		.uleb128 0x6
 6279 0407 23080000 		.4byte	.LASF121
 6280 040b A47E     		.sleb128 -220
 6281 040d 06       		.uleb128 0x6
 6282 040e 07040000 		.4byte	.LASF122
 6283 0412 A37E     		.sleb128 -221
 6284 0414 06       		.uleb128 0x6
 6285 0415 FF020000 		.4byte	.LASF123
 6286 0419 A17E     		.sleb128 -223
 6287 041b 06       		.uleb128 0x6
 6288 041c 00000000 		.4byte	.LASF124
 6289 0420 A07E     		.sleb128 -224
 6290 0422 06       		.uleb128 0x6
 6291 0423 F0000000 		.4byte	.LASF125
 6292 0427 9F7E     		.sleb128 -225
 6293 0429 06       		.uleb128 0x6
 6294 042a 4F070000 		.4byte	.LASF126
 6295 042e 9E7E     		.sleb128 -226
 6296 0430 06       		.uleb128 0x6
 6297 0431 C5040000 		.4byte	.LASF127
 6298 0435 9D7E     		.sleb128 -227
 6299 0437 06       		.uleb128 0x6
 6300 0438 A8000000 		.4byte	.LASF128
 6301 043c 9C7E     		.sleb128 -228
 6302 043e 06       		.uleb128 0x6
 6303 043f 28060000 		.4byte	.LASF129
 6304 0443 9B7E     		.sleb128 -229
 6305 0445 06       		.uleb128 0x6
 6306 0446 14050000 		.4byte	.LASF130
 6307 044a 9A7E     		.sleb128 -230
 6308 044c 06       		.uleb128 0x6
 6309 044d 58020000 		.4byte	.LASF131
 6310 0451 997E     		.sleb128 -231
 6311 0453 06       		.uleb128 0x6
 6312 0454 3E030000 		.4byte	.LASF132
 6313 0458 987E     		.sleb128 -232
 6314 045a 06       		.uleb128 0x6
 6315 045b EA050000 		.4byte	.LASF133
 6316 045f D47D     		.sleb128 -300
 6317 0461 00       		.byte	0
 6318 0462 11       		.uleb128 0x11
 6319 0463 5A070000 		.4byte	.LASF134
 6320 0467 02       		.byte	0x2
 6321 0468 44       		.byte	0x44
 6322 0469 45000000 		.4byte	0x45
 6323 046d 03       		.byte	0x3
 6324 046e 85040000 		.4byte	0x485
 6325 0472 12       		.uleb128 0x12
 6326 0473 7800     		.ascii	"x\000"
 6327 0475 02       		.byte	0x2
 6328 0476 44       		.byte	0x44
 6329 0477 45000000 		.4byte	0x45
 6330 047b 12       		.uleb128 0x12
 6331 047c 7900     		.ascii	"y\000"
ARM GAS  C:\Users\ddemidov\AppData\Local\Temp\ccTwWFqA.s 			page 163


 6332 047e 02       		.byte	0x2
 6333 047f 44       		.byte	0x44
 6334 0480 45000000 		.4byte	0x45
 6335 0484 00       		.byte	0
 6336 0485 11       		.uleb128 0x11
 6337 0486 02050000 		.4byte	.LASF135
 6338 048a 02       		.byte	0x2
 6339 048b 52       		.byte	0x52
 6340 048c 45000000 		.4byte	0x45
 6341 0490 03       		.byte	0x3
 6342 0491 A1040000 		.4byte	0x4a1
 6343 0495 13       		.uleb128 0x13
 6344 0496 52020000 		.4byte	.LASF136
 6345 049a 02       		.byte	0x2
 6346 049b 52       		.byte	0x52
 6347 049c 45000000 		.4byte	0x45
 6348 04a0 00       		.byte	0
 6349 04a1 14       		.uleb128 0x14
 6350 04a2 3E080000 		.4byte	.LASF137
 6351 04a6 02       		.byte	0x2
 6352 04a7 9B       		.byte	0x9b
 6353 04a8 03       		.byte	0x3
 6354 04a9 D2040000 		.4byte	0x4d2
 6355 04ad 12       		.uleb128 0x12
 6356 04ae 7200     		.ascii	"r\000"
 6357 04b0 02       		.byte	0x2
 6358 04b1 9B       		.byte	0x9b
 6359 04b2 D2040000 		.4byte	0x4d2
 6360 04b6 12       		.uleb128 0x12
 6361 04b7 6100     		.ascii	"a\000"
 6362 04b9 02       		.byte	0x2
 6363 04ba 9B       		.byte	0x9b
 6364 04bb D8040000 		.4byte	0x4d8
 6365 04bf 12       		.uleb128 0x12
 6366 04c0 6E00     		.ascii	"n\000"
 6367 04c2 02       		.byte	0x2
 6368 04c3 9B       		.byte	0x9b
 6369 04c4 45000000 		.4byte	0x45
 6370 04c8 15       		.uleb128 0x15
 6371 04c9 6900     		.ascii	"i\000"
 6372 04cb 02       		.byte	0x2
 6373 04cc 9D       		.byte	0x9d
 6374 04cd 45000000 		.4byte	0x45
 6375 04d1 00       		.byte	0
 6376 04d2 08       		.uleb128 0x8
 6377 04d3 04       		.byte	0x4
 6378 04d4 5E000000 		.4byte	0x5e
 6379 04d8 08       		.uleb128 0x8
 6380 04d9 04       		.byte	0x4
 6381 04da DE040000 		.4byte	0x4de
 6382 04de 16       		.uleb128 0x16
 6383 04df 5E000000 		.4byte	0x5e
 6384 04e3 14       		.uleb128 0x14
 6385 04e4 04080000 		.4byte	.LASF138
 6386 04e8 02       		.byte	0x2
 6387 04e9 65       		.byte	0x65
 6388 04ea 03       		.byte	0x3
ARM GAS  C:\Users\ddemidov\AppData\Local\Temp\ccTwWFqA.s 			page 164


 6389 04eb 24050000 		.4byte	0x524
 6390 04ef 12       		.uleb128 0x12
 6391 04f0 6F757400 		.ascii	"out\000"
 6392 04f4 02       		.byte	0x2
 6393 04f5 65       		.byte	0x65
 6394 04f6 24050000 		.4byte	0x524
 6395 04fa 12       		.uleb128 0x12
 6396 04fb 696E00   		.ascii	"in\000"
 6397 04fe 02       		.byte	0x2
 6398 04ff 65       		.byte	0x65
 6399 0500 2A050000 		.4byte	0x52a
 6400 0504 13       		.uleb128 0x13
 6401 0505 73020000 		.4byte	.LASF139
 6402 0509 02       		.byte	0x2
 6403 050a 66       		.byte	0x66
 6404 050b 45000000 		.4byte	0x45
 6405 050f 17       		.uleb128 0x17
 6406 0510 28030000 		.4byte	.LASF140
 6407 0514 02       		.byte	0x2
 6408 0515 68       		.byte	0x68
 6409 0516 45000000 		.4byte	0x45
 6410 051a 15       		.uleb128 0x15
 6411 051b 6900     		.ascii	"i\000"
 6412 051d 02       		.byte	0x2
 6413 051e 68       		.byte	0x68
 6414 051f 45000000 		.4byte	0x45
 6415 0523 00       		.byte	0
 6416 0524 08       		.uleb128 0x8
 6417 0525 04       		.byte	0x4
 6418 0526 45000000 		.4byte	0x45
 6419 052a 08       		.uleb128 0x8
 6420 052b 04       		.byte	0x4
 6421 052c 30050000 		.4byte	0x530
 6422 0530 16       		.uleb128 0x16
 6423 0531 45000000 		.4byte	0x45
 6424 0535 18       		.uleb128 0x18
 6425 0536 99020000 		.4byte	.LASF143
 6426 053a 01       		.byte	0x1
 6427 053b 5804     		.2byte	0x458
 6428 053d 00000000 		.4byte	.LFB12
 6429 0541 44050000 		.4byte	.LFE12-.LFB12
 6430 0545 01       		.uleb128 0x1
 6431 0546 9C       		.byte	0x9c
 6432 0547 01090000 		.4byte	0x901
 6433 054b 19       		.uleb128 0x19
 6434 054c 61657300 		.ascii	"aes\000"
 6435 0550 01       		.byte	0x1
 6436 0551 5804     		.2byte	0x458
 6437 0553 01090000 		.4byte	0x901
 6438 0557 00000000 		.4byte	.LLST0
 6439 055b 1A       		.uleb128 0x1a
 6440 055c 74040000 		.4byte	.LASF141
 6441 0560 01       		.byte	0x1
 6442 0561 5804     		.2byte	0x458
 6443 0563 07090000 		.4byte	0x907
 6444 0567 38000000 		.4byte	.LLST1
 6445 056b 1A       		.uleb128 0x1a
ARM GAS  C:\Users\ddemidov\AppData\Local\Temp\ccTwWFqA.s 			page 165


 6446 056c 82010000 		.4byte	.LASF142
 6447 0570 01       		.byte	0x1
 6448 0571 5804     		.2byte	0x458
 6449 0573 12090000 		.4byte	0x912
 6450 0577 64000000 		.4byte	.LLST2
 6451 057b 1B       		.uleb128 0x1b
 6452 057c 733000   		.ascii	"s0\000"
 6453 057f 01       		.byte	0x1
 6454 0580 5A04     		.2byte	0x45a
 6455 0582 45000000 		.4byte	0x45
 6456 0586 02       		.uleb128 0x2
 6457 0587 91       		.byte	0x91
 6458 0588 54       		.sleb128 -44
 6459 0589 1B       		.uleb128 0x1b
 6460 058a 733100   		.ascii	"s1\000"
 6461 058d 01       		.byte	0x1
 6462 058e 5A04     		.2byte	0x45a
 6463 0590 45000000 		.4byte	0x45
 6464 0594 02       		.uleb128 0x2
 6465 0595 91       		.byte	0x91
 6466 0596 50       		.sleb128 -48
 6467 0597 1B       		.uleb128 0x1b
 6468 0598 733200   		.ascii	"s2\000"
 6469 059b 01       		.byte	0x1
 6470 059c 5A04     		.2byte	0x45a
 6471 059e 45000000 		.4byte	0x45
 6472 05a2 02       		.uleb128 0x2
 6473 05a3 91       		.byte	0x91
 6474 05a4 4C       		.sleb128 -52
 6475 05a5 1B       		.uleb128 0x1b
 6476 05a6 733300   		.ascii	"s3\000"
 6477 05a9 01       		.byte	0x1
 6478 05aa 5A04     		.2byte	0x45a
 6479 05ac 45000000 		.4byte	0x45
 6480 05b0 02       		.uleb128 0x2
 6481 05b1 91       		.byte	0x91
 6482 05b2 48       		.sleb128 -56
 6483 05b3 1C       		.uleb128 0x1c
 6484 05b4 743000   		.ascii	"t0\000"
 6485 05b7 01       		.byte	0x1
 6486 05b8 5B04     		.2byte	0x45b
 6487 05ba 45000000 		.4byte	0x45
 6488 05be 91000000 		.4byte	.LLST3
 6489 05c2 1C       		.uleb128 0x1c
 6490 05c3 743100   		.ascii	"t1\000"
 6491 05c6 01       		.byte	0x1
 6492 05c7 5B04     		.2byte	0x45b
 6493 05c9 45000000 		.4byte	0x45
 6494 05cd AE010000 		.4byte	.LLST4
 6495 05d1 1C       		.uleb128 0x1c
 6496 05d2 743200   		.ascii	"t2\000"
 6497 05d5 01       		.byte	0x1
 6498 05d6 5B04     		.2byte	0x45b
 6499 05d8 45000000 		.4byte	0x45
 6500 05dc E1020000 		.4byte	.LLST5
 6501 05e0 1C       		.uleb128 0x1c
 6502 05e1 743300   		.ascii	"t3\000"
ARM GAS  C:\Users\ddemidov\AppData\Local\Temp\ccTwWFqA.s 			page 166


 6503 05e4 01       		.byte	0x1
 6504 05e5 5B04     		.2byte	0x45b
 6505 05e7 45000000 		.4byte	0x45
 6506 05eb 17030000 		.4byte	.LLST6
 6507 05ef 1C       		.uleb128 0x1c
 6508 05f0 7200     		.ascii	"r\000"
 6509 05f2 01       		.byte	0x1
 6510 05f3 5C04     		.2byte	0x45c
 6511 05f5 45000000 		.4byte	0x45
 6512 05f9 3F040000 		.4byte	.LLST7
 6513 05fd 1C       		.uleb128 0x1c
 6514 05fe 726B00   		.ascii	"rk\000"
 6515 0601 01       		.byte	0x1
 6516 0602 5E04     		.2byte	0x45e
 6517 0604 2A050000 		.4byte	0x52a
 6518 0608 73040000 		.4byte	.LLST8
 6519 060c 1D       		.uleb128 0x1d
 6520 060d 85040000 		.4byte	0x485
 6521 0611 52000000 		.4byte	.LBB82
 6522 0615 16000000 		.4byte	.LBE82-.LBB82
 6523 0619 01       		.byte	0x1
 6524 061a 9704     		.2byte	0x497
 6525 061c 4C060000 		.4byte	0x64c
 6526 0620 1E       		.uleb128 0x1e
 6527 0621 95040000 		.4byte	0x495
 6528 0625 C0040000 		.4byte	.LLST9
 6529 0629 1F       		.uleb128 0x1f
 6530 062a 62040000 		.4byte	0x462
 6531 062e 64000000 		.4byte	.LBB84
 6532 0632 04000000 		.4byte	.LBE84-.LBB84
 6533 0636 02       		.byte	0x2
 6534 0637 60       		.byte	0x60
 6535 0638 1E       		.uleb128 0x1e
 6536 0639 7B040000 		.4byte	0x47b
 6537 063d 3B050000 		.4byte	.LLST10
 6538 0641 1E       		.uleb128 0x1e
 6539 0642 72040000 		.4byte	0x472
 6540 0646 4F050000 		.4byte	.LLST11
 6541 064a 00       		.byte	0
 6542 064b 00       		.byte	0
 6543 064c 1D       		.uleb128 0x1d
 6544 064d 85040000 		.4byte	0x485
 6545 0651 6A000000 		.4byte	.LBB86
 6546 0655 0E000000 		.4byte	.LBE86-.LBB86
 6547 0659 01       		.byte	0x1
 6548 065a 9804     		.2byte	0x498
 6549 065c 8C060000 		.4byte	0x68c
 6550 0660 1E       		.uleb128 0x1e
 6551 0661 95040000 		.4byte	0x495
 6552 0665 B3050000 		.4byte	.LLST12
 6553 0669 1F       		.uleb128 0x1f
 6554 066a 62040000 		.4byte	0x462
 6555 066e 76000000 		.4byte	.LBB88
 6556 0672 02000000 		.4byte	.LBE88-.LBB88
 6557 0676 02       		.byte	0x2
 6558 0677 60       		.byte	0x60
 6559 0678 1E       		.uleb128 0x1e
ARM GAS  C:\Users\ddemidov\AppData\Local\Temp\ccTwWFqA.s 			page 167


 6560 0679 7B040000 		.4byte	0x47b
 6561 067d 2E060000 		.4byte	.LLST13
 6562 0681 1E       		.uleb128 0x1e
 6563 0682 72040000 		.4byte	0x472
 6564 0686 42060000 		.4byte	.LLST14
 6565 068a 00       		.byte	0
 6566 068b 00       		.byte	0
 6567 068c 1D       		.uleb128 0x1d
 6568 068d 85040000 		.4byte	0x485
 6569 0691 7A000000 		.4byte	.LBB90
 6570 0695 0E000000 		.4byte	.LBE90-.LBB90
 6571 0699 01       		.byte	0x1
 6572 069a 9904     		.2byte	0x499
 6573 069c CC060000 		.4byte	0x6cc
 6574 06a0 1E       		.uleb128 0x1e
 6575 06a1 95040000 		.4byte	0x495
 6576 06a5 A6060000 		.4byte	.LLST15
 6577 06a9 1F       		.uleb128 0x1f
 6578 06aa 62040000 		.4byte	0x462
 6579 06ae 86000000 		.4byte	.LBB92
 6580 06b2 02000000 		.4byte	.LBE92-.LBB92
 6581 06b6 02       		.byte	0x2
 6582 06b7 60       		.byte	0x60
 6583 06b8 1E       		.uleb128 0x1e
 6584 06b9 7B040000 		.4byte	0x47b
 6585 06bd 21070000 		.4byte	.LLST16
 6586 06c1 1E       		.uleb128 0x1e
 6587 06c2 72040000 		.4byte	0x472
 6588 06c6 35070000 		.4byte	.LLST17
 6589 06ca 00       		.byte	0
 6590 06cb 00       		.byte	0
 6591 06cc 1D       		.uleb128 0x1d
 6592 06cd 85040000 		.4byte	0x485
 6593 06d1 88000000 		.4byte	.LBB94
 6594 06d5 10000000 		.4byte	.LBE94-.LBB94
 6595 06d9 01       		.byte	0x1
 6596 06da 9A04     		.2byte	0x49a
 6597 06dc 0C070000 		.4byte	0x70c
 6598 06e0 1E       		.uleb128 0x1e
 6599 06e1 95040000 		.4byte	0x495
 6600 06e5 99070000 		.4byte	.LLST18
 6601 06e9 1F       		.uleb128 0x1f
 6602 06ea 62040000 		.4byte	0x462
 6603 06ee 96000000 		.4byte	.LBB96
 6604 06f2 02000000 		.4byte	.LBE96-.LBB96
 6605 06f6 02       		.byte	0x2
 6606 06f7 60       		.byte	0x60
 6607 06f8 1E       		.uleb128 0x1e
 6608 06f9 7B040000 		.4byte	0x47b
 6609 06fd 0D080000 		.4byte	.LLST19
 6610 0701 1E       		.uleb128 0x1e
 6611 0702 72040000 		.4byte	0x472
 6612 0706 21080000 		.4byte	.LLST20
 6613 070a 00       		.byte	0
 6614 070b 00       		.byte	0
 6615 070c 1D       		.uleb128 0x1d
 6616 070d 85040000 		.4byte	0x485
ARM GAS  C:\Users\ddemidov\AppData\Local\Temp\ccTwWFqA.s 			page 168


 6617 0711 B2040000 		.4byte	.LBB98
 6618 0715 14000000 		.4byte	.LBE98-.LBB98
 6619 0719 01       		.byte	0x1
 6620 071a FF04     		.2byte	0x4ff
 6621 071c 4C070000 		.4byte	0x74c
 6622 0720 1E       		.uleb128 0x1e
 6623 0721 95040000 		.4byte	0x495
 6624 0725 89080000 		.4byte	.LLST21
 6625 0729 1F       		.uleb128 0x1f
 6626 072a 62040000 		.4byte	0x462
 6627 072e C2040000 		.4byte	.LBB100
 6628 0732 04000000 		.4byte	.LBE100-.LBB100
 6629 0736 02       		.byte	0x2
 6630 0737 60       		.byte	0x60
 6631 0738 1E       		.uleb128 0x1e
 6632 0739 7B040000 		.4byte	0x47b
 6633 073d A7080000 		.4byte	.LLST22
 6634 0741 1E       		.uleb128 0x1e
 6635 0742 72040000 		.4byte	0x472
 6636 0746 BB080000 		.4byte	.LLST23
 6637 074a 00       		.byte	0
 6638 074b 00       		.byte	0
 6639 074c 1D       		.uleb128 0x1d
 6640 074d 85040000 		.4byte	0x485
 6641 0751 C8040000 		.4byte	.LBB102
 6642 0755 12000000 		.4byte	.LBE102-.LBB102
 6643 0759 01       		.byte	0x1
 6644 075a 0005     		.2byte	0x500
 6645 075c 8C070000 		.4byte	0x78c
 6646 0760 1E       		.uleb128 0x1e
 6647 0761 95040000 		.4byte	0x495
 6648 0765 CE080000 		.4byte	.LLST24
 6649 0769 1F       		.uleb128 0x1f
 6650 076a 62040000 		.4byte	0x462
 6651 076e D8040000 		.4byte	.LBB104
 6652 0772 02000000 		.4byte	.LBE104-.LBB104
 6653 0776 02       		.byte	0x2
 6654 0777 60       		.byte	0x60
 6655 0778 1E       		.uleb128 0x1e
 6656 0779 7B040000 		.4byte	0x47b
 6657 077d 60090000 		.4byte	.LLST25
 6658 0781 1E       		.uleb128 0x1e
 6659 0782 72040000 		.4byte	0x472
 6660 0786 74090000 		.4byte	.LLST26
 6661 078a 00       		.byte	0
 6662 078b 00       		.byte	0
 6663 078c 1D       		.uleb128 0x1d
 6664 078d 85040000 		.4byte	0x485
 6665 0791 DC040000 		.4byte	.LBB106
 6666 0795 10000000 		.4byte	.LBE106-.LBB106
 6667 0799 01       		.byte	0x1
 6668 079a 0105     		.2byte	0x501
 6669 079c CC070000 		.4byte	0x7cc
 6670 07a0 1E       		.uleb128 0x1e
 6671 07a1 95040000 		.4byte	0x495
 6672 07a5 FA090000 		.4byte	.LLST27
 6673 07a9 1F       		.uleb128 0x1f
ARM GAS  C:\Users\ddemidov\AppData\Local\Temp\ccTwWFqA.s 			page 169


 6674 07aa 62040000 		.4byte	0x462
 6675 07ae EA040000 		.4byte	.LBB108
 6676 07b2 02000000 		.4byte	.LBE108-.LBB108
 6677 07b6 02       		.byte	0x2
 6678 07b7 60       		.byte	0x60
 6679 07b8 1E       		.uleb128 0x1e
 6680 07b9 7B040000 		.4byte	0x47b
 6681 07bd 650A0000 		.4byte	.LLST28
 6682 07c1 1E       		.uleb128 0x1e
 6683 07c2 72040000 		.4byte	0x472
 6684 07c6 790A0000 		.4byte	.LLST29
 6685 07ca 00       		.byte	0
 6686 07cb 00       		.byte	0
 6687 07cc 1D       		.uleb128 0x1d
 6688 07cd 85040000 		.4byte	0x485
 6689 07d1 EE040000 		.4byte	.LBB110
 6690 07d5 0C000000 		.4byte	.LBE110-.LBB110
 6691 07d9 01       		.byte	0x1
 6692 07da 0205     		.2byte	0x502
 6693 07dc 0C080000 		.4byte	0x80c
 6694 07e0 1E       		.uleb128 0x1e
 6695 07e1 95040000 		.4byte	0x495
 6696 07e5 D90A0000 		.4byte	.LLST30
 6697 07e9 1F       		.uleb128 0x1f
 6698 07ea 62040000 		.4byte	0x462
 6699 07ee F8040000 		.4byte	.LBB112
 6700 07f2 02000000 		.4byte	.LBE112-.LBB112
 6701 07f6 02       		.byte	0x2
 6702 07f7 60       		.byte	0x60
 6703 07f8 1E       		.uleb128 0x1e
 6704 07f9 7B040000 		.4byte	0x47b
 6705 07fd 0F0B0000 		.4byte	.LLST31
 6706 0801 1E       		.uleb128 0x1e
 6707 0802 72040000 		.4byte	0x472
 6708 0806 230B0000 		.4byte	.LLST32
 6709 080a 00       		.byte	0
 6710 080b 00       		.byte	0
 6711 080c 20       		.uleb128 0x20
 6712 080d 2E000000 		.4byte	.LVL6
 6713 0811 74120000 		.4byte	0x1274
 6714 0815 2B080000 		.4byte	0x82b
 6715 0819 21       		.uleb128 0x21
 6716 081a 01       		.uleb128 0x1
 6717 081b 52       		.byte	0x52
 6718 081c 01       		.uleb128 0x1
 6719 081d 34       		.byte	0x34
 6720 081e 21       		.uleb128 0x21
 6721 081f 01       		.uleb128 0x1
 6722 0820 51       		.byte	0x51
 6723 0821 02       		.uleb128 0x2
 6724 0822 75       		.byte	0x75
 6725 0823 00       		.sleb128 0
 6726 0824 21       		.uleb128 0x21
 6727 0825 01       		.uleb128 0x1
 6728 0826 50       		.byte	0x50
 6729 0827 02       		.uleb128 0x2
 6730 0828 91       		.byte	0x91
ARM GAS  C:\Users\ddemidov\AppData\Local\Temp\ccTwWFqA.s 			page 170


 6731 0829 54       		.sleb128 -44
 6732 082a 00       		.byte	0
 6733 082b 20       		.uleb128 0x20
 6734 082c 38000000 		.4byte	.LVL7
 6735 0830 74120000 		.4byte	0x1274
 6736 0834 4A080000 		.4byte	0x84a
 6737 0838 21       		.uleb128 0x21
 6738 0839 01       		.uleb128 0x1
 6739 083a 52       		.byte	0x52
 6740 083b 01       		.uleb128 0x1
 6741 083c 34       		.byte	0x34
 6742 083d 21       		.uleb128 0x21
 6743 083e 01       		.uleb128 0x1
 6744 083f 51       		.byte	0x51
 6745 0840 02       		.uleb128 0x2
 6746 0841 75       		.byte	0x75
 6747 0842 04       		.sleb128 4
 6748 0843 21       		.uleb128 0x21
 6749 0844 01       		.uleb128 0x1
 6750 0845 50       		.byte	0x50
 6751 0846 02       		.uleb128 0x2
 6752 0847 91       		.byte	0x91
 6753 0848 50       		.sleb128 -48
 6754 0849 00       		.byte	0
 6755 084a 20       		.uleb128 0x20
 6756 084b 44000000 		.4byte	.LVL8
 6757 084f 74120000 		.4byte	0x1274
 6758 0853 69080000 		.4byte	0x869
 6759 0857 21       		.uleb128 0x21
 6760 0858 01       		.uleb128 0x1
 6761 0859 52       		.byte	0x52
 6762 085a 01       		.uleb128 0x1
 6763 085b 34       		.byte	0x34
 6764 085c 21       		.uleb128 0x21
 6765 085d 01       		.uleb128 0x1
 6766 085e 51       		.byte	0x51
 6767 085f 02       		.uleb128 0x2
 6768 0860 75       		.byte	0x75
 6769 0861 08       		.sleb128 8
 6770 0862 21       		.uleb128 0x21
 6771 0863 01       		.uleb128 0x1
 6772 0864 50       		.byte	0x50
 6773 0865 02       		.uleb128 0x2
 6774 0866 91       		.byte	0x91
 6775 0867 4C       		.sleb128 -52
 6776 0868 00       		.byte	0
 6777 0869 20       		.uleb128 0x20
 6778 086a 50000000 		.4byte	.LVL9
 6779 086e 74120000 		.4byte	0x1274
 6780 0872 88080000 		.4byte	0x888
 6781 0876 21       		.uleb128 0x21
 6782 0877 01       		.uleb128 0x1
 6783 0878 52       		.byte	0x52
 6784 0879 01       		.uleb128 0x1
 6785 087a 34       		.byte	0x34
 6786 087b 21       		.uleb128 0x21
 6787 087c 01       		.uleb128 0x1
ARM GAS  C:\Users\ddemidov\AppData\Local\Temp\ccTwWFqA.s 			page 171


 6788 087d 51       		.byte	0x51
 6789 087e 02       		.uleb128 0x2
 6790 087f 75       		.byte	0x75
 6791 0880 0C       		.sleb128 12
 6792 0881 21       		.uleb128 0x21
 6793 0882 01       		.uleb128 0x1
 6794 0883 50       		.byte	0x50
 6795 0884 02       		.uleb128 0x2
 6796 0885 91       		.byte	0x91
 6797 0886 48       		.sleb128 -56
 6798 0887 00       		.byte	0
 6799 0888 20       		.uleb128 0x20
 6800 0889 08050000 		.4byte	.LVL77
 6801 088d 74120000 		.4byte	0x1274
 6802 0891 A7080000 		.4byte	0x8a7
 6803 0895 21       		.uleb128 0x21
 6804 0896 01       		.uleb128 0x1
 6805 0897 52       		.byte	0x52
 6806 0898 01       		.uleb128 0x1
 6807 0899 34       		.byte	0x34
 6808 089a 21       		.uleb128 0x21
 6809 089b 01       		.uleb128 0x1
 6810 089c 51       		.byte	0x51
 6811 089d 02       		.uleb128 0x2
 6812 089e 91       		.byte	0x91
 6813 089f 54       		.sleb128 -44
 6814 08a0 21       		.uleb128 0x21
 6815 08a1 01       		.uleb128 0x1
 6816 08a2 50       		.byte	0x50
 6817 08a3 02       		.uleb128 0x2
 6818 08a4 74       		.byte	0x74
 6819 08a5 00       		.sleb128 0
 6820 08a6 00       		.byte	0
 6821 08a7 20       		.uleb128 0x20
 6822 08a8 12050000 		.4byte	.LVL78
 6823 08ac 74120000 		.4byte	0x1274
 6824 08b0 C6080000 		.4byte	0x8c6
 6825 08b4 21       		.uleb128 0x21
 6826 08b5 01       		.uleb128 0x1
 6827 08b6 52       		.byte	0x52
 6828 08b7 01       		.uleb128 0x1
 6829 08b8 34       		.byte	0x34
 6830 08b9 21       		.uleb128 0x21
 6831 08ba 01       		.uleb128 0x1
 6832 08bb 51       		.byte	0x51
 6833 08bc 02       		.uleb128 0x2
 6834 08bd 91       		.byte	0x91
 6835 08be 50       		.sleb128 -48
 6836 08bf 21       		.uleb128 0x21
 6837 08c0 01       		.uleb128 0x1
 6838 08c1 50       		.byte	0x50
 6839 08c2 02       		.uleb128 0x2
 6840 08c3 74       		.byte	0x74
 6841 08c4 04       		.sleb128 4
 6842 08c5 00       		.byte	0
 6843 08c6 20       		.uleb128 0x20
 6844 08c7 1E050000 		.4byte	.LVL79
ARM GAS  C:\Users\ddemidov\AppData\Local\Temp\ccTwWFqA.s 			page 172


 6845 08cb 74120000 		.4byte	0x1274
 6846 08cf E5080000 		.4byte	0x8e5
 6847 08d3 21       		.uleb128 0x21
 6848 08d4 01       		.uleb128 0x1
 6849 08d5 52       		.byte	0x52
 6850 08d6 01       		.uleb128 0x1
 6851 08d7 34       		.byte	0x34
 6852 08d8 21       		.uleb128 0x21
 6853 08d9 01       		.uleb128 0x1
 6854 08da 51       		.byte	0x51
 6855 08db 02       		.uleb128 0x2
 6856 08dc 91       		.byte	0x91
 6857 08dd 4C       		.sleb128 -52
 6858 08de 21       		.uleb128 0x21
 6859 08df 01       		.uleb128 0x1
 6860 08e0 50       		.byte	0x50
 6861 08e1 02       		.uleb128 0x2
 6862 08e2 74       		.byte	0x74
 6863 08e3 08       		.sleb128 8
 6864 08e4 00       		.byte	0
 6865 08e5 22       		.uleb128 0x22
 6866 08e6 2A050000 		.4byte	.LVL80
 6867 08ea 74120000 		.4byte	0x1274
 6868 08ee 21       		.uleb128 0x21
 6869 08ef 01       		.uleb128 0x1
 6870 08f0 52       		.byte	0x52
 6871 08f1 01       		.uleb128 0x1
 6872 08f2 34       		.byte	0x34
 6873 08f3 21       		.uleb128 0x21
 6874 08f4 01       		.uleb128 0x1
 6875 08f5 51       		.byte	0x51
 6876 08f6 02       		.uleb128 0x2
 6877 08f7 91       		.byte	0x91
 6878 08f8 48       		.sleb128 -56
 6879 08f9 21       		.uleb128 0x21
 6880 08fa 01       		.uleb128 0x1
 6881 08fb 50       		.byte	0x50
 6882 08fc 02       		.uleb128 0x2
 6883 08fd 74       		.byte	0x74
 6884 08fe 0C       		.sleb128 12
 6885 08ff 00       		.byte	0
 6886 0900 00       		.byte	0
 6887 0901 08       		.uleb128 0x8
 6888 0902 04       		.byte	0x4
 6889 0903 3E010000 		.4byte	0x13e
 6890 0907 08       		.uleb128 0x8
 6891 0908 04       		.byte	0x4
 6892 0909 0D090000 		.4byte	0x90d
 6893 090d 16       		.uleb128 0x16
 6894 090e 2C000000 		.4byte	0x2c
 6895 0912 08       		.uleb128 0x8
 6896 0913 04       		.byte	0x4
 6897 0914 2C000000 		.4byte	0x2c
 6898 0918 18       		.uleb128 0x18
 6899 0919 C3020000 		.4byte	.LASF144
 6900 091d 01       		.byte	0x1
 6901 091e 0E05     		.2byte	0x50e
ARM GAS  C:\Users\ddemidov\AppData\Local\Temp\ccTwWFqA.s 			page 173


 6902 0920 00000000 		.4byte	.LFB13
 6903 0924 2C050000 		.4byte	.LFE13-.LFB13
 6904 0928 01       		.uleb128 0x1
 6905 0929 9C       		.byte	0x9c
 6906 092a E40C0000 		.4byte	0xce4
 6907 092e 19       		.uleb128 0x19
 6908 092f 61657300 		.ascii	"aes\000"
 6909 0933 01       		.byte	0x1
 6910 0934 0E05     		.2byte	0x50e
 6911 0936 01090000 		.4byte	0x901
 6912 093a 4E0B0000 		.4byte	.LLST33
 6913 093e 1A       		.uleb128 0x1a
 6914 093f 74040000 		.4byte	.LASF141
 6915 0943 01       		.byte	0x1
 6916 0944 0E05     		.2byte	0x50e
 6917 0946 07090000 		.4byte	0x907
 6918 094a 860B0000 		.4byte	.LLST34
 6919 094e 1A       		.uleb128 0x1a
 6920 094f 82010000 		.4byte	.LASF142
 6921 0953 01       		.byte	0x1
 6922 0954 0E05     		.2byte	0x50e
 6923 0956 12090000 		.4byte	0x912
 6924 095a B20B0000 		.4byte	.LLST35
 6925 095e 1B       		.uleb128 0x1b
 6926 095f 733000   		.ascii	"s0\000"
 6927 0962 01       		.byte	0x1
 6928 0963 1005     		.2byte	0x510
 6929 0965 45000000 		.4byte	0x45
 6930 0969 02       		.uleb128 0x2
 6931 096a 91       		.byte	0x91
 6932 096b 54       		.sleb128 -44
 6933 096c 1B       		.uleb128 0x1b
 6934 096d 733100   		.ascii	"s1\000"
 6935 0970 01       		.byte	0x1
 6936 0971 1005     		.2byte	0x510
 6937 0973 45000000 		.4byte	0x45
 6938 0977 02       		.uleb128 0x2
 6939 0978 91       		.byte	0x91
 6940 0979 50       		.sleb128 -48
 6941 097a 1B       		.uleb128 0x1b
 6942 097b 733200   		.ascii	"s2\000"
 6943 097e 01       		.byte	0x1
 6944 097f 1005     		.2byte	0x510
 6945 0981 45000000 		.4byte	0x45
 6946 0985 02       		.uleb128 0x2
 6947 0986 91       		.byte	0x91
 6948 0987 4C       		.sleb128 -52
 6949 0988 1B       		.uleb128 0x1b
 6950 0989 733300   		.ascii	"s3\000"
 6951 098c 01       		.byte	0x1
 6952 098d 1005     		.2byte	0x510
 6953 098f 45000000 		.4byte	0x45
 6954 0993 02       		.uleb128 0x2
 6955 0994 91       		.byte	0x91
 6956 0995 48       		.sleb128 -56
 6957 0996 1C       		.uleb128 0x1c
 6958 0997 743000   		.ascii	"t0\000"
ARM GAS  C:\Users\ddemidov\AppData\Local\Temp\ccTwWFqA.s 			page 174


 6959 099a 01       		.byte	0x1
 6960 099b 1105     		.2byte	0x511
 6961 099d 45000000 		.4byte	0x45
 6962 09a1 DF0B0000 		.4byte	.LLST36
 6963 09a5 1C       		.uleb128 0x1c
 6964 09a6 743100   		.ascii	"t1\000"
 6965 09a9 01       		.byte	0x1
 6966 09aa 1105     		.2byte	0x511
 6967 09ac 45000000 		.4byte	0x45
 6968 09b0 150C0000 		.4byte	.LLST37
 6969 09b4 1C       		.uleb128 0x1c
 6970 09b5 743200   		.ascii	"t2\000"
 6971 09b8 01       		.byte	0x1
 6972 09b9 1105     		.2byte	0x511
 6973 09bb 45000000 		.4byte	0x45
 6974 09bf 320D0000 		.4byte	.LLST38
 6975 09c3 1C       		.uleb128 0x1c
 6976 09c4 743300   		.ascii	"t3\000"
 6977 09c7 01       		.byte	0x1
 6978 09c8 1105     		.2byte	0x511
 6979 09ca 45000000 		.4byte	0x45
 6980 09ce 650E0000 		.4byte	.LLST39
 6981 09d2 1C       		.uleb128 0x1c
 6982 09d3 7200     		.ascii	"r\000"
 6983 09d5 01       		.byte	0x1
 6984 09d6 1205     		.2byte	0x512
 6985 09d8 45000000 		.4byte	0x45
 6986 09dc 820F0000 		.4byte	.LLST40
 6987 09e0 1C       		.uleb128 0x1c
 6988 09e1 726B00   		.ascii	"rk\000"
 6989 09e4 01       		.byte	0x1
 6990 09e5 1405     		.2byte	0x514
 6991 09e7 2A050000 		.4byte	0x52a
 6992 09eb B60F0000 		.4byte	.LLST41
 6993 09ef 1D       		.uleb128 0x1d
 6994 09f0 85040000 		.4byte	0x485
 6995 09f4 52000000 		.4byte	.LBB114
 6996 09f8 16000000 		.4byte	.LBE114-.LBB114
 6997 09fc 01       		.byte	0x1
 6998 09fd 3B05     		.2byte	0x53b
 6999 09ff 2F0A0000 		.4byte	0xa2f
 7000 0a03 1E       		.uleb128 0x1e
 7001 0a04 95040000 		.4byte	0x495
 7002 0a08 03100000 		.4byte	.LLST42
 7003 0a0c 1F       		.uleb128 0x1f
 7004 0a0d 62040000 		.4byte	0x462
 7005 0a11 64000000 		.4byte	.LBB116
 7006 0a15 04000000 		.4byte	.LBE116-.LBB116
 7007 0a19 02       		.byte	0x2
 7008 0a1a 60       		.byte	0x60
 7009 0a1b 1E       		.uleb128 0x1e
 7010 0a1c 7B040000 		.4byte	0x47b
 7011 0a20 7E100000 		.4byte	.LLST43
 7012 0a24 1E       		.uleb128 0x1e
 7013 0a25 72040000 		.4byte	0x472
 7014 0a29 92100000 		.4byte	.LLST44
 7015 0a2d 00       		.byte	0
ARM GAS  C:\Users\ddemidov\AppData\Local\Temp\ccTwWFqA.s 			page 175


 7016 0a2e 00       		.byte	0
 7017 0a2f 1D       		.uleb128 0x1d
 7018 0a30 85040000 		.4byte	0x485
 7019 0a34 6A000000 		.4byte	.LBB118
 7020 0a38 0E000000 		.4byte	.LBE118-.LBB118
 7021 0a3c 01       		.byte	0x1
 7022 0a3d 3C05     		.2byte	0x53c
 7023 0a3f 6F0A0000 		.4byte	0xa6f
 7024 0a43 1E       		.uleb128 0x1e
 7025 0a44 95040000 		.4byte	0x495
 7026 0a48 F6100000 		.4byte	.LLST45
 7027 0a4c 1F       		.uleb128 0x1f
 7028 0a4d 62040000 		.4byte	0x462
 7029 0a51 76000000 		.4byte	.LBB120
 7030 0a55 02000000 		.4byte	.LBE120-.LBB120
 7031 0a59 02       		.byte	0x2
 7032 0a5a 60       		.byte	0x60
 7033 0a5b 1E       		.uleb128 0x1e
 7034 0a5c 7B040000 		.4byte	0x47b
 7035 0a60 71110000 		.4byte	.LLST46
 7036 0a64 1E       		.uleb128 0x1e
 7037 0a65 72040000 		.4byte	0x472
 7038 0a69 85110000 		.4byte	.LLST47
 7039 0a6d 00       		.byte	0
 7040 0a6e 00       		.byte	0
 7041 0a6f 1D       		.uleb128 0x1d
 7042 0a70 85040000 		.4byte	0x485
 7043 0a74 7A000000 		.4byte	.LBB122
 7044 0a78 0E000000 		.4byte	.LBE122-.LBB122
 7045 0a7c 01       		.byte	0x1
 7046 0a7d 3D05     		.2byte	0x53d
 7047 0a7f AF0A0000 		.4byte	0xaaf
 7048 0a83 1E       		.uleb128 0x1e
 7049 0a84 95040000 		.4byte	0x495
 7050 0a88 E9110000 		.4byte	.LLST48
 7051 0a8c 1F       		.uleb128 0x1f
 7052 0a8d 62040000 		.4byte	0x462
 7053 0a91 86000000 		.4byte	.LBB124
 7054 0a95 02000000 		.4byte	.LBE124-.LBB124
 7055 0a99 02       		.byte	0x2
 7056 0a9a 60       		.byte	0x60
 7057 0a9b 1E       		.uleb128 0x1e
 7058 0a9c 7B040000 		.4byte	0x47b
 7059 0aa0 64120000 		.4byte	.LLST49
 7060 0aa4 1E       		.uleb128 0x1e
 7061 0aa5 72040000 		.4byte	0x472
 7062 0aa9 78120000 		.4byte	.LLST50
 7063 0aad 00       		.byte	0
 7064 0aae 00       		.byte	0
 7065 0aaf 1D       		.uleb128 0x1d
 7066 0ab0 85040000 		.4byte	0x485
 7067 0ab4 88000000 		.4byte	.LBB126
 7068 0ab8 10000000 		.4byte	.LBE126-.LBB126
 7069 0abc 01       		.byte	0x1
 7070 0abd 3E05     		.2byte	0x53e
 7071 0abf EF0A0000 		.4byte	0xaef
 7072 0ac3 1E       		.uleb128 0x1e
ARM GAS  C:\Users\ddemidov\AppData\Local\Temp\ccTwWFqA.s 			page 176


 7073 0ac4 95040000 		.4byte	0x495
 7074 0ac8 DC120000 		.4byte	.LLST51
 7075 0acc 1F       		.uleb128 0x1f
 7076 0acd 62040000 		.4byte	0x462
 7077 0ad1 96000000 		.4byte	.LBB128
 7078 0ad5 02000000 		.4byte	.LBE128-.LBB128
 7079 0ad9 02       		.byte	0x2
 7080 0ada 60       		.byte	0x60
 7081 0adb 1E       		.uleb128 0x1e
 7082 0adc 7B040000 		.4byte	0x47b
 7083 0ae0 50130000 		.4byte	.LLST52
 7084 0ae4 1E       		.uleb128 0x1e
 7085 0ae5 72040000 		.4byte	0x472
 7086 0ae9 64130000 		.4byte	.LLST53
 7087 0aed 00       		.byte	0
 7088 0aee 00       		.byte	0
 7089 0aef 1D       		.uleb128 0x1d
 7090 0af0 85040000 		.4byte	0x485
 7091 0af4 9A040000 		.4byte	.LBB130
 7092 0af8 14000000 		.4byte	.LBE130-.LBB130
 7093 0afc 01       		.byte	0x1
 7094 0afd A105     		.2byte	0x5a1
 7095 0aff 2F0B0000 		.4byte	0xb2f
 7096 0b03 1E       		.uleb128 0x1e
 7097 0b04 95040000 		.4byte	0x495
 7098 0b08 CC130000 		.4byte	.LLST54
 7099 0b0c 1F       		.uleb128 0x1f
 7100 0b0d 62040000 		.4byte	0x462
 7101 0b11 AA040000 		.4byte	.LBB132
 7102 0b15 04000000 		.4byte	.LBE132-.LBB132
 7103 0b19 02       		.byte	0x2
 7104 0b1a 60       		.byte	0x60
 7105 0b1b 1E       		.uleb128 0x1e
 7106 0b1c 7B040000 		.4byte	0x47b
 7107 0b20 EA130000 		.4byte	.LLST55
 7108 0b24 1E       		.uleb128 0x1e
 7109 0b25 72040000 		.4byte	0x472
 7110 0b29 FE130000 		.4byte	.LLST56
 7111 0b2d 00       		.byte	0
 7112 0b2e 00       		.byte	0
 7113 0b2f 1D       		.uleb128 0x1d
 7114 0b30 85040000 		.4byte	0x485
 7115 0b34 B0040000 		.4byte	.LBB134
 7116 0b38 12000000 		.4byte	.LBE134-.LBB134
 7117 0b3c 01       		.byte	0x1
 7118 0b3d A205     		.2byte	0x5a2
 7119 0b3f 6F0B0000 		.4byte	0xb6f
 7120 0b43 1E       		.uleb128 0x1e
 7121 0b44 95040000 		.4byte	0x495
 7122 0b48 11140000 		.4byte	.LLST57
 7123 0b4c 1F       		.uleb128 0x1f
 7124 0b4d 62040000 		.4byte	0x462
 7125 0b51 C0040000 		.4byte	.LBB136
 7126 0b55 02000000 		.4byte	.LBE136-.LBB136
 7127 0b59 02       		.byte	0x2
 7128 0b5a 60       		.byte	0x60
 7129 0b5b 1E       		.uleb128 0x1e
ARM GAS  C:\Users\ddemidov\AppData\Local\Temp\ccTwWFqA.s 			page 177


 7130 0b5c 7B040000 		.4byte	0x47b
 7131 0b60 A3140000 		.4byte	.LLST58
 7132 0b64 1E       		.uleb128 0x1e
 7133 0b65 72040000 		.4byte	0x472
 7134 0b69 B7140000 		.4byte	.LLST59
 7135 0b6d 00       		.byte	0
 7136 0b6e 00       		.byte	0
 7137 0b6f 1D       		.uleb128 0x1d
 7138 0b70 85040000 		.4byte	0x485
 7139 0b74 C4040000 		.4byte	.LBB138
 7140 0b78 10000000 		.4byte	.LBE138-.LBB138
 7141 0b7c 01       		.byte	0x1
 7142 0b7d A305     		.2byte	0x5a3
 7143 0b7f AF0B0000 		.4byte	0xbaf
 7144 0b83 1E       		.uleb128 0x1e
 7145 0b84 95040000 		.4byte	0x495
 7146 0b88 3D150000 		.4byte	.LLST60
 7147 0b8c 1F       		.uleb128 0x1f
 7148 0b8d 62040000 		.4byte	0x462
 7149 0b91 D2040000 		.4byte	.LBB140
 7150 0b95 02000000 		.4byte	.LBE140-.LBB140
 7151 0b99 02       		.byte	0x2
 7152 0b9a 60       		.byte	0x60
 7153 0b9b 1E       		.uleb128 0x1e
 7154 0b9c 7B040000 		.4byte	0x47b
 7155 0ba0 A8150000 		.4byte	.LLST61
 7156 0ba4 1E       		.uleb128 0x1e
 7157 0ba5 72040000 		.4byte	0x472
 7158 0ba9 BC150000 		.4byte	.LLST62
 7159 0bad 00       		.byte	0
 7160 0bae 00       		.byte	0
 7161 0baf 1D       		.uleb128 0x1d
 7162 0bb0 85040000 		.4byte	0x485
 7163 0bb4 D6040000 		.4byte	.LBB142
 7164 0bb8 0C000000 		.4byte	.LBE142-.LBB142
 7165 0bbc 01       		.byte	0x1
 7166 0bbd A405     		.2byte	0x5a4
 7167 0bbf EF0B0000 		.4byte	0xbef
 7168 0bc3 1E       		.uleb128 0x1e
 7169 0bc4 95040000 		.4byte	0x495
 7170 0bc8 1C160000 		.4byte	.LLST63
 7171 0bcc 1F       		.uleb128 0x1f
 7172 0bcd 62040000 		.4byte	0x462
 7173 0bd1 E0040000 		.4byte	.LBB144
 7174 0bd5 02000000 		.4byte	.LBE144-.LBB144
 7175 0bd9 02       		.byte	0x2
 7176 0bda 60       		.byte	0x60
 7177 0bdb 1E       		.uleb128 0x1e
 7178 0bdc 7B040000 		.4byte	0x47b
 7179 0be0 52160000 		.4byte	.LLST64
 7180 0be4 1E       		.uleb128 0x1e
 7181 0be5 72040000 		.4byte	0x472
 7182 0be9 66160000 		.4byte	.LLST65
 7183 0bed 00       		.byte	0
 7184 0bee 00       		.byte	0
 7185 0bef 20       		.uleb128 0x20
 7186 0bf0 2E000000 		.4byte	.LVL88
ARM GAS  C:\Users\ddemidov\AppData\Local\Temp\ccTwWFqA.s 			page 178


 7187 0bf4 74120000 		.4byte	0x1274
 7188 0bf8 0E0C0000 		.4byte	0xc0e
 7189 0bfc 21       		.uleb128 0x21
 7190 0bfd 01       		.uleb128 0x1
 7191 0bfe 52       		.byte	0x52
 7192 0bff 01       		.uleb128 0x1
 7193 0c00 34       		.byte	0x34
 7194 0c01 21       		.uleb128 0x21
 7195 0c02 01       		.uleb128 0x1
 7196 0c03 51       		.byte	0x51
 7197 0c04 02       		.uleb128 0x2
 7198 0c05 75       		.byte	0x75
 7199 0c06 00       		.sleb128 0
 7200 0c07 21       		.uleb128 0x21
 7201 0c08 01       		.uleb128 0x1
 7202 0c09 50       		.byte	0x50
 7203 0c0a 02       		.uleb128 0x2
 7204 0c0b 91       		.byte	0x91
 7205 0c0c 54       		.sleb128 -44
 7206 0c0d 00       		.byte	0
 7207 0c0e 20       		.uleb128 0x20
 7208 0c0f 38000000 		.4byte	.LVL89
 7209 0c13 74120000 		.4byte	0x1274
 7210 0c17 2D0C0000 		.4byte	0xc2d
 7211 0c1b 21       		.uleb128 0x21
 7212 0c1c 01       		.uleb128 0x1
 7213 0c1d 52       		.byte	0x52
 7214 0c1e 01       		.uleb128 0x1
 7215 0c1f 34       		.byte	0x34
 7216 0c20 21       		.uleb128 0x21
 7217 0c21 01       		.uleb128 0x1
 7218 0c22 51       		.byte	0x51
 7219 0c23 02       		.uleb128 0x2
 7220 0c24 75       		.byte	0x75
 7221 0c25 04       		.sleb128 4
 7222 0c26 21       		.uleb128 0x21
 7223 0c27 01       		.uleb128 0x1
 7224 0c28 50       		.byte	0x50
 7225 0c29 02       		.uleb128 0x2
 7226 0c2a 91       		.byte	0x91
 7227 0c2b 50       		.sleb128 -48
 7228 0c2c 00       		.byte	0
 7229 0c2d 20       		.uleb128 0x20
 7230 0c2e 44000000 		.4byte	.LVL90
 7231 0c32 74120000 		.4byte	0x1274
 7232 0c36 4C0C0000 		.4byte	0xc4c
 7233 0c3a 21       		.uleb128 0x21
 7234 0c3b 01       		.uleb128 0x1
 7235 0c3c 52       		.byte	0x52
 7236 0c3d 01       		.uleb128 0x1
 7237 0c3e 34       		.byte	0x34
 7238 0c3f 21       		.uleb128 0x21
 7239 0c40 01       		.uleb128 0x1
 7240 0c41 51       		.byte	0x51
 7241 0c42 02       		.uleb128 0x2
 7242 0c43 75       		.byte	0x75
 7243 0c44 08       		.sleb128 8
ARM GAS  C:\Users\ddemidov\AppData\Local\Temp\ccTwWFqA.s 			page 179


 7244 0c45 21       		.uleb128 0x21
 7245 0c46 01       		.uleb128 0x1
 7246 0c47 50       		.byte	0x50
 7247 0c48 02       		.uleb128 0x2
 7248 0c49 91       		.byte	0x91
 7249 0c4a 4C       		.sleb128 -52
 7250 0c4b 00       		.byte	0
 7251 0c4c 20       		.uleb128 0x20
 7252 0c4d 50000000 		.4byte	.LVL91
 7253 0c51 74120000 		.4byte	0x1274
 7254 0c55 6B0C0000 		.4byte	0xc6b
 7255 0c59 21       		.uleb128 0x21
 7256 0c5a 01       		.uleb128 0x1
 7257 0c5b 52       		.byte	0x52
 7258 0c5c 01       		.uleb128 0x1
 7259 0c5d 34       		.byte	0x34
 7260 0c5e 21       		.uleb128 0x21
 7261 0c5f 01       		.uleb128 0x1
 7262 0c60 51       		.byte	0x51
 7263 0c61 02       		.uleb128 0x2
 7264 0c62 75       		.byte	0x75
 7265 0c63 0C       		.sleb128 12
 7266 0c64 21       		.uleb128 0x21
 7267 0c65 01       		.uleb128 0x1
 7268 0c66 50       		.byte	0x50
 7269 0c67 02       		.uleb128 0x2
 7270 0c68 91       		.byte	0x91
 7271 0c69 48       		.sleb128 -56
 7272 0c6a 00       		.byte	0
 7273 0c6b 20       		.uleb128 0x20
 7274 0c6c F0040000 		.4byte	.LVL158
 7275 0c70 74120000 		.4byte	0x1274
 7276 0c74 8A0C0000 		.4byte	0xc8a
 7277 0c78 21       		.uleb128 0x21
 7278 0c79 01       		.uleb128 0x1
 7279 0c7a 52       		.byte	0x52
 7280 0c7b 01       		.uleb128 0x1
 7281 0c7c 34       		.byte	0x34
 7282 0c7d 21       		.uleb128 0x21
 7283 0c7e 01       		.uleb128 0x1
 7284 0c7f 51       		.byte	0x51
 7285 0c80 02       		.uleb128 0x2
 7286 0c81 91       		.byte	0x91
 7287 0c82 54       		.sleb128 -44
 7288 0c83 21       		.uleb128 0x21
 7289 0c84 01       		.uleb128 0x1
 7290 0c85 50       		.byte	0x50
 7291 0c86 02       		.uleb128 0x2
 7292 0c87 74       		.byte	0x74
 7293 0c88 00       		.sleb128 0
 7294 0c89 00       		.byte	0
 7295 0c8a 20       		.uleb128 0x20
 7296 0c8b FA040000 		.4byte	.LVL159
 7297 0c8f 74120000 		.4byte	0x1274
 7298 0c93 A90C0000 		.4byte	0xca9
 7299 0c97 21       		.uleb128 0x21
 7300 0c98 01       		.uleb128 0x1
ARM GAS  C:\Users\ddemidov\AppData\Local\Temp\ccTwWFqA.s 			page 180


 7301 0c99 52       		.byte	0x52
 7302 0c9a 01       		.uleb128 0x1
 7303 0c9b 34       		.byte	0x34
 7304 0c9c 21       		.uleb128 0x21
 7305 0c9d 01       		.uleb128 0x1
 7306 0c9e 51       		.byte	0x51
 7307 0c9f 02       		.uleb128 0x2
 7308 0ca0 91       		.byte	0x91
 7309 0ca1 50       		.sleb128 -48
 7310 0ca2 21       		.uleb128 0x21
 7311 0ca3 01       		.uleb128 0x1
 7312 0ca4 50       		.byte	0x50
 7313 0ca5 02       		.uleb128 0x2
 7314 0ca6 74       		.byte	0x74
 7315 0ca7 04       		.sleb128 4
 7316 0ca8 00       		.byte	0
 7317 0ca9 20       		.uleb128 0x20
 7318 0caa 06050000 		.4byte	.LVL160
 7319 0cae 74120000 		.4byte	0x1274
 7320 0cb2 C80C0000 		.4byte	0xcc8
 7321 0cb6 21       		.uleb128 0x21
 7322 0cb7 01       		.uleb128 0x1
 7323 0cb8 52       		.byte	0x52
 7324 0cb9 01       		.uleb128 0x1
 7325 0cba 34       		.byte	0x34
 7326 0cbb 21       		.uleb128 0x21
 7327 0cbc 01       		.uleb128 0x1
 7328 0cbd 51       		.byte	0x51
 7329 0cbe 02       		.uleb128 0x2
 7330 0cbf 91       		.byte	0x91
 7331 0cc0 4C       		.sleb128 -52
 7332 0cc1 21       		.uleb128 0x21
 7333 0cc2 01       		.uleb128 0x1
 7334 0cc3 50       		.byte	0x50
 7335 0cc4 02       		.uleb128 0x2
 7336 0cc5 74       		.byte	0x74
 7337 0cc6 08       		.sleb128 8
 7338 0cc7 00       		.byte	0
 7339 0cc8 22       		.uleb128 0x22
 7340 0cc9 12050000 		.4byte	.LVL161
 7341 0ccd 74120000 		.4byte	0x1274
 7342 0cd1 21       		.uleb128 0x21
 7343 0cd2 01       		.uleb128 0x1
 7344 0cd3 52       		.byte	0x52
 7345 0cd4 01       		.uleb128 0x1
 7346 0cd5 34       		.byte	0x34
 7347 0cd6 21       		.uleb128 0x21
 7348 0cd7 01       		.uleb128 0x1
 7349 0cd8 51       		.byte	0x51
 7350 0cd9 02       		.uleb128 0x2
 7351 0cda 91       		.byte	0x91
 7352 0cdb 48       		.sleb128 -56
 7353 0cdc 21       		.uleb128 0x21
 7354 0cdd 01       		.uleb128 0x1
 7355 0cde 50       		.byte	0x50
 7356 0cdf 02       		.uleb128 0x2
 7357 0ce0 74       		.byte	0x74
ARM GAS  C:\Users\ddemidov\AppData\Local\Temp\ccTwWFqA.s 			page 181


 7358 0ce1 0C       		.sleb128 12
 7359 0ce2 00       		.byte	0
 7360 0ce3 00       		.byte	0
 7361 0ce4 23       		.uleb128 0x23
 7362 0ce5 F5050000 		.4byte	.LASF148
 7363 0ce9 01       		.byte	0x1
 7364 0cea 1607     		.2byte	0x716
 7365 0cec 25000000 		.4byte	0x25
 7366 0cf0 00000000 		.4byte	.LFB16
 7367 0cf4 2A000000 		.4byte	.LFE16-.LFB16
 7368 0cf8 01       		.uleb128 0x1
 7369 0cf9 9C       		.byte	0x9c
 7370 0cfa 600D0000 		.4byte	0xd60
 7371 0cfe 19       		.uleb128 0x19
 7372 0cff 61657300 		.ascii	"aes\000"
 7373 0d03 01       		.byte	0x1
 7374 0d04 1607     		.2byte	0x716
 7375 0d06 01090000 		.4byte	0x901
 7376 0d0a 91160000 		.4byte	.LLST66
 7377 0d0e 19       		.uleb128 0x19
 7378 0d0f 697600   		.ascii	"iv\000"
 7379 0d12 01       		.byte	0x1
 7380 0d13 1607     		.2byte	0x716
 7381 0d15 07090000 		.4byte	0x907
 7382 0d19 00170000 		.4byte	.LLST67
 7383 0d1d 20       		.uleb128 0x20
 7384 0d1e 12000000 		.4byte	.LVL165
 7385 0d22 74120000 		.4byte	0x1274
 7386 0d26 410D0000 		.4byte	0xd41
 7387 0d2a 21       		.uleb128 0x21
 7388 0d2b 01       		.uleb128 0x1
 7389 0d2c 52       		.byte	0x52
 7390 0d2d 01       		.uleb128 0x1
 7391 0d2e 40       		.byte	0x40
 7392 0d2f 21       		.uleb128 0x21
 7393 0d30 01       		.uleb128 0x1
 7394 0d31 51       		.byte	0x51
 7395 0d32 03       		.uleb128 0x3
 7396 0d33 F3       		.byte	0xf3
 7397 0d34 01       		.uleb128 0x1
 7398 0d35 51       		.byte	0x51
 7399 0d36 21       		.uleb128 0x21
 7400 0d37 01       		.uleb128 0x1
 7401 0d38 50       		.byte	0x50
 7402 0d39 06       		.uleb128 0x6
 7403 0d3a F3       		.byte	0xf3
 7404 0d3b 01       		.uleb128 0x1
 7405 0d3c 50       		.byte	0x50
 7406 0d3d 23       		.byte	0x23
 7407 0d3e F401     		.uleb128 0xf4
 7408 0d40 00       		.byte	0
 7409 0d41 22       		.uleb128 0x22
 7410 0d42 20000000 		.4byte	.LVL169
 7411 0d46 91120000 		.4byte	0x1291
 7412 0d4a 21       		.uleb128 0x21
 7413 0d4b 01       		.uleb128 0x1
 7414 0d4c 52       		.byte	0x52
ARM GAS  C:\Users\ddemidov\AppData\Local\Temp\ccTwWFqA.s 			page 182


 7415 0d4d 01       		.uleb128 0x1
 7416 0d4e 40       		.byte	0x40
 7417 0d4f 21       		.uleb128 0x21
 7418 0d50 01       		.uleb128 0x1
 7419 0d51 51       		.byte	0x51
 7420 0d52 01       		.uleb128 0x1
 7421 0d53 30       		.byte	0x30
 7422 0d54 21       		.uleb128 0x21
 7423 0d55 01       		.uleb128 0x1
 7424 0d56 50       		.byte	0x50
 7425 0d57 06       		.uleb128 0x6
 7426 0d58 F3       		.byte	0xf3
 7427 0d59 01       		.uleb128 0x1
 7428 0d5a 50       		.byte	0x50
 7429 0d5b 23       		.byte	0x23
 7430 0d5c F401     		.uleb128 0xf4
 7431 0d5e 00       		.byte	0
 7432 0d5f 00       		.byte	0
 7433 0d60 24       		.uleb128 0x24
 7434 0d61 3A040000 		.4byte	.LASF160
 7435 0d65 01       		.byte	0x1
 7436 0d66 3E06     		.2byte	0x63e
 7437 0d68 25000000 		.4byte	0x25
 7438 0d6c 00000000 		.4byte	.LFB14
 7439 0d70 EC040000 		.4byte	.LFE14-.LFB14
 7440 0d74 01       		.uleb128 0x1
 7441 0d75 9C       		.byte	0x9c
 7442 0d76 D10E0000 		.4byte	0xed1
 7443 0d7a 19       		.uleb128 0x19
 7444 0d7b 61657300 		.ascii	"aes\000"
 7445 0d7f 01       		.byte	0x1
 7446 0d80 3E06     		.2byte	0x63e
 7447 0d82 01090000 		.4byte	0x901
 7448 0d86 53170000 		.4byte	.LLST68
 7449 0d8a 1A       		.uleb128 0x1a
 7450 0d8b 64030000 		.4byte	.LASF145
 7451 0d8f 01       		.byte	0x1
 7452 0d90 3E06     		.2byte	0x63e
 7453 0d92 07090000 		.4byte	0x907
 7454 0d96 AB170000 		.4byte	.LLST69
 7455 0d9a 1A       		.uleb128 0x1a
 7456 0d9b 4A030000 		.4byte	.LASF146
 7457 0d9f 01       		.byte	0x1
 7458 0da0 3E06     		.2byte	0x63e
 7459 0da2 45000000 		.4byte	0x45
 7460 0da6 CC170000 		.4byte	.LLST70
 7461 0daa 19       		.uleb128 0x19
 7462 0dab 697600   		.ascii	"iv\000"
 7463 0dae 01       		.byte	0x1
 7464 0daf 3F06     		.2byte	0x63f
 7465 0db1 07090000 		.4byte	0x907
 7466 0db5 43180000 		.4byte	.LLST71
 7467 0db9 25       		.uleb128 0x25
 7468 0dba 64697200 		.ascii	"dir\000"
 7469 0dbe 01       		.byte	0x1
 7470 0dbf 3F06     		.2byte	0x63f
 7471 0dc1 25000000 		.4byte	0x25
ARM GAS  C:\Users\ddemidov\AppData\Local\Temp\ccTwWFqA.s 			page 183


 7472 0dc5 02       		.uleb128 0x2
 7473 0dc6 91       		.byte	0x91
 7474 0dc7 00       		.sleb128 0
 7475 0dc8 26       		.uleb128 0x26
 7476 0dc9 13060000 		.4byte	.LASF147
 7477 0dcd 01       		.byte	0x1
 7478 0dce 4106     		.2byte	0x641
 7479 0dd0 45000000 		.4byte	0x45
 7480 0dd4 62180000 		.4byte	.LLST72
 7481 0dd8 1C       		.uleb128 0x1c
 7482 0dd9 726B00   		.ascii	"rk\000"
 7483 0ddc 01       		.byte	0x1
 7484 0ddd 4106     		.2byte	0x641
 7485 0ddf 24050000 		.4byte	0x524
 7486 0de3 E9180000 		.4byte	.LLST73
 7487 0de7 1C       		.uleb128 0x1c
 7488 0de8 6900     		.ascii	"i\000"
 7489 0dea 01       		.byte	0x1
 7490 0deb 4206     		.2byte	0x642
 7491 0ded 50000000 		.4byte	0x50
 7492 0df1 54190000 		.4byte	.LLST74
 7493 0df5 1D       		.uleb128 0x1d
 7494 0df6 E3040000 		.4byte	0x4e3
 7495 0dfa 24000000 		.4byte	.LBB146
 7496 0dfe 26000000 		.4byte	.LBE146-.LBB146
 7497 0e02 01       		.byte	0x1
 7498 0e03 4F06     		.2byte	0x64f
 7499 0e05 7C0E0000 		.4byte	0xe7c
 7500 0e09 1E       		.uleb128 0x1e
 7501 0e0a 04050000 		.4byte	0x504
 7502 0e0e E7190000 		.4byte	.LLST75
 7503 0e12 1E       		.uleb128 0x1e
 7504 0e13 FA040000 		.4byte	0x4fa
 7505 0e17 531A0000 		.4byte	.LLST76
 7506 0e1b 1E       		.uleb128 0x1e
 7507 0e1c EF040000 		.4byte	0x4ef
 7508 0e20 531A0000 		.4byte	.LLST76
 7509 0e24 27       		.uleb128 0x27
 7510 0e25 24000000 		.4byte	.LBB147
 7511 0e29 26000000 		.4byte	.LBE147-.LBB147
 7512 0e2d 28       		.uleb128 0x28
 7513 0e2e 0F050000 		.4byte	0x50f
 7514 0e32 A01A0000 		.4byte	.LLST78
 7515 0e36 28       		.uleb128 0x28
 7516 0e37 1A050000 		.4byte	0x51a
 7517 0e3b 141B0000 		.4byte	.LLST79
 7518 0e3f 1F       		.uleb128 0x1f
 7519 0e40 85040000 		.4byte	0x485
 7520 0e44 2C000000 		.4byte	.LBB148
 7521 0e48 16000000 		.4byte	.LBE148-.LBB148
 7522 0e4c 02       		.byte	0x2
 7523 0e4d 6B       		.byte	0x6b
 7524 0e4e 1E       		.uleb128 0x1e
 7525 0e4f 95040000 		.4byte	0x495
 7526 0e53 541B0000 		.4byte	.LLST80
 7527 0e57 1F       		.uleb128 0x1f
 7528 0e58 62040000 		.4byte	0x462
ARM GAS  C:\Users\ddemidov\AppData\Local\Temp\ccTwWFqA.s 			page 184


 7529 0e5c 3E000000 		.4byte	.LBB150
 7530 0e60 04000000 		.4byte	.LBE150-.LBB150
 7531 0e64 02       		.byte	0x2
 7532 0e65 60       		.byte	0x60
 7533 0e66 1E       		.uleb128 0x1e
 7534 0e67 7B040000 		.4byte	0x47b
 7535 0e6b 8C1B0000 		.4byte	.LLST81
 7536 0e6f 1E       		.uleb128 0x1e
 7537 0e70 72040000 		.4byte	0x472
 7538 0e74 A01B0000 		.4byte	.LLST82
 7539 0e78 00       		.byte	0
 7540 0e79 00       		.byte	0
 7541 0e7a 00       		.byte	0
 7542 0e7b 00       		.byte	0
 7543 0e7c 29       		.uleb128 0x29
 7544 0e7d 7A020000 		.4byte	.LBB152
 7545 0e81 4E020000 		.4byte	.LBE152-.LBB152
 7546 0e85 980E0000 		.4byte	0xe98
 7547 0e89 1C       		.uleb128 0x1c
 7548 0e8a 6A00     		.ascii	"j\000"
 7549 0e8c 01       		.byte	0x1
 7550 0e8d B406     		.2byte	0x6b4
 7551 0e8f 50000000 		.4byte	0x50
 7552 0e93 CC1B0000 		.4byte	.LLST83
 7553 0e97 00       		.byte	0
 7554 0e98 20       		.uleb128 0x20
 7555 0e99 24000000 		.4byte	.LVL177
 7556 0e9d 74120000 		.4byte	0x1274
 7557 0ea1 B90E0000 		.4byte	0xeb9
 7558 0ea5 21       		.uleb128 0x21
 7559 0ea6 01       		.uleb128 0x1
 7560 0ea7 52       		.byte	0x52
 7561 0ea8 02       		.uleb128 0x2
 7562 0ea9 74       		.byte	0x74
 7563 0eaa 00       		.sleb128 0
 7564 0eab 21       		.uleb128 0x21
 7565 0eac 01       		.uleb128 0x1
 7566 0ead 51       		.byte	0x51
 7567 0eae 03       		.uleb128 0x3
 7568 0eaf F3       		.byte	0xf3
 7569 0eb0 01       		.uleb128 0x1
 7570 0eb1 51       		.byte	0x51
 7571 0eb2 21       		.uleb128 0x21
 7572 0eb3 01       		.uleb128 0x1
 7573 0eb4 50       		.byte	0x50
 7574 0eb5 02       		.uleb128 0x2
 7575 0eb6 75       		.byte	0x75
 7576 0eb7 00       		.sleb128 0
 7577 0eb8 00       		.byte	0
 7578 0eb9 22       		.uleb128 0x22
 7579 0eba D0040000 		.4byte	.LVL219
 7580 0ebe E40C0000 		.4byte	0xce4
 7581 0ec2 21       		.uleb128 0x21
 7582 0ec3 01       		.uleb128 0x1
 7583 0ec4 51       		.byte	0x51
 7584 0ec5 03       		.uleb128 0x3
 7585 0ec6 91       		.byte	0x91
ARM GAS  C:\Users\ddemidov\AppData\Local\Temp\ccTwWFqA.s 			page 185


 7586 0ec7 54       		.sleb128 -44
 7587 0ec8 06       		.byte	0x6
 7588 0ec9 21       		.uleb128 0x21
 7589 0eca 01       		.uleb128 0x1
 7590 0ecb 50       		.byte	0x50
 7591 0ecc 02       		.uleb128 0x2
 7592 0ecd 7B       		.byte	0x7b
 7593 0ece 00       		.sleb128 0
 7594 0ecf 00       		.byte	0
 7595 0ed0 00       		.byte	0
 7596 0ed1 23       		.uleb128 0x23
 7597 0ed2 69010000 		.4byte	.LASF149
 7598 0ed6 01       		.byte	0x1
 7599 0ed7 DD06     		.2byte	0x6dd
 7600 0ed9 25000000 		.4byte	0x25
 7601 0edd 00000000 		.4byte	.LFB15
 7602 0ee1 2C000000 		.4byte	.LFE15-.LFB15
 7603 0ee5 01       		.uleb128 0x1
 7604 0ee6 9C       		.byte	0x9c
 7605 0ee7 580F0000 		.4byte	0xf58
 7606 0eeb 19       		.uleb128 0x19
 7607 0eec 61657300 		.ascii	"aes\000"
 7608 0ef0 01       		.byte	0x1
 7609 0ef1 DD06     		.2byte	0x6dd
 7610 0ef3 01090000 		.4byte	0x901
 7611 0ef7 DF1B0000 		.4byte	.LLST84
 7612 0efb 1A       		.uleb128 0x1a
 7613 0efc 64030000 		.4byte	.LASF145
 7614 0f00 01       		.byte	0x1
 7615 0f01 DD06     		.2byte	0x6dd
 7616 0f03 07090000 		.4byte	0x907
 7617 0f07 321C0000 		.4byte	.LLST85
 7618 0f0b 1A       		.uleb128 0x1a
 7619 0f0c 4A030000 		.4byte	.LASF146
 7620 0f10 01       		.byte	0x1
 7621 0f11 DD06     		.2byte	0x6dd
 7622 0f13 45000000 		.4byte	0x45
 7623 0f17 6C1C0000 		.4byte	.LLST86
 7624 0f1b 19       		.uleb128 0x19
 7625 0f1c 697600   		.ascii	"iv\000"
 7626 0f1f 01       		.byte	0x1
 7627 0f20 DD06     		.2byte	0x6dd
 7628 0f22 07090000 		.4byte	0x907
 7629 0f26 A61C0000 		.4byte	.LLST87
 7630 0f2a 25       		.uleb128 0x25
 7631 0f2b 64697200 		.ascii	"dir\000"
 7632 0f2f 01       		.byte	0x1
 7633 0f30 DE06     		.2byte	0x6de
 7634 0f32 25000000 		.4byte	0x25
 7635 0f36 02       		.uleb128 0x2
 7636 0f37 91       		.byte	0x91
 7637 0f38 00       		.sleb128 0
 7638 0f39 2A       		.uleb128 0x2a
 7639 0f3a 7E000000 		.4byte	.LASF150
 7640 0f3e 01       		.byte	0x1
 7641 0f3f E106     		.2byte	0x6e1
 7642 0f41 30050000 		.4byte	0x530
ARM GAS  C:\Users\ddemidov\AppData\Local\Temp\ccTwWFqA.s 			page 186


 7643 0f45 20       		.byte	0x20
 7644 0f46 22       		.uleb128 0x22
 7645 0f47 1C000000 		.4byte	.LVL226
 7646 0f4b 600D0000 		.4byte	0xd60
 7647 0f4f 21       		.uleb128 0x21
 7648 0f50 02       		.uleb128 0x2
 7649 0f51 7D       		.byte	0x7d
 7650 0f52 00       		.sleb128 0
 7651 0f53 02       		.uleb128 0x2
 7652 0f54 74       		.byte	0x74
 7653 0f55 00       		.sleb128 0
 7654 0f56 00       		.byte	0
 7655 0f57 00       		.byte	0
 7656 0f58 14       		.uleb128 0x14
 7657 0f59 E9070000 		.4byte	.LASF151
 7658 0f5d 02       		.byte	0x2
 7659 0f5e A3       		.byte	0xa3
 7660 0f5f 03       		.byte	0x3
 7661 0f60 A30F0000 		.4byte	0xfa3
 7662 0f64 12       		.uleb128 0x12
 7663 0f65 62756600 		.ascii	"buf\000"
 7664 0f69 02       		.byte	0x2
 7665 0f6a A3       		.byte	0xa3
 7666 0f6b AE000000 		.4byte	0xae
 7667 0f6f 13       		.uleb128 0x13
 7668 0f70 A5040000 		.4byte	.LASF152
 7669 0f74 02       		.byte	0x2
 7670 0f75 A3       		.byte	0xa3
 7671 0f76 B7000000 		.4byte	0xb7
 7672 0f7a 13       		.uleb128 0x13
 7673 0f7b 28030000 		.4byte	.LASF140
 7674 0f7f 02       		.byte	0x2
 7675 0f80 A3       		.byte	0xa3
 7676 0f81 45000000 		.4byte	0x45
 7677 0f85 2B       		.uleb128 0x2b
 7678 0f86 15       		.uleb128 0x15
 7679 0f87 6900     		.ascii	"i\000"
 7680 0f89 02       		.byte	0x2
 7681 0f8a A9       		.byte	0xa9
 7682 0f8b 45000000 		.4byte	0x45
 7683 0f8f 15       		.uleb128 0x15
 7684 0f90 6200     		.ascii	"b\000"
 7685 0f92 02       		.byte	0x2
 7686 0f93 AA       		.byte	0xaa
 7687 0f94 12090000 		.4byte	0x912
 7688 0f98 15       		.uleb128 0x15
 7689 0f99 6D00     		.ascii	"m\000"
 7690 0f9b 02       		.byte	0x2
 7691 0f9c AB       		.byte	0xab
 7692 0f9d 07090000 		.4byte	0x907
 7693 0fa1 00       		.byte	0
 7694 0fa2 00       		.byte	0
 7695 0fa3 23       		.uleb128 0x23
 7696 0fa4 7D020000 		.4byte	.LASF153
 7697 0fa8 01       		.byte	0x1
 7698 0fa9 4A09     		.2byte	0x94a
 7699 0fab 25000000 		.4byte	0x25
ARM GAS  C:\Users\ddemidov\AppData\Local\Temp\ccTwWFqA.s 			page 187


 7700 0faf 00000000 		.4byte	.LFB17
 7701 0fb3 72000000 		.4byte	.LFE17-.LFB17
 7702 0fb7 01       		.uleb128 0x1
 7703 0fb8 9C       		.byte	0x9c
 7704 0fb9 CA100000 		.4byte	0x10ca
 7705 0fbd 19       		.uleb128 0x19
 7706 0fbe 61657300 		.ascii	"aes\000"
 7707 0fc2 01       		.byte	0x1
 7708 0fc3 4A09     		.2byte	0x94a
 7709 0fc5 01090000 		.4byte	0x901
 7710 0fc9 E01C0000 		.4byte	.LLST88
 7711 0fcd 19       		.uleb128 0x19
 7712 0fce 6F757400 		.ascii	"out\000"
 7713 0fd2 01       		.byte	0x1
 7714 0fd3 4A09     		.2byte	0x94a
 7715 0fd5 12090000 		.4byte	0x912
 7716 0fd9 0C1D0000 		.4byte	.LLST89
 7717 0fdd 19       		.uleb128 0x19
 7718 0fde 696E00   		.ascii	"in\000"
 7719 0fe1 01       		.byte	0x1
 7720 0fe2 4A09     		.2byte	0x94a
 7721 0fe4 07090000 		.4byte	0x907
 7722 0fe8 2A1D0000 		.4byte	.LLST90
 7723 0fec 19       		.uleb128 0x19
 7724 0fed 737A00   		.ascii	"sz\000"
 7725 0ff0 01       		.byte	0x1
 7726 0ff1 4A09     		.2byte	0x94a
 7727 0ff3 45000000 		.4byte	0x45
 7728 0ff7 481D0000 		.4byte	.LLST91
 7729 0ffb 26       		.uleb128 0x26
 7730 0ffc B7040000 		.4byte	.LASF154
 7731 1000 01       		.byte	0x1
 7732 1001 4C09     		.2byte	0x94c
 7733 1003 45000000 		.4byte	0x45
 7734 1007 691D0000 		.4byte	.LLST92
 7735 100b 1D       		.uleb128 0x1d
 7736 100c 580F0000 		.4byte	0xf58
 7737 1010 14000000 		.4byte	.LBB158
 7738 1014 34000000 		.4byte	.LBE158-.LBB158
 7739 1018 01       		.byte	0x1
 7740 1019 7E09     		.2byte	0x97e
 7741 101b 8E100000 		.4byte	0x108e
 7742 101f 1E       		.uleb128 0x1e
 7743 1020 7A0F0000 		.4byte	0xf7a
 7744 1024 BE1D0000 		.4byte	.LLST93
 7745 1028 1E       		.uleb128 0x1e
 7746 1029 6F0F0000 		.4byte	0xf6f
 7747 102d D21D0000 		.4byte	.LLST94
 7748 1031 1E       		.uleb128 0x1e
 7749 1032 640F0000 		.4byte	0xf64
 7750 1036 F21D0000 		.4byte	.LLST95
 7751 103a 2C       		.uleb128 0x2c
 7752 103b A1040000 		.4byte	0x4a1
 7753 103f 20000000 		.4byte	.LBB160
 7754 1043 18000000 		.4byte	.LBE160-.LBB160
 7755 1047 02       		.byte	0x2
 7756 1048 A6       		.byte	0xa6
ARM GAS  C:\Users\ddemidov\AppData\Local\Temp\ccTwWFqA.s 			page 188


 7757 1049 70100000 		.4byte	0x1070
 7758 104d 2D       		.uleb128 0x2d
 7759 104e BF040000 		.4byte	0x4bf
 7760 1052 2D       		.uleb128 0x2d
 7761 1053 B6040000 		.4byte	0x4b6
 7762 1057 2D       		.uleb128 0x2d
 7763 1058 AD040000 		.4byte	0x4ad
 7764 105c 27       		.uleb128 0x27
 7765 105d 20000000 		.4byte	.LBB161
 7766 1061 18000000 		.4byte	.LBE161-.LBB161
 7767 1065 28       		.uleb128 0x28
 7768 1066 C8040000 		.4byte	0x4c8
 7769 106a 051E0000 		.4byte	.LLST96
 7770 106e 00       		.byte	0
 7771 106f 00       		.byte	0
 7772 1070 27       		.uleb128 0x27
 7773 1071 38000000 		.4byte	.LBB162
 7774 1075 10000000 		.4byte	.LBE162-.LBB162
 7775 1079 28       		.uleb128 0x28
 7776 107a 860F0000 		.4byte	0xf86
 7777 107e 231E0000 		.4byte	.LLST97
 7778 1082 2E       		.uleb128 0x2e
 7779 1083 8F0F0000 		.4byte	0xf8f
 7780 1087 2E       		.uleb128 0x2e
 7781 1088 980F0000 		.4byte	0xf98
 7782 108c 00       		.byte	0
 7783 108d 00       		.byte	0
 7784 108e 20       		.uleb128 0x20
 7785 108f 52000000 		.4byte	.LVL243
 7786 1093 35050000 		.4byte	0x535
 7787 1097 AE100000 		.4byte	0x10ae
 7788 109b 21       		.uleb128 0x21
 7789 109c 01       		.uleb128 0x1
 7790 109d 52       		.byte	0x52
 7791 109e 02       		.uleb128 0x2
 7792 109f 74       		.byte	0x74
 7793 10a0 00       		.sleb128 0
 7794 10a1 21       		.uleb128 0x21
 7795 10a2 01       		.uleb128 0x1
 7796 10a3 51       		.byte	0x51
 7797 10a4 02       		.uleb128 0x2
 7798 10a5 74       		.byte	0x74
 7799 10a6 00       		.sleb128 0
 7800 10a7 21       		.uleb128 0x21
 7801 10a8 01       		.uleb128 0x1
 7802 10a9 50       		.byte	0x50
 7803 10aa 02       		.uleb128 0x2
 7804 10ab 77       		.byte	0x77
 7805 10ac 00       		.sleb128 0
 7806 10ad 00       		.byte	0
 7807 10ae 22       		.uleb128 0x22
 7808 10af 5C000000 		.4byte	.LVL244
 7809 10b3 74120000 		.4byte	0x1274
 7810 10b7 21       		.uleb128 0x21
 7811 10b8 01       		.uleb128 0x1
 7812 10b9 52       		.byte	0x52
 7813 10ba 01       		.uleb128 0x1
ARM GAS  C:\Users\ddemidov\AppData\Local\Temp\ccTwWFqA.s 			page 189


 7814 10bb 40       		.byte	0x40
 7815 10bc 21       		.uleb128 0x21
 7816 10bd 01       		.uleb128 0x1
 7817 10be 51       		.byte	0x51
 7818 10bf 02       		.uleb128 0x2
 7819 10c0 74       		.byte	0x74
 7820 10c1 00       		.sleb128 0
 7821 10c2 21       		.uleb128 0x21
 7822 10c3 01       		.uleb128 0x1
 7823 10c4 50       		.byte	0x50
 7824 10c5 02       		.uleb128 0x2
 7825 10c6 76       		.byte	0x76
 7826 10c7 00       		.sleb128 0
 7827 10c8 00       		.byte	0
 7828 10c9 00       		.byte	0
 7829 10ca 23       		.uleb128 0x23
 7830 10cb A7020000 		.4byte	.LASF155
 7831 10cf 01       		.byte	0x1
 7832 10d0 8A09     		.2byte	0x98a
 7833 10d2 25000000 		.4byte	0x25
 7834 10d6 00000000 		.4byte	.LFB18
 7835 10da 86000000 		.4byte	.LFE18-.LFB18
 7836 10de 01       		.uleb128 0x1
 7837 10df 9C       		.byte	0x9c
 7838 10e0 0B120000 		.4byte	0x120b
 7839 10e4 19       		.uleb128 0x19
 7840 10e5 61657300 		.ascii	"aes\000"
 7841 10e9 01       		.byte	0x1
 7842 10ea 8A09     		.2byte	0x98a
 7843 10ec 01090000 		.4byte	0x901
 7844 10f0 361E0000 		.4byte	.LLST98
 7845 10f4 19       		.uleb128 0x19
 7846 10f5 6F757400 		.ascii	"out\000"
 7847 10f9 01       		.byte	0x1
 7848 10fa 8A09     		.2byte	0x98a
 7849 10fc 12090000 		.4byte	0x912
 7850 1100 621E0000 		.4byte	.LLST99
 7851 1104 19       		.uleb128 0x19
 7852 1105 696E00   		.ascii	"in\000"
 7853 1108 01       		.byte	0x1
 7854 1109 8A09     		.2byte	0x98a
 7855 110b 07090000 		.4byte	0x907
 7856 110f 801E0000 		.4byte	.LLST100
 7857 1113 19       		.uleb128 0x19
 7858 1114 737A00   		.ascii	"sz\000"
 7859 1117 01       		.byte	0x1
 7860 1118 8A09     		.2byte	0x98a
 7861 111a 45000000 		.4byte	0x45
 7862 111e 9E1E0000 		.4byte	.LLST101
 7863 1122 26       		.uleb128 0x26
 7864 1123 B7040000 		.4byte	.LASF154
 7865 1127 01       		.byte	0x1
 7866 1128 8C09     		.2byte	0x98c
 7867 112a 45000000 		.4byte	0x45
 7868 112e BF1E0000 		.4byte	.LLST102
 7869 1132 1D       		.uleb128 0x1d
 7870 1133 580F0000 		.4byte	0xf58
ARM GAS  C:\Users\ddemidov\AppData\Local\Temp\ccTwWFqA.s 			page 190


 7871 1137 32000000 		.4byte	.LBB168
 7872 113b 34000000 		.4byte	.LBE168-.LBB168
 7873 113f 01       		.byte	0x1
 7874 1140 AC09     		.2byte	0x9ac
 7875 1142 B5110000 		.4byte	0x11b5
 7876 1146 1E       		.uleb128 0x1e
 7877 1147 7A0F0000 		.4byte	0xf7a
 7878 114b FE1E0000 		.4byte	.LLST103
 7879 114f 1E       		.uleb128 0x1e
 7880 1150 6F0F0000 		.4byte	0xf6f
 7881 1154 121F0000 		.4byte	.LLST104
 7882 1158 1E       		.uleb128 0x1e
 7883 1159 640F0000 		.4byte	0xf64
 7884 115d 331F0000 		.4byte	.LLST105
 7885 1161 2C       		.uleb128 0x2c
 7886 1162 A1040000 		.4byte	0x4a1
 7887 1166 3E000000 		.4byte	.LBB170
 7888 116a 18000000 		.4byte	.LBE170-.LBB170
 7889 116e 02       		.byte	0x2
 7890 116f A6       		.byte	0xa6
 7891 1170 97110000 		.4byte	0x1197
 7892 1174 2D       		.uleb128 0x2d
 7893 1175 BF040000 		.4byte	0x4bf
 7894 1179 2D       		.uleb128 0x2d
 7895 117a B6040000 		.4byte	0x4b6
 7896 117e 2D       		.uleb128 0x2d
 7897 117f AD040000 		.4byte	0x4ad
 7898 1183 27       		.uleb128 0x27
 7899 1184 3E000000 		.4byte	.LBB171
 7900 1188 18000000 		.4byte	.LBE171-.LBB171
 7901 118c 28       		.uleb128 0x28
 7902 118d C8040000 		.4byte	0x4c8
 7903 1191 531F0000 		.4byte	.LLST106
 7904 1195 00       		.byte	0
 7905 1196 00       		.byte	0
 7906 1197 27       		.uleb128 0x27
 7907 1198 56000000 		.4byte	.LBB172
 7908 119c 10000000 		.4byte	.LBE172-.LBB172
 7909 11a0 28       		.uleb128 0x28
 7910 11a1 860F0000 		.4byte	0xf86
 7911 11a5 711F0000 		.4byte	.LLST107
 7912 11a9 2E       		.uleb128 0x2e
 7913 11aa 8F0F0000 		.4byte	0xf8f
 7914 11ae 2E       		.uleb128 0x2e
 7915 11af 980F0000 		.4byte	0xf98
 7916 11b3 00       		.byte	0
 7917 11b4 00       		.byte	0
 7918 11b5 20       		.uleb128 0x20
 7919 11b6 24000000 		.4byte	.LVL256
 7920 11ba 74120000 		.4byte	0x1274
 7921 11be D4110000 		.4byte	0x11d4
 7922 11c2 21       		.uleb128 0x21
 7923 11c3 01       		.uleb128 0x1
 7924 11c4 52       		.byte	0x52
 7925 11c5 01       		.uleb128 0x1
 7926 11c6 40       		.byte	0x40
 7927 11c7 21       		.uleb128 0x21
ARM GAS  C:\Users\ddemidov\AppData\Local\Temp\ccTwWFqA.s 			page 191


 7928 11c8 01       		.uleb128 0x1
 7929 11c9 51       		.byte	0x51
 7930 11ca 02       		.uleb128 0x2
 7931 11cb 76       		.byte	0x76
 7932 11cc 00       		.sleb128 0
 7933 11cd 21       		.uleb128 0x21
 7934 11ce 01       		.uleb128 0x1
 7935 11cf 50       		.byte	0x50
 7936 11d0 02       		.uleb128 0x2
 7937 11d1 74       		.byte	0x74
 7938 11d2 00       		.sleb128 0
 7939 11d3 00       		.byte	0
 7940 11d4 20       		.uleb128 0x20
 7941 11d5 2E000000 		.4byte	.LVL257
 7942 11d9 18090000 		.4byte	0x918
 7943 11dd F4110000 		.4byte	0x11f4
 7944 11e1 21       		.uleb128 0x21
 7945 11e2 01       		.uleb128 0x1
 7946 11e3 52       		.byte	0x52
 7947 11e4 02       		.uleb128 0x2
 7948 11e5 75       		.byte	0x75
 7949 11e6 00       		.sleb128 0
 7950 11e7 21       		.uleb128 0x21
 7951 11e8 01       		.uleb128 0x1
 7952 11e9 51       		.byte	0x51
 7953 11ea 02       		.uleb128 0x2
 7954 11eb 74       		.byte	0x74
 7955 11ec 00       		.sleb128 0
 7956 11ed 21       		.uleb128 0x21
 7957 11ee 01       		.uleb128 0x1
 7958 11ef 50       		.byte	0x50
 7959 11f0 02       		.uleb128 0x2
 7960 11f1 77       		.byte	0x77
 7961 11f2 00       		.sleb128 0
 7962 11f3 00       		.byte	0
 7963 11f4 22       		.uleb128 0x22
 7964 11f5 6E000000 		.4byte	.LVL266
 7965 11f9 74120000 		.4byte	0x1274
 7966 11fd 21       		.uleb128 0x21
 7967 11fe 01       		.uleb128 0x1
 7968 11ff 52       		.byte	0x52
 7969 1200 01       		.uleb128 0x1
 7970 1201 40       		.byte	0x40
 7971 1202 21       		.uleb128 0x21
 7972 1203 01       		.uleb128 0x1
 7973 1204 51       		.byte	0x51
 7974 1205 03       		.uleb128 0x3
 7975 1206 91       		.byte	0x91
 7976 1207 64       		.sleb128 -28
 7977 1208 06       		.byte	0x6
 7978 1209 00       		.byte	0
 7979 120a 00       		.byte	0
 7980 120b 0E       		.uleb128 0xe
 7981 120c 45000000 		.4byte	0x45
 7982 1210 1B120000 		.4byte	0x121b
 7983 1214 0F       		.uleb128 0xf
 7984 1215 A7000000 		.4byte	0xa7
ARM GAS  C:\Users\ddemidov\AppData\Local\Temp\ccTwWFqA.s 			page 192


 7985 1219 09       		.byte	0x9
 7986 121a 00       		.byte	0
 7987 121b 2F       		.uleb128 0x2f
 7988 121c 2F080000 		.4byte	.LASF156
 7989 1220 01       		.byte	0x1
 7990 1221 1F01     		.2byte	0x11f
 7991 1223 2D120000 		.4byte	0x122d
 7992 1227 05       		.uleb128 0x5
 7993 1228 03       		.byte	0x3
 7994 1229 00280000 		.4byte	rcon
 7995 122d 16       		.uleb128 0x16
 7996 122e 0B120000 		.4byte	0x120b
 7997 1232 0E       		.uleb128 0xe
 7998 1233 45000000 		.4byte	0x45
 7999 1237 48120000 		.4byte	0x1248
 8000 123b 0F       		.uleb128 0xf
 8001 123c A7000000 		.4byte	0xa7
 8002 1240 04       		.byte	0x4
 8003 1241 0F       		.uleb128 0xf
 8004 1242 A7000000 		.4byte	0xa7
 8005 1246 FF       		.byte	0xff
 8006 1247 00       		.byte	0
 8007 1248 1B       		.uleb128 0x1b
 8008 1249 546500   		.ascii	"Te\000"
 8009 124c 01       		.byte	0x1
 8010 124d 2601     		.2byte	0x126
 8011 124f 59120000 		.4byte	0x1259
 8012 1253 05       		.uleb128 0x5
 8013 1254 03       		.byte	0x3
 8014 1255 00000000 		.4byte	Te
 8015 1259 16       		.uleb128 0x16
 8016 125a 32120000 		.4byte	0x1232
 8017 125e 1B       		.uleb128 0x1b
 8018 125f 546400   		.ascii	"Td\000"
 8019 1262 01       		.byte	0x1
 8020 1263 7302     		.2byte	0x273
 8021 1265 6F120000 		.4byte	0x126f
 8022 1269 05       		.uleb128 0x5
 8023 126a 03       		.byte	0x3
 8024 126b 00140000 		.4byte	Td
 8025 126f 16       		.uleb128 0x16
 8026 1270 32120000 		.4byte	0x1232
 8027 1274 30       		.uleb128 0x30
 8028 1275 7F080000 		.4byte	.LASF161
 8029 1279 AE000000 		.4byte	0xae
 8030 127d 91120000 		.4byte	0x1291
 8031 1281 31       		.uleb128 0x31
 8032 1282 AE000000 		.4byte	0xae
 8033 1286 31       		.uleb128 0x31
 8034 1287 B7000000 		.4byte	0xb7
 8035 128b 31       		.uleb128 0x31
 8036 128c A7000000 		.4byte	0xa7
 8037 1290 00       		.byte	0
 8038 1291 32       		.uleb128 0x32
 8039 1292 55040000 		.4byte	.LASF162
 8040 1296 AE000000 		.4byte	0xae
 8041 129a 31       		.uleb128 0x31
ARM GAS  C:\Users\ddemidov\AppData\Local\Temp\ccTwWFqA.s 			page 193


 8042 129b AE000000 		.4byte	0xae
 8043 129f 31       		.uleb128 0x31
 8044 12a0 25000000 		.4byte	0x25
 8045 12a4 31       		.uleb128 0x31
 8046 12a5 A7000000 		.4byte	0xa7
 8047 12a9 00       		.byte	0
 8048 12aa 00       		.byte	0
 8049              		.section	.debug_abbrev,"",%progbits
 8050              	.Ldebug_abbrev0:
 8051 0000 01       		.uleb128 0x1
 8052 0001 11       		.uleb128 0x11
 8053 0002 01       		.byte	0x1
 8054 0003 25       		.uleb128 0x25
 8055 0004 0E       		.uleb128 0xe
 8056 0005 13       		.uleb128 0x13
 8057 0006 0B       		.uleb128 0xb
 8058 0007 03       		.uleb128 0x3
 8059 0008 0E       		.uleb128 0xe
 8060 0009 1B       		.uleb128 0x1b
 8061 000a 0E       		.uleb128 0xe
 8062 000b 55       		.uleb128 0x55
 8063 000c 17       		.uleb128 0x17
 8064 000d 11       		.uleb128 0x11
 8065 000e 01       		.uleb128 0x1
 8066 000f 10       		.uleb128 0x10
 8067 0010 17       		.uleb128 0x17
 8068 0011 00       		.byte	0
 8069 0012 00       		.byte	0
 8070 0013 02       		.uleb128 0x2
 8071 0014 24       		.uleb128 0x24
 8072 0015 00       		.byte	0
 8073 0016 0B       		.uleb128 0xb
 8074 0017 0B       		.uleb128 0xb
 8075 0018 3E       		.uleb128 0x3e
 8076 0019 0B       		.uleb128 0xb
 8077 001a 03       		.uleb128 0x3
 8078 001b 08       		.uleb128 0x8
 8079 001c 00       		.byte	0
 8080 001d 00       		.byte	0
 8081 001e 03       		.uleb128 0x3
 8082 001f 16       		.uleb128 0x16
 8083 0020 00       		.byte	0
 8084 0021 03       		.uleb128 0x3
 8085 0022 0E       		.uleb128 0xe
 8086 0023 3A       		.uleb128 0x3a
 8087 0024 0B       		.uleb128 0xb
 8088 0025 3B       		.uleb128 0x3b
 8089 0026 0B       		.uleb128 0xb
 8090 0027 49       		.uleb128 0x49
 8091 0028 13       		.uleb128 0x13
 8092 0029 00       		.byte	0
 8093 002a 00       		.byte	0
 8094 002b 04       		.uleb128 0x4
 8095 002c 24       		.uleb128 0x24
 8096 002d 00       		.byte	0
 8097 002e 0B       		.uleb128 0xb
 8098 002f 0B       		.uleb128 0xb
ARM GAS  C:\Users\ddemidov\AppData\Local\Temp\ccTwWFqA.s 			page 194


 8099 0030 3E       		.uleb128 0x3e
 8100 0031 0B       		.uleb128 0xb
 8101 0032 03       		.uleb128 0x3
 8102 0033 0E       		.uleb128 0xe
 8103 0034 00       		.byte	0
 8104 0035 00       		.byte	0
 8105 0036 05       		.uleb128 0x5
 8106 0037 04       		.uleb128 0x4
 8107 0038 01       		.byte	0x1
 8108 0039 0B       		.uleb128 0xb
 8109 003a 0B       		.uleb128 0xb
 8110 003b 3A       		.uleb128 0x3a
 8111 003c 0B       		.uleb128 0xb
 8112 003d 3B       		.uleb128 0x3b
 8113 003e 0B       		.uleb128 0xb
 8114 003f 01       		.uleb128 0x1
 8115 0040 13       		.uleb128 0x13
 8116 0041 00       		.byte	0
 8117 0042 00       		.byte	0
 8118 0043 06       		.uleb128 0x6
 8119 0044 28       		.uleb128 0x28
 8120 0045 00       		.byte	0
 8121 0046 03       		.uleb128 0x3
 8122 0047 0E       		.uleb128 0xe
 8123 0048 1C       		.uleb128 0x1c
 8124 0049 0D       		.uleb128 0xd
 8125 004a 00       		.byte	0
 8126 004b 00       		.byte	0
 8127 004c 07       		.uleb128 0x7
 8128 004d 0F       		.uleb128 0xf
 8129 004e 00       		.byte	0
 8130 004f 0B       		.uleb128 0xb
 8131 0050 0B       		.uleb128 0xb
 8132 0051 00       		.byte	0
 8133 0052 00       		.byte	0
 8134 0053 08       		.uleb128 0x8
 8135 0054 0F       		.uleb128 0xf
 8136 0055 00       		.byte	0
 8137 0056 0B       		.uleb128 0xb
 8138 0057 0B       		.uleb128 0xb
 8139 0058 49       		.uleb128 0x49
 8140 0059 13       		.uleb128 0x13
 8141 005a 00       		.byte	0
 8142 005b 00       		.byte	0
 8143 005c 09       		.uleb128 0x9
 8144 005d 26       		.uleb128 0x26
 8145 005e 00       		.byte	0
 8146 005f 00       		.byte	0
 8147 0060 00       		.byte	0
 8148 0061 0A       		.uleb128 0xa
 8149 0062 13       		.uleb128 0x13
 8150 0063 01       		.byte	0x1
 8151 0064 03       		.uleb128 0x3
 8152 0065 08       		.uleb128 0x8
 8153 0066 0B       		.uleb128 0xb
 8154 0067 05       		.uleb128 0x5
 8155 0068 3A       		.uleb128 0x3a
ARM GAS  C:\Users\ddemidov\AppData\Local\Temp\ccTwWFqA.s 			page 195


 8156 0069 0B       		.uleb128 0xb
 8157 006a 3B       		.uleb128 0x3b
 8158 006b 0B       		.uleb128 0xb
 8159 006c 01       		.uleb128 0x1
 8160 006d 13       		.uleb128 0x13
 8161 006e 00       		.byte	0
 8162 006f 00       		.byte	0
 8163 0070 0B       		.uleb128 0xb
 8164 0071 0D       		.uleb128 0xd
 8165 0072 00       		.byte	0
 8166 0073 03       		.uleb128 0x3
 8167 0074 08       		.uleb128 0x8
 8168 0075 3A       		.uleb128 0x3a
 8169 0076 0B       		.uleb128 0xb
 8170 0077 3B       		.uleb128 0x3b
 8171 0078 0B       		.uleb128 0xb
 8172 0079 49       		.uleb128 0x49
 8173 007a 13       		.uleb128 0x13
 8174 007b 38       		.uleb128 0x38
 8175 007c 0B       		.uleb128 0xb
 8176 007d 00       		.byte	0
 8177 007e 00       		.byte	0
 8178 007f 0C       		.uleb128 0xc
 8179 0080 0D       		.uleb128 0xd
 8180 0081 00       		.byte	0
 8181 0082 03       		.uleb128 0x3
 8182 0083 0E       		.uleb128 0xe
 8183 0084 3A       		.uleb128 0x3a
 8184 0085 0B       		.uleb128 0xb
 8185 0086 3B       		.uleb128 0x3b
 8186 0087 0B       		.uleb128 0xb
 8187 0088 49       		.uleb128 0x49
 8188 0089 13       		.uleb128 0x13
 8189 008a 38       		.uleb128 0x38
 8190 008b 0B       		.uleb128 0xb
 8191 008c 00       		.byte	0
 8192 008d 00       		.byte	0
 8193 008e 0D       		.uleb128 0xd
 8194 008f 0D       		.uleb128 0xd
 8195 0090 00       		.byte	0
 8196 0091 03       		.uleb128 0x3
 8197 0092 08       		.uleb128 0x8
 8198 0093 3A       		.uleb128 0x3a
 8199 0094 0B       		.uleb128 0xb
 8200 0095 3B       		.uleb128 0x3b
 8201 0096 0B       		.uleb128 0xb
 8202 0097 49       		.uleb128 0x49
 8203 0098 13       		.uleb128 0x13
 8204 0099 38       		.uleb128 0x38
 8205 009a 05       		.uleb128 0x5
 8206 009b 00       		.byte	0
 8207 009c 00       		.byte	0
 8208 009d 0E       		.uleb128 0xe
 8209 009e 01       		.uleb128 0x1
 8210 009f 01       		.byte	0x1
 8211 00a0 49       		.uleb128 0x49
 8212 00a1 13       		.uleb128 0x13
ARM GAS  C:\Users\ddemidov\AppData\Local\Temp\ccTwWFqA.s 			page 196


 8213 00a2 01       		.uleb128 0x1
 8214 00a3 13       		.uleb128 0x13
 8215 00a4 00       		.byte	0
 8216 00a5 00       		.byte	0
 8217 00a6 0F       		.uleb128 0xf
 8218 00a7 21       		.uleb128 0x21
 8219 00a8 00       		.byte	0
 8220 00a9 49       		.uleb128 0x49
 8221 00aa 13       		.uleb128 0x13
 8222 00ab 2F       		.uleb128 0x2f
 8223 00ac 0B       		.uleb128 0xb
 8224 00ad 00       		.byte	0
 8225 00ae 00       		.byte	0
 8226 00af 10       		.uleb128 0x10
 8227 00b0 16       		.uleb128 0x16
 8228 00b1 00       		.byte	0
 8229 00b2 03       		.uleb128 0x3
 8230 00b3 08       		.uleb128 0x8
 8231 00b4 3A       		.uleb128 0x3a
 8232 00b5 0B       		.uleb128 0xb
 8233 00b6 3B       		.uleb128 0x3b
 8234 00b7 0B       		.uleb128 0xb
 8235 00b8 49       		.uleb128 0x49
 8236 00b9 13       		.uleb128 0x13
 8237 00ba 00       		.byte	0
 8238 00bb 00       		.byte	0
 8239 00bc 11       		.uleb128 0x11
 8240 00bd 2E       		.uleb128 0x2e
 8241 00be 01       		.byte	0x1
 8242 00bf 03       		.uleb128 0x3
 8243 00c0 0E       		.uleb128 0xe
 8244 00c1 3A       		.uleb128 0x3a
 8245 00c2 0B       		.uleb128 0xb
 8246 00c3 3B       		.uleb128 0x3b
 8247 00c4 0B       		.uleb128 0xb
 8248 00c5 27       		.uleb128 0x27
 8249 00c6 19       		.uleb128 0x19
 8250 00c7 49       		.uleb128 0x49
 8251 00c8 13       		.uleb128 0x13
 8252 00c9 20       		.uleb128 0x20
 8253 00ca 0B       		.uleb128 0xb
 8254 00cb 01       		.uleb128 0x1
 8255 00cc 13       		.uleb128 0x13
 8256 00cd 00       		.byte	0
 8257 00ce 00       		.byte	0
 8258 00cf 12       		.uleb128 0x12
 8259 00d0 05       		.uleb128 0x5
 8260 00d1 00       		.byte	0
 8261 00d2 03       		.uleb128 0x3
 8262 00d3 08       		.uleb128 0x8
 8263 00d4 3A       		.uleb128 0x3a
 8264 00d5 0B       		.uleb128 0xb
 8265 00d6 3B       		.uleb128 0x3b
 8266 00d7 0B       		.uleb128 0xb
 8267 00d8 49       		.uleb128 0x49
 8268 00d9 13       		.uleb128 0x13
 8269 00da 00       		.byte	0
ARM GAS  C:\Users\ddemidov\AppData\Local\Temp\ccTwWFqA.s 			page 197


 8270 00db 00       		.byte	0
 8271 00dc 13       		.uleb128 0x13
 8272 00dd 05       		.uleb128 0x5
 8273 00de 00       		.byte	0
 8274 00df 03       		.uleb128 0x3
 8275 00e0 0E       		.uleb128 0xe
 8276 00e1 3A       		.uleb128 0x3a
 8277 00e2 0B       		.uleb128 0xb
 8278 00e3 3B       		.uleb128 0x3b
 8279 00e4 0B       		.uleb128 0xb
 8280 00e5 49       		.uleb128 0x49
 8281 00e6 13       		.uleb128 0x13
 8282 00e7 00       		.byte	0
 8283 00e8 00       		.byte	0
 8284 00e9 14       		.uleb128 0x14
 8285 00ea 2E       		.uleb128 0x2e
 8286 00eb 01       		.byte	0x1
 8287 00ec 03       		.uleb128 0x3
 8288 00ed 0E       		.uleb128 0xe
 8289 00ee 3A       		.uleb128 0x3a
 8290 00ef 0B       		.uleb128 0xb
 8291 00f0 3B       		.uleb128 0x3b
 8292 00f1 0B       		.uleb128 0xb
 8293 00f2 27       		.uleb128 0x27
 8294 00f3 19       		.uleb128 0x19
 8295 00f4 20       		.uleb128 0x20
 8296 00f5 0B       		.uleb128 0xb
 8297 00f6 01       		.uleb128 0x1
 8298 00f7 13       		.uleb128 0x13
 8299 00f8 00       		.byte	0
 8300 00f9 00       		.byte	0
 8301 00fa 15       		.uleb128 0x15
 8302 00fb 34       		.uleb128 0x34
 8303 00fc 00       		.byte	0
 8304 00fd 03       		.uleb128 0x3
 8305 00fe 08       		.uleb128 0x8
 8306 00ff 3A       		.uleb128 0x3a
 8307 0100 0B       		.uleb128 0xb
 8308 0101 3B       		.uleb128 0x3b
 8309 0102 0B       		.uleb128 0xb
 8310 0103 49       		.uleb128 0x49
 8311 0104 13       		.uleb128 0x13
 8312 0105 00       		.byte	0
 8313 0106 00       		.byte	0
 8314 0107 16       		.uleb128 0x16
 8315 0108 26       		.uleb128 0x26
 8316 0109 00       		.byte	0
 8317 010a 49       		.uleb128 0x49
 8318 010b 13       		.uleb128 0x13
 8319 010c 00       		.byte	0
 8320 010d 00       		.byte	0
 8321 010e 17       		.uleb128 0x17
 8322 010f 34       		.uleb128 0x34
 8323 0110 00       		.byte	0
 8324 0111 03       		.uleb128 0x3
 8325 0112 0E       		.uleb128 0xe
 8326 0113 3A       		.uleb128 0x3a
ARM GAS  C:\Users\ddemidov\AppData\Local\Temp\ccTwWFqA.s 			page 198


 8327 0114 0B       		.uleb128 0xb
 8328 0115 3B       		.uleb128 0x3b
 8329 0116 0B       		.uleb128 0xb
 8330 0117 49       		.uleb128 0x49
 8331 0118 13       		.uleb128 0x13
 8332 0119 00       		.byte	0
 8333 011a 00       		.byte	0
 8334 011b 18       		.uleb128 0x18
 8335 011c 2E       		.uleb128 0x2e
 8336 011d 01       		.byte	0x1
 8337 011e 03       		.uleb128 0x3
 8338 011f 0E       		.uleb128 0xe
 8339 0120 3A       		.uleb128 0x3a
 8340 0121 0B       		.uleb128 0xb
 8341 0122 3B       		.uleb128 0x3b
 8342 0123 05       		.uleb128 0x5
 8343 0124 27       		.uleb128 0x27
 8344 0125 19       		.uleb128 0x19
 8345 0126 11       		.uleb128 0x11
 8346 0127 01       		.uleb128 0x1
 8347 0128 12       		.uleb128 0x12
 8348 0129 06       		.uleb128 0x6
 8349 012a 40       		.uleb128 0x40
 8350 012b 18       		.uleb128 0x18
 8351 012c 9742     		.uleb128 0x2117
 8352 012e 19       		.uleb128 0x19
 8353 012f 01       		.uleb128 0x1
 8354 0130 13       		.uleb128 0x13
 8355 0131 00       		.byte	0
 8356 0132 00       		.byte	0
 8357 0133 19       		.uleb128 0x19
 8358 0134 05       		.uleb128 0x5
 8359 0135 00       		.byte	0
 8360 0136 03       		.uleb128 0x3
 8361 0137 08       		.uleb128 0x8
 8362 0138 3A       		.uleb128 0x3a
 8363 0139 0B       		.uleb128 0xb
 8364 013a 3B       		.uleb128 0x3b
 8365 013b 05       		.uleb128 0x5
 8366 013c 49       		.uleb128 0x49
 8367 013d 13       		.uleb128 0x13
 8368 013e 02       		.uleb128 0x2
 8369 013f 17       		.uleb128 0x17
 8370 0140 00       		.byte	0
 8371 0141 00       		.byte	0
 8372 0142 1A       		.uleb128 0x1a
 8373 0143 05       		.uleb128 0x5
 8374 0144 00       		.byte	0
 8375 0145 03       		.uleb128 0x3
 8376 0146 0E       		.uleb128 0xe
 8377 0147 3A       		.uleb128 0x3a
 8378 0148 0B       		.uleb128 0xb
 8379 0149 3B       		.uleb128 0x3b
 8380 014a 05       		.uleb128 0x5
 8381 014b 49       		.uleb128 0x49
 8382 014c 13       		.uleb128 0x13
 8383 014d 02       		.uleb128 0x2
ARM GAS  C:\Users\ddemidov\AppData\Local\Temp\ccTwWFqA.s 			page 199


 8384 014e 17       		.uleb128 0x17
 8385 014f 00       		.byte	0
 8386 0150 00       		.byte	0
 8387 0151 1B       		.uleb128 0x1b
 8388 0152 34       		.uleb128 0x34
 8389 0153 00       		.byte	0
 8390 0154 03       		.uleb128 0x3
 8391 0155 08       		.uleb128 0x8
 8392 0156 3A       		.uleb128 0x3a
 8393 0157 0B       		.uleb128 0xb
 8394 0158 3B       		.uleb128 0x3b
 8395 0159 05       		.uleb128 0x5
 8396 015a 49       		.uleb128 0x49
 8397 015b 13       		.uleb128 0x13
 8398 015c 02       		.uleb128 0x2
 8399 015d 18       		.uleb128 0x18
 8400 015e 00       		.byte	0
 8401 015f 00       		.byte	0
 8402 0160 1C       		.uleb128 0x1c
 8403 0161 34       		.uleb128 0x34
 8404 0162 00       		.byte	0
 8405 0163 03       		.uleb128 0x3
 8406 0164 08       		.uleb128 0x8
 8407 0165 3A       		.uleb128 0x3a
 8408 0166 0B       		.uleb128 0xb
 8409 0167 3B       		.uleb128 0x3b
 8410 0168 05       		.uleb128 0x5
 8411 0169 49       		.uleb128 0x49
 8412 016a 13       		.uleb128 0x13
 8413 016b 02       		.uleb128 0x2
 8414 016c 17       		.uleb128 0x17
 8415 016d 00       		.byte	0
 8416 016e 00       		.byte	0
 8417 016f 1D       		.uleb128 0x1d
 8418 0170 1D       		.uleb128 0x1d
 8419 0171 01       		.byte	0x1
 8420 0172 31       		.uleb128 0x31
 8421 0173 13       		.uleb128 0x13
 8422 0174 11       		.uleb128 0x11
 8423 0175 01       		.uleb128 0x1
 8424 0176 12       		.uleb128 0x12
 8425 0177 06       		.uleb128 0x6
 8426 0178 58       		.uleb128 0x58
 8427 0179 0B       		.uleb128 0xb
 8428 017a 59       		.uleb128 0x59
 8429 017b 05       		.uleb128 0x5
 8430 017c 01       		.uleb128 0x1
 8431 017d 13       		.uleb128 0x13
 8432 017e 00       		.byte	0
 8433 017f 00       		.byte	0
 8434 0180 1E       		.uleb128 0x1e
 8435 0181 05       		.uleb128 0x5
 8436 0182 00       		.byte	0
 8437 0183 31       		.uleb128 0x31
 8438 0184 13       		.uleb128 0x13
 8439 0185 02       		.uleb128 0x2
 8440 0186 17       		.uleb128 0x17
ARM GAS  C:\Users\ddemidov\AppData\Local\Temp\ccTwWFqA.s 			page 200


 8441 0187 00       		.byte	0
 8442 0188 00       		.byte	0
 8443 0189 1F       		.uleb128 0x1f
 8444 018a 1D       		.uleb128 0x1d
 8445 018b 01       		.byte	0x1
 8446 018c 31       		.uleb128 0x31
 8447 018d 13       		.uleb128 0x13
 8448 018e 11       		.uleb128 0x11
 8449 018f 01       		.uleb128 0x1
 8450 0190 12       		.uleb128 0x12
 8451 0191 06       		.uleb128 0x6
 8452 0192 58       		.uleb128 0x58
 8453 0193 0B       		.uleb128 0xb
 8454 0194 59       		.uleb128 0x59
 8455 0195 0B       		.uleb128 0xb
 8456 0196 00       		.byte	0
 8457 0197 00       		.byte	0
 8458 0198 20       		.uleb128 0x20
 8459 0199 898201   		.uleb128 0x4109
 8460 019c 01       		.byte	0x1
 8461 019d 11       		.uleb128 0x11
 8462 019e 01       		.uleb128 0x1
 8463 019f 31       		.uleb128 0x31
 8464 01a0 13       		.uleb128 0x13
 8465 01a1 01       		.uleb128 0x1
 8466 01a2 13       		.uleb128 0x13
 8467 01a3 00       		.byte	0
 8468 01a4 00       		.byte	0
 8469 01a5 21       		.uleb128 0x21
 8470 01a6 8A8201   		.uleb128 0x410a
 8471 01a9 00       		.byte	0
 8472 01aa 02       		.uleb128 0x2
 8473 01ab 18       		.uleb128 0x18
 8474 01ac 9142     		.uleb128 0x2111
 8475 01ae 18       		.uleb128 0x18
 8476 01af 00       		.byte	0
 8477 01b0 00       		.byte	0
 8478 01b1 22       		.uleb128 0x22
 8479 01b2 898201   		.uleb128 0x4109
 8480 01b5 01       		.byte	0x1
 8481 01b6 11       		.uleb128 0x11
 8482 01b7 01       		.uleb128 0x1
 8483 01b8 31       		.uleb128 0x31
 8484 01b9 13       		.uleb128 0x13
 8485 01ba 00       		.byte	0
 8486 01bb 00       		.byte	0
 8487 01bc 23       		.uleb128 0x23
 8488 01bd 2E       		.uleb128 0x2e
 8489 01be 01       		.byte	0x1
 8490 01bf 3F       		.uleb128 0x3f
 8491 01c0 19       		.uleb128 0x19
 8492 01c1 03       		.uleb128 0x3
 8493 01c2 0E       		.uleb128 0xe
 8494 01c3 3A       		.uleb128 0x3a
 8495 01c4 0B       		.uleb128 0xb
 8496 01c5 3B       		.uleb128 0x3b
 8497 01c6 05       		.uleb128 0x5
ARM GAS  C:\Users\ddemidov\AppData\Local\Temp\ccTwWFqA.s 			page 201


 8498 01c7 27       		.uleb128 0x27
 8499 01c8 19       		.uleb128 0x19
 8500 01c9 49       		.uleb128 0x49
 8501 01ca 13       		.uleb128 0x13
 8502 01cb 11       		.uleb128 0x11
 8503 01cc 01       		.uleb128 0x1
 8504 01cd 12       		.uleb128 0x12
 8505 01ce 06       		.uleb128 0x6
 8506 01cf 40       		.uleb128 0x40
 8507 01d0 18       		.uleb128 0x18
 8508 01d1 9742     		.uleb128 0x2117
 8509 01d3 19       		.uleb128 0x19
 8510 01d4 01       		.uleb128 0x1
 8511 01d5 13       		.uleb128 0x13
 8512 01d6 00       		.byte	0
 8513 01d7 00       		.byte	0
 8514 01d8 24       		.uleb128 0x24
 8515 01d9 2E       		.uleb128 0x2e
 8516 01da 01       		.byte	0x1
 8517 01db 03       		.uleb128 0x3
 8518 01dc 0E       		.uleb128 0xe
 8519 01dd 3A       		.uleb128 0x3a
 8520 01de 0B       		.uleb128 0xb
 8521 01df 3B       		.uleb128 0x3b
 8522 01e0 05       		.uleb128 0x5
 8523 01e1 27       		.uleb128 0x27
 8524 01e2 19       		.uleb128 0x19
 8525 01e3 49       		.uleb128 0x49
 8526 01e4 13       		.uleb128 0x13
 8527 01e5 11       		.uleb128 0x11
 8528 01e6 01       		.uleb128 0x1
 8529 01e7 12       		.uleb128 0x12
 8530 01e8 06       		.uleb128 0x6
 8531 01e9 40       		.uleb128 0x40
 8532 01ea 18       		.uleb128 0x18
 8533 01eb 9742     		.uleb128 0x2117
 8534 01ed 19       		.uleb128 0x19
 8535 01ee 01       		.uleb128 0x1
 8536 01ef 13       		.uleb128 0x13
 8537 01f0 00       		.byte	0
 8538 01f1 00       		.byte	0
 8539 01f2 25       		.uleb128 0x25
 8540 01f3 05       		.uleb128 0x5
 8541 01f4 00       		.byte	0
 8542 01f5 03       		.uleb128 0x3
 8543 01f6 08       		.uleb128 0x8
 8544 01f7 3A       		.uleb128 0x3a
 8545 01f8 0B       		.uleb128 0xb
 8546 01f9 3B       		.uleb128 0x3b
 8547 01fa 05       		.uleb128 0x5
 8548 01fb 49       		.uleb128 0x49
 8549 01fc 13       		.uleb128 0x13
 8550 01fd 02       		.uleb128 0x2
 8551 01fe 18       		.uleb128 0x18
 8552 01ff 00       		.byte	0
 8553 0200 00       		.byte	0
 8554 0201 26       		.uleb128 0x26
ARM GAS  C:\Users\ddemidov\AppData\Local\Temp\ccTwWFqA.s 			page 202


 8555 0202 34       		.uleb128 0x34
 8556 0203 00       		.byte	0
 8557 0204 03       		.uleb128 0x3
 8558 0205 0E       		.uleb128 0xe
 8559 0206 3A       		.uleb128 0x3a
 8560 0207 0B       		.uleb128 0xb
 8561 0208 3B       		.uleb128 0x3b
 8562 0209 05       		.uleb128 0x5
 8563 020a 49       		.uleb128 0x49
 8564 020b 13       		.uleb128 0x13
 8565 020c 02       		.uleb128 0x2
 8566 020d 17       		.uleb128 0x17
 8567 020e 00       		.byte	0
 8568 020f 00       		.byte	0
 8569 0210 27       		.uleb128 0x27
 8570 0211 0B       		.uleb128 0xb
 8571 0212 01       		.byte	0x1
 8572 0213 11       		.uleb128 0x11
 8573 0214 01       		.uleb128 0x1
 8574 0215 12       		.uleb128 0x12
 8575 0216 06       		.uleb128 0x6
 8576 0217 00       		.byte	0
 8577 0218 00       		.byte	0
 8578 0219 28       		.uleb128 0x28
 8579 021a 34       		.uleb128 0x34
 8580 021b 00       		.byte	0
 8581 021c 31       		.uleb128 0x31
 8582 021d 13       		.uleb128 0x13
 8583 021e 02       		.uleb128 0x2
 8584 021f 17       		.uleb128 0x17
 8585 0220 00       		.byte	0
 8586 0221 00       		.byte	0
 8587 0222 29       		.uleb128 0x29
 8588 0223 0B       		.uleb128 0xb
 8589 0224 01       		.byte	0x1
 8590 0225 11       		.uleb128 0x11
 8591 0226 01       		.uleb128 0x1
 8592 0227 12       		.uleb128 0x12
 8593 0228 06       		.uleb128 0x6
 8594 0229 01       		.uleb128 0x1
 8595 022a 13       		.uleb128 0x13
 8596 022b 00       		.byte	0
 8597 022c 00       		.byte	0
 8598 022d 2A       		.uleb128 0x2a
 8599 022e 34       		.uleb128 0x34
 8600 022f 00       		.byte	0
 8601 0230 03       		.uleb128 0x3
 8602 0231 0E       		.uleb128 0xe
 8603 0232 3A       		.uleb128 0x3a
 8604 0233 0B       		.uleb128 0xb
 8605 0234 3B       		.uleb128 0x3b
 8606 0235 05       		.uleb128 0x5
 8607 0236 49       		.uleb128 0x49
 8608 0237 13       		.uleb128 0x13
 8609 0238 1C       		.uleb128 0x1c
 8610 0239 0B       		.uleb128 0xb
 8611 023a 00       		.byte	0
ARM GAS  C:\Users\ddemidov\AppData\Local\Temp\ccTwWFqA.s 			page 203


 8612 023b 00       		.byte	0
 8613 023c 2B       		.uleb128 0x2b
 8614 023d 0B       		.uleb128 0xb
 8615 023e 01       		.byte	0x1
 8616 023f 00       		.byte	0
 8617 0240 00       		.byte	0
 8618 0241 2C       		.uleb128 0x2c
 8619 0242 1D       		.uleb128 0x1d
 8620 0243 01       		.byte	0x1
 8621 0244 31       		.uleb128 0x31
 8622 0245 13       		.uleb128 0x13
 8623 0246 11       		.uleb128 0x11
 8624 0247 01       		.uleb128 0x1
 8625 0248 12       		.uleb128 0x12
 8626 0249 06       		.uleb128 0x6
 8627 024a 58       		.uleb128 0x58
 8628 024b 0B       		.uleb128 0xb
 8629 024c 59       		.uleb128 0x59
 8630 024d 0B       		.uleb128 0xb
 8631 024e 01       		.uleb128 0x1
 8632 024f 13       		.uleb128 0x13
 8633 0250 00       		.byte	0
 8634 0251 00       		.byte	0
 8635 0252 2D       		.uleb128 0x2d
 8636 0253 05       		.uleb128 0x5
 8637 0254 00       		.byte	0
 8638 0255 31       		.uleb128 0x31
 8639 0256 13       		.uleb128 0x13
 8640 0257 00       		.byte	0
 8641 0258 00       		.byte	0
 8642 0259 2E       		.uleb128 0x2e
 8643 025a 34       		.uleb128 0x34
 8644 025b 00       		.byte	0
 8645 025c 31       		.uleb128 0x31
 8646 025d 13       		.uleb128 0x13
 8647 025e 00       		.byte	0
 8648 025f 00       		.byte	0
 8649 0260 2F       		.uleb128 0x2f
 8650 0261 34       		.uleb128 0x34
 8651 0262 00       		.byte	0
 8652 0263 03       		.uleb128 0x3
 8653 0264 0E       		.uleb128 0xe
 8654 0265 3A       		.uleb128 0x3a
 8655 0266 0B       		.uleb128 0xb
 8656 0267 3B       		.uleb128 0x3b
 8657 0268 05       		.uleb128 0x5
 8658 0269 49       		.uleb128 0x49
 8659 026a 13       		.uleb128 0x13
 8660 026b 02       		.uleb128 0x2
 8661 026c 18       		.uleb128 0x18
 8662 026d 00       		.byte	0
 8663 026e 00       		.byte	0
 8664 026f 30       		.uleb128 0x30
 8665 0270 2E       		.uleb128 0x2e
 8666 0271 01       		.byte	0x1
 8667 0272 3F       		.uleb128 0x3f
 8668 0273 19       		.uleb128 0x19
ARM GAS  C:\Users\ddemidov\AppData\Local\Temp\ccTwWFqA.s 			page 204


 8669 0274 03       		.uleb128 0x3
 8670 0275 0E       		.uleb128 0xe
 8671 0276 27       		.uleb128 0x27
 8672 0277 19       		.uleb128 0x19
 8673 0278 49       		.uleb128 0x49
 8674 0279 13       		.uleb128 0x13
 8675 027a 34       		.uleb128 0x34
 8676 027b 19       		.uleb128 0x19
 8677 027c 3C       		.uleb128 0x3c
 8678 027d 19       		.uleb128 0x19
 8679 027e 01       		.uleb128 0x1
 8680 027f 13       		.uleb128 0x13
 8681 0280 00       		.byte	0
 8682 0281 00       		.byte	0
 8683 0282 31       		.uleb128 0x31
 8684 0283 05       		.uleb128 0x5
 8685 0284 00       		.byte	0
 8686 0285 49       		.uleb128 0x49
 8687 0286 13       		.uleb128 0x13
 8688 0287 00       		.byte	0
 8689 0288 00       		.byte	0
 8690 0289 32       		.uleb128 0x32
 8691 028a 2E       		.uleb128 0x2e
 8692 028b 01       		.byte	0x1
 8693 028c 3F       		.uleb128 0x3f
 8694 028d 19       		.uleb128 0x19
 8695 028e 03       		.uleb128 0x3
 8696 028f 0E       		.uleb128 0xe
 8697 0290 27       		.uleb128 0x27
 8698 0291 19       		.uleb128 0x19
 8699 0292 49       		.uleb128 0x49
 8700 0293 13       		.uleb128 0x13
 8701 0294 34       		.uleb128 0x34
 8702 0295 19       		.uleb128 0x19
 8703 0296 3C       		.uleb128 0x3c
 8704 0297 19       		.uleb128 0x19
 8705 0298 00       		.byte	0
 8706 0299 00       		.byte	0
 8707 029a 00       		.byte	0
 8708              		.section	.debug_loc,"",%progbits
 8709              	.Ldebug_loc0:
 8710              	.LLST0:
 8711 0000 00000000 		.4byte	.LVL0
 8712 0004 28000000 		.4byte	.LVL4
 8713 0008 0100     		.2byte	0x1
 8714 000a 50       		.byte	0x50
 8715 000b 28000000 		.4byte	.LVL4
 8716 000f B2000000 		.4byte	.LVL32
 8717 0013 0100     		.2byte	0x1
 8718 0015 54       		.byte	0x54
 8719 0016 B2000000 		.4byte	.LVL32
 8720 001a 96030000 		.4byte	.LVL51
 8721 001e 0200     		.2byte	0x2
 8722 0020 7D       		.byte	0x7d
 8723 0021 00       		.sleb128 0
 8724 0022 96030000 		.4byte	.LVL51
 8725 0026 44050000 		.4byte	.LFE12
ARM GAS  C:\Users\ddemidov\AppData\Local\Temp\ccTwWFqA.s 			page 205


 8726 002a 0400     		.2byte	0x4
 8727 002c F3       		.byte	0xf3
 8728 002d 01       		.uleb128 0x1
 8729 002e 50       		.byte	0x50
 8730 002f 9F       		.byte	0x9f
 8731 0030 00000000 		.4byte	0
 8732 0034 00000000 		.4byte	0
 8733              	.LLST1:
 8734 0038 00000000 		.4byte	.LVL0
 8735 003c 2D000000 		.4byte	.LVL6-1
 8736 0040 0100     		.2byte	0x1
 8737 0042 51       		.byte	0x51
 8738 0043 2D000000 		.4byte	.LVL6-1
 8739 0047 58000000 		.4byte	.LVL11
 8740 004b 0100     		.2byte	0x1
 8741 004d 55       		.byte	0x55
 8742 004e 58000000 		.4byte	.LVL11
 8743 0052 44050000 		.4byte	.LFE12
 8744 0056 0400     		.2byte	0x4
 8745 0058 F3       		.byte	0xf3
 8746 0059 01       		.uleb128 0x1
 8747 005a 51       		.byte	0x51
 8748 005b 9F       		.byte	0x9f
 8749 005c 00000000 		.4byte	0
 8750 0060 00000000 		.4byte	0
 8751              	.LLST2:
 8752 0064 00000000 		.4byte	.LVL0
 8753 0068 2A000000 		.4byte	.LVL5
 8754 006c 0100     		.2byte	0x1
 8755 006e 52       		.byte	0x52
 8756 006f 2A000000 		.4byte	.LVL5
 8757 0073 2A050000 		.4byte	.LVL80
 8758 0077 0200     		.2byte	0x2
 8759 0079 91       		.byte	0x91
 8760 007a 44       		.sleb128 -60
 8761 007b 2A050000 		.4byte	.LVL80
 8762 007f 44050000 		.4byte	.LFE12
 8763 0083 0400     		.2byte	0x4
 8764 0085 F3       		.byte	0xf3
 8765 0086 01       		.uleb128 0x1
 8766 0087 52       		.byte	0x52
 8767 0088 9F       		.byte	0x9f
 8768 0089 00000000 		.4byte	0
 8769 008d 00000000 		.4byte	0
 8770              	.LLST3:
 8771 0091 FE000000 		.4byte	.LVL33
 8772 0095 DC020000 		.4byte	.LVL42
 8773 0099 0100     		.2byte	0x1
 8774 009b 50       		.byte	0x50
 8775 009c 20030000 		.4byte	.LVL44
 8776 00a0 80040000 		.4byte	.LVL55
 8777 00a4 0100     		.2byte	0x1
 8778 00a6 50       		.byte	0x50
 8779 00a7 80040000 		.4byte	.LVL55
 8780 00ab AA040000 		.4byte	.LVL57
 8781 00af 4700     		.2byte	0x47
 8782 00b1 91       		.byte	0x91
ARM GAS  C:\Users\ddemidov\AppData\Local\Temp\ccTwWFqA.s 			page 206


 8783 00b2 54       		.sleb128 -44
 8784 00b3 06       		.byte	0x6
 8785 00b4 48       		.byte	0x48
 8786 00b5 25       		.byte	0x25
 8787 00b6 32       		.byte	0x32
 8788 00b7 24       		.byte	0x24
 8789 00b8 75       		.byte	0x75
 8790 00b9 00       		.sleb128 0
 8791 00ba 22       		.byte	0x22
 8792 00bb 06       		.byte	0x6
 8793 00bc 91       		.byte	0x91
 8794 00bd 50       		.sleb128 -48
 8795 00be 06       		.byte	0x6
 8796 00bf 40       		.byte	0x40
 8797 00c0 25       		.byte	0x25
 8798 00c1 74       		.byte	0x74
 8799 00c2 00       		.sleb128 0
 8800 00c3 1A       		.byte	0x1a
 8801 00c4 23       		.byte	0x23
 8802 00c5 8002     		.uleb128 0x100
 8803 00c7 32       		.byte	0x32
 8804 00c8 24       		.byte	0x24
 8805 00c9 75       		.byte	0x75
 8806 00ca 00       		.sleb128 0
 8807 00cb 22       		.byte	0x22
 8808 00cc 06       		.byte	0x6
 8809 00cd 27       		.byte	0x27
 8810 00ce 91       		.byte	0x91
 8811 00cf 4C       		.sleb128 -52
 8812 00d0 06       		.byte	0x6
 8813 00d1 38       		.byte	0x38
 8814 00d2 25       		.byte	0x25
 8815 00d3 74       		.byte	0x74
 8816 00d4 00       		.sleb128 0
 8817 00d5 1A       		.byte	0x1a
 8818 00d6 23       		.byte	0x23
 8819 00d7 8004     		.uleb128 0x200
 8820 00d9 32       		.byte	0x32
 8821 00da 24       		.byte	0x24
 8822 00db 75       		.byte	0x75
 8823 00dc 00       		.sleb128 0
 8824 00dd 22       		.byte	0x22
 8825 00de 06       		.byte	0x6
 8826 00df 27       		.byte	0x27
 8827 00e0 74       		.byte	0x74
 8828 00e1 00       		.sleb128 0
 8829 00e2 91       		.byte	0x91
 8830 00e3 48       		.sleb128 -56
 8831 00e4 06       		.byte	0x6
 8832 00e5 1A       		.byte	0x1a
 8833 00e6 23       		.byte	0x23
 8834 00e7 8006     		.uleb128 0x300
 8835 00e9 32       		.byte	0x32
 8836 00ea 24       		.byte	0x24
 8837 00eb 75       		.byte	0x75
 8838 00ec 00       		.sleb128 0
 8839 00ed 22       		.byte	0x22
ARM GAS  C:\Users\ddemidov\AppData\Local\Temp\ccTwWFqA.s 			page 207


 8840 00ee 06       		.byte	0x6
 8841 00ef 27       		.byte	0x27
 8842 00f0 7D       		.byte	0x7d
 8843 00f1 00       		.sleb128 0
 8844 00f2 06       		.byte	0x6
 8845 00f3 40       		.byte	0x40
 8846 00f4 1C       		.byte	0x1c
 8847 00f5 06       		.byte	0x6
 8848 00f6 27       		.byte	0x27
 8849 00f7 9F       		.byte	0x9f
 8850 00f8 AA040000 		.4byte	.LVL57
 8851 00fc B4040000 		.4byte	.LVL59
 8852 0100 4700     		.2byte	0x47
 8853 0102 91       		.byte	0x91
 8854 0103 54       		.sleb128 -44
 8855 0104 06       		.byte	0x6
 8856 0105 48       		.byte	0x48
 8857 0106 25       		.byte	0x25
 8858 0107 32       		.byte	0x32
 8859 0108 24       		.byte	0x24
 8860 0109 75       		.byte	0x75
 8861 010a 00       		.sleb128 0
 8862 010b 22       		.byte	0x22
 8863 010c 06       		.byte	0x6
 8864 010d 91       		.byte	0x91
 8865 010e 50       		.sleb128 -48
 8866 010f 06       		.byte	0x6
 8867 0110 40       		.byte	0x40
 8868 0111 25       		.byte	0x25
 8869 0112 08       		.byte	0x8
 8870 0113 FF       		.byte	0xff
 8871 0114 1A       		.byte	0x1a
 8872 0115 23       		.byte	0x23
 8873 0116 8002     		.uleb128 0x100
 8874 0118 32       		.byte	0x32
 8875 0119 24       		.byte	0x24
 8876 011a 75       		.byte	0x75
 8877 011b 00       		.sleb128 0
 8878 011c 22       		.byte	0x22
 8879 011d 06       		.byte	0x6
 8880 011e 27       		.byte	0x27
 8881 011f 91       		.byte	0x91
 8882 0120 4C       		.sleb128 -52
 8883 0121 06       		.byte	0x6
 8884 0122 38       		.byte	0x38
 8885 0123 25       		.byte	0x25
 8886 0124 08       		.byte	0x8
 8887 0125 FF       		.byte	0xff
 8888 0126 1A       		.byte	0x1a
 8889 0127 23       		.byte	0x23
 8890 0128 8004     		.uleb128 0x200
 8891 012a 32       		.byte	0x32
 8892 012b 24       		.byte	0x24
 8893 012c 75       		.byte	0x75
 8894 012d 00       		.sleb128 0
 8895 012e 22       		.byte	0x22
 8896 012f 06       		.byte	0x6
ARM GAS  C:\Users\ddemidov\AppData\Local\Temp\ccTwWFqA.s 			page 208


 8897 0130 27       		.byte	0x27
 8898 0131 91       		.byte	0x91
 8899 0132 48       		.sleb128 -56
 8900 0133 06       		.byte	0x6
 8901 0134 08       		.byte	0x8
 8902 0135 FF       		.byte	0xff
 8903 0136 1A       		.byte	0x1a
 8904 0137 23       		.byte	0x23
 8905 0138 8006     		.uleb128 0x300
 8906 013a 32       		.byte	0x32
 8907 013b 24       		.byte	0x24
 8908 013c 75       		.byte	0x75
 8909 013d 00       		.sleb128 0
 8910 013e 22       		.byte	0x22
 8911 013f 06       		.byte	0x6
 8912 0140 27       		.byte	0x27
 8913 0141 7D       		.byte	0x7d
 8914 0142 00       		.sleb128 0
 8915 0143 06       		.byte	0x6
 8916 0144 40       		.byte	0x40
 8917 0145 1C       		.byte	0x1c
 8918 0146 06       		.byte	0x6
 8919 0147 27       		.byte	0x27
 8920 0148 9F       		.byte	0x9f
 8921 0149 B4040000 		.4byte	.LVL59
 8922 014d C8040000 		.4byte	.LVL63
 8923 0151 5300     		.2byte	0x53
 8924 0153 91       		.byte	0x91
 8925 0154 54       		.sleb128 -44
 8926 0155 06       		.byte	0x6
 8927 0156 48       		.byte	0x48
 8928 0157 25       		.byte	0x25
 8929 0158 32       		.byte	0x32
 8930 0159 24       		.byte	0x24
 8931 015a 03       		.byte	0x3
 8932 015b 00000000 		.4byte	.LANCHOR0
 8933 015f 22       		.byte	0x22
 8934 0160 06       		.byte	0x6
 8935 0161 91       		.byte	0x91
 8936 0162 50       		.sleb128 -48
 8937 0163 06       		.byte	0x6
 8938 0164 40       		.byte	0x40
 8939 0165 25       		.byte	0x25
 8940 0166 08       		.byte	0x8
 8941 0167 FF       		.byte	0xff
 8942 0168 1A       		.byte	0x1a
 8943 0169 23       		.byte	0x23
 8944 016a 8002     		.uleb128 0x100
 8945 016c 32       		.byte	0x32
 8946 016d 24       		.byte	0x24
 8947 016e 03       		.byte	0x3
 8948 016f 00000000 		.4byte	.LANCHOR0
 8949 0173 22       		.byte	0x22
 8950 0174 06       		.byte	0x6
 8951 0175 27       		.byte	0x27
 8952 0176 91       		.byte	0x91
 8953 0177 4C       		.sleb128 -52
ARM GAS  C:\Users\ddemidov\AppData\Local\Temp\ccTwWFqA.s 			page 209


 8954 0178 06       		.byte	0x6
 8955 0179 38       		.byte	0x38
 8956 017a 25       		.byte	0x25
 8957 017b 08       		.byte	0x8
 8958 017c FF       		.byte	0xff
 8959 017d 1A       		.byte	0x1a
 8960 017e 23       		.byte	0x23
 8961 017f 8004     		.uleb128 0x200
 8962 0181 32       		.byte	0x32
 8963 0182 24       		.byte	0x24
 8964 0183 03       		.byte	0x3
 8965 0184 00000000 		.4byte	.LANCHOR0
 8966 0188 22       		.byte	0x22
 8967 0189 06       		.byte	0x6
 8968 018a 27       		.byte	0x27
 8969 018b 91       		.byte	0x91
 8970 018c 48       		.sleb128 -56
 8971 018d 06       		.byte	0x6
 8972 018e 08       		.byte	0x8
 8973 018f FF       		.byte	0xff
 8974 0190 1A       		.byte	0x1a
 8975 0191 23       		.byte	0x23
 8976 0192 8006     		.uleb128 0x300
 8977 0194 32       		.byte	0x32
 8978 0195 24       		.byte	0x24
 8979 0196 03       		.byte	0x3
 8980 0197 00000000 		.4byte	.LANCHOR0
 8981 019b 22       		.byte	0x22
 8982 019c 06       		.byte	0x6
 8983 019d 27       		.byte	0x27
 8984 019e 7D       		.byte	0x7d
 8985 019f 00       		.sleb128 0
 8986 01a0 06       		.byte	0x6
 8987 01a1 40       		.byte	0x40
 8988 01a2 1C       		.byte	0x1c
 8989 01a3 06       		.byte	0x6
 8990 01a4 27       		.byte	0x27
 8991 01a5 9F       		.byte	0x9f
 8992 01a6 00000000 		.4byte	0
 8993 01aa 00000000 		.4byte	0
 8994              	.LLST4:
 8995 01ae 68010000 		.4byte	.LVL34
 8996 01b2 6A010000 		.4byte	.LVL35
 8997 01b6 0100     		.2byte	0x1
 8998 01b8 53       		.byte	0x53
 8999 01b9 6A010000 		.4byte	.LVL35
 9000 01bd F4020000 		.4byte	.LVL43
 9001 01c1 0100     		.2byte	0x1
 9002 01c3 5C       		.byte	0x5c
 9003 01c4 20030000 		.4byte	.LVL44
 9004 01c8 32030000 		.4byte	.LVL48
 9005 01cc 0100     		.2byte	0x1
 9006 01ce 5C       		.byte	0x5c
 9007 01cf 32030000 		.4byte	.LVL48
 9008 01d3 90040000 		.4byte	.LVL56
 9009 01d7 0100     		.2byte	0x1
 9010 01d9 52       		.byte	0x52
ARM GAS  C:\Users\ddemidov\AppData\Local\Temp\ccTwWFqA.s 			page 210


 9011 01da 90040000 		.4byte	.LVL56
 9012 01de AA040000 		.4byte	.LVL57
 9013 01e2 4700     		.2byte	0x47
 9014 01e4 91       		.byte	0x91
 9015 01e5 50       		.sleb128 -48
 9016 01e6 06       		.byte	0x6
 9017 01e7 48       		.byte	0x48
 9018 01e8 25       		.byte	0x25
 9019 01e9 32       		.byte	0x32
 9020 01ea 24       		.byte	0x24
 9021 01eb 75       		.byte	0x75
 9022 01ec 00       		.sleb128 0
 9023 01ed 22       		.byte	0x22
 9024 01ee 06       		.byte	0x6
 9025 01ef 91       		.byte	0x91
 9026 01f0 4C       		.sleb128 -52
 9027 01f1 06       		.byte	0x6
 9028 01f2 40       		.byte	0x40
 9029 01f3 25       		.byte	0x25
 9030 01f4 74       		.byte	0x74
 9031 01f5 00       		.sleb128 0
 9032 01f6 1A       		.byte	0x1a
 9033 01f7 23       		.byte	0x23
 9034 01f8 8002     		.uleb128 0x100
 9035 01fa 32       		.byte	0x32
 9036 01fb 24       		.byte	0x24
 9037 01fc 75       		.byte	0x75
 9038 01fd 00       		.sleb128 0
 9039 01fe 22       		.byte	0x22
 9040 01ff 06       		.byte	0x6
 9041 0200 27       		.byte	0x27
 9042 0201 91       		.byte	0x91
 9043 0202 48       		.sleb128 -56
 9044 0203 06       		.byte	0x6
 9045 0204 38       		.byte	0x38
 9046 0205 25       		.byte	0x25
 9047 0206 74       		.byte	0x74
 9048 0207 00       		.sleb128 0
 9049 0208 1A       		.byte	0x1a
 9050 0209 23       		.byte	0x23
 9051 020a 8004     		.uleb128 0x200
 9052 020c 32       		.byte	0x32
 9053 020d 24       		.byte	0x24
 9054 020e 75       		.byte	0x75
 9055 020f 00       		.sleb128 0
 9056 0210 22       		.byte	0x22
 9057 0211 06       		.byte	0x6
 9058 0212 27       		.byte	0x27
 9059 0213 74       		.byte	0x74
 9060 0214 00       		.sleb128 0
 9061 0215 91       		.byte	0x91
 9062 0216 54       		.sleb128 -44
 9063 0217 06       		.byte	0x6
 9064 0218 1A       		.byte	0x1a
 9065 0219 23       		.byte	0x23
 9066 021a 8006     		.uleb128 0x300
 9067 021c 32       		.byte	0x32
ARM GAS  C:\Users\ddemidov\AppData\Local\Temp\ccTwWFqA.s 			page 211


 9068 021d 24       		.byte	0x24
 9069 021e 75       		.byte	0x75
 9070 021f 00       		.sleb128 0
 9071 0220 22       		.byte	0x22
 9072 0221 06       		.byte	0x6
 9073 0222 27       		.byte	0x27
 9074 0223 7D       		.byte	0x7d
 9075 0224 00       		.sleb128 0
 9076 0225 06       		.byte	0x6
 9077 0226 3C       		.byte	0x3c
 9078 0227 1C       		.byte	0x1c
 9079 0228 06       		.byte	0x6
 9080 0229 27       		.byte	0x27
 9081 022a 9F       		.byte	0x9f
 9082 022b AA040000 		.4byte	.LVL57
 9083 022f B4040000 		.4byte	.LVL59
 9084 0233 4700     		.2byte	0x47
 9085 0235 91       		.byte	0x91
 9086 0236 50       		.sleb128 -48
 9087 0237 06       		.byte	0x6
 9088 0238 48       		.byte	0x48
 9089 0239 25       		.byte	0x25
 9090 023a 32       		.byte	0x32
 9091 023b 24       		.byte	0x24
 9092 023c 75       		.byte	0x75
 9093 023d 00       		.sleb128 0
 9094 023e 22       		.byte	0x22
 9095 023f 06       		.byte	0x6
 9096 0240 91       		.byte	0x91
 9097 0241 4C       		.sleb128 -52
 9098 0242 06       		.byte	0x6
 9099 0243 40       		.byte	0x40
 9100 0244 25       		.byte	0x25
 9101 0245 08       		.byte	0x8
 9102 0246 FF       		.byte	0xff
 9103 0247 1A       		.byte	0x1a
 9104 0248 23       		.byte	0x23
 9105 0249 8002     		.uleb128 0x100
 9106 024b 32       		.byte	0x32
 9107 024c 24       		.byte	0x24
 9108 024d 75       		.byte	0x75
 9109 024e 00       		.sleb128 0
 9110 024f 22       		.byte	0x22
 9111 0250 06       		.byte	0x6
 9112 0251 27       		.byte	0x27
 9113 0252 91       		.byte	0x91
 9114 0253 48       		.sleb128 -56
 9115 0254 06       		.byte	0x6
 9116 0255 38       		.byte	0x38
 9117 0256 25       		.byte	0x25
 9118 0257 08       		.byte	0x8
 9119 0258 FF       		.byte	0xff
 9120 0259 1A       		.byte	0x1a
 9121 025a 23       		.byte	0x23
 9122 025b 8004     		.uleb128 0x200
 9123 025d 32       		.byte	0x32
 9124 025e 24       		.byte	0x24
ARM GAS  C:\Users\ddemidov\AppData\Local\Temp\ccTwWFqA.s 			page 212


 9125 025f 75       		.byte	0x75
 9126 0260 00       		.sleb128 0
 9127 0261 22       		.byte	0x22
 9128 0262 06       		.byte	0x6
 9129 0263 27       		.byte	0x27
 9130 0264 91       		.byte	0x91
 9131 0265 54       		.sleb128 -44
 9132 0266 06       		.byte	0x6
 9133 0267 08       		.byte	0x8
 9134 0268 FF       		.byte	0xff
 9135 0269 1A       		.byte	0x1a
 9136 026a 23       		.byte	0x23
 9137 026b 8006     		.uleb128 0x300
 9138 026d 32       		.byte	0x32
 9139 026e 24       		.byte	0x24
 9140 026f 75       		.byte	0x75
 9141 0270 00       		.sleb128 0
 9142 0271 22       		.byte	0x22
 9143 0272 06       		.byte	0x6
 9144 0273 27       		.byte	0x27
 9145 0274 7D       		.byte	0x7d
 9146 0275 00       		.sleb128 0
 9147 0276 06       		.byte	0x6
 9148 0277 3C       		.byte	0x3c
 9149 0278 1C       		.byte	0x1c
 9150 0279 06       		.byte	0x6
 9151 027a 27       		.byte	0x27
 9152 027b 9F       		.byte	0x9f
 9153 027c B4040000 		.4byte	.LVL59
 9154 0280 C8040000 		.4byte	.LVL63
 9155 0284 5300     		.2byte	0x53
 9156 0286 91       		.byte	0x91
 9157 0287 50       		.sleb128 -48
 9158 0288 06       		.byte	0x6
 9159 0289 48       		.byte	0x48
 9160 028a 25       		.byte	0x25
 9161 028b 32       		.byte	0x32
 9162 028c 24       		.byte	0x24
 9163 028d 03       		.byte	0x3
 9164 028e 00000000 		.4byte	.LANCHOR0
 9165 0292 22       		.byte	0x22
 9166 0293 06       		.byte	0x6
 9167 0294 91       		.byte	0x91
 9168 0295 4C       		.sleb128 -52
 9169 0296 06       		.byte	0x6
 9170 0297 40       		.byte	0x40
 9171 0298 25       		.byte	0x25
 9172 0299 08       		.byte	0x8
 9173 029a FF       		.byte	0xff
 9174 029b 1A       		.byte	0x1a
 9175 029c 23       		.byte	0x23
 9176 029d 8002     		.uleb128 0x100
 9177 029f 32       		.byte	0x32
 9178 02a0 24       		.byte	0x24
 9179 02a1 03       		.byte	0x3
 9180 02a2 00000000 		.4byte	.LANCHOR0
 9181 02a6 22       		.byte	0x22
ARM GAS  C:\Users\ddemidov\AppData\Local\Temp\ccTwWFqA.s 			page 213


 9182 02a7 06       		.byte	0x6
 9183 02a8 27       		.byte	0x27
 9184 02a9 91       		.byte	0x91
 9185 02aa 48       		.sleb128 -56
 9186 02ab 06       		.byte	0x6
 9187 02ac 38       		.byte	0x38
 9188 02ad 25       		.byte	0x25
 9189 02ae 08       		.byte	0x8
 9190 02af FF       		.byte	0xff
 9191 02b0 1A       		.byte	0x1a
 9192 02b1 23       		.byte	0x23
 9193 02b2 8004     		.uleb128 0x200
 9194 02b4 32       		.byte	0x32
 9195 02b5 24       		.byte	0x24
 9196 02b6 03       		.byte	0x3
 9197 02b7 00000000 		.4byte	.LANCHOR0
 9198 02bb 22       		.byte	0x22
 9199 02bc 06       		.byte	0x6
 9200 02bd 27       		.byte	0x27
 9201 02be 91       		.byte	0x91
 9202 02bf 54       		.sleb128 -44
 9203 02c0 06       		.byte	0x6
 9204 02c1 08       		.byte	0x8
 9205 02c2 FF       		.byte	0xff
 9206 02c3 1A       		.byte	0x1a
 9207 02c4 23       		.byte	0x23
 9208 02c5 8006     		.uleb128 0x300
 9209 02c7 32       		.byte	0x32
 9210 02c8 24       		.byte	0x24
 9211 02c9 03       		.byte	0x3
 9212 02ca 00000000 		.4byte	.LANCHOR0
 9213 02ce 22       		.byte	0x22
 9214 02cf 06       		.byte	0x6
 9215 02d0 27       		.byte	0x27
 9216 02d1 7D       		.byte	0x7d
 9217 02d2 00       		.sleb128 0
 9218 02d3 06       		.byte	0x6
 9219 02d4 3C       		.byte	0x3c
 9220 02d5 1C       		.byte	0x1c
 9221 02d6 06       		.byte	0x6
 9222 02d7 27       		.byte	0x27
 9223 02d8 9F       		.byte	0x9f
 9224 02d9 00000000 		.4byte	0
 9225 02dd 00000000 		.4byte	0
 9226              	.LLST5:
 9227 02e1 D2010000 		.4byte	.LVL36
 9228 02e5 D4010000 		.4byte	.LVL37
 9229 02e9 0100     		.2byte	0x1
 9230 02eb 53       		.byte	0x53
 9231 02ec D4010000 		.4byte	.LVL37
 9232 02f0 86030000 		.4byte	.LVL50
 9233 02f4 0100     		.2byte	0x1
 9234 02f6 59       		.byte	0x59
 9235 02f7 86030000 		.4byte	.LVL50
 9236 02fb BE030000 		.4byte	.LVL53
 9237 02ff 0100     		.2byte	0x1
 9238 0301 56       		.byte	0x56
ARM GAS  C:\Users\ddemidov\AppData\Local\Temp\ccTwWFqA.s 			page 214


 9239 0302 BE030000 		.4byte	.LVL53
 9240 0306 2A050000 		.4byte	.LVL80
 9241 030a 0300     		.2byte	0x3
 9242 030c 91       		.byte	0x91
 9243 030d BC7F     		.sleb128 -68
 9244 030f 00000000 		.4byte	0
 9245 0313 00000000 		.4byte	0
 9246              	.LLST6:
 9247 0317 0A020000 		.4byte	.LVL38
 9248 031b D6020000 		.4byte	.LVL41
 9249 031f 0100     		.2byte	0x1
 9250 0321 52       		.byte	0x52
 9251 0322 20030000 		.4byte	.LVL44
 9252 0326 28030000 		.4byte	.LVL46
 9253 032a 0100     		.2byte	0x1
 9254 032c 52       		.byte	0x52
 9255 032d 28030000 		.4byte	.LVL46
 9256 0331 74040000 		.4byte	.LVL54
 9257 0335 0100     		.2byte	0x1
 9258 0337 51       		.byte	0x51
 9259 0338 74040000 		.4byte	.LVL54
 9260 033c AA040000 		.4byte	.LVL57
 9261 0340 4700     		.2byte	0x47
 9262 0342 91       		.byte	0x91
 9263 0343 48       		.sleb128 -56
 9264 0344 06       		.byte	0x6
 9265 0345 48       		.byte	0x48
 9266 0346 25       		.byte	0x25
 9267 0347 32       		.byte	0x32
 9268 0348 24       		.byte	0x24
 9269 0349 75       		.byte	0x75
 9270 034a 00       		.sleb128 0
 9271 034b 22       		.byte	0x22
 9272 034c 06       		.byte	0x6
 9273 034d 91       		.byte	0x91
 9274 034e 54       		.sleb128 -44
 9275 034f 06       		.byte	0x6
 9276 0350 40       		.byte	0x40
 9277 0351 25       		.byte	0x25
 9278 0352 74       		.byte	0x74
 9279 0353 00       		.sleb128 0
 9280 0354 1A       		.byte	0x1a
 9281 0355 23       		.byte	0x23
 9282 0356 8002     		.uleb128 0x100
 9283 0358 32       		.byte	0x32
 9284 0359 24       		.byte	0x24
 9285 035a 75       		.byte	0x75
 9286 035b 00       		.sleb128 0
 9287 035c 22       		.byte	0x22
 9288 035d 06       		.byte	0x6
 9289 035e 27       		.byte	0x27
 9290 035f 91       		.byte	0x91
 9291 0360 50       		.sleb128 -48
 9292 0361 06       		.byte	0x6
 9293 0362 38       		.byte	0x38
 9294 0363 25       		.byte	0x25
 9295 0364 74       		.byte	0x74
ARM GAS  C:\Users\ddemidov\AppData\Local\Temp\ccTwWFqA.s 			page 215


 9296 0365 00       		.sleb128 0
 9297 0366 1A       		.byte	0x1a
 9298 0367 23       		.byte	0x23
 9299 0368 8004     		.uleb128 0x200
 9300 036a 32       		.byte	0x32
 9301 036b 24       		.byte	0x24
 9302 036c 75       		.byte	0x75
 9303 036d 00       		.sleb128 0
 9304 036e 22       		.byte	0x22
 9305 036f 06       		.byte	0x6
 9306 0370 27       		.byte	0x27
 9307 0371 91       		.byte	0x91
 9308 0372 4C       		.sleb128 -52
 9309 0373 06       		.byte	0x6
 9310 0374 74       		.byte	0x74
 9311 0375 00       		.sleb128 0
 9312 0376 1A       		.byte	0x1a
 9313 0377 23       		.byte	0x23
 9314 0378 8006     		.uleb128 0x300
 9315 037a 32       		.byte	0x32
 9316 037b 24       		.byte	0x24
 9317 037c 75       		.byte	0x75
 9318 037d 00       		.sleb128 0
 9319 037e 22       		.byte	0x22
 9320 037f 06       		.byte	0x6
 9321 0380 27       		.byte	0x27
 9322 0381 7D       		.byte	0x7d
 9323 0382 00       		.sleb128 0
 9324 0383 06       		.byte	0x6
 9325 0384 34       		.byte	0x34
 9326 0385 1C       		.byte	0x1c
 9327 0386 06       		.byte	0x6
 9328 0387 27       		.byte	0x27
 9329 0388 9F       		.byte	0x9f
 9330 0389 AA040000 		.4byte	.LVL57
 9331 038d B4040000 		.4byte	.LVL59
 9332 0391 4700     		.2byte	0x47
 9333 0393 91       		.byte	0x91
 9334 0394 48       		.sleb128 -56
 9335 0395 06       		.byte	0x6
 9336 0396 48       		.byte	0x48
 9337 0397 25       		.byte	0x25
 9338 0398 32       		.byte	0x32
 9339 0399 24       		.byte	0x24
 9340 039a 75       		.byte	0x75
 9341 039b 00       		.sleb128 0
 9342 039c 22       		.byte	0x22
 9343 039d 06       		.byte	0x6
 9344 039e 91       		.byte	0x91
 9345 039f 54       		.sleb128 -44
 9346 03a0 06       		.byte	0x6
 9347 03a1 40       		.byte	0x40
 9348 03a2 25       		.byte	0x25
 9349 03a3 08       		.byte	0x8
 9350 03a4 FF       		.byte	0xff
 9351 03a5 1A       		.byte	0x1a
 9352 03a6 23       		.byte	0x23
ARM GAS  C:\Users\ddemidov\AppData\Local\Temp\ccTwWFqA.s 			page 216


 9353 03a7 8002     		.uleb128 0x100
 9354 03a9 32       		.byte	0x32
 9355 03aa 24       		.byte	0x24
 9356 03ab 75       		.byte	0x75
 9357 03ac 00       		.sleb128 0
 9358 03ad 22       		.byte	0x22
 9359 03ae 06       		.byte	0x6
 9360 03af 27       		.byte	0x27
 9361 03b0 91       		.byte	0x91
 9362 03b1 50       		.sleb128 -48
 9363 03b2 06       		.byte	0x6
 9364 03b3 38       		.byte	0x38
 9365 03b4 25       		.byte	0x25
 9366 03b5 08       		.byte	0x8
 9367 03b6 FF       		.byte	0xff
 9368 03b7 1A       		.byte	0x1a
 9369 03b8 23       		.byte	0x23
 9370 03b9 8004     		.uleb128 0x200
 9371 03bb 32       		.byte	0x32
 9372 03bc 24       		.byte	0x24
 9373 03bd 75       		.byte	0x75
 9374 03be 00       		.sleb128 0
 9375 03bf 22       		.byte	0x22
 9376 03c0 06       		.byte	0x6
 9377 03c1 27       		.byte	0x27
 9378 03c2 91       		.byte	0x91
 9379 03c3 4C       		.sleb128 -52
 9380 03c4 06       		.byte	0x6
 9381 03c5 08       		.byte	0x8
 9382 03c6 FF       		.byte	0xff
 9383 03c7 1A       		.byte	0x1a
 9384 03c8 23       		.byte	0x23
 9385 03c9 8006     		.uleb128 0x300
 9386 03cb 32       		.byte	0x32
 9387 03cc 24       		.byte	0x24
 9388 03cd 75       		.byte	0x75
 9389 03ce 00       		.sleb128 0
 9390 03cf 22       		.byte	0x22
 9391 03d0 06       		.byte	0x6
 9392 03d1 27       		.byte	0x27
 9393 03d2 7D       		.byte	0x7d
 9394 03d3 00       		.sleb128 0
 9395 03d4 06       		.byte	0x6
 9396 03d5 34       		.byte	0x34
 9397 03d6 1C       		.byte	0x1c
 9398 03d7 06       		.byte	0x6
 9399 03d8 27       		.byte	0x27
 9400 03d9 9F       		.byte	0x9f
 9401 03da B4040000 		.4byte	.LVL59
 9402 03de C8040000 		.4byte	.LVL63
 9403 03e2 5300     		.2byte	0x53
 9404 03e4 91       		.byte	0x91
 9405 03e5 48       		.sleb128 -56
 9406 03e6 06       		.byte	0x6
 9407 03e7 48       		.byte	0x48
 9408 03e8 25       		.byte	0x25
 9409 03e9 32       		.byte	0x32
ARM GAS  C:\Users\ddemidov\AppData\Local\Temp\ccTwWFqA.s 			page 217


 9410 03ea 24       		.byte	0x24
 9411 03eb 03       		.byte	0x3
 9412 03ec 00000000 		.4byte	.LANCHOR0
 9413 03f0 22       		.byte	0x22
 9414 03f1 06       		.byte	0x6
 9415 03f2 91       		.byte	0x91
 9416 03f3 54       		.sleb128 -44
 9417 03f4 06       		.byte	0x6
 9418 03f5 40       		.byte	0x40
 9419 03f6 25       		.byte	0x25
 9420 03f7 08       		.byte	0x8
 9421 03f8 FF       		.byte	0xff
 9422 03f9 1A       		.byte	0x1a
 9423 03fa 23       		.byte	0x23
 9424 03fb 8002     		.uleb128 0x100
 9425 03fd 32       		.byte	0x32
 9426 03fe 24       		.byte	0x24
 9427 03ff 03       		.byte	0x3
 9428 0400 00000000 		.4byte	.LANCHOR0
 9429 0404 22       		.byte	0x22
 9430 0405 06       		.byte	0x6
 9431 0406 27       		.byte	0x27
 9432 0407 91       		.byte	0x91
 9433 0408 50       		.sleb128 -48
 9434 0409 06       		.byte	0x6
 9435 040a 38       		.byte	0x38
 9436 040b 25       		.byte	0x25
 9437 040c 08       		.byte	0x8
 9438 040d FF       		.byte	0xff
 9439 040e 1A       		.byte	0x1a
 9440 040f 23       		.byte	0x23
 9441 0410 8004     		.uleb128 0x200
 9442 0412 32       		.byte	0x32
 9443 0413 24       		.byte	0x24
 9444 0414 03       		.byte	0x3
 9445 0415 00000000 		.4byte	.LANCHOR0
 9446 0419 22       		.byte	0x22
 9447 041a 06       		.byte	0x6
 9448 041b 27       		.byte	0x27
 9449 041c 91       		.byte	0x91
 9450 041d 4C       		.sleb128 -52
 9451 041e 06       		.byte	0x6
 9452 041f 08       		.byte	0x8
 9453 0420 FF       		.byte	0xff
 9454 0421 1A       		.byte	0x1a
 9455 0422 23       		.byte	0x23
 9456 0423 8006     		.uleb128 0x300
 9457 0425 32       		.byte	0x32
 9458 0426 24       		.byte	0x24
 9459 0427 03       		.byte	0x3
 9460 0428 00000000 		.4byte	.LANCHOR0
 9461 042c 22       		.byte	0x22
 9462 042d 06       		.byte	0x6
 9463 042e 27       		.byte	0x27
 9464 042f 7D       		.byte	0x7d
 9465 0430 00       		.sleb128 0
 9466 0431 06       		.byte	0x6
ARM GAS  C:\Users\ddemidov\AppData\Local\Temp\ccTwWFqA.s 			page 218


 9467 0432 34       		.byte	0x34
 9468 0433 1C       		.byte	0x1c
 9469 0434 06       		.byte	0x6
 9470 0435 27       		.byte	0x27
 9471 0436 9F       		.byte	0x9f
 9472 0437 00000000 		.4byte	0
 9473 043b 00000000 		.4byte	0
 9474              	.LLST7:
 9475 043f 16000000 		.4byte	.LVL1
 9476 0443 1A000000 		.4byte	.LVL3
 9477 0447 0100     		.2byte	0x1
 9478 0449 53       		.byte	0x53
 9479 044a 1A000000 		.4byte	.LVL3
 9480 044e 20030000 		.4byte	.LVL44
 9481 0452 0100     		.2byte	0x1
 9482 0454 58       		.byte	0x58
 9483 0455 20030000 		.4byte	.LVL44
 9484 0459 2E030000 		.4byte	.LVL47
 9485 045d 0100     		.2byte	0x1
 9486 045f 53       		.byte	0x53
 9487 0460 2E030000 		.4byte	.LVL47
 9488 0464 4A030000 		.4byte	.LVL49
 9489 0468 0100     		.2byte	0x1
 9490 046a 58       		.byte	0x58
 9491 046b 00000000 		.4byte	0
 9492 046f 00000000 		.4byte	0
 9493              	.LLST8:
 9494 0473 18000000 		.4byte	.LVL2
 9495 0477 28000000 		.4byte	.LVL4
 9496 047b 0100     		.2byte	0x1
 9497 047d 50       		.byte	0x50
 9498 047e 28000000 		.4byte	.LVL4
 9499 0482 B2000000 		.4byte	.LVL32
 9500 0486 0100     		.2byte	0x1
 9501 0488 54       		.byte	0x54
 9502 0489 B2000000 		.4byte	.LVL32
 9503 048d 24030000 		.4byte	.LVL45
 9504 0491 0100     		.2byte	0x1
 9505 0493 56       		.byte	0x56
 9506 0494 24030000 		.4byte	.LVL45
 9507 0498 AC030000 		.4byte	.LVL52
 9508 049c 0100     		.2byte	0x1
 9509 049e 5B       		.byte	0x5b
 9510 049f AC030000 		.4byte	.LVL52
 9511 04a3 2C050000 		.4byte	.LVL81
 9512 04a7 0200     		.2byte	0x2
 9513 04a9 7D       		.byte	0x7d
 9514 04aa 00       		.sleb128 0
 9515 04ab 2C050000 		.4byte	.LVL81
 9516 04af 44050000 		.4byte	.LFE12
 9517 04b3 0300     		.2byte	0x3
 9518 04b5 91       		.byte	0x91
 9519 04b6 B87F     		.sleb128 -72
 9520 04b8 00000000 		.4byte	0
 9521 04bc 00000000 		.4byte	0
 9522              	.LLST9:
 9523 04c0 52000000 		.4byte	.LVL10
ARM GAS  C:\Users\ddemidov\AppData\Local\Temp\ccTwWFqA.s 			page 219


 9524 04c4 60000000 		.4byte	.LVL12
 9525 04c8 0100     		.2byte	0x1
 9526 04ca 52       		.byte	0x52
 9527 04cb 60000000 		.4byte	.LVL12
 9528 04cf 64000000 		.4byte	.LVL13
 9529 04d3 0200     		.2byte	0x2
 9530 04d5 91       		.byte	0x91
 9531 04d6 54       		.sleb128 -44
 9532 04d7 64000000 		.4byte	.LVL13
 9533 04db 68000000 		.4byte	.LVL14
 9534 04df 0100     		.2byte	0x1
 9535 04e1 55       		.byte	0x55
 9536 04e2 68000000 		.4byte	.LVL14
 9537 04e6 6A000000 		.4byte	.LVL15
 9538 04ea 0C00     		.2byte	0xc
 9539 04ec 7C       		.byte	0x7c
 9540 04ed 00       		.sleb128 0
 9541 04ee 91       		.byte	0x91
 9542 04ef 54       		.sleb128 -44
 9543 04f0 06       		.byte	0x6
 9544 04f1 1A       		.byte	0x1a
 9545 04f2 38       		.byte	0x38
 9546 04f3 25       		.byte	0x25
 9547 04f4 72       		.byte	0x72
 9548 04f5 00       		.sleb128 0
 9549 04f6 21       		.byte	0x21
 9550 04f7 9F       		.byte	0x9f
 9551 04f8 6A000000 		.4byte	.LVL15
 9552 04fc 92000000 		.4byte	.LVL24
 9553 0500 1200     		.2byte	0x12
 9554 0502 7C       		.byte	0x7c
 9555 0503 00       		.sleb128 0
 9556 0504 91       		.byte	0x91
 9557 0505 54       		.sleb128 -44
 9558 0506 06       		.byte	0x6
 9559 0507 1A       		.byte	0x1a
 9560 0508 38       		.byte	0x38
 9561 0509 25       		.byte	0x25
 9562 050a 91       		.byte	0x91
 9563 050b 54       		.sleb128 -44
 9564 050c 06       		.byte	0x6
 9565 050d 73       		.byte	0x73
 9566 050e 00       		.sleb128 0
 9567 050f 1A       		.byte	0x1a
 9568 0510 38       		.byte	0x38
 9569 0511 24       		.byte	0x24
 9570 0512 21       		.byte	0x21
 9571 0513 9F       		.byte	0x9f
 9572 0514 92000000 		.4byte	.LVL24
 9573 0518 9E000000 		.4byte	.LVL28
 9574 051c 1500     		.2byte	0x15
 9575 051e 7C       		.byte	0x7c
 9576 051f 00       		.sleb128 0
 9577 0520 91       		.byte	0x91
 9578 0521 54       		.sleb128 -44
 9579 0522 06       		.byte	0x6
 9580 0523 1A       		.byte	0x1a
ARM GAS  C:\Users\ddemidov\AppData\Local\Temp\ccTwWFqA.s 			page 220


 9581 0524 38       		.byte	0x38
 9582 0525 25       		.byte	0x25
 9583 0526 91       		.byte	0x91
 9584 0527 54       		.sleb128 -44
 9585 0528 06       		.byte	0x6
 9586 0529 0C       		.byte	0xc
 9587 052a FF00FF00 		.4byte	0xff00ff
 9588 052e 1A       		.byte	0x1a
 9589 052f 38       		.byte	0x38
 9590 0530 24       		.byte	0x24
 9591 0531 21       		.byte	0x21
 9592 0532 9F       		.byte	0x9f
 9593 0533 00000000 		.4byte	0
 9594 0537 00000000 		.4byte	0
 9595              	.LLST10:
 9596 053b 64000000 		.4byte	.LVL13
 9597 053f 2A050000 		.4byte	.LVL80
 9598 0543 0200     		.2byte	0x2
 9599 0545 40       		.byte	0x40
 9600 0546 9F       		.byte	0x9f
 9601 0547 00000000 		.4byte	0
 9602 054b 00000000 		.4byte	0
 9603              	.LLST11:
 9604 054f 64000000 		.4byte	.LVL13
 9605 0553 68000000 		.4byte	.LVL14
 9606 0557 0100     		.2byte	0x1
 9607 0559 55       		.byte	0x55
 9608 055a 68000000 		.4byte	.LVL14
 9609 055e 6A000000 		.4byte	.LVL15
 9610 0562 0C00     		.2byte	0xc
 9611 0564 7C       		.byte	0x7c
 9612 0565 00       		.sleb128 0
 9613 0566 91       		.byte	0x91
 9614 0567 54       		.sleb128 -44
 9615 0568 06       		.byte	0x6
 9616 0569 1A       		.byte	0x1a
 9617 056a 38       		.byte	0x38
 9618 056b 25       		.byte	0x25
 9619 056c 72       		.byte	0x72
 9620 056d 00       		.sleb128 0
 9621 056e 21       		.byte	0x21
 9622 056f 9F       		.byte	0x9f
 9623 0570 6A000000 		.4byte	.LVL15
 9624 0574 92000000 		.4byte	.LVL24
 9625 0578 1200     		.2byte	0x12
 9626 057a 7C       		.byte	0x7c
 9627 057b 00       		.sleb128 0
 9628 057c 91       		.byte	0x91
 9629 057d 54       		.sleb128 -44
 9630 057e 06       		.byte	0x6
 9631 057f 1A       		.byte	0x1a
 9632 0580 38       		.byte	0x38
 9633 0581 25       		.byte	0x25
 9634 0582 91       		.byte	0x91
 9635 0583 54       		.sleb128 -44
 9636 0584 06       		.byte	0x6
 9637 0585 73       		.byte	0x73
ARM GAS  C:\Users\ddemidov\AppData\Local\Temp\ccTwWFqA.s 			page 221


 9638 0586 00       		.sleb128 0
 9639 0587 1A       		.byte	0x1a
 9640 0588 38       		.byte	0x38
 9641 0589 24       		.byte	0x24
 9642 058a 21       		.byte	0x21
 9643 058b 9F       		.byte	0x9f
 9644 058c 92000000 		.4byte	.LVL24
 9645 0590 9E000000 		.4byte	.LVL28
 9646 0594 1500     		.2byte	0x15
 9647 0596 7C       		.byte	0x7c
 9648 0597 00       		.sleb128 0
 9649 0598 91       		.byte	0x91
 9650 0599 54       		.sleb128 -44
 9651 059a 06       		.byte	0x6
 9652 059b 1A       		.byte	0x1a
 9653 059c 38       		.byte	0x38
 9654 059d 25       		.byte	0x25
 9655 059e 91       		.byte	0x91
 9656 059f 54       		.sleb128 -44
 9657 05a0 06       		.byte	0x6
 9658 05a1 0C       		.byte	0xc
 9659 05a2 FF00FF00 		.4byte	0xff00ff
 9660 05a6 1A       		.byte	0x1a
 9661 05a7 38       		.byte	0x38
 9662 05a8 24       		.byte	0x24
 9663 05a9 21       		.byte	0x21
 9664 05aa 9F       		.byte	0x9f
 9665 05ab 00000000 		.4byte	0
 9666 05af 00000000 		.4byte	0
 9667              	.LLST12:
 9668 05b3 6A000000 		.4byte	.LVL15
 9669 05b7 72000000 		.4byte	.LVL16
 9670 05bb 0100     		.2byte	0x1
 9671 05bd 52       		.byte	0x52
 9672 05be 72000000 		.4byte	.LVL16
 9673 05c2 76000000 		.4byte	.LVL17
 9674 05c6 0200     		.2byte	0x2
 9675 05c8 91       		.byte	0x91
 9676 05c9 50       		.sleb128 -48
 9677 05ca 76000000 		.4byte	.LVL17
 9678 05ce 78000000 		.4byte	.LVL18
 9679 05d2 0100     		.2byte	0x1
 9680 05d4 51       		.byte	0x51
 9681 05d5 78000000 		.4byte	.LVL18
 9682 05d9 7A000000 		.4byte	.LVL19
 9683 05dd 0C00     		.2byte	0xc
 9684 05df 7C       		.byte	0x7c
 9685 05e0 00       		.sleb128 0
 9686 05e1 91       		.byte	0x91
 9687 05e2 50       		.sleb128 -48
 9688 05e3 06       		.byte	0x6
 9689 05e4 1A       		.byte	0x1a
 9690 05e5 38       		.byte	0x38
 9691 05e6 25       		.byte	0x25
 9692 05e7 72       		.byte	0x72
 9693 05e8 00       		.sleb128 0
 9694 05e9 21       		.byte	0x21
ARM GAS  C:\Users\ddemidov\AppData\Local\Temp\ccTwWFqA.s 			page 222


 9695 05ea 9F       		.byte	0x9f
 9696 05eb 7A000000 		.4byte	.LVL19
 9697 05ef 92000000 		.4byte	.LVL24
 9698 05f3 1200     		.2byte	0x12
 9699 05f5 7C       		.byte	0x7c
 9700 05f6 00       		.sleb128 0
 9701 05f7 91       		.byte	0x91
 9702 05f8 50       		.sleb128 -48
 9703 05f9 06       		.byte	0x6
 9704 05fa 1A       		.byte	0x1a
 9705 05fb 38       		.byte	0x38
 9706 05fc 25       		.byte	0x25
 9707 05fd 91       		.byte	0x91
 9708 05fe 50       		.sleb128 -48
 9709 05ff 06       		.byte	0x6
 9710 0600 73       		.byte	0x73
 9711 0601 00       		.sleb128 0
 9712 0602 1A       		.byte	0x1a
 9713 0603 38       		.byte	0x38
 9714 0604 24       		.byte	0x24
 9715 0605 21       		.byte	0x21
 9716 0606 9F       		.byte	0x9f
 9717 0607 92000000 		.4byte	.LVL24
 9718 060b A4000000 		.4byte	.LVL29
 9719 060f 1500     		.2byte	0x15
 9720 0611 7C       		.byte	0x7c
 9721 0612 00       		.sleb128 0
 9722 0613 91       		.byte	0x91
 9723 0614 50       		.sleb128 -48
 9724 0615 06       		.byte	0x6
 9725 0616 1A       		.byte	0x1a
 9726 0617 38       		.byte	0x38
 9727 0618 25       		.byte	0x25
 9728 0619 91       		.byte	0x91
 9729 061a 50       		.sleb128 -48
 9730 061b 06       		.byte	0x6
 9731 061c 0C       		.byte	0xc
 9732 061d FF00FF00 		.4byte	0xff00ff
 9733 0621 1A       		.byte	0x1a
 9734 0622 38       		.byte	0x38
 9735 0623 24       		.byte	0x24
 9736 0624 21       		.byte	0x21
 9737 0625 9F       		.byte	0x9f
 9738 0626 00000000 		.4byte	0
 9739 062a 00000000 		.4byte	0
 9740              	.LLST13:
 9741 062e 76000000 		.4byte	.LVL17
 9742 0632 2A050000 		.4byte	.LVL80
 9743 0636 0200     		.2byte	0x2
 9744 0638 40       		.byte	0x40
 9745 0639 9F       		.byte	0x9f
 9746 063a 00000000 		.4byte	0
 9747 063e 00000000 		.4byte	0
 9748              	.LLST14:
 9749 0642 76000000 		.4byte	.LVL17
 9750 0646 78000000 		.4byte	.LVL18
 9751 064a 0100     		.2byte	0x1
ARM GAS  C:\Users\ddemidov\AppData\Local\Temp\ccTwWFqA.s 			page 223


 9752 064c 51       		.byte	0x51
 9753 064d 78000000 		.4byte	.LVL18
 9754 0651 7A000000 		.4byte	.LVL19
 9755 0655 0C00     		.2byte	0xc
 9756 0657 7C       		.byte	0x7c
 9757 0658 00       		.sleb128 0
 9758 0659 91       		.byte	0x91
 9759 065a 50       		.sleb128 -48
 9760 065b 06       		.byte	0x6
 9761 065c 1A       		.byte	0x1a
 9762 065d 38       		.byte	0x38
 9763 065e 25       		.byte	0x25
 9764 065f 72       		.byte	0x72
 9765 0660 00       		.sleb128 0
 9766 0661 21       		.byte	0x21
 9767 0662 9F       		.byte	0x9f
 9768 0663 7A000000 		.4byte	.LVL19
 9769 0667 92000000 		.4byte	.LVL24
 9770 066b 1200     		.2byte	0x12
 9771 066d 7C       		.byte	0x7c
 9772 066e 00       		.sleb128 0
 9773 066f 91       		.byte	0x91
 9774 0670 50       		.sleb128 -48
 9775 0671 06       		.byte	0x6
 9776 0672 1A       		.byte	0x1a
 9777 0673 38       		.byte	0x38
 9778 0674 25       		.byte	0x25
 9779 0675 91       		.byte	0x91
 9780 0676 50       		.sleb128 -48
 9781 0677 06       		.byte	0x6
 9782 0678 73       		.byte	0x73
 9783 0679 00       		.sleb128 0
 9784 067a 1A       		.byte	0x1a
 9785 067b 38       		.byte	0x38
 9786 067c 24       		.byte	0x24
 9787 067d 21       		.byte	0x21
 9788 067e 9F       		.byte	0x9f
 9789 067f 92000000 		.4byte	.LVL24
 9790 0683 A4000000 		.4byte	.LVL29
 9791 0687 1500     		.2byte	0x15
 9792 0689 7C       		.byte	0x7c
 9793 068a 00       		.sleb128 0
 9794 068b 91       		.byte	0x91
 9795 068c 50       		.sleb128 -48
 9796 068d 06       		.byte	0x6
 9797 068e 1A       		.byte	0x1a
 9798 068f 38       		.byte	0x38
 9799 0690 25       		.byte	0x25
 9800 0691 91       		.byte	0x91
 9801 0692 50       		.sleb128 -48
 9802 0693 06       		.byte	0x6
 9803 0694 0C       		.byte	0xc
 9804 0695 FF00FF00 		.4byte	0xff00ff
 9805 0699 1A       		.byte	0x1a
 9806 069a 38       		.byte	0x38
 9807 069b 24       		.byte	0x24
 9808 069c 21       		.byte	0x21
ARM GAS  C:\Users\ddemidov\AppData\Local\Temp\ccTwWFqA.s 			page 224


 9809 069d 9F       		.byte	0x9f
 9810 069e 00000000 		.4byte	0
 9811 06a2 00000000 		.4byte	0
 9812              	.LLST15:
 9813 06a6 7A000000 		.4byte	.LVL19
 9814 06aa 82000000 		.4byte	.LVL20
 9815 06ae 0100     		.2byte	0x1
 9816 06b0 52       		.byte	0x52
 9817 06b1 82000000 		.4byte	.LVL20
 9818 06b5 86000000 		.4byte	.LVL21
 9819 06b9 0200     		.2byte	0x2
 9820 06bb 91       		.byte	0x91
 9821 06bc 4C       		.sleb128 -52
 9822 06bd 86000000 		.4byte	.LVL21
 9823 06c1 88000000 		.4byte	.LVL22
 9824 06c5 0100     		.2byte	0x1
 9825 06c7 52       		.byte	0x52
 9826 06c8 88000000 		.4byte	.LVL22
 9827 06cc 8A000000 		.4byte	.LVL23
 9828 06d0 0C00     		.2byte	0xc
 9829 06d2 91       		.byte	0x91
 9830 06d3 4C       		.sleb128 -52
 9831 06d4 06       		.byte	0x6
 9832 06d5 73       		.byte	0x73
 9833 06d6 00       		.sleb128 0
 9834 06d7 1A       		.byte	0x1a
 9835 06d8 38       		.byte	0x38
 9836 06d9 24       		.byte	0x24
 9837 06da 70       		.byte	0x70
 9838 06db 00       		.sleb128 0
 9839 06dc 21       		.byte	0x21
 9840 06dd 9F       		.byte	0x9f
 9841 06de 8A000000 		.4byte	.LVL23
 9842 06e2 92000000 		.4byte	.LVL24
 9843 06e6 1200     		.2byte	0x12
 9844 06e8 91       		.byte	0x91
 9845 06e9 4C       		.sleb128 -52
 9846 06ea 06       		.byte	0x6
 9847 06eb 73       		.byte	0x73
 9848 06ec 00       		.sleb128 0
 9849 06ed 1A       		.byte	0x1a
 9850 06ee 38       		.byte	0x38
 9851 06ef 24       		.byte	0x24
 9852 06f0 7C       		.byte	0x7c
 9853 06f1 00       		.sleb128 0
 9854 06f2 91       		.byte	0x91
 9855 06f3 4C       		.sleb128 -52
 9856 06f4 06       		.byte	0x6
 9857 06f5 1A       		.byte	0x1a
 9858 06f6 38       		.byte	0x38
 9859 06f7 25       		.byte	0x25
 9860 06f8 21       		.byte	0x21
 9861 06f9 9F       		.byte	0x9f
 9862 06fa 92000000 		.4byte	.LVL24
 9863 06fe AA000000 		.4byte	.LVL30
 9864 0702 1500     		.2byte	0x15
 9865 0704 91       		.byte	0x91
ARM GAS  C:\Users\ddemidov\AppData\Local\Temp\ccTwWFqA.s 			page 225


 9866 0705 4C       		.sleb128 -52
 9867 0706 06       		.byte	0x6
 9868 0707 0C       		.byte	0xc
 9869 0708 FF00FF00 		.4byte	0xff00ff
 9870 070c 1A       		.byte	0x1a
 9871 070d 38       		.byte	0x38
 9872 070e 24       		.byte	0x24
 9873 070f 7C       		.byte	0x7c
 9874 0710 00       		.sleb128 0
 9875 0711 91       		.byte	0x91
 9876 0712 4C       		.sleb128 -52
 9877 0713 06       		.byte	0x6
 9878 0714 1A       		.byte	0x1a
 9879 0715 38       		.byte	0x38
 9880 0716 25       		.byte	0x25
 9881 0717 21       		.byte	0x21
 9882 0718 9F       		.byte	0x9f
 9883 0719 00000000 		.4byte	0
 9884 071d 00000000 		.4byte	0
 9885              	.LLST16:
 9886 0721 86000000 		.4byte	.LVL21
 9887 0725 2A050000 		.4byte	.LVL80
 9888 0729 0200     		.2byte	0x2
 9889 072b 40       		.byte	0x40
 9890 072c 9F       		.byte	0x9f
 9891 072d 00000000 		.4byte	0
 9892 0731 00000000 		.4byte	0
 9893              	.LLST17:
 9894 0735 86000000 		.4byte	.LVL21
 9895 0739 88000000 		.4byte	.LVL22
 9896 073d 0100     		.2byte	0x1
 9897 073f 52       		.byte	0x52
 9898 0740 88000000 		.4byte	.LVL22
 9899 0744 8A000000 		.4byte	.LVL23
 9900 0748 0C00     		.2byte	0xc
 9901 074a 91       		.byte	0x91
 9902 074b 4C       		.sleb128 -52
 9903 074c 06       		.byte	0x6
 9904 074d 73       		.byte	0x73
 9905 074e 00       		.sleb128 0
 9906 074f 1A       		.byte	0x1a
 9907 0750 38       		.byte	0x38
 9908 0751 24       		.byte	0x24
 9909 0752 70       		.byte	0x70
 9910 0753 00       		.sleb128 0
 9911 0754 21       		.byte	0x21
 9912 0755 9F       		.byte	0x9f
 9913 0756 8A000000 		.4byte	.LVL23
 9914 075a 92000000 		.4byte	.LVL24
 9915 075e 1200     		.2byte	0x12
 9916 0760 91       		.byte	0x91
 9917 0761 4C       		.sleb128 -52
 9918 0762 06       		.byte	0x6
 9919 0763 73       		.byte	0x73
 9920 0764 00       		.sleb128 0
 9921 0765 1A       		.byte	0x1a
 9922 0766 38       		.byte	0x38
ARM GAS  C:\Users\ddemidov\AppData\Local\Temp\ccTwWFqA.s 			page 226


 9923 0767 24       		.byte	0x24
 9924 0768 7C       		.byte	0x7c
 9925 0769 00       		.sleb128 0
 9926 076a 91       		.byte	0x91
 9927 076b 4C       		.sleb128 -52
 9928 076c 06       		.byte	0x6
 9929 076d 1A       		.byte	0x1a
 9930 076e 38       		.byte	0x38
 9931 076f 25       		.byte	0x25
 9932 0770 21       		.byte	0x21
 9933 0771 9F       		.byte	0x9f
 9934 0772 92000000 		.4byte	.LVL24
 9935 0776 AA000000 		.4byte	.LVL30
 9936 077a 1500     		.2byte	0x15
 9937 077c 91       		.byte	0x91
 9938 077d 4C       		.sleb128 -52
 9939 077e 06       		.byte	0x6
 9940 077f 0C       		.byte	0xc
 9941 0780 FF00FF00 		.4byte	0xff00ff
 9942 0784 1A       		.byte	0x1a
 9943 0785 38       		.byte	0x38
 9944 0786 24       		.byte	0x24
 9945 0787 7C       		.byte	0x7c
 9946 0788 00       		.sleb128 0
 9947 0789 91       		.byte	0x91
 9948 078a 4C       		.sleb128 -52
 9949 078b 06       		.byte	0x6
 9950 078c 1A       		.byte	0x1a
 9951 078d 38       		.byte	0x38
 9952 078e 25       		.byte	0x25
 9953 078f 21       		.byte	0x21
 9954 0790 9F       		.byte	0x9f
 9955 0791 00000000 		.4byte	0
 9956 0795 00000000 		.4byte	0
 9957              	.LLST18:
 9958 0799 88000000 		.4byte	.LVL22
 9959 079d 96000000 		.4byte	.LVL25
 9960 07a1 0200     		.2byte	0x2
 9961 07a3 91       		.byte	0x91
 9962 07a4 48       		.sleb128 -56
 9963 07a5 96000000 		.4byte	.LVL25
 9964 07a9 98000000 		.4byte	.LVL26
 9965 07ad 0100     		.2byte	0x1
 9966 07af 53       		.byte	0x53
 9967 07b0 98000000 		.4byte	.LVL26
 9968 07b4 9A000000 		.4byte	.LVL27
 9969 07b8 0F00     		.2byte	0xf
 9970 07ba 91       		.byte	0x91
 9971 07bb 48       		.sleb128 -56
 9972 07bc 06       		.byte	0x6
 9973 07bd 0C       		.byte	0xc
 9974 07be FF00FF00 		.4byte	0xff00ff
 9975 07c2 1A       		.byte	0x1a
 9976 07c3 38       		.byte	0x38
 9977 07c4 24       		.byte	0x24
 9978 07c5 70       		.byte	0x70
 9979 07c6 00       		.sleb128 0
ARM GAS  C:\Users\ddemidov\AppData\Local\Temp\ccTwWFqA.s 			page 227


 9980 07c7 21       		.byte	0x21
 9981 07c8 9F       		.byte	0x9f
 9982 07c9 9A000000 		.4byte	.LVL27
 9983 07cd B0000000 		.4byte	.LVL31
 9984 07d1 1500     		.2byte	0x15
 9985 07d3 91       		.byte	0x91
 9986 07d4 48       		.sleb128 -56
 9987 07d5 06       		.byte	0x6
 9988 07d6 0C       		.byte	0xc
 9989 07d7 FF00FF00 		.4byte	0xff00ff
 9990 07db 1A       		.byte	0x1a
 9991 07dc 38       		.byte	0x38
 9992 07dd 24       		.byte	0x24
 9993 07de 7C       		.byte	0x7c
 9994 07df 00       		.sleb128 0
 9995 07e0 91       		.byte	0x91
 9996 07e1 48       		.sleb128 -56
 9997 07e2 06       		.byte	0x6
 9998 07e3 1A       		.byte	0x1a
 9999 07e4 38       		.byte	0x38
 10000 07e5 25       		.byte	0x25
 10001 07e6 21       		.byte	0x21
 10002 07e7 9F       		.byte	0x9f
 10003 07e8 B0000000 		.4byte	.LVL31
 10004 07ec B2000000 		.4byte	.LVL32
 10005 07f0 1300     		.2byte	0x13
 10006 07f2 76       		.byte	0x76
 10007 07f3 00       		.sleb128 0
 10008 07f4 0C       		.byte	0xc
 10009 07f5 FF00FF00 		.4byte	0xff00ff
 10010 07f9 1A       		.byte	0x1a
 10011 07fa 38       		.byte	0x38
 10012 07fb 24       		.byte	0x24
 10013 07fc 7C       		.byte	0x7c
 10014 07fd 00       		.sleb128 0
 10015 07fe 76       		.byte	0x76
 10016 07ff 00       		.sleb128 0
 10017 0800 1A       		.byte	0x1a
 10018 0801 38       		.byte	0x38
 10019 0802 25       		.byte	0x25
 10020 0803 21       		.byte	0x21
 10021 0804 9F       		.byte	0x9f
 10022 0805 00000000 		.4byte	0
 10023 0809 00000000 		.4byte	0
 10024              	.LLST19:
 10025 080d 96000000 		.4byte	.LVL25
 10026 0811 2A050000 		.4byte	.LVL80
 10027 0815 0200     		.2byte	0x2
 10028 0817 40       		.byte	0x40
 10029 0818 9F       		.byte	0x9f
 10030 0819 00000000 		.4byte	0
 10031 081d 00000000 		.4byte	0
 10032              	.LLST20:
 10033 0821 96000000 		.4byte	.LVL25
 10034 0825 98000000 		.4byte	.LVL26
 10035 0829 0100     		.2byte	0x1
 10036 082b 53       		.byte	0x53
ARM GAS  C:\Users\ddemidov\AppData\Local\Temp\ccTwWFqA.s 			page 228


 10037 082c 98000000 		.4byte	.LVL26
 10038 0830 9A000000 		.4byte	.LVL27
 10039 0834 0F00     		.2byte	0xf
 10040 0836 91       		.byte	0x91
 10041 0837 48       		.sleb128 -56
 10042 0838 06       		.byte	0x6
 10043 0839 0C       		.byte	0xc
 10044 083a FF00FF00 		.4byte	0xff00ff
 10045 083e 1A       		.byte	0x1a
 10046 083f 38       		.byte	0x38
 10047 0840 24       		.byte	0x24
 10048 0841 70       		.byte	0x70
 10049 0842 00       		.sleb128 0
 10050 0843 21       		.byte	0x21
 10051 0844 9F       		.byte	0x9f
 10052 0845 9A000000 		.4byte	.LVL27
 10053 0849 B0000000 		.4byte	.LVL31
 10054 084d 1500     		.2byte	0x15
 10055 084f 91       		.byte	0x91
 10056 0850 48       		.sleb128 -56
 10057 0851 06       		.byte	0x6
 10058 0852 0C       		.byte	0xc
 10059 0853 FF00FF00 		.4byte	0xff00ff
 10060 0857 1A       		.byte	0x1a
 10061 0858 38       		.byte	0x38
 10062 0859 24       		.byte	0x24
 10063 085a 7C       		.byte	0x7c
 10064 085b 00       		.sleb128 0
 10065 085c 91       		.byte	0x91
 10066 085d 48       		.sleb128 -56
 10067 085e 06       		.byte	0x6
 10068 085f 1A       		.byte	0x1a
 10069 0860 38       		.byte	0x38
 10070 0861 25       		.byte	0x25
 10071 0862 21       		.byte	0x21
 10072 0863 9F       		.byte	0x9f
 10073 0864 B0000000 		.4byte	.LVL31
 10074 0868 B2000000 		.4byte	.LVL32
 10075 086c 1300     		.2byte	0x13
 10076 086e 76       		.byte	0x76
 10077 086f 00       		.sleb128 0
 10078 0870 0C       		.byte	0xc
 10079 0871 FF00FF00 		.4byte	0xff00ff
 10080 0875 1A       		.byte	0x1a
 10081 0876 38       		.byte	0x38
 10082 0877 24       		.byte	0x24
 10083 0878 7C       		.byte	0x7c
 10084 0879 00       		.sleb128 0
 10085 087a 76       		.byte	0x76
 10086 087b 00       		.sleb128 0
 10087 087c 1A       		.byte	0x1a
 10088 087d 38       		.byte	0x38
 10089 087e 25       		.byte	0x25
 10090 087f 21       		.byte	0x21
 10091 0880 9F       		.byte	0x9f
 10092 0881 00000000 		.4byte	0
 10093 0885 00000000 		.4byte	0
ARM GAS  C:\Users\ddemidov\AppData\Local\Temp\ccTwWFqA.s 			page 229


 10094              	.LLST21:
 10095 0889 B2040000 		.4byte	.LVL58
 10096 088d BE040000 		.4byte	.LVL60
 10097 0891 0100     		.2byte	0x1
 10098 0893 57       		.byte	0x57
 10099 0894 C2040000 		.4byte	.LVL61
 10100 0898 C6040000 		.4byte	.LVL62
 10101 089c 0100     		.2byte	0x1
 10102 089e 57       		.byte	0x57
 10103 089f 00000000 		.4byte	0
 10104 08a3 00000000 		.4byte	0
 10105              	.LLST22:
 10106 08a7 C2040000 		.4byte	.LVL61
 10107 08ab 2A050000 		.4byte	.LVL80
 10108 08af 0200     		.2byte	0x2
 10109 08b1 40       		.byte	0x40
 10110 08b2 9F       		.byte	0x9f
 10111 08b3 00000000 		.4byte	0
 10112 08b7 00000000 		.4byte	0
 10113              	.LLST23:
 10114 08bb C2040000 		.4byte	.LVL61
 10115 08bf C6040000 		.4byte	.LVL62
 10116 08c3 0100     		.2byte	0x1
 10117 08c5 57       		.byte	0x57
 10118 08c6 00000000 		.4byte	0
 10119 08ca 00000000 		.4byte	0
 10120              	.LLST24:
 10121 08ce C8040000 		.4byte	.LVL63
 10122 08d2 D8040000 		.4byte	.LVL64
 10123 08d6 0200     		.2byte	0x2
 10124 08d8 91       		.byte	0x91
 10125 08d9 40       		.sleb128 -64
 10126 08da D8040000 		.4byte	.LVL64
 10127 08de DA040000 		.4byte	.LVL65
 10128 08e2 0100     		.2byte	0x1
 10129 08e4 52       		.byte	0x52
 10130 08e5 DA040000 		.4byte	.LVL65
 10131 08e9 E2040000 		.4byte	.LVL67
 10132 08ed 0C00     		.2byte	0xc
 10133 08ef 91       		.byte	0x91
 10134 08f0 40       		.sleb128 -64
 10135 08f1 06       		.byte	0x6
 10136 08f2 73       		.byte	0x73
 10137 08f3 00       		.sleb128 0
 10138 08f4 1A       		.byte	0x1a
 10139 08f5 38       		.byte	0x38
 10140 08f6 24       		.byte	0x24
 10141 08f7 74       		.byte	0x74
 10142 08f8 00       		.sleb128 0
 10143 08f9 21       		.byte	0x21
 10144 08fa 9F       		.byte	0x9f
 10145 08fb E2040000 		.4byte	.LVL67
 10146 08ff F0040000 		.4byte	.LVL71
 10147 0903 1200     		.2byte	0x12
 10148 0905 91       		.byte	0x91
 10149 0906 40       		.sleb128 -64
 10150 0907 06       		.byte	0x6
ARM GAS  C:\Users\ddemidov\AppData\Local\Temp\ccTwWFqA.s 			page 230


 10151 0908 73       		.byte	0x73
 10152 0909 00       		.sleb128 0
 10153 090a 1A       		.byte	0x1a
 10154 090b 38       		.byte	0x38
 10155 090c 24       		.byte	0x24
 10156 090d 91       		.byte	0x91
 10157 090e 40       		.sleb128 -64
 10158 090f 06       		.byte	0x6
 10159 0910 75       		.byte	0x75
 10160 0911 00       		.sleb128 0
 10161 0912 1A       		.byte	0x1a
 10162 0913 38       		.byte	0x38
 10163 0914 25       		.byte	0x25
 10164 0915 21       		.byte	0x21
 10165 0916 9F       		.byte	0x9f
 10166 0917 F0040000 		.4byte	.LVL71
 10167 091b F4040000 		.4byte	.LVL72
 10168 091f 1500     		.2byte	0x15
 10169 0921 91       		.byte	0x91
 10170 0922 40       		.sleb128 -64
 10171 0923 06       		.byte	0x6
 10172 0924 73       		.byte	0x73
 10173 0925 00       		.sleb128 0
 10174 0926 1A       		.byte	0x1a
 10175 0927 38       		.byte	0x38
 10176 0928 24       		.byte	0x24
 10177 0929 91       		.byte	0x91
 10178 092a 40       		.sleb128 -64
 10179 092b 06       		.byte	0x6
 10180 092c 11       		.byte	0x11
 10181 092d 80FE8378 		.sleb128 -16711936
 10182 0931 1A       		.byte	0x1a
 10183 0932 38       		.byte	0x38
 10184 0933 25       		.byte	0x25
 10185 0934 21       		.byte	0x21
 10186 0935 9F       		.byte	0x9f
 10187 0936 F4040000 		.4byte	.LVL72
 10188 093a 2A050000 		.4byte	.LVL80
 10189 093e 1800     		.2byte	0x18
 10190 0940 91       		.byte	0x91
 10191 0941 40       		.sleb128 -64
 10192 0942 06       		.byte	0x6
 10193 0943 0C       		.byte	0xc
 10194 0944 FF00FF00 		.4byte	0xff00ff
 10195 0948 1A       		.byte	0x1a
 10196 0949 38       		.byte	0x38
 10197 094a 24       		.byte	0x24
 10198 094b 91       		.byte	0x91
 10199 094c 40       		.sleb128 -64
 10200 094d 06       		.byte	0x6
 10201 094e 11       		.byte	0x11
 10202 094f 80FE8378 		.sleb128 -16711936
 10203 0953 1A       		.byte	0x1a
 10204 0954 38       		.byte	0x38
 10205 0955 25       		.byte	0x25
 10206 0956 21       		.byte	0x21
 10207 0957 9F       		.byte	0x9f
ARM GAS  C:\Users\ddemidov\AppData\Local\Temp\ccTwWFqA.s 			page 231


 10208 0958 00000000 		.4byte	0
 10209 095c 00000000 		.4byte	0
 10210              	.LLST25:
 10211 0960 D8040000 		.4byte	.LVL64
 10212 0964 2A050000 		.4byte	.LVL80
 10213 0968 0200     		.2byte	0x2
 10214 096a 40       		.byte	0x40
 10215 096b 9F       		.byte	0x9f
 10216 096c 00000000 		.4byte	0
 10217 0970 00000000 		.4byte	0
 10218              	.LLST26:
 10219 0974 D8040000 		.4byte	.LVL64
 10220 0978 DA040000 		.4byte	.LVL65
 10221 097c 0100     		.2byte	0x1
 10222 097e 52       		.byte	0x52
 10223 097f DA040000 		.4byte	.LVL65
 10224 0983 E2040000 		.4byte	.LVL67
 10225 0987 0C00     		.2byte	0xc
 10226 0989 91       		.byte	0x91
 10227 098a 40       		.sleb128 -64
 10228 098b 06       		.byte	0x6
 10229 098c 73       		.byte	0x73
 10230 098d 00       		.sleb128 0
 10231 098e 1A       		.byte	0x1a
 10232 098f 38       		.byte	0x38
 10233 0990 24       		.byte	0x24
 10234 0991 74       		.byte	0x74
 10235 0992 00       		.sleb128 0
 10236 0993 21       		.byte	0x21
 10237 0994 9F       		.byte	0x9f
 10238 0995 E2040000 		.4byte	.LVL67
 10239 0999 F0040000 		.4byte	.LVL71
 10240 099d 1200     		.2byte	0x12
 10241 099f 91       		.byte	0x91
 10242 09a0 40       		.sleb128 -64
 10243 09a1 06       		.byte	0x6
 10244 09a2 73       		.byte	0x73
 10245 09a3 00       		.sleb128 0
 10246 09a4 1A       		.byte	0x1a
 10247 09a5 38       		.byte	0x38
 10248 09a6 24       		.byte	0x24
 10249 09a7 91       		.byte	0x91
 10250 09a8 40       		.sleb128 -64
 10251 09a9 06       		.byte	0x6
 10252 09aa 75       		.byte	0x75
 10253 09ab 00       		.sleb128 0
 10254 09ac 1A       		.byte	0x1a
 10255 09ad 38       		.byte	0x38
 10256 09ae 25       		.byte	0x25
 10257 09af 21       		.byte	0x21
 10258 09b0 9F       		.byte	0x9f
 10259 09b1 F0040000 		.4byte	.LVL71
 10260 09b5 F4040000 		.4byte	.LVL72
 10261 09b9 1500     		.2byte	0x15
 10262 09bb 91       		.byte	0x91
 10263 09bc 40       		.sleb128 -64
 10264 09bd 06       		.byte	0x6
ARM GAS  C:\Users\ddemidov\AppData\Local\Temp\ccTwWFqA.s 			page 232


 10265 09be 73       		.byte	0x73
 10266 09bf 00       		.sleb128 0
 10267 09c0 1A       		.byte	0x1a
 10268 09c1 38       		.byte	0x38
 10269 09c2 24       		.byte	0x24
 10270 09c3 91       		.byte	0x91
 10271 09c4 40       		.sleb128 -64
 10272 09c5 06       		.byte	0x6
 10273 09c6 11       		.byte	0x11
 10274 09c7 80FE8378 		.sleb128 -16711936
 10275 09cb 1A       		.byte	0x1a
 10276 09cc 38       		.byte	0x38
 10277 09cd 25       		.byte	0x25
 10278 09ce 21       		.byte	0x21
 10279 09cf 9F       		.byte	0x9f
 10280 09d0 F4040000 		.4byte	.LVL72
 10281 09d4 2A050000 		.4byte	.LVL80
 10282 09d8 1800     		.2byte	0x18
 10283 09da 91       		.byte	0x91
 10284 09db 40       		.sleb128 -64
 10285 09dc 06       		.byte	0x6
 10286 09dd 0C       		.byte	0xc
 10287 09de FF00FF00 		.4byte	0xff00ff
 10288 09e2 1A       		.byte	0x1a
 10289 09e3 38       		.byte	0x38
 10290 09e4 24       		.byte	0x24
 10291 09e5 91       		.byte	0x91
 10292 09e6 40       		.sleb128 -64
 10293 09e7 06       		.byte	0x6
 10294 09e8 11       		.byte	0x11
 10295 09e9 80FE8378 		.sleb128 -16711936
 10296 09ed 1A       		.byte	0x1a
 10297 09ee 38       		.byte	0x38
 10298 09ef 25       		.byte	0x25
 10299 09f0 21       		.byte	0x21
 10300 09f1 9F       		.byte	0x9f
 10301 09f2 00000000 		.4byte	0
 10302 09f6 00000000 		.4byte	0
 10303              	.LLST27:
 10304 09fa DC040000 		.4byte	.LVL66
 10305 09fe EA040000 		.4byte	.LVL68
 10306 0a02 0100     		.2byte	0x1
 10307 0a04 5B       		.byte	0x5b
 10308 0a05 EA040000 		.4byte	.LVL68
 10309 0a09 EC040000 		.4byte	.LVL69
 10310 0a0d 0100     		.2byte	0x1
 10311 0a0f 52       		.byte	0x52
 10312 0a10 EC040000 		.4byte	.LVL69
 10313 0a14 F4040000 		.4byte	.LVL72
 10314 0a18 0B00     		.2byte	0xb
 10315 0a1a 7B       		.byte	0x7b
 10316 0a1b 00       		.sleb128 0
 10317 0a1c 73       		.byte	0x73
 10318 0a1d 00       		.sleb128 0
 10319 0a1e 1A       		.byte	0x1a
 10320 0a1f 38       		.byte	0x38
 10321 0a20 24       		.byte	0x24
ARM GAS  C:\Users\ddemidov\AppData\Local\Temp\ccTwWFqA.s 			page 233


 10322 0a21 74       		.byte	0x74
 10323 0a22 00       		.sleb128 0
 10324 0a23 21       		.byte	0x21
 10325 0a24 9F       		.byte	0x9f
 10326 0a25 F4040000 		.4byte	.LVL72
 10327 0a29 FE040000 		.4byte	.LVL75
 10328 0a2d 0E00     		.2byte	0xe
 10329 0a2f 7B       		.byte	0x7b
 10330 0a30 00       		.sleb128 0
 10331 0a31 0C       		.byte	0xc
 10332 0a32 FF00FF00 		.4byte	0xff00ff
 10333 0a36 1A       		.byte	0x1a
 10334 0a37 38       		.byte	0x38
 10335 0a38 24       		.byte	0x24
 10336 0a39 74       		.byte	0x74
 10337 0a3a 00       		.sleb128 0
 10338 0a3b 21       		.byte	0x21
 10339 0a3c 9F       		.byte	0x9f
 10340 0a3d FE040000 		.4byte	.LVL75
 10341 0a41 2A050000 		.4byte	.LVL80
 10342 0a45 1600     		.2byte	0x16
 10343 0a47 7B       		.byte	0x7b
 10344 0a48 00       		.sleb128 0
 10345 0a49 0C       		.byte	0xc
 10346 0a4a FF00FF00 		.4byte	0xff00ff
 10347 0a4e 1A       		.byte	0x1a
 10348 0a4f 38       		.byte	0x38
 10349 0a50 24       		.byte	0x24
 10350 0a51 7B       		.byte	0x7b
 10351 0a52 00       		.sleb128 0
 10352 0a53 11       		.byte	0x11
 10353 0a54 80FE8378 		.sleb128 -16711936
 10354 0a58 1A       		.byte	0x1a
 10355 0a59 38       		.byte	0x38
 10356 0a5a 25       		.byte	0x25
 10357 0a5b 21       		.byte	0x21
 10358 0a5c 9F       		.byte	0x9f
 10359 0a5d 00000000 		.4byte	0
 10360 0a61 00000000 		.4byte	0
 10361              	.LLST28:
 10362 0a65 EA040000 		.4byte	.LVL68
 10363 0a69 2A050000 		.4byte	.LVL80
 10364 0a6d 0200     		.2byte	0x2
 10365 0a6f 40       		.byte	0x40
 10366 0a70 9F       		.byte	0x9f
 10367 0a71 00000000 		.4byte	0
 10368 0a75 00000000 		.4byte	0
 10369              	.LLST29:
 10370 0a79 EA040000 		.4byte	.LVL68
 10371 0a7d EC040000 		.4byte	.LVL69
 10372 0a81 0100     		.2byte	0x1
 10373 0a83 52       		.byte	0x52
 10374 0a84 EC040000 		.4byte	.LVL69
 10375 0a88 F4040000 		.4byte	.LVL72
 10376 0a8c 0B00     		.2byte	0xb
 10377 0a8e 7B       		.byte	0x7b
 10378 0a8f 00       		.sleb128 0
ARM GAS  C:\Users\ddemidov\AppData\Local\Temp\ccTwWFqA.s 			page 234


 10379 0a90 73       		.byte	0x73
 10380 0a91 00       		.sleb128 0
 10381 0a92 1A       		.byte	0x1a
 10382 0a93 38       		.byte	0x38
 10383 0a94 24       		.byte	0x24
 10384 0a95 74       		.byte	0x74
 10385 0a96 00       		.sleb128 0
 10386 0a97 21       		.byte	0x21
 10387 0a98 9F       		.byte	0x9f
 10388 0a99 F4040000 		.4byte	.LVL72
 10389 0a9d FE040000 		.4byte	.LVL75
 10390 0aa1 0E00     		.2byte	0xe
 10391 0aa3 7B       		.byte	0x7b
 10392 0aa4 00       		.sleb128 0
 10393 0aa5 0C       		.byte	0xc
 10394 0aa6 FF00FF00 		.4byte	0xff00ff
 10395 0aaa 1A       		.byte	0x1a
 10396 0aab 38       		.byte	0x38
 10397 0aac 24       		.byte	0x24
 10398 0aad 74       		.byte	0x74
 10399 0aae 00       		.sleb128 0
 10400 0aaf 21       		.byte	0x21
 10401 0ab0 9F       		.byte	0x9f
 10402 0ab1 FE040000 		.4byte	.LVL75
 10403 0ab5 2A050000 		.4byte	.LVL80
 10404 0ab9 1600     		.2byte	0x16
 10405 0abb 7B       		.byte	0x7b
 10406 0abc 00       		.sleb128 0
 10407 0abd 0C       		.byte	0xc
 10408 0abe FF00FF00 		.4byte	0xff00ff
 10409 0ac2 1A       		.byte	0x1a
 10410 0ac3 38       		.byte	0x38
 10411 0ac4 24       		.byte	0x24
 10412 0ac5 7B       		.byte	0x7b
 10413 0ac6 00       		.sleb128 0
 10414 0ac7 11       		.byte	0x11
 10415 0ac8 80FE8378 		.sleb128 -16711936
 10416 0acc 1A       		.byte	0x1a
 10417 0acd 38       		.byte	0x38
 10418 0ace 25       		.byte	0x25
 10419 0acf 21       		.byte	0x21
 10420 0ad0 9F       		.byte	0x9f
 10421 0ad1 00000000 		.4byte	0
 10422 0ad5 00000000 		.4byte	0
 10423              	.LLST30:
 10424 0ad9 EE040000 		.4byte	.LVL70
 10425 0add F8040000 		.4byte	.LVL73
 10426 0ae1 0100     		.2byte	0x1
 10427 0ae3 51       		.byte	0x51
 10428 0ae4 F8040000 		.4byte	.LVL73
 10429 0ae8 FA040000 		.4byte	.LVL74
 10430 0aec 0100     		.2byte	0x1
 10431 0aee 53       		.byte	0x53
 10432 0aef FA040000 		.4byte	.LVL74
 10433 0af3 02050000 		.4byte	.LVL76
 10434 0af7 0E00     		.2byte	0xe
 10435 0af9 71       		.byte	0x71
ARM GAS  C:\Users\ddemidov\AppData\Local\Temp\ccTwWFqA.s 			page 235


 10436 0afa 00       		.sleb128 0
 10437 0afb 0C       		.byte	0xc
 10438 0afc FF00FF00 		.4byte	0xff00ff
 10439 0b00 1A       		.byte	0x1a
 10440 0b01 38       		.byte	0x38
 10441 0b02 24       		.byte	0x24
 10442 0b03 75       		.byte	0x75
 10443 0b04 00       		.sleb128 0
 10444 0b05 21       		.byte	0x21
 10445 0b06 9F       		.byte	0x9f
 10446 0b07 00000000 		.4byte	0
 10447 0b0b 00000000 		.4byte	0
 10448              	.LLST31:
 10449 0b0f F8040000 		.4byte	.LVL73
 10450 0b13 2A050000 		.4byte	.LVL80
 10451 0b17 0200     		.2byte	0x2
 10452 0b19 40       		.byte	0x40
 10453 0b1a 9F       		.byte	0x9f
 10454 0b1b 00000000 		.4byte	0
 10455 0b1f 00000000 		.4byte	0
 10456              	.LLST32:
 10457 0b23 F8040000 		.4byte	.LVL73
 10458 0b27 FA040000 		.4byte	.LVL74
 10459 0b2b 0100     		.2byte	0x1
 10460 0b2d 53       		.byte	0x53
 10461 0b2e FA040000 		.4byte	.LVL74
 10462 0b32 02050000 		.4byte	.LVL76
 10463 0b36 0E00     		.2byte	0xe
 10464 0b38 71       		.byte	0x71
 10465 0b39 00       		.sleb128 0
 10466 0b3a 0C       		.byte	0xc
 10467 0b3b FF00FF00 		.4byte	0xff00ff
 10468 0b3f 1A       		.byte	0x1a
 10469 0b40 38       		.byte	0x38
 10470 0b41 24       		.byte	0x24
 10471 0b42 75       		.byte	0x75
 10472 0b43 00       		.sleb128 0
 10473 0b44 21       		.byte	0x21
 10474 0b45 9F       		.byte	0x9f
 10475 0b46 00000000 		.4byte	0
 10476 0b4a 00000000 		.4byte	0
 10477              	.LLST33:
 10478 0b4e 00000000 		.4byte	.LVL82
 10479 0b52 28000000 		.4byte	.LVL86
 10480 0b56 0100     		.2byte	0x1
 10481 0b58 50       		.byte	0x50
 10482 0b59 28000000 		.4byte	.LVL86
 10483 0b5d B2000000 		.4byte	.LVL114
 10484 0b61 0100     		.2byte	0x1
 10485 0b63 54       		.byte	0x54
 10486 0b64 B2000000 		.4byte	.LVL114
 10487 0b68 7E030000 		.4byte	.LVL132
 10488 0b6c 0200     		.2byte	0x2
 10489 0b6e 7D       		.byte	0x7d
 10490 0b6f 00       		.sleb128 0
 10491 0b70 7E030000 		.4byte	.LVL132
 10492 0b74 2C050000 		.4byte	.LFE13
ARM GAS  C:\Users\ddemidov\AppData\Local\Temp\ccTwWFqA.s 			page 236


 10493 0b78 0400     		.2byte	0x4
 10494 0b7a F3       		.byte	0xf3
 10495 0b7b 01       		.uleb128 0x1
 10496 0b7c 50       		.byte	0x50
 10497 0b7d 9F       		.byte	0x9f
 10498 0b7e 00000000 		.4byte	0
 10499 0b82 00000000 		.4byte	0
 10500              	.LLST34:
 10501 0b86 00000000 		.4byte	.LVL82
 10502 0b8a 2D000000 		.4byte	.LVL88-1
 10503 0b8e 0100     		.2byte	0x1
 10504 0b90 51       		.byte	0x51
 10505 0b91 2D000000 		.4byte	.LVL88-1
 10506 0b95 58000000 		.4byte	.LVL93
 10507 0b99 0100     		.2byte	0x1
 10508 0b9b 55       		.byte	0x55
 10509 0b9c 58000000 		.4byte	.LVL93
 10510 0ba0 2C050000 		.4byte	.LFE13
 10511 0ba4 0400     		.2byte	0x4
 10512 0ba6 F3       		.byte	0xf3
 10513 0ba7 01       		.uleb128 0x1
 10514 0ba8 51       		.byte	0x51
 10515 0ba9 9F       		.byte	0x9f
 10516 0baa 00000000 		.4byte	0
 10517 0bae 00000000 		.4byte	0
 10518              	.LLST35:
 10519 0bb2 00000000 		.4byte	.LVL82
 10520 0bb6 2A000000 		.4byte	.LVL87
 10521 0bba 0100     		.2byte	0x1
 10522 0bbc 52       		.byte	0x52
 10523 0bbd 2A000000 		.4byte	.LVL87
 10524 0bc1 12050000 		.4byte	.LVL161
 10525 0bc5 0200     		.2byte	0x2
 10526 0bc7 91       		.byte	0x91
 10527 0bc8 44       		.sleb128 -60
 10528 0bc9 12050000 		.4byte	.LVL161
 10529 0bcd 2C050000 		.4byte	.LFE13
 10530 0bd1 0400     		.2byte	0x4
 10531 0bd3 F3       		.byte	0xf3
 10532 0bd4 01       		.uleb128 0x1
 10533 0bd5 52       		.byte	0x52
 10534 0bd6 9F       		.byte	0x9f
 10535 0bd7 00000000 		.4byte	0
 10536 0bdb 00000000 		.4byte	0
 10537              	.LLST36:
 10538 0bdf 02010000 		.4byte	.LVL115
 10539 0be3 08010000 		.4byte	.LVL116
 10540 0be7 0100     		.2byte	0x1
 10541 0be9 53       		.byte	0x53
 10542 0bea 08010000 		.4byte	.LVL116
 10543 0bee 6E030000 		.4byte	.LVL131
 10544 0bf2 0100     		.2byte	0x1
 10545 0bf4 59       		.byte	0x59
 10546 0bf5 6E030000 		.4byte	.LVL131
 10547 0bf9 A6030000 		.4byte	.LVL134
 10548 0bfd 0100     		.2byte	0x1
 10549 0bff 56       		.byte	0x56
ARM GAS  C:\Users\ddemidov\AppData\Local\Temp\ccTwWFqA.s 			page 237


 10550 0c00 A6030000 		.4byte	.LVL134
 10551 0c04 12050000 		.4byte	.LVL161
 10552 0c08 0300     		.2byte	0x3
 10553 0c0a 91       		.byte	0x91
 10554 0c0b BC7F     		.sleb128 -68
 10555 0c0d 00000000 		.4byte	0
 10556 0c11 00000000 		.4byte	0
 10557              	.LLST37:
 10558 0c15 4E010000 		.4byte	.LVL117
 10559 0c19 D6020000 		.4byte	.LVL124
 10560 0c1d 0100     		.2byte	0x1
 10561 0c1f 52       		.byte	0x52
 10562 0c20 08030000 		.4byte	.LVL126
 10563 0c24 78040000 		.4byte	.LVL137
 10564 0c28 0100     		.2byte	0x1
 10565 0c2a 52       		.byte	0x52
 10566 0c2b 78040000 		.4byte	.LVL137
 10567 0c2f 92040000 		.4byte	.LVL138
 10568 0c33 4700     		.2byte	0x47
 10569 0c35 91       		.byte	0x91
 10570 0c36 50       		.sleb128 -48
 10571 0c37 06       		.byte	0x6
 10572 0c38 48       		.byte	0x48
 10573 0c39 25       		.byte	0x25
 10574 0c3a 32       		.byte	0x32
 10575 0c3b 24       		.byte	0x24
 10576 0c3c 75       		.byte	0x75
 10577 0c3d 00       		.sleb128 0
 10578 0c3e 22       		.byte	0x22
 10579 0c3f 06       		.byte	0x6
 10580 0c40 91       		.byte	0x91
 10581 0c41 54       		.sleb128 -44
 10582 0c42 06       		.byte	0x6
 10583 0c43 40       		.byte	0x40
 10584 0c44 25       		.byte	0x25
 10585 0c45 74       		.byte	0x74
 10586 0c46 00       		.sleb128 0
 10587 0c47 1A       		.byte	0x1a
 10588 0c48 23       		.byte	0x23
 10589 0c49 8002     		.uleb128 0x100
 10590 0c4b 32       		.byte	0x32
 10591 0c4c 24       		.byte	0x24
 10592 0c4d 75       		.byte	0x75
 10593 0c4e 00       		.sleb128 0
 10594 0c4f 22       		.byte	0x22
 10595 0c50 06       		.byte	0x6
 10596 0c51 27       		.byte	0x27
 10597 0c52 91       		.byte	0x91
 10598 0c53 48       		.sleb128 -56
 10599 0c54 06       		.byte	0x6
 10600 0c55 38       		.byte	0x38
 10601 0c56 25       		.byte	0x25
 10602 0c57 74       		.byte	0x74
 10603 0c58 00       		.sleb128 0
 10604 0c59 1A       		.byte	0x1a
 10605 0c5a 23       		.byte	0x23
 10606 0c5b 8004     		.uleb128 0x200
ARM GAS  C:\Users\ddemidov\AppData\Local\Temp\ccTwWFqA.s 			page 238


 10607 0c5d 32       		.byte	0x32
 10608 0c5e 24       		.byte	0x24
 10609 0c5f 75       		.byte	0x75
 10610 0c60 00       		.sleb128 0
 10611 0c61 22       		.byte	0x22
 10612 0c62 06       		.byte	0x6
 10613 0c63 27       		.byte	0x27
 10614 0c64 74       		.byte	0x74
 10615 0c65 00       		.sleb128 0
 10616 0c66 91       		.byte	0x91
 10617 0c67 4C       		.sleb128 -52
 10618 0c68 06       		.byte	0x6
 10619 0c69 1A       		.byte	0x1a
 10620 0c6a 23       		.byte	0x23
 10621 0c6b 8006     		.uleb128 0x300
 10622 0c6d 32       		.byte	0x32
 10623 0c6e 24       		.byte	0x24
 10624 0c6f 75       		.byte	0x75
 10625 0c70 00       		.sleb128 0
 10626 0c71 22       		.byte	0x22
 10627 0c72 06       		.byte	0x6
 10628 0c73 27       		.byte	0x27
 10629 0c74 7D       		.byte	0x7d
 10630 0c75 00       		.sleb128 0
 10631 0c76 06       		.byte	0x6
 10632 0c77 3C       		.byte	0x3c
 10633 0c78 1C       		.byte	0x1c
 10634 0c79 06       		.byte	0x6
 10635 0c7a 27       		.byte	0x27
 10636 0c7b 9F       		.byte	0x9f
 10637 0c7c 92040000 		.4byte	.LVL138
 10638 0c80 9C040000 		.4byte	.LVL140
 10639 0c84 4700     		.2byte	0x47
 10640 0c86 91       		.byte	0x91
 10641 0c87 50       		.sleb128 -48
 10642 0c88 06       		.byte	0x6
 10643 0c89 48       		.byte	0x48
 10644 0c8a 25       		.byte	0x25
 10645 0c8b 32       		.byte	0x32
 10646 0c8c 24       		.byte	0x24
 10647 0c8d 75       		.byte	0x75
 10648 0c8e 00       		.sleb128 0
 10649 0c8f 22       		.byte	0x22
 10650 0c90 06       		.byte	0x6
 10651 0c91 91       		.byte	0x91
 10652 0c92 54       		.sleb128 -44
 10653 0c93 06       		.byte	0x6
 10654 0c94 40       		.byte	0x40
 10655 0c95 25       		.byte	0x25
 10656 0c96 08       		.byte	0x8
 10657 0c97 FF       		.byte	0xff
 10658 0c98 1A       		.byte	0x1a
 10659 0c99 23       		.byte	0x23
 10660 0c9a 8002     		.uleb128 0x100
 10661 0c9c 32       		.byte	0x32
 10662 0c9d 24       		.byte	0x24
 10663 0c9e 75       		.byte	0x75
ARM GAS  C:\Users\ddemidov\AppData\Local\Temp\ccTwWFqA.s 			page 239


 10664 0c9f 00       		.sleb128 0
 10665 0ca0 22       		.byte	0x22
 10666 0ca1 06       		.byte	0x6
 10667 0ca2 27       		.byte	0x27
 10668 0ca3 91       		.byte	0x91
 10669 0ca4 48       		.sleb128 -56
 10670 0ca5 06       		.byte	0x6
 10671 0ca6 38       		.byte	0x38
 10672 0ca7 25       		.byte	0x25
 10673 0ca8 08       		.byte	0x8
 10674 0ca9 FF       		.byte	0xff
 10675 0caa 1A       		.byte	0x1a
 10676 0cab 23       		.byte	0x23
 10677 0cac 8004     		.uleb128 0x200
 10678 0cae 32       		.byte	0x32
 10679 0caf 24       		.byte	0x24
 10680 0cb0 75       		.byte	0x75
 10681 0cb1 00       		.sleb128 0
 10682 0cb2 22       		.byte	0x22
 10683 0cb3 06       		.byte	0x6
 10684 0cb4 27       		.byte	0x27
 10685 0cb5 91       		.byte	0x91
 10686 0cb6 4C       		.sleb128 -52
 10687 0cb7 06       		.byte	0x6
 10688 0cb8 08       		.byte	0x8
 10689 0cb9 FF       		.byte	0xff
 10690 0cba 1A       		.byte	0x1a
 10691 0cbb 23       		.byte	0x23
 10692 0cbc 8006     		.uleb128 0x300
 10693 0cbe 32       		.byte	0x32
 10694 0cbf 24       		.byte	0x24
 10695 0cc0 75       		.byte	0x75
 10696 0cc1 00       		.sleb128 0
 10697 0cc2 22       		.byte	0x22
 10698 0cc3 06       		.byte	0x6
 10699 0cc4 27       		.byte	0x27
 10700 0cc5 7D       		.byte	0x7d
 10701 0cc6 00       		.sleb128 0
 10702 0cc7 06       		.byte	0x6
 10703 0cc8 3C       		.byte	0x3c
 10704 0cc9 1C       		.byte	0x1c
 10705 0cca 06       		.byte	0x6
 10706 0ccb 27       		.byte	0x27
 10707 0ccc 9F       		.byte	0x9f
 10708 0ccd 9C040000 		.4byte	.LVL140
 10709 0cd1 B0040000 		.4byte	.LVL144
 10710 0cd5 5300     		.2byte	0x53
 10711 0cd7 91       		.byte	0x91
 10712 0cd8 50       		.sleb128 -48
 10713 0cd9 06       		.byte	0x6
 10714 0cda 48       		.byte	0x48
 10715 0cdb 25       		.byte	0x25
 10716 0cdc 32       		.byte	0x32
 10717 0cdd 24       		.byte	0x24
 10718 0cde 03       		.byte	0x3
 10719 0cdf 00140000 		.4byte	.LANCHOR1
 10720 0ce3 22       		.byte	0x22
ARM GAS  C:\Users\ddemidov\AppData\Local\Temp\ccTwWFqA.s 			page 240


 10721 0ce4 06       		.byte	0x6
 10722 0ce5 91       		.byte	0x91
 10723 0ce6 54       		.sleb128 -44
 10724 0ce7 06       		.byte	0x6
 10725 0ce8 40       		.byte	0x40
 10726 0ce9 25       		.byte	0x25
 10727 0cea 08       		.byte	0x8
 10728 0ceb FF       		.byte	0xff
 10729 0cec 1A       		.byte	0x1a
 10730 0ced 23       		.byte	0x23
 10731 0cee 8002     		.uleb128 0x100
 10732 0cf0 32       		.byte	0x32
 10733 0cf1 24       		.byte	0x24
 10734 0cf2 03       		.byte	0x3
 10735 0cf3 00140000 		.4byte	.LANCHOR1
 10736 0cf7 22       		.byte	0x22
 10737 0cf8 06       		.byte	0x6
 10738 0cf9 27       		.byte	0x27
 10739 0cfa 91       		.byte	0x91
 10740 0cfb 48       		.sleb128 -56
 10741 0cfc 06       		.byte	0x6
 10742 0cfd 38       		.byte	0x38
 10743 0cfe 25       		.byte	0x25
 10744 0cff 08       		.byte	0x8
 10745 0d00 FF       		.byte	0xff
 10746 0d01 1A       		.byte	0x1a
 10747 0d02 23       		.byte	0x23
 10748 0d03 8004     		.uleb128 0x200
 10749 0d05 32       		.byte	0x32
 10750 0d06 24       		.byte	0x24
 10751 0d07 03       		.byte	0x3
 10752 0d08 00140000 		.4byte	.LANCHOR1
 10753 0d0c 22       		.byte	0x22
 10754 0d0d 06       		.byte	0x6
 10755 0d0e 27       		.byte	0x27
 10756 0d0f 91       		.byte	0x91
 10757 0d10 4C       		.sleb128 -52
 10758 0d11 06       		.byte	0x6
 10759 0d12 08       		.byte	0x8
 10760 0d13 FF       		.byte	0xff
 10761 0d14 1A       		.byte	0x1a
 10762 0d15 23       		.byte	0x23
 10763 0d16 8006     		.uleb128 0x300
 10764 0d18 32       		.byte	0x32
 10765 0d19 24       		.byte	0x24
 10766 0d1a 03       		.byte	0x3
 10767 0d1b 00140000 		.4byte	.LANCHOR1
 10768 0d1f 22       		.byte	0x22
 10769 0d20 06       		.byte	0x6
 10770 0d21 27       		.byte	0x27
 10771 0d22 7D       		.byte	0x7d
 10772 0d23 00       		.sleb128 0
 10773 0d24 06       		.byte	0x6
 10774 0d25 3C       		.byte	0x3c
 10775 0d26 1C       		.byte	0x1c
 10776 0d27 06       		.byte	0x6
 10777 0d28 27       		.byte	0x27
ARM GAS  C:\Users\ddemidov\AppData\Local\Temp\ccTwWFqA.s 			page 241


 10778 0d29 9F       		.byte	0x9f
 10779 0d2a 00000000 		.4byte	0
 10780 0d2e 00000000 		.4byte	0
 10781              	.LLST38:
 10782 0d32 B8010000 		.4byte	.LVL118
 10783 0d36 BE010000 		.4byte	.LVL119
 10784 0d3a 0100     		.2byte	0x1
 10785 0d3c 53       		.byte	0x53
 10786 0d3d BE010000 		.4byte	.LVL119
 10787 0d41 DE020000 		.4byte	.LVL125
 10788 0d45 0100     		.2byte	0x1
 10789 0d47 5C       		.byte	0x5c
 10790 0d48 08030000 		.4byte	.LVL126
 10791 0d4c 1A030000 		.4byte	.LVL129
 10792 0d50 0100     		.2byte	0x1
 10793 0d52 5C       		.byte	0x5c
 10794 0d53 1A030000 		.4byte	.LVL129
 10795 0d57 68040000 		.4byte	.LVL136
 10796 0d5b 0100     		.2byte	0x1
 10797 0d5d 50       		.byte	0x50
 10798 0d5e 68040000 		.4byte	.LVL136
 10799 0d62 92040000 		.4byte	.LVL138
 10800 0d66 4700     		.2byte	0x47
 10801 0d68 91       		.byte	0x91
 10802 0d69 4C       		.sleb128 -52
 10803 0d6a 06       		.byte	0x6
 10804 0d6b 48       		.byte	0x48
 10805 0d6c 25       		.byte	0x25
 10806 0d6d 32       		.byte	0x32
 10807 0d6e 24       		.byte	0x24
 10808 0d6f 75       		.byte	0x75
 10809 0d70 00       		.sleb128 0
 10810 0d71 22       		.byte	0x22
 10811 0d72 06       		.byte	0x6
 10812 0d73 91       		.byte	0x91
 10813 0d74 50       		.sleb128 -48
 10814 0d75 06       		.byte	0x6
 10815 0d76 40       		.byte	0x40
 10816 0d77 25       		.byte	0x25
 10817 0d78 74       		.byte	0x74
 10818 0d79 00       		.sleb128 0
 10819 0d7a 1A       		.byte	0x1a
 10820 0d7b 23       		.byte	0x23
 10821 0d7c 8002     		.uleb128 0x100
 10822 0d7e 32       		.byte	0x32
 10823 0d7f 24       		.byte	0x24
 10824 0d80 75       		.byte	0x75
 10825 0d81 00       		.sleb128 0
 10826 0d82 22       		.byte	0x22
 10827 0d83 06       		.byte	0x6
 10828 0d84 27       		.byte	0x27
 10829 0d85 91       		.byte	0x91
 10830 0d86 54       		.sleb128 -44
 10831 0d87 06       		.byte	0x6
 10832 0d88 38       		.byte	0x38
 10833 0d89 25       		.byte	0x25
 10834 0d8a 74       		.byte	0x74
ARM GAS  C:\Users\ddemidov\AppData\Local\Temp\ccTwWFqA.s 			page 242


 10835 0d8b 00       		.sleb128 0
 10836 0d8c 1A       		.byte	0x1a
 10837 0d8d 23       		.byte	0x23
 10838 0d8e 8004     		.uleb128 0x200
 10839 0d90 32       		.byte	0x32
 10840 0d91 24       		.byte	0x24
 10841 0d92 75       		.byte	0x75
 10842 0d93 00       		.sleb128 0
 10843 0d94 22       		.byte	0x22
 10844 0d95 06       		.byte	0x6
 10845 0d96 27       		.byte	0x27
 10846 0d97 74       		.byte	0x74
 10847 0d98 00       		.sleb128 0
 10848 0d99 91       		.byte	0x91
 10849 0d9a 48       		.sleb128 -56
 10850 0d9b 06       		.byte	0x6
 10851 0d9c 1A       		.byte	0x1a
 10852 0d9d 23       		.byte	0x23
 10853 0d9e 8006     		.uleb128 0x300
 10854 0da0 32       		.byte	0x32
 10855 0da1 24       		.byte	0x24
 10856 0da2 75       		.byte	0x75
 10857 0da3 00       		.sleb128 0
 10858 0da4 22       		.byte	0x22
 10859 0da5 06       		.byte	0x6
 10860 0da6 27       		.byte	0x27
 10861 0da7 7D       		.byte	0x7d
 10862 0da8 00       		.sleb128 0
 10863 0da9 06       		.byte	0x6
 10864 0daa 38       		.byte	0x38
 10865 0dab 1C       		.byte	0x1c
 10866 0dac 06       		.byte	0x6
 10867 0dad 27       		.byte	0x27
 10868 0dae 9F       		.byte	0x9f
 10869 0daf 92040000 		.4byte	.LVL138
 10870 0db3 9C040000 		.4byte	.LVL140
 10871 0db7 4700     		.2byte	0x47
 10872 0db9 91       		.byte	0x91
 10873 0dba 4C       		.sleb128 -52
 10874 0dbb 06       		.byte	0x6
 10875 0dbc 48       		.byte	0x48
 10876 0dbd 25       		.byte	0x25
 10877 0dbe 32       		.byte	0x32
 10878 0dbf 24       		.byte	0x24
 10879 0dc0 75       		.byte	0x75
 10880 0dc1 00       		.sleb128 0
 10881 0dc2 22       		.byte	0x22
 10882 0dc3 06       		.byte	0x6
 10883 0dc4 91       		.byte	0x91
 10884 0dc5 50       		.sleb128 -48
 10885 0dc6 06       		.byte	0x6
 10886 0dc7 40       		.byte	0x40
 10887 0dc8 25       		.byte	0x25
 10888 0dc9 08       		.byte	0x8
 10889 0dca FF       		.byte	0xff
 10890 0dcb 1A       		.byte	0x1a
 10891 0dcc 23       		.byte	0x23
ARM GAS  C:\Users\ddemidov\AppData\Local\Temp\ccTwWFqA.s 			page 243


 10892 0dcd 8002     		.uleb128 0x100
 10893 0dcf 32       		.byte	0x32
 10894 0dd0 24       		.byte	0x24
 10895 0dd1 75       		.byte	0x75
 10896 0dd2 00       		.sleb128 0
 10897 0dd3 22       		.byte	0x22
 10898 0dd4 06       		.byte	0x6
 10899 0dd5 27       		.byte	0x27
 10900 0dd6 91       		.byte	0x91
 10901 0dd7 54       		.sleb128 -44
 10902 0dd8 06       		.byte	0x6
 10903 0dd9 38       		.byte	0x38
 10904 0dda 25       		.byte	0x25
 10905 0ddb 08       		.byte	0x8
 10906 0ddc FF       		.byte	0xff
 10907 0ddd 1A       		.byte	0x1a
 10908 0dde 23       		.byte	0x23
 10909 0ddf 8004     		.uleb128 0x200
 10910 0de1 32       		.byte	0x32
 10911 0de2 24       		.byte	0x24
 10912 0de3 75       		.byte	0x75
 10913 0de4 00       		.sleb128 0
 10914 0de5 22       		.byte	0x22
 10915 0de6 06       		.byte	0x6
 10916 0de7 27       		.byte	0x27
 10917 0de8 91       		.byte	0x91
 10918 0de9 48       		.sleb128 -56
 10919 0dea 06       		.byte	0x6
 10920 0deb 08       		.byte	0x8
 10921 0dec FF       		.byte	0xff
 10922 0ded 1A       		.byte	0x1a
 10923 0dee 23       		.byte	0x23
 10924 0def 8006     		.uleb128 0x300
 10925 0df1 32       		.byte	0x32
 10926 0df2 24       		.byte	0x24
 10927 0df3 75       		.byte	0x75
 10928 0df4 00       		.sleb128 0
 10929 0df5 22       		.byte	0x22
 10930 0df6 06       		.byte	0x6
 10931 0df7 27       		.byte	0x27
 10932 0df8 7D       		.byte	0x7d
 10933 0df9 00       		.sleb128 0
 10934 0dfa 06       		.byte	0x6
 10935 0dfb 38       		.byte	0x38
 10936 0dfc 1C       		.byte	0x1c
 10937 0dfd 06       		.byte	0x6
 10938 0dfe 27       		.byte	0x27
 10939 0dff 9F       		.byte	0x9f
 10940 0e00 9C040000 		.4byte	.LVL140
 10941 0e04 B0040000 		.4byte	.LVL144
 10942 0e08 5300     		.2byte	0x53
 10943 0e0a 91       		.byte	0x91
 10944 0e0b 4C       		.sleb128 -52
 10945 0e0c 06       		.byte	0x6
 10946 0e0d 48       		.byte	0x48
 10947 0e0e 25       		.byte	0x25
 10948 0e0f 32       		.byte	0x32
ARM GAS  C:\Users\ddemidov\AppData\Local\Temp\ccTwWFqA.s 			page 244


 10949 0e10 24       		.byte	0x24
 10950 0e11 03       		.byte	0x3
 10951 0e12 00140000 		.4byte	.LANCHOR1
 10952 0e16 22       		.byte	0x22
 10953 0e17 06       		.byte	0x6
 10954 0e18 91       		.byte	0x91
 10955 0e19 50       		.sleb128 -48
 10956 0e1a 06       		.byte	0x6
 10957 0e1b 40       		.byte	0x40
 10958 0e1c 25       		.byte	0x25
 10959 0e1d 08       		.byte	0x8
 10960 0e1e FF       		.byte	0xff
 10961 0e1f 1A       		.byte	0x1a
 10962 0e20 23       		.byte	0x23
 10963 0e21 8002     		.uleb128 0x100
 10964 0e23 32       		.byte	0x32
 10965 0e24 24       		.byte	0x24
 10966 0e25 03       		.byte	0x3
 10967 0e26 00140000 		.4byte	.LANCHOR1
 10968 0e2a 22       		.byte	0x22
 10969 0e2b 06       		.byte	0x6
 10970 0e2c 27       		.byte	0x27
 10971 0e2d 91       		.byte	0x91
 10972 0e2e 54       		.sleb128 -44
 10973 0e2f 06       		.byte	0x6
 10974 0e30 38       		.byte	0x38
 10975 0e31 25       		.byte	0x25
 10976 0e32 08       		.byte	0x8
 10977 0e33 FF       		.byte	0xff
 10978 0e34 1A       		.byte	0x1a
 10979 0e35 23       		.byte	0x23
 10980 0e36 8004     		.uleb128 0x200
 10981 0e38 32       		.byte	0x32
 10982 0e39 24       		.byte	0x24
 10983 0e3a 03       		.byte	0x3
 10984 0e3b 00140000 		.4byte	.LANCHOR1
 10985 0e3f 22       		.byte	0x22
 10986 0e40 06       		.byte	0x6
 10987 0e41 27       		.byte	0x27
 10988 0e42 91       		.byte	0x91
 10989 0e43 48       		.sleb128 -56
 10990 0e44 06       		.byte	0x6
 10991 0e45 08       		.byte	0x8
 10992 0e46 FF       		.byte	0xff
 10993 0e47 1A       		.byte	0x1a
 10994 0e48 23       		.byte	0x23
 10995 0e49 8006     		.uleb128 0x300
 10996 0e4b 32       		.byte	0x32
 10997 0e4c 24       		.byte	0x24
 10998 0e4d 03       		.byte	0x3
 10999 0e4e 00140000 		.4byte	.LANCHOR1
 11000 0e52 22       		.byte	0x22
 11001 0e53 06       		.byte	0x6
 11002 0e54 27       		.byte	0x27
 11003 0e55 7D       		.byte	0x7d
 11004 0e56 00       		.sleb128 0
 11005 0e57 06       		.byte	0x6
ARM GAS  C:\Users\ddemidov\AppData\Local\Temp\ccTwWFqA.s 			page 245


 11006 0e58 38       		.byte	0x38
 11007 0e59 1C       		.byte	0x1c
 11008 0e5a 06       		.byte	0x6
 11009 0e5b 27       		.byte	0x27
 11010 0e5c 9F       		.byte	0x9f
 11011 0e5d 00000000 		.4byte	0
 11012 0e61 00000000 		.4byte	0
 11013              	.LLST39:
 11014 0e65 F4010000 		.4byte	.LVL120
 11015 0e69 C0020000 		.4byte	.LVL123
 11016 0e6d 0100     		.2byte	0x1
 11017 0e6f 51       		.byte	0x51
 11018 0e70 08030000 		.4byte	.LVL126
 11019 0e74 5C040000 		.4byte	.LVL135
 11020 0e78 0100     		.2byte	0x1
 11021 0e7a 51       		.byte	0x51
 11022 0e7b 5C040000 		.4byte	.LVL135
 11023 0e7f 92040000 		.4byte	.LVL138
 11024 0e83 4700     		.2byte	0x47
 11025 0e85 91       		.byte	0x91
 11026 0e86 4C       		.sleb128 -52
 11027 0e87 06       		.byte	0x6
 11028 0e88 40       		.byte	0x40
 11029 0e89 25       		.byte	0x25
 11030 0e8a 74       		.byte	0x74
 11031 0e8b 00       		.sleb128 0
 11032 0e8c 1A       		.byte	0x1a
 11033 0e8d 23       		.byte	0x23
 11034 0e8e 8002     		.uleb128 0x100
 11035 0e90 32       		.byte	0x32
 11036 0e91 24       		.byte	0x24
 11037 0e92 75       		.byte	0x75
 11038 0e93 00       		.sleb128 0
 11039 0e94 22       		.byte	0x22
 11040 0e95 06       		.byte	0x6
 11041 0e96 91       		.byte	0x91
 11042 0e97 48       		.sleb128 -56
 11043 0e98 06       		.byte	0x6
 11044 0e99 48       		.byte	0x48
 11045 0e9a 25       		.byte	0x25
 11046 0e9b 32       		.byte	0x32
 11047 0e9c 24       		.byte	0x24
 11048 0e9d 75       		.byte	0x75
 11049 0e9e 00       		.sleb128 0
 11050 0e9f 22       		.byte	0x22
 11051 0ea0 06       		.byte	0x6
 11052 0ea1 27       		.byte	0x27
 11053 0ea2 91       		.byte	0x91
 11054 0ea3 50       		.sleb128 -48
 11055 0ea4 06       		.byte	0x6
 11056 0ea5 38       		.byte	0x38
 11057 0ea6 25       		.byte	0x25
 11058 0ea7 74       		.byte	0x74
 11059 0ea8 00       		.sleb128 0
 11060 0ea9 1A       		.byte	0x1a
 11061 0eaa 23       		.byte	0x23
 11062 0eab 8004     		.uleb128 0x200
ARM GAS  C:\Users\ddemidov\AppData\Local\Temp\ccTwWFqA.s 			page 246


 11063 0ead 32       		.byte	0x32
 11064 0eae 24       		.byte	0x24
 11065 0eaf 75       		.byte	0x75
 11066 0eb0 00       		.sleb128 0
 11067 0eb1 22       		.byte	0x22
 11068 0eb2 06       		.byte	0x6
 11069 0eb3 27       		.byte	0x27
 11070 0eb4 91       		.byte	0x91
 11071 0eb5 54       		.sleb128 -44
 11072 0eb6 06       		.byte	0x6
 11073 0eb7 74       		.byte	0x74
 11074 0eb8 00       		.sleb128 0
 11075 0eb9 1A       		.byte	0x1a
 11076 0eba 23       		.byte	0x23
 11077 0ebb 8006     		.uleb128 0x300
 11078 0ebd 32       		.byte	0x32
 11079 0ebe 24       		.byte	0x24
 11080 0ebf 75       		.byte	0x75
 11081 0ec0 00       		.sleb128 0
 11082 0ec1 22       		.byte	0x22
 11083 0ec2 06       		.byte	0x6
 11084 0ec3 27       		.byte	0x27
 11085 0ec4 7D       		.byte	0x7d
 11086 0ec5 00       		.sleb128 0
 11087 0ec6 06       		.byte	0x6
 11088 0ec7 34       		.byte	0x34
 11089 0ec8 1C       		.byte	0x1c
 11090 0ec9 06       		.byte	0x6
 11091 0eca 27       		.byte	0x27
 11092 0ecb 9F       		.byte	0x9f
 11093 0ecc 92040000 		.4byte	.LVL138
 11094 0ed0 9C040000 		.4byte	.LVL140
 11095 0ed4 4700     		.2byte	0x47
 11096 0ed6 91       		.byte	0x91
 11097 0ed7 4C       		.sleb128 -52
 11098 0ed8 06       		.byte	0x6
 11099 0ed9 40       		.byte	0x40
 11100 0eda 25       		.byte	0x25
 11101 0edb 08       		.byte	0x8
 11102 0edc FF       		.byte	0xff
 11103 0edd 1A       		.byte	0x1a
 11104 0ede 23       		.byte	0x23
 11105 0edf 8002     		.uleb128 0x100
 11106 0ee1 32       		.byte	0x32
 11107 0ee2 24       		.byte	0x24
 11108 0ee3 75       		.byte	0x75
 11109 0ee4 00       		.sleb128 0
 11110 0ee5 22       		.byte	0x22
 11111 0ee6 06       		.byte	0x6
 11112 0ee7 91       		.byte	0x91
 11113 0ee8 48       		.sleb128 -56
 11114 0ee9 06       		.byte	0x6
 11115 0eea 48       		.byte	0x48
 11116 0eeb 25       		.byte	0x25
 11117 0eec 32       		.byte	0x32
 11118 0eed 24       		.byte	0x24
 11119 0eee 75       		.byte	0x75
ARM GAS  C:\Users\ddemidov\AppData\Local\Temp\ccTwWFqA.s 			page 247


 11120 0eef 00       		.sleb128 0
 11121 0ef0 22       		.byte	0x22
 11122 0ef1 06       		.byte	0x6
 11123 0ef2 27       		.byte	0x27
 11124 0ef3 91       		.byte	0x91
 11125 0ef4 50       		.sleb128 -48
 11126 0ef5 06       		.byte	0x6
 11127 0ef6 38       		.byte	0x38
 11128 0ef7 25       		.byte	0x25
 11129 0ef8 08       		.byte	0x8
 11130 0ef9 FF       		.byte	0xff
 11131 0efa 1A       		.byte	0x1a
 11132 0efb 23       		.byte	0x23
 11133 0efc 8004     		.uleb128 0x200
 11134 0efe 32       		.byte	0x32
 11135 0eff 24       		.byte	0x24
 11136 0f00 75       		.byte	0x75
 11137 0f01 00       		.sleb128 0
 11138 0f02 22       		.byte	0x22
 11139 0f03 06       		.byte	0x6
 11140 0f04 27       		.byte	0x27
 11141 0f05 91       		.byte	0x91
 11142 0f06 54       		.sleb128 -44
 11143 0f07 06       		.byte	0x6
 11144 0f08 08       		.byte	0x8
 11145 0f09 FF       		.byte	0xff
 11146 0f0a 1A       		.byte	0x1a
 11147 0f0b 23       		.byte	0x23
 11148 0f0c 8006     		.uleb128 0x300
 11149 0f0e 32       		.byte	0x32
 11150 0f0f 24       		.byte	0x24
 11151 0f10 75       		.byte	0x75
 11152 0f11 00       		.sleb128 0
 11153 0f12 22       		.byte	0x22
 11154 0f13 06       		.byte	0x6
 11155 0f14 27       		.byte	0x27
 11156 0f15 7D       		.byte	0x7d
 11157 0f16 00       		.sleb128 0
 11158 0f17 06       		.byte	0x6
 11159 0f18 34       		.byte	0x34
 11160 0f19 1C       		.byte	0x1c
 11161 0f1a 06       		.byte	0x6
 11162 0f1b 27       		.byte	0x27
 11163 0f1c 9F       		.byte	0x9f
 11164 0f1d 9C040000 		.4byte	.LVL140
 11165 0f21 B0040000 		.4byte	.LVL144
 11166 0f25 5300     		.2byte	0x53
 11167 0f27 91       		.byte	0x91
 11168 0f28 4C       		.sleb128 -52
 11169 0f29 06       		.byte	0x6
 11170 0f2a 40       		.byte	0x40
 11171 0f2b 25       		.byte	0x25
 11172 0f2c 08       		.byte	0x8
 11173 0f2d FF       		.byte	0xff
 11174 0f2e 1A       		.byte	0x1a
 11175 0f2f 23       		.byte	0x23
 11176 0f30 8002     		.uleb128 0x100
ARM GAS  C:\Users\ddemidov\AppData\Local\Temp\ccTwWFqA.s 			page 248


 11177 0f32 32       		.byte	0x32
 11178 0f33 24       		.byte	0x24
 11179 0f34 03       		.byte	0x3
 11180 0f35 00140000 		.4byte	.LANCHOR1
 11181 0f39 22       		.byte	0x22
 11182 0f3a 06       		.byte	0x6
 11183 0f3b 91       		.byte	0x91
 11184 0f3c 48       		.sleb128 -56
 11185 0f3d 06       		.byte	0x6
 11186 0f3e 48       		.byte	0x48
 11187 0f3f 25       		.byte	0x25
 11188 0f40 32       		.byte	0x32
 11189 0f41 24       		.byte	0x24
 11190 0f42 03       		.byte	0x3
 11191 0f43 00140000 		.4byte	.LANCHOR1
 11192 0f47 22       		.byte	0x22
 11193 0f48 06       		.byte	0x6
 11194 0f49 27       		.byte	0x27
 11195 0f4a 91       		.byte	0x91
 11196 0f4b 50       		.sleb128 -48
 11197 0f4c 06       		.byte	0x6
 11198 0f4d 38       		.byte	0x38
 11199 0f4e 25       		.byte	0x25
 11200 0f4f 08       		.byte	0x8
 11201 0f50 FF       		.byte	0xff
 11202 0f51 1A       		.byte	0x1a
 11203 0f52 23       		.byte	0x23
 11204 0f53 8004     		.uleb128 0x200
 11205 0f55 32       		.byte	0x32
 11206 0f56 24       		.byte	0x24
 11207 0f57 03       		.byte	0x3
 11208 0f58 00140000 		.4byte	.LANCHOR1
 11209 0f5c 22       		.byte	0x22
 11210 0f5d 06       		.byte	0x6
 11211 0f5e 27       		.byte	0x27
 11212 0f5f 91       		.byte	0x91
 11213 0f60 54       		.sleb128 -44
 11214 0f61 06       		.byte	0x6
 11215 0f62 08       		.byte	0x8
 11216 0f63 FF       		.byte	0xff
 11217 0f64 1A       		.byte	0x1a
 11218 0f65 23       		.byte	0x23
 11219 0f66 8006     		.uleb128 0x300
 11220 0f68 32       		.byte	0x32
 11221 0f69 24       		.byte	0x24
 11222 0f6a 03       		.byte	0x3
 11223 0f6b 00140000 		.4byte	.LANCHOR1
 11224 0f6f 22       		.byte	0x22
 11225 0f70 06       		.byte	0x6
 11226 0f71 27       		.byte	0x27
 11227 0f72 7D       		.byte	0x7d
 11228 0f73 00       		.sleb128 0
 11229 0f74 06       		.byte	0x6
 11230 0f75 34       		.byte	0x34
 11231 0f76 1C       		.byte	0x1c
 11232 0f77 06       		.byte	0x6
 11233 0f78 27       		.byte	0x27
ARM GAS  C:\Users\ddemidov\AppData\Local\Temp\ccTwWFqA.s 			page 249


 11234 0f79 9F       		.byte	0x9f
 11235 0f7a 00000000 		.4byte	0
 11236 0f7e 00000000 		.4byte	0
 11237              	.LLST40:
 11238 0f82 16000000 		.4byte	.LVL83
 11239 0f86 1A000000 		.4byte	.LVL85
 11240 0f8a 0100     		.2byte	0x1
 11241 0f8c 53       		.byte	0x53
 11242 0f8d 1A000000 		.4byte	.LVL85
 11243 0f91 08030000 		.4byte	.LVL126
 11244 0f95 0100     		.2byte	0x1
 11245 0f97 58       		.byte	0x58
 11246 0f98 08030000 		.4byte	.LVL126
 11247 0f9c 0C030000 		.4byte	.LVL127
 11248 0fa0 0100     		.2byte	0x1
 11249 0fa2 53       		.byte	0x53
 11250 0fa3 0C030000 		.4byte	.LVL127
 11251 0fa7 32030000 		.4byte	.LVL130
 11252 0fab 0100     		.2byte	0x1
 11253 0fad 58       		.byte	0x58
 11254 0fae 00000000 		.4byte	0
 11255 0fb2 00000000 		.4byte	0
 11256              	.LLST41:
 11257 0fb6 18000000 		.4byte	.LVL84
 11258 0fba 28000000 		.4byte	.LVL86
 11259 0fbe 0100     		.2byte	0x1
 11260 0fc0 50       		.byte	0x50
 11261 0fc1 28000000 		.4byte	.LVL86
 11262 0fc5 B2000000 		.4byte	.LVL114
 11263 0fc9 0100     		.2byte	0x1
 11264 0fcb 54       		.byte	0x54
 11265 0fcc B2000000 		.4byte	.LVL114
 11266 0fd0 0E030000 		.4byte	.LVL128
 11267 0fd4 0100     		.2byte	0x1
 11268 0fd6 56       		.byte	0x56
 11269 0fd7 0E030000 		.4byte	.LVL128
 11270 0fdb 94030000 		.4byte	.LVL133
 11271 0fdf 0100     		.2byte	0x1
 11272 0fe1 5B       		.byte	0x5b
 11273 0fe2 94030000 		.4byte	.LVL133
 11274 0fe6 14050000 		.4byte	.LVL162
 11275 0fea 0200     		.2byte	0x2
 11276 0fec 7D       		.byte	0x7d
 11277 0fed 00       		.sleb128 0
 11278 0fee 14050000 		.4byte	.LVL162
 11279 0ff2 2C050000 		.4byte	.LFE13
 11280 0ff6 0300     		.2byte	0x3
 11281 0ff8 91       		.byte	0x91
 11282 0ff9 B87F     		.sleb128 -72
 11283 0ffb 00000000 		.4byte	0
 11284 0fff 00000000 		.4byte	0
 11285              	.LLST42:
 11286 1003 52000000 		.4byte	.LVL92
 11287 1007 60000000 		.4byte	.LVL94
 11288 100b 0100     		.2byte	0x1
 11289 100d 52       		.byte	0x52
 11290 100e 60000000 		.4byte	.LVL94
ARM GAS  C:\Users\ddemidov\AppData\Local\Temp\ccTwWFqA.s 			page 250


 11291 1012 64000000 		.4byte	.LVL95
 11292 1016 0200     		.2byte	0x2
 11293 1018 91       		.byte	0x91
 11294 1019 54       		.sleb128 -44
 11295 101a 64000000 		.4byte	.LVL95
 11296 101e 68000000 		.4byte	.LVL96
 11297 1022 0100     		.2byte	0x1
 11298 1024 55       		.byte	0x55
 11299 1025 68000000 		.4byte	.LVL96
 11300 1029 6A000000 		.4byte	.LVL97
 11301 102d 0C00     		.2byte	0xc
 11302 102f 7C       		.byte	0x7c
 11303 1030 00       		.sleb128 0
 11304 1031 91       		.byte	0x91
 11305 1032 54       		.sleb128 -44
 11306 1033 06       		.byte	0x6
 11307 1034 1A       		.byte	0x1a
 11308 1035 38       		.byte	0x38
 11309 1036 25       		.byte	0x25
 11310 1037 72       		.byte	0x72
 11311 1038 00       		.sleb128 0
 11312 1039 21       		.byte	0x21
 11313 103a 9F       		.byte	0x9f
 11314 103b 6A000000 		.4byte	.LVL97
 11315 103f 92000000 		.4byte	.LVL106
 11316 1043 1200     		.2byte	0x12
 11317 1045 7C       		.byte	0x7c
 11318 1046 00       		.sleb128 0
 11319 1047 91       		.byte	0x91
 11320 1048 54       		.sleb128 -44
 11321 1049 06       		.byte	0x6
 11322 104a 1A       		.byte	0x1a
 11323 104b 38       		.byte	0x38
 11324 104c 25       		.byte	0x25
 11325 104d 91       		.byte	0x91
 11326 104e 54       		.sleb128 -44
 11327 104f 06       		.byte	0x6
 11328 1050 73       		.byte	0x73
 11329 1051 00       		.sleb128 0
 11330 1052 1A       		.byte	0x1a
 11331 1053 38       		.byte	0x38
 11332 1054 24       		.byte	0x24
 11333 1055 21       		.byte	0x21
 11334 1056 9F       		.byte	0x9f
 11335 1057 92000000 		.4byte	.LVL106
 11336 105b 9E000000 		.4byte	.LVL110
 11337 105f 1500     		.2byte	0x15
 11338 1061 7C       		.byte	0x7c
 11339 1062 00       		.sleb128 0
 11340 1063 91       		.byte	0x91
 11341 1064 54       		.sleb128 -44
 11342 1065 06       		.byte	0x6
 11343 1066 1A       		.byte	0x1a
 11344 1067 38       		.byte	0x38
 11345 1068 25       		.byte	0x25
 11346 1069 91       		.byte	0x91
 11347 106a 54       		.sleb128 -44
ARM GAS  C:\Users\ddemidov\AppData\Local\Temp\ccTwWFqA.s 			page 251


 11348 106b 06       		.byte	0x6
 11349 106c 0C       		.byte	0xc
 11350 106d FF00FF00 		.4byte	0xff00ff
 11351 1071 1A       		.byte	0x1a
 11352 1072 38       		.byte	0x38
 11353 1073 24       		.byte	0x24
 11354 1074 21       		.byte	0x21
 11355 1075 9F       		.byte	0x9f
 11356 1076 00000000 		.4byte	0
 11357 107a 00000000 		.4byte	0
 11358              	.LLST43:
 11359 107e 64000000 		.4byte	.LVL95
 11360 1082 12050000 		.4byte	.LVL161
 11361 1086 0200     		.2byte	0x2
 11362 1088 40       		.byte	0x40
 11363 1089 9F       		.byte	0x9f
 11364 108a 00000000 		.4byte	0
 11365 108e 00000000 		.4byte	0
 11366              	.LLST44:
 11367 1092 64000000 		.4byte	.LVL95
 11368 1096 68000000 		.4byte	.LVL96
 11369 109a 0100     		.2byte	0x1
 11370 109c 55       		.byte	0x55
 11371 109d 68000000 		.4byte	.LVL96
 11372 10a1 6A000000 		.4byte	.LVL97
 11373 10a5 0C00     		.2byte	0xc
 11374 10a7 7C       		.byte	0x7c
 11375 10a8 00       		.sleb128 0
 11376 10a9 91       		.byte	0x91
 11377 10aa 54       		.sleb128 -44
 11378 10ab 06       		.byte	0x6
 11379 10ac 1A       		.byte	0x1a
 11380 10ad 38       		.byte	0x38
 11381 10ae 25       		.byte	0x25
 11382 10af 72       		.byte	0x72
 11383 10b0 00       		.sleb128 0
 11384 10b1 21       		.byte	0x21
 11385 10b2 9F       		.byte	0x9f
 11386 10b3 6A000000 		.4byte	.LVL97
 11387 10b7 92000000 		.4byte	.LVL106
 11388 10bb 1200     		.2byte	0x12
 11389 10bd 7C       		.byte	0x7c
 11390 10be 00       		.sleb128 0
 11391 10bf 91       		.byte	0x91
 11392 10c0 54       		.sleb128 -44
 11393 10c1 06       		.byte	0x6
 11394 10c2 1A       		.byte	0x1a
 11395 10c3 38       		.byte	0x38
 11396 10c4 25       		.byte	0x25
 11397 10c5 91       		.byte	0x91
 11398 10c6 54       		.sleb128 -44
 11399 10c7 06       		.byte	0x6
 11400 10c8 73       		.byte	0x73
 11401 10c9 00       		.sleb128 0
 11402 10ca 1A       		.byte	0x1a
 11403 10cb 38       		.byte	0x38
 11404 10cc 24       		.byte	0x24
ARM GAS  C:\Users\ddemidov\AppData\Local\Temp\ccTwWFqA.s 			page 252


 11405 10cd 21       		.byte	0x21
 11406 10ce 9F       		.byte	0x9f
 11407 10cf 92000000 		.4byte	.LVL106
 11408 10d3 9E000000 		.4byte	.LVL110
 11409 10d7 1500     		.2byte	0x15
 11410 10d9 7C       		.byte	0x7c
 11411 10da 00       		.sleb128 0
 11412 10db 91       		.byte	0x91
 11413 10dc 54       		.sleb128 -44
 11414 10dd 06       		.byte	0x6
 11415 10de 1A       		.byte	0x1a
 11416 10df 38       		.byte	0x38
 11417 10e0 25       		.byte	0x25
 11418 10e1 91       		.byte	0x91
 11419 10e2 54       		.sleb128 -44
 11420 10e3 06       		.byte	0x6
 11421 10e4 0C       		.byte	0xc
 11422 10e5 FF00FF00 		.4byte	0xff00ff
 11423 10e9 1A       		.byte	0x1a
 11424 10ea 38       		.byte	0x38
 11425 10eb 24       		.byte	0x24
 11426 10ec 21       		.byte	0x21
 11427 10ed 9F       		.byte	0x9f
 11428 10ee 00000000 		.4byte	0
 11429 10f2 00000000 		.4byte	0
 11430              	.LLST45:
 11431 10f6 6A000000 		.4byte	.LVL97
 11432 10fa 72000000 		.4byte	.LVL98
 11433 10fe 0100     		.2byte	0x1
 11434 1100 52       		.byte	0x52
 11435 1101 72000000 		.4byte	.LVL98
 11436 1105 76000000 		.4byte	.LVL99
 11437 1109 0200     		.2byte	0x2
 11438 110b 91       		.byte	0x91
 11439 110c 50       		.sleb128 -48
 11440 110d 76000000 		.4byte	.LVL99
 11441 1111 78000000 		.4byte	.LVL100
 11442 1115 0100     		.2byte	0x1
 11443 1117 51       		.byte	0x51
 11444 1118 78000000 		.4byte	.LVL100
 11445 111c 7A000000 		.4byte	.LVL101
 11446 1120 0C00     		.2byte	0xc
 11447 1122 7C       		.byte	0x7c
 11448 1123 00       		.sleb128 0
 11449 1124 91       		.byte	0x91
 11450 1125 50       		.sleb128 -48
 11451 1126 06       		.byte	0x6
 11452 1127 1A       		.byte	0x1a
 11453 1128 38       		.byte	0x38
 11454 1129 25       		.byte	0x25
 11455 112a 72       		.byte	0x72
 11456 112b 00       		.sleb128 0
 11457 112c 21       		.byte	0x21
 11458 112d 9F       		.byte	0x9f
 11459 112e 7A000000 		.4byte	.LVL101
 11460 1132 92000000 		.4byte	.LVL106
 11461 1136 1200     		.2byte	0x12
ARM GAS  C:\Users\ddemidov\AppData\Local\Temp\ccTwWFqA.s 			page 253


 11462 1138 7C       		.byte	0x7c
 11463 1139 00       		.sleb128 0
 11464 113a 91       		.byte	0x91
 11465 113b 50       		.sleb128 -48
 11466 113c 06       		.byte	0x6
 11467 113d 1A       		.byte	0x1a
 11468 113e 38       		.byte	0x38
 11469 113f 25       		.byte	0x25
 11470 1140 91       		.byte	0x91
 11471 1141 50       		.sleb128 -48
 11472 1142 06       		.byte	0x6
 11473 1143 73       		.byte	0x73
 11474 1144 00       		.sleb128 0
 11475 1145 1A       		.byte	0x1a
 11476 1146 38       		.byte	0x38
 11477 1147 24       		.byte	0x24
 11478 1148 21       		.byte	0x21
 11479 1149 9F       		.byte	0x9f
 11480 114a 92000000 		.4byte	.LVL106
 11481 114e A4000000 		.4byte	.LVL111
 11482 1152 1500     		.2byte	0x15
 11483 1154 7C       		.byte	0x7c
 11484 1155 00       		.sleb128 0
 11485 1156 91       		.byte	0x91
 11486 1157 50       		.sleb128 -48
 11487 1158 06       		.byte	0x6
 11488 1159 1A       		.byte	0x1a
 11489 115a 38       		.byte	0x38
 11490 115b 25       		.byte	0x25
 11491 115c 91       		.byte	0x91
 11492 115d 50       		.sleb128 -48
 11493 115e 06       		.byte	0x6
 11494 115f 0C       		.byte	0xc
 11495 1160 FF00FF00 		.4byte	0xff00ff
 11496 1164 1A       		.byte	0x1a
 11497 1165 38       		.byte	0x38
 11498 1166 24       		.byte	0x24
 11499 1167 21       		.byte	0x21
 11500 1168 9F       		.byte	0x9f
 11501 1169 00000000 		.4byte	0
 11502 116d 00000000 		.4byte	0
 11503              	.LLST46:
 11504 1171 76000000 		.4byte	.LVL99
 11505 1175 12050000 		.4byte	.LVL161
 11506 1179 0200     		.2byte	0x2
 11507 117b 40       		.byte	0x40
 11508 117c 9F       		.byte	0x9f
 11509 117d 00000000 		.4byte	0
 11510 1181 00000000 		.4byte	0
 11511              	.LLST47:
 11512 1185 76000000 		.4byte	.LVL99
 11513 1189 78000000 		.4byte	.LVL100
 11514 118d 0100     		.2byte	0x1
 11515 118f 51       		.byte	0x51
 11516 1190 78000000 		.4byte	.LVL100
 11517 1194 7A000000 		.4byte	.LVL101
 11518 1198 0C00     		.2byte	0xc
ARM GAS  C:\Users\ddemidov\AppData\Local\Temp\ccTwWFqA.s 			page 254


 11519 119a 7C       		.byte	0x7c
 11520 119b 00       		.sleb128 0
 11521 119c 91       		.byte	0x91
 11522 119d 50       		.sleb128 -48
 11523 119e 06       		.byte	0x6
 11524 119f 1A       		.byte	0x1a
 11525 11a0 38       		.byte	0x38
 11526 11a1 25       		.byte	0x25
 11527 11a2 72       		.byte	0x72
 11528 11a3 00       		.sleb128 0
 11529 11a4 21       		.byte	0x21
 11530 11a5 9F       		.byte	0x9f
 11531 11a6 7A000000 		.4byte	.LVL101
 11532 11aa 92000000 		.4byte	.LVL106
 11533 11ae 1200     		.2byte	0x12
 11534 11b0 7C       		.byte	0x7c
 11535 11b1 00       		.sleb128 0
 11536 11b2 91       		.byte	0x91
 11537 11b3 50       		.sleb128 -48
 11538 11b4 06       		.byte	0x6
 11539 11b5 1A       		.byte	0x1a
 11540 11b6 38       		.byte	0x38
 11541 11b7 25       		.byte	0x25
 11542 11b8 91       		.byte	0x91
 11543 11b9 50       		.sleb128 -48
 11544 11ba 06       		.byte	0x6
 11545 11bb 73       		.byte	0x73
 11546 11bc 00       		.sleb128 0
 11547 11bd 1A       		.byte	0x1a
 11548 11be 38       		.byte	0x38
 11549 11bf 24       		.byte	0x24
 11550 11c0 21       		.byte	0x21
 11551 11c1 9F       		.byte	0x9f
 11552 11c2 92000000 		.4byte	.LVL106
 11553 11c6 A4000000 		.4byte	.LVL111
 11554 11ca 1500     		.2byte	0x15
 11555 11cc 7C       		.byte	0x7c
 11556 11cd 00       		.sleb128 0
 11557 11ce 91       		.byte	0x91
 11558 11cf 50       		.sleb128 -48
 11559 11d0 06       		.byte	0x6
 11560 11d1 1A       		.byte	0x1a
 11561 11d2 38       		.byte	0x38
 11562 11d3 25       		.byte	0x25
 11563 11d4 91       		.byte	0x91
 11564 11d5 50       		.sleb128 -48
 11565 11d6 06       		.byte	0x6
 11566 11d7 0C       		.byte	0xc
 11567 11d8 FF00FF00 		.4byte	0xff00ff
 11568 11dc 1A       		.byte	0x1a
 11569 11dd 38       		.byte	0x38
 11570 11de 24       		.byte	0x24
 11571 11df 21       		.byte	0x21
 11572 11e0 9F       		.byte	0x9f
 11573 11e1 00000000 		.4byte	0
 11574 11e5 00000000 		.4byte	0
 11575              	.LLST48:
ARM GAS  C:\Users\ddemidov\AppData\Local\Temp\ccTwWFqA.s 			page 255


 11576 11e9 7A000000 		.4byte	.LVL101
 11577 11ed 82000000 		.4byte	.LVL102
 11578 11f1 0100     		.2byte	0x1
 11579 11f3 52       		.byte	0x52
 11580 11f4 82000000 		.4byte	.LVL102
 11581 11f8 86000000 		.4byte	.LVL103
 11582 11fc 0200     		.2byte	0x2
 11583 11fe 91       		.byte	0x91
 11584 11ff 4C       		.sleb128 -52
 11585 1200 86000000 		.4byte	.LVL103
 11586 1204 88000000 		.4byte	.LVL104
 11587 1208 0100     		.2byte	0x1
 11588 120a 52       		.byte	0x52
 11589 120b 88000000 		.4byte	.LVL104
 11590 120f 8A000000 		.4byte	.LVL105
 11591 1213 0C00     		.2byte	0xc
 11592 1215 91       		.byte	0x91
 11593 1216 4C       		.sleb128 -52
 11594 1217 06       		.byte	0x6
 11595 1218 73       		.byte	0x73
 11596 1219 00       		.sleb128 0
 11597 121a 1A       		.byte	0x1a
 11598 121b 38       		.byte	0x38
 11599 121c 24       		.byte	0x24
 11600 121d 70       		.byte	0x70
 11601 121e 00       		.sleb128 0
 11602 121f 21       		.byte	0x21
 11603 1220 9F       		.byte	0x9f
 11604 1221 8A000000 		.4byte	.LVL105
 11605 1225 92000000 		.4byte	.LVL106
 11606 1229 1200     		.2byte	0x12
 11607 122b 91       		.byte	0x91
 11608 122c 4C       		.sleb128 -52
 11609 122d 06       		.byte	0x6
 11610 122e 73       		.byte	0x73
 11611 122f 00       		.sleb128 0
 11612 1230 1A       		.byte	0x1a
 11613 1231 38       		.byte	0x38
 11614 1232 24       		.byte	0x24
 11615 1233 7C       		.byte	0x7c
 11616 1234 00       		.sleb128 0
 11617 1235 91       		.byte	0x91
 11618 1236 4C       		.sleb128 -52
 11619 1237 06       		.byte	0x6
 11620 1238 1A       		.byte	0x1a
 11621 1239 38       		.byte	0x38
 11622 123a 25       		.byte	0x25
 11623 123b 21       		.byte	0x21
 11624 123c 9F       		.byte	0x9f
 11625 123d 92000000 		.4byte	.LVL106
 11626 1241 AA000000 		.4byte	.LVL112
 11627 1245 1500     		.2byte	0x15
 11628 1247 91       		.byte	0x91
 11629 1248 4C       		.sleb128 -52
 11630 1249 06       		.byte	0x6
 11631 124a 0C       		.byte	0xc
 11632 124b FF00FF00 		.4byte	0xff00ff
ARM GAS  C:\Users\ddemidov\AppData\Local\Temp\ccTwWFqA.s 			page 256


 11633 124f 1A       		.byte	0x1a
 11634 1250 38       		.byte	0x38
 11635 1251 24       		.byte	0x24
 11636 1252 7C       		.byte	0x7c
 11637 1253 00       		.sleb128 0
 11638 1254 91       		.byte	0x91
 11639 1255 4C       		.sleb128 -52
 11640 1256 06       		.byte	0x6
 11641 1257 1A       		.byte	0x1a
 11642 1258 38       		.byte	0x38
 11643 1259 25       		.byte	0x25
 11644 125a 21       		.byte	0x21
 11645 125b 9F       		.byte	0x9f
 11646 125c 00000000 		.4byte	0
 11647 1260 00000000 		.4byte	0
 11648              	.LLST49:
 11649 1264 86000000 		.4byte	.LVL103
 11650 1268 12050000 		.4byte	.LVL161
 11651 126c 0200     		.2byte	0x2
 11652 126e 40       		.byte	0x40
 11653 126f 9F       		.byte	0x9f
 11654 1270 00000000 		.4byte	0
 11655 1274 00000000 		.4byte	0
 11656              	.LLST50:
 11657 1278 86000000 		.4byte	.LVL103
 11658 127c 88000000 		.4byte	.LVL104
 11659 1280 0100     		.2byte	0x1
 11660 1282 52       		.byte	0x52
 11661 1283 88000000 		.4byte	.LVL104
 11662 1287 8A000000 		.4byte	.LVL105
 11663 128b 0C00     		.2byte	0xc
 11664 128d 91       		.byte	0x91
 11665 128e 4C       		.sleb128 -52
 11666 128f 06       		.byte	0x6
 11667 1290 73       		.byte	0x73
 11668 1291 00       		.sleb128 0
 11669 1292 1A       		.byte	0x1a
 11670 1293 38       		.byte	0x38
 11671 1294 24       		.byte	0x24
 11672 1295 70       		.byte	0x70
 11673 1296 00       		.sleb128 0
 11674 1297 21       		.byte	0x21
 11675 1298 9F       		.byte	0x9f
 11676 1299 8A000000 		.4byte	.LVL105
 11677 129d 92000000 		.4byte	.LVL106
 11678 12a1 1200     		.2byte	0x12
 11679 12a3 91       		.byte	0x91
 11680 12a4 4C       		.sleb128 -52
 11681 12a5 06       		.byte	0x6
 11682 12a6 73       		.byte	0x73
 11683 12a7 00       		.sleb128 0
 11684 12a8 1A       		.byte	0x1a
 11685 12a9 38       		.byte	0x38
 11686 12aa 24       		.byte	0x24
 11687 12ab 7C       		.byte	0x7c
 11688 12ac 00       		.sleb128 0
 11689 12ad 91       		.byte	0x91
ARM GAS  C:\Users\ddemidov\AppData\Local\Temp\ccTwWFqA.s 			page 257


 11690 12ae 4C       		.sleb128 -52
 11691 12af 06       		.byte	0x6
 11692 12b0 1A       		.byte	0x1a
 11693 12b1 38       		.byte	0x38
 11694 12b2 25       		.byte	0x25
 11695 12b3 21       		.byte	0x21
 11696 12b4 9F       		.byte	0x9f
 11697 12b5 92000000 		.4byte	.LVL106
 11698 12b9 AA000000 		.4byte	.LVL112
 11699 12bd 1500     		.2byte	0x15
 11700 12bf 91       		.byte	0x91
 11701 12c0 4C       		.sleb128 -52
 11702 12c1 06       		.byte	0x6
 11703 12c2 0C       		.byte	0xc
 11704 12c3 FF00FF00 		.4byte	0xff00ff
 11705 12c7 1A       		.byte	0x1a
 11706 12c8 38       		.byte	0x38
 11707 12c9 24       		.byte	0x24
 11708 12ca 7C       		.byte	0x7c
 11709 12cb 00       		.sleb128 0
 11710 12cc 91       		.byte	0x91
 11711 12cd 4C       		.sleb128 -52
 11712 12ce 06       		.byte	0x6
 11713 12cf 1A       		.byte	0x1a
 11714 12d0 38       		.byte	0x38
 11715 12d1 25       		.byte	0x25
 11716 12d2 21       		.byte	0x21
 11717 12d3 9F       		.byte	0x9f
 11718 12d4 00000000 		.4byte	0
 11719 12d8 00000000 		.4byte	0
 11720              	.LLST51:
 11721 12dc 88000000 		.4byte	.LVL104
 11722 12e0 96000000 		.4byte	.LVL107
 11723 12e4 0200     		.2byte	0x2
 11724 12e6 91       		.byte	0x91
 11725 12e7 48       		.sleb128 -56
 11726 12e8 96000000 		.4byte	.LVL107
 11727 12ec 98000000 		.4byte	.LVL108
 11728 12f0 0100     		.2byte	0x1
 11729 12f2 53       		.byte	0x53
 11730 12f3 98000000 		.4byte	.LVL108
 11731 12f7 9A000000 		.4byte	.LVL109
 11732 12fb 0F00     		.2byte	0xf
 11733 12fd 91       		.byte	0x91
 11734 12fe 48       		.sleb128 -56
 11735 12ff 06       		.byte	0x6
 11736 1300 0C       		.byte	0xc
 11737 1301 FF00FF00 		.4byte	0xff00ff
 11738 1305 1A       		.byte	0x1a
 11739 1306 38       		.byte	0x38
 11740 1307 24       		.byte	0x24
 11741 1308 70       		.byte	0x70
 11742 1309 00       		.sleb128 0
 11743 130a 21       		.byte	0x21
 11744 130b 9F       		.byte	0x9f
 11745 130c 9A000000 		.4byte	.LVL109
 11746 1310 B0000000 		.4byte	.LVL113
ARM GAS  C:\Users\ddemidov\AppData\Local\Temp\ccTwWFqA.s 			page 258


 11747 1314 1500     		.2byte	0x15
 11748 1316 91       		.byte	0x91
 11749 1317 48       		.sleb128 -56
 11750 1318 06       		.byte	0x6
 11751 1319 0C       		.byte	0xc
 11752 131a FF00FF00 		.4byte	0xff00ff
 11753 131e 1A       		.byte	0x1a
 11754 131f 38       		.byte	0x38
 11755 1320 24       		.byte	0x24
 11756 1321 7C       		.byte	0x7c
 11757 1322 00       		.sleb128 0
 11758 1323 91       		.byte	0x91
 11759 1324 48       		.sleb128 -56
 11760 1325 06       		.byte	0x6
 11761 1326 1A       		.byte	0x1a
 11762 1327 38       		.byte	0x38
 11763 1328 25       		.byte	0x25
 11764 1329 21       		.byte	0x21
 11765 132a 9F       		.byte	0x9f
 11766 132b B0000000 		.4byte	.LVL113
 11767 132f B2000000 		.4byte	.LVL114
 11768 1333 1300     		.2byte	0x13
 11769 1335 76       		.byte	0x76
 11770 1336 00       		.sleb128 0
 11771 1337 0C       		.byte	0xc
 11772 1338 FF00FF00 		.4byte	0xff00ff
 11773 133c 1A       		.byte	0x1a
 11774 133d 38       		.byte	0x38
 11775 133e 24       		.byte	0x24
 11776 133f 7C       		.byte	0x7c
 11777 1340 00       		.sleb128 0
 11778 1341 76       		.byte	0x76
 11779 1342 00       		.sleb128 0
 11780 1343 1A       		.byte	0x1a
 11781 1344 38       		.byte	0x38
 11782 1345 25       		.byte	0x25
 11783 1346 21       		.byte	0x21
 11784 1347 9F       		.byte	0x9f
 11785 1348 00000000 		.4byte	0
 11786 134c 00000000 		.4byte	0
 11787              	.LLST52:
 11788 1350 96000000 		.4byte	.LVL107
 11789 1354 12050000 		.4byte	.LVL161
 11790 1358 0200     		.2byte	0x2
 11791 135a 40       		.byte	0x40
 11792 135b 9F       		.byte	0x9f
 11793 135c 00000000 		.4byte	0
 11794 1360 00000000 		.4byte	0
 11795              	.LLST53:
 11796 1364 96000000 		.4byte	.LVL107
 11797 1368 98000000 		.4byte	.LVL108
 11798 136c 0100     		.2byte	0x1
 11799 136e 53       		.byte	0x53
 11800 136f 98000000 		.4byte	.LVL108
 11801 1373 9A000000 		.4byte	.LVL109
 11802 1377 0F00     		.2byte	0xf
 11803 1379 91       		.byte	0x91
ARM GAS  C:\Users\ddemidov\AppData\Local\Temp\ccTwWFqA.s 			page 259


 11804 137a 48       		.sleb128 -56
 11805 137b 06       		.byte	0x6
 11806 137c 0C       		.byte	0xc
 11807 137d FF00FF00 		.4byte	0xff00ff
 11808 1381 1A       		.byte	0x1a
 11809 1382 38       		.byte	0x38
 11810 1383 24       		.byte	0x24
 11811 1384 70       		.byte	0x70
 11812 1385 00       		.sleb128 0
 11813 1386 21       		.byte	0x21
 11814 1387 9F       		.byte	0x9f
 11815 1388 9A000000 		.4byte	.LVL109
 11816 138c B0000000 		.4byte	.LVL113
 11817 1390 1500     		.2byte	0x15
 11818 1392 91       		.byte	0x91
 11819 1393 48       		.sleb128 -56
 11820 1394 06       		.byte	0x6
 11821 1395 0C       		.byte	0xc
 11822 1396 FF00FF00 		.4byte	0xff00ff
 11823 139a 1A       		.byte	0x1a
 11824 139b 38       		.byte	0x38
 11825 139c 24       		.byte	0x24
 11826 139d 7C       		.byte	0x7c
 11827 139e 00       		.sleb128 0
 11828 139f 91       		.byte	0x91
 11829 13a0 48       		.sleb128 -56
 11830 13a1 06       		.byte	0x6
 11831 13a2 1A       		.byte	0x1a
 11832 13a3 38       		.byte	0x38
 11833 13a4 25       		.byte	0x25
 11834 13a5 21       		.byte	0x21
 11835 13a6 9F       		.byte	0x9f
 11836 13a7 B0000000 		.4byte	.LVL113
 11837 13ab B2000000 		.4byte	.LVL114
 11838 13af 1300     		.2byte	0x13
 11839 13b1 76       		.byte	0x76
 11840 13b2 00       		.sleb128 0
 11841 13b3 0C       		.byte	0xc
 11842 13b4 FF00FF00 		.4byte	0xff00ff
 11843 13b8 1A       		.byte	0x1a
 11844 13b9 38       		.byte	0x38
 11845 13ba 24       		.byte	0x24
 11846 13bb 7C       		.byte	0x7c
 11847 13bc 00       		.sleb128 0
 11848 13bd 76       		.byte	0x76
 11849 13be 00       		.sleb128 0
 11850 13bf 1A       		.byte	0x1a
 11851 13c0 38       		.byte	0x38
 11852 13c1 25       		.byte	0x25
 11853 13c2 21       		.byte	0x21
 11854 13c3 9F       		.byte	0x9f
 11855 13c4 00000000 		.4byte	0
 11856 13c8 00000000 		.4byte	0
 11857              	.LLST54:
 11858 13cc 9A040000 		.4byte	.LVL139
 11859 13d0 A6040000 		.4byte	.LVL141
 11860 13d4 0100     		.2byte	0x1
ARM GAS  C:\Users\ddemidov\AppData\Local\Temp\ccTwWFqA.s 			page 260


 11861 13d6 57       		.byte	0x57
 11862 13d7 AA040000 		.4byte	.LVL142
 11863 13db AE040000 		.4byte	.LVL143
 11864 13df 0100     		.2byte	0x1
 11865 13e1 57       		.byte	0x57
 11866 13e2 00000000 		.4byte	0
 11867 13e6 00000000 		.4byte	0
 11868              	.LLST55:
 11869 13ea AA040000 		.4byte	.LVL142
 11870 13ee 12050000 		.4byte	.LVL161
 11871 13f2 0200     		.2byte	0x2
 11872 13f4 40       		.byte	0x40
 11873 13f5 9F       		.byte	0x9f
 11874 13f6 00000000 		.4byte	0
 11875 13fa 00000000 		.4byte	0
 11876              	.LLST56:
 11877 13fe AA040000 		.4byte	.LVL142
 11878 1402 AE040000 		.4byte	.LVL143
 11879 1406 0100     		.2byte	0x1
 11880 1408 57       		.byte	0x57
 11881 1409 00000000 		.4byte	0
 11882 140d 00000000 		.4byte	0
 11883              	.LLST57:
 11884 1411 B0040000 		.4byte	.LVL144
 11885 1415 C0040000 		.4byte	.LVL145
 11886 1419 0200     		.2byte	0x2
 11887 141b 91       		.byte	0x91
 11888 141c 40       		.sleb128 -64
 11889 141d C0040000 		.4byte	.LVL145
 11890 1421 C2040000 		.4byte	.LVL146
 11891 1425 0100     		.2byte	0x1
 11892 1427 52       		.byte	0x52
 11893 1428 C2040000 		.4byte	.LVL146
 11894 142c CA040000 		.4byte	.LVL148
 11895 1430 0C00     		.2byte	0xc
 11896 1432 91       		.byte	0x91
 11897 1433 40       		.sleb128 -64
 11898 1434 06       		.byte	0x6
 11899 1435 73       		.byte	0x73
 11900 1436 00       		.sleb128 0
 11901 1437 1A       		.byte	0x1a
 11902 1438 38       		.byte	0x38
 11903 1439 24       		.byte	0x24
 11904 143a 74       		.byte	0x74
 11905 143b 00       		.sleb128 0
 11906 143c 21       		.byte	0x21
 11907 143d 9F       		.byte	0x9f
 11908 143e CA040000 		.4byte	.LVL148
 11909 1442 D8040000 		.4byte	.LVL152
 11910 1446 1200     		.2byte	0x12
 11911 1448 91       		.byte	0x91
 11912 1449 40       		.sleb128 -64
 11913 144a 06       		.byte	0x6
 11914 144b 73       		.byte	0x73
 11915 144c 00       		.sleb128 0
 11916 144d 1A       		.byte	0x1a
 11917 144e 38       		.byte	0x38
ARM GAS  C:\Users\ddemidov\AppData\Local\Temp\ccTwWFqA.s 			page 261


 11918 144f 24       		.byte	0x24
 11919 1450 91       		.byte	0x91
 11920 1451 40       		.sleb128 -64
 11921 1452 06       		.byte	0x6
 11922 1453 75       		.byte	0x75
 11923 1454 00       		.sleb128 0
 11924 1455 1A       		.byte	0x1a
 11925 1456 38       		.byte	0x38
 11926 1457 25       		.byte	0x25
 11927 1458 21       		.byte	0x21
 11928 1459 9F       		.byte	0x9f
 11929 145a D8040000 		.4byte	.LVL152
 11930 145e DC040000 		.4byte	.LVL153
 11931 1462 1500     		.2byte	0x15
 11932 1464 91       		.byte	0x91
 11933 1465 40       		.sleb128 -64
 11934 1466 06       		.byte	0x6
 11935 1467 73       		.byte	0x73
 11936 1468 00       		.sleb128 0
 11937 1469 1A       		.byte	0x1a
 11938 146a 38       		.byte	0x38
 11939 146b 24       		.byte	0x24
 11940 146c 91       		.byte	0x91
 11941 146d 40       		.sleb128 -64
 11942 146e 06       		.byte	0x6
 11943 146f 11       		.byte	0x11
 11944 1470 80FE8378 		.sleb128 -16711936
 11945 1474 1A       		.byte	0x1a
 11946 1475 38       		.byte	0x38
 11947 1476 25       		.byte	0x25
 11948 1477 21       		.byte	0x21
 11949 1478 9F       		.byte	0x9f
 11950 1479 DC040000 		.4byte	.LVL153
 11951 147d 12050000 		.4byte	.LVL161
 11952 1481 1800     		.2byte	0x18
 11953 1483 91       		.byte	0x91
 11954 1484 40       		.sleb128 -64
 11955 1485 06       		.byte	0x6
 11956 1486 0C       		.byte	0xc
 11957 1487 FF00FF00 		.4byte	0xff00ff
 11958 148b 1A       		.byte	0x1a
 11959 148c 38       		.byte	0x38
 11960 148d 24       		.byte	0x24
 11961 148e 91       		.byte	0x91
 11962 148f 40       		.sleb128 -64
 11963 1490 06       		.byte	0x6
 11964 1491 11       		.byte	0x11
 11965 1492 80FE8378 		.sleb128 -16711936
 11966 1496 1A       		.byte	0x1a
 11967 1497 38       		.byte	0x38
 11968 1498 25       		.byte	0x25
 11969 1499 21       		.byte	0x21
 11970 149a 9F       		.byte	0x9f
 11971 149b 00000000 		.4byte	0
 11972 149f 00000000 		.4byte	0
 11973              	.LLST58:
 11974 14a3 C0040000 		.4byte	.LVL145
ARM GAS  C:\Users\ddemidov\AppData\Local\Temp\ccTwWFqA.s 			page 262


 11975 14a7 12050000 		.4byte	.LVL161
 11976 14ab 0200     		.2byte	0x2
 11977 14ad 40       		.byte	0x40
 11978 14ae 9F       		.byte	0x9f
 11979 14af 00000000 		.4byte	0
 11980 14b3 00000000 		.4byte	0
 11981              	.LLST59:
 11982 14b7 C0040000 		.4byte	.LVL145
 11983 14bb C2040000 		.4byte	.LVL146
 11984 14bf 0100     		.2byte	0x1
 11985 14c1 52       		.byte	0x52
 11986 14c2 C2040000 		.4byte	.LVL146
 11987 14c6 CA040000 		.4byte	.LVL148
 11988 14ca 0C00     		.2byte	0xc
 11989 14cc 91       		.byte	0x91
 11990 14cd 40       		.sleb128 -64
 11991 14ce 06       		.byte	0x6
 11992 14cf 73       		.byte	0x73
 11993 14d0 00       		.sleb128 0
 11994 14d1 1A       		.byte	0x1a
 11995 14d2 38       		.byte	0x38
 11996 14d3 24       		.byte	0x24
 11997 14d4 74       		.byte	0x74
 11998 14d5 00       		.sleb128 0
 11999 14d6 21       		.byte	0x21
 12000 14d7 9F       		.byte	0x9f
 12001 14d8 CA040000 		.4byte	.LVL148
 12002 14dc D8040000 		.4byte	.LVL152
 12003 14e0 1200     		.2byte	0x12
 12004 14e2 91       		.byte	0x91
 12005 14e3 40       		.sleb128 -64
 12006 14e4 06       		.byte	0x6
 12007 14e5 73       		.byte	0x73
 12008 14e6 00       		.sleb128 0
 12009 14e7 1A       		.byte	0x1a
 12010 14e8 38       		.byte	0x38
 12011 14e9 24       		.byte	0x24
 12012 14ea 91       		.byte	0x91
 12013 14eb 40       		.sleb128 -64
 12014 14ec 06       		.byte	0x6
 12015 14ed 75       		.byte	0x75
 12016 14ee 00       		.sleb128 0
 12017 14ef 1A       		.byte	0x1a
 12018 14f0 38       		.byte	0x38
 12019 14f1 25       		.byte	0x25
 12020 14f2 21       		.byte	0x21
 12021 14f3 9F       		.byte	0x9f
 12022 14f4 D8040000 		.4byte	.LVL152
 12023 14f8 DC040000 		.4byte	.LVL153
 12024 14fc 1500     		.2byte	0x15
 12025 14fe 91       		.byte	0x91
 12026 14ff 40       		.sleb128 -64
 12027 1500 06       		.byte	0x6
 12028 1501 73       		.byte	0x73
 12029 1502 00       		.sleb128 0
 12030 1503 1A       		.byte	0x1a
 12031 1504 38       		.byte	0x38
ARM GAS  C:\Users\ddemidov\AppData\Local\Temp\ccTwWFqA.s 			page 263


 12032 1505 24       		.byte	0x24
 12033 1506 91       		.byte	0x91
 12034 1507 40       		.sleb128 -64
 12035 1508 06       		.byte	0x6
 12036 1509 11       		.byte	0x11
 12037 150a 80FE8378 		.sleb128 -16711936
 12038 150e 1A       		.byte	0x1a
 12039 150f 38       		.byte	0x38
 12040 1510 25       		.byte	0x25
 12041 1511 21       		.byte	0x21
 12042 1512 9F       		.byte	0x9f
 12043 1513 DC040000 		.4byte	.LVL153
 12044 1517 12050000 		.4byte	.LVL161
 12045 151b 1800     		.2byte	0x18
 12046 151d 91       		.byte	0x91
 12047 151e 40       		.sleb128 -64
 12048 151f 06       		.byte	0x6
 12049 1520 0C       		.byte	0xc
 12050 1521 FF00FF00 		.4byte	0xff00ff
 12051 1525 1A       		.byte	0x1a
 12052 1526 38       		.byte	0x38
 12053 1527 24       		.byte	0x24
 12054 1528 91       		.byte	0x91
 12055 1529 40       		.sleb128 -64
 12056 152a 06       		.byte	0x6
 12057 152b 11       		.byte	0x11
 12058 152c 80FE8378 		.sleb128 -16711936
 12059 1530 1A       		.byte	0x1a
 12060 1531 38       		.byte	0x38
 12061 1532 25       		.byte	0x25
 12062 1533 21       		.byte	0x21
 12063 1534 9F       		.byte	0x9f
 12064 1535 00000000 		.4byte	0
 12065 1539 00000000 		.4byte	0
 12066              	.LLST60:
 12067 153d C4040000 		.4byte	.LVL147
 12068 1541 D2040000 		.4byte	.LVL149
 12069 1545 0100     		.2byte	0x1
 12070 1547 5B       		.byte	0x5b
 12071 1548 D2040000 		.4byte	.LVL149
 12072 154c D4040000 		.4byte	.LVL150
 12073 1550 0100     		.2byte	0x1
 12074 1552 52       		.byte	0x52
 12075 1553 D4040000 		.4byte	.LVL150
 12076 1557 DC040000 		.4byte	.LVL153
 12077 155b 0B00     		.2byte	0xb
 12078 155d 7B       		.byte	0x7b
 12079 155e 00       		.sleb128 0
 12080 155f 73       		.byte	0x73
 12081 1560 00       		.sleb128 0
 12082 1561 1A       		.byte	0x1a
 12083 1562 38       		.byte	0x38
 12084 1563 24       		.byte	0x24
 12085 1564 74       		.byte	0x74
 12086 1565 00       		.sleb128 0
 12087 1566 21       		.byte	0x21
 12088 1567 9F       		.byte	0x9f
ARM GAS  C:\Users\ddemidov\AppData\Local\Temp\ccTwWFqA.s 			page 264


 12089 1568 DC040000 		.4byte	.LVL153
 12090 156c E6040000 		.4byte	.LVL156
 12091 1570 0E00     		.2byte	0xe
 12092 1572 7B       		.byte	0x7b
 12093 1573 00       		.sleb128 0
 12094 1574 0C       		.byte	0xc
 12095 1575 FF00FF00 		.4byte	0xff00ff
 12096 1579 1A       		.byte	0x1a
 12097 157a 38       		.byte	0x38
 12098 157b 24       		.byte	0x24
 12099 157c 74       		.byte	0x74
 12100 157d 00       		.sleb128 0
 12101 157e 21       		.byte	0x21
 12102 157f 9F       		.byte	0x9f
 12103 1580 E6040000 		.4byte	.LVL156
 12104 1584 12050000 		.4byte	.LVL161
 12105 1588 1600     		.2byte	0x16
 12106 158a 7B       		.byte	0x7b
 12107 158b 00       		.sleb128 0
 12108 158c 0C       		.byte	0xc
 12109 158d FF00FF00 		.4byte	0xff00ff
 12110 1591 1A       		.byte	0x1a
 12111 1592 38       		.byte	0x38
 12112 1593 24       		.byte	0x24
 12113 1594 7B       		.byte	0x7b
 12114 1595 00       		.sleb128 0
 12115 1596 11       		.byte	0x11
 12116 1597 80FE8378 		.sleb128 -16711936
 12117 159b 1A       		.byte	0x1a
 12118 159c 38       		.byte	0x38
 12119 159d 25       		.byte	0x25
 12120 159e 21       		.byte	0x21
 12121 159f 9F       		.byte	0x9f
 12122 15a0 00000000 		.4byte	0
 12123 15a4 00000000 		.4byte	0
 12124              	.LLST61:
 12125 15a8 D2040000 		.4byte	.LVL149
 12126 15ac 12050000 		.4byte	.LVL161
 12127 15b0 0200     		.2byte	0x2
 12128 15b2 40       		.byte	0x40
 12129 15b3 9F       		.byte	0x9f
 12130 15b4 00000000 		.4byte	0
 12131 15b8 00000000 		.4byte	0
 12132              	.LLST62:
 12133 15bc D2040000 		.4byte	.LVL149
 12134 15c0 D4040000 		.4byte	.LVL150
 12135 15c4 0100     		.2byte	0x1
 12136 15c6 52       		.byte	0x52
 12137 15c7 D4040000 		.4byte	.LVL150
 12138 15cb DC040000 		.4byte	.LVL153
 12139 15cf 0B00     		.2byte	0xb
 12140 15d1 7B       		.byte	0x7b
 12141 15d2 00       		.sleb128 0
 12142 15d3 73       		.byte	0x73
 12143 15d4 00       		.sleb128 0
 12144 15d5 1A       		.byte	0x1a
 12145 15d6 38       		.byte	0x38
ARM GAS  C:\Users\ddemidov\AppData\Local\Temp\ccTwWFqA.s 			page 265


 12146 15d7 24       		.byte	0x24
 12147 15d8 74       		.byte	0x74
 12148 15d9 00       		.sleb128 0
 12149 15da 21       		.byte	0x21
 12150 15db 9F       		.byte	0x9f
 12151 15dc DC040000 		.4byte	.LVL153
 12152 15e0 E6040000 		.4byte	.LVL156
 12153 15e4 0E00     		.2byte	0xe
 12154 15e6 7B       		.byte	0x7b
 12155 15e7 00       		.sleb128 0
 12156 15e8 0C       		.byte	0xc
 12157 15e9 FF00FF00 		.4byte	0xff00ff
 12158 15ed 1A       		.byte	0x1a
 12159 15ee 38       		.byte	0x38
 12160 15ef 24       		.byte	0x24
 12161 15f0 74       		.byte	0x74
 12162 15f1 00       		.sleb128 0
 12163 15f2 21       		.byte	0x21
 12164 15f3 9F       		.byte	0x9f
 12165 15f4 E6040000 		.4byte	.LVL156
 12166 15f8 12050000 		.4byte	.LVL161
 12167 15fc 1600     		.2byte	0x16
 12168 15fe 7B       		.byte	0x7b
 12169 15ff 00       		.sleb128 0
 12170 1600 0C       		.byte	0xc
 12171 1601 FF00FF00 		.4byte	0xff00ff
 12172 1605 1A       		.byte	0x1a
 12173 1606 38       		.byte	0x38
 12174 1607 24       		.byte	0x24
 12175 1608 7B       		.byte	0x7b
 12176 1609 00       		.sleb128 0
 12177 160a 11       		.byte	0x11
 12178 160b 80FE8378 		.sleb128 -16711936
 12179 160f 1A       		.byte	0x1a
 12180 1610 38       		.byte	0x38
 12181 1611 25       		.byte	0x25
 12182 1612 21       		.byte	0x21
 12183 1613 9F       		.byte	0x9f
 12184 1614 00000000 		.4byte	0
 12185 1618 00000000 		.4byte	0
 12186              	.LLST63:
 12187 161c D6040000 		.4byte	.LVL151
 12188 1620 E0040000 		.4byte	.LVL154
 12189 1624 0100     		.2byte	0x1
 12190 1626 51       		.byte	0x51
 12191 1627 E0040000 		.4byte	.LVL154
 12192 162b E2040000 		.4byte	.LVL155
 12193 162f 0100     		.2byte	0x1
 12194 1631 53       		.byte	0x53
 12195 1632 E2040000 		.4byte	.LVL155
 12196 1636 EA040000 		.4byte	.LVL157
 12197 163a 0E00     		.2byte	0xe
 12198 163c 71       		.byte	0x71
 12199 163d 00       		.sleb128 0
 12200 163e 0C       		.byte	0xc
 12201 163f FF00FF00 		.4byte	0xff00ff
 12202 1643 1A       		.byte	0x1a
ARM GAS  C:\Users\ddemidov\AppData\Local\Temp\ccTwWFqA.s 			page 266


 12203 1644 38       		.byte	0x38
 12204 1645 24       		.byte	0x24
 12205 1646 75       		.byte	0x75
 12206 1647 00       		.sleb128 0
 12207 1648 21       		.byte	0x21
 12208 1649 9F       		.byte	0x9f
 12209 164a 00000000 		.4byte	0
 12210 164e 00000000 		.4byte	0
 12211              	.LLST64:
 12212 1652 E0040000 		.4byte	.LVL154
 12213 1656 12050000 		.4byte	.LVL161
 12214 165a 0200     		.2byte	0x2
 12215 165c 40       		.byte	0x40
 12216 165d 9F       		.byte	0x9f
 12217 165e 00000000 		.4byte	0
 12218 1662 00000000 		.4byte	0
 12219              	.LLST65:
 12220 1666 E0040000 		.4byte	.LVL154
 12221 166a E2040000 		.4byte	.LVL155
 12222 166e 0100     		.2byte	0x1
 12223 1670 53       		.byte	0x53
 12224 1671 E2040000 		.4byte	.LVL155
 12225 1675 EA040000 		.4byte	.LVL157
 12226 1679 0E00     		.2byte	0xe
 12227 167b 71       		.byte	0x71
 12228 167c 00       		.sleb128 0
 12229 167d 0C       		.byte	0xc
 12230 167e FF00FF00 		.4byte	0xff00ff
 12231 1682 1A       		.byte	0x1a
 12232 1683 38       		.byte	0x38
 12233 1684 24       		.byte	0x24
 12234 1685 75       		.byte	0x75
 12235 1686 00       		.sleb128 0
 12236 1687 21       		.byte	0x21
 12237 1688 9F       		.byte	0x9f
 12238 1689 00000000 		.4byte	0
 12239 168d 00000000 		.4byte	0
 12240              	.LLST66:
 12241 1691 00000000 		.4byte	.LVL163
 12242 1695 0C000000 		.4byte	.LVL164
 12243 1699 0100     		.2byte	0x1
 12244 169b 50       		.byte	0x50
 12245 169c 0C000000 		.4byte	.LVL164
 12246 16a0 11000000 		.4byte	.LVL165-1
 12247 16a4 0400     		.2byte	0x4
 12248 16a6 70       		.byte	0x70
 12249 16a7 8C7E     		.sleb128 -244
 12250 16a9 9F       		.byte	0x9f
 12251 16aa 11000000 		.4byte	.LVL165-1
 12252 16ae 16000000 		.4byte	.LVL166
 12253 16b2 0400     		.2byte	0x4
 12254 16b4 F3       		.byte	0xf3
 12255 16b5 01       		.uleb128 0x1
 12256 16b6 50       		.byte	0x50
 12257 16b7 9F       		.byte	0x9f
 12258 16b8 16000000 		.4byte	.LVL166
 12259 16bc 18000000 		.4byte	.LVL167
ARM GAS  C:\Users\ddemidov\AppData\Local\Temp\ccTwWFqA.s 			page 267


 12260 16c0 0100     		.2byte	0x1
 12261 16c2 50       		.byte	0x50
 12262 16c3 18000000 		.4byte	.LVL167
 12263 16c7 1F000000 		.4byte	.LVL169-1
 12264 16cb 0400     		.2byte	0x4
 12265 16cd 70       		.byte	0x70
 12266 16ce 8C7E     		.sleb128 -244
 12267 16d0 9F       		.byte	0x9f
 12268 16d1 1F000000 		.4byte	.LVL169-1
 12269 16d5 24000000 		.4byte	.LVL170
 12270 16d9 0400     		.2byte	0x4
 12271 16db F3       		.byte	0xf3
 12272 16dc 01       		.uleb128 0x1
 12273 16dd 50       		.byte	0x50
 12274 16de 9F       		.byte	0x9f
 12275 16df 24000000 		.4byte	.LVL170
 12276 16e3 26000000 		.4byte	.LVL171
 12277 16e7 0100     		.2byte	0x1
 12278 16e9 50       		.byte	0x50
 12279 16ea 26000000 		.4byte	.LVL171
 12280 16ee 2A000000 		.4byte	.LFE16
 12281 16f2 0400     		.2byte	0x4
 12282 16f4 F3       		.byte	0xf3
 12283 16f5 01       		.uleb128 0x1
 12284 16f6 50       		.byte	0x50
 12285 16f7 9F       		.byte	0x9f
 12286 16f8 00000000 		.4byte	0
 12287 16fc 00000000 		.4byte	0
 12288              	.LLST67:
 12289 1700 00000000 		.4byte	.LVL163
 12290 1704 11000000 		.4byte	.LVL165-1
 12291 1708 0100     		.2byte	0x1
 12292 170a 51       		.byte	0x51
 12293 170b 11000000 		.4byte	.LVL165-1
 12294 170f 16000000 		.4byte	.LVL166
 12295 1713 0400     		.2byte	0x4
 12296 1715 F3       		.byte	0xf3
 12297 1716 01       		.uleb128 0x1
 12298 1717 51       		.byte	0x51
 12299 1718 9F       		.byte	0x9f
 12300 1719 16000000 		.4byte	.LVL166
 12301 171d 1A000000 		.4byte	.LVL168
 12302 1721 0100     		.2byte	0x1
 12303 1723 51       		.byte	0x51
 12304 1724 1A000000 		.4byte	.LVL168
 12305 1728 24000000 		.4byte	.LVL170
 12306 172c 0400     		.2byte	0x4
 12307 172e F3       		.byte	0xf3
 12308 172f 01       		.uleb128 0x1
 12309 1730 51       		.byte	0x51
 12310 1731 9F       		.byte	0x9f
 12311 1732 24000000 		.4byte	.LVL170
 12312 1736 28000000 		.4byte	.LVL172
 12313 173a 0100     		.2byte	0x1
 12314 173c 51       		.byte	0x51
 12315 173d 28000000 		.4byte	.LVL172
 12316 1741 2A000000 		.4byte	.LFE16
ARM GAS  C:\Users\ddemidov\AppData\Local\Temp\ccTwWFqA.s 			page 268


 12317 1745 0400     		.2byte	0x4
 12318 1747 F3       		.byte	0xf3
 12319 1748 01       		.uleb128 0x1
 12320 1749 51       		.byte	0x51
 12321 174a 9F       		.byte	0x9f
 12322 174b 00000000 		.4byte	0
 12323 174f 00000000 		.4byte	0
 12324              	.LLST68:
 12325 1753 00000000 		.4byte	.LVL173
 12326 1757 23000000 		.4byte	.LVL177-1
 12327 175b 0100     		.2byte	0x1
 12328 175d 50       		.byte	0x50
 12329 175e 23000000 		.4byte	.LVL177-1
 12330 1762 F0020000 		.4byte	.LVL214
 12331 1766 0100     		.2byte	0x1
 12332 1768 55       		.byte	0x55
 12333 1769 F0020000 		.4byte	.LVL214
 12334 176d F6020000 		.4byte	.LVL216
 12335 1771 0100     		.2byte	0x1
 12336 1773 52       		.byte	0x52
 12337 1774 F6020000 		.4byte	.LVL216
 12338 1778 D2040000 		.4byte	.LVL220
 12339 177c 0100     		.2byte	0x1
 12340 177e 5B       		.byte	0x5b
 12341 177f D2040000 		.4byte	.LVL220
 12342 1783 D6040000 		.4byte	.LVL222
 12343 1787 0100     		.2byte	0x1
 12344 1789 55       		.byte	0x55
 12345 178a D6040000 		.4byte	.LVL222
 12346 178e D8040000 		.4byte	.LVL223
 12347 1792 0100     		.2byte	0x1
 12348 1794 5B       		.byte	0x5b
 12349 1795 D8040000 		.4byte	.LVL223
 12350 1799 EC040000 		.4byte	.LFE14
 12351 179d 0400     		.2byte	0x4
 12352 179f F3       		.byte	0xf3
 12353 17a0 01       		.uleb128 0x1
 12354 17a1 50       		.byte	0x50
 12355 17a2 9F       		.byte	0x9f
 12356 17a3 00000000 		.4byte	0
 12357 17a7 00000000 		.4byte	0
 12358              	.LLST69:
 12359 17ab 00000000 		.4byte	.LVL173
 12360 17af 23000000 		.4byte	.LVL177-1
 12361 17b3 0100     		.2byte	0x1
 12362 17b5 51       		.byte	0x51
 12363 17b6 23000000 		.4byte	.LVL177-1
 12364 17ba EC040000 		.4byte	.LFE14
 12365 17be 0400     		.2byte	0x4
 12366 17c0 F3       		.byte	0xf3
 12367 17c1 01       		.uleb128 0x1
 12368 17c2 51       		.byte	0x51
 12369 17c3 9F       		.byte	0x9f
 12370 17c4 00000000 		.4byte	0
 12371 17c8 00000000 		.4byte	0
 12372              	.LLST70:
 12373 17cc 00000000 		.4byte	.LVL173
ARM GAS  C:\Users\ddemidov\AppData\Local\Temp\ccTwWFqA.s 			page 269


 12374 17d0 1A000000 		.4byte	.LVL175
 12375 17d4 0100     		.2byte	0x1
 12376 17d6 52       		.byte	0x52
 12377 17d7 1A000000 		.4byte	.LVL175
 12378 17db 60000000 		.4byte	.LVL184
 12379 17df 0100     		.2byte	0x1
 12380 17e1 54       		.byte	0x54
 12381 17e2 60000000 		.4byte	.LVL184
 12382 17e6 E4000000 		.4byte	.LVL189
 12383 17ea 0400     		.2byte	0x4
 12384 17ec F3       		.byte	0xf3
 12385 17ed 01       		.uleb128 0x1
 12386 17ee 52       		.byte	0x52
 12387 17ef 9F       		.byte	0x9f
 12388 17f0 E4000000 		.4byte	.LVL189
 12389 17f4 EA000000 		.4byte	.LVL190
 12390 17f8 0100     		.2byte	0x1
 12391 17fa 54       		.byte	0x54
 12392 17fb EA000000 		.4byte	.LVL190
 12393 17ff 7A010000 		.4byte	.LVL195
 12394 1803 0400     		.2byte	0x4
 12395 1805 F3       		.byte	0xf3
 12396 1806 01       		.uleb128 0x1
 12397 1807 52       		.byte	0x52
 12398 1808 9F       		.byte	0x9f
 12399 1809 7A010000 		.4byte	.LVL195
 12400 180d 80010000 		.4byte	.LVL196
 12401 1811 0100     		.2byte	0x1
 12402 1813 54       		.byte	0x54
 12403 1814 80010000 		.4byte	.LVL196
 12404 1818 D2040000 		.4byte	.LVL220
 12405 181c 0400     		.2byte	0x4
 12406 181e F3       		.byte	0xf3
 12407 181f 01       		.uleb128 0x1
 12408 1820 52       		.byte	0x52
 12409 1821 9F       		.byte	0x9f
 12410 1822 D2040000 		.4byte	.LVL220
 12411 1826 D6040000 		.4byte	.LVL222
 12412 182a 0100     		.2byte	0x1
 12413 182c 54       		.byte	0x54
 12414 182d D6040000 		.4byte	.LVL222
 12415 1831 EC040000 		.4byte	.LFE14
 12416 1835 0400     		.2byte	0x4
 12417 1837 F3       		.byte	0xf3
 12418 1838 01       		.uleb128 0x1
 12419 1839 52       		.byte	0x52
 12420 183a 9F       		.byte	0x9f
 12421 183b 00000000 		.4byte	0
 12422 183f 00000000 		.4byte	0
 12423              	.LLST71:
 12424 1843 00000000 		.4byte	.LVL173
 12425 1847 1C000000 		.4byte	.LVL176
 12426 184b 0100     		.2byte	0x1
 12427 184d 53       		.byte	0x53
 12428 184e 1C000000 		.4byte	.LVL176
 12429 1852 EC040000 		.4byte	.LFE14
 12430 1856 0200     		.2byte	0x2
ARM GAS  C:\Users\ddemidov\AppData\Local\Temp\ccTwWFqA.s 			page 270


 12431 1858 91       		.byte	0x91
 12432 1859 54       		.sleb128 -44
 12433 185a 00000000 		.4byte	0
 12434 185e 00000000 		.4byte	0
 12435              	.LLST72:
 12436 1862 62000000 		.4byte	.LVL185
 12437 1866 D0000000 		.4byte	.LVL186
 12438 186a 0100     		.2byte	0x1
 12439 186c 50       		.byte	0x50
 12440 186d D0000000 		.4byte	.LVL186
 12441 1871 E2000000 		.4byte	.LVL188
 12442 1875 0200     		.2byte	0x2
 12443 1877 73       		.byte	0x73
 12444 1878 0C       		.sleb128 12
 12445 1879 E2000000 		.4byte	.LVL188
 12446 187d E4000000 		.4byte	.LVL189
 12447 1881 0200     		.2byte	0x2
 12448 1883 73       		.byte	0x73
 12449 1884 7C       		.sleb128 -4
 12450 1885 EC000000 		.4byte	.LVL191
 12451 1889 74010000 		.4byte	.LVL193
 12452 188d 0100     		.2byte	0x1
 12453 188f 50       		.byte	0x50
 12454 1890 74010000 		.4byte	.LVL193
 12455 1894 78010000 		.4byte	.LVL194
 12456 1898 0200     		.2byte	0x2
 12457 189a 73       		.byte	0x73
 12458 189b 14       		.sleb128 20
 12459 189c 78010000 		.4byte	.LVL194
 12460 18a0 7A010000 		.4byte	.LVL195
 12461 18a4 0200     		.2byte	0x2
 12462 18a6 73       		.byte	0x73
 12463 18a7 7C       		.sleb128 -4
 12464 18a8 82010000 		.4byte	.LVL197
 12465 18ac FE010000 		.4byte	.LVL199
 12466 18b0 0100     		.2byte	0x1
 12467 18b2 50       		.byte	0x50
 12468 18b3 FE010000 		.4byte	.LVL199
 12469 18b7 50020000 		.4byte	.LVL201
 12470 18bb 0100     		.2byte	0x1
 12471 18bd 52       		.byte	0x52
 12472 18be 50020000 		.4byte	.LVL201
 12473 18c2 70020000 		.4byte	.LVL202
 12474 18c6 0200     		.2byte	0x2
 12475 18c8 73       		.byte	0x73
 12476 18c9 2C       		.sleb128 44
 12477 18ca 70020000 		.4byte	.LVL202
 12478 18ce 72020000 		.4byte	.LVL203
 12479 18d2 0200     		.2byte	0x2
 12480 18d4 73       		.byte	0x73
 12481 18d5 0C       		.sleb128 12
 12482 18d6 8C020000 		.4byte	.LVL208
 12483 18da D6020000 		.4byte	.LVL213
 12484 18de 0100     		.2byte	0x1
 12485 18e0 56       		.byte	0x56
 12486 18e1 00000000 		.4byte	0
 12487 18e5 00000000 		.4byte	0
ARM GAS  C:\Users\ddemidov\AppData\Local\Temp\ccTwWFqA.s 			page 271


 12488              	.LLST73:
 12489 18e9 16000000 		.4byte	.LVL174
 12490 18ed 23000000 		.4byte	.LVL177-1
 12491 18f1 0100     		.2byte	0x1
 12492 18f3 50       		.byte	0x50
 12493 18f4 23000000 		.4byte	.LVL177-1
 12494 18f8 60000000 		.4byte	.LVL184
 12495 18fc 0100     		.2byte	0x1
 12496 18fe 55       		.byte	0x55
 12497 18ff 60000000 		.4byte	.LVL184
 12498 1903 E4000000 		.4byte	.LVL189
 12499 1907 0100     		.2byte	0x1
 12500 1909 53       		.byte	0x53
 12501 190a E4000000 		.4byte	.LVL189
 12502 190e EA000000 		.4byte	.LVL190
 12503 1912 0100     		.2byte	0x1
 12504 1914 55       		.byte	0x55
 12505 1915 EA000000 		.4byte	.LVL190
 12506 1919 7A010000 		.4byte	.LVL195
 12507 191d 0100     		.2byte	0x1
 12508 191f 53       		.byte	0x53
 12509 1920 7A010000 		.4byte	.LVL195
 12510 1924 80010000 		.4byte	.LVL196
 12511 1928 0100     		.2byte	0x1
 12512 192a 55       		.byte	0x55
 12513 192b 80010000 		.4byte	.LVL196
 12514 192f 74020000 		.4byte	.LVL204
 12515 1933 0100     		.2byte	0x1
 12516 1935 53       		.byte	0x53
 12517 1936 7A020000 		.4byte	.LVL205
 12518 193a C8040000 		.4byte	.LVL218
 12519 193e 0100     		.2byte	0x1
 12520 1940 55       		.byte	0x55
 12521 1941 D2040000 		.4byte	.LVL220
 12522 1945 D6040000 		.4byte	.LVL222
 12523 1949 0100     		.2byte	0x1
 12524 194b 55       		.byte	0x55
 12525 194c 00000000 		.4byte	0
 12526 1950 00000000 		.4byte	0
 12527              	.LLST74:
 12528 1954 16000000 		.4byte	.LVL174
 12529 1958 60000000 		.4byte	.LVL184
 12530 195c 0200     		.2byte	0x2
 12531 195e 30       		.byte	0x30
 12532 195f 9F       		.byte	0x9f
 12533 1960 60000000 		.4byte	.LVL184
 12534 1964 E4000000 		.4byte	.LVL189
 12535 1968 0100     		.2byte	0x1
 12536 196a 58       		.byte	0x58
 12537 196b E4000000 		.4byte	.LVL189
 12538 196f EA000000 		.4byte	.LVL190
 12539 1973 0200     		.2byte	0x2
 12540 1975 30       		.byte	0x30
 12541 1976 9F       		.byte	0x9f
 12542 1977 EA000000 		.4byte	.LVL190
 12543 197b 7A010000 		.4byte	.LVL195
 12544 197f 0100     		.2byte	0x1
ARM GAS  C:\Users\ddemidov\AppData\Local\Temp\ccTwWFqA.s 			page 272


 12545 1981 58       		.byte	0x58
 12546 1982 7A010000 		.4byte	.LVL195
 12547 1986 80010000 		.4byte	.LVL196
 12548 198a 0200     		.2byte	0x2
 12549 198c 30       		.byte	0x30
 12550 198d 9F       		.byte	0x9f
 12551 198e 80010000 		.4byte	.LVL196
 12552 1992 FA010000 		.4byte	.LVL198
 12553 1996 0200     		.2byte	0x2
 12554 1998 7D       		.byte	0x7d
 12555 1999 00       		.sleb128 0
 12556 199a FA010000 		.4byte	.LVL198
 12557 199e 00020000 		.4byte	.LVL200
 12558 19a2 0100     		.2byte	0x1
 12559 19a4 51       		.byte	0x51
 12560 19a5 00020000 		.4byte	.LVL200
 12561 19a9 72020000 		.4byte	.LVL203
 12562 19ad 0200     		.2byte	0x2
 12563 19af 7D       		.byte	0x7d
 12564 19b0 00       		.sleb128 0
 12565 19b1 7A020000 		.4byte	.LVL205
 12566 19b5 86020000 		.4byte	.LVL207
 12567 19b9 0200     		.2byte	0x2
 12568 19bb 30       		.byte	0x30
 12569 19bc 9F       		.byte	0x9f
 12570 19bd 86020000 		.4byte	.LVL207
 12571 19c1 F0020000 		.4byte	.LVL214
 12572 19c5 0100     		.2byte	0x1
 12573 19c7 52       		.byte	0x52
 12574 19c8 F0020000 		.4byte	.LVL214
 12575 19cc C8040000 		.4byte	.LVL218
 12576 19d0 0100     		.2byte	0x1
 12577 19d2 56       		.byte	0x56
 12578 19d3 D2040000 		.4byte	.LVL220
 12579 19d7 D6040000 		.4byte	.LVL222
 12580 19db 0200     		.2byte	0x2
 12581 19dd 30       		.byte	0x30
 12582 19de 9F       		.byte	0x9f
 12583 19df 00000000 		.4byte	0
 12584 19e3 00000000 		.4byte	0
 12585              	.LLST75:
 12586 19e7 24000000 		.4byte	.LVL177
 12587 19eb 60000000 		.4byte	.LVL184
 12588 19ef 0100     		.2byte	0x1
 12589 19f1 54       		.byte	0x54
 12590 19f2 60000000 		.4byte	.LVL184
 12591 19f6 E4000000 		.4byte	.LVL189
 12592 19fa 0400     		.2byte	0x4
 12593 19fc F3       		.byte	0xf3
 12594 19fd 01       		.uleb128 0x1
 12595 19fe 52       		.byte	0x52
 12596 19ff 9F       		.byte	0x9f
 12597 1a00 E4000000 		.4byte	.LVL189
 12598 1a04 EA000000 		.4byte	.LVL190
 12599 1a08 0100     		.2byte	0x1
 12600 1a0a 54       		.byte	0x54
 12601 1a0b EA000000 		.4byte	.LVL190
ARM GAS  C:\Users\ddemidov\AppData\Local\Temp\ccTwWFqA.s 			page 273


 12602 1a0f 7A010000 		.4byte	.LVL195
 12603 1a13 0400     		.2byte	0x4
 12604 1a15 F3       		.byte	0xf3
 12605 1a16 01       		.uleb128 0x1
 12606 1a17 52       		.byte	0x52
 12607 1a18 9F       		.byte	0x9f
 12608 1a19 7A010000 		.4byte	.LVL195
 12609 1a1d 80010000 		.4byte	.LVL196
 12610 1a21 0100     		.2byte	0x1
 12611 1a23 54       		.byte	0x54
 12612 1a24 80010000 		.4byte	.LVL196
 12613 1a28 D2040000 		.4byte	.LVL220
 12614 1a2c 0400     		.2byte	0x4
 12615 1a2e F3       		.byte	0xf3
 12616 1a2f 01       		.uleb128 0x1
 12617 1a30 52       		.byte	0x52
 12618 1a31 9F       		.byte	0x9f
 12619 1a32 D2040000 		.4byte	.LVL220
 12620 1a36 D6040000 		.4byte	.LVL222
 12621 1a3a 0100     		.2byte	0x1
 12622 1a3c 54       		.byte	0x54
 12623 1a3d D6040000 		.4byte	.LVL222
 12624 1a41 EC040000 		.4byte	.LFE14
 12625 1a45 0400     		.2byte	0x4
 12626 1a47 F3       		.byte	0xf3
 12627 1a48 01       		.uleb128 0x1
 12628 1a49 52       		.byte	0x52
 12629 1a4a 9F       		.byte	0x9f
 12630 1a4b 00000000 		.4byte	0
 12631 1a4f 00000000 		.4byte	0
 12632              	.LLST76:
 12633 1a53 24000000 		.4byte	.LVL177
 12634 1a57 F0020000 		.4byte	.LVL214
 12635 1a5b 0100     		.2byte	0x1
 12636 1a5d 55       		.byte	0x55
 12637 1a5e F0020000 		.4byte	.LVL214
 12638 1a62 F6020000 		.4byte	.LVL216
 12639 1a66 0100     		.2byte	0x1
 12640 1a68 52       		.byte	0x52
 12641 1a69 F6020000 		.4byte	.LVL216
 12642 1a6d D2040000 		.4byte	.LVL220
 12643 1a71 0100     		.2byte	0x1
 12644 1a73 5B       		.byte	0x5b
 12645 1a74 D2040000 		.4byte	.LVL220
 12646 1a78 D6040000 		.4byte	.LVL222
 12647 1a7c 0100     		.2byte	0x1
 12648 1a7e 55       		.byte	0x55
 12649 1a7f D6040000 		.4byte	.LVL222
 12650 1a83 D8040000 		.4byte	.LVL223
 12651 1a87 0100     		.2byte	0x1
 12652 1a89 5B       		.byte	0x5b
 12653 1a8a D8040000 		.4byte	.LVL223
 12654 1a8e EC040000 		.4byte	.LFE14
 12655 1a92 0400     		.2byte	0x4
 12656 1a94 F3       		.byte	0xf3
 12657 1a95 01       		.uleb128 0x1
 12658 1a96 50       		.byte	0x50
ARM GAS  C:\Users\ddemidov\AppData\Local\Temp\ccTwWFqA.s 			page 274


 12659 1a97 9F       		.byte	0x9f
 12660 1a98 00000000 		.4byte	0
 12661 1a9c 00000000 		.4byte	0
 12662              	.LLST78:
 12663 1aa0 24000000 		.4byte	.LVL177
 12664 1aa4 60000000 		.4byte	.LVL184
 12665 1aa8 0100     		.2byte	0x1
 12666 1aaa 56       		.byte	0x56
 12667 1aab 60000000 		.4byte	.LVL184
 12668 1aaf E4000000 		.4byte	.LVL189
 12669 1ab3 0600     		.2byte	0x6
 12670 1ab5 F3       		.byte	0xf3
 12671 1ab6 01       		.uleb128 0x1
 12672 1ab7 52       		.byte	0x52
 12673 1ab8 32       		.byte	0x32
 12674 1ab9 25       		.byte	0x25
 12675 1aba 9F       		.byte	0x9f
 12676 1abb E4000000 		.4byte	.LVL189
 12677 1abf EA000000 		.4byte	.LVL190
 12678 1ac3 0100     		.2byte	0x1
 12679 1ac5 56       		.byte	0x56
 12680 1ac6 EA000000 		.4byte	.LVL190
 12681 1aca 7A010000 		.4byte	.LVL195
 12682 1ace 0600     		.2byte	0x6
 12683 1ad0 F3       		.byte	0xf3
 12684 1ad1 01       		.uleb128 0x1
 12685 1ad2 52       		.byte	0x52
 12686 1ad3 32       		.byte	0x32
 12687 1ad4 25       		.byte	0x25
 12688 1ad5 9F       		.byte	0x9f
 12689 1ad6 7A010000 		.4byte	.LVL195
 12690 1ada 80010000 		.4byte	.LVL196
 12691 1ade 0100     		.2byte	0x1
 12692 1ae0 56       		.byte	0x56
 12693 1ae1 80010000 		.4byte	.LVL196
 12694 1ae5 D2040000 		.4byte	.LVL220
 12695 1ae9 0600     		.2byte	0x6
 12696 1aeb F3       		.byte	0xf3
 12697 1aec 01       		.uleb128 0x1
 12698 1aed 52       		.byte	0x52
 12699 1aee 32       		.byte	0x32
 12700 1aef 25       		.byte	0x25
 12701 1af0 9F       		.byte	0x9f
 12702 1af1 D2040000 		.4byte	.LVL220
 12703 1af5 D6040000 		.4byte	.LVL222
 12704 1af9 0100     		.2byte	0x1
 12705 1afb 56       		.byte	0x56
 12706 1afc D6040000 		.4byte	.LVL222
 12707 1b00 EC040000 		.4byte	.LFE14
 12708 1b04 0600     		.2byte	0x6
 12709 1b06 F3       		.byte	0xf3
 12710 1b07 01       		.uleb128 0x1
 12711 1b08 52       		.byte	0x52
 12712 1b09 32       		.byte	0x32
 12713 1b0a 25       		.byte	0x25
 12714 1b0b 9F       		.byte	0x9f
 12715 1b0c 00000000 		.4byte	0
ARM GAS  C:\Users\ddemidov\AppData\Local\Temp\ccTwWFqA.s 			page 275


 12716 1b10 00000000 		.4byte	0
 12717              	.LLST79:
 12718 1b14 24000000 		.4byte	.LVL177
 12719 1b18 28000000 		.4byte	.LVL178
 12720 1b1c 0200     		.2byte	0x2
 12721 1b1e 30       		.byte	0x30
 12722 1b1f 9F       		.byte	0x9f
 12723 1b20 28000000 		.4byte	.LVL178
 12724 1b24 60000000 		.4byte	.LVL184
 12725 1b28 0100     		.2byte	0x1
 12726 1b2a 50       		.byte	0x50
 12727 1b2b E4000000 		.4byte	.LVL189
 12728 1b2f EA000000 		.4byte	.LVL190
 12729 1b33 0100     		.2byte	0x1
 12730 1b35 50       		.byte	0x50
 12731 1b36 7A010000 		.4byte	.LVL195
 12732 1b3a 80010000 		.4byte	.LVL196
 12733 1b3e 0100     		.2byte	0x1
 12734 1b40 50       		.byte	0x50
 12735 1b41 D2040000 		.4byte	.LVL220
 12736 1b45 D4040000 		.4byte	.LVL221
 12737 1b49 0100     		.2byte	0x1
 12738 1b4b 50       		.byte	0x50
 12739 1b4c 00000000 		.4byte	0
 12740 1b50 00000000 		.4byte	0
 12741              	.LLST80:
 12742 1b54 2C000000 		.4byte	.LVL179
 12743 1b58 3E000000 		.4byte	.LVL180
 12744 1b5c 0200     		.2byte	0x2
 12745 1b5e 71       		.byte	0x71
 12746 1b5f 00       		.sleb128 0
 12747 1b60 3E000000 		.4byte	.LVL180
 12748 1b64 42000000 		.4byte	.LVL181
 12749 1b68 0100     		.2byte	0x1
 12750 1b6a 53       		.byte	0x53
 12751 1b6b 42000000 		.4byte	.LVL181
 12752 1b6f 44000000 		.4byte	.LVL182
 12753 1b73 0F00     		.2byte	0xf
 12754 1b75 71       		.byte	0x71
 12755 1b76 00       		.sleb128 0
 12756 1b77 06       		.byte	0x6
 12757 1b78 0C       		.byte	0xc
 12758 1b79 FF00FF00 		.4byte	0xff00ff
 12759 1b7d 1A       		.byte	0x1a
 12760 1b7e 38       		.byte	0x38
 12761 1b7f 24       		.byte	0x24
 12762 1b80 77       		.byte	0x77
 12763 1b81 00       		.sleb128 0
 12764 1b82 21       		.byte	0x21
 12765 1b83 9F       		.byte	0x9f
 12766 1b84 00000000 		.4byte	0
 12767 1b88 00000000 		.4byte	0
 12768              	.LLST81:
 12769 1b8c 3E000000 		.4byte	.LVL180
 12770 1b90 46000000 		.4byte	.LVL183
 12771 1b94 0200     		.2byte	0x2
 12772 1b96 40       		.byte	0x40
ARM GAS  C:\Users\ddemidov\AppData\Local\Temp\ccTwWFqA.s 			page 276


 12773 1b97 9F       		.byte	0x9f
 12774 1b98 00000000 		.4byte	0
 12775 1b9c 00000000 		.4byte	0
 12776              	.LLST82:
 12777 1ba0 3E000000 		.4byte	.LVL180
 12778 1ba4 42000000 		.4byte	.LVL181
 12779 1ba8 0100     		.2byte	0x1
 12780 1baa 53       		.byte	0x53
 12781 1bab 42000000 		.4byte	.LVL181
 12782 1baf 44000000 		.4byte	.LVL182
 12783 1bb3 0F00     		.2byte	0xf
 12784 1bb5 71       		.byte	0x71
 12785 1bb6 00       		.sleb128 0
 12786 1bb7 06       		.byte	0x6
 12787 1bb8 0C       		.byte	0xc
 12788 1bb9 FF00FF00 		.4byte	0xff00ff
 12789 1bbd 1A       		.byte	0x1a
 12790 1bbe 38       		.byte	0x38
 12791 1bbf 24       		.byte	0x24
 12792 1bc0 77       		.byte	0x77
 12793 1bc1 00       		.sleb128 0
 12794 1bc2 21       		.byte	0x21
 12795 1bc3 9F       		.byte	0x9f
 12796 1bc4 00000000 		.4byte	0
 12797 1bc8 00000000 		.4byte	0
 12798              	.LLST83:
 12799 1bcc 82020000 		.4byte	.LVL206
 12800 1bd0 F0020000 		.4byte	.LVL214
 12801 1bd4 0100     		.2byte	0x1
 12802 1bd6 53       		.byte	0x53
 12803 1bd7 00000000 		.4byte	0
 12804 1bdb 00000000 		.4byte	0
 12805              	.LLST84:
 12806 1bdf 00000000 		.4byte	.LVL224
 12807 1be3 1B000000 		.4byte	.LVL226-1
 12808 1be7 0100     		.2byte	0x1
 12809 1be9 50       		.byte	0x50
 12810 1bea 1B000000 		.4byte	.LVL226-1
 12811 1bee 1E000000 		.4byte	.LVL227
 12812 1bf2 0400     		.2byte	0x4
 12813 1bf4 F3       		.byte	0xf3
 12814 1bf5 01       		.uleb128 0x1
 12815 1bf6 50       		.byte	0x50
 12816 1bf7 9F       		.byte	0x9f
 12817 1bf8 1E000000 		.4byte	.LVL227
 12818 1bfc 20000000 		.4byte	.LVL228
 12819 1c00 0100     		.2byte	0x1
 12820 1c02 50       		.byte	0x50
 12821 1c03 20000000 		.4byte	.LVL228
 12822 1c07 24000000 		.4byte	.LVL229
 12823 1c0b 0400     		.2byte	0x4
 12824 1c0d F3       		.byte	0xf3
 12825 1c0e 01       		.uleb128 0x1
 12826 1c0f 50       		.byte	0x50
 12827 1c10 9F       		.byte	0x9f
 12828 1c11 24000000 		.4byte	.LVL229
 12829 1c15 26000000 		.4byte	.LVL230
ARM GAS  C:\Users\ddemidov\AppData\Local\Temp\ccTwWFqA.s 			page 277


 12830 1c19 0100     		.2byte	0x1
 12831 1c1b 50       		.byte	0x50
 12832 1c1c 26000000 		.4byte	.LVL230
 12833 1c20 2C000000 		.4byte	.LFE15
 12834 1c24 0400     		.2byte	0x4
 12835 1c26 F3       		.byte	0xf3
 12836 1c27 01       		.uleb128 0x1
 12837 1c28 50       		.byte	0x50
 12838 1c29 9F       		.byte	0x9f
 12839 1c2a 00000000 		.4byte	0
 12840 1c2e 00000000 		.4byte	0
 12841              	.LLST85:
 12842 1c32 00000000 		.4byte	.LVL224
 12843 1c36 1B000000 		.4byte	.LVL226-1
 12844 1c3a 0100     		.2byte	0x1
 12845 1c3c 51       		.byte	0x51
 12846 1c3d 1B000000 		.4byte	.LVL226-1
 12847 1c41 1E000000 		.4byte	.LVL227
 12848 1c45 0400     		.2byte	0x4
 12849 1c47 F3       		.byte	0xf3
 12850 1c48 01       		.uleb128 0x1
 12851 1c49 51       		.byte	0x51
 12852 1c4a 9F       		.byte	0x9f
 12853 1c4b 1E000000 		.4byte	.LVL227
 12854 1c4f 28000000 		.4byte	.LVL231
 12855 1c53 0100     		.2byte	0x1
 12856 1c55 51       		.byte	0x51
 12857 1c56 28000000 		.4byte	.LVL231
 12858 1c5a 2C000000 		.4byte	.LFE15
 12859 1c5e 0400     		.2byte	0x4
 12860 1c60 F3       		.byte	0xf3
 12861 1c61 01       		.uleb128 0x1
 12862 1c62 51       		.byte	0x51
 12863 1c63 9F       		.byte	0x9f
 12864 1c64 00000000 		.4byte	0
 12865 1c68 00000000 		.4byte	0
 12866              	.LLST86:
 12867 1c6c 00000000 		.4byte	.LVL224
 12868 1c70 1B000000 		.4byte	.LVL226-1
 12869 1c74 0100     		.2byte	0x1
 12870 1c76 52       		.byte	0x52
 12871 1c77 1B000000 		.4byte	.LVL226-1
 12872 1c7b 1E000000 		.4byte	.LVL227
 12873 1c7f 0400     		.2byte	0x4
 12874 1c81 F3       		.byte	0xf3
 12875 1c82 01       		.uleb128 0x1
 12876 1c83 52       		.byte	0x52
 12877 1c84 9F       		.byte	0x9f
 12878 1c85 1E000000 		.4byte	.LVL227
 12879 1c89 28000000 		.4byte	.LVL231
 12880 1c8d 0100     		.2byte	0x1
 12881 1c8f 52       		.byte	0x52
 12882 1c90 28000000 		.4byte	.LVL231
 12883 1c94 2C000000 		.4byte	.LFE15
 12884 1c98 0400     		.2byte	0x4
 12885 1c9a F3       		.byte	0xf3
 12886 1c9b 01       		.uleb128 0x1
ARM GAS  C:\Users\ddemidov\AppData\Local\Temp\ccTwWFqA.s 			page 278


 12887 1c9c 52       		.byte	0x52
 12888 1c9d 9F       		.byte	0x9f
 12889 1c9e 00000000 		.4byte	0
 12890 1ca2 00000000 		.4byte	0
 12891              	.LLST87:
 12892 1ca6 00000000 		.4byte	.LVL224
 12893 1caa 1B000000 		.4byte	.LVL226-1
 12894 1cae 0100     		.2byte	0x1
 12895 1cb0 53       		.byte	0x53
 12896 1cb1 1B000000 		.4byte	.LVL226-1
 12897 1cb5 1E000000 		.4byte	.LVL227
 12898 1cb9 0400     		.2byte	0x4
 12899 1cbb F3       		.byte	0xf3
 12900 1cbc 01       		.uleb128 0x1
 12901 1cbd 53       		.byte	0x53
 12902 1cbe 9F       		.byte	0x9f
 12903 1cbf 1E000000 		.4byte	.LVL227
 12904 1cc3 28000000 		.4byte	.LVL231
 12905 1cc7 0100     		.2byte	0x1
 12906 1cc9 53       		.byte	0x53
 12907 1cca 28000000 		.4byte	.LVL231
 12908 1cce 2C000000 		.4byte	.LFE15
 12909 1cd2 0400     		.2byte	0x4
 12910 1cd4 F3       		.byte	0xf3
 12911 1cd5 01       		.uleb128 0x1
 12912 1cd6 53       		.byte	0x53
 12913 1cd7 9F       		.byte	0x9f
 12914 1cd8 00000000 		.4byte	0
 12915 1cdc 00000000 		.4byte	0
 12916              	.LLST88:
 12917 1ce0 00000000 		.4byte	.LVL232
 12918 1ce4 10000000 		.4byte	.LVL234
 12919 1ce8 0100     		.2byte	0x1
 12920 1cea 50       		.byte	0x50
 12921 1ceb 10000000 		.4byte	.LVL234
 12922 1cef 6C000000 		.4byte	.LVL251
 12923 1cf3 0100     		.2byte	0x1
 12924 1cf5 57       		.byte	0x57
 12925 1cf6 6C000000 		.4byte	.LVL251
 12926 1cfa 72000000 		.4byte	.LFE17
 12927 1cfe 0400     		.2byte	0x4
 12928 1d00 F3       		.byte	0xf3
 12929 1d01 01       		.uleb128 0x1
 12930 1d02 50       		.byte	0x50
 12931 1d03 9F       		.byte	0x9f
 12932 1d04 00000000 		.4byte	0
 12933 1d08 00000000 		.4byte	0
 12934              	.LLST89:
 12935 1d0c 00000000 		.4byte	.LVL232
 12936 1d10 10000000 		.4byte	.LVL234
 12937 1d14 0100     		.2byte	0x1
 12938 1d16 51       		.byte	0x51
 12939 1d17 10000000 		.4byte	.LVL234
 12940 1d1b 6C000000 		.4byte	.LVL250
 12941 1d1f 0100     		.2byte	0x1
 12942 1d21 56       		.byte	0x56
 12943 1d22 00000000 		.4byte	0
ARM GAS  C:\Users\ddemidov\AppData\Local\Temp\ccTwWFqA.s 			page 279


 12944 1d26 00000000 		.4byte	0
 12945              	.LLST90:
 12946 1d2a 00000000 		.4byte	.LVL232
 12947 1d2e 10000000 		.4byte	.LVL234
 12948 1d32 0100     		.2byte	0x1
 12949 1d34 52       		.byte	0x52
 12950 1d35 10000000 		.4byte	.LVL234
 12951 1d39 6C000000 		.4byte	.LVL249
 12952 1d3d 0100     		.2byte	0x1
 12953 1d3f 55       		.byte	0x55
 12954 1d40 00000000 		.4byte	0
 12955 1d44 00000000 		.4byte	0
 12956              	.LLST91:
 12957 1d48 00000000 		.4byte	.LVL232
 12958 1d4c 0E000000 		.4byte	.LVL233
 12959 1d50 0100     		.2byte	0x1
 12960 1d52 53       		.byte	0x53
 12961 1d53 0E000000 		.4byte	.LVL233
 12962 1d57 72000000 		.4byte	.LFE17
 12963 1d5b 0400     		.2byte	0x4
 12964 1d5d F3       		.byte	0xf3
 12965 1d5e 01       		.uleb128 0x1
 12966 1d5f 53       		.byte	0x53
 12967 1d60 9F       		.byte	0x9f
 12968 1d61 00000000 		.4byte	0
 12969 1d65 00000000 		.4byte	0
 12970              	.LLST92:
 12971 1d69 0E000000 		.4byte	.LVL233
 12972 1d6d 10000000 		.4byte	.LVL234
 12973 1d71 0100     		.2byte	0x1
 12974 1d73 53       		.byte	0x53
 12975 1d74 10000000 		.4byte	.LVL234
 12976 1d78 20000000 		.4byte	.LVL236
 12977 1d7c 0100     		.2byte	0x1
 12978 1d7e 52       		.byte	0x52
 12979 1d7f 20000000 		.4byte	.LVL236
 12980 1d83 30000000 		.4byte	.LVL238
 12981 1d87 0100     		.2byte	0x1
 12982 1d89 58       		.byte	0x58
 12983 1d8a 30000000 		.4byte	.LVL238
 12984 1d8e 32000000 		.4byte	.LVL239
 12985 1d92 0100     		.2byte	0x1
 12986 1d94 52       		.byte	0x52
 12987 1d95 32000000 		.4byte	.LVL239
 12988 1d99 62000000 		.4byte	.LVL247
 12989 1d9d 0100     		.2byte	0x1
 12990 1d9f 58       		.byte	0x58
 12991 1da0 62000000 		.4byte	.LVL247
 12992 1da4 66000000 		.4byte	.LVL248
 12993 1da8 0100     		.2byte	0x1
 12994 1daa 53       		.byte	0x53
 12995 1dab 66000000 		.4byte	.LVL248
 12996 1daf 72000000 		.4byte	.LFE17
 12997 1db3 0100     		.2byte	0x1
 12998 1db5 52       		.byte	0x52
 12999 1db6 00000000 		.4byte	0
 13000 1dba 00000000 		.4byte	0
ARM GAS  C:\Users\ddemidov\AppData\Local\Temp\ccTwWFqA.s 			page 280


 13001              	.LLST93:
 13002 1dbe 14000000 		.4byte	.LVL235
 13003 1dc2 62000000 		.4byte	.LVL247
 13004 1dc6 0200     		.2byte	0x2
 13005 1dc8 40       		.byte	0x40
 13006 1dc9 9F       		.byte	0x9f
 13007 1dca 00000000 		.4byte	0
 13008 1dce 00000000 		.4byte	0
 13009              	.LLST94:
 13010 1dd2 14000000 		.4byte	.LVL235
 13011 1dd6 60000000 		.4byte	.LVL246
 13012 1dda 0100     		.2byte	0x1
 13013 1ddc 55       		.byte	0x55
 13014 1ddd 60000000 		.4byte	.LVL246
 13015 1de1 62000000 		.4byte	.LVL247
 13016 1de5 0300     		.2byte	0x3
 13017 1de7 75       		.byte	0x75
 13018 1de8 70       		.sleb128 -16
 13019 1de9 9F       		.byte	0x9f
 13020 1dea 00000000 		.4byte	0
 13021 1dee 00000000 		.4byte	0
 13022              	.LLST95:
 13023 1df2 14000000 		.4byte	.LVL235
 13024 1df6 62000000 		.4byte	.LVL247
 13025 1dfa 0100     		.2byte	0x1
 13026 1dfc 54       		.byte	0x54
 13027 1dfd 00000000 		.4byte	0
 13028 1e01 00000000 		.4byte	0
 13029              	.LLST96:
 13030 1e05 20000000 		.4byte	.LVL236
 13031 1e09 30000000 		.4byte	.LVL238
 13032 1e0d 0100     		.2byte	0x1
 13033 1e0f 53       		.byte	0x53
 13034 1e10 32000000 		.4byte	.LVL239
 13035 1e14 38000000 		.4byte	.LVL240
 13036 1e18 0100     		.2byte	0x1
 13037 1e1a 53       		.byte	0x53
 13038 1e1b 00000000 		.4byte	0
 13039 1e1f 00000000 		.4byte	0
 13040              	.LLST97:
 13041 1e23 38000000 		.4byte	.LVL240
 13042 1e27 48000000 		.4byte	.LVL242
 13043 1e2b 0100     		.2byte	0x1
 13044 1e2d 53       		.byte	0x53
 13045 1e2e 00000000 		.4byte	0
 13046 1e32 00000000 		.4byte	0
 13047              	.LLST98:
 13048 1e36 00000000 		.4byte	.LVL252
 13049 1e3a 12000000 		.4byte	.LVL254
 13050 1e3e 0100     		.2byte	0x1
 13051 1e40 50       		.byte	0x50
 13052 1e41 12000000 		.4byte	.LVL254
 13053 1e45 80000000 		.4byte	.LVL273
 13054 1e49 0100     		.2byte	0x1
 13055 1e4b 57       		.byte	0x57
 13056 1e4c 80000000 		.4byte	.LVL273
 13057 1e50 86000000 		.4byte	.LFE18
ARM GAS  C:\Users\ddemidov\AppData\Local\Temp\ccTwWFqA.s 			page 281


 13058 1e54 0400     		.2byte	0x4
 13059 1e56 F3       		.byte	0xf3
 13060 1e57 01       		.uleb128 0x1
 13061 1e58 50       		.byte	0x50
 13062 1e59 9F       		.byte	0x9f
 13063 1e5a 00000000 		.4byte	0
 13064 1e5e 00000000 		.4byte	0
 13065              	.LLST99:
 13066 1e62 00000000 		.4byte	.LVL252
 13067 1e66 12000000 		.4byte	.LVL254
 13068 1e6a 0100     		.2byte	0x1
 13069 1e6c 51       		.byte	0x51
 13070 1e6d 12000000 		.4byte	.LVL254
 13071 1e71 80000000 		.4byte	.LVL271
 13072 1e75 0100     		.2byte	0x1
 13073 1e77 55       		.byte	0x55
 13074 1e78 00000000 		.4byte	0
 13075 1e7c 00000000 		.4byte	0
 13076              	.LLST100:
 13077 1e80 00000000 		.4byte	.LVL252
 13078 1e84 12000000 		.4byte	.LVL254
 13079 1e88 0100     		.2byte	0x1
 13080 1e8a 52       		.byte	0x52
 13081 1e8b 12000000 		.4byte	.LVL254
 13082 1e8f 80000000 		.4byte	.LVL272
 13083 1e93 0100     		.2byte	0x1
 13084 1e95 56       		.byte	0x56
 13085 1e96 00000000 		.4byte	0
 13086 1e9a 00000000 		.4byte	0
 13087              	.LLST101:
 13088 1e9e 00000000 		.4byte	.LVL252
 13089 1ea2 10000000 		.4byte	.LVL253
 13090 1ea6 0100     		.2byte	0x1
 13091 1ea8 53       		.byte	0x53
 13092 1ea9 10000000 		.4byte	.LVL253
 13093 1ead 86000000 		.4byte	.LFE18
 13094 1eb1 0400     		.2byte	0x4
 13095 1eb3 F3       		.byte	0xf3
 13096 1eb4 01       		.uleb128 0x1
 13097 1eb5 53       		.byte	0x53
 13098 1eb6 9F       		.byte	0x9f
 13099 1eb7 00000000 		.4byte	0
 13100 1ebb 00000000 		.4byte	0
 13101              	.LLST102:
 13102 1ebf 10000000 		.4byte	.LVL253
 13103 1ec3 12000000 		.4byte	.LVL254
 13104 1ec7 0100     		.2byte	0x1
 13105 1ec9 53       		.byte	0x53
 13106 1eca 12000000 		.4byte	.LVL254
 13107 1ece 20000000 		.4byte	.LVL255
 13108 1ed2 0100     		.2byte	0x1
 13109 1ed4 52       		.byte	0x52
 13110 1ed5 20000000 		.4byte	.LVL255
 13111 1ed9 74000000 		.4byte	.LVL269
 13112 1edd 0100     		.2byte	0x1
 13113 1edf 58       		.byte	0x58
 13114 1ee0 74000000 		.4byte	.LVL269
ARM GAS  C:\Users\ddemidov\AppData\Local\Temp\ccTwWFqA.s 			page 282


 13115 1ee4 78000000 		.4byte	.LVL270
 13116 1ee8 0100     		.2byte	0x1
 13117 1eea 53       		.byte	0x53
 13118 1eeb 78000000 		.4byte	.LVL270
 13119 1eef 86000000 		.4byte	.LFE18
 13120 1ef3 0100     		.2byte	0x1
 13121 1ef5 52       		.byte	0x52
 13122 1ef6 00000000 		.4byte	0
 13123 1efa 00000000 		.4byte	0
 13124              	.LLST103:
 13125 1efe 32000000 		.4byte	.LVL258
 13126 1f02 74000000 		.4byte	.LVL269
 13127 1f06 0200     		.2byte	0x2
 13128 1f08 40       		.byte	0x40
 13129 1f09 9F       		.byte	0x9f
 13130 1f0a 00000000 		.4byte	0
 13131 1f0e 00000000 		.4byte	0
 13132              	.LLST104:
 13133 1f12 32000000 		.4byte	.LVL258
 13134 1f16 6D000000 		.4byte	.LVL266-1
 13135 1f1a 0100     		.2byte	0x1
 13136 1f1c 50       		.byte	0x50
 13137 1f1d 6D000000 		.4byte	.LVL266-1
 13138 1f21 74000000 		.4byte	.LVL269
 13139 1f25 0400     		.2byte	0x4
 13140 1f27 77       		.byte	0x77
 13141 1f28 F401     		.sleb128 244
 13142 1f2a 9F       		.byte	0x9f
 13143 1f2b 00000000 		.4byte	0
 13144 1f2f 00000000 		.4byte	0
 13145              	.LLST105:
 13146 1f33 32000000 		.4byte	.LVL258
 13147 1f37 70000000 		.4byte	.LVL267
 13148 1f3b 0100     		.2byte	0x1
 13149 1f3d 55       		.byte	0x55
 13150 1f3e 70000000 		.4byte	.LVL267
 13151 1f42 74000000 		.4byte	.LVL269
 13152 1f46 0300     		.2byte	0x3
 13153 1f48 75       		.byte	0x75
 13154 1f49 70       		.sleb128 -16
 13155 1f4a 9F       		.byte	0x9f
 13156 1f4b 00000000 		.4byte	0
 13157 1f4f 00000000 		.4byte	0
 13158              	.LLST106:
 13159 1f53 3E000000 		.4byte	.LVL259
 13160 1f57 4E000000 		.4byte	.LVL261
 13161 1f5b 0100     		.2byte	0x1
 13162 1f5d 53       		.byte	0x53
 13163 1f5e 50000000 		.4byte	.LVL262
 13164 1f62 56000000 		.4byte	.LVL263
 13165 1f66 0100     		.2byte	0x1
 13166 1f68 53       		.byte	0x53
 13167 1f69 00000000 		.4byte	0
 13168 1f6d 00000000 		.4byte	0
 13169              	.LLST107:
 13170 1f71 56000000 		.4byte	.LVL263
 13171 1f75 66000000 		.4byte	.LVL265
ARM GAS  C:\Users\ddemidov\AppData\Local\Temp\ccTwWFqA.s 			page 283


 13172 1f79 0100     		.2byte	0x1
 13173 1f7b 53       		.byte	0x53
 13174 1f7c 00000000 		.4byte	0
 13175 1f80 00000000 		.4byte	0
 13176              		.section	.debug_aranges,"",%progbits
 13177 0000 4C000000 		.4byte	0x4c
 13178 0004 0200     		.2byte	0x2
 13179 0006 00000000 		.4byte	.Ldebug_info0
 13180 000a 04       		.byte	0x4
 13181 000b 00       		.byte	0
 13182 000c 0000     		.2byte	0
 13183 000e 0000     		.2byte	0
 13184 0010 00000000 		.4byte	.LFB12
 13185 0014 44050000 		.4byte	.LFE12-.LFB12
 13186 0018 00000000 		.4byte	.LFB13
 13187 001c 2C050000 		.4byte	.LFE13-.LFB13
 13188 0020 00000000 		.4byte	.LFB16
 13189 0024 2A000000 		.4byte	.LFE16-.LFB16
 13190 0028 00000000 		.4byte	.LFB14
 13191 002c EC040000 		.4byte	.LFE14-.LFB14
 13192 0030 00000000 		.4byte	.LFB15
 13193 0034 2C000000 		.4byte	.LFE15-.LFB15
 13194 0038 00000000 		.4byte	.LFB17
 13195 003c 72000000 		.4byte	.LFE17-.LFB17
 13196 0040 00000000 		.4byte	.LFB18
 13197 0044 86000000 		.4byte	.LFE18-.LFB18
 13198 0048 00000000 		.4byte	0
 13199 004c 00000000 		.4byte	0
 13200              		.section	.debug_ranges,"",%progbits
 13201              	.Ldebug_ranges0:
 13202 0000 00000000 		.4byte	.LFB12
 13203 0004 44050000 		.4byte	.LFE12
 13204 0008 00000000 		.4byte	.LFB13
 13205 000c 2C050000 		.4byte	.LFE13
 13206 0010 00000000 		.4byte	.LFB16
 13207 0014 2A000000 		.4byte	.LFE16
 13208 0018 00000000 		.4byte	.LFB14
 13209 001c EC040000 		.4byte	.LFE14
 13210 0020 00000000 		.4byte	.LFB15
 13211 0024 2C000000 		.4byte	.LFE15
 13212 0028 00000000 		.4byte	.LFB17
 13213 002c 72000000 		.4byte	.LFE17
 13214 0030 00000000 		.4byte	.LFB18
 13215 0034 86000000 		.4byte	.LFE18
 13216 0038 00000000 		.4byte	0
 13217 003c 00000000 		.4byte	0
 13218              		.section	.debug_line,"",%progbits
 13219              	.Ldebug_line0:
 13220 0000 9B040000 		.section	.debug_str,"MS",%progbits,1
 13220      0200A300 
 13220      00000201 
 13220      FB0E0D00 
 13220      01010101 
 13221              	.LASF124:
 13222 0000 534B4944 		.ascii	"SKID_E\000"
 13222      5F4500
 13223              	.LASF113:
ARM GAS  C:\Users\ddemidov\AppData\Local\Temp\ccTwWFqA.s 			page 284


 13224 0007 54485245 		.ascii	"THREAD_STORE_SET_E\000"
 13224      41445F53 
 13224      544F5245 
 13224      5F534554 
 13224      5F4500
 13225              	.LASF74:
 13226 001a 41534E5F 		.ascii	"ASN_ECC_KEY_E\000"
 13226      4543435F 
 13226      4B45595F 
 13226      4500
 13227              	.LASF64:
 13228 0028 41534E5F 		.ascii	"ASN_SIG_OID_E\000"
 13228      5349475F 
 13228      4F49445F 
 13228      4500
 13229              	.LASF104:
 13230 0036 494E5F43 		.ascii	"IN_CORE_FIPS_E\000"
 13230      4F52455F 
 13230      46495053 
 13230      5F4500
 13231              	.LASF22:
 13232 0045 4D41585F 		.ascii	"MAX_CODE_E\000"
 13232      434F4445 
 13232      5F4500
 13233              	.LASF81:
 13234 0050 4145535F 		.ascii	"AES_GCM_AUTH_E\000"
 13234      47434D5F 
 13234      41555448 
 13234      5F4500
 13235              	.LASF101:
 13236 005f 484D4143 		.ascii	"HMAC_MIN_KEYLEN_E\000"
 13236      5F4D494E 
 13236      5F4B4559 
 13236      4C454E5F 
 13236      4500
 13237              	.LASF4:
 13238 0071 756E7369 		.ascii	"unsigned int\000"
 13238      676E6564 
 13238      20696E74 
 13238      00
 13239              	.LASF150:
 13240 007e 6D61785F 		.ascii	"max_key_len\000"
 13240      6B65795F 
 13240      6C656E00 
 13241              	.LASF52:
 13242 008a 41534E5F 		.ascii	"ASN_PARSE_E\000"
 13242      50415253 
 13242      455F4500 
 13243              	.LASF90:
 13244 0096 41534E5F 		.ascii	"ASN_CRL_CONFIRM_E\000"
 13244      43524C5F 
 13244      434F4E46 
 13244      49524D5F 
 13244      4500
 13245              	.LASF128:
 13246 00a8 57435F49 		.ascii	"WC_INIT_E\000"
 13246      4E49545F 
ARM GAS  C:\Users\ddemidov\AppData\Local\Temp\ccTwWFqA.s 			page 285


 13246      4500
 13247              	.LASF42:
 13248 00b2 5253415F 		.ascii	"RSA_WRONG_TYPE_E\000"
 13248      57524F4E 
 13248      475F5459 
 13248      50455F45 
 13248      00
 13249              	.LASF31:
 13250 00c3 4D505F45 		.ascii	"MP_EXPTMOD_E\000"
 13250      5850544D 
 13250      4F445F45 
 13250      00
 13251              	.LASF73:
 13252 00d0 4543435F 		.ascii	"ECC_BAD_ARG_E\000"
 13252      4241445F 
 13252      4152475F 
 13252      4500
 13253              	.LASF62:
 13254 00de 41534E5F 		.ascii	"ASN_BEFORE_DATE_E\000"
 13254      4245464F 
 13254      52455F44 
 13254      4154455F 
 13254      4500
 13255              	.LASF125:
 13256 00f0 414B4944 		.ascii	"AKID_E\000"
 13256      5F4500
 13257              	.LASF117:
 13258 00f7 4543435F 		.ascii	"ECC_PRIV_KEY_E\000"
 13258      50524956 
 13258      5F4B4559 
 13258      5F4500
 13259              	.LASF7:
 13260 0106 574F4C46 		.ascii	"WOLFSSL_WORD_SIZE\000"
 13260      53534C5F 
 13260      574F5244 
 13260      5F53495A 
 13260      4500
 13261              	.LASF82:
 13262 0118 4145535F 		.ascii	"AES_CCM_AUTH_E\000"
 13262      43434D5F 
 13262      41555448 
 13262      5F4500
 13263              	.LASF17:
 13264 0127 4145535F 		.ascii	"AES_ENC_TYPE\000"
 13264      454E435F 
 13264      54595045 
 13264      00
 13265              	.LASF85:
 13266 0134 434F4D50 		.ascii	"COMPRESS_E\000"
 13266      52455353 
 13266      5F4500
 13267              	.LASF96:
 13268 013f 504B4353 		.ascii	"PKCS7_OID_E\000"
 13268      375F4F49 
 13268      445F4500 
 13269              	.LASF120:
 13270 014b 5352505F 		.ascii	"SRP_BAD_KEY_E\000"
ARM GAS  C:\Users\ddemidov\AppData\Local\Temp\ccTwWFqA.s 			page 286


 13270      4241445F 
 13270      4B45595F 
 13270      4500
 13271              	.LASF47:
 13272 0159 44415445 		.ascii	"DATE_E\000"
 13272      5F4500
 13273              	.LASF33:
 13274 0160 4D505F53 		.ascii	"MP_SUB_E\000"
 13274      55425F45 
 13274      00
 13275              	.LASF149:
 13276 0169 77635F41 		.ascii	"wc_AesSetKey\000"
 13276      65735365 
 13276      744B6579 
 13276      00
 13277              	.LASF36:
 13278 0176 4D505F4D 		.ascii	"MP_MULMOD_E\000"
 13278      554C4D4F 
 13278      445F4500 
 13279              	.LASF142:
 13280 0182 6F757442 		.ascii	"outBlock\000"
 13280      6C6F636B 
 13280      00
 13281              	.LASF75:
 13282 018b 4543435F 		.ascii	"ECC_CURVE_OID_E\000"
 13282      43555256 
 13282      455F4F49 
 13282      445F4500 
 13283              	.LASF61:
 13284 019b 41534E5F 		.ascii	"ASN_DATE_SZ_E\000"
 13284      44415445 
 13284      5F535A5F 
 13284      4500
 13285              	.LASF49:
 13286 01a9 49535355 		.ascii	"ISSUER_E\000"
 13286      45525F45 
 13286      00
 13287              	.LASF23:
 13288 01b2 4F50454E 		.ascii	"OPEN_RAN_E\000"
 13288      5F52414E 
 13288      5F4500
 13289              	.LASF105:
 13290 01bd 4145535F 		.ascii	"AES_KAT_FIPS_E\000"
 13290      4B41545F 
 13290      46495053 
 13290      5F4500
 13291              	.LASF5:
 13292 01cc 6C6F6E67 		.ascii	"long long unsigned int\000"
 13292      206C6F6E 
 13292      6720756E 
 13292      7369676E 
 13292      65642069 
 13293              	.LASF89:
 13294 01e3 41534E5F 		.ascii	"ASN_NO_SIGNER_E\000"
 13294      4E4F5F53 
 13294      49474E45 
 13294      525F4500 
ARM GAS  C:\Users\ddemidov\AppData\Local\Temp\ccTwWFqA.s 			page 287


 13295              	.LASF35:
 13296 01f3 4D505F4D 		.ascii	"MP_MUL_E\000"
 13296      554C5F45 
 13296      00
 13297              	.LASF68:
 13298 01fc 41534E5F 		.ascii	"ASN_SIG_HASH_E\000"
 13298      5349475F 
 13298      48415348 
 13298      5F4500
 13299              	.LASF43:
 13300 020b 5253415F 		.ascii	"RSA_BUFFER_E\000"
 13300      42554646 
 13300      45525F45 
 13300      00
 13301              	.LASF119:
 13302 0218 5352505F 		.ascii	"SRP_VERIFY_E\000"
 13302      56455249 
 13302      46595F45 
 13302      00
 13303              	.LASF98:
 13304 0225 46495053 		.ascii	"FIPS_NOT_ALLOWED_E\000"
 13304      5F4E4F54 
 13304      5F414C4C 
 13304      4F574544 
 13304      5F4500
 13305              	.LASF76:
 13306 0238 4241445F 		.ascii	"BAD_FUNC_ARG\000"
 13306      46554E43 
 13306      5F415247 
 13306      00
 13307              	.LASF59:
 13308 0245 41534E5F 		.ascii	"ASN_BITSTR_E\000"
 13308      42495453 
 13308      54525F45 
 13308      00
 13309              	.LASF136:
 13310 0252 76616C75 		.ascii	"value\000"
 13310      6500
 13311              	.LASF131:
 13312 0258 5349475F 		.ascii	"SIG_TYPE_E\000"
 13312      54595045 
 13312      5F4500
 13313              	.LASF56:
 13314 0263 41534E5F 		.ascii	"ASN_OBJECT_ID_E\000"
 13314      4F424A45 
 13314      43545F49 
 13314      445F4500 
 13315              	.LASF139:
 13316 0273 62797465 		.ascii	"byteCount\000"
 13316      436F756E 
 13316      7400
 13317              	.LASF153:
 13318 027d 77635F41 		.ascii	"wc_AesCbcEncrypt\000"
 13318      65734362 
 13318      63456E63 
 13318      72797074 
 13318      00
ARM GAS  C:\Users\ddemidov\AppData\Local\Temp\ccTwWFqA.s 			page 288


 13319              	.LASF25:
 13320 028e 57494E43 		.ascii	"WINCRYPT_E\000"
 13320      52595054 
 13320      5F4500
 13321              	.LASF143:
 13322 0299 77635F41 		.ascii	"wc_AesEncrypt\000"
 13322      6573456E 
 13322      63727970 
 13322      7400
 13323              	.LASF155:
 13324 02a7 77635F41 		.ascii	"wc_AesCbcDecrypt\000"
 13324      65734362 
 13324      63446563 
 13324      72797074 
 13324      00
 13325              	.LASF65:
 13326 02b8 41534E5F 		.ascii	"ASN_TIME_E\000"
 13326      54494D45 
 13326      5F4500
 13327              	.LASF144:
 13328 02c3 77635F41 		.ascii	"wc_AesDecrypt\000"
 13328      65734465 
 13328      63727970 
 13328      7400
 13329              	.LASF60:
 13330 02d1 41534E5F 		.ascii	"ASN_UNKNOWN_OID_E\000"
 13330      554E4B4E 
 13330      4F574E5F 
 13330      4F49445F 
 13330      4500
 13331              	.LASF100:
 13332 02e3 524E475F 		.ascii	"RNG_FAILURE_E\000"
 13332      4641494C 
 13332      5552455F 
 13332      4500
 13333              	.LASF94:
 13334 02f1 4241445F 		.ascii	"BAD_PADDING_E\000"
 13334      50414444 
 13334      494E475F 
 13334      4500
 13335              	.LASF123:
 13336 02ff 41534E5F 		.ascii	"ASN_NO_KEYUSAGE\000"
 13336      4E4F5F4B 
 13336      45595553 
 13336      41474500 
 13337              	.LASF57:
 13338 030f 41534E5F 		.ascii	"ASN_TAG_NULL_E\000"
 13338      5441475F 
 13338      4E554C4C 
 13338      5F4500
 13339              	.LASF102:
 13340 031e 5253415F 		.ascii	"RSA_PAD_E\000"
 13340      5041445F 
 13340      4500
 13341              	.LASF140:
 13342 0328 636F756E 		.ascii	"count\000"
 13342      7400
ARM GAS  C:\Users\ddemidov\AppData\Local\Temp\ccTwWFqA.s 			page 289


 13343              	.LASF106:
 13344 032e 44455333 		.ascii	"DES3_KAT_FIPS_E\000"
 13344      5F4B4154 
 13344      5F464950 
 13344      535F4500 
 13345              	.LASF132:
 13346 033e 48415348 		.ascii	"HASH_TYPE_E\000"
 13346      5F545950 
 13346      455F4500 
 13347              	.LASF146:
 13348 034a 6B65796C 		.ascii	"keylen\000"
 13348      656E00
 13349              	.LASF16:
 13350 0351 63686172 		.ascii	"char\000"
 13350      00
 13351              	.LASF55:
 13352 0356 41534E5F 		.ascii	"ASN_RSA_KEY_E\000"
 13352      5253415F 
 13352      4B45595F 
 13352      4500
 13353              	.LASF145:
 13354 0364 75736572 		.ascii	"userKey\000"
 13354      4B657900 
 13355              	.LASF69:
 13356 036c 41534E5F 		.ascii	"ASN_SIG_KEY_E\000"
 13356      5349475F 
 13356      4B45595F 
 13356      4500
 13357              	.LASF34:
 13358 037a 4D505F41 		.ascii	"MP_ADD_E\000"
 13358      44445F45 
 13358      00
 13359              	.LASF51:
 13360 0383 45585445 		.ascii	"EXTENSIONS_E\000"
 13360      4E53494F 
 13360      4E535F45 
 13360      00
 13361              	.LASF18:
 13362 0390 4145535F 		.ascii	"AES_ENCRYPTION\000"
 13362      454E4352 
 13362      59505449 
 13362      4F4E00
 13363              	.LASF8:
 13364 039f 574F4C46 		.ascii	"WOLFSSL_BIT_SIZE\000"
 13364      53534C5F 
 13364      4249545F 
 13364      53495A45 
 13364      00
 13365              	.LASF78:
 13366 03b0 554E4943 		.ascii	"UNICODE_SIZE_E\000"
 13366      4F44455F 
 13366      53495A45 
 13366      5F4500
 13367              	.LASF158:
 13368 03bf 2E2E5C6B 		.ascii	"..\\kronos-c-sdk\\src\\wolfSSL\\wolfcrypt\\src\\aes"
 13368      726F6E6F 
 13368      732D632D 
ARM GAS  C:\Users\ddemidov\AppData\Local\Temp\ccTwWFqA.s 			page 290


 13368      73646B5C 
 13368      7372635C 
 13369 03ec 2E6300   		.ascii	".c\000"
 13370              	.LASF14:
 13371 03ef 6C6F6E67 		.ascii	"long long int\000"
 13371      206C6F6E 
 13371      6720696E 
 13371      7400
 13372              	.LASF30:
 13373 03fd 4D505F52 		.ascii	"MP_READ_E\000"
 13373      4541445F 
 13373      4500
 13374              	.LASF122:
 13375 0407 41534E5F 		.ascii	"ASN_NO_AKID\000"
 13375      4E4F5F41 
 13375      4B494400 
 13376              	.LASF77:
 13377 0413 4E4F545F 		.ascii	"NOT_COMPILED_IN\000"
 13377      434F4D50 
 13377      494C4544 
 13377      5F494E00 
 13378              	.LASF115:
 13379 0423 49535F50 		.ascii	"IS_POINT_E\000"
 13379      4F494E54 
 13379      5F4500
 13380              	.LASF88:
 13381 042e 4241445F 		.ascii	"BAD_ALIGN_E\000"
 13381      414C4947 
 13381      4E5F4500 
 13382              	.LASF160:
 13383 043a 77635F41 		.ascii	"wc_AesSetKeyLocal\000"
 13383      65735365 
 13383      744B6579 
 13383      4C6F6361 
 13383      6C00
 13384              	.LASF44:
 13385 044c 42554646 		.ascii	"BUFFER_E\000"
 13385      45525F45 
 13385      00
 13386              	.LASF162:
 13387 0455 6D656D73 		.ascii	"memset\000"
 13387      657400
 13388              	.LASF48:
 13389 045c 5355424A 		.ascii	"SUBJECT_E\000"
 13389      4543545F 
 13389      4500
 13390              	.LASF83:
 13391 0466 43415649 		.ascii	"CAVIUM_INIT_E\000"
 13391      554D5F49 
 13391      4E49545F 
 13391      4500
 13392              	.LASF141:
 13393 0474 696E426C 		.ascii	"inBlock\000"
 13393      6F636B00 
 13394              	.LASF40:
 13395 047c 4D505F5A 		.ascii	"MP_ZERO_E\000"
 13395      45524F5F 
ARM GAS  C:\Users\ddemidov\AppData\Local\Temp\ccTwWFqA.s 			page 291


 13395      4500
 13396              	.LASF84:
 13397 0486 434F4D50 		.ascii	"COMPRESS_INIT_E\000"
 13397      52455353 
 13397      5F494E49 
 13397      545F4500 
 13398              	.LASF108:
 13399 0496 5253415F 		.ascii	"RSA_KAT_FIPS_E\000"
 13399      4B41545F 
 13399      46495053 
 13399      5F4500
 13400              	.LASF152:
 13401 04a5 6D61736B 		.ascii	"mask\000"
 13401      00
 13402              	.LASF70:
 13403 04aa 41534E5F 		.ascii	"ASN_DH_KEY_E\000"
 13403      44485F4B 
 13403      45595F45 
 13403      00
 13404              	.LASF154:
 13405 04b7 626C6F63 		.ascii	"blocks\000"
 13405      6B7300
 13406              	.LASF21:
 13407 04be 726F756E 		.ascii	"rounds\000"
 13407      647300
 13408              	.LASF127:
 13409 04c5 43455254 		.ascii	"CERTPOLICIES_E\000"
 13409      504F4C49 
 13409      43494553 
 13409      5F4500
 13410              	.LASF86:
 13411 04d4 4445434F 		.ascii	"DECOMPRESS_INIT_E\000"
 13411      4D505245 
 13411      53535F49 
 13411      4E49545F 
 13411      4500
 13412              	.LASF99:
 13413 04e6 41534E5F 		.ascii	"ASN_NAME_INVALID_E\000"
 13413      4E414D45 
 13413      5F494E56 
 13413      414C4944 
 13413      5F4500
 13414              	.LASF37:
 13415 04f9 4D505F4D 		.ascii	"MP_MOD_E\000"
 13415      4F445F45 
 13415      00
 13416              	.LASF135:
 13417 0502 42797465 		.ascii	"ByteReverseWord32\000"
 13417      52657665 
 13417      72736557 
 13417      6F726433 
 13417      3200
 13418              	.LASF130:
 13419 0514 4241445F 		.ascii	"BAD_COND_E\000"
 13419      434F4E44 
 13419      5F4500
 13420              	.LASF20:
ARM GAS  C:\Users\ddemidov\AppData\Local\Temp\ccTwWFqA.s 			page 292


 13421 051f 4145535F 		.ascii	"AES_BLOCK_SIZE\000"
 13421      424C4F43 
 13421      4B5F5349 
 13421      5A4500
 13422              	.LASF103:
 13423 052e 4C454E47 		.ascii	"LENGTH_ONLY_E\000"
 13423      54485F4F 
 13423      4E4C595F 
 13423      4500
 13424              	.LASF80:
 13425 053c 414C545F 		.ascii	"ALT_NAME_E\000"
 13425      4E414D45 
 13425      5F4500
 13426              	.LASF159:
 13427 0547 433A5C55 		.ascii	"C:\\Users\\ddemidov\\Documents\\PSoC Creator\\BLE_F"
 13427      73657273 
 13427      5C646465 
 13427      6D69646F 
 13427      765C446F 
 13428 0575 696E644D 		.ascii	"indMe01\\SenseAbility.cydsn\000"
 13428      6530315C 
 13428      53656E73 
 13428      65416269 
 13428      6C697479 
 13429              	.LASF19:
 13430 0590 4145535F 		.ascii	"AES_DECRYPTION\000"
 13430      44454352 
 13430      59505449 
 13430      4F4E00
 13431              	.LASF93:
 13432 059f 4241445F 		.ascii	"BAD_ENC_STATE_E\000"
 13432      454E435F 
 13432      53544154 
 13432      455F4500 
 13433              	.LASF11:
 13434 05af 73686F72 		.ascii	"short int\000"
 13434      7420696E 
 13434      7400
 13435              	.LASF58:
 13436 05b9 41534E5F 		.ascii	"ASN_EXPECT_0_E\000"
 13436      45585045 
 13436      43545F30 
 13436      5F4500
 13437              	.LASF12:
 13438 05c8 6C6F6E67 		.ascii	"long int\000"
 13438      20696E74 
 13438      00
 13439              	.LASF71:
 13440 05d1 41534E5F 		.ascii	"ASN_NTRU_KEY_E\000"
 13440      4E545255 
 13440      5F4B4559 
 13440      5F4500
 13441              	.LASF50:
 13442 05e0 43415F54 		.ascii	"CA_TRUE_E\000"
 13442      5255455F 
 13442      4500
 13443              	.LASF133:
ARM GAS  C:\Users\ddemidov\AppData\Local\Temp\ccTwWFqA.s 			page 293


 13444 05ea 4D494E5F 		.ascii	"MIN_CODE_E\000"
 13444      434F4445 
 13444      5F4500
 13445              	.LASF148:
 13446 05f5 77635F41 		.ascii	"wc_AesSetIV\000"
 13446      65735365 
 13446      74495600 
 13447              	.LASF111:
 13448 0601 41455347 		.ascii	"AESGCM_KAT_FIPS_E\000"
 13448      434D5F4B 
 13448      41545F46 
 13448      4950535F 
 13448      4500
 13449              	.LASF147:
 13450 0613 74656D70 		.ascii	"temp\000"
 13450      00
 13451              	.LASF3:
 13452 0618 776F7264 		.ascii	"word32\000"
 13452      333200
 13453              	.LASF39:
 13454 061f 4D505F43 		.ascii	"MP_CMP_E\000"
 13454      4D505F45 
 13454      00
 13455              	.LASF129:
 13456 0628 5349475F 		.ascii	"SIG_VERIFY_E\000"
 13456      56455249 
 13456      46595F45 
 13456      00
 13457              	.LASF24:
 13458 0635 52454144 		.ascii	"READ_RAN_E\000"
 13458      5F52414E 
 13458      5F4500
 13459              	.LASF157:
 13460 0640 474E5520 		.ascii	"GNU C 4.9.3 20150303 (release) [ARM/embedded-4_9-br"
 13460      4320342E 
 13460      392E3320 
 13460      32303135 
 13460      30333033 
 13461 0673 616E6368 		.ascii	"anch revision 221220] -mcpu=cortex-m0 -mthumb -g -O"
 13461      20726576 
 13461      6973696F 
 13461      6E203232 
 13461      31323230 
 13462 06a6 67202D66 		.ascii	"g -ffunction-sections -ffat-lto-objects\000"
 13462      66756E63 
 13462      74696F6E 
 13462      2D736563 
 13462      74696F6E 
 13463              	.LASF54:
 13464 06ce 41534E5F 		.ascii	"ASN_GETINT_E\000"
 13464      47455449 
 13464      4E545F45 
 13464      00
 13465              	.LASF107:
 13466 06db 484D4143 		.ascii	"HMAC_KAT_FIPS_E\000"
 13466      5F4B4154 
 13466      5F464950 
ARM GAS  C:\Users\ddemidov\AppData\Local\Temp\ccTwWFqA.s 			page 294


 13466      535F4500 
 13467              	.LASF46:
 13468 06eb 5055424C 		.ascii	"PUBLIC_KEY_E\000"
 13468      49435F4B 
 13468      45595F45 
 13468      00
 13469              	.LASF116:
 13470 06f8 4543435F 		.ascii	"ECC_INF_E\000"
 13470      494E465F 
 13470      4500
 13471              	.LASF72:
 13472 0702 41534E5F 		.ascii	"ASN_CRIT_EXT_E\000"
 13472      43524954 
 13472      5F455854 
 13472      5F4500
 13473              	.LASF79:
 13474 0711 4E4F5F50 		.ascii	"NO_PASSWORD\000"
 13474      41535357 
 13474      4F524400 
 13475              	.LASF63:
 13476 071d 41534E5F 		.ascii	"ASN_AFTER_DATE_E\000"
 13476      41465445 
 13476      525F4441 
 13476      54455F45 
 13476      00
 13477              	.LASF109:
 13478 072e 44524247 		.ascii	"DRBG_KAT_FIPS_E\000"
 13478      5F4B4154 
 13478      5F464950 
 13478      535F4500 
 13479              	.LASF110:
 13480 073e 44524247 		.ascii	"DRBG_CONT_FIPS_E\000"
 13480      5F434F4E 
 13480      545F4649 
 13480      50535F45 
 13480      00
 13481              	.LASF126:
 13482 074f 4B455955 		.ascii	"KEYUSAGE_E\000"
 13482      53414745 
 13482      5F4500
 13483              	.LASF134:
 13484 075a 726F746C 		.ascii	"rotlFixed\000"
 13484      46697865 
 13484      6400
 13485              	.LASF92:
 13486 0764 41534E5F 		.ascii	"ASN_OCSP_CONFIRM_E\000"
 13486      4F435350 
 13486      5F434F4E 
 13486      4649524D 
 13486      5F4500
 13487              	.LASF15:
 13488 0777 73697A65 		.ascii	"sizetype\000"
 13488      74797065 
 13488      00
 13489              	.LASF13:
 13490 0780 6C6F6E67 		.ascii	"long unsigned int\000"
 13490      20756E73 
ARM GAS  C:\Users\ddemidov\AppData\Local\Temp\ccTwWFqA.s 			page 295


 13490      69676E65 
 13490      6420696E 
 13490      7400
 13491              	.LASF112:
 13492 0792 54485245 		.ascii	"THREAD_STORE_KEY_E\000"
 13492      41445F53 
 13492      544F5245 
 13492      5F4B4559 
 13492      5F4500
 13493              	.LASF67:
 13494 07a5 41534E5F 		.ascii	"ASN_SIG_CONFIRM_E\000"
 13494      5349475F 
 13494      434F4E46 
 13494      49524D5F 
 13494      4500
 13495              	.LASF2:
 13496 07b7 62797465 		.ascii	"byte\000"
 13496      00
 13497              	.LASF38:
 13498 07bc 4D505F49 		.ascii	"MP_INVMOD_E\000"
 13498      4E564D4F 
 13498      445F4500 
 13499              	.LASF32:
 13500 07c8 4D505F54 		.ascii	"MP_TO_E\000"
 13500      4F5F4500 
 13501              	.LASF26:
 13502 07d0 43525950 		.ascii	"CRYPTGEN_E\000"
 13502      5447454E 
 13502      5F4500
 13503              	.LASF0:
 13504 07db 756E7369 		.ascii	"unsigned char\000"
 13504      676E6564 
 13504      20636861 
 13504      7200
 13505              	.LASF151:
 13506 07e9 786F7262 		.ascii	"xorbuf\000"
 13506      756600
 13507              	.LASF91:
 13508 07f0 41534E5F 		.ascii	"ASN_CRL_NO_SIGNER_E\000"
 13508      43524C5F 
 13508      4E4F5F53 
 13508      49474E45 
 13508      525F4500 
 13509              	.LASF138:
 13510 0804 42797465 		.ascii	"ByteReverseWords\000"
 13510      52657665 
 13510      72736557 
 13510      6F726473 
 13510      00
 13511              	.LASF53:
 13512 0815 41534E5F 		.ascii	"ASN_VERSION_E\000"
 13512      56455253 
 13512      494F4E5F 
 13512      4500
 13513              	.LASF121:
 13514 0823 41534E5F 		.ascii	"ASN_NO_SKID\000"
 13514      4E4F5F53 
ARM GAS  C:\Users\ddemidov\AppData\Local\Temp\ccTwWFqA.s 			page 296


 13514      4B494400 
 13515              	.LASF156:
 13516 082f 72636F6E 		.ascii	"rcon\000"
 13516      00
 13517              	.LASF29:
 13518 0834 4D505F49 		.ascii	"MP_INIT_E\000"
 13518      4E49545F 
 13518      4500
 13519              	.LASF137:
 13520 083e 586F7257 		.ascii	"XorWords\000"
 13520      6F726473 
 13520      00
 13521              	.LASF10:
 13522 0847 7369676E 		.ascii	"signed char\000"
 13522      65642063 
 13522      68617200 
 13523              	.LASF1:
 13524 0853 73686F72 		.ascii	"short unsigned int\000"
 13524      7420756E 
 13524      7369676E 
 13524      65642069 
 13524      6E7400
 13525              	.LASF95:
 13526 0866 5245515F 		.ascii	"REQ_ATTRIBUTE_E\000"
 13526      41545452 
 13526      49425554 
 13526      455F4500 
 13527              	.LASF41:
 13528 0876 4D454D4F 		.ascii	"MEMORY_E\000"
 13528      52595F45 
 13528      00
 13529              	.LASF161:
 13530 087f 6D656D63 		.ascii	"memcpy\000"
 13530      707900
 13531              	.LASF118:
 13532 0886 5352505F 		.ascii	"SRP_CALL_ORDER_E\000"
 13532      43414C4C 
 13532      5F4F5244 
 13532      45525F45 
 13532      00
 13533              	.LASF66:
 13534 0897 41534E5F 		.ascii	"ASN_INPUT_E\000"
 13534      494E5055 
 13534      545F4500 
 13535              	.LASF97:
 13536 08a3 504B4353 		.ascii	"PKCS7_RECIP_E\000"
 13536      375F5245 
 13536      4349505F 
 13536      4500
 13537              	.LASF9:
 13538 08b1 574F4C46 		.ascii	"WOLFSSL_WORD_BITS\000"
 13538      53534C5F 
 13538      574F5244 
 13538      5F424954 
 13538      5300
 13539              	.LASF6:
 13540 08c3 776F6C66 		.ascii	"wolfssl_word\000"
ARM GAS  C:\Users\ddemidov\AppData\Local\Temp\ccTwWFqA.s 			page 297


 13540      73736C5F 
 13540      776F7264 
 13540      00
 13541              	.LASF45:
 13542 08d0 414C474F 		.ascii	"ALGO_ID_E\000"
 13542      5F49445F 
 13542      4500
 13543              	.LASF87:
 13544 08da 4445434F 		.ascii	"DECOMPRESS_E\000"
 13544      4D505245 
 13544      53535F45 
 13544      00
 13545              	.LASF27:
 13546 08e7 52414E5F 		.ascii	"RAN_BLOCK_E\000"
 13546      424C4F43 
 13546      4B5F4500 
 13547              	.LASF114:
 13548 08f3 4D41435F 		.ascii	"MAC_CMP_FAILED_E\000"
 13548      434D505F 
 13548      4641494C 
 13548      45445F45 
 13548      00
 13549              	.LASF28:
 13550 0904 4241445F 		.ascii	"BAD_MUTEX_E\000"
 13550      4D555445 
 13550      585F4500 
 13551              		.ident	"GCC: (GNU Tools for ARM Embedded Processors) 4.9.3 20150303 (release) [ARM/embedded-4_9-br
