ARM GAS  C:\Users\ddemidov\AppData\Local\Temp\ccxvcNm7.s 			page 1


   1              		.cpu cortex-m0
   2              		.fpu softvfp
   3              		.eabi_attribute 20, 1
   4              		.eabi_attribute 21, 1
   5              		.eabi_attribute 23, 3
   6              		.eabi_attribute 24, 1
   7              		.eabi_attribute 25, 1
   8              		.eabi_attribute 26, 1
   9              		.eabi_attribute 30, 1
  10              		.eabi_attribute 34, 0
  11              		.eabi_attribute 18, 4
  12              		.code	16
  13              		.file	"arc4.c"
  14              		.text
  15              	.Ltext0:
  16              		.cfi_sections	.debug_frame
  17              		.section	.text.wc_Arc4SetKey,"ax",%progbits
  18              		.align	2
  19              		.global	wc_Arc4SetKey
  20              		.code	16
  21              		.thumb_func
  22              		.type	wc_Arc4SetKey, %function
  23              	wc_Arc4SetKey:
  24              	.LFB0:
  25              		.file 1 "..\\kronos-c-sdk\\src\\wolfSSL\\wolfcrypt\\src\\arc4.c"
   1:..\kronos-c-sdk\src\wolfSSL\wolfcrypt\src/arc4.c **** /* arc4.c
   2:..\kronos-c-sdk\src\wolfSSL\wolfcrypt\src/arc4.c ****  *
   3:..\kronos-c-sdk\src\wolfSSL\wolfcrypt\src/arc4.c ****  * Copyright (C) 2006-2016 wolfSSL Inc.
   4:..\kronos-c-sdk\src\wolfSSL\wolfcrypt\src/arc4.c ****  *
   5:..\kronos-c-sdk\src\wolfSSL\wolfcrypt\src/arc4.c ****  * This file is part of wolfSSL.
   6:..\kronos-c-sdk\src\wolfSSL\wolfcrypt\src/arc4.c ****  *
   7:..\kronos-c-sdk\src\wolfSSL\wolfcrypt\src/arc4.c ****  * wolfSSL is free software; you can redistribute it and/or modify
   8:..\kronos-c-sdk\src\wolfSSL\wolfcrypt\src/arc4.c ****  * it under the terms of the GNU General Public License as published by
   9:..\kronos-c-sdk\src\wolfSSL\wolfcrypt\src/arc4.c ****  * the Free Software Foundation; either version 2 of the License, or
  10:..\kronos-c-sdk\src\wolfSSL\wolfcrypt\src/arc4.c ****  * (at your option) any later version.
  11:..\kronos-c-sdk\src\wolfSSL\wolfcrypt\src/arc4.c ****  *
  12:..\kronos-c-sdk\src\wolfSSL\wolfcrypt\src/arc4.c ****  * wolfSSL is distributed in the hope that it will be useful,
  13:..\kronos-c-sdk\src\wolfSSL\wolfcrypt\src/arc4.c ****  * but WITHOUT ANY WARRANTY; without even the implied warranty of
  14:..\kronos-c-sdk\src\wolfSSL\wolfcrypt\src/arc4.c ****  * MERCHANTABILITY or FITNESS FOR A PARTICULAR PURPOSE.  See the
  15:..\kronos-c-sdk\src\wolfSSL\wolfcrypt\src/arc4.c ****  * GNU General Public License for more details.
  16:..\kronos-c-sdk\src\wolfSSL\wolfcrypt\src/arc4.c ****  *
  17:..\kronos-c-sdk\src\wolfSSL\wolfcrypt\src/arc4.c ****  * You should have received a copy of the GNU General Public License
  18:..\kronos-c-sdk\src\wolfSSL\wolfcrypt\src/arc4.c ****  * along with this program; if not, write to the Free Software
  19:..\kronos-c-sdk\src\wolfSSL\wolfcrypt\src/arc4.c ****  * Foundation, Inc., 51 Franklin Street, Fifth Floor, Boston, MA 02110-1335, USA
  20:..\kronos-c-sdk\src\wolfSSL\wolfcrypt\src/arc4.c ****  */
  21:..\kronos-c-sdk\src\wolfSSL\wolfcrypt\src/arc4.c **** 
  22:..\kronos-c-sdk\src\wolfSSL\wolfcrypt\src/arc4.c **** 
  23:..\kronos-c-sdk\src\wolfSSL\wolfcrypt\src/arc4.c **** #ifdef HAVE_CONFIG_H
  24:..\kronos-c-sdk\src\wolfSSL\wolfcrypt\src/arc4.c ****     #include <config.h>
  25:..\kronos-c-sdk\src\wolfSSL\wolfcrypt\src/arc4.c **** #endif
  26:..\kronos-c-sdk\src\wolfSSL\wolfcrypt\src/arc4.c **** 
  27:..\kronos-c-sdk\src\wolfSSL\wolfcrypt\src/arc4.c **** #include <wolfssl/wolfcrypt/settings.h>
  28:..\kronos-c-sdk\src\wolfSSL\wolfcrypt\src/arc4.c **** 
  29:..\kronos-c-sdk\src\wolfSSL\wolfcrypt\src/arc4.c **** #ifndef NO_RC4
  30:..\kronos-c-sdk\src\wolfSSL\wolfcrypt\src/arc4.c **** 
  31:..\kronos-c-sdk\src\wolfSSL\wolfcrypt\src/arc4.c **** #include <wolfssl/wolfcrypt/arc4.h>
  32:..\kronos-c-sdk\src\wolfSSL\wolfcrypt\src/arc4.c **** 
ARM GAS  C:\Users\ddemidov\AppData\Local\Temp\ccxvcNm7.s 			page 2


  33:..\kronos-c-sdk\src\wolfSSL\wolfcrypt\src/arc4.c **** #ifdef HAVE_CAVIUM
  34:..\kronos-c-sdk\src\wolfSSL\wolfcrypt\src/arc4.c ****     static void wc_Arc4CaviumSetKey(Arc4* arc4, const byte* key, word32 length);
  35:..\kronos-c-sdk\src\wolfSSL\wolfcrypt\src/arc4.c ****     static void wc_Arc4CaviumProcess(Arc4* arc4, byte* out, const byte* in,
  36:..\kronos-c-sdk\src\wolfSSL\wolfcrypt\src/arc4.c ****                                   word32 length);
  37:..\kronos-c-sdk\src\wolfSSL\wolfcrypt\src/arc4.c **** #endif
  38:..\kronos-c-sdk\src\wolfSSL\wolfcrypt\src/arc4.c **** 
  39:..\kronos-c-sdk\src\wolfSSL\wolfcrypt\src/arc4.c **** 
  40:..\kronos-c-sdk\src\wolfSSL\wolfcrypt\src/arc4.c **** void wc_Arc4SetKey(Arc4* arc4, const byte* key, word32 length)
  41:..\kronos-c-sdk\src\wolfSSL\wolfcrypt\src/arc4.c **** {
  26              		.loc 1 41 0
  27              		.cfi_startproc
  28              	.LVL0:
  29 0000 F0B5     		push	{r4, r5, r6, r7, lr}
  30              		.cfi_def_cfa_offset 20
  31              		.cfi_offset 4, -20
  32              		.cfi_offset 5, -16
  33              		.cfi_offset 6, -12
  34              		.cfi_offset 7, -8
  35              		.cfi_offset 14, -4
  36 0002 4F46     		mov	r7, r9
  37 0004 4646     		mov	r6, r8
  38 0006 C0B4     		push	{r6, r7}
  39              		.cfi_def_cfa_offset 28
  40              		.cfi_offset 8, -28
  41              		.cfi_offset 9, -24
  42 0008 8946     		mov	r9, r1
  43 000a 9446     		mov	ip, r2
  44              	.LVL1:
  42:..\kronos-c-sdk\src\wolfSSL\wolfcrypt\src/arc4.c ****     word32 i;
  43:..\kronos-c-sdk\src\wolfSSL\wolfcrypt\src/arc4.c ****     word32 keyIndex = 0, stateIndex = 0;
  44:..\kronos-c-sdk\src\wolfSSL\wolfcrypt\src/arc4.c **** 
  45:..\kronos-c-sdk\src\wolfSSL\wolfcrypt\src/arc4.c **** #ifdef HAVE_CAVIUM
  46:..\kronos-c-sdk\src\wolfSSL\wolfcrypt\src/arc4.c ****     if (arc4->magic == WOLFSSL_ARC4_CAVIUM_MAGIC)
  47:..\kronos-c-sdk\src\wolfSSL\wolfcrypt\src/arc4.c ****         return wc_Arc4CaviumSetKey(arc4, key, length);
  48:..\kronos-c-sdk\src\wolfSSL\wolfcrypt\src/arc4.c **** #endif
  49:..\kronos-c-sdk\src\wolfSSL\wolfcrypt\src/arc4.c **** 
  50:..\kronos-c-sdk\src\wolfSSL\wolfcrypt\src/arc4.c ****     arc4->x = 1;
  45              		.loc 1 50 0
  46 000c 0123     		mov	r3, #1
  47 000e 0370     		strb	r3, [r0]
  51:..\kronos-c-sdk\src\wolfSSL\wolfcrypt\src/arc4.c ****     arc4->y = 0;
  48              		.loc 1 51 0
  49 0010 0023     		mov	r3, #0
  50 0012 4370     		strb	r3, [r0, #1]
  51              	.LVL2:
  52:..\kronos-c-sdk\src\wolfSSL\wolfcrypt\src/arc4.c **** 
  53:..\kronos-c-sdk\src\wolfSSL\wolfcrypt\src/arc4.c ****     for (i = 0; i < ARC4_STATE_SIZE; i++)
  52              		.loc 1 53 0
  53 0014 02E0     		b	.L2
  54              	.LVL3:
  55              	.L3:
  54:..\kronos-c-sdk\src\wolfSSL\wolfcrypt\src/arc4.c ****         arc4->state[i] = (byte)i;
  56              		.loc 1 54 0 discriminator 3
  57 0016 C218     		add	r2, r0, r3
  58 0018 9370     		strb	r3, [r2, #2]
  53:..\kronos-c-sdk\src\wolfSSL\wolfcrypt\src/arc4.c ****         arc4->state[i] = (byte)i;
  59              		.loc 1 53 0 discriminator 3
ARM GAS  C:\Users\ddemidov\AppData\Local\Temp\ccxvcNm7.s 			page 3


  60 001a 0133     		add	r3, r3, #1
  61              	.LVL4:
  62              	.L2:
  53:..\kronos-c-sdk\src\wolfSSL\wolfcrypt\src/arc4.c ****         arc4->state[i] = (byte)i;
  63              		.loc 1 53 0 is_stmt 0 discriminator 1
  64 001c FF2B     		cmp	r3, #255
  65 001e FAD9     		bls	.L3
  66 0020 0023     		mov	r3, #0
  67              	.LVL5:
  68 0022 0024     		mov	r4, #0
  69 0024 0025     		mov	r5, #0
  70 0026 10E0     		b	.L4
  71              	.LVL6:
  72              	.L6:
  73              	.LBB2:
  55:..\kronos-c-sdk\src\wolfSSL\wolfcrypt\src/arc4.c **** 
  56:..\kronos-c-sdk\src\wolfSSL\wolfcrypt\src/arc4.c ****     for (i = 0; i < ARC4_STATE_SIZE; i++) {
  57:..\kronos-c-sdk\src\wolfSSL\wolfcrypt\src/arc4.c ****         word32 a = arc4->state[i];
  74              		.loc 1 57 0 is_stmt 1
  75 0028 4219     		add	r2, r0, r5
  76 002a 9778     		ldrb	r7, [r2, #2]
  77              	.LVL7:
  58:..\kronos-c-sdk\src\wolfSSL\wolfcrypt\src/arc4.c ****         stateIndex += key[keyIndex] + a;
  78              		.loc 1 58 0
  79 002c 4946     		mov	r1, r9
  80 002e 0E5D     		ldrb	r6, [r1, r4]
  81 0030 F619     		add	r6, r6, r7
  82 0032 F318     		add	r3, r6, r3
  83              	.LVL8:
  59:..\kronos-c-sdk\src\wolfSSL\wolfcrypt\src/arc4.c ****         stateIndex &= 0xFF;
  84              		.loc 1 59 0
  85 0034 FF26     		mov	r6, #255
  86 0036 3340     		and	r3, r6
  87              	.LVL9:
  60:..\kronos-c-sdk\src\wolfSSL\wolfcrypt\src/arc4.c ****         arc4->state[i] = arc4->state[stateIndex];
  88              		.loc 1 60 0
  89 0038 C618     		add	r6, r0, r3
  90 003a B178     		ldrb	r1, [r6, #2]
  91 003c 9170     		strb	r1, [r2, #2]
  61:..\kronos-c-sdk\src\wolfSSL\wolfcrypt\src/arc4.c ****         arc4->state[stateIndex] = (byte)a;
  92              		.loc 1 61 0
  93 003e B770     		strb	r7, [r6, #2]
  62:..\kronos-c-sdk\src\wolfSSL\wolfcrypt\src/arc4.c **** 
  63:..\kronos-c-sdk\src\wolfSSL\wolfcrypt\src/arc4.c ****         if (++keyIndex >= length)
  94              		.loc 1 63 0
  95 0040 0134     		add	r4, r4, #1
  96              	.LVL10:
  97 0042 6445     		cmp	r4, ip
  98 0044 00D3     		bcc	.L5
  64:..\kronos-c-sdk\src\wolfSSL\wolfcrypt\src/arc4.c ****             keyIndex = 0;
  99              		.loc 1 64 0
 100 0046 0024     		mov	r4, #0
 101              	.LVL11:
 102              	.L5:
 103              	.LBE2:
  56:..\kronos-c-sdk\src\wolfSSL\wolfcrypt\src/arc4.c ****         word32 a = arc4->state[i];
 104              		.loc 1 56 0 discriminator 2
ARM GAS  C:\Users\ddemidov\AppData\Local\Temp\ccxvcNm7.s 			page 4


 105 0048 0135     		add	r5, r5, #1
 106              	.LVL12:
 107              	.L4:
  56:..\kronos-c-sdk\src\wolfSSL\wolfcrypt\src/arc4.c ****         word32 a = arc4->state[i];
 108              		.loc 1 56 0 is_stmt 0 discriminator 1
 109 004a FF2D     		cmp	r5, #255
 110 004c ECD9     		bls	.L6
  65:..\kronos-c-sdk\src\wolfSSL\wolfcrypt\src/arc4.c ****     }
  66:..\kronos-c-sdk\src\wolfSSL\wolfcrypt\src/arc4.c **** }
 111              		.loc 1 66 0 is_stmt 1
 112              		@ sp needed
 113              	.LVL13:
 114              	.LVL14:
 115              	.LVL15:
 116 004e 0CBC     		pop	{r2, r3}
 117 0050 9046     		mov	r8, r2
 118 0052 9946     		mov	r9, r3
 119 0054 F0BD     		pop	{r4, r5, r6, r7, pc}
 120              		.cfi_endproc
 121              	.LFE0:
 122              		.size	wc_Arc4SetKey, .-wc_Arc4SetKey
 123 0056 C046     		.section	.text.wc_Arc4Process,"ax",%progbits
 124              		.align	2
 125              		.global	wc_Arc4Process
 126              		.code	16
 127              		.thumb_func
 128              		.type	wc_Arc4Process, %function
 129              	wc_Arc4Process:
 130              	.LFB2:
  67:..\kronos-c-sdk\src\wolfSSL\wolfcrypt\src/arc4.c **** 
  68:..\kronos-c-sdk\src\wolfSSL\wolfcrypt\src/arc4.c **** 
  69:..\kronos-c-sdk\src\wolfSSL\wolfcrypt\src/arc4.c **** static INLINE byte MakeByte(word32* x, word32* y, byte* s)
  70:..\kronos-c-sdk\src\wolfSSL\wolfcrypt\src/arc4.c **** {
  71:..\kronos-c-sdk\src\wolfSSL\wolfcrypt\src/arc4.c ****     word32 a = s[*x], b;
  72:..\kronos-c-sdk\src\wolfSSL\wolfcrypt\src/arc4.c ****     *y = (*y+a) & 0xff;
  73:..\kronos-c-sdk\src\wolfSSL\wolfcrypt\src/arc4.c **** 
  74:..\kronos-c-sdk\src\wolfSSL\wolfcrypt\src/arc4.c ****     b = s[*y];
  75:..\kronos-c-sdk\src\wolfSSL\wolfcrypt\src/arc4.c ****     s[*x] = (byte)b;
  76:..\kronos-c-sdk\src\wolfSSL\wolfcrypt\src/arc4.c ****     s[*y] = (byte)a;
  77:..\kronos-c-sdk\src\wolfSSL\wolfcrypt\src/arc4.c ****     *x = (*x+1) & 0xff;
  78:..\kronos-c-sdk\src\wolfSSL\wolfcrypt\src/arc4.c **** 
  79:..\kronos-c-sdk\src\wolfSSL\wolfcrypt\src/arc4.c ****     return s[(a+b) & 0xff];
  80:..\kronos-c-sdk\src\wolfSSL\wolfcrypt\src/arc4.c **** }
  81:..\kronos-c-sdk\src\wolfSSL\wolfcrypt\src/arc4.c **** 
  82:..\kronos-c-sdk\src\wolfSSL\wolfcrypt\src/arc4.c **** 
  83:..\kronos-c-sdk\src\wolfSSL\wolfcrypt\src/arc4.c **** void wc_Arc4Process(Arc4* arc4, byte* out, const byte* in, word32 length)
  84:..\kronos-c-sdk\src\wolfSSL\wolfcrypt\src/arc4.c **** {
 131              		.loc 1 84 0
 132              		.cfi_startproc
 133              	.LVL16:
 134 0000 F0B5     		push	{r4, r5, r6, r7, lr}
 135              		.cfi_def_cfa_offset 20
 136              		.cfi_offset 4, -20
 137              		.cfi_offset 5, -16
 138              		.cfi_offset 6, -12
 139              		.cfi_offset 7, -8
 140              		.cfi_offset 14, -4
ARM GAS  C:\Users\ddemidov\AppData\Local\Temp\ccxvcNm7.s 			page 5


 141 0002 4F46     		mov	r7, r9
 142 0004 4646     		mov	r6, r8
 143 0006 C0B4     		push	{r6, r7}
 144              		.cfi_def_cfa_offset 28
 145              		.cfi_offset 8, -28
 146              		.cfi_offset 9, -24
 147 0008 8146     		mov	r9, r0
  85:..\kronos-c-sdk\src\wolfSSL\wolfcrypt\src/arc4.c ****     word32 x;
  86:..\kronos-c-sdk\src\wolfSSL\wolfcrypt\src/arc4.c ****     word32 y;
  87:..\kronos-c-sdk\src\wolfSSL\wolfcrypt\src/arc4.c **** 
  88:..\kronos-c-sdk\src\wolfSSL\wolfcrypt\src/arc4.c **** #ifdef HAVE_CAVIUM
  89:..\kronos-c-sdk\src\wolfSSL\wolfcrypt\src/arc4.c ****     if (arc4->magic == WOLFSSL_ARC4_CAVIUM_MAGIC)
  90:..\kronos-c-sdk\src\wolfSSL\wolfcrypt\src/arc4.c ****         return wc_Arc4CaviumProcess(arc4, out, in, length);
  91:..\kronos-c-sdk\src\wolfSSL\wolfcrypt\src/arc4.c **** #endif
  92:..\kronos-c-sdk\src\wolfSSL\wolfcrypt\src/arc4.c **** 
  93:..\kronos-c-sdk\src\wolfSSL\wolfcrypt\src/arc4.c ****     x = arc4->x;
 148              		.loc 1 93 0
 149 000a 0578     		ldrb	r5, [r0]
 150              	.LVL17:
  94:..\kronos-c-sdk\src\wolfSSL\wolfcrypt\src/arc4.c ****     y = arc4->y;
 151              		.loc 1 94 0
 152 000c 4478     		ldrb	r4, [r0, #1]
 153              	.LVL18:
  95:..\kronos-c-sdk\src\wolfSSL\wolfcrypt\src/arc4.c **** 
  96:..\kronos-c-sdk\src\wolfSSL\wolfcrypt\src/arc4.c ****     while(length--)
 154              		.loc 1 96 0
 155 000e 15E0     		b	.L9
 156              	.LVL19:
 157              	.L10:
  97:..\kronos-c-sdk\src\wolfSSL\wolfcrypt\src/arc4.c ****         *out++ = *in++ ^ MakeByte(&x, &y, arc4->state);
 158              		.loc 1 97 0
 159 0010 1378     		ldrb	r3, [r2]
 160 0012 9846     		mov	r8, r3
 161 0014 4B46     		mov	r3, r9
 162 0016 9E1C     		add	r6, r3, #2
 163              	.LVL20:
 164              	.LBB5:
 165              	.LBB6:
  71:..\kronos-c-sdk\src\wolfSSL\wolfcrypt\src/arc4.c ****     *y = (*y+a) & 0xff;
 166              		.loc 1 71 0
 167 0018 705D     		ldrb	r0, [r6, r5]
 168              	.LVL21:
  72:..\kronos-c-sdk\src\wolfSSL\wolfcrypt\src/arc4.c **** 
 169              		.loc 1 72 0
 170 001a 2418     		add	r4, r4, r0
 171              	.LVL22:
 172 001c FF27     		mov	r7, #255
 173 001e 3C40     		and	r4, r7
 174              	.LVL23:
  74:..\kronos-c-sdk\src\wolfSSL\wolfcrypt\src/arc4.c ****     s[*x] = (byte)b;
 175              		.loc 1 74 0
 176 0020 335D     		ldrb	r3, [r6, r4]
 177              	.LVL24:
  75:..\kronos-c-sdk\src\wolfSSL\wolfcrypt\src/arc4.c ****     s[*y] = (byte)a;
 178              		.loc 1 75 0
 179 0022 7355     		strb	r3, [r6, r5]
  76:..\kronos-c-sdk\src\wolfSSL\wolfcrypt\src/arc4.c ****     *x = (*x+1) & 0xff;
ARM GAS  C:\Users\ddemidov\AppData\Local\Temp\ccxvcNm7.s 			page 6


 180              		.loc 1 76 0
 181 0024 3055     		strb	r0, [r6, r4]
  77:..\kronos-c-sdk\src\wolfSSL\wolfcrypt\src/arc4.c **** 
 182              		.loc 1 77 0
 183 0026 0135     		add	r5, r5, #1
 184              	.LVL25:
 185 0028 3D40     		and	r5, r7
 186              	.LVL26:
  79:..\kronos-c-sdk\src\wolfSSL\wolfcrypt\src/arc4.c **** }
 187              		.loc 1 79 0
 188 002a C318     		add	r3, r0, r3
 189              	.LVL27:
 190 002c 3B40     		and	r3, r7
 191 002e F35C     		ldrb	r3, [r6, r3]
 192              	.LBE6:
 193              	.LBE5:
 194              		.loc 1 97 0
 195 0030 4046     		mov	r0, r8
 196              	.LVL28:
 197 0032 4340     		eor	r3, r0
 198 0034 0B70     		strb	r3, [r1]
  96:..\kronos-c-sdk\src\wolfSSL\wolfcrypt\src/arc4.c ****         *out++ = *in++ ^ MakeByte(&x, &y, arc4->state);
 199              		.loc 1 96 0
 200 0036 6346     		mov	r3, ip
 201              		.loc 1 97 0
 202 0038 0132     		add	r2, r2, #1
 203              	.LVL29:
 204 003a 0131     		add	r1, r1, #1
 205              	.LVL30:
 206              	.L9:
  96:..\kronos-c-sdk\src\wolfSSL\wolfcrypt\src/arc4.c ****         *out++ = *in++ ^ MakeByte(&x, &y, arc4->state);
 207              		.loc 1 96 0
 208 003c 581E     		sub	r0, r3, #1
 209 003e 8446     		mov	ip, r0
 210              	.LVL31:
 211 0040 002B     		cmp	r3, #0
 212 0042 E5D1     		bne	.L10
  98:..\kronos-c-sdk\src\wolfSSL\wolfcrypt\src/arc4.c **** 
  99:..\kronos-c-sdk\src\wolfSSL\wolfcrypt\src/arc4.c ****     arc4->x = (byte)x;
 213              		.loc 1 99 0
 214 0044 4B46     		mov	r3, r9
 215 0046 1D70     		strb	r5, [r3]
 100:..\kronos-c-sdk\src\wolfSSL\wolfcrypt\src/arc4.c ****     arc4->y = (byte)y;
 216              		.loc 1 100 0
 217 0048 5C70     		strb	r4, [r3, #1]
 101:..\kronos-c-sdk\src\wolfSSL\wolfcrypt\src/arc4.c **** }
 218              		.loc 1 101 0
 219              		@ sp needed
 220              	.LVL32:
 221              	.LVL33:
 222              	.LVL34:
 223 004a 0CBC     		pop	{r2, r3}
 224 004c 9046     		mov	r8, r2
 225 004e 9946     		mov	r9, r3
 226 0050 F0BD     		pop	{r4, r5, r6, r7, pc}
 227              		.cfi_endproc
 228              	.LFE2:
ARM GAS  C:\Users\ddemidov\AppData\Local\Temp\ccxvcNm7.s 			page 7


 229              		.size	wc_Arc4Process, .-wc_Arc4Process
 230 0052 C046     		.text
 231              	.Letext0:
 232              		.file 2 "..\\kronos-c-sdk\\src\\wolfSSL/wolfssl/wolfcrypt/types.h"
 233              		.file 3 "..\\kronos-c-sdk\\src\\wolfSSL/wolfssl/wolfcrypt/arc4.h"