ARM GAS  C:\Users\ddemidov\AppData\Local\Temp\ccPZV1ly.s 			page 1


   1              		.cpu cortex-m0
   2              		.fpu softvfp
   3              		.eabi_attribute 20, 1
   4              		.eabi_attribute 21, 1
   5              		.eabi_attribute 23, 3
   6              		.eabi_attribute 24, 1
   7              		.eabi_attribute 25, 1
   8              		.eabi_attribute 26, 1
   9              		.eabi_attribute 30, 4
  10              		.eabi_attribute 34, 0
  11              		.eabi_attribute 18, 4
  12              		.code	16
  13              		.file	"asn.c"
  14              		.text
  15              	.Ltext0:
  16              		.cfi_sections	.debug_frame
  17              		.section	.text.GetTime,"ax",%progbits
  18              		.align	1
  19              		.code	16
  20              		.thumb_func
  21              		.type	GetTime, %function
  22              	GetTime:
  23              	.LFB13:
  24              		.file 1 "..\\acn-sdk-c\\src\\wolfSSL\\wolfcrypt\\src\\asn.c"
   1:..\acn-sdk-c\src\wolfSSL\wolfcrypt\src/asn.c **** /* asn.c
   2:..\acn-sdk-c\src\wolfSSL\wolfcrypt\src/asn.c ****  *
   3:..\acn-sdk-c\src\wolfSSL\wolfcrypt\src/asn.c ****  * Copyright (C) 2006-2016 wolfSSL Inc.
   4:..\acn-sdk-c\src\wolfSSL\wolfcrypt\src/asn.c ****  *
   5:..\acn-sdk-c\src\wolfSSL\wolfcrypt\src/asn.c ****  * This file is part of wolfSSL.
   6:..\acn-sdk-c\src\wolfSSL\wolfcrypt\src/asn.c ****  *
   7:..\acn-sdk-c\src\wolfSSL\wolfcrypt\src/asn.c ****  * wolfSSL is free software; you can redistribute it and/or modify
   8:..\acn-sdk-c\src\wolfSSL\wolfcrypt\src/asn.c ****  * it under the terms of the GNU General Public License as published by
   9:..\acn-sdk-c\src\wolfSSL\wolfcrypt\src/asn.c ****  * the Free Software Foundation; either version 2 of the License, or
  10:..\acn-sdk-c\src\wolfSSL\wolfcrypt\src/asn.c ****  * (at your option) any later version.
  11:..\acn-sdk-c\src\wolfSSL\wolfcrypt\src/asn.c ****  *
  12:..\acn-sdk-c\src\wolfSSL\wolfcrypt\src/asn.c ****  * wolfSSL is distributed in the hope that it will be useful,
  13:..\acn-sdk-c\src\wolfSSL\wolfcrypt\src/asn.c ****  * but WITHOUT ANY WARRANTY; without even the implied warranty of
  14:..\acn-sdk-c\src\wolfSSL\wolfcrypt\src/asn.c ****  * MERCHANTABILITY or FITNESS FOR A PARTICULAR PURPOSE.  See the
  15:..\acn-sdk-c\src\wolfSSL\wolfcrypt\src/asn.c ****  * GNU General Public License for more details.
  16:..\acn-sdk-c\src\wolfSSL\wolfcrypt\src/asn.c ****  *
  17:..\acn-sdk-c\src\wolfSSL\wolfcrypt\src/asn.c ****  * You should have received a copy of the GNU General Public License
  18:..\acn-sdk-c\src\wolfSSL\wolfcrypt\src/asn.c ****  * along with this program; if not, write to the Free Software
  19:..\acn-sdk-c\src\wolfSSL\wolfcrypt\src/asn.c ****  * Foundation, Inc., 51 Franklin Street, Fifth Floor, Boston, MA 02110-1335, USA
  20:..\acn-sdk-c\src\wolfSSL\wolfcrypt\src/asn.c ****  */
  21:..\acn-sdk-c\src\wolfSSL\wolfcrypt\src/asn.c **** 
  22:..\acn-sdk-c\src\wolfSSL\wolfcrypt\src/asn.c **** 
  23:..\acn-sdk-c\src\wolfSSL\wolfcrypt\src/asn.c **** #ifdef HAVE_CONFIG_H
  24:..\acn-sdk-c\src\wolfSSL\wolfcrypt\src/asn.c ****     #include <config.h>
  25:..\acn-sdk-c\src\wolfSSL\wolfcrypt\src/asn.c **** #endif
  26:..\acn-sdk-c\src\wolfSSL\wolfcrypt\src/asn.c **** 
  27:..\acn-sdk-c\src\wolfSSL\wolfcrypt\src/asn.c **** #include <wolfssl/wolfcrypt/settings.h>
  28:..\acn-sdk-c\src\wolfSSL\wolfcrypt\src/asn.c **** 
  29:..\acn-sdk-c\src\wolfSSL\wolfcrypt\src/asn.c **** /*
  30:..\acn-sdk-c\src\wolfSSL\wolfcrypt\src/asn.c **** ASN Options:
  31:..\acn-sdk-c\src\wolfSSL\wolfcrypt\src/asn.c ****  * NO_ASN_TIME: Disables time parts of the ASN code for systems without an RTC
  32:..\acn-sdk-c\src\wolfSSL\wolfcrypt\src/asn.c ****     or wishing to save space.
  33:..\acn-sdk-c\src\wolfSSL\wolfcrypt\src/asn.c ****  * IGNORE_NAME_CONSTRAINTS: Skip ASN name checks.
ARM GAS  C:\Users\ddemidov\AppData\Local\Temp\ccPZV1ly.s 			page 2


  34:..\acn-sdk-c\src\wolfSSL\wolfcrypt\src/asn.c **** */
  35:..\acn-sdk-c\src\wolfSSL\wolfcrypt\src/asn.c **** 
  36:..\acn-sdk-c\src\wolfSSL\wolfcrypt\src/asn.c **** #ifndef NO_ASN
  37:..\acn-sdk-c\src\wolfSSL\wolfcrypt\src/asn.c **** 
  38:..\acn-sdk-c\src\wolfSSL\wolfcrypt\src/asn.c **** #ifdef HAVE_RTP_SYS
  39:..\acn-sdk-c\src\wolfSSL\wolfcrypt\src/asn.c ****     #include "os.h"           /* dc_rtc_api needs    */
  40:..\acn-sdk-c\src\wolfSSL\wolfcrypt\src/asn.c ****     #include "dc_rtc_api.h"   /* to get current time */
  41:..\acn-sdk-c\src\wolfSSL\wolfcrypt\src/asn.c **** #endif
  42:..\acn-sdk-c\src\wolfSSL\wolfcrypt\src/asn.c **** 
  43:..\acn-sdk-c\src\wolfSSL\wolfcrypt\src/asn.c **** #include <wolfssl/wolfcrypt/asn.h>
  44:..\acn-sdk-c\src\wolfSSL\wolfcrypt\src/asn.c **** #include <wolfssl/wolfcrypt/coding.h>
  45:..\acn-sdk-c\src\wolfSSL\wolfcrypt\src/asn.c **** #include <wolfssl/wolfcrypt/md2.h>
  46:..\acn-sdk-c\src\wolfSSL\wolfcrypt\src/asn.c **** #include <wolfssl/wolfcrypt/hmac.h>
  47:..\acn-sdk-c\src\wolfSSL\wolfcrypt\src/asn.c **** #include <wolfssl/wolfcrypt/error-crypt.h>
  48:..\acn-sdk-c\src\wolfSSL\wolfcrypt\src/asn.c **** #include <wolfssl/wolfcrypt/pwdbased.h>
  49:..\acn-sdk-c\src\wolfSSL\wolfcrypt\src/asn.c **** #include <wolfssl/wolfcrypt/des3.h>
  50:..\acn-sdk-c\src\wolfSSL\wolfcrypt\src/asn.c **** #include <wolfssl/wolfcrypt/logging.h>
  51:..\acn-sdk-c\src\wolfSSL\wolfcrypt\src/asn.c **** 
  52:..\acn-sdk-c\src\wolfSSL\wolfcrypt\src/asn.c **** #include <wolfssl/wolfcrypt/random.h>
  53:..\acn-sdk-c\src\wolfSSL\wolfcrypt\src/asn.c **** #include <wolfssl/wolfcrypt/hash.h>
  54:..\acn-sdk-c\src\wolfSSL\wolfcrypt\src/asn.c **** #ifdef NO_INLINE
  55:..\acn-sdk-c\src\wolfSSL\wolfcrypt\src/asn.c ****     #include <wolfssl/wolfcrypt/misc.h>
  56:..\acn-sdk-c\src\wolfSSL\wolfcrypt\src/asn.c **** #else
  57:..\acn-sdk-c\src\wolfSSL\wolfcrypt\src/asn.c ****     #include <wolfcrypt/src/misc.c>
  58:..\acn-sdk-c\src\wolfSSL\wolfcrypt\src/asn.c **** #endif
  59:..\acn-sdk-c\src\wolfSSL\wolfcrypt\src/asn.c **** 
  60:..\acn-sdk-c\src\wolfSSL\wolfcrypt\src/asn.c **** #ifndef NO_RC4
  61:..\acn-sdk-c\src\wolfSSL\wolfcrypt\src/asn.c ****     #include <wolfssl/wolfcrypt/arc4.h>
  62:..\acn-sdk-c\src\wolfSSL\wolfcrypt\src/asn.c **** #endif
  63:..\acn-sdk-c\src\wolfSSL\wolfcrypt\src/asn.c **** 
  64:..\acn-sdk-c\src\wolfSSL\wolfcrypt\src/asn.c **** #ifdef HAVE_NTRU
  65:..\acn-sdk-c\src\wolfSSL\wolfcrypt\src/asn.c ****     #include "libntruencrypt/ntru_crypto.h"
  66:..\acn-sdk-c\src\wolfSSL\wolfcrypt\src/asn.c **** #endif
  67:..\acn-sdk-c\src\wolfSSL\wolfcrypt\src/asn.c **** 
  68:..\acn-sdk-c\src\wolfSSL\wolfcrypt\src/asn.c **** #if defined(WOLFSSL_SHA512) || defined(WOLFSSL_SHA384)
  69:..\acn-sdk-c\src\wolfSSL\wolfcrypt\src/asn.c ****     #include <wolfssl/wolfcrypt/sha512.h>
  70:..\acn-sdk-c\src\wolfSSL\wolfcrypt\src/asn.c **** #endif
  71:..\acn-sdk-c\src\wolfSSL\wolfcrypt\src/asn.c **** 
  72:..\acn-sdk-c\src\wolfSSL\wolfcrypt\src/asn.c **** #ifndef NO_SHA256
  73:..\acn-sdk-c\src\wolfSSL\wolfcrypt\src/asn.c ****     #include <wolfssl/wolfcrypt/sha256.h>
  74:..\acn-sdk-c\src\wolfSSL\wolfcrypt\src/asn.c **** #endif
  75:..\acn-sdk-c\src\wolfSSL\wolfcrypt\src/asn.c **** 
  76:..\acn-sdk-c\src\wolfSSL\wolfcrypt\src/asn.c **** #ifdef HAVE_ECC
  77:..\acn-sdk-c\src\wolfSSL\wolfcrypt\src/asn.c ****     #include <wolfssl/wolfcrypt/ecc.h>
  78:..\acn-sdk-c\src\wolfSSL\wolfcrypt\src/asn.c **** #endif
  79:..\acn-sdk-c\src\wolfSSL\wolfcrypt\src/asn.c **** 
  80:..\acn-sdk-c\src\wolfSSL\wolfcrypt\src/asn.c **** #ifdef WOLFSSL_DEBUG_ENCODING
  81:..\acn-sdk-c\src\wolfSSL\wolfcrypt\src/asn.c ****     #if defined(FREESCALE_MQX) || defined(FREESCALE_KSDK_MQX)
  82:..\acn-sdk-c\src\wolfSSL\wolfcrypt\src/asn.c ****         #if MQX_USE_IO_OLD
  83:..\acn-sdk-c\src\wolfSSL\wolfcrypt\src/asn.c ****             #include <fio.h>
  84:..\acn-sdk-c\src\wolfSSL\wolfcrypt\src/asn.c ****         #else
  85:..\acn-sdk-c\src\wolfSSL\wolfcrypt\src/asn.c ****             #include <nio.h>
  86:..\acn-sdk-c\src\wolfSSL\wolfcrypt\src/asn.c ****         #endif
  87:..\acn-sdk-c\src\wolfSSL\wolfcrypt\src/asn.c ****     #else
  88:..\acn-sdk-c\src\wolfSSL\wolfcrypt\src/asn.c ****         #include <stdio.h>
  89:..\acn-sdk-c\src\wolfSSL\wolfcrypt\src/asn.c ****     #endif
  90:..\acn-sdk-c\src\wolfSSL\wolfcrypt\src/asn.c **** #endif
ARM GAS  C:\Users\ddemidov\AppData\Local\Temp\ccPZV1ly.s 			page 3


  91:..\acn-sdk-c\src\wolfSSL\wolfcrypt\src/asn.c **** 
  92:..\acn-sdk-c\src\wolfSSL\wolfcrypt\src/asn.c **** #ifdef _MSC_VER
  93:..\acn-sdk-c\src\wolfSSL\wolfcrypt\src/asn.c ****     /* 4996 warning to use MS extensions e.g., strcpy_s instead of XSTRNCPY */
  94:..\acn-sdk-c\src\wolfSSL\wolfcrypt\src/asn.c ****     #pragma warning(disable: 4996)
  95:..\acn-sdk-c\src\wolfSSL\wolfcrypt\src/asn.c **** #endif
  96:..\acn-sdk-c\src\wolfSSL\wolfcrypt\src/asn.c **** 
  97:..\acn-sdk-c\src\wolfSSL\wolfcrypt\src/asn.c **** 
  98:..\acn-sdk-c\src\wolfSSL\wolfcrypt\src/asn.c **** #ifndef TRUE
  99:..\acn-sdk-c\src\wolfSSL\wolfcrypt\src/asn.c ****     #define TRUE  1
 100:..\acn-sdk-c\src\wolfSSL\wolfcrypt\src/asn.c **** #endif
 101:..\acn-sdk-c\src\wolfSSL\wolfcrypt\src/asn.c **** #ifndef FALSE
 102:..\acn-sdk-c\src\wolfSSL\wolfcrypt\src/asn.c ****     #define FALSE 0
 103:..\acn-sdk-c\src\wolfSSL\wolfcrypt\src/asn.c **** #endif
 104:..\acn-sdk-c\src\wolfSSL\wolfcrypt\src/asn.c **** 
 105:..\acn-sdk-c\src\wolfSSL\wolfcrypt\src/asn.c **** #ifndef NO_ASN_TIME
 106:..\acn-sdk-c\src\wolfSSL\wolfcrypt\src/asn.c **** #if defined(HAVE_RTP_SYS)
 107:..\acn-sdk-c\src\wolfSSL\wolfcrypt\src/asn.c ****     /* uses parital <time.h> structures */
 108:..\acn-sdk-c\src\wolfSSL\wolfcrypt\src/asn.c ****     #define XTIME(tl)       (0)
 109:..\acn-sdk-c\src\wolfSSL\wolfcrypt\src/asn.c ****     #define XGMTIME(c, t)   rtpsys_gmtime((c))
 110:..\acn-sdk-c\src\wolfSSL\wolfcrypt\src/asn.c **** 
 111:..\acn-sdk-c\src\wolfSSL\wolfcrypt\src/asn.c **** #elif defined(MICRIUM)
 112:..\acn-sdk-c\src\wolfSSL\wolfcrypt\src/asn.c ****     #if (NET_SECURE_MGR_CFG_EN == DEF_ENABLED)
 113:..\acn-sdk-c\src\wolfSSL\wolfcrypt\src/asn.c ****         #define XVALIDATE_DATE(d, f, t) NetSecure_ValidateDateHandler((d), (f), (t))
 114:..\acn-sdk-c\src\wolfSSL\wolfcrypt\src/asn.c ****     #else
 115:..\acn-sdk-c\src\wolfSSL\wolfcrypt\src/asn.c ****         #define XVALIDATE_DATE(d, f, t) (0)
 116:..\acn-sdk-c\src\wolfSSL\wolfcrypt\src/asn.c ****     #endif
 117:..\acn-sdk-c\src\wolfSSL\wolfcrypt\src/asn.c ****     #define NO_TIME_H
 118:..\acn-sdk-c\src\wolfSSL\wolfcrypt\src/asn.c ****     /* since Micrium not defining XTIME or XGMTIME, CERT_GEN not available */
 119:..\acn-sdk-c\src\wolfSSL\wolfcrypt\src/asn.c **** 
 120:..\acn-sdk-c\src\wolfSSL\wolfcrypt\src/asn.c **** #elif defined(MICROCHIP_TCPIP_V5) || defined(MICROCHIP_TCPIP)
 121:..\acn-sdk-c\src\wolfSSL\wolfcrypt\src/asn.c ****     #include <time.h>
 122:..\acn-sdk-c\src\wolfSSL\wolfcrypt\src/asn.c ****     #define XTIME(t1)       pic32_time((t1))
 123:..\acn-sdk-c\src\wolfSSL\wolfcrypt\src/asn.c ****     #define XGMTIME(c, t)   gmtime((c))
 124:..\acn-sdk-c\src\wolfSSL\wolfcrypt\src/asn.c **** 
 125:..\acn-sdk-c\src\wolfSSL\wolfcrypt\src/asn.c **** #elif defined(FREESCALE_MQX) || defined(FREESCALE_KSDK_MQX)
 126:..\acn-sdk-c\src\wolfSSL\wolfcrypt\src/asn.c ****     #define XTIME(t1)       mqx_time((t1))
 127:..\acn-sdk-c\src\wolfSSL\wolfcrypt\src/asn.c ****     #define HAVE_GMTIME_R
 128:..\acn-sdk-c\src\wolfSSL\wolfcrypt\src/asn.c **** 
 129:..\acn-sdk-c\src\wolfSSL\wolfcrypt\src/asn.c **** #elif defined(FREESCALE_KSDK_BM) || defined(FREESCALE_FREE_RTOS)
 130:..\acn-sdk-c\src\wolfSSL\wolfcrypt\src/asn.c ****     #include <time.h>
 131:..\acn-sdk-c\src\wolfSSL\wolfcrypt\src/asn.c ****     #define XTIME(t1)       ksdk_time((t1))
 132:..\acn-sdk-c\src\wolfSSL\wolfcrypt\src/asn.c ****     #define XGMTIME(c, t)   gmtime((c))
 133:..\acn-sdk-c\src\wolfSSL\wolfcrypt\src/asn.c **** 
 134:..\acn-sdk-c\src\wolfSSL\wolfcrypt\src/asn.c **** #elif defined(USER_TIME)
 135:..\acn-sdk-c\src\wolfSSL\wolfcrypt\src/asn.c ****     /* user time, and gmtime compatible functions, there is a gmtime
 136:..\acn-sdk-c\src\wolfSSL\wolfcrypt\src/asn.c ****        implementation here that WINCE uses, so really just need some ticks
 137:..\acn-sdk-c\src\wolfSSL\wolfcrypt\src/asn.c ****        since the EPOCH
 138:..\acn-sdk-c\src\wolfSSL\wolfcrypt\src/asn.c ****     */
 139:..\acn-sdk-c\src\wolfSSL\wolfcrypt\src/asn.c ****     #define WOLFSSL_GMTIME
 140:..\acn-sdk-c\src\wolfSSL\wolfcrypt\src/asn.c ****     #define USE_WOLF_TM
 141:..\acn-sdk-c\src\wolfSSL\wolfcrypt\src/asn.c ****     #define USE_WOLF_TIME_T
 142:..\acn-sdk-c\src\wolfSSL\wolfcrypt\src/asn.c **** 
 143:..\acn-sdk-c\src\wolfSSL\wolfcrypt\src/asn.c **** #elif defined(TIME_OVERRIDES)
 144:..\acn-sdk-c\src\wolfSSL\wolfcrypt\src/asn.c ****     /* user would like to override time() and gmtime() functionality */
 145:..\acn-sdk-c\src\wolfSSL\wolfcrypt\src/asn.c ****     #ifndef HAVE_TIME_T_TYPE
 146:..\acn-sdk-c\src\wolfSSL\wolfcrypt\src/asn.c ****         #define USE_WOLF_TIME_T
 147:..\acn-sdk-c\src\wolfSSL\wolfcrypt\src/asn.c ****     #endif
ARM GAS  C:\Users\ddemidov\AppData\Local\Temp\ccPZV1ly.s 			page 4


 148:..\acn-sdk-c\src\wolfSSL\wolfcrypt\src/asn.c ****     #ifndef HAVE_TM_TYPE
 149:..\acn-sdk-c\src\wolfSSL\wolfcrypt\src/asn.c ****         #define USE_WOLF_TM
 150:..\acn-sdk-c\src\wolfSSL\wolfcrypt\src/asn.c ****     #endif
 151:..\acn-sdk-c\src\wolfSSL\wolfcrypt\src/asn.c ****     #define NEED_TMP_TIME
 152:..\acn-sdk-c\src\wolfSSL\wolfcrypt\src/asn.c **** 
 153:..\acn-sdk-c\src\wolfSSL\wolfcrypt\src/asn.c **** #elif defined(IDIRECT_DEV_TIME)
 154:..\acn-sdk-c\src\wolfSSL\wolfcrypt\src/asn.c ****     /*Gets the timestamp from cloak software owned by VT iDirect
 155:..\acn-sdk-c\src\wolfSSL\wolfcrypt\src/asn.c ****     in place of time() from <time.h> */
 156:..\acn-sdk-c\src\wolfSSL\wolfcrypt\src/asn.c ****     #include <time.h>
 157:..\acn-sdk-c\src\wolfSSL\wolfcrypt\src/asn.c ****     #define XTIME(t1)       idirect_time((t1))
 158:..\acn-sdk-c\src\wolfSSL\wolfcrypt\src/asn.c ****     #define XGMTIME(c, t)   gmtime((c))
 159:..\acn-sdk-c\src\wolfSSL\wolfcrypt\src/asn.c **** 
 160:..\acn-sdk-c\src\wolfSSL\wolfcrypt\src/asn.c **** #elif defined(_WIN32_WCE)
 161:..\acn-sdk-c\src\wolfSSL\wolfcrypt\src/asn.c ****     #include <windows.h>
 162:..\acn-sdk-c\src\wolfSSL\wolfcrypt\src/asn.c ****     #define XTIME(t1)       windows_time((t1))
 163:..\acn-sdk-c\src\wolfSSL\wolfcrypt\src/asn.c ****     #define WOLFSSL_GMTIME
 164:..\acn-sdk-c\src\wolfSSL\wolfcrypt\src/asn.c **** 
 165:..\acn-sdk-c\src\wolfSSL\wolfcrypt\src/asn.c **** #else
 166:..\acn-sdk-c\src\wolfSSL\wolfcrypt\src/asn.c ****     /* default */
 167:..\acn-sdk-c\src\wolfSSL\wolfcrypt\src/asn.c ****     /* uses complete <time.h> facility */
 168:..\acn-sdk-c\src\wolfSSL\wolfcrypt\src/asn.c ****     #include <time.h>
 169:..\acn-sdk-c\src\wolfSSL\wolfcrypt\src/asn.c **** #endif
 170:..\acn-sdk-c\src\wolfSSL\wolfcrypt\src/asn.c **** 
 171:..\acn-sdk-c\src\wolfSSL\wolfcrypt\src/asn.c **** 
 172:..\acn-sdk-c\src\wolfSSL\wolfcrypt\src/asn.c **** /* Map default time functions */
 173:..\acn-sdk-c\src\wolfSSL\wolfcrypt\src/asn.c **** #if !defined(XTIME) && !defined(TIME_OVERRIDES) && !defined(USER_TIME)
 174:..\acn-sdk-c\src\wolfSSL\wolfcrypt\src/asn.c ****     #define XTIME(tl)       time((tl))
 175:..\acn-sdk-c\src\wolfSSL\wolfcrypt\src/asn.c **** #endif
 176:..\acn-sdk-c\src\wolfSSL\wolfcrypt\src/asn.c **** #if !defined(XGMTIME) && !defined(TIME_OVERRIDES)
 177:..\acn-sdk-c\src\wolfSSL\wolfcrypt\src/asn.c ****     #if defined(WOLFSSL_GMTIME) || !defined(HAVE_GMTIME_R)
 178:..\acn-sdk-c\src\wolfSSL\wolfcrypt\src/asn.c ****         #define XGMTIME(c, t)   gmtime((c))
 179:..\acn-sdk-c\src\wolfSSL\wolfcrypt\src/asn.c ****     #else
 180:..\acn-sdk-c\src\wolfSSL\wolfcrypt\src/asn.c ****         #define XGMTIME(c, t)   gmtime_r((c), (t))
 181:..\acn-sdk-c\src\wolfSSL\wolfcrypt\src/asn.c ****         #define NEED_TMP_TIME
 182:..\acn-sdk-c\src\wolfSSL\wolfcrypt\src/asn.c ****     #endif
 183:..\acn-sdk-c\src\wolfSSL\wolfcrypt\src/asn.c **** #endif
 184:..\acn-sdk-c\src\wolfSSL\wolfcrypt\src/asn.c **** #if !defined(XVALIDATE_DATE) && !defined(HAVE_VALIDATE_DATE)
 185:..\acn-sdk-c\src\wolfSSL\wolfcrypt\src/asn.c ****     #define USE_WOLF_VALIDDATE
 186:..\acn-sdk-c\src\wolfSSL\wolfcrypt\src/asn.c ****     #define XVALIDATE_DATE(d, f, t) ValidateDate((d), (f), (t))
 187:..\acn-sdk-c\src\wolfSSL\wolfcrypt\src/asn.c **** #endif
 188:..\acn-sdk-c\src\wolfSSL\wolfcrypt\src/asn.c **** 
 189:..\acn-sdk-c\src\wolfSSL\wolfcrypt\src/asn.c **** /* wolf struct tm and time_t */
 190:..\acn-sdk-c\src\wolfSSL\wolfcrypt\src/asn.c **** #if defined(USE_WOLF_TM)
 191:..\acn-sdk-c\src\wolfSSL\wolfcrypt\src/asn.c ****     struct tm {
 192:..\acn-sdk-c\src\wolfSSL\wolfcrypt\src/asn.c ****         int  tm_sec;     /* seconds after the minute [0-60] */
 193:..\acn-sdk-c\src\wolfSSL\wolfcrypt\src/asn.c ****         int  tm_min;     /* minutes after the hour [0-59] */
 194:..\acn-sdk-c\src\wolfSSL\wolfcrypt\src/asn.c ****         int  tm_hour;    /* hours since midnight [0-23] */
 195:..\acn-sdk-c\src\wolfSSL\wolfcrypt\src/asn.c ****         int  tm_mday;    /* day of the month [1-31] */
 196:..\acn-sdk-c\src\wolfSSL\wolfcrypt\src/asn.c ****         int  tm_mon;     /* months since January [0-11] */
 197:..\acn-sdk-c\src\wolfSSL\wolfcrypt\src/asn.c ****         int  tm_year;    /* years since 1900 */
 198:..\acn-sdk-c\src\wolfSSL\wolfcrypt\src/asn.c ****         int  tm_wday;    /* days since Sunday [0-6] */
 199:..\acn-sdk-c\src\wolfSSL\wolfcrypt\src/asn.c ****         int  tm_yday;    /* days since January 1 [0-365] */
 200:..\acn-sdk-c\src\wolfSSL\wolfcrypt\src/asn.c ****         int  tm_isdst;   /* Daylight Savings Time flag */
 201:..\acn-sdk-c\src\wolfSSL\wolfcrypt\src/asn.c ****         long tm_gmtoff;  /* offset from CUT in seconds */
 202:..\acn-sdk-c\src\wolfSSL\wolfcrypt\src/asn.c ****         char *tm_zone;   /* timezone abbreviation */
 203:..\acn-sdk-c\src\wolfSSL\wolfcrypt\src/asn.c ****     };
 204:..\acn-sdk-c\src\wolfSSL\wolfcrypt\src/asn.c **** #endif /* USE_WOLF_TM */
ARM GAS  C:\Users\ddemidov\AppData\Local\Temp\ccPZV1ly.s 			page 5


 205:..\acn-sdk-c\src\wolfSSL\wolfcrypt\src/asn.c **** #if defined(USE_WOLF_TIME_T)
 206:..\acn-sdk-c\src\wolfSSL\wolfcrypt\src/asn.c ****     typedef long time_t;
 207:..\acn-sdk-c\src\wolfSSL\wolfcrypt\src/asn.c **** #endif
 208:..\acn-sdk-c\src\wolfSSL\wolfcrypt\src/asn.c **** 
 209:..\acn-sdk-c\src\wolfSSL\wolfcrypt\src/asn.c **** /* forward declarations */
 210:..\acn-sdk-c\src\wolfSSL\wolfcrypt\src/asn.c **** #if defined(USER_TIME)
 211:..\acn-sdk-c\src\wolfSSL\wolfcrypt\src/asn.c ****     struct tm* gmtime(const time_t* timer);
 212:..\acn-sdk-c\src\wolfSSL\wolfcrypt\src/asn.c ****     extern time_t XTIME(time_t * timer);
 213:..\acn-sdk-c\src\wolfSSL\wolfcrypt\src/asn.c **** 
 214:..\acn-sdk-c\src\wolfSSL\wolfcrypt\src/asn.c ****     #ifdef STACK_TRAP
 215:..\acn-sdk-c\src\wolfSSL\wolfcrypt\src/asn.c ****         /* for stack trap tracking, don't call os gmtime on OS X/linux,
 216:..\acn-sdk-c\src\wolfSSL\wolfcrypt\src/asn.c ****            uses a lot of stack spce */
 217:..\acn-sdk-c\src\wolfSSL\wolfcrypt\src/asn.c ****         extern time_t time(time_t * timer);
 218:..\acn-sdk-c\src\wolfSSL\wolfcrypt\src/asn.c ****         #define XTIME(tl)  time((tl))
 219:..\acn-sdk-c\src\wolfSSL\wolfcrypt\src/asn.c ****     #endif /* STACK_TRAP */
 220:..\acn-sdk-c\src\wolfSSL\wolfcrypt\src/asn.c **** 
 221:..\acn-sdk-c\src\wolfSSL\wolfcrypt\src/asn.c **** #elif defined(TIME_OVERRIDES)
 222:..\acn-sdk-c\src\wolfSSL\wolfcrypt\src/asn.c ****     extern time_t XTIME(time_t * timer);
 223:..\acn-sdk-c\src\wolfSSL\wolfcrypt\src/asn.c ****     extern struct tm* XGMTIME(const time_t* timer, struct tm* tmp);
 224:..\acn-sdk-c\src\wolfSSL\wolfcrypt\src/asn.c **** #endif
 225:..\acn-sdk-c\src\wolfSSL\wolfcrypt\src/asn.c **** 
 226:..\acn-sdk-c\src\wolfSSL\wolfcrypt\src/asn.c **** 
 227:..\acn-sdk-c\src\wolfSSL\wolfcrypt\src/asn.c **** #if defined(_WIN32_WCE)
 228:..\acn-sdk-c\src\wolfSSL\wolfcrypt\src/asn.c **** time_t windows_time(time_t* timer)
 229:..\acn-sdk-c\src\wolfSSL\wolfcrypt\src/asn.c **** {
 230:..\acn-sdk-c\src\wolfSSL\wolfcrypt\src/asn.c ****     SYSTEMTIME     sysTime;
 231:..\acn-sdk-c\src\wolfSSL\wolfcrypt\src/asn.c ****     FILETIME       fTime;
 232:..\acn-sdk-c\src\wolfSSL\wolfcrypt\src/asn.c ****     ULARGE_INTEGER intTime;
 233:..\acn-sdk-c\src\wolfSSL\wolfcrypt\src/asn.c ****     time_t         localTime;
 234:..\acn-sdk-c\src\wolfSSL\wolfcrypt\src/asn.c **** 
 235:..\acn-sdk-c\src\wolfSSL\wolfcrypt\src/asn.c ****     if (timer == NULL)
 236:..\acn-sdk-c\src\wolfSSL\wolfcrypt\src/asn.c ****         timer = &localTime;
 237:..\acn-sdk-c\src\wolfSSL\wolfcrypt\src/asn.c **** 
 238:..\acn-sdk-c\src\wolfSSL\wolfcrypt\src/asn.c ****     GetSystemTime(&sysTime);
 239:..\acn-sdk-c\src\wolfSSL\wolfcrypt\src/asn.c ****     SystemTimeToFileTime(&sysTime, &fTime);
 240:..\acn-sdk-c\src\wolfSSL\wolfcrypt\src/asn.c **** 
 241:..\acn-sdk-c\src\wolfSSL\wolfcrypt\src/asn.c ****     XMEMCPY(&intTime, &fTime, sizeof(FILETIME));
 242:..\acn-sdk-c\src\wolfSSL\wolfcrypt\src/asn.c ****     /* subtract EPOCH */
 243:..\acn-sdk-c\src\wolfSSL\wolfcrypt\src/asn.c ****     intTime.QuadPart -= 0x19db1ded53e8000;
 244:..\acn-sdk-c\src\wolfSSL\wolfcrypt\src/asn.c ****     /* to secs */
 245:..\acn-sdk-c\src\wolfSSL\wolfcrypt\src/asn.c ****     intTime.QuadPart /= 10000000;
 246:..\acn-sdk-c\src\wolfSSL\wolfcrypt\src/asn.c ****     *timer = (time_t)intTime.QuadPart;
 247:..\acn-sdk-c\src\wolfSSL\wolfcrypt\src/asn.c **** 
 248:..\acn-sdk-c\src\wolfSSL\wolfcrypt\src/asn.c ****     return *timer;
 249:..\acn-sdk-c\src\wolfSSL\wolfcrypt\src/asn.c **** }
 250:..\acn-sdk-c\src\wolfSSL\wolfcrypt\src/asn.c **** #endif /*  _WIN32_WCE */
 251:..\acn-sdk-c\src\wolfSSL\wolfcrypt\src/asn.c **** 
 252:..\acn-sdk-c\src\wolfSSL\wolfcrypt\src/asn.c **** #if defined(WOLFSSL_GMTIME)
 253:..\acn-sdk-c\src\wolfSSL\wolfcrypt\src/asn.c **** struct tm* gmtime(const time_t* timer)
 254:..\acn-sdk-c\src\wolfSSL\wolfcrypt\src/asn.c **** {
 255:..\acn-sdk-c\src\wolfSSL\wolfcrypt\src/asn.c ****     #define YEAR0          1900
 256:..\acn-sdk-c\src\wolfSSL\wolfcrypt\src/asn.c ****     #define EPOCH_YEAR     1970
 257:..\acn-sdk-c\src\wolfSSL\wolfcrypt\src/asn.c ****     #define SECS_DAY       (24L * 60L * 60L)
 258:..\acn-sdk-c\src\wolfSSL\wolfcrypt\src/asn.c ****     #define LEAPYEAR(year) (!((year) % 4) && (((year) % 100) || !((year) %400)))
 259:..\acn-sdk-c\src\wolfSSL\wolfcrypt\src/asn.c ****     #define YEARSIZE(year) (LEAPYEAR(year) ? 366 : 365)
 260:..\acn-sdk-c\src\wolfSSL\wolfcrypt\src/asn.c **** 
 261:..\acn-sdk-c\src\wolfSSL\wolfcrypt\src/asn.c ****     static const int _ytab[2][12] =
ARM GAS  C:\Users\ddemidov\AppData\Local\Temp\ccPZV1ly.s 			page 6


 262:..\acn-sdk-c\src\wolfSSL\wolfcrypt\src/asn.c ****     {
 263:..\acn-sdk-c\src\wolfSSL\wolfcrypt\src/asn.c ****         {31, 28, 31, 30, 31, 30, 31, 31, 30, 31, 30, 31},
 264:..\acn-sdk-c\src\wolfSSL\wolfcrypt\src/asn.c ****         {31, 29, 31, 30, 31, 30, 31, 31, 30, 31, 30, 31}
 265:..\acn-sdk-c\src\wolfSSL\wolfcrypt\src/asn.c ****     };
 266:..\acn-sdk-c\src\wolfSSL\wolfcrypt\src/asn.c **** 
 267:..\acn-sdk-c\src\wolfSSL\wolfcrypt\src/asn.c ****     static struct tm st_time;
 268:..\acn-sdk-c\src\wolfSSL\wolfcrypt\src/asn.c ****     struct tm* ret = &st_time;
 269:..\acn-sdk-c\src\wolfSSL\wolfcrypt\src/asn.c ****     time_t secs = *timer;
 270:..\acn-sdk-c\src\wolfSSL\wolfcrypt\src/asn.c ****     unsigned long dayclock, dayno;
 271:..\acn-sdk-c\src\wolfSSL\wolfcrypt\src/asn.c ****     int year = EPOCH_YEAR;
 272:..\acn-sdk-c\src\wolfSSL\wolfcrypt\src/asn.c **** 
 273:..\acn-sdk-c\src\wolfSSL\wolfcrypt\src/asn.c ****     dayclock = (unsigned long)secs % SECS_DAY;
 274:..\acn-sdk-c\src\wolfSSL\wolfcrypt\src/asn.c ****     dayno    = (unsigned long)secs / SECS_DAY;
 275:..\acn-sdk-c\src\wolfSSL\wolfcrypt\src/asn.c **** 
 276:..\acn-sdk-c\src\wolfSSL\wolfcrypt\src/asn.c ****     ret->tm_sec  = (int) dayclock % 60;
 277:..\acn-sdk-c\src\wolfSSL\wolfcrypt\src/asn.c ****     ret->tm_min  = (int)(dayclock % 3600) / 60;
 278:..\acn-sdk-c\src\wolfSSL\wolfcrypt\src/asn.c ****     ret->tm_hour = (int) dayclock / 3600;
 279:..\acn-sdk-c\src\wolfSSL\wolfcrypt\src/asn.c ****     ret->tm_wday = (int) (dayno + 4) % 7;        /* day 0 a Thursday */
 280:..\acn-sdk-c\src\wolfSSL\wolfcrypt\src/asn.c **** 
 281:..\acn-sdk-c\src\wolfSSL\wolfcrypt\src/asn.c ****     while(dayno >= (unsigned long)YEARSIZE(year)) {
 282:..\acn-sdk-c\src\wolfSSL\wolfcrypt\src/asn.c ****         dayno -= YEARSIZE(year);
 283:..\acn-sdk-c\src\wolfSSL\wolfcrypt\src/asn.c ****         year++;
 284:..\acn-sdk-c\src\wolfSSL\wolfcrypt\src/asn.c ****     }
 285:..\acn-sdk-c\src\wolfSSL\wolfcrypt\src/asn.c **** 
 286:..\acn-sdk-c\src\wolfSSL\wolfcrypt\src/asn.c ****     ret->tm_year = year - YEAR0;
 287:..\acn-sdk-c\src\wolfSSL\wolfcrypt\src/asn.c ****     ret->tm_yday = (int)dayno;
 288:..\acn-sdk-c\src\wolfSSL\wolfcrypt\src/asn.c ****     ret->tm_mon  = 0;
 289:..\acn-sdk-c\src\wolfSSL\wolfcrypt\src/asn.c **** 
 290:..\acn-sdk-c\src\wolfSSL\wolfcrypt\src/asn.c ****     while(dayno >= (unsigned long)_ytab[LEAPYEAR(year)][ret->tm_mon]) {
 291:..\acn-sdk-c\src\wolfSSL\wolfcrypt\src/asn.c ****         dayno -= _ytab[LEAPYEAR(year)][ret->tm_mon];
 292:..\acn-sdk-c\src\wolfSSL\wolfcrypt\src/asn.c ****         ret->tm_mon++;
 293:..\acn-sdk-c\src\wolfSSL\wolfcrypt\src/asn.c ****     }
 294:..\acn-sdk-c\src\wolfSSL\wolfcrypt\src/asn.c **** 
 295:..\acn-sdk-c\src\wolfSSL\wolfcrypt\src/asn.c ****     ret->tm_mday  = (int)++dayno;
 296:..\acn-sdk-c\src\wolfSSL\wolfcrypt\src/asn.c ****     ret->tm_isdst = 0;
 297:..\acn-sdk-c\src\wolfSSL\wolfcrypt\src/asn.c **** 
 298:..\acn-sdk-c\src\wolfSSL\wolfcrypt\src/asn.c ****     return ret;
 299:..\acn-sdk-c\src\wolfSSL\wolfcrypt\src/asn.c **** }
 300:..\acn-sdk-c\src\wolfSSL\wolfcrypt\src/asn.c **** #endif /* WOLFSSL_GMTIME */
 301:..\acn-sdk-c\src\wolfSSL\wolfcrypt\src/asn.c **** 
 302:..\acn-sdk-c\src\wolfSSL\wolfcrypt\src/asn.c **** 
 303:..\acn-sdk-c\src\wolfSSL\wolfcrypt\src/asn.c **** #if defined(HAVE_RTP_SYS)
 304:..\acn-sdk-c\src\wolfSSL\wolfcrypt\src/asn.c **** #define YEAR0          1900
 305:..\acn-sdk-c\src\wolfSSL\wolfcrypt\src/asn.c **** 
 306:..\acn-sdk-c\src\wolfSSL\wolfcrypt\src/asn.c **** struct tm* rtpsys_gmtime(const time_t* timer)       /* has a gmtime() but hangs */
 307:..\acn-sdk-c\src\wolfSSL\wolfcrypt\src/asn.c **** {
 308:..\acn-sdk-c\src\wolfSSL\wolfcrypt\src/asn.c ****     static struct tm st_time;
 309:..\acn-sdk-c\src\wolfSSL\wolfcrypt\src/asn.c ****     struct tm* ret = &st_time;
 310:..\acn-sdk-c\src\wolfSSL\wolfcrypt\src/asn.c **** 
 311:..\acn-sdk-c\src\wolfSSL\wolfcrypt\src/asn.c ****     DC_RTC_CALENDAR cal;
 312:..\acn-sdk-c\src\wolfSSL\wolfcrypt\src/asn.c ****     dc_rtc_time_get(&cal, TRUE);
 313:..\acn-sdk-c\src\wolfSSL\wolfcrypt\src/asn.c **** 
 314:..\acn-sdk-c\src\wolfSSL\wolfcrypt\src/asn.c ****     ret->tm_year  = cal.year - YEAR0;       /* gm starts at 1900 */
 315:..\acn-sdk-c\src\wolfSSL\wolfcrypt\src/asn.c ****     ret->tm_mon   = cal.month - 1;          /* gm starts at 0 */
 316:..\acn-sdk-c\src\wolfSSL\wolfcrypt\src/asn.c ****     ret->tm_mday  = cal.day;
 317:..\acn-sdk-c\src\wolfSSL\wolfcrypt\src/asn.c ****     ret->tm_hour  = cal.hour;
 318:..\acn-sdk-c\src\wolfSSL\wolfcrypt\src/asn.c ****     ret->tm_min   = cal.minute;
ARM GAS  C:\Users\ddemidov\AppData\Local\Temp\ccPZV1ly.s 			page 7


 319:..\acn-sdk-c\src\wolfSSL\wolfcrypt\src/asn.c ****     ret->tm_sec   = cal.second;
 320:..\acn-sdk-c\src\wolfSSL\wolfcrypt\src/asn.c **** 
 321:..\acn-sdk-c\src\wolfSSL\wolfcrypt\src/asn.c ****     return ret;
 322:..\acn-sdk-c\src\wolfSSL\wolfcrypt\src/asn.c **** }
 323:..\acn-sdk-c\src\wolfSSL\wolfcrypt\src/asn.c **** 
 324:..\acn-sdk-c\src\wolfSSL\wolfcrypt\src/asn.c **** #endif /* HAVE_RTP_SYS */
 325:..\acn-sdk-c\src\wolfSSL\wolfcrypt\src/asn.c **** 
 326:..\acn-sdk-c\src\wolfSSL\wolfcrypt\src/asn.c **** 
 327:..\acn-sdk-c\src\wolfSSL\wolfcrypt\src/asn.c **** #if defined(MICROCHIP_TCPIP_V5) || defined(MICROCHIP_TCPIP)
 328:..\acn-sdk-c\src\wolfSSL\wolfcrypt\src/asn.c **** 
 329:..\acn-sdk-c\src\wolfSSL\wolfcrypt\src/asn.c **** /*
 330:..\acn-sdk-c\src\wolfSSL\wolfcrypt\src/asn.c ****  * time() is just a stub in Microchip libraries. We need our own
 331:..\acn-sdk-c\src\wolfSSL\wolfcrypt\src/asn.c ****  * implementation. Use SNTP client to get seconds since epoch.
 332:..\acn-sdk-c\src\wolfSSL\wolfcrypt\src/asn.c ****  */
 333:..\acn-sdk-c\src\wolfSSL\wolfcrypt\src/asn.c **** time_t pic32_time(time_t* timer)
 334:..\acn-sdk-c\src\wolfSSL\wolfcrypt\src/asn.c **** {
 335:..\acn-sdk-c\src\wolfSSL\wolfcrypt\src/asn.c **** #ifdef MICROCHIP_TCPIP_V5
 336:..\acn-sdk-c\src\wolfSSL\wolfcrypt\src/asn.c ****     DWORD sec = 0;
 337:..\acn-sdk-c\src\wolfSSL\wolfcrypt\src/asn.c **** #else
 338:..\acn-sdk-c\src\wolfSSL\wolfcrypt\src/asn.c ****     uint32_t sec = 0;
 339:..\acn-sdk-c\src\wolfSSL\wolfcrypt\src/asn.c **** #endif
 340:..\acn-sdk-c\src\wolfSSL\wolfcrypt\src/asn.c ****     time_t localTime;
 341:..\acn-sdk-c\src\wolfSSL\wolfcrypt\src/asn.c **** 
 342:..\acn-sdk-c\src\wolfSSL\wolfcrypt\src/asn.c ****     if (timer == NULL)
 343:..\acn-sdk-c\src\wolfSSL\wolfcrypt\src/asn.c ****         timer = &localTime;
 344:..\acn-sdk-c\src\wolfSSL\wolfcrypt\src/asn.c **** 
 345:..\acn-sdk-c\src\wolfSSL\wolfcrypt\src/asn.c **** #ifdef MICROCHIP_MPLAB_HARMONY
 346:..\acn-sdk-c\src\wolfSSL\wolfcrypt\src/asn.c ****     sec = TCPIP_SNTP_UTCSecondsGet();
 347:..\acn-sdk-c\src\wolfSSL\wolfcrypt\src/asn.c **** #else
 348:..\acn-sdk-c\src\wolfSSL\wolfcrypt\src/asn.c ****     sec = SNTPGetUTCSeconds();
 349:..\acn-sdk-c\src\wolfSSL\wolfcrypt\src/asn.c **** #endif
 350:..\acn-sdk-c\src\wolfSSL\wolfcrypt\src/asn.c ****     *timer = (time_t) sec;
 351:..\acn-sdk-c\src\wolfSSL\wolfcrypt\src/asn.c **** 
 352:..\acn-sdk-c\src\wolfSSL\wolfcrypt\src/asn.c ****     return *timer;
 353:..\acn-sdk-c\src\wolfSSL\wolfcrypt\src/asn.c **** }
 354:..\acn-sdk-c\src\wolfSSL\wolfcrypt\src/asn.c **** 
 355:..\acn-sdk-c\src\wolfSSL\wolfcrypt\src/asn.c **** #endif /* MICROCHIP_TCPIP */
 356:..\acn-sdk-c\src\wolfSSL\wolfcrypt\src/asn.c **** 
 357:..\acn-sdk-c\src\wolfSSL\wolfcrypt\src/asn.c **** 
 358:..\acn-sdk-c\src\wolfSSL\wolfcrypt\src/asn.c **** #if defined(FREESCALE_MQX) || defined(FREESCALE_KSDK_MQX)
 359:..\acn-sdk-c\src\wolfSSL\wolfcrypt\src/asn.c **** 
 360:..\acn-sdk-c\src\wolfSSL\wolfcrypt\src/asn.c **** time_t mqx_time(time_t* timer)
 361:..\acn-sdk-c\src\wolfSSL\wolfcrypt\src/asn.c **** {
 362:..\acn-sdk-c\src\wolfSSL\wolfcrypt\src/asn.c ****     time_t localTime;
 363:..\acn-sdk-c\src\wolfSSL\wolfcrypt\src/asn.c ****     TIME_STRUCT time_s;
 364:..\acn-sdk-c\src\wolfSSL\wolfcrypt\src/asn.c **** 
 365:..\acn-sdk-c\src\wolfSSL\wolfcrypt\src/asn.c ****     if (timer == NULL)
 366:..\acn-sdk-c\src\wolfSSL\wolfcrypt\src/asn.c ****         timer = &localTime;
 367:..\acn-sdk-c\src\wolfSSL\wolfcrypt\src/asn.c **** 
 368:..\acn-sdk-c\src\wolfSSL\wolfcrypt\src/asn.c ****     _time_get(&time_s);
 369:..\acn-sdk-c\src\wolfSSL\wolfcrypt\src/asn.c ****     *timer = (time_t) time_s.SECONDS;
 370:..\acn-sdk-c\src\wolfSSL\wolfcrypt\src/asn.c **** 
 371:..\acn-sdk-c\src\wolfSSL\wolfcrypt\src/asn.c ****     return *timer;
 372:..\acn-sdk-c\src\wolfSSL\wolfcrypt\src/asn.c **** }
 373:..\acn-sdk-c\src\wolfSSL\wolfcrypt\src/asn.c **** 
 374:..\acn-sdk-c\src\wolfSSL\wolfcrypt\src/asn.c **** #endif /* FREESCALE_MQX */
 375:..\acn-sdk-c\src\wolfSSL\wolfcrypt\src/asn.c **** 
ARM GAS  C:\Users\ddemidov\AppData\Local\Temp\ccPZV1ly.s 			page 8


 376:..\acn-sdk-c\src\wolfSSL\wolfcrypt\src/asn.c **** #if defined(FREESCALE_KSDK_BM) || defined(FREESCALE_FREE_RTOS)
 377:..\acn-sdk-c\src\wolfSSL\wolfcrypt\src/asn.c **** 
 378:..\acn-sdk-c\src\wolfSSL\wolfcrypt\src/asn.c **** #include "fsl_pit_driver.h"
 379:..\acn-sdk-c\src\wolfSSL\wolfcrypt\src/asn.c **** 
 380:..\acn-sdk-c\src\wolfSSL\wolfcrypt\src/asn.c **** time_t ksdk_time(time_t* timer)
 381:..\acn-sdk-c\src\wolfSSL\wolfcrypt\src/asn.c **** {
 382:..\acn-sdk-c\src\wolfSSL\wolfcrypt\src/asn.c ****     time_t localTime;
 383:..\acn-sdk-c\src\wolfSSL\wolfcrypt\src/asn.c **** 
 384:..\acn-sdk-c\src\wolfSSL\wolfcrypt\src/asn.c ****     if (timer == NULL)
 385:..\acn-sdk-c\src\wolfSSL\wolfcrypt\src/asn.c ****         timer = &localTime;
 386:..\acn-sdk-c\src\wolfSSL\wolfcrypt\src/asn.c **** 
 387:..\acn-sdk-c\src\wolfSSL\wolfcrypt\src/asn.c ****     *timer = (PIT_DRV_ReadTimerUs(PIT_INSTANCE, PIT_CHANNEL)) / 1000000;
 388:..\acn-sdk-c\src\wolfSSL\wolfcrypt\src/asn.c ****     return *timer;
 389:..\acn-sdk-c\src\wolfSSL\wolfcrypt\src/asn.c **** }
 390:..\acn-sdk-c\src\wolfSSL\wolfcrypt\src/asn.c **** 
 391:..\acn-sdk-c\src\wolfSSL\wolfcrypt\src/asn.c **** #endif /* FREESCALE_KSDK_BM */
 392:..\acn-sdk-c\src\wolfSSL\wolfcrypt\src/asn.c **** 
 393:..\acn-sdk-c\src\wolfSSL\wolfcrypt\src/asn.c **** #if defined(WOLFSSL_TIRTOS)
 394:..\acn-sdk-c\src\wolfSSL\wolfcrypt\src/asn.c **** 
 395:..\acn-sdk-c\src\wolfSSL\wolfcrypt\src/asn.c **** time_t XTIME(time_t * timer)
 396:..\acn-sdk-c\src\wolfSSL\wolfcrypt\src/asn.c **** {
 397:..\acn-sdk-c\src\wolfSSL\wolfcrypt\src/asn.c ****     time_t sec = 0;
 398:..\acn-sdk-c\src\wolfSSL\wolfcrypt\src/asn.c **** 
 399:..\acn-sdk-c\src\wolfSSL\wolfcrypt\src/asn.c ****     sec = (time_t) Seconds_get();
 400:..\acn-sdk-c\src\wolfSSL\wolfcrypt\src/asn.c **** 
 401:..\acn-sdk-c\src\wolfSSL\wolfcrypt\src/asn.c ****     if (timer != NULL)
 402:..\acn-sdk-c\src\wolfSSL\wolfcrypt\src/asn.c ****         *timer = sec;
 403:..\acn-sdk-c\src\wolfSSL\wolfcrypt\src/asn.c **** 
 404:..\acn-sdk-c\src\wolfSSL\wolfcrypt\src/asn.c ****     return sec;
 405:..\acn-sdk-c\src\wolfSSL\wolfcrypt\src/asn.c **** }
 406:..\acn-sdk-c\src\wolfSSL\wolfcrypt\src/asn.c **** 
 407:..\acn-sdk-c\src\wolfSSL\wolfcrypt\src/asn.c **** #endif /* WOLFSSL_TIRTOS */
 408:..\acn-sdk-c\src\wolfSSL\wolfcrypt\src/asn.c **** 
 409:..\acn-sdk-c\src\wolfSSL\wolfcrypt\src/asn.c **** 
 410:..\acn-sdk-c\src\wolfSSL\wolfcrypt\src/asn.c **** static INLINE word32 btoi(byte b)
 411:..\acn-sdk-c\src\wolfSSL\wolfcrypt\src/asn.c **** {
 412:..\acn-sdk-c\src\wolfSSL\wolfcrypt\src/asn.c ****     return b - 0x30;
 413:..\acn-sdk-c\src\wolfSSL\wolfcrypt\src/asn.c **** }
 414:..\acn-sdk-c\src\wolfSSL\wolfcrypt\src/asn.c **** 
 415:..\acn-sdk-c\src\wolfSSL\wolfcrypt\src/asn.c **** 
 416:..\acn-sdk-c\src\wolfSSL\wolfcrypt\src/asn.c **** /* two byte date/time, add to value */
 417:..\acn-sdk-c\src\wolfSSL\wolfcrypt\src/asn.c **** static INLINE void GetTime(int* value, const byte* date, int* idx)
 418:..\acn-sdk-c\src\wolfSSL\wolfcrypt\src/asn.c **** {
  25              		.loc 1 418 0
  26              		.cfi_startproc
  27              	.LVL0:
  28 0000 30B5     		push	{r4, r5, lr}
  29              		.cfi_def_cfa_offset 12
  30              		.cfi_offset 4, -12
  31              		.cfi_offset 5, -8
  32              		.cfi_offset 14, -4
 419:..\acn-sdk-c\src\wolfSSL\wolfcrypt\src/asn.c ****     int i = *idx;
 420:..\acn-sdk-c\src\wolfSSL\wolfcrypt\src/asn.c **** 
 421:..\acn-sdk-c\src\wolfSSL\wolfcrypt\src/asn.c ****     *value += btoi(date[i++]) * 10;
  33              		.loc 1 421 0
  34 0002 0A24     		mov	r4, #10
 419:..\acn-sdk-c\src\wolfSSL\wolfcrypt\src/asn.c ****     int i = *idx;
ARM GAS  C:\Users\ddemidov\AppData\Local\Temp\ccPZV1ly.s 			page 9


  35              		.loc 1 419 0
  36 0004 1368     		ldr	r3, [r2]
  37              	.LVL1:
 422:..\acn-sdk-c\src\wolfSSL\wolfcrypt\src/asn.c ****     *value += btoi(date[i++]);
 423:..\acn-sdk-c\src\wolfSSL\wolfcrypt\src/asn.c **** 
 424:..\acn-sdk-c\src\wolfSSL\wolfcrypt\src/asn.c ****     *idx = i;
 425:..\acn-sdk-c\src\wolfSSL\wolfcrypt\src/asn.c **** }
  38              		.loc 1 425 0
  39              		@ sp needed
  40              	.LBB21:
  41              	.LBB22:
 412:..\acn-sdk-c\src\wolfSSL\wolfcrypt\src/asn.c **** }
  42              		.loc 1 412 0
  43 0006 CD5C     		ldrb	r5, [r1, r3]
  44              	.LBE22:
  45              	.LBE21:
 422:..\acn-sdk-c\src\wolfSSL\wolfcrypt\src/asn.c ****     *value += btoi(date[i++]);
  46              		.loc 1 422 0
  47 0008 C918     		add	r1, r1, r3
  48              	.LVL2:
  49              	.LBB24:
  50              	.LBB23:
 412:..\acn-sdk-c\src\wolfSSL\wolfcrypt\src/asn.c **** }
  51              		.loc 1 412 0
  52 000a 303D     		sub	r5, r5, #48
  53              	.LBE23:
  54              	.LBE24:
 421:..\acn-sdk-c\src\wolfSSL\wolfcrypt\src/asn.c ****     *value += btoi(date[i++]);
  55              		.loc 1 421 0
  56 000c 6543     		mul	r5, r4
  57 000e 0468     		ldr	r4, [r0]
 422:..\acn-sdk-c\src\wolfSSL\wolfcrypt\src/asn.c ****     *value += btoi(date[i++]);
  58              		.loc 1 422 0
  59 0010 0233     		add	r3, r3, #2
  60              	.LVL3:
 421:..\acn-sdk-c\src\wolfSSL\wolfcrypt\src/asn.c ****     *value += btoi(date[i++]);
  61              		.loc 1 421 0
  62 0012 2D19     		add	r5, r5, r4
  63 0014 0560     		str	r5, [r0]
  64              	.LVL4:
  65              	.LBB25:
  66              	.LBB26:
 412:..\acn-sdk-c\src\wolfSSL\wolfcrypt\src/asn.c **** }
  67              		.loc 1 412 0
  68 0016 4C78     		ldrb	r4, [r1, #1]
  69 0018 303C     		sub	r4, r4, #48
  70              	.LBE26:
  71              	.LBE25:
 422:..\acn-sdk-c\src\wolfSSL\wolfcrypt\src/asn.c ****     *value += btoi(date[i++]);
  72              		.loc 1 422 0
  73 001a 2919     		add	r1, r5, r4
  74 001c 0160     		str	r1, [r0]
 424:..\acn-sdk-c\src\wolfSSL\wolfcrypt\src/asn.c **** }
  75              		.loc 1 424 0
  76 001e 1360     		str	r3, [r2]
  77              		.loc 1 425 0
  78 0020 30BD     		pop	{r4, r5, pc}
ARM GAS  C:\Users\ddemidov\AppData\Local\Temp\ccPZV1ly.s 			page 10


  79              		.cfi_endproc
  80              	.LFE13:
  81              		.size	GetTime, .-GetTime
  82              		.section	.text.OidFromId,"ax",%progbits
  83              		.align	1
  84              		.code	16
  85              		.thumb_func
  86              		.type	OidFromId, %function
  87              	OidFromId:
  88              	.LFB20:
 426:..\acn-sdk-c\src\wolfSSL\wolfcrypt\src/asn.c **** 
 427:..\acn-sdk-c\src\wolfSSL\wolfcrypt\src/asn.c **** 
 428:..\acn-sdk-c\src\wolfSSL\wolfcrypt\src/asn.c **** #if defined(MICRIUM)
 429:..\acn-sdk-c\src\wolfSSL\wolfcrypt\src/asn.c **** 
 430:..\acn-sdk-c\src\wolfSSL\wolfcrypt\src/asn.c **** CPU_INT32S NetSecure_ValidateDateHandler(CPU_INT08U *date, CPU_INT08U format,
 431:..\acn-sdk-c\src\wolfSSL\wolfcrypt\src/asn.c ****                                          CPU_INT08U dateType)
 432:..\acn-sdk-c\src\wolfSSL\wolfcrypt\src/asn.c **** {
 433:..\acn-sdk-c\src\wolfSSL\wolfcrypt\src/asn.c ****     CPU_BOOLEAN  rtn_code;
 434:..\acn-sdk-c\src\wolfSSL\wolfcrypt\src/asn.c ****     CPU_INT32S   i;
 435:..\acn-sdk-c\src\wolfSSL\wolfcrypt\src/asn.c ****     CPU_INT32S   val;
 436:..\acn-sdk-c\src\wolfSSL\wolfcrypt\src/asn.c ****     CPU_INT16U   year;
 437:..\acn-sdk-c\src\wolfSSL\wolfcrypt\src/asn.c ****     CPU_INT08U   month;
 438:..\acn-sdk-c\src\wolfSSL\wolfcrypt\src/asn.c ****     CPU_INT16U   day;
 439:..\acn-sdk-c\src\wolfSSL\wolfcrypt\src/asn.c ****     CPU_INT08U   hour;
 440:..\acn-sdk-c\src\wolfSSL\wolfcrypt\src/asn.c ****     CPU_INT08U   min;
 441:..\acn-sdk-c\src\wolfSSL\wolfcrypt\src/asn.c ****     CPU_INT08U   sec;
 442:..\acn-sdk-c\src\wolfSSL\wolfcrypt\src/asn.c **** 
 443:..\acn-sdk-c\src\wolfSSL\wolfcrypt\src/asn.c ****     i    = 0;
 444:..\acn-sdk-c\src\wolfSSL\wolfcrypt\src/asn.c ****     year = 0u;
 445:..\acn-sdk-c\src\wolfSSL\wolfcrypt\src/asn.c **** 
 446:..\acn-sdk-c\src\wolfSSL\wolfcrypt\src/asn.c ****     if (format == ASN_UTC_TIME) {
 447:..\acn-sdk-c\src\wolfSSL\wolfcrypt\src/asn.c ****         if (btoi(date[0]) >= 5)
 448:..\acn-sdk-c\src\wolfSSL\wolfcrypt\src/asn.c ****             year = 1900;
 449:..\acn-sdk-c\src\wolfSSL\wolfcrypt\src/asn.c ****         else
 450:..\acn-sdk-c\src\wolfSSL\wolfcrypt\src/asn.c ****             year = 2000;
 451:..\acn-sdk-c\src\wolfSSL\wolfcrypt\src/asn.c ****     }
 452:..\acn-sdk-c\src\wolfSSL\wolfcrypt\src/asn.c ****     else  { /* format == GENERALIZED_TIME */
 453:..\acn-sdk-c\src\wolfSSL\wolfcrypt\src/asn.c ****         year += btoi(date[i++]) * 1000;
 454:..\acn-sdk-c\src\wolfSSL\wolfcrypt\src/asn.c ****         year += btoi(date[i++]) * 100;
 455:..\acn-sdk-c\src\wolfSSL\wolfcrypt\src/asn.c ****     }
 456:..\acn-sdk-c\src\wolfSSL\wolfcrypt\src/asn.c **** 
 457:..\acn-sdk-c\src\wolfSSL\wolfcrypt\src/asn.c ****     val = year;
 458:..\acn-sdk-c\src\wolfSSL\wolfcrypt\src/asn.c ****     GetTime(&val, date, &i);
 459:..\acn-sdk-c\src\wolfSSL\wolfcrypt\src/asn.c ****     year = (CPU_INT16U)val;
 460:..\acn-sdk-c\src\wolfSSL\wolfcrypt\src/asn.c **** 
 461:..\acn-sdk-c\src\wolfSSL\wolfcrypt\src/asn.c ****     val = 0;
 462:..\acn-sdk-c\src\wolfSSL\wolfcrypt\src/asn.c ****     GetTime(&val, date, &i);
 463:..\acn-sdk-c\src\wolfSSL\wolfcrypt\src/asn.c ****     month = (CPU_INT08U)val;
 464:..\acn-sdk-c\src\wolfSSL\wolfcrypt\src/asn.c **** 
 465:..\acn-sdk-c\src\wolfSSL\wolfcrypt\src/asn.c ****     val = 0;
 466:..\acn-sdk-c\src\wolfSSL\wolfcrypt\src/asn.c ****     GetTime(&val, date, &i);
 467:..\acn-sdk-c\src\wolfSSL\wolfcrypt\src/asn.c ****     day = (CPU_INT16U)val;
 468:..\acn-sdk-c\src\wolfSSL\wolfcrypt\src/asn.c **** 
 469:..\acn-sdk-c\src\wolfSSL\wolfcrypt\src/asn.c ****     val = 0;
 470:..\acn-sdk-c\src\wolfSSL\wolfcrypt\src/asn.c ****     GetTime(&val, date, &i);
 471:..\acn-sdk-c\src\wolfSSL\wolfcrypt\src/asn.c ****     hour = (CPU_INT08U)val;
 472:..\acn-sdk-c\src\wolfSSL\wolfcrypt\src/asn.c **** 
ARM GAS  C:\Users\ddemidov\AppData\Local\Temp\ccPZV1ly.s 			page 11


 473:..\acn-sdk-c\src\wolfSSL\wolfcrypt\src/asn.c ****     val = 0;
 474:..\acn-sdk-c\src\wolfSSL\wolfcrypt\src/asn.c ****     GetTime(&val, date, &i);
 475:..\acn-sdk-c\src\wolfSSL\wolfcrypt\src/asn.c ****     min = (CPU_INT08U)val;
 476:..\acn-sdk-c\src\wolfSSL\wolfcrypt\src/asn.c **** 
 477:..\acn-sdk-c\src\wolfSSL\wolfcrypt\src/asn.c ****     val = 0;
 478:..\acn-sdk-c\src\wolfSSL\wolfcrypt\src/asn.c ****     GetTime(&val, date, &i);
 479:..\acn-sdk-c\src\wolfSSL\wolfcrypt\src/asn.c ****     sec = (CPU_INT08U)val;
 480:..\acn-sdk-c\src\wolfSSL\wolfcrypt\src/asn.c **** 
 481:..\acn-sdk-c\src\wolfSSL\wolfcrypt\src/asn.c ****     return NetSecure_ValidateDate(year, month, day, hour, min, sec, dateType);
 482:..\acn-sdk-c\src\wolfSSL\wolfcrypt\src/asn.c **** }
 483:..\acn-sdk-c\src\wolfSSL\wolfcrypt\src/asn.c **** 
 484:..\acn-sdk-c\src\wolfSSL\wolfcrypt\src/asn.c **** #endif /* MICRIUM */
 485:..\acn-sdk-c\src\wolfSSL\wolfcrypt\src/asn.c **** 
 486:..\acn-sdk-c\src\wolfSSL\wolfcrypt\src/asn.c **** #if defined(IDIRECT_DEV_TIME)
 487:..\acn-sdk-c\src\wolfSSL\wolfcrypt\src/asn.c **** 
 488:..\acn-sdk-c\src\wolfSSL\wolfcrypt\src/asn.c **** extern time_t getTimestamp();
 489:..\acn-sdk-c\src\wolfSSL\wolfcrypt\src/asn.c **** 
 490:..\acn-sdk-c\src\wolfSSL\wolfcrypt\src/asn.c **** time_t idirect_time(time_t * timer)
 491:..\acn-sdk-c\src\wolfSSL\wolfcrypt\src/asn.c **** {
 492:..\acn-sdk-c\src\wolfSSL\wolfcrypt\src/asn.c ****     time_t sec = getTimestamp();
 493:..\acn-sdk-c\src\wolfSSL\wolfcrypt\src/asn.c **** 
 494:..\acn-sdk-c\src\wolfSSL\wolfcrypt\src/asn.c ****     if (timer != NULL)
 495:..\acn-sdk-c\src\wolfSSL\wolfcrypt\src/asn.c ****         *timer = sec;
 496:..\acn-sdk-c\src\wolfSSL\wolfcrypt\src/asn.c **** 
 497:..\acn-sdk-c\src\wolfSSL\wolfcrypt\src/asn.c ****     return sec;
 498:..\acn-sdk-c\src\wolfSSL\wolfcrypt\src/asn.c **** }
 499:..\acn-sdk-c\src\wolfSSL\wolfcrypt\src/asn.c **** 
 500:..\acn-sdk-c\src\wolfSSL\wolfcrypt\src/asn.c **** #endif /* IDIRECT_DEV_TIME */
 501:..\acn-sdk-c\src\wolfSSL\wolfcrypt\src/asn.c **** 
 502:..\acn-sdk-c\src\wolfSSL\wolfcrypt\src/asn.c **** #endif /* !NO_ASN_TIME */
 503:..\acn-sdk-c\src\wolfSSL\wolfcrypt\src/asn.c **** 
 504:..\acn-sdk-c\src\wolfSSL\wolfcrypt\src/asn.c **** WOLFSSL_LOCAL int GetLength(const byte* input, word32* inOutIdx, int* len,
 505:..\acn-sdk-c\src\wolfSSL\wolfcrypt\src/asn.c ****                            word32 maxIdx)
 506:..\acn-sdk-c\src\wolfSSL\wolfcrypt\src/asn.c **** {
 507:..\acn-sdk-c\src\wolfSSL\wolfcrypt\src/asn.c ****     int     length = 0;
 508:..\acn-sdk-c\src\wolfSSL\wolfcrypt\src/asn.c ****     word32  i = *inOutIdx;
 509:..\acn-sdk-c\src\wolfSSL\wolfcrypt\src/asn.c ****     byte    b;
 510:..\acn-sdk-c\src\wolfSSL\wolfcrypt\src/asn.c **** 
 511:..\acn-sdk-c\src\wolfSSL\wolfcrypt\src/asn.c ****     *len = 0;    /* default length */
 512:..\acn-sdk-c\src\wolfSSL\wolfcrypt\src/asn.c **** 
 513:..\acn-sdk-c\src\wolfSSL\wolfcrypt\src/asn.c ****     if ( (i+1) > maxIdx) {   /* for first read */
 514:..\acn-sdk-c\src\wolfSSL\wolfcrypt\src/asn.c ****         WOLFSSL_MSG("GetLength bad index on input");
 515:..\acn-sdk-c\src\wolfSSL\wolfcrypt\src/asn.c ****         return BUFFER_E;
 516:..\acn-sdk-c\src\wolfSSL\wolfcrypt\src/asn.c ****     }
 517:..\acn-sdk-c\src\wolfSSL\wolfcrypt\src/asn.c **** 
 518:..\acn-sdk-c\src\wolfSSL\wolfcrypt\src/asn.c ****     b = input[i++];
 519:..\acn-sdk-c\src\wolfSSL\wolfcrypt\src/asn.c ****     if (b >= ASN_LONG_LENGTH) {
 520:..\acn-sdk-c\src\wolfSSL\wolfcrypt\src/asn.c ****         word32 bytes = b & 0x7F;
 521:..\acn-sdk-c\src\wolfSSL\wolfcrypt\src/asn.c **** 
 522:..\acn-sdk-c\src\wolfSSL\wolfcrypt\src/asn.c ****         if ( (i+bytes) > maxIdx) {   /* for reading bytes */
 523:..\acn-sdk-c\src\wolfSSL\wolfcrypt\src/asn.c ****             WOLFSSL_MSG("GetLength bad long length");
 524:..\acn-sdk-c\src\wolfSSL\wolfcrypt\src/asn.c ****             return BUFFER_E;
 525:..\acn-sdk-c\src\wolfSSL\wolfcrypt\src/asn.c ****         }
 526:..\acn-sdk-c\src\wolfSSL\wolfcrypt\src/asn.c **** 
 527:..\acn-sdk-c\src\wolfSSL\wolfcrypt\src/asn.c ****         while (bytes--) {
 528:..\acn-sdk-c\src\wolfSSL\wolfcrypt\src/asn.c ****             b = input[i++];
 529:..\acn-sdk-c\src\wolfSSL\wolfcrypt\src/asn.c ****             length = (length << 8) | b;
ARM GAS  C:\Users\ddemidov\AppData\Local\Temp\ccPZV1ly.s 			page 12


 530:..\acn-sdk-c\src\wolfSSL\wolfcrypt\src/asn.c ****         }
 531:..\acn-sdk-c\src\wolfSSL\wolfcrypt\src/asn.c ****     }
 532:..\acn-sdk-c\src\wolfSSL\wolfcrypt\src/asn.c ****     else
 533:..\acn-sdk-c\src\wolfSSL\wolfcrypt\src/asn.c ****         length = b;
 534:..\acn-sdk-c\src\wolfSSL\wolfcrypt\src/asn.c **** 
 535:..\acn-sdk-c\src\wolfSSL\wolfcrypt\src/asn.c ****     if ( (i+length) > maxIdx) {   /* for user of length */
 536:..\acn-sdk-c\src\wolfSSL\wolfcrypt\src/asn.c ****         WOLFSSL_MSG("GetLength value exceeds buffer length");
 537:..\acn-sdk-c\src\wolfSSL\wolfcrypt\src/asn.c ****         return BUFFER_E;
 538:..\acn-sdk-c\src\wolfSSL\wolfcrypt\src/asn.c ****     }
 539:..\acn-sdk-c\src\wolfSSL\wolfcrypt\src/asn.c **** 
 540:..\acn-sdk-c\src\wolfSSL\wolfcrypt\src/asn.c ****     *inOutIdx = i;
 541:..\acn-sdk-c\src\wolfSSL\wolfcrypt\src/asn.c ****     if (length > 0)
 542:..\acn-sdk-c\src\wolfSSL\wolfcrypt\src/asn.c ****         *len = length;
 543:..\acn-sdk-c\src\wolfSSL\wolfcrypt\src/asn.c **** 
 544:..\acn-sdk-c\src\wolfSSL\wolfcrypt\src/asn.c ****     return length;
 545:..\acn-sdk-c\src\wolfSSL\wolfcrypt\src/asn.c **** }
 546:..\acn-sdk-c\src\wolfSSL\wolfcrypt\src/asn.c **** 
 547:..\acn-sdk-c\src\wolfSSL\wolfcrypt\src/asn.c **** 
 548:..\acn-sdk-c\src\wolfSSL\wolfcrypt\src/asn.c **** WOLFSSL_LOCAL int GetSequence(const byte* input, word32* inOutIdx, int* len,
 549:..\acn-sdk-c\src\wolfSSL\wolfcrypt\src/asn.c ****                            word32 maxIdx)
 550:..\acn-sdk-c\src\wolfSSL\wolfcrypt\src/asn.c **** {
 551:..\acn-sdk-c\src\wolfSSL\wolfcrypt\src/asn.c ****     int    length = -1;
 552:..\acn-sdk-c\src\wolfSSL\wolfcrypt\src/asn.c ****     word32 idx    = *inOutIdx;
 553:..\acn-sdk-c\src\wolfSSL\wolfcrypt\src/asn.c **** 
 554:..\acn-sdk-c\src\wolfSSL\wolfcrypt\src/asn.c ****     if (input[idx++] != (ASN_SEQUENCE | ASN_CONSTRUCTED) ||
 555:..\acn-sdk-c\src\wolfSSL\wolfcrypt\src/asn.c ****             GetLength(input, &idx, &length, maxIdx) < 0)
 556:..\acn-sdk-c\src\wolfSSL\wolfcrypt\src/asn.c ****         return ASN_PARSE_E;
 557:..\acn-sdk-c\src\wolfSSL\wolfcrypt\src/asn.c **** 
 558:..\acn-sdk-c\src\wolfSSL\wolfcrypt\src/asn.c ****     *len      = length;
 559:..\acn-sdk-c\src\wolfSSL\wolfcrypt\src/asn.c ****     *inOutIdx = idx;
 560:..\acn-sdk-c\src\wolfSSL\wolfcrypt\src/asn.c **** 
 561:..\acn-sdk-c\src\wolfSSL\wolfcrypt\src/asn.c ****     return length;
 562:..\acn-sdk-c\src\wolfSSL\wolfcrypt\src/asn.c **** }
 563:..\acn-sdk-c\src\wolfSSL\wolfcrypt\src/asn.c **** 
 564:..\acn-sdk-c\src\wolfSSL\wolfcrypt\src/asn.c **** 
 565:..\acn-sdk-c\src\wolfSSL\wolfcrypt\src/asn.c **** WOLFSSL_LOCAL int GetSet(const byte* input, word32* inOutIdx, int* len,
 566:..\acn-sdk-c\src\wolfSSL\wolfcrypt\src/asn.c ****                         word32 maxIdx)
 567:..\acn-sdk-c\src\wolfSSL\wolfcrypt\src/asn.c **** {
 568:..\acn-sdk-c\src\wolfSSL\wolfcrypt\src/asn.c ****     int    length = -1;
 569:..\acn-sdk-c\src\wolfSSL\wolfcrypt\src/asn.c ****     word32 idx    = *inOutIdx;
 570:..\acn-sdk-c\src\wolfSSL\wolfcrypt\src/asn.c **** 
 571:..\acn-sdk-c\src\wolfSSL\wolfcrypt\src/asn.c ****     if (input[idx++] != (ASN_SET | ASN_CONSTRUCTED) ||
 572:..\acn-sdk-c\src\wolfSSL\wolfcrypt\src/asn.c ****             GetLength(input, &idx, &length, maxIdx) < 0)
 573:..\acn-sdk-c\src\wolfSSL\wolfcrypt\src/asn.c ****         return ASN_PARSE_E;
 574:..\acn-sdk-c\src\wolfSSL\wolfcrypt\src/asn.c **** 
 575:..\acn-sdk-c\src\wolfSSL\wolfcrypt\src/asn.c ****     *len      = length;
 576:..\acn-sdk-c\src\wolfSSL\wolfcrypt\src/asn.c ****     *inOutIdx = idx;
 577:..\acn-sdk-c\src\wolfSSL\wolfcrypt\src/asn.c **** 
 578:..\acn-sdk-c\src\wolfSSL\wolfcrypt\src/asn.c ****     return length;
 579:..\acn-sdk-c\src\wolfSSL\wolfcrypt\src/asn.c **** }
 580:..\acn-sdk-c\src\wolfSSL\wolfcrypt\src/asn.c **** 
 581:..\acn-sdk-c\src\wolfSSL\wolfcrypt\src/asn.c **** 
 582:..\acn-sdk-c\src\wolfSSL\wolfcrypt\src/asn.c **** /* Windows header clash for WinCE using GetVersion */
 583:..\acn-sdk-c\src\wolfSSL\wolfcrypt\src/asn.c **** WOLFSSL_LOCAL int GetMyVersion(const byte* input, word32* inOutIdx,
 584:..\acn-sdk-c\src\wolfSSL\wolfcrypt\src/asn.c ****                                int* version)
 585:..\acn-sdk-c\src\wolfSSL\wolfcrypt\src/asn.c **** {
 586:..\acn-sdk-c\src\wolfSSL\wolfcrypt\src/asn.c ****     word32 idx = *inOutIdx;
ARM GAS  C:\Users\ddemidov\AppData\Local\Temp\ccPZV1ly.s 			page 13


 587:..\acn-sdk-c\src\wolfSSL\wolfcrypt\src/asn.c **** 
 588:..\acn-sdk-c\src\wolfSSL\wolfcrypt\src/asn.c ****     WOLFSSL_ENTER("GetMyVersion");
 589:..\acn-sdk-c\src\wolfSSL\wolfcrypt\src/asn.c **** 
 590:..\acn-sdk-c\src\wolfSSL\wolfcrypt\src/asn.c ****     if (input[idx++] != ASN_INTEGER)
 591:..\acn-sdk-c\src\wolfSSL\wolfcrypt\src/asn.c ****         return ASN_PARSE_E;
 592:..\acn-sdk-c\src\wolfSSL\wolfcrypt\src/asn.c **** 
 593:..\acn-sdk-c\src\wolfSSL\wolfcrypt\src/asn.c ****     if (input[idx++] != 0x01)
 594:..\acn-sdk-c\src\wolfSSL\wolfcrypt\src/asn.c ****         return ASN_VERSION_E;
 595:..\acn-sdk-c\src\wolfSSL\wolfcrypt\src/asn.c **** 
 596:..\acn-sdk-c\src\wolfSSL\wolfcrypt\src/asn.c ****     *version  = input[idx++];
 597:..\acn-sdk-c\src\wolfSSL\wolfcrypt\src/asn.c ****     *inOutIdx = idx;
 598:..\acn-sdk-c\src\wolfSSL\wolfcrypt\src/asn.c **** 
 599:..\acn-sdk-c\src\wolfSSL\wolfcrypt\src/asn.c ****     return *version;
 600:..\acn-sdk-c\src\wolfSSL\wolfcrypt\src/asn.c **** }
 601:..\acn-sdk-c\src\wolfSSL\wolfcrypt\src/asn.c **** 
 602:..\acn-sdk-c\src\wolfSSL\wolfcrypt\src/asn.c **** 
 603:..\acn-sdk-c\src\wolfSSL\wolfcrypt\src/asn.c **** #ifndef NO_PWDBASED
 604:..\acn-sdk-c\src\wolfSSL\wolfcrypt\src/asn.c **** /* Get small count integer, 32 bits or less */
 605:..\acn-sdk-c\src\wolfSSL\wolfcrypt\src/asn.c **** static int GetShortInt(const byte* input, word32* inOutIdx, int* number)
 606:..\acn-sdk-c\src\wolfSSL\wolfcrypt\src/asn.c **** {
 607:..\acn-sdk-c\src\wolfSSL\wolfcrypt\src/asn.c ****     word32 idx = *inOutIdx;
 608:..\acn-sdk-c\src\wolfSSL\wolfcrypt\src/asn.c ****     word32 len;
 609:..\acn-sdk-c\src\wolfSSL\wolfcrypt\src/asn.c **** 
 610:..\acn-sdk-c\src\wolfSSL\wolfcrypt\src/asn.c ****     *number = 0;
 611:..\acn-sdk-c\src\wolfSSL\wolfcrypt\src/asn.c **** 
 612:..\acn-sdk-c\src\wolfSSL\wolfcrypt\src/asn.c ****     if (input[idx++] != ASN_INTEGER)
 613:..\acn-sdk-c\src\wolfSSL\wolfcrypt\src/asn.c ****         return ASN_PARSE_E;
 614:..\acn-sdk-c\src\wolfSSL\wolfcrypt\src/asn.c **** 
 615:..\acn-sdk-c\src\wolfSSL\wolfcrypt\src/asn.c ****     len = input[idx++];
 616:..\acn-sdk-c\src\wolfSSL\wolfcrypt\src/asn.c ****     if (len > 4)
 617:..\acn-sdk-c\src\wolfSSL\wolfcrypt\src/asn.c ****         return ASN_PARSE_E;
 618:..\acn-sdk-c\src\wolfSSL\wolfcrypt\src/asn.c **** 
 619:..\acn-sdk-c\src\wolfSSL\wolfcrypt\src/asn.c ****     while (len--) {
 620:..\acn-sdk-c\src\wolfSSL\wolfcrypt\src/asn.c ****         *number  = *number << 8 | input[idx++];
 621:..\acn-sdk-c\src\wolfSSL\wolfcrypt\src/asn.c ****     }
 622:..\acn-sdk-c\src\wolfSSL\wolfcrypt\src/asn.c **** 
 623:..\acn-sdk-c\src\wolfSSL\wolfcrypt\src/asn.c ****     *inOutIdx = idx;
 624:..\acn-sdk-c\src\wolfSSL\wolfcrypt\src/asn.c **** 
 625:..\acn-sdk-c\src\wolfSSL\wolfcrypt\src/asn.c ****     return *number;
 626:..\acn-sdk-c\src\wolfSSL\wolfcrypt\src/asn.c **** }
 627:..\acn-sdk-c\src\wolfSSL\wolfcrypt\src/asn.c **** #endif /* !NO_PWDBASED */
 628:..\acn-sdk-c\src\wolfSSL\wolfcrypt\src/asn.c **** 
 629:..\acn-sdk-c\src\wolfSSL\wolfcrypt\src/asn.c **** #ifndef NO_ASN_TIME
 630:..\acn-sdk-c\src\wolfSSL\wolfcrypt\src/asn.c **** /* May not have one, not an error */
 631:..\acn-sdk-c\src\wolfSSL\wolfcrypt\src/asn.c **** static int GetExplicitVersion(const byte* input, word32* inOutIdx, int* version)
 632:..\acn-sdk-c\src\wolfSSL\wolfcrypt\src/asn.c **** {
 633:..\acn-sdk-c\src\wolfSSL\wolfcrypt\src/asn.c ****     word32 idx = *inOutIdx;
 634:..\acn-sdk-c\src\wolfSSL\wolfcrypt\src/asn.c **** 
 635:..\acn-sdk-c\src\wolfSSL\wolfcrypt\src/asn.c ****     WOLFSSL_ENTER("GetExplicitVersion");
 636:..\acn-sdk-c\src\wolfSSL\wolfcrypt\src/asn.c ****     if (input[idx++] == (ASN_CONTEXT_SPECIFIC | ASN_CONSTRUCTED)) {
 637:..\acn-sdk-c\src\wolfSSL\wolfcrypt\src/asn.c ****         *inOutIdx = ++idx;  /* eat header */
 638:..\acn-sdk-c\src\wolfSSL\wolfcrypt\src/asn.c ****         return GetMyVersion(input, inOutIdx, version);
 639:..\acn-sdk-c\src\wolfSSL\wolfcrypt\src/asn.c ****     }
 640:..\acn-sdk-c\src\wolfSSL\wolfcrypt\src/asn.c **** 
 641:..\acn-sdk-c\src\wolfSSL\wolfcrypt\src/asn.c ****     /* go back as is */
 642:..\acn-sdk-c\src\wolfSSL\wolfcrypt\src/asn.c ****     *version = 0;
 643:..\acn-sdk-c\src\wolfSSL\wolfcrypt\src/asn.c **** 
ARM GAS  C:\Users\ddemidov\AppData\Local\Temp\ccPZV1ly.s 			page 14


 644:..\acn-sdk-c\src\wolfSSL\wolfcrypt\src/asn.c ****     return 0;
 645:..\acn-sdk-c\src\wolfSSL\wolfcrypt\src/asn.c **** }
 646:..\acn-sdk-c\src\wolfSSL\wolfcrypt\src/asn.c **** #endif /* !NO_ASN_TIME */
 647:..\acn-sdk-c\src\wolfSSL\wolfcrypt\src/asn.c **** 
 648:..\acn-sdk-c\src\wolfSSL\wolfcrypt\src/asn.c **** WOLFSSL_LOCAL int GetInt(mp_int* mpi, const byte* input, word32* inOutIdx,
 649:..\acn-sdk-c\src\wolfSSL\wolfcrypt\src/asn.c ****                   word32 maxIdx)
 650:..\acn-sdk-c\src\wolfSSL\wolfcrypt\src/asn.c **** {
 651:..\acn-sdk-c\src\wolfSSL\wolfcrypt\src/asn.c ****     word32 i = *inOutIdx;
 652:..\acn-sdk-c\src\wolfSSL\wolfcrypt\src/asn.c ****     byte   b = input[i++];
 653:..\acn-sdk-c\src\wolfSSL\wolfcrypt\src/asn.c ****     int    length;
 654:..\acn-sdk-c\src\wolfSSL\wolfcrypt\src/asn.c **** 
 655:..\acn-sdk-c\src\wolfSSL\wolfcrypt\src/asn.c ****     if (b != ASN_INTEGER)
 656:..\acn-sdk-c\src\wolfSSL\wolfcrypt\src/asn.c ****         return ASN_PARSE_E;
 657:..\acn-sdk-c\src\wolfSSL\wolfcrypt\src/asn.c **** 
 658:..\acn-sdk-c\src\wolfSSL\wolfcrypt\src/asn.c ****     if (GetLength(input, &i, &length, maxIdx) < 0)
 659:..\acn-sdk-c\src\wolfSSL\wolfcrypt\src/asn.c ****         return ASN_PARSE_E;
 660:..\acn-sdk-c\src\wolfSSL\wolfcrypt\src/asn.c **** 
 661:..\acn-sdk-c\src\wolfSSL\wolfcrypt\src/asn.c ****     if ( (b = input[i++]) == 0x00)
 662:..\acn-sdk-c\src\wolfSSL\wolfcrypt\src/asn.c ****         length--;
 663:..\acn-sdk-c\src\wolfSSL\wolfcrypt\src/asn.c ****     else
 664:..\acn-sdk-c\src\wolfSSL\wolfcrypt\src/asn.c ****         i--;
 665:..\acn-sdk-c\src\wolfSSL\wolfcrypt\src/asn.c **** 
 666:..\acn-sdk-c\src\wolfSSL\wolfcrypt\src/asn.c ****     if (mp_init(mpi) != MP_OKAY)
 667:..\acn-sdk-c\src\wolfSSL\wolfcrypt\src/asn.c ****         return MP_INIT_E;
 668:..\acn-sdk-c\src\wolfSSL\wolfcrypt\src/asn.c **** 
 669:..\acn-sdk-c\src\wolfSSL\wolfcrypt\src/asn.c ****     if (mp_read_unsigned_bin(mpi, (byte*)input + i, length) != 0) {
 670:..\acn-sdk-c\src\wolfSSL\wolfcrypt\src/asn.c ****         mp_clear(mpi);
 671:..\acn-sdk-c\src\wolfSSL\wolfcrypt\src/asn.c ****         return ASN_GETINT_E;
 672:..\acn-sdk-c\src\wolfSSL\wolfcrypt\src/asn.c ****     }
 673:..\acn-sdk-c\src\wolfSSL\wolfcrypt\src/asn.c **** 
 674:..\acn-sdk-c\src\wolfSSL\wolfcrypt\src/asn.c ****     *inOutIdx = i + length;
 675:..\acn-sdk-c\src\wolfSSL\wolfcrypt\src/asn.c ****     return 0;
 676:..\acn-sdk-c\src\wolfSSL\wolfcrypt\src/asn.c **** }
 677:..\acn-sdk-c\src\wolfSSL\wolfcrypt\src/asn.c **** 
 678:..\acn-sdk-c\src\wolfSSL\wolfcrypt\src/asn.c **** 
 679:..\acn-sdk-c\src\wolfSSL\wolfcrypt\src/asn.c **** /* hashType */
 680:..\acn-sdk-c\src\wolfSSL\wolfcrypt\src/asn.c **** static const byte hashMd2hOid[] = {42, 134, 72, 134, 247, 13, 2, 2};
 681:..\acn-sdk-c\src\wolfSSL\wolfcrypt\src/asn.c **** static const byte hashMd5hOid[] = {42, 134, 72, 134, 247, 13, 2, 5};
 682:..\acn-sdk-c\src\wolfSSL\wolfcrypt\src/asn.c **** static const byte hashSha1hOid[] = {43, 14, 3, 2, 26};
 683:..\acn-sdk-c\src\wolfSSL\wolfcrypt\src/asn.c **** static const byte hashSha256hOid[] = {96, 134, 72, 1, 101, 3, 4, 2, 1};
 684:..\acn-sdk-c\src\wolfSSL\wolfcrypt\src/asn.c **** static const byte hashSha384hOid[] = {96, 134, 72, 1, 101, 3, 4, 2, 2};
 685:..\acn-sdk-c\src\wolfSSL\wolfcrypt\src/asn.c **** static const byte hashSha512hOid[] = {96, 134, 72, 1, 101, 3, 4, 2, 3};
 686:..\acn-sdk-c\src\wolfSSL\wolfcrypt\src/asn.c **** 
 687:..\acn-sdk-c\src\wolfSSL\wolfcrypt\src/asn.c **** /* sigType */
 688:..\acn-sdk-c\src\wolfSSL\wolfcrypt\src/asn.c **** #ifndef NO_DSA
 689:..\acn-sdk-c\src\wolfSSL\wolfcrypt\src/asn.c ****     static const byte sigSha1wDsaOid[] = {42, 134, 72, 206, 56, 4, 3};
 690:..\acn-sdk-c\src\wolfSSL\wolfcrypt\src/asn.c **** #endif /* NO_DSA */
 691:..\acn-sdk-c\src\wolfSSL\wolfcrypt\src/asn.c **** #ifndef NO_RSA
 692:..\acn-sdk-c\src\wolfSSL\wolfcrypt\src/asn.c ****     static const byte sigMd2wRsaOid[] = {42, 134, 72, 134, 247, 13, 1, 1, 2};
 693:..\acn-sdk-c\src\wolfSSL\wolfcrypt\src/asn.c ****     static const byte sigMd5wRsaOid[] = {42, 134, 72, 134, 247, 13, 1, 1, 4};
 694:..\acn-sdk-c\src\wolfSSL\wolfcrypt\src/asn.c ****     static const byte sigSha1wRsaOid[] = {42, 134, 72, 134, 247, 13, 1, 1, 5};
 695:..\acn-sdk-c\src\wolfSSL\wolfcrypt\src/asn.c ****     static const byte sigSha256wRsaOid[] = {42, 134, 72, 134, 247, 13, 1, 1,11};
 696:..\acn-sdk-c\src\wolfSSL\wolfcrypt\src/asn.c ****     static const byte sigSha384wRsaOid[] = {42, 134, 72, 134, 247, 13, 1, 1,12};
 697:..\acn-sdk-c\src\wolfSSL\wolfcrypt\src/asn.c ****     static const byte sigSha512wRsaOid[] = {42, 134, 72, 134, 247, 13, 1, 1,13};
 698:..\acn-sdk-c\src\wolfSSL\wolfcrypt\src/asn.c **** #endif /* NO_RSA */
 699:..\acn-sdk-c\src\wolfSSL\wolfcrypt\src/asn.c **** #ifdef HAVE_ECC
 700:..\acn-sdk-c\src\wolfSSL\wolfcrypt\src/asn.c ****     static const byte sigSha1wEcdsaOid[] = {42, 134, 72, 206, 61, 4, 1};
ARM GAS  C:\Users\ddemidov\AppData\Local\Temp\ccPZV1ly.s 			page 15


 701:..\acn-sdk-c\src\wolfSSL\wolfcrypt\src/asn.c ****     static const byte sigSha256wEcdsaOid[] = {42, 134, 72, 206, 61, 4, 3, 2};
 702:..\acn-sdk-c\src\wolfSSL\wolfcrypt\src/asn.c ****     static const byte sigSha384wEcdsaOid[] = {42, 134, 72, 206, 61, 4, 3, 3};
 703:..\acn-sdk-c\src\wolfSSL\wolfcrypt\src/asn.c ****     static const byte sigSha512wEcdsaOid[] = {42, 134, 72, 206, 61, 4, 3, 4};
 704:..\acn-sdk-c\src\wolfSSL\wolfcrypt\src/asn.c **** #endif /* HAVE_ECC */
 705:..\acn-sdk-c\src\wolfSSL\wolfcrypt\src/asn.c **** 
 706:..\acn-sdk-c\src\wolfSSL\wolfcrypt\src/asn.c **** /* keyType */
 707:..\acn-sdk-c\src\wolfSSL\wolfcrypt\src/asn.c **** #ifndef NO_DSA
 708:..\acn-sdk-c\src\wolfSSL\wolfcrypt\src/asn.c ****     static const byte keyDsaOid[] = {42, 134, 72, 206, 56, 4, 1};
 709:..\acn-sdk-c\src\wolfSSL\wolfcrypt\src/asn.c **** #endif /* NO_DSA */
 710:..\acn-sdk-c\src\wolfSSL\wolfcrypt\src/asn.c **** #ifndef NO_RSA
 711:..\acn-sdk-c\src\wolfSSL\wolfcrypt\src/asn.c ****     static const byte keyRsaOid[] = {42, 134, 72, 134, 247, 13, 1, 1, 1};
 712:..\acn-sdk-c\src\wolfSSL\wolfcrypt\src/asn.c **** #endif /* NO_RSA */
 713:..\acn-sdk-c\src\wolfSSL\wolfcrypt\src/asn.c **** #ifdef HAVE_NTRU
 714:..\acn-sdk-c\src\wolfSSL\wolfcrypt\src/asn.c ****     static const byte keyNtruOid[] = {43, 6, 1, 4, 1, 193, 22, 1, 1, 1, 1};
 715:..\acn-sdk-c\src\wolfSSL\wolfcrypt\src/asn.c **** #endif /* HAVE_NTRU */
 716:..\acn-sdk-c\src\wolfSSL\wolfcrypt\src/asn.c **** #ifdef HAVE_ECC
 717:..\acn-sdk-c\src\wolfSSL\wolfcrypt\src/asn.c ****     static const byte keyEcdsaOid[] = {42, 134, 72, 206, 61, 2, 1};
 718:..\acn-sdk-c\src\wolfSSL\wolfcrypt\src/asn.c **** #endif /* HAVE_ECC */
 719:..\acn-sdk-c\src\wolfSSL\wolfcrypt\src/asn.c **** 
 720:..\acn-sdk-c\src\wolfSSL\wolfcrypt\src/asn.c **** /* curveType */
 721:..\acn-sdk-c\src\wolfSSL\wolfcrypt\src/asn.c **** #ifdef HAVE_ECC
 722:..\acn-sdk-c\src\wolfSSL\wolfcrypt\src/asn.c ****     #if defined(HAVE_ALL_CURVES) || defined(HAVE_ECC192)
 723:..\acn-sdk-c\src\wolfSSL\wolfcrypt\src/asn.c ****         static const byte curve192v1Oid[] = {42, 134, 72, 206, 61, 3, 1, 1};
 724:..\acn-sdk-c\src\wolfSSL\wolfcrypt\src/asn.c ****     #endif /* HAVE_ALL_CURVES || HAVE_ECC192 */
 725:..\acn-sdk-c\src\wolfSSL\wolfcrypt\src/asn.c ****     #if defined(HAVE_ALL_CURVES) || !defined(NO_ECC256)
 726:..\acn-sdk-c\src\wolfSSL\wolfcrypt\src/asn.c ****         static const byte curve256v1Oid[] = {42, 134, 72, 206, 61, 3, 1, 7};
 727:..\acn-sdk-c\src\wolfSSL\wolfcrypt\src/asn.c ****     #endif /* HAVE_ALL_CURVES || HAVE_ECC256 */
 728:..\acn-sdk-c\src\wolfSSL\wolfcrypt\src/asn.c ****     #if defined(HAVE_ALL_CURVES) || defined(HAVE_ECC160)
 729:..\acn-sdk-c\src\wolfSSL\wolfcrypt\src/asn.c ****         static const byte curve160r1Oid[] = {43, 129, 4, 0, 2};
 730:..\acn-sdk-c\src\wolfSSL\wolfcrypt\src/asn.c ****     #endif /* HAVE_ALL_CURVES || HAVE_ECC160 */
 731:..\acn-sdk-c\src\wolfSSL\wolfcrypt\src/asn.c ****     #if defined(HAVE_ALL_CURVES) || defined(HAVE_ECC224)
 732:..\acn-sdk-c\src\wolfSSL\wolfcrypt\src/asn.c ****         static const byte curve224r1Oid[] = {43, 129, 4, 0, 33};
 733:..\acn-sdk-c\src\wolfSSL\wolfcrypt\src/asn.c ****     #endif /* HAVE_ALL_CURVES || HAVE_ECC224 */
 734:..\acn-sdk-c\src\wolfSSL\wolfcrypt\src/asn.c ****     #if defined(HAVE_ALL_CURVES) || defined(HAVE_ECC384)
 735:..\acn-sdk-c\src\wolfSSL\wolfcrypt\src/asn.c ****         static const byte curve384r1Oid[] = {43, 129, 4, 0, 34};
 736:..\acn-sdk-c\src\wolfSSL\wolfcrypt\src/asn.c ****     #endif /* HAVE_ALL_CURVES || HAVE_ECC384 */
 737:..\acn-sdk-c\src\wolfSSL\wolfcrypt\src/asn.c ****     #if defined(HAVE_ALL_CURVES) || defined(HAVE_ECC521)
 738:..\acn-sdk-c\src\wolfSSL\wolfcrypt\src/asn.c ****         static const byte curve521r1Oid[] = {43, 129, 4, 0, 35};
 739:..\acn-sdk-c\src\wolfSSL\wolfcrypt\src/asn.c ****     #endif /* HAVE_ALL_CURVES || HAVE_ECC521 */
 740:..\acn-sdk-c\src\wolfSSL\wolfcrypt\src/asn.c **** #endif /* HAVE_ECC */
 741:..\acn-sdk-c\src\wolfSSL\wolfcrypt\src/asn.c **** 
 742:..\acn-sdk-c\src\wolfSSL\wolfcrypt\src/asn.c **** /* blkType */
 743:..\acn-sdk-c\src\wolfSSL\wolfcrypt\src/asn.c **** static const byte blkDesCbcOid[]  = {43, 14, 3, 2, 7};
 744:..\acn-sdk-c\src\wolfSSL\wolfcrypt\src/asn.c **** static const byte blkDes3CbcOid[] = {42, 134, 72, 134, 247, 13, 3, 7};
 745:..\acn-sdk-c\src\wolfSSL\wolfcrypt\src/asn.c **** 
 746:..\acn-sdk-c\src\wolfSSL\wolfcrypt\src/asn.c **** /* ocspType */
 747:..\acn-sdk-c\src\wolfSSL\wolfcrypt\src/asn.c **** #ifdef HAVE_OCSP
 748:..\acn-sdk-c\src\wolfSSL\wolfcrypt\src/asn.c ****     static const byte ocspBasicOid[] = {43, 6, 1, 5, 5, 7, 48, 1, 1};
 749:..\acn-sdk-c\src\wolfSSL\wolfcrypt\src/asn.c ****     static const byte ocspNonceOid[] = {43, 6, 1, 5, 5, 7, 48, 1, 2};
 750:..\acn-sdk-c\src\wolfSSL\wolfcrypt\src/asn.c **** #endif /* HAVE_OCSP */
 751:..\acn-sdk-c\src\wolfSSL\wolfcrypt\src/asn.c **** 
 752:..\acn-sdk-c\src\wolfSSL\wolfcrypt\src/asn.c **** /* certExtType */
 753:..\acn-sdk-c\src\wolfSSL\wolfcrypt\src/asn.c **** static const byte extBasicCaOid[] = {85, 29, 19};
 754:..\acn-sdk-c\src\wolfSSL\wolfcrypt\src/asn.c **** static const byte extAltNamesOid[] = {85, 29, 17};
 755:..\acn-sdk-c\src\wolfSSL\wolfcrypt\src/asn.c **** static const byte extCrlDistOid[] = {85, 29, 31};
 756:..\acn-sdk-c\src\wolfSSL\wolfcrypt\src/asn.c **** static const byte extAuthInfoOid[] = {43, 6, 1, 5, 5, 7, 1, 1};
 757:..\acn-sdk-c\src\wolfSSL\wolfcrypt\src/asn.c **** static const byte extAuthKeyOid[] = {85, 29, 35};
ARM GAS  C:\Users\ddemidov\AppData\Local\Temp\ccPZV1ly.s 			page 16


 758:..\acn-sdk-c\src\wolfSSL\wolfcrypt\src/asn.c **** static const byte extSubjKeyOid[] = {85, 29, 14};
 759:..\acn-sdk-c\src\wolfSSL\wolfcrypt\src/asn.c **** static const byte extCertPolicyOid[] = {85, 29, 32};
 760:..\acn-sdk-c\src\wolfSSL\wolfcrypt\src/asn.c **** static const byte extKeyUsageOid[] = {85, 29, 15};
 761:..\acn-sdk-c\src\wolfSSL\wolfcrypt\src/asn.c **** static const byte extInhibitAnyOid[] = {85, 29, 54};
 762:..\acn-sdk-c\src\wolfSSL\wolfcrypt\src/asn.c **** static const byte extExtKeyUsageOid[] = {85, 29, 37};
 763:..\acn-sdk-c\src\wolfSSL\wolfcrypt\src/asn.c **** static const byte extNameConsOid[] = {85, 29, 30};
 764:..\acn-sdk-c\src\wolfSSL\wolfcrypt\src/asn.c **** 
 765:..\acn-sdk-c\src\wolfSSL\wolfcrypt\src/asn.c **** /* certAuthInfoType */
 766:..\acn-sdk-c\src\wolfSSL\wolfcrypt\src/asn.c **** static const byte extAuthInfoOcspOid[] = {43, 6, 1, 5, 5, 7, 48, 1};
 767:..\acn-sdk-c\src\wolfSSL\wolfcrypt\src/asn.c **** static const byte extAuthInfoCaIssuerOid[] = {43, 6, 1, 5, 5, 7, 48, 2};
 768:..\acn-sdk-c\src\wolfSSL\wolfcrypt\src/asn.c **** 
 769:..\acn-sdk-c\src\wolfSSL\wolfcrypt\src/asn.c **** /* certPolicyType */
 770:..\acn-sdk-c\src\wolfSSL\wolfcrypt\src/asn.c **** static const byte extCertPolicyAnyOid[] = {85, 29, 32, 0};
 771:..\acn-sdk-c\src\wolfSSL\wolfcrypt\src/asn.c **** 
 772:..\acn-sdk-c\src\wolfSSL\wolfcrypt\src/asn.c **** /* certKeyUseType */
 773:..\acn-sdk-c\src\wolfSSL\wolfcrypt\src/asn.c **** static const byte extAltNamesHwNameOid[] = {43, 6, 1, 5, 5, 7, 8, 4};
 774:..\acn-sdk-c\src\wolfSSL\wolfcrypt\src/asn.c **** 
 775:..\acn-sdk-c\src\wolfSSL\wolfcrypt\src/asn.c **** /* certKeyUseType */
 776:..\acn-sdk-c\src\wolfSSL\wolfcrypt\src/asn.c **** static const byte extExtKeyUsageAnyOid[] = {85, 29, 37, 0};
 777:..\acn-sdk-c\src\wolfSSL\wolfcrypt\src/asn.c **** static const byte extExtKeyUsageServerAuthOid[] = {43, 6, 1, 5, 5, 7, 3, 1};
 778:..\acn-sdk-c\src\wolfSSL\wolfcrypt\src/asn.c **** static const byte extExtKeyUsageClientAuthOid[] = {43, 6, 1, 5, 5, 7, 3, 2};
 779:..\acn-sdk-c\src\wolfSSL\wolfcrypt\src/asn.c **** static const byte extExtKeyUsageOcspSignOid[] = {43, 6, 1, 5, 5, 7, 3, 9};
 780:..\acn-sdk-c\src\wolfSSL\wolfcrypt\src/asn.c **** 
 781:..\acn-sdk-c\src\wolfSSL\wolfcrypt\src/asn.c **** /* kdfType */
 782:..\acn-sdk-c\src\wolfSSL\wolfcrypt\src/asn.c **** static const byte pbkdf2Oid[] = {42, 134, 72, 134, 247, 13, 1, 5, 12};
 783:..\acn-sdk-c\src\wolfSSL\wolfcrypt\src/asn.c **** 
 784:..\acn-sdk-c\src\wolfSSL\wolfcrypt\src/asn.c **** static const byte* OidFromId(word32 id, word32 type, word32* oidSz)
 785:..\acn-sdk-c\src\wolfSSL\wolfcrypt\src/asn.c **** {
  89              		.loc 1 785 0
  90              		.cfi_startproc
  91              	.LVL5:
  92 0000 031C     		mov	r3, r0
 786:..\acn-sdk-c\src\wolfSSL\wolfcrypt\src/asn.c ****     const byte* oid = NULL;
 787:..\acn-sdk-c\src\wolfSSL\wolfcrypt\src/asn.c **** 
 788:..\acn-sdk-c\src\wolfSSL\wolfcrypt\src/asn.c ****     *oidSz = 0;
  93              		.loc 1 788 0
  94 0002 0020     		mov	r0, #0
  95              	.LVL6:
 785:..\acn-sdk-c\src\wolfSSL\wolfcrypt\src/asn.c ****     const byte* oid = NULL;
  96              		.loc 1 785 0
  97 0004 00B5     		push	{lr}
  98              		.cfi_def_cfa_offset 4
  99              		.cfi_offset 14, -4
 100              		.loc 1 788 0
 101 0006 1060     		str	r0, [r2]
 789:..\acn-sdk-c\src\wolfSSL\wolfcrypt\src/asn.c **** 
 790:..\acn-sdk-c\src\wolfSSL\wolfcrypt\src/asn.c ****     switch (type) {
 102              		.loc 1 790 0
 103 0008 0B29     		cmp	r1, #11
 104 000a 00D9     		bls	.LCB72
 105 000c DAE0     		b	.L59	@long jump
 106              	.LCB72:
 107 000e 081C     		mov	r0, r1
 108 0010 FFF7FEFF 		bl	__gnu_thumb1_case_uqi
 109              	.L5:
 110 0014 06       		.byte	(.L4-.L5)/2
 111 0015 D8       		.byte	(.L59-.L5)/2
ARM GAS  C:\Users\ddemidov\AppData\Local\Temp\ccPZV1ly.s 			page 17


 112 0016 D8       		.byte	(.L59-.L5)/2
 113 0017 D8       		.byte	(.L59-.L5)/2
 114 0018 37       		.byte	(.L6-.L5)/2
 115 0019 D8       		.byte	(.L59-.L5)/2
 116 001a 47       		.byte	(.L7-.L5)/2
 117 001b 98       		.byte	(.L8-.L5)/2
 118 001c A4       		.byte	(.L9-.L5)/2
 119 001d AA       		.byte	(.L10-.L5)/2
 120 001e B1       		.byte	(.L11-.L5)/2
 121 001f CF       		.byte	(.L12-.L5)/2
 122              		.p2align 1
 123              	.L4:
 791:..\acn-sdk-c\src\wolfSSL\wolfcrypt\src/asn.c **** 
 792:..\acn-sdk-c\src\wolfSSL\wolfcrypt\src/asn.c ****         case hashType:
 793:..\acn-sdk-c\src\wolfSSL\wolfcrypt\src/asn.c ****             switch (id) {
 124              		.loc 1 793 0
 125 0020 A021     		mov	r1, #160
 126              	.LVL7:
 127 0022 FF31     		add	r1, r1, #255
 128 0024 8B42     		cmp	r3, r1
 129 0026 27D0     		beq	.L13
 130 0028 0AD8     		bhi	.L14
 131 002a 582B     		cmp	r3, #88
 132 002c 1FD0     		beq	.L15
 133 002e 0139     		sub	r1, r1, #1
 134 0030 8B42     		cmp	r3, r1
 135 0032 00D0     		beq	.LCB91
 136 0034 C6E0     		b	.L59	@long jump
 137              	.LCB91:
 138              	.LVL8:
 794:..\acn-sdk-c\src\wolfSSL\wolfcrypt\src/asn.c ****                 case MD2h:
 795:..\acn-sdk-c\src\wolfSSL\wolfcrypt\src/asn.c ****                     oid = hashMd2hOid;
 796:..\acn-sdk-c\src\wolfSSL\wolfcrypt\src/asn.c ****                     *oidSz = sizeof(hashMd2hOid);
 797:..\acn-sdk-c\src\wolfSSL\wolfcrypt\src/asn.c ****                     break;
 798:..\acn-sdk-c\src\wolfSSL\wolfcrypt\src/asn.c ****                 case MD5h:
 799:..\acn-sdk-c\src\wolfSSL\wolfcrypt\src/asn.c ****                     oid = hashMd5hOid;
 800:..\acn-sdk-c\src\wolfSSL\wolfcrypt\src/asn.c ****                     *oidSz = sizeof(hashMd5hOid);
 801:..\acn-sdk-c\src\wolfSSL\wolfcrypt\src/asn.c ****                     break;
 802:..\acn-sdk-c\src\wolfSSL\wolfcrypt\src/asn.c ****                 case SHAh:
 803:..\acn-sdk-c\src\wolfSSL\wolfcrypt\src/asn.c ****                     oid = hashSha1hOid;
 804:..\acn-sdk-c\src\wolfSSL\wolfcrypt\src/asn.c ****                     *oidSz = sizeof(hashSha1hOid);
 805:..\acn-sdk-c\src\wolfSSL\wolfcrypt\src/asn.c ****                     break;
 806:..\acn-sdk-c\src\wolfSSL\wolfcrypt\src/asn.c ****                 case SHA256h:
 807:..\acn-sdk-c\src\wolfSSL\wolfcrypt\src/asn.c ****                     oid = hashSha256hOid;
 808:..\acn-sdk-c\src\wolfSSL\wolfcrypt\src/asn.c ****                     *oidSz = sizeof(hashSha256hOid);
 139              		.loc 1 808 0
 140 0036 0923     		mov	r3, #9
 141              	.LVL9:
 807:..\acn-sdk-c\src\wolfSSL\wolfcrypt\src/asn.c ****                     *oidSz = sizeof(hashSha256hOid);
 142              		.loc 1 807 0
 143 0038 6348     		ldr	r0, .L65
 144              	.LVL10:
 145              		.loc 1 808 0
 146 003a 1360     		str	r3, [r2]
 807:..\acn-sdk-c\src\wolfSSL\wolfcrypt\src/asn.c ****                     *oidSz = sizeof(hashSha256hOid);
 147              		.loc 1 807 0
 148 003c 4730     		add	r0, r0, #71
ARM GAS  C:\Users\ddemidov\AppData\Local\Temp\ccPZV1ly.s 			page 18


 809:..\acn-sdk-c\src\wolfSSL\wolfcrypt\src/asn.c ****                     break;
 149              		.loc 1 809 0
 150 003e C2E0     		b	.L3
 151              	.LVL11:
 152              	.L14:
 793:..\acn-sdk-c\src\wolfSSL\wolfcrypt\src/asn.c ****                 case MD2h:
 153              		.loc 1 793 0
 154 0040 6249     		ldr	r1, .L65+4
 155 0042 8B42     		cmp	r3, r1
 156 0044 0BD0     		beq	.L17
 157 0046 6249     		ldr	r1, .L65+8
 158 0048 8B42     		cmp	r3, r1
 159 004a 0CD0     		beq	.L18
 160 004c E939     		sub	r1, r1, #233
 161 004e 8B42     		cmp	r3, r1
 162 0050 00D0     		beq	.LCB115
 163 0052 B7E0     		b	.L59	@long jump
 164              	.LCB115:
 165              	.LVL12:
 810:..\acn-sdk-c\src\wolfSSL\wolfcrypt\src/asn.c ****                 case SHA384h:
 811:..\acn-sdk-c\src\wolfSSL\wolfcrypt\src/asn.c ****                     oid = hashSha384hOid;
 812:..\acn-sdk-c\src\wolfSSL\wolfcrypt\src/asn.c ****                     *oidSz = sizeof(hashSha384hOid);
 813:..\acn-sdk-c\src\wolfSSL\wolfcrypt\src/asn.c ****                     break;
 814:..\acn-sdk-c\src\wolfSSL\wolfcrypt\src/asn.c ****                 case SHA512h:
 815:..\acn-sdk-c\src\wolfSSL\wolfcrypt\src/asn.c ****                     oid = hashSha512hOid;
 816:..\acn-sdk-c\src\wolfSSL\wolfcrypt\src/asn.c ****                     *oidSz = sizeof(hashSha512hOid);
 166              		.loc 1 816 0
 167 0054 0923     		mov	r3, #9
 168              	.LVL13:
 815:..\acn-sdk-c\src\wolfSSL\wolfcrypt\src/asn.c ****                     *oidSz = sizeof(hashSha512hOid);
 169              		.loc 1 815 0
 170 0056 5C48     		ldr	r0, .L65
 171              	.LVL14:
 172              		.loc 1 816 0
 173 0058 1360     		str	r3, [r2]
 815:..\acn-sdk-c\src\wolfSSL\wolfcrypt\src/asn.c ****                     *oidSz = sizeof(hashSha512hOid);
 174              		.loc 1 815 0
 175 005a 3530     		add	r0, r0, #53
 817:..\acn-sdk-c\src\wolfSSL\wolfcrypt\src/asn.c ****                     break;
 176              		.loc 1 817 0
 177 005c B3E0     		b	.L3
 178              	.LVL15:
 179              	.L17:
 796:..\acn-sdk-c\src\wolfSSL\wolfcrypt\src/asn.c ****                     break;
 180              		.loc 1 796 0
 181 005e 0823     		mov	r3, #8
 182              	.LVL16:
 795:..\acn-sdk-c\src\wolfSSL\wolfcrypt\src/asn.c ****                     *oidSz = sizeof(hashMd2hOid);
 183              		.loc 1 795 0
 184 0060 5948     		ldr	r0, .L65
 185              	.LVL17:
 796:..\acn-sdk-c\src\wolfSSL\wolfcrypt\src/asn.c ****                     break;
 186              		.loc 1 796 0
 187 0062 1360     		str	r3, [r2]
 797:..\acn-sdk-c\src\wolfSSL\wolfcrypt\src/asn.c ****                 case MD5h:
 188              		.loc 1 797 0
 189 0064 AFE0     		b	.L3
ARM GAS  C:\Users\ddemidov\AppData\Local\Temp\ccPZV1ly.s 			page 19


 190              	.LVL18:
 191              	.L18:
 800:..\acn-sdk-c\src\wolfSSL\wolfcrypt\src/asn.c ****                     break;
 192              		.loc 1 800 0
 193 0066 0823     		mov	r3, #8
 194              	.LVL19:
 799:..\acn-sdk-c\src\wolfSSL\wolfcrypt\src/asn.c ****                     *oidSz = sizeof(hashMd5hOid);
 195              		.loc 1 799 0
 196 0068 5748     		ldr	r0, .L65
 197              	.LVL20:
 800:..\acn-sdk-c\src\wolfSSL\wolfcrypt\src/asn.c ****                     break;
 198              		.loc 1 800 0
 199 006a 1360     		str	r3, [r2]
 200 006c 9FE0     		b	.L61
 201              	.LVL21:
 202              	.L15:
 804:..\acn-sdk-c\src\wolfSSL\wolfcrypt\src/asn.c ****                     break;
 203              		.loc 1 804 0
 204 006e 0523     		mov	r3, #5
 205              	.LVL22:
 803:..\acn-sdk-c\src\wolfSSL\wolfcrypt\src/asn.c ****                     *oidSz = sizeof(hashSha1hOid);
 206              		.loc 1 803 0
 207 0070 5548     		ldr	r0, .L65
 208              	.LVL23:
 804:..\acn-sdk-c\src\wolfSSL\wolfcrypt\src/asn.c ****                     break;
 209              		.loc 1 804 0
 210 0072 1360     		str	r3, [r2]
 803:..\acn-sdk-c\src\wolfSSL\wolfcrypt\src/asn.c ****                     *oidSz = sizeof(hashSha1hOid);
 211              		.loc 1 803 0
 212 0074 5030     		add	r0, r0, #80
 805:..\acn-sdk-c\src\wolfSSL\wolfcrypt\src/asn.c ****                 case SHA256h:
 213              		.loc 1 805 0
 214 0076 A6E0     		b	.L3
 215              	.LVL24:
 216              	.L13:
 812:..\acn-sdk-c\src\wolfSSL\wolfcrypt\src/asn.c ****                     break;
 217              		.loc 1 812 0
 218 0078 0923     		mov	r3, #9
 219              	.LVL25:
 811:..\acn-sdk-c\src\wolfSSL\wolfcrypt\src/asn.c ****                     *oidSz = sizeof(hashSha384hOid);
 220              		.loc 1 811 0
 221 007a 5348     		ldr	r0, .L65
 222              	.LVL26:
 812:..\acn-sdk-c\src\wolfSSL\wolfcrypt\src/asn.c ****                     break;
 223              		.loc 1 812 0
 224 007c 1360     		str	r3, [r2]
 811:..\acn-sdk-c\src\wolfSSL\wolfcrypt\src/asn.c ****                     *oidSz = sizeof(hashSha384hOid);
 225              		.loc 1 811 0
 226 007e 3E30     		add	r0, r0, #62
 813:..\acn-sdk-c\src\wolfSSL\wolfcrypt\src/asn.c ****                 case SHA512h:
 227              		.loc 1 813 0
 228 0080 A1E0     		b	.L3
 229              	.LVL27:
 230              	.L6:
 818:..\acn-sdk-c\src\wolfSSL\wolfcrypt\src/asn.c ****             }
 819:..\acn-sdk-c\src\wolfSSL\wolfcrypt\src/asn.c ****             break;
 820:..\acn-sdk-c\src\wolfSSL\wolfcrypt\src/asn.c **** 
ARM GAS  C:\Users\ddemidov\AppData\Local\Temp\ccPZV1ly.s 			page 20


 821:..\acn-sdk-c\src\wolfSSL\wolfcrypt\src/asn.c ****         case sigType:
 822:..\acn-sdk-c\src\wolfSSL\wolfcrypt\src/asn.c ****             switch (id) {
 823:..\acn-sdk-c\src\wolfSSL\wolfcrypt\src/asn.c ****                 #ifndef NO_DSA
 824:..\acn-sdk-c\src\wolfSSL\wolfcrypt\src/asn.c ****                 case CTC_SHAwDSA:
 825:..\acn-sdk-c\src\wolfSSL\wolfcrypt\src/asn.c ****                     oid = sigSha1wDsaOid;
 826:..\acn-sdk-c\src\wolfSSL\wolfcrypt\src/asn.c ****                     *oidSz = sizeof(sigSha1wDsaOid);
 827:..\acn-sdk-c\src\wolfSSL\wolfcrypt\src/asn.c ****                     break;
 828:..\acn-sdk-c\src\wolfSSL\wolfcrypt\src/asn.c ****                 #endif /* NO_DSA */
 829:..\acn-sdk-c\src\wolfSSL\wolfcrypt\src/asn.c ****                 #ifndef NO_RSA
 830:..\acn-sdk-c\src\wolfSSL\wolfcrypt\src/asn.c ****                 case CTC_MD2wRSA:
 831:..\acn-sdk-c\src\wolfSSL\wolfcrypt\src/asn.c ****                     oid = sigMd2wRsaOid;
 832:..\acn-sdk-c\src\wolfSSL\wolfcrypt\src/asn.c ****                     *oidSz = sizeof(sigMd2wRsaOid);
 833:..\acn-sdk-c\src\wolfSSL\wolfcrypt\src/asn.c ****                     break;
 834:..\acn-sdk-c\src\wolfSSL\wolfcrypt\src/asn.c ****                 case CTC_MD5wRSA:
 835:..\acn-sdk-c\src\wolfSSL\wolfcrypt\src/asn.c ****                     oid = sigMd5wRsaOid;
 836:..\acn-sdk-c\src\wolfSSL\wolfcrypt\src/asn.c ****                     *oidSz = sizeof(sigMd5wRsaOid);
 837:..\acn-sdk-c\src\wolfSSL\wolfcrypt\src/asn.c ****                     break;
 838:..\acn-sdk-c\src\wolfSSL\wolfcrypt\src/asn.c ****                 case CTC_SHAwRSA:
 839:..\acn-sdk-c\src\wolfSSL\wolfcrypt\src/asn.c ****                     oid = sigSha1wRsaOid;
 840:..\acn-sdk-c\src\wolfSSL\wolfcrypt\src/asn.c ****                     *oidSz = sizeof(sigSha1wRsaOid);
 841:..\acn-sdk-c\src\wolfSSL\wolfcrypt\src/asn.c ****                     break;
 842:..\acn-sdk-c\src\wolfSSL\wolfcrypt\src/asn.c ****                 case CTC_SHA256wRSA:
 843:..\acn-sdk-c\src\wolfSSL\wolfcrypt\src/asn.c ****                     oid = sigSha256wRsaOid;
 844:..\acn-sdk-c\src\wolfSSL\wolfcrypt\src/asn.c ****                     *oidSz = sizeof(sigSha256wRsaOid);
 845:..\acn-sdk-c\src\wolfSSL\wolfcrypt\src/asn.c ****                     break;
 846:..\acn-sdk-c\src\wolfSSL\wolfcrypt\src/asn.c ****                 case CTC_SHA384wRSA:
 847:..\acn-sdk-c\src\wolfSSL\wolfcrypt\src/asn.c ****                     oid = sigSha384wRsaOid;
 848:..\acn-sdk-c\src\wolfSSL\wolfcrypt\src/asn.c ****                     *oidSz = sizeof(sigSha384wRsaOid);
 849:..\acn-sdk-c\src\wolfSSL\wolfcrypt\src/asn.c ****                     break;
 850:..\acn-sdk-c\src\wolfSSL\wolfcrypt\src/asn.c ****                 case CTC_SHA512wRSA:
 851:..\acn-sdk-c\src\wolfSSL\wolfcrypt\src/asn.c ****                     oid = sigSha512wRsaOid;
 852:..\acn-sdk-c\src\wolfSSL\wolfcrypt\src/asn.c ****                     *oidSz = sizeof(sigSha512wRsaOid);
 853:..\acn-sdk-c\src\wolfSSL\wolfcrypt\src/asn.c ****                     break;
 854:..\acn-sdk-c\src\wolfSSL\wolfcrypt\src/asn.c ****                 #endif /* NO_RSA */
 855:..\acn-sdk-c\src\wolfSSL\wolfcrypt\src/asn.c ****                 #ifdef HAVE_ECC
 856:..\acn-sdk-c\src\wolfSSL\wolfcrypt\src/asn.c ****                 case CTC_SHAwECDSA:
 857:..\acn-sdk-c\src\wolfSSL\wolfcrypt\src/asn.c ****                     oid = sigSha1wEcdsaOid;
 858:..\acn-sdk-c\src\wolfSSL\wolfcrypt\src/asn.c ****                     *oidSz = sizeof(sigSha1wEcdsaOid);
 859:..\acn-sdk-c\src\wolfSSL\wolfcrypt\src/asn.c ****                     break;
 860:..\acn-sdk-c\src\wolfSSL\wolfcrypt\src/asn.c ****                 case CTC_SHA256wECDSA:
 861:..\acn-sdk-c\src\wolfSSL\wolfcrypt\src/asn.c ****                     oid = sigSha256wEcdsaOid;
 862:..\acn-sdk-c\src\wolfSSL\wolfcrypt\src/asn.c ****                     *oidSz = sizeof(sigSha256wEcdsaOid);
 863:..\acn-sdk-c\src\wolfSSL\wolfcrypt\src/asn.c ****                     break;
 864:..\acn-sdk-c\src\wolfSSL\wolfcrypt\src/asn.c ****                 case CTC_SHA384wECDSA:
 865:..\acn-sdk-c\src\wolfSSL\wolfcrypt\src/asn.c ****                     oid = sigSha384wEcdsaOid;
 866:..\acn-sdk-c\src\wolfSSL\wolfcrypt\src/asn.c ****                     *oidSz = sizeof(sigSha384wEcdsaOid);
 867:..\acn-sdk-c\src\wolfSSL\wolfcrypt\src/asn.c ****                     break;
 868:..\acn-sdk-c\src\wolfSSL\wolfcrypt\src/asn.c ****                 case CTC_SHA512wECDSA:
 869:..\acn-sdk-c\src\wolfSSL\wolfcrypt\src/asn.c ****                     oid = sigSha512wEcdsaOid;
 870:..\acn-sdk-c\src\wolfSSL\wolfcrypt\src/asn.c ****                     *oidSz = sizeof(sigSha512wEcdsaOid);
 871:..\acn-sdk-c\src\wolfSSL\wolfcrypt\src/asn.c ****                     break;
 872:..\acn-sdk-c\src\wolfSSL\wolfcrypt\src/asn.c ****                 #endif /* HAVE_ECC */
 873:..\acn-sdk-c\src\wolfSSL\wolfcrypt\src/asn.c ****                 default:
 874:..\acn-sdk-c\src\wolfSSL\wolfcrypt\src/asn.c ****                     break;
 875:..\acn-sdk-c\src\wolfSSL\wolfcrypt\src/asn.c ****             }
 876:..\acn-sdk-c\src\wolfSSL\wolfcrypt\src/asn.c ****             break;
 877:..\acn-sdk-c\src\wolfSSL\wolfcrypt\src/asn.c **** 
ARM GAS  C:\Users\ddemidov\AppData\Local\Temp\ccPZV1ly.s 			page 21


 878:..\acn-sdk-c\src\wolfSSL\wolfcrypt\src/asn.c ****         case keyType:
 879:..\acn-sdk-c\src\wolfSSL\wolfcrypt\src/asn.c ****             switch (id) {
 880:..\acn-sdk-c\src\wolfSSL\wolfcrypt\src/asn.c ****                 #ifndef NO_DSA
 881:..\acn-sdk-c\src\wolfSSL\wolfcrypt\src/asn.c ****                 case DSAk:
 882:..\acn-sdk-c\src\wolfSSL\wolfcrypt\src/asn.c ****                     oid = keyDsaOid;
 883:..\acn-sdk-c\src\wolfSSL\wolfcrypt\src/asn.c ****                     *oidSz = sizeof(keyDsaOid);
 884:..\acn-sdk-c\src\wolfSSL\wolfcrypt\src/asn.c ****                     break;
 885:..\acn-sdk-c\src\wolfSSL\wolfcrypt\src/asn.c ****                 #endif /* NO_DSA */
 886:..\acn-sdk-c\src\wolfSSL\wolfcrypt\src/asn.c ****                 #ifndef NO_RSA
 887:..\acn-sdk-c\src\wolfSSL\wolfcrypt\src/asn.c ****                 case RSAk:
 888:..\acn-sdk-c\src\wolfSSL\wolfcrypt\src/asn.c ****                     oid = keyRsaOid;
 889:..\acn-sdk-c\src\wolfSSL\wolfcrypt\src/asn.c ****                     *oidSz = sizeof(keyRsaOid);
 890:..\acn-sdk-c\src\wolfSSL\wolfcrypt\src/asn.c ****                     break;
 891:..\acn-sdk-c\src\wolfSSL\wolfcrypt\src/asn.c ****                 #endif /* NO_RSA */
 892:..\acn-sdk-c\src\wolfSSL\wolfcrypt\src/asn.c ****                 #ifdef HAVE_NTRU
 893:..\acn-sdk-c\src\wolfSSL\wolfcrypt\src/asn.c ****                 case NTRUk:
 894:..\acn-sdk-c\src\wolfSSL\wolfcrypt\src/asn.c ****                     oid = keyNtruOid;
 895:..\acn-sdk-c\src\wolfSSL\wolfcrypt\src/asn.c ****                     *oidSz = sizeof(keyNtruOid);
 896:..\acn-sdk-c\src\wolfSSL\wolfcrypt\src/asn.c ****                     break;
 897:..\acn-sdk-c\src\wolfSSL\wolfcrypt\src/asn.c ****                 #endif /* HAVE_NTRU */
 898:..\acn-sdk-c\src\wolfSSL\wolfcrypt\src/asn.c ****                 #ifdef HAVE_ECC
 899:..\acn-sdk-c\src\wolfSSL\wolfcrypt\src/asn.c ****                 case ECDSAk:
 900:..\acn-sdk-c\src\wolfSSL\wolfcrypt\src/asn.c ****                     oid = keyEcdsaOid;
 901:..\acn-sdk-c\src\wolfSSL\wolfcrypt\src/asn.c ****                     *oidSz = sizeof(keyEcdsaOid);
 902:..\acn-sdk-c\src\wolfSSL\wolfcrypt\src/asn.c ****                     break;
 903:..\acn-sdk-c\src\wolfSSL\wolfcrypt\src/asn.c ****                 #endif /* HAVE_ECC */
 904:..\acn-sdk-c\src\wolfSSL\wolfcrypt\src/asn.c ****                 default:
 905:..\acn-sdk-c\src\wolfSSL\wolfcrypt\src/asn.c ****                     break;
 906:..\acn-sdk-c\src\wolfSSL\wolfcrypt\src/asn.c ****             }
 907:..\acn-sdk-c\src\wolfSSL\wolfcrypt\src/asn.c ****             break;
 908:..\acn-sdk-c\src\wolfSSL\wolfcrypt\src/asn.c **** 
 909:..\acn-sdk-c\src\wolfSSL\wolfcrypt\src/asn.c ****         #ifdef HAVE_ECC
 910:..\acn-sdk-c\src\wolfSSL\wolfcrypt\src/asn.c ****         case curveType:
 911:..\acn-sdk-c\src\wolfSSL\wolfcrypt\src/asn.c ****             switch (id) {
 912:..\acn-sdk-c\src\wolfSSL\wolfcrypt\src/asn.c ****                 #if defined(HAVE_ALL_CURVES) || !defined(NO_ECC256)
 913:..\acn-sdk-c\src\wolfSSL\wolfcrypt\src/asn.c ****                 case ECC_256R1:
 914:..\acn-sdk-c\src\wolfSSL\wolfcrypt\src/asn.c ****                     oid = curve256v1Oid;
 915:..\acn-sdk-c\src\wolfSSL\wolfcrypt\src/asn.c ****                     *oidSz = sizeof(curve256v1Oid);
 916:..\acn-sdk-c\src\wolfSSL\wolfcrypt\src/asn.c ****                     break;
 917:..\acn-sdk-c\src\wolfSSL\wolfcrypt\src/asn.c ****                 #endif /* HAVE_ALL_CURVES || HAVE_ECC256 */
 918:..\acn-sdk-c\src\wolfSSL\wolfcrypt\src/asn.c ****                 #if defined(HAVE_ALL_CURVES) || defined(HAVE_ECC384)
 919:..\acn-sdk-c\src\wolfSSL\wolfcrypt\src/asn.c ****                 case ECC_384R1:
 920:..\acn-sdk-c\src\wolfSSL\wolfcrypt\src/asn.c ****                     oid = curve384r1Oid;
 921:..\acn-sdk-c\src\wolfSSL\wolfcrypt\src/asn.c ****                     *oidSz = sizeof(curve384r1Oid);
 922:..\acn-sdk-c\src\wolfSSL\wolfcrypt\src/asn.c ****                     break;
 923:..\acn-sdk-c\src\wolfSSL\wolfcrypt\src/asn.c ****                 #endif /* HAVE_ALL_CURVES || HAVE_ECC384 */
 924:..\acn-sdk-c\src\wolfSSL\wolfcrypt\src/asn.c ****                 #if defined(HAVE_ALL_CURVES) || defined(HAVE_ECC521)
 925:..\acn-sdk-c\src\wolfSSL\wolfcrypt\src/asn.c ****                 case ECC_521R1:
 926:..\acn-sdk-c\src\wolfSSL\wolfcrypt\src/asn.c ****                     oid = curve521r1Oid;
 927:..\acn-sdk-c\src\wolfSSL\wolfcrypt\src/asn.c ****                     *oidSz = sizeof(curve521r1Oid);
 928:..\acn-sdk-c\src\wolfSSL\wolfcrypt\src/asn.c ****                     break;
 929:..\acn-sdk-c\src\wolfSSL\wolfcrypt\src/asn.c ****                 #endif /* HAVE_ALL_CURVES || HAVE_ECC521 */
 930:..\acn-sdk-c\src\wolfSSL\wolfcrypt\src/asn.c ****                 #if defined(HAVE_ALL_CURVES) || defined(HAVE_ECC160)
 931:..\acn-sdk-c\src\wolfSSL\wolfcrypt\src/asn.c ****                 case ECC_160R1:
 932:..\acn-sdk-c\src\wolfSSL\wolfcrypt\src/asn.c ****                     oid = curve160r1Oid;
 933:..\acn-sdk-c\src\wolfSSL\wolfcrypt\src/asn.c ****                     *oidSz = sizeof(curve160r1Oid);
 934:..\acn-sdk-c\src\wolfSSL\wolfcrypt\src/asn.c ****                     break;
ARM GAS  C:\Users\ddemidov\AppData\Local\Temp\ccPZV1ly.s 			page 22


 935:..\acn-sdk-c\src\wolfSSL\wolfcrypt\src/asn.c ****                 #endif /* HAVE_ALL_CURVES || HAVE_ECC160 */
 936:..\acn-sdk-c\src\wolfSSL\wolfcrypt\src/asn.c ****                 #if defined(HAVE_ALL_CURVES) || defined(HAVE_ECC192)
 937:..\acn-sdk-c\src\wolfSSL\wolfcrypt\src/asn.c ****                 case ECC_192R1:
 938:..\acn-sdk-c\src\wolfSSL\wolfcrypt\src/asn.c ****                     oid = curve192v1Oid;
 939:..\acn-sdk-c\src\wolfSSL\wolfcrypt\src/asn.c ****                     *oidSz = sizeof(curve192v1Oid);
 940:..\acn-sdk-c\src\wolfSSL\wolfcrypt\src/asn.c ****                     break;
 941:..\acn-sdk-c\src\wolfSSL\wolfcrypt\src/asn.c ****                 #endif /* HAVE_ALL_CURVES || HAVE_ECC192 */
 942:..\acn-sdk-c\src\wolfSSL\wolfcrypt\src/asn.c ****                 #if defined(HAVE_ALL_CURVES) || defined(HAVE_ECC224)
 943:..\acn-sdk-c\src\wolfSSL\wolfcrypt\src/asn.c ****                 case ECC_224R1:
 944:..\acn-sdk-c\src\wolfSSL\wolfcrypt\src/asn.c ****                     oid = curve224r1Oid;
 945:..\acn-sdk-c\src\wolfSSL\wolfcrypt\src/asn.c ****                     *oidSz = sizeof(curve224r1Oid);
 946:..\acn-sdk-c\src\wolfSSL\wolfcrypt\src/asn.c ****                     break;
 947:..\acn-sdk-c\src\wolfSSL\wolfcrypt\src/asn.c ****                 #endif /* HAVE_ALL_CURVES || HAVE_ECC224 */
 948:..\acn-sdk-c\src\wolfSSL\wolfcrypt\src/asn.c ****                 default:
 949:..\acn-sdk-c\src\wolfSSL\wolfcrypt\src/asn.c ****                     break;
 950:..\acn-sdk-c\src\wolfSSL\wolfcrypt\src/asn.c ****             }
 951:..\acn-sdk-c\src\wolfSSL\wolfcrypt\src/asn.c ****             break;
 952:..\acn-sdk-c\src\wolfSSL\wolfcrypt\src/asn.c ****         #endif /* HAVE_ECC */
 953:..\acn-sdk-c\src\wolfSSL\wolfcrypt\src/asn.c **** 
 954:..\acn-sdk-c\src\wolfSSL\wolfcrypt\src/asn.c ****         case blkType:
 955:..\acn-sdk-c\src\wolfSSL\wolfcrypt\src/asn.c ****             switch (id) {
 231              		.loc 1 955 0
 232 0082 452B     		cmp	r3, #69
 233 0084 09D0     		beq	.L20
 234 0086 A321     		mov	r1, #163
 235 0088 8900     		lsl	r1, r1, #2
 236 008a 8B42     		cmp	r3, r1
 237 008c 00D0     		beq	.LCB194
 238 008e 99E0     		b	.L59	@long jump
 239              	.LCB194:
 240              	.LVL28:
 956:..\acn-sdk-c\src\wolfSSL\wolfcrypt\src/asn.c ****                 case DESb:
 957:..\acn-sdk-c\src\wolfSSL\wolfcrypt\src/asn.c ****                     oid = blkDesCbcOid;
 958:..\acn-sdk-c\src\wolfSSL\wolfcrypt\src/asn.c ****                     *oidSz = sizeof(blkDesCbcOid);
 959:..\acn-sdk-c\src\wolfSSL\wolfcrypt\src/asn.c ****                     break;
 960:..\acn-sdk-c\src\wolfSSL\wolfcrypt\src/asn.c ****                 case DES3b:
 961:..\acn-sdk-c\src\wolfSSL\wolfcrypt\src/asn.c ****                     oid = blkDes3CbcOid;
 962:..\acn-sdk-c\src\wolfSSL\wolfcrypt\src/asn.c ****                     *oidSz = sizeof(blkDes3CbcOid);
 241              		.loc 1 962 0
 242 0090 0823     		mov	r3, #8
 243              	.LVL29:
 961:..\acn-sdk-c\src\wolfSSL\wolfcrypt\src/asn.c ****                     *oidSz = sizeof(blkDes3CbcOid);
 244              		.loc 1 961 0
 245 0092 4D48     		ldr	r0, .L65
 246              	.LVL30:
 247              		.loc 1 962 0
 248 0094 1360     		str	r3, [r2]
 961:..\acn-sdk-c\src\wolfSSL\wolfcrypt\src/asn.c ****                     *oidSz = sizeof(blkDes3CbcOid);
 249              		.loc 1 961 0
 250 0096 5530     		add	r0, r0, #85
 963:..\acn-sdk-c\src\wolfSSL\wolfcrypt\src/asn.c ****                     break;
 251              		.loc 1 963 0
 252 0098 95E0     		b	.L3
 253              	.LVL31:
 254              	.L20:
 958:..\acn-sdk-c\src\wolfSSL\wolfcrypt\src/asn.c ****                     break;
 255              		.loc 1 958 0
ARM GAS  C:\Users\ddemidov\AppData\Local\Temp\ccPZV1ly.s 			page 23


 256 009a 0523     		mov	r3, #5
 257              	.LVL32:
 957:..\acn-sdk-c\src\wolfSSL\wolfcrypt\src/asn.c ****                     *oidSz = sizeof(blkDesCbcOid);
 258              		.loc 1 957 0
 259 009c 4A48     		ldr	r0, .L65
 260              	.LVL33:
 958:..\acn-sdk-c\src\wolfSSL\wolfcrypt\src/asn.c ****                     break;
 261              		.loc 1 958 0
 262 009e 1360     		str	r3, [r2]
 263 00a0 80E0     		b	.L63
 264              	.LVL34:
 265              	.L7:
 964:..\acn-sdk-c\src\wolfSSL\wolfcrypt\src/asn.c ****             }
 965:..\acn-sdk-c\src\wolfSSL\wolfcrypt\src/asn.c ****             break;
 966:..\acn-sdk-c\src\wolfSSL\wolfcrypt\src/asn.c **** 
 967:..\acn-sdk-c\src\wolfSSL\wolfcrypt\src/asn.c ****         #ifdef HAVE_OCSP
 968:..\acn-sdk-c\src\wolfSSL\wolfcrypt\src/asn.c ****         case ocspType:
 969:..\acn-sdk-c\src\wolfSSL\wolfcrypt\src/asn.c ****             switch (id) {
 970:..\acn-sdk-c\src\wolfSSL\wolfcrypt\src/asn.c ****                 case OCSP_BASIC_OID:
 971:..\acn-sdk-c\src\wolfSSL\wolfcrypt\src/asn.c ****                     oid = ocspBasicOid;
 972:..\acn-sdk-c\src\wolfSSL\wolfcrypt\src/asn.c ****                     *oidSz = sizeof(ocspBasicOid);
 973:..\acn-sdk-c\src\wolfSSL\wolfcrypt\src/asn.c ****                     break;
 974:..\acn-sdk-c\src\wolfSSL\wolfcrypt\src/asn.c ****                 case OCSP_NONCE_OID:
 975:..\acn-sdk-c\src\wolfSSL\wolfcrypt\src/asn.c ****                     oid = ocspNonceOid;
 976:..\acn-sdk-c\src\wolfSSL\wolfcrypt\src/asn.c ****                     *oidSz = sizeof(ocspNonceOid);
 977:..\acn-sdk-c\src\wolfSSL\wolfcrypt\src/asn.c ****                     break;
 978:..\acn-sdk-c\src\wolfSSL\wolfcrypt\src/asn.c ****             }
 979:..\acn-sdk-c\src\wolfSSL\wolfcrypt\src/asn.c ****             break;
 980:..\acn-sdk-c\src\wolfSSL\wolfcrypt\src/asn.c ****         #endif /* HAVE_OCSP */
 981:..\acn-sdk-c\src\wolfSSL\wolfcrypt\src/asn.c **** 
 982:..\acn-sdk-c\src\wolfSSL\wolfcrypt\src/asn.c ****         case certExtType:
 983:..\acn-sdk-c\src\wolfSSL\wolfcrypt\src/asn.c ****             switch (id) {
 266              		.loc 1 983 0
 267 00a2 902B     		cmp	r3, #144
 268 00a4 49D0     		beq	.L22
 269 00a6 15D8     		bhi	.L23
 270 00a8 812B     		cmp	r3, #129
 271 00aa 3CD0     		beq	.L24
 272 00ac 09D8     		bhi	.L25
 273 00ae 452B     		cmp	r3, #69
 274 00b0 2FD0     		beq	.L26
 275 00b2 802B     		cmp	r3, #128
 276 00b4 00D0     		beq	.LCB235
 277 00b6 85E0     		b	.L59	@long jump
 278              	.LCB235:
 279              	.LVL35:
 984:..\acn-sdk-c\src\wolfSSL\wolfcrypt\src/asn.c ****                 case BASIC_CA_OID:
 985:..\acn-sdk-c\src\wolfSSL\wolfcrypt\src/asn.c ****                     oid = extBasicCaOid;
 986:..\acn-sdk-c\src\wolfSSL\wolfcrypt\src/asn.c ****                     *oidSz = sizeof(extBasicCaOid);
 987:..\acn-sdk-c\src\wolfSSL\wolfcrypt\src/asn.c ****                     break;
 988:..\acn-sdk-c\src\wolfSSL\wolfcrypt\src/asn.c ****                 case ALT_NAMES_OID:
 989:..\acn-sdk-c\src\wolfSSL\wolfcrypt\src/asn.c ****                     oid = extAltNamesOid;
 990:..\acn-sdk-c\src\wolfSSL\wolfcrypt\src/asn.c ****                     *oidSz = sizeof(extAltNamesOid);
 991:..\acn-sdk-c\src\wolfSSL\wolfcrypt\src/asn.c ****                     break;
 992:..\acn-sdk-c\src\wolfSSL\wolfcrypt\src/asn.c ****                 case CRL_DIST_OID:
 993:..\acn-sdk-c\src\wolfSSL\wolfcrypt\src/asn.c ****                     oid = extCrlDistOid;
 994:..\acn-sdk-c\src\wolfSSL\wolfcrypt\src/asn.c ****                     *oidSz = sizeof(extCrlDistOid);
ARM GAS  C:\Users\ddemidov\AppData\Local\Temp\ccPZV1ly.s 			page 24


 995:..\acn-sdk-c\src\wolfSSL\wolfcrypt\src/asn.c ****                     break;
 996:..\acn-sdk-c\src\wolfSSL\wolfcrypt\src/asn.c ****                 case AUTH_INFO_OID:
 997:..\acn-sdk-c\src\wolfSSL\wolfcrypt\src/asn.c ****                     oid = extAuthInfoOid;
 998:..\acn-sdk-c\src\wolfSSL\wolfcrypt\src/asn.c ****                     *oidSz = sizeof(extAuthInfoOid);
 999:..\acn-sdk-c\src\wolfSSL\wolfcrypt\src/asn.c ****                     break;
1000:..\acn-sdk-c\src\wolfSSL\wolfcrypt\src/asn.c ****                 case AUTH_KEY_OID:
1001:..\acn-sdk-c\src\wolfSSL\wolfcrypt\src/asn.c ****                     oid = extAuthKeyOid;
1002:..\acn-sdk-c\src\wolfSSL\wolfcrypt\src/asn.c ****                     *oidSz = sizeof(extAuthKeyOid);
1003:..\acn-sdk-c\src\wolfSSL\wolfcrypt\src/asn.c ****                     break;
1004:..\acn-sdk-c\src\wolfSSL\wolfcrypt\src/asn.c ****                 case SUBJ_KEY_OID:
1005:..\acn-sdk-c\src\wolfSSL\wolfcrypt\src/asn.c ****                     oid = extSubjKeyOid;
1006:..\acn-sdk-c\src\wolfSSL\wolfcrypt\src/asn.c ****                     *oidSz = sizeof(extSubjKeyOid);
 280              		.loc 1 1006 0
 281 00b8 0323     		mov	r3, #3
 282              	.LVL36:
1005:..\acn-sdk-c\src\wolfSSL\wolfcrypt\src/asn.c ****                     *oidSz = sizeof(extSubjKeyOid);
 283              		.loc 1 1005 0
 284 00ba 4348     		ldr	r0, .L65
 285              	.LVL37:
 286              		.loc 1 1006 0
 287 00bc 1360     		str	r3, [r2]
1005:..\acn-sdk-c\src\wolfSSL\wolfcrypt\src/asn.c ****                     *oidSz = sizeof(extSubjKeyOid);
 288              		.loc 1 1005 0
 289 00be 6C30     		add	r0, r0, #108
1007:..\acn-sdk-c\src\wolfSSL\wolfcrypt\src/asn.c ****                     break;
 290              		.loc 1 1007 0
 291 00c0 81E0     		b	.L3
 292              	.LVL38:
 293              	.L25:
 983:..\acn-sdk-c\src\wolfSSL\wolfcrypt\src/asn.c ****                 case BASIC_CA_OID:
 294              		.loc 1 983 0
 295 00c2 832B     		cmp	r3, #131
 296 00c4 1BD0     		beq	.L28
 297 00c6 852B     		cmp	r3, #133
 298 00c8 7CD1     		bne	.L59
 299              	.LVL39:
 986:..\acn-sdk-c\src\wolfSSL\wolfcrypt\src/asn.c ****                     break;
 300              		.loc 1 986 0
 301 00ca 0323     		mov	r3, #3
 302              	.LVL40:
 985:..\acn-sdk-c\src\wolfSSL\wolfcrypt\src/asn.c ****                     *oidSz = sizeof(extBasicCaOid);
 303              		.loc 1 985 0
 304 00cc 3E48     		ldr	r0, .L65
 305              	.LVL41:
 986:..\acn-sdk-c\src\wolfSSL\wolfcrypt\src/asn.c ****                     break;
 306              		.loc 1 986 0
 307 00ce 1360     		str	r3, [r2]
 985:..\acn-sdk-c\src\wolfSSL\wolfcrypt\src/asn.c ****                     *oidSz = sizeof(extBasicCaOid);
 308              		.loc 1 985 0
 309 00d0 1530     		add	r0, r0, #21
 987:..\acn-sdk-c\src\wolfSSL\wolfcrypt\src/asn.c ****                 case ALT_NAMES_OID:
 310              		.loc 1 987 0
 311 00d2 78E0     		b	.L3
 312              	.LVL42:
 313              	.L23:
 983:..\acn-sdk-c\src\wolfSSL\wolfcrypt\src/asn.c ****                 case BASIC_CA_OID:
 314              		.loc 1 983 0
ARM GAS  C:\Users\ddemidov\AppData\Local\Temp\ccPZV1ly.s 			page 25


 315 00d4 952B     		cmp	r3, #149
 316 00d6 21D0     		beq	.L30
 317 00d8 08D8     		bhi	.L31
 318 00da 912B     		cmp	r3, #145
 319 00dc 14D0     		beq	.L32
 320 00de 922B     		cmp	r3, #146
 321 00e0 70D1     		bne	.L59
 322              	.LVL43:
1008:..\acn-sdk-c\src\wolfSSL\wolfcrypt\src/asn.c ****                 case CERT_POLICY_OID:
1009:..\acn-sdk-c\src\wolfSSL\wolfcrypt\src/asn.c ****                     oid = extCertPolicyOid;
1010:..\acn-sdk-c\src\wolfSSL\wolfcrypt\src/asn.c ****                     *oidSz = sizeof(extCertPolicyOid);
 323              		.loc 1 1010 0
 324 00e2 0323     		mov	r3, #3
 325              	.LVL44:
1009:..\acn-sdk-c\src\wolfSSL\wolfcrypt\src/asn.c ****                     *oidSz = sizeof(extCertPolicyOid);
 326              		.loc 1 1009 0
 327 00e4 3848     		ldr	r0, .L65
 328              	.LVL45:
 329              		.loc 1 1010 0
 330 00e6 1360     		str	r3, [r2]
1009:..\acn-sdk-c\src\wolfSSL\wolfcrypt\src/asn.c ****                     *oidSz = sizeof(extCertPolicyOid);
 331              		.loc 1 1009 0
 332 00e8 6930     		add	r0, r0, #105
1011:..\acn-sdk-c\src\wolfSSL\wolfcrypt\src/asn.c ****                     break;
 333              		.loc 1 1011 0
 334 00ea 6CE0     		b	.L3
 335              	.LVL46:
 336              	.L31:
 983:..\acn-sdk-c\src\wolfSSL\wolfcrypt\src/asn.c ****                 case BASIC_CA_OID:
 337              		.loc 1 983 0
 338 00ec 972B     		cmp	r3, #151
 339 00ee 1FD0     		beq	.L34
 340 00f0 A82B     		cmp	r3, #168
 341 00f2 67D1     		bne	.L59
 342              	.LVL47:
1012:..\acn-sdk-c\src\wolfSSL\wolfcrypt\src/asn.c ****                 case KEY_USAGE_OID:
1013:..\acn-sdk-c\src\wolfSSL\wolfcrypt\src/asn.c ****                     oid = extKeyUsageOid;
1014:..\acn-sdk-c\src\wolfSSL\wolfcrypt\src/asn.c ****                     *oidSz = sizeof(extKeyUsageOid);
1015:..\acn-sdk-c\src\wolfSSL\wolfcrypt\src/asn.c ****                     break;
1016:..\acn-sdk-c\src\wolfSSL\wolfcrypt\src/asn.c ****                 case INHIBIT_ANY_OID:
1017:..\acn-sdk-c\src\wolfSSL\wolfcrypt\src/asn.c ****                     oid = extInhibitAnyOid;
1018:..\acn-sdk-c\src\wolfSSL\wolfcrypt\src/asn.c ****                     *oidSz = sizeof(extInhibitAnyOid);
 343              		.loc 1 1018 0
 344 00f4 0323     		mov	r3, #3
 345              	.LVL48:
1017:..\acn-sdk-c\src\wolfSSL\wolfcrypt\src/asn.c ****                     *oidSz = sizeof(extInhibitAnyOid);
 346              		.loc 1 1017 0
 347 00f6 3448     		ldr	r0, .L65
 348              	.LVL49:
 349              		.loc 1 1018 0
 350 00f8 1360     		str	r3, [r2]
1017:..\acn-sdk-c\src\wolfSSL\wolfcrypt\src/asn.c ****                     *oidSz = sizeof(extInhibitAnyOid);
 351              		.loc 1 1017 0
 352 00fa 6330     		add	r0, r0, #99
1019:..\acn-sdk-c\src\wolfSSL\wolfcrypt\src/asn.c ****                     break;
 353              		.loc 1 1019 0
 354 00fc 63E0     		b	.L3
ARM GAS  C:\Users\ddemidov\AppData\Local\Temp\ccPZV1ly.s 			page 26


 355              	.LVL50:
 356              	.L28:
 990:..\acn-sdk-c\src\wolfSSL\wolfcrypt\src/asn.c ****                     break;
 357              		.loc 1 990 0
 358 00fe 0323     		mov	r3, #3
 359              	.LVL51:
 989:..\acn-sdk-c\src\wolfSSL\wolfcrypt\src/asn.c ****                     *oidSz = sizeof(extAltNamesOid);
 360              		.loc 1 989 0
 361 0100 3148     		ldr	r0, .L65
 362              	.LVL52:
 990:..\acn-sdk-c\src\wolfSSL\wolfcrypt\src/asn.c ****                     break;
 363              		.loc 1 990 0
 364 0102 1360     		str	r3, [r2]
 989:..\acn-sdk-c\src\wolfSSL\wolfcrypt\src/asn.c ****                     *oidSz = sizeof(extAltNamesOid);
 365              		.loc 1 989 0
 366 0104 7D30     		add	r0, r0, #125
 991:..\acn-sdk-c\src\wolfSSL\wolfcrypt\src/asn.c ****                 case CRL_DIST_OID:
 367              		.loc 1 991 0
 368 0106 5EE0     		b	.L3
 369              	.LVL53:
 370              	.L32:
 994:..\acn-sdk-c\src\wolfSSL\wolfcrypt\src/asn.c ****                     break;
 371              		.loc 1 994 0
 372 0108 0323     		mov	r3, #3
 373              	.LVL54:
 993:..\acn-sdk-c\src\wolfSSL\wolfcrypt\src/asn.c ****                     *oidSz = sizeof(extCrlDistOid);
 374              		.loc 1 993 0
 375 010a 2F48     		ldr	r0, .L65
 376              	.LVL55:
 994:..\acn-sdk-c\src\wolfSSL\wolfcrypt\src/asn.c ****                     break;
 377              		.loc 1 994 0
 378 010c 1360     		str	r3, [r2]
 993:..\acn-sdk-c\src\wolfSSL\wolfcrypt\src/asn.c ****                     *oidSz = sizeof(extCrlDistOid);
 379              		.loc 1 993 0
 380 010e 7A30     		add	r0, r0, #122
 995:..\acn-sdk-c\src\wolfSSL\wolfcrypt\src/asn.c ****                 case AUTH_INFO_OID:
 381              		.loc 1 995 0
 382 0110 59E0     		b	.L3
 383              	.LVL56:
 384              	.L26:
 998:..\acn-sdk-c\src\wolfSSL\wolfcrypt\src/asn.c ****                     break;
 385              		.loc 1 998 0
 386 0112 0823     		mov	r3, #8
 387              	.LVL57:
 997:..\acn-sdk-c\src\wolfSSL\wolfcrypt\src/asn.c ****                     *oidSz = sizeof(extAuthInfoOid);
 388              		.loc 1 997 0
 389 0114 2C48     		ldr	r0, .L65
 390              	.LVL58:
 998:..\acn-sdk-c\src\wolfSSL\wolfcrypt\src/asn.c ****                     break;
 391              		.loc 1 998 0
 392 0116 1360     		str	r3, [r2]
 997:..\acn-sdk-c\src\wolfSSL\wolfcrypt\src/asn.c ****                     *oidSz = sizeof(extAuthInfoOid);
 393              		.loc 1 997 0
 394 0118 7230     		add	r0, r0, #114
 999:..\acn-sdk-c\src\wolfSSL\wolfcrypt\src/asn.c ****                 case AUTH_KEY_OID:
 395              		.loc 1 999 0
 396 011a 54E0     		b	.L3
ARM GAS  C:\Users\ddemidov\AppData\Local\Temp\ccPZV1ly.s 			page 27


 397              	.LVL59:
 398              	.L30:
1002:..\acn-sdk-c\src\wolfSSL\wolfcrypt\src/asn.c ****                     break;
 399              		.loc 1 1002 0
 400 011c 0323     		mov	r3, #3
 401              	.LVL60:
1001:..\acn-sdk-c\src\wolfSSL\wolfcrypt\src/asn.c ****                     *oidSz = sizeof(extAuthKeyOid);
 402              		.loc 1 1001 0
 403 011e 2A48     		ldr	r0, .L65
 404              	.LVL61:
1002:..\acn-sdk-c\src\wolfSSL\wolfcrypt\src/asn.c ****                     break;
 405              		.loc 1 1002 0
 406 0120 1360     		str	r3, [r2]
1001:..\acn-sdk-c\src\wolfSSL\wolfcrypt\src/asn.c ****                     *oidSz = sizeof(extAuthKeyOid);
 407              		.loc 1 1001 0
 408 0122 6F30     		add	r0, r0, #111
1003:..\acn-sdk-c\src\wolfSSL\wolfcrypt\src/asn.c ****                 case SUBJ_KEY_OID:
 409              		.loc 1 1003 0
 410 0124 4FE0     		b	.L3
 411              	.LVL62:
 412              	.L24:
1014:..\acn-sdk-c\src\wolfSSL\wolfcrypt\src/asn.c ****                     break;
 413              		.loc 1 1014 0
 414 0126 0323     		mov	r3, #3
 415              	.LVL63:
1013:..\acn-sdk-c\src\wolfSSL\wolfcrypt\src/asn.c ****                     *oidSz = sizeof(extKeyUsageOid);
 416              		.loc 1 1013 0
 417 0128 2748     		ldr	r0, .L65
 418              	.LVL64:
1014:..\acn-sdk-c\src\wolfSSL\wolfcrypt\src/asn.c ****                     break;
 419              		.loc 1 1014 0
 420 012a 1360     		str	r3, [r2]
1013:..\acn-sdk-c\src\wolfSSL\wolfcrypt\src/asn.c ****                     *oidSz = sizeof(extKeyUsageOid);
 421              		.loc 1 1013 0
 422 012c 6630     		add	r0, r0, #102
1015:..\acn-sdk-c\src\wolfSSL\wolfcrypt\src/asn.c ****                 case INHIBIT_ANY_OID:
 423              		.loc 1 1015 0
 424 012e 4AE0     		b	.L3
 425              	.LVL65:
 426              	.L34:
1020:..\acn-sdk-c\src\wolfSSL\wolfcrypt\src/asn.c ****                 case EXT_KEY_USAGE_OID:
1021:..\acn-sdk-c\src\wolfSSL\wolfcrypt\src/asn.c ****                     oid = extExtKeyUsageOid;
1022:..\acn-sdk-c\src\wolfSSL\wolfcrypt\src/asn.c ****                     *oidSz = sizeof(extExtKeyUsageOid);
 427              		.loc 1 1022 0
 428 0130 0323     		mov	r3, #3
 429              	.LVL66:
1021:..\acn-sdk-c\src\wolfSSL\wolfcrypt\src/asn.c ****                     *oidSz = sizeof(extExtKeyUsageOid);
 430              		.loc 1 1021 0
 431 0132 2548     		ldr	r0, .L65
 432              	.LVL67:
 433              		.loc 1 1022 0
 434 0134 1360     		str	r3, [r2]
1021:..\acn-sdk-c\src\wolfSSL\wolfcrypt\src/asn.c ****                     *oidSz = sizeof(extExtKeyUsageOid);
 435              		.loc 1 1021 0
 436 0136 6030     		add	r0, r0, #96
1023:..\acn-sdk-c\src\wolfSSL\wolfcrypt\src/asn.c ****                     break;
 437              		.loc 1 1023 0
ARM GAS  C:\Users\ddemidov\AppData\Local\Temp\ccPZV1ly.s 			page 28


 438 0138 45E0     		b	.L3
 439              	.LVL68:
 440              	.L22:
1024:..\acn-sdk-c\src\wolfSSL\wolfcrypt\src/asn.c ****                 case NAME_CONS_OID:
1025:..\acn-sdk-c\src\wolfSSL\wolfcrypt\src/asn.c ****                     oid = extNameConsOid;
1026:..\acn-sdk-c\src\wolfSSL\wolfcrypt\src/asn.c ****                     *oidSz = sizeof(extNameConsOid);
 441              		.loc 1 1026 0
 442 013a 0323     		mov	r3, #3
 443              	.LVL69:
1025:..\acn-sdk-c\src\wolfSSL\wolfcrypt\src/asn.c ****                     *oidSz = sizeof(extNameConsOid);
 444              		.loc 1 1025 0
 445 013c 2248     		ldr	r0, .L65
 446              	.LVL70:
 447              		.loc 1 1026 0
 448 013e 1360     		str	r3, [r2]
1025:..\acn-sdk-c\src\wolfSSL\wolfcrypt\src/asn.c ****                     *oidSz = sizeof(extNameConsOid);
 449              		.loc 1 1025 0
 450 0140 5D30     		add	r0, r0, #93
1027:..\acn-sdk-c\src\wolfSSL\wolfcrypt\src/asn.c ****                     break;
 451              		.loc 1 1027 0
 452 0142 40E0     		b	.L3
 453              	.LVL71:
 454              	.L8:
1028:..\acn-sdk-c\src\wolfSSL\wolfcrypt\src/asn.c ****             }
1029:..\acn-sdk-c\src\wolfSSL\wolfcrypt\src/asn.c ****             break;
1030:..\acn-sdk-c\src\wolfSSL\wolfcrypt\src/asn.c **** 
1031:..\acn-sdk-c\src\wolfSSL\wolfcrypt\src/asn.c ****         case certAuthInfoType:
1032:..\acn-sdk-c\src\wolfSSL\wolfcrypt\src/asn.c ****             switch (id) {
 455              		.loc 1 1032 0
 456 0144 742B     		cmp	r3, #116
 457 0146 05D0     		beq	.L36
 458 0148 752B     		cmp	r3, #117
 459 014a 3BD1     		bne	.L59
 460              	.LVL72:
1033:..\acn-sdk-c\src\wolfSSL\wolfcrypt\src/asn.c ****                 case AIA_OCSP_OID:
1034:..\acn-sdk-c\src\wolfSSL\wolfcrypt\src/asn.c ****                     oid = extAuthInfoOcspOid;
1035:..\acn-sdk-c\src\wolfSSL\wolfcrypt\src/asn.c ****                     *oidSz = sizeof(extAuthInfoOcspOid);
1036:..\acn-sdk-c\src\wolfSSL\wolfcrypt\src/asn.c ****                     break;
1037:..\acn-sdk-c\src\wolfSSL\wolfcrypt\src/asn.c ****                 case AIA_CA_ISSUER_OID:
1038:..\acn-sdk-c\src\wolfSSL\wolfcrypt\src/asn.c ****                     oid = extAuthInfoCaIssuerOid;
1039:..\acn-sdk-c\src\wolfSSL\wolfcrypt\src/asn.c ****                     *oidSz = sizeof(extAuthInfoCaIssuerOid);
 461              		.loc 1 1039 0
 462 014c 0823     		mov	r3, #8
 463              	.LVL73:
1038:..\acn-sdk-c\src\wolfSSL\wolfcrypt\src/asn.c ****                     *oidSz = sizeof(extAuthInfoCaIssuerOid);
 464              		.loc 1 1038 0
 465 014e 2148     		ldr	r0, .L65+12
 466              	.LVL74:
 467              		.loc 1 1039 0
 468 0150 1360     		str	r3, [r2]
1040:..\acn-sdk-c\src\wolfSSL\wolfcrypt\src/asn.c ****                     break;
 469              		.loc 1 1040 0
 470 0152 38E0     		b	.L3
 471              	.LVL75:
 472              	.L36:
1035:..\acn-sdk-c\src\wolfSSL\wolfcrypt\src/asn.c ****                     break;
 473              		.loc 1 1035 0
ARM GAS  C:\Users\ddemidov\AppData\Local\Temp\ccPZV1ly.s 			page 29


 474 0154 0823     		mov	r3, #8
 475              	.LVL76:
1034:..\acn-sdk-c\src\wolfSSL\wolfcrypt\src/asn.c ****                     *oidSz = sizeof(extAuthInfoOcspOid);
 476              		.loc 1 1034 0
 477 0156 1C48     		ldr	r0, .L65
 478              	.LVL77:
1035:..\acn-sdk-c\src\wolfSSL\wolfcrypt\src/asn.c ****                     break;
 479              		.loc 1 1035 0
 480 0158 1360     		str	r3, [r2]
 481 015a 1EE0     		b	.L62
 482              	.LVL78:
 483              	.L9:
1041:..\acn-sdk-c\src\wolfSSL\wolfcrypt\src/asn.c ****             }
1042:..\acn-sdk-c\src\wolfSSL\wolfcrypt\src/asn.c ****             break;
1043:..\acn-sdk-c\src\wolfSSL\wolfcrypt\src/asn.c **** 
1044:..\acn-sdk-c\src\wolfSSL\wolfcrypt\src/asn.c ****         case certPolicyType:
1045:..\acn-sdk-c\src\wolfSSL\wolfcrypt\src/asn.c ****             switch (id) {
 484              		.loc 1 1045 0
 485 015c 922B     		cmp	r3, #146
 486 015e 31D1     		bne	.L59
 487              	.LVL79:
1046:..\acn-sdk-c\src\wolfSSL\wolfcrypt\src/asn.c ****                 case CP_ANY_OID:
1047:..\acn-sdk-c\src\wolfSSL\wolfcrypt\src/asn.c ****                     oid = extCertPolicyAnyOid;
1048:..\acn-sdk-c\src\wolfSSL\wolfcrypt\src/asn.c ****                     *oidSz = sizeof(extCertPolicyAnyOid);
 488              		.loc 1 1048 0
 489 0160 8E3B     		sub	r3, r3, #142
 490              	.LVL80:
 491 0162 1360     		str	r3, [r2]
1047:..\acn-sdk-c\src\wolfSSL\wolfcrypt\src/asn.c ****                     *oidSz = sizeof(extCertPolicyAnyOid);
 492              		.loc 1 1047 0
 493 0164 1848     		ldr	r0, .L65
 494              	.LVL81:
 495 0166 16E0     		b	.L60
 496              	.LVL82:
 497              	.L10:
1049:..\acn-sdk-c\src\wolfSSL\wolfcrypt\src/asn.c ****                     break;
1050:..\acn-sdk-c\src\wolfSSL\wolfcrypt\src/asn.c ****             }
1051:..\acn-sdk-c\src\wolfSSL\wolfcrypt\src/asn.c ****             break;
1052:..\acn-sdk-c\src\wolfSSL\wolfcrypt\src/asn.c **** 
1053:..\acn-sdk-c\src\wolfSSL\wolfcrypt\src/asn.c ****         case certAltNameType:
1054:..\acn-sdk-c\src\wolfSSL\wolfcrypt\src/asn.c ****             switch (id) {
 498              		.loc 1 1054 0
 499 0168 4F2B     		cmp	r3, #79
 500 016a 2BD1     		bne	.L59
 501              	.LVL83:
1055:..\acn-sdk-c\src\wolfSSL\wolfcrypt\src/asn.c ****                 case HW_NAME_OID:
1056:..\acn-sdk-c\src\wolfSSL\wolfcrypt\src/asn.c ****                     oid = extAltNamesHwNameOid;
 502              		.loc 1 1056 0
 503 016c 1648     		ldr	r0, .L65
 504              	.LVL84:
1057:..\acn-sdk-c\src\wolfSSL\wolfcrypt\src/asn.c ****                     *oidSz = sizeof(extAltNamesHwNameOid);
 505              		.loc 1 1057 0
 506 016e 473B     		sub	r3, r3, #71
 507              	.LVL85:
 508 0170 1360     		str	r3, [r2]
1056:..\acn-sdk-c\src\wolfSSL\wolfcrypt\src/asn.c ****                     *oidSz = sizeof(extAltNamesHwNameOid);
 509              		.loc 1 1056 0
ARM GAS  C:\Users\ddemidov\AppData\Local\Temp\ccPZV1ly.s 			page 30


 510 0172 2430     		add	r0, r0, #36
1058:..\acn-sdk-c\src\wolfSSL\wolfcrypt\src/asn.c ****                     break;
 511              		.loc 1 1058 0
 512 0174 27E0     		b	.L3
 513              	.LVL86:
 514              	.L11:
1059:..\acn-sdk-c\src\wolfSSL\wolfcrypt\src/asn.c ****             }
1060:..\acn-sdk-c\src\wolfSSL\wolfcrypt\src/asn.c ****             break;
1061:..\acn-sdk-c\src\wolfSSL\wolfcrypt\src/asn.c **** 
1062:..\acn-sdk-c\src\wolfSSL\wolfcrypt\src/asn.c ****         case certKeyUseType:
1063:..\acn-sdk-c\src\wolfSSL\wolfcrypt\src/asn.c ****             switch (id) {
 515              		.loc 1 1063 0
 516 0176 482B     		cmp	r3, #72
 517 0178 11D0     		beq	.L40
 518 017a 05D8     		bhi	.L41
 519 017c 472B     		cmp	r3, #71
 520 017e 18D1     		bne	.L12
 521              	.LVL87:
1064:..\acn-sdk-c\src\wolfSSL\wolfcrypt\src/asn.c ****                 case EKU_ANY_OID:
1065:..\acn-sdk-c\src\wolfSSL\wolfcrypt\src/asn.c ****                     oid = extExtKeyUsageAnyOid;
1066:..\acn-sdk-c\src\wolfSSL\wolfcrypt\src/asn.c ****                     *oidSz = sizeof(extExtKeyUsageAnyOid);
1067:..\acn-sdk-c\src\wolfSSL\wolfcrypt\src/asn.c ****                     break;
1068:..\acn-sdk-c\src\wolfSSL\wolfcrypt\src/asn.c ****                 case EKU_SERVER_AUTH_OID:
1069:..\acn-sdk-c\src\wolfSSL\wolfcrypt\src/asn.c ****                     oid = extExtKeyUsageServerAuthOid;
1070:..\acn-sdk-c\src\wolfSSL\wolfcrypt\src/asn.c ****                     *oidSz = sizeof(extExtKeyUsageServerAuthOid);
 522              		.loc 1 1070 0
 523 0180 0823     		mov	r3, #8
 524              	.LVL88:
1069:..\acn-sdk-c\src\wolfSSL\wolfcrypt\src/asn.c ****                     *oidSz = sizeof(extExtKeyUsageServerAuthOid);
 525              		.loc 1 1069 0
 526 0182 1448     		ldr	r0, .L65+12
 527              	.LVL89:
 528              		.loc 1 1070 0
 529 0184 1360     		str	r3, [r2]
 530 0186 08E0     		b	.L62
 531              	.LVL90:
 532              	.L41:
1063:..\acn-sdk-c\src\wolfSSL\wolfcrypt\src/asn.c ****                 case EKU_ANY_OID:
 533              		.loc 1 1063 0
 534 0188 4F2B     		cmp	r3, #79
 535 018a 0DD0     		beq	.L43
 536 018c 972B     		cmp	r3, #151
 537 018e 10D1     		bne	.L12
 538              	.LVL91:
1066:..\acn-sdk-c\src\wolfSSL\wolfcrypt\src/asn.c ****                     break;
 539              		.loc 1 1066 0
 540 0190 933B     		sub	r3, r3, #147
 541              	.LVL92:
1065:..\acn-sdk-c\src\wolfSSL\wolfcrypt\src/asn.c ****                     *oidSz = sizeof(extExtKeyUsageAnyOid);
 542              		.loc 1 1065 0
 543 0192 1048     		ldr	r0, .L65+12
 544              	.LVL93:
1066:..\acn-sdk-c\src\wolfSSL\wolfcrypt\src/asn.c ****                     break;
 545              		.loc 1 1066 0
 546 0194 1360     		str	r3, [r2]
 547              	.LVL94:
 548              	.L60:
ARM GAS  C:\Users\ddemidov\AppData\Local\Temp\ccPZV1ly.s 			page 31


1065:..\acn-sdk-c\src\wolfSSL\wolfcrypt\src/asn.c ****                     *oidSz = sizeof(extExtKeyUsageAnyOid);
 549              		.loc 1 1065 0
 550 0196 2030     		add	r0, r0, #32
1067:..\acn-sdk-c\src\wolfSSL\wolfcrypt\src/asn.c ****                 case EKU_SERVER_AUTH_OID:
 551              		.loc 1 1067 0
 552 0198 15E0     		b	.L3
 553              	.L62:
1069:..\acn-sdk-c\src\wolfSSL\wolfcrypt\src/asn.c ****                     *oidSz = sizeof(extExtKeyUsageServerAuthOid);
 554              		.loc 1 1069 0
 555 019a 1830     		add	r0, r0, #24
1071:..\acn-sdk-c\src\wolfSSL\wolfcrypt\src/asn.c ****                     break;
 556              		.loc 1 1071 0
 557 019c 13E0     		b	.L3
 558              	.LVL95:
 559              	.L40:
1072:..\acn-sdk-c\src\wolfSSL\wolfcrypt\src/asn.c ****                 case EKU_CLIENT_AUTH_OID:
1073:..\acn-sdk-c\src\wolfSSL\wolfcrypt\src/asn.c ****                     oid = extExtKeyUsageClientAuthOid;
1074:..\acn-sdk-c\src\wolfSSL\wolfcrypt\src/asn.c ****                     *oidSz = sizeof(extExtKeyUsageClientAuthOid);
 560              		.loc 1 1074 0
 561 019e 0823     		mov	r3, #8
 562              	.LVL96:
1073:..\acn-sdk-c\src\wolfSSL\wolfcrypt\src/asn.c ****                     *oidSz = sizeof(extExtKeyUsageClientAuthOid);
 563              		.loc 1 1073 0
 564 01a0 0C48     		ldr	r0, .L65+12
 565              	.LVL97:
 566              		.loc 1 1074 0
 567 01a2 1360     		str	r3, [r2]
 568              	.LVL98:
 569              	.L63:
1073:..\acn-sdk-c\src\wolfSSL\wolfcrypt\src/asn.c ****                     *oidSz = sizeof(extExtKeyUsageClientAuthOid);
 570              		.loc 1 1073 0
 571 01a4 1030     		add	r0, r0, #16
1075:..\acn-sdk-c\src\wolfSSL\wolfcrypt\src/asn.c ****                     break;
 572              		.loc 1 1075 0
 573 01a6 0EE0     		b	.L3
 574              	.LVL99:
 575              	.L43:
1076:..\acn-sdk-c\src\wolfSSL\wolfcrypt\src/asn.c ****                 case EKU_OCSP_SIGN_OID:
1077:..\acn-sdk-c\src\wolfSSL\wolfcrypt\src/asn.c ****                     oid = extExtKeyUsageOcspSignOid;
1078:..\acn-sdk-c\src\wolfSSL\wolfcrypt\src/asn.c ****                     *oidSz = sizeof(extExtKeyUsageOcspSignOid);
 576              		.loc 1 1078 0
 577 01a8 0823     		mov	r3, #8
 578              	.LVL100:
1077:..\acn-sdk-c\src\wolfSSL\wolfcrypt\src/asn.c ****                     *oidSz = sizeof(extExtKeyUsageOcspSignOid);
 579              		.loc 1 1077 0
 580 01aa 0A48     		ldr	r0, .L65+12
 581              	.LVL101:
 582              		.loc 1 1078 0
 583 01ac 1360     		str	r3, [r2]
 584              	.LVL102:
 585              	.L61:
1077:..\acn-sdk-c\src\wolfSSL\wolfcrypt\src/asn.c ****                     *oidSz = sizeof(extExtKeyUsageOcspSignOid);
 586              		.loc 1 1077 0
 587 01ae C018     		add	r0, r0, r3
1079:..\acn-sdk-c\src\wolfSSL\wolfcrypt\src/asn.c ****                     break;
 588              		.loc 1 1079 0
 589 01b0 09E0     		b	.L3
ARM GAS  C:\Users\ddemidov\AppData\Local\Temp\ccPZV1ly.s 			page 32


 590              	.LVL103:
 591              	.L12:
1080:..\acn-sdk-c\src\wolfSSL\wolfcrypt\src/asn.c ****             }
1081:..\acn-sdk-c\src\wolfSSL\wolfcrypt\src/asn.c **** 
1082:..\acn-sdk-c\src\wolfSSL\wolfcrypt\src/asn.c ****         case kdfType:
1083:..\acn-sdk-c\src\wolfSSL\wolfcrypt\src/asn.c ****             switch (id) {
 592              		.loc 1 1083 0
 593 01b2 A521     		mov	r1, #165
 594 01b4 8900     		lsl	r1, r1, #2
 595 01b6 8B42     		cmp	r3, r1
 596 01b8 04D1     		bne	.L59
 597              	.LVL104:
1084:..\acn-sdk-c\src\wolfSSL\wolfcrypt\src/asn.c ****                 case PBKDF2_OID:
1085:..\acn-sdk-c\src\wolfSSL\wolfcrypt\src/asn.c ****                     oid = pbkdf2Oid;
1086:..\acn-sdk-c\src\wolfSSL\wolfcrypt\src/asn.c ****                     *oidSz = sizeof(pbkdf2Oid);
 598              		.loc 1 1086 0
 599 01ba 0923     		mov	r3, #9
 600              	.LVL105:
1085:..\acn-sdk-c\src\wolfSSL\wolfcrypt\src/asn.c ****                     *oidSz = sizeof(pbkdf2Oid);
 601              		.loc 1 1085 0
 602 01bc 0248     		ldr	r0, .L65
 603              	.LVL106:
 604              		.loc 1 1086 0
 605 01be 1360     		str	r3, [r2]
1085:..\acn-sdk-c\src\wolfSSL\wolfcrypt\src/asn.c ****                     *oidSz = sizeof(pbkdf2Oid);
 606              		.loc 1 1085 0
 607 01c0 2C30     		add	r0, r0, #44
1087:..\acn-sdk-c\src\wolfSSL\wolfcrypt\src/asn.c ****                     break;
 608              		.loc 1 1087 0
 609 01c2 00E0     		b	.L3
 610              	.LVL107:
 611              	.L59:
1083:..\acn-sdk-c\src\wolfSSL\wolfcrypt\src/asn.c ****                 case PBKDF2_OID:
 612              		.loc 1 1083 0
 613 01c4 0020     		mov	r0, #0
 614              	.LVL108:
 615              	.L3:
1088:..\acn-sdk-c\src\wolfSSL\wolfcrypt\src/asn.c ****             }
1089:..\acn-sdk-c\src\wolfSSL\wolfcrypt\src/asn.c ****             break;
1090:..\acn-sdk-c\src\wolfSSL\wolfcrypt\src/asn.c **** 
1091:..\acn-sdk-c\src\wolfSSL\wolfcrypt\src/asn.c ****         case ignoreType:
1092:..\acn-sdk-c\src\wolfSSL\wolfcrypt\src/asn.c ****         default:
1093:..\acn-sdk-c\src\wolfSSL\wolfcrypt\src/asn.c ****             break;
1094:..\acn-sdk-c\src\wolfSSL\wolfcrypt\src/asn.c ****     }
1095:..\acn-sdk-c\src\wolfSSL\wolfcrypt\src/asn.c **** 
1096:..\acn-sdk-c\src\wolfSSL\wolfcrypt\src/asn.c ****     return oid;
1097:..\acn-sdk-c\src\wolfSSL\wolfcrypt\src/asn.c **** }
 616              		.loc 1 1097 0
 617              		@ sp needed
 618 01c6 00BD     		pop	{pc}
 619              	.L66:
 620              		.align	2
 621              	.L65:
 622 01c8 00000000 		.word	.LANCHOR0
 623 01cc 86020000 		.word	646
 624 01d0 89020000 		.word	649
 625 01d4 80000000 		.word	.LANCHOR1
ARM GAS  C:\Users\ddemidov\AppData\Local\Temp\ccPZV1ly.s 			page 33


 626              		.cfi_endproc
 627              	.LFE20:
 628              		.size	OidFromId, .-OidFromId
 629              		.section	.text.DateGreaterThan,"ax",%progbits
 630              		.align	1
 631              		.code	16
 632              		.thumb_func
 633              		.type	DateGreaterThan, %function
 634              	DateGreaterThan:
 635              	.LFB31:
1098:..\acn-sdk-c\src\wolfSSL\wolfcrypt\src/asn.c **** 
1099:..\acn-sdk-c\src\wolfSSL\wolfcrypt\src/asn.c **** 
1100:..\acn-sdk-c\src\wolfSSL\wolfcrypt\src/asn.c **** WOLFSSL_LOCAL int GetObjectId(const byte* input, word32* inOutIdx, word32* oid,
1101:..\acn-sdk-c\src\wolfSSL\wolfcrypt\src/asn.c ****                               word32 oidType, word32 maxIdx)
1102:..\acn-sdk-c\src\wolfSSL\wolfcrypt\src/asn.c **** {
1103:..\acn-sdk-c\src\wolfSSL\wolfcrypt\src/asn.c ****     int    length;
1104:..\acn-sdk-c\src\wolfSSL\wolfcrypt\src/asn.c ****     word32 i = *inOutIdx;
1105:..\acn-sdk-c\src\wolfSSL\wolfcrypt\src/asn.c **** #ifndef NO_VERIFY_OID
1106:..\acn-sdk-c\src\wolfSSL\wolfcrypt\src/asn.c ****     word32 actualOidSz = 0;
1107:..\acn-sdk-c\src\wolfSSL\wolfcrypt\src/asn.c ****     const byte* actualOid;
1108:..\acn-sdk-c\src\wolfSSL\wolfcrypt\src/asn.c **** #endif /* NO_VERIFY_OID */
1109:..\acn-sdk-c\src\wolfSSL\wolfcrypt\src/asn.c ****     byte   b;
1110:..\acn-sdk-c\src\wolfSSL\wolfcrypt\src/asn.c **** 
1111:..\acn-sdk-c\src\wolfSSL\wolfcrypt\src/asn.c ****     (void)oidType;
1112:..\acn-sdk-c\src\wolfSSL\wolfcrypt\src/asn.c ****     WOLFSSL_ENTER("GetObjectId()");
1113:..\acn-sdk-c\src\wolfSSL\wolfcrypt\src/asn.c ****     *oid = 0;
1114:..\acn-sdk-c\src\wolfSSL\wolfcrypt\src/asn.c **** 
1115:..\acn-sdk-c\src\wolfSSL\wolfcrypt\src/asn.c ****     b = input[i++];
1116:..\acn-sdk-c\src\wolfSSL\wolfcrypt\src/asn.c ****     if (b != ASN_OBJECT_ID)
1117:..\acn-sdk-c\src\wolfSSL\wolfcrypt\src/asn.c ****         return ASN_OBJECT_ID_E;
1118:..\acn-sdk-c\src\wolfSSL\wolfcrypt\src/asn.c **** 
1119:..\acn-sdk-c\src\wolfSSL\wolfcrypt\src/asn.c ****     if (GetLength(input, &i, &length, maxIdx) < 0)
1120:..\acn-sdk-c\src\wolfSSL\wolfcrypt\src/asn.c ****         return ASN_PARSE_E;
1121:..\acn-sdk-c\src\wolfSSL\wolfcrypt\src/asn.c **** 
1122:..\acn-sdk-c\src\wolfSSL\wolfcrypt\src/asn.c **** #ifndef NO_VERIFY_OID
1123:..\acn-sdk-c\src\wolfSSL\wolfcrypt\src/asn.c ****     actualOid = &input[i];
1124:..\acn-sdk-c\src\wolfSSL\wolfcrypt\src/asn.c ****     if (length > 0)
1125:..\acn-sdk-c\src\wolfSSL\wolfcrypt\src/asn.c ****         actualOidSz = (word32)length;
1126:..\acn-sdk-c\src\wolfSSL\wolfcrypt\src/asn.c **** #endif /* NO_VERIFY_OID */
1127:..\acn-sdk-c\src\wolfSSL\wolfcrypt\src/asn.c **** 
1128:..\acn-sdk-c\src\wolfSSL\wolfcrypt\src/asn.c ****     while(length--) {
1129:..\acn-sdk-c\src\wolfSSL\wolfcrypt\src/asn.c ****         /* odd HC08 compiler behavior here when input[i++] */
1130:..\acn-sdk-c\src\wolfSSL\wolfcrypt\src/asn.c ****         *oid += input[i];
1131:..\acn-sdk-c\src\wolfSSL\wolfcrypt\src/asn.c ****         i++;
1132:..\acn-sdk-c\src\wolfSSL\wolfcrypt\src/asn.c ****     }
1133:..\acn-sdk-c\src\wolfSSL\wolfcrypt\src/asn.c ****     /* just sum it up for now */
1134:..\acn-sdk-c\src\wolfSSL\wolfcrypt\src/asn.c **** 
1135:..\acn-sdk-c\src\wolfSSL\wolfcrypt\src/asn.c ****     *inOutIdx = i;
1136:..\acn-sdk-c\src\wolfSSL\wolfcrypt\src/asn.c **** 
1137:..\acn-sdk-c\src\wolfSSL\wolfcrypt\src/asn.c **** #ifndef NO_VERIFY_OID
1138:..\acn-sdk-c\src\wolfSSL\wolfcrypt\src/asn.c ****     {
1139:..\acn-sdk-c\src\wolfSSL\wolfcrypt\src/asn.c ****         const byte* checkOid = NULL;
1140:..\acn-sdk-c\src\wolfSSL\wolfcrypt\src/asn.c ****         word32 checkOidSz;
1141:..\acn-sdk-c\src\wolfSSL\wolfcrypt\src/asn.c **** 
1142:..\acn-sdk-c\src\wolfSSL\wolfcrypt\src/asn.c ****         if (oidType != ignoreType) {
1143:..\acn-sdk-c\src\wolfSSL\wolfcrypt\src/asn.c ****             checkOid = OidFromId(*oid, oidType, &checkOidSz);
1144:..\acn-sdk-c\src\wolfSSL\wolfcrypt\src/asn.c **** 
ARM GAS  C:\Users\ddemidov\AppData\Local\Temp\ccPZV1ly.s 			page 34


1145:..\acn-sdk-c\src\wolfSSL\wolfcrypt\src/asn.c ****             if (checkOid != NULL &&
1146:..\acn-sdk-c\src\wolfSSL\wolfcrypt\src/asn.c ****                 (checkOidSz != actualOidSz ||
1147:..\acn-sdk-c\src\wolfSSL\wolfcrypt\src/asn.c ****                  XMEMCMP(actualOid, checkOid, checkOidSz) != 0)) {
1148:..\acn-sdk-c\src\wolfSSL\wolfcrypt\src/asn.c **** 
1149:..\acn-sdk-c\src\wolfSSL\wolfcrypt\src/asn.c ****                 WOLFSSL_MSG("OID Check Failed");
1150:..\acn-sdk-c\src\wolfSSL\wolfcrypt\src/asn.c ****                 return ASN_UNKNOWN_OID_E;
1151:..\acn-sdk-c\src\wolfSSL\wolfcrypt\src/asn.c ****             }
1152:..\acn-sdk-c\src\wolfSSL\wolfcrypt\src/asn.c ****         }
1153:..\acn-sdk-c\src\wolfSSL\wolfcrypt\src/asn.c ****     }
1154:..\acn-sdk-c\src\wolfSSL\wolfcrypt\src/asn.c **** #endif /* NO_VERIFY_OID */
1155:..\acn-sdk-c\src\wolfSSL\wolfcrypt\src/asn.c **** 
1156:..\acn-sdk-c\src\wolfSSL\wolfcrypt\src/asn.c ****     return 0;
1157:..\acn-sdk-c\src\wolfSSL\wolfcrypt\src/asn.c **** }
1158:..\acn-sdk-c\src\wolfSSL\wolfcrypt\src/asn.c **** 
1159:..\acn-sdk-c\src\wolfSSL\wolfcrypt\src/asn.c **** 
1160:..\acn-sdk-c\src\wolfSSL\wolfcrypt\src/asn.c **** #ifndef NO_RSA
1161:..\acn-sdk-c\src\wolfSSL\wolfcrypt\src/asn.c **** #ifndef HAVE_USER_RSA
1162:..\acn-sdk-c\src\wolfSSL\wolfcrypt\src/asn.c **** #if defined(OPENSSL_EXTRA) || defined(RSA_DECODE_EXTRA)
1163:..\acn-sdk-c\src\wolfSSL\wolfcrypt\src/asn.c **** static int SkipObjectId(const byte* input, word32* inOutIdx, word32 maxIdx)
1164:..\acn-sdk-c\src\wolfSSL\wolfcrypt\src/asn.c **** {
1165:..\acn-sdk-c\src\wolfSSL\wolfcrypt\src/asn.c ****     int    length;
1166:..\acn-sdk-c\src\wolfSSL\wolfcrypt\src/asn.c **** 
1167:..\acn-sdk-c\src\wolfSSL\wolfcrypt\src/asn.c ****     if (input[(*inOutIdx)++] != ASN_OBJECT_ID)
1168:..\acn-sdk-c\src\wolfSSL\wolfcrypt\src/asn.c ****         return ASN_OBJECT_ID_E;
1169:..\acn-sdk-c\src\wolfSSL\wolfcrypt\src/asn.c **** 
1170:..\acn-sdk-c\src\wolfSSL\wolfcrypt\src/asn.c ****     if (GetLength(input, inOutIdx, &length, maxIdx) < 0)
1171:..\acn-sdk-c\src\wolfSSL\wolfcrypt\src/asn.c ****         return ASN_PARSE_E;
1172:..\acn-sdk-c\src\wolfSSL\wolfcrypt\src/asn.c **** 
1173:..\acn-sdk-c\src\wolfSSL\wolfcrypt\src/asn.c ****     *inOutIdx += length;
1174:..\acn-sdk-c\src\wolfSSL\wolfcrypt\src/asn.c **** 
1175:..\acn-sdk-c\src\wolfSSL\wolfcrypt\src/asn.c ****     return 0;
1176:..\acn-sdk-c\src\wolfSSL\wolfcrypt\src/asn.c **** }
1177:..\acn-sdk-c\src\wolfSSL\wolfcrypt\src/asn.c **** #endif /* OPENSSL_EXTRA || RSA_DECODE_EXTRA */
1178:..\acn-sdk-c\src\wolfSSL\wolfcrypt\src/asn.c **** #endif /* !HAVE_USER_RSA */
1179:..\acn-sdk-c\src\wolfSSL\wolfcrypt\src/asn.c **** #endif /* !NO_RSA */
1180:..\acn-sdk-c\src\wolfSSL\wolfcrypt\src/asn.c **** 
1181:..\acn-sdk-c\src\wolfSSL\wolfcrypt\src/asn.c **** WOLFSSL_LOCAL int GetAlgoId(const byte* input, word32* inOutIdx, word32* oid,
1182:..\acn-sdk-c\src\wolfSSL\wolfcrypt\src/asn.c ****                      word32 oidType, word32 maxIdx)
1183:..\acn-sdk-c\src\wolfSSL\wolfcrypt\src/asn.c **** {
1184:..\acn-sdk-c\src\wolfSSL\wolfcrypt\src/asn.c ****     int    length;
1185:..\acn-sdk-c\src\wolfSSL\wolfcrypt\src/asn.c ****     word32 i = *inOutIdx;
1186:..\acn-sdk-c\src\wolfSSL\wolfcrypt\src/asn.c ****     byte   b;
1187:..\acn-sdk-c\src\wolfSSL\wolfcrypt\src/asn.c ****     *oid = 0;
1188:..\acn-sdk-c\src\wolfSSL\wolfcrypt\src/asn.c **** 
1189:..\acn-sdk-c\src\wolfSSL\wolfcrypt\src/asn.c ****     WOLFSSL_ENTER("GetAlgoId");
1190:..\acn-sdk-c\src\wolfSSL\wolfcrypt\src/asn.c **** 
1191:..\acn-sdk-c\src\wolfSSL\wolfcrypt\src/asn.c ****     if (GetSequence(input, &i, &length, maxIdx) < 0)
1192:..\acn-sdk-c\src\wolfSSL\wolfcrypt\src/asn.c ****         return ASN_PARSE_E;
1193:..\acn-sdk-c\src\wolfSSL\wolfcrypt\src/asn.c **** 
1194:..\acn-sdk-c\src\wolfSSL\wolfcrypt\src/asn.c ****     if (GetObjectId(input, &i, oid, oidType, maxIdx) < 0)
1195:..\acn-sdk-c\src\wolfSSL\wolfcrypt\src/asn.c ****         return ASN_OBJECT_ID_E;
1196:..\acn-sdk-c\src\wolfSSL\wolfcrypt\src/asn.c **** 
1197:..\acn-sdk-c\src\wolfSSL\wolfcrypt\src/asn.c ****     /* could have NULL tag and 0 terminator, but may not */
1198:..\acn-sdk-c\src\wolfSSL\wolfcrypt\src/asn.c ****     b = input[i];
1199:..\acn-sdk-c\src\wolfSSL\wolfcrypt\src/asn.c **** 
1200:..\acn-sdk-c\src\wolfSSL\wolfcrypt\src/asn.c ****     if (b == ASN_TAG_NULL) {
1201:..\acn-sdk-c\src\wolfSSL\wolfcrypt\src/asn.c ****         i++;
ARM GAS  C:\Users\ddemidov\AppData\Local\Temp\ccPZV1ly.s 			page 35


1202:..\acn-sdk-c\src\wolfSSL\wolfcrypt\src/asn.c ****         b = input[i++];
1203:..\acn-sdk-c\src\wolfSSL\wolfcrypt\src/asn.c ****         if (b != 0)
1204:..\acn-sdk-c\src\wolfSSL\wolfcrypt\src/asn.c ****             return ASN_EXPECT_0_E;
1205:..\acn-sdk-c\src\wolfSSL\wolfcrypt\src/asn.c ****     }
1206:..\acn-sdk-c\src\wolfSSL\wolfcrypt\src/asn.c **** 
1207:..\acn-sdk-c\src\wolfSSL\wolfcrypt\src/asn.c ****     *inOutIdx = i;
1208:..\acn-sdk-c\src\wolfSSL\wolfcrypt\src/asn.c **** 
1209:..\acn-sdk-c\src\wolfSSL\wolfcrypt\src/asn.c ****     return 0;
1210:..\acn-sdk-c\src\wolfSSL\wolfcrypt\src/asn.c **** }
1211:..\acn-sdk-c\src\wolfSSL\wolfcrypt\src/asn.c **** 
1212:..\acn-sdk-c\src\wolfSSL\wolfcrypt\src/asn.c **** #ifndef NO_RSA
1213:..\acn-sdk-c\src\wolfSSL\wolfcrypt\src/asn.c **** 
1214:..\acn-sdk-c\src\wolfSSL\wolfcrypt\src/asn.c **** 
1215:..\acn-sdk-c\src\wolfSSL\wolfcrypt\src/asn.c **** #ifdef HAVE_CAVIUM
1216:..\acn-sdk-c\src\wolfSSL\wolfcrypt\src/asn.c **** 
1217:..\acn-sdk-c\src\wolfSSL\wolfcrypt\src/asn.c **** static int GetCaviumInt(byte** buff, word16* buffSz, const byte* input,
1218:..\acn-sdk-c\src\wolfSSL\wolfcrypt\src/asn.c ****                         word32* inOutIdx, word32 maxIdx, void* heap)
1219:..\acn-sdk-c\src\wolfSSL\wolfcrypt\src/asn.c **** {
1220:..\acn-sdk-c\src\wolfSSL\wolfcrypt\src/asn.c ****     word32 i = *inOutIdx;
1221:..\acn-sdk-c\src\wolfSSL\wolfcrypt\src/asn.c ****     byte   b = input[i++];
1222:..\acn-sdk-c\src\wolfSSL\wolfcrypt\src/asn.c ****     int    length;
1223:..\acn-sdk-c\src\wolfSSL\wolfcrypt\src/asn.c **** 
1224:..\acn-sdk-c\src\wolfSSL\wolfcrypt\src/asn.c ****     if (b != ASN_INTEGER)
1225:..\acn-sdk-c\src\wolfSSL\wolfcrypt\src/asn.c ****         return ASN_PARSE_E;
1226:..\acn-sdk-c\src\wolfSSL\wolfcrypt\src/asn.c **** 
1227:..\acn-sdk-c\src\wolfSSL\wolfcrypt\src/asn.c ****     if (GetLength(input, &i, &length, maxIdx) < 0)
1228:..\acn-sdk-c\src\wolfSSL\wolfcrypt\src/asn.c ****         return ASN_PARSE_E;
1229:..\acn-sdk-c\src\wolfSSL\wolfcrypt\src/asn.c **** 
1230:..\acn-sdk-c\src\wolfSSL\wolfcrypt\src/asn.c ****     if ( (b = input[i++]) == 0x00)
1231:..\acn-sdk-c\src\wolfSSL\wolfcrypt\src/asn.c ****         length--;
1232:..\acn-sdk-c\src\wolfSSL\wolfcrypt\src/asn.c ****     else
1233:..\acn-sdk-c\src\wolfSSL\wolfcrypt\src/asn.c ****         i--;
1234:..\acn-sdk-c\src\wolfSSL\wolfcrypt\src/asn.c **** 
1235:..\acn-sdk-c\src\wolfSSL\wolfcrypt\src/asn.c ****     *buffSz = (word16)length;
1236:..\acn-sdk-c\src\wolfSSL\wolfcrypt\src/asn.c ****     *buff   = XMALLOC(*buffSz, heap, DYNAMIC_TYPE_CAVIUM_RSA);
1237:..\acn-sdk-c\src\wolfSSL\wolfcrypt\src/asn.c ****     if (*buff == NULL)
1238:..\acn-sdk-c\src\wolfSSL\wolfcrypt\src/asn.c ****         return MEMORY_E;
1239:..\acn-sdk-c\src\wolfSSL\wolfcrypt\src/asn.c **** 
1240:..\acn-sdk-c\src\wolfSSL\wolfcrypt\src/asn.c ****     XMEMCPY(*buff, input + i, *buffSz);
1241:..\acn-sdk-c\src\wolfSSL\wolfcrypt\src/asn.c **** 
1242:..\acn-sdk-c\src\wolfSSL\wolfcrypt\src/asn.c ****     *inOutIdx = i + length;
1243:..\acn-sdk-c\src\wolfSSL\wolfcrypt\src/asn.c ****     return 0;
1244:..\acn-sdk-c\src\wolfSSL\wolfcrypt\src/asn.c **** }
1245:..\acn-sdk-c\src\wolfSSL\wolfcrypt\src/asn.c **** 
1246:..\acn-sdk-c\src\wolfSSL\wolfcrypt\src/asn.c **** static int CaviumRsaPrivateKeyDecode(const byte* input, word32* inOutIdx,
1247:..\acn-sdk-c\src\wolfSSL\wolfcrypt\src/asn.c ****                                      RsaKey* key, word32 inSz)
1248:..\acn-sdk-c\src\wolfSSL\wolfcrypt\src/asn.c **** {
1249:..\acn-sdk-c\src\wolfSSL\wolfcrypt\src/asn.c ****     int   version, length;
1250:..\acn-sdk-c\src\wolfSSL\wolfcrypt\src/asn.c ****     void* h = key->heap;
1251:..\acn-sdk-c\src\wolfSSL\wolfcrypt\src/asn.c **** 
1252:..\acn-sdk-c\src\wolfSSL\wolfcrypt\src/asn.c ****     if (GetSequence(input, inOutIdx, &length, inSz) < 0)
1253:..\acn-sdk-c\src\wolfSSL\wolfcrypt\src/asn.c ****         return ASN_PARSE_E;
1254:..\acn-sdk-c\src\wolfSSL\wolfcrypt\src/asn.c **** 
1255:..\acn-sdk-c\src\wolfSSL\wolfcrypt\src/asn.c ****     if (GetMyVersion(input, inOutIdx, &version) < 0)
1256:..\acn-sdk-c\src\wolfSSL\wolfcrypt\src/asn.c ****         return ASN_PARSE_E;
1257:..\acn-sdk-c\src\wolfSSL\wolfcrypt\src/asn.c **** 
1258:..\acn-sdk-c\src\wolfSSL\wolfcrypt\src/asn.c ****     key->type = RSA_PRIVATE;
ARM GAS  C:\Users\ddemidov\AppData\Local\Temp\ccPZV1ly.s 			page 36


1259:..\acn-sdk-c\src\wolfSSL\wolfcrypt\src/asn.c **** 
1260:..\acn-sdk-c\src\wolfSSL\wolfcrypt\src/asn.c ****     if (GetCaviumInt(&key->c_n,  &key->c_nSz,   input, inOutIdx, inSz, h) < 0 ||
1261:..\acn-sdk-c\src\wolfSSL\wolfcrypt\src/asn.c ****         GetCaviumInt(&key->c_e,  &key->c_eSz,   input, inOutIdx, inSz, h) < 0 ||
1262:..\acn-sdk-c\src\wolfSSL\wolfcrypt\src/asn.c ****         GetCaviumInt(&key->c_d,  &key->c_dSz,   input, inOutIdx, inSz, h) < 0 ||
1263:..\acn-sdk-c\src\wolfSSL\wolfcrypt\src/asn.c ****         GetCaviumInt(&key->c_p,  &key->c_pSz,   input, inOutIdx, inSz, h) < 0 ||
1264:..\acn-sdk-c\src\wolfSSL\wolfcrypt\src/asn.c ****         GetCaviumInt(&key->c_q,  &key->c_qSz,   input, inOutIdx, inSz, h) < 0 ||
1265:..\acn-sdk-c\src\wolfSSL\wolfcrypt\src/asn.c ****         GetCaviumInt(&key->c_dP, &key->c_dP_Sz, input, inOutIdx, inSz, h) < 0 ||
1266:..\acn-sdk-c\src\wolfSSL\wolfcrypt\src/asn.c ****         GetCaviumInt(&key->c_dQ, &key->c_dQ_Sz, input, inOutIdx, inSz, h) < 0 ||
1267:..\acn-sdk-c\src\wolfSSL\wolfcrypt\src/asn.c ****         GetCaviumInt(&key->c_u,  &key->c_uSz,   input, inOutIdx, inSz, h) < 0 )
1268:..\acn-sdk-c\src\wolfSSL\wolfcrypt\src/asn.c ****             return ASN_RSA_KEY_E;
1269:..\acn-sdk-c\src\wolfSSL\wolfcrypt\src/asn.c **** 
1270:..\acn-sdk-c\src\wolfSSL\wolfcrypt\src/asn.c ****     return 0;
1271:..\acn-sdk-c\src\wolfSSL\wolfcrypt\src/asn.c **** }
1272:..\acn-sdk-c\src\wolfSSL\wolfcrypt\src/asn.c **** 
1273:..\acn-sdk-c\src\wolfSSL\wolfcrypt\src/asn.c **** 
1274:..\acn-sdk-c\src\wolfSSL\wolfcrypt\src/asn.c **** #endif /* HAVE_CAVIUM */
1275:..\acn-sdk-c\src\wolfSSL\wolfcrypt\src/asn.c **** 
1276:..\acn-sdk-c\src\wolfSSL\wolfcrypt\src/asn.c **** #ifndef HAVE_USER_RSA
1277:..\acn-sdk-c\src\wolfSSL\wolfcrypt\src/asn.c **** int wc_RsaPrivateKeyDecode(const byte* input, word32* inOutIdx, RsaKey* key,
1278:..\acn-sdk-c\src\wolfSSL\wolfcrypt\src/asn.c ****                         word32 inSz)
1279:..\acn-sdk-c\src\wolfSSL\wolfcrypt\src/asn.c **** {
1280:..\acn-sdk-c\src\wolfSSL\wolfcrypt\src/asn.c ****     int    version, length;
1281:..\acn-sdk-c\src\wolfSSL\wolfcrypt\src/asn.c **** 
1282:..\acn-sdk-c\src\wolfSSL\wolfcrypt\src/asn.c **** #ifdef HAVE_CAVIUM
1283:..\acn-sdk-c\src\wolfSSL\wolfcrypt\src/asn.c ****     if (key->magic == WOLFSSL_RSA_CAVIUM_MAGIC)
1284:..\acn-sdk-c\src\wolfSSL\wolfcrypt\src/asn.c ****         return CaviumRsaPrivateKeyDecode(input, inOutIdx, key, inSz);
1285:..\acn-sdk-c\src\wolfSSL\wolfcrypt\src/asn.c **** #endif
1286:..\acn-sdk-c\src\wolfSSL\wolfcrypt\src/asn.c **** 
1287:..\acn-sdk-c\src\wolfSSL\wolfcrypt\src/asn.c ****     if (GetSequence(input, inOutIdx, &length, inSz) < 0)
1288:..\acn-sdk-c\src\wolfSSL\wolfcrypt\src/asn.c ****         return ASN_PARSE_E;
1289:..\acn-sdk-c\src\wolfSSL\wolfcrypt\src/asn.c **** 
1290:..\acn-sdk-c\src\wolfSSL\wolfcrypt\src/asn.c ****     if (GetMyVersion(input, inOutIdx, &version) < 0)
1291:..\acn-sdk-c\src\wolfSSL\wolfcrypt\src/asn.c ****         return ASN_PARSE_E;
1292:..\acn-sdk-c\src\wolfSSL\wolfcrypt\src/asn.c **** 
1293:..\acn-sdk-c\src\wolfSSL\wolfcrypt\src/asn.c ****     key->type = RSA_PRIVATE;
1294:..\acn-sdk-c\src\wolfSSL\wolfcrypt\src/asn.c **** 
1295:..\acn-sdk-c\src\wolfSSL\wolfcrypt\src/asn.c ****     if (GetInt(&key->n,  input, inOutIdx, inSz) < 0 ||
1296:..\acn-sdk-c\src\wolfSSL\wolfcrypt\src/asn.c ****         GetInt(&key->e,  input, inOutIdx, inSz) < 0 ||
1297:..\acn-sdk-c\src\wolfSSL\wolfcrypt\src/asn.c ****         GetInt(&key->d,  input, inOutIdx, inSz) < 0 ||
1298:..\acn-sdk-c\src\wolfSSL\wolfcrypt\src/asn.c ****         GetInt(&key->p,  input, inOutIdx, inSz) < 0 ||
1299:..\acn-sdk-c\src\wolfSSL\wolfcrypt\src/asn.c ****         GetInt(&key->q,  input, inOutIdx, inSz) < 0 ||
1300:..\acn-sdk-c\src\wolfSSL\wolfcrypt\src/asn.c ****         GetInt(&key->dP, input, inOutIdx, inSz) < 0 ||
1301:..\acn-sdk-c\src\wolfSSL\wolfcrypt\src/asn.c ****         GetInt(&key->dQ, input, inOutIdx, inSz) < 0 ||
1302:..\acn-sdk-c\src\wolfSSL\wolfcrypt\src/asn.c ****         GetInt(&key->u,  input, inOutIdx, inSz) < 0 )  return ASN_RSA_KEY_E;
1303:..\acn-sdk-c\src\wolfSSL\wolfcrypt\src/asn.c **** 
1304:..\acn-sdk-c\src\wolfSSL\wolfcrypt\src/asn.c ****     return 0;
1305:..\acn-sdk-c\src\wolfSSL\wolfcrypt\src/asn.c **** }
1306:..\acn-sdk-c\src\wolfSSL\wolfcrypt\src/asn.c **** #endif /* HAVE_USER_RSA */
1307:..\acn-sdk-c\src\wolfSSL\wolfcrypt\src/asn.c **** #endif /* NO_RSA */
1308:..\acn-sdk-c\src\wolfSSL\wolfcrypt\src/asn.c **** 
1309:..\acn-sdk-c\src\wolfSSL\wolfcrypt\src/asn.c **** /* Remove PKCS8 header, move beginning of traditional to beginning of input */
1310:..\acn-sdk-c\src\wolfSSL\wolfcrypt\src/asn.c **** int ToTraditional(byte* input, word32 sz)
1311:..\acn-sdk-c\src\wolfSSL\wolfcrypt\src/asn.c **** {
1312:..\acn-sdk-c\src\wolfSSL\wolfcrypt\src/asn.c ****     word32 inOutIdx = 0, oid;
1313:..\acn-sdk-c\src\wolfSSL\wolfcrypt\src/asn.c ****     int    version, length;
1314:..\acn-sdk-c\src\wolfSSL\wolfcrypt\src/asn.c **** 
1315:..\acn-sdk-c\src\wolfSSL\wolfcrypt\src/asn.c ****     if (GetSequence(input, &inOutIdx, &length, sz) < 0)
ARM GAS  C:\Users\ddemidov\AppData\Local\Temp\ccPZV1ly.s 			page 37


1316:..\acn-sdk-c\src\wolfSSL\wolfcrypt\src/asn.c ****         return ASN_PARSE_E;
1317:..\acn-sdk-c\src\wolfSSL\wolfcrypt\src/asn.c **** 
1318:..\acn-sdk-c\src\wolfSSL\wolfcrypt\src/asn.c ****     if (GetMyVersion(input, &inOutIdx, &version) < 0)
1319:..\acn-sdk-c\src\wolfSSL\wolfcrypt\src/asn.c ****         return ASN_PARSE_E;
1320:..\acn-sdk-c\src\wolfSSL\wolfcrypt\src/asn.c **** 
1321:..\acn-sdk-c\src\wolfSSL\wolfcrypt\src/asn.c ****     if (GetAlgoId(input, &inOutIdx, &oid, sigType, sz) < 0)
1322:..\acn-sdk-c\src\wolfSSL\wolfcrypt\src/asn.c ****         return ASN_PARSE_E;
1323:..\acn-sdk-c\src\wolfSSL\wolfcrypt\src/asn.c **** 
1324:..\acn-sdk-c\src\wolfSSL\wolfcrypt\src/asn.c ****     if (input[inOutIdx] == ASN_OBJECT_ID) {
1325:..\acn-sdk-c\src\wolfSSL\wolfcrypt\src/asn.c ****         /* pkcs8 ecc uses slightly different format */
1326:..\acn-sdk-c\src\wolfSSL\wolfcrypt\src/asn.c ****         inOutIdx++;  /* past id */
1327:..\acn-sdk-c\src\wolfSSL\wolfcrypt\src/asn.c ****         if (GetLength(input, &inOutIdx, &length, sz) < 0)
1328:..\acn-sdk-c\src\wolfSSL\wolfcrypt\src/asn.c ****             return ASN_PARSE_E;
1329:..\acn-sdk-c\src\wolfSSL\wolfcrypt\src/asn.c ****         inOutIdx += length;  /* over sub id, key input will verify */
1330:..\acn-sdk-c\src\wolfSSL\wolfcrypt\src/asn.c ****     }
1331:..\acn-sdk-c\src\wolfSSL\wolfcrypt\src/asn.c **** 
1332:..\acn-sdk-c\src\wolfSSL\wolfcrypt\src/asn.c ****     if (input[inOutIdx++] != ASN_OCTET_STRING)
1333:..\acn-sdk-c\src\wolfSSL\wolfcrypt\src/asn.c ****         return ASN_PARSE_E;
1334:..\acn-sdk-c\src\wolfSSL\wolfcrypt\src/asn.c **** 
1335:..\acn-sdk-c\src\wolfSSL\wolfcrypt\src/asn.c ****     if (GetLength(input, &inOutIdx, &length, sz) < 0)
1336:..\acn-sdk-c\src\wolfSSL\wolfcrypt\src/asn.c ****         return ASN_PARSE_E;
1337:..\acn-sdk-c\src\wolfSSL\wolfcrypt\src/asn.c **** 
1338:..\acn-sdk-c\src\wolfSSL\wolfcrypt\src/asn.c ****     XMEMMOVE(input, input + inOutIdx, length);
1339:..\acn-sdk-c\src\wolfSSL\wolfcrypt\src/asn.c **** 
1340:..\acn-sdk-c\src\wolfSSL\wolfcrypt\src/asn.c ****     return length;
1341:..\acn-sdk-c\src\wolfSSL\wolfcrypt\src/asn.c **** }
1342:..\acn-sdk-c\src\wolfSSL\wolfcrypt\src/asn.c **** 
1343:..\acn-sdk-c\src\wolfSSL\wolfcrypt\src/asn.c **** 
1344:..\acn-sdk-c\src\wolfSSL\wolfcrypt\src/asn.c **** #ifndef NO_PWDBASED
1345:..\acn-sdk-c\src\wolfSSL\wolfcrypt\src/asn.c **** 
1346:..\acn-sdk-c\src\wolfSSL\wolfcrypt\src/asn.c **** /* Check To see if PKCS version algo is supported, set id if it is return 0
1347:..\acn-sdk-c\src\wolfSSL\wolfcrypt\src/asn.c ****    < 0 on error */
1348:..\acn-sdk-c\src\wolfSSL\wolfcrypt\src/asn.c **** static int CheckAlgo(int first, int second, int* id, int* version)
1349:..\acn-sdk-c\src\wolfSSL\wolfcrypt\src/asn.c **** {
1350:..\acn-sdk-c\src\wolfSSL\wolfcrypt\src/asn.c ****     *id      = ALGO_ID_E;
1351:..\acn-sdk-c\src\wolfSSL\wolfcrypt\src/asn.c ****     *version = PKCS5;   /* default */
1352:..\acn-sdk-c\src\wolfSSL\wolfcrypt\src/asn.c **** 
1353:..\acn-sdk-c\src\wolfSSL\wolfcrypt\src/asn.c ****     if (first == 1) {
1354:..\acn-sdk-c\src\wolfSSL\wolfcrypt\src/asn.c ****         switch (second) {
1355:..\acn-sdk-c\src\wolfSSL\wolfcrypt\src/asn.c ****         case 1:
1356:..\acn-sdk-c\src\wolfSSL\wolfcrypt\src/asn.c ****             *id = PBE_SHA1_RC4_128;
1357:..\acn-sdk-c\src\wolfSSL\wolfcrypt\src/asn.c ****             *version = PKCS12;
1358:..\acn-sdk-c\src\wolfSSL\wolfcrypt\src/asn.c ****             return 0;
1359:..\acn-sdk-c\src\wolfSSL\wolfcrypt\src/asn.c ****         case 3:
1360:..\acn-sdk-c\src\wolfSSL\wolfcrypt\src/asn.c ****             *id = PBE_SHA1_DES3;
1361:..\acn-sdk-c\src\wolfSSL\wolfcrypt\src/asn.c ****             *version = PKCS12;
1362:..\acn-sdk-c\src\wolfSSL\wolfcrypt\src/asn.c ****             return 0;
1363:..\acn-sdk-c\src\wolfSSL\wolfcrypt\src/asn.c ****         default:
1364:..\acn-sdk-c\src\wolfSSL\wolfcrypt\src/asn.c ****             return ALGO_ID_E;
1365:..\acn-sdk-c\src\wolfSSL\wolfcrypt\src/asn.c ****         }
1366:..\acn-sdk-c\src\wolfSSL\wolfcrypt\src/asn.c ****     }
1367:..\acn-sdk-c\src\wolfSSL\wolfcrypt\src/asn.c **** 
1368:..\acn-sdk-c\src\wolfSSL\wolfcrypt\src/asn.c ****     if (first != PKCS5)
1369:..\acn-sdk-c\src\wolfSSL\wolfcrypt\src/asn.c ****         return ASN_INPUT_E;  /* VERSION ERROR */
1370:..\acn-sdk-c\src\wolfSSL\wolfcrypt\src/asn.c **** 
1371:..\acn-sdk-c\src\wolfSSL\wolfcrypt\src/asn.c ****     if (second == PBES2) {
1372:..\acn-sdk-c\src\wolfSSL\wolfcrypt\src/asn.c ****         *version = PKCS5v2;
ARM GAS  C:\Users\ddemidov\AppData\Local\Temp\ccPZV1ly.s 			page 38


1373:..\acn-sdk-c\src\wolfSSL\wolfcrypt\src/asn.c ****         return 0;
1374:..\acn-sdk-c\src\wolfSSL\wolfcrypt\src/asn.c ****     }
1375:..\acn-sdk-c\src\wolfSSL\wolfcrypt\src/asn.c **** 
1376:..\acn-sdk-c\src\wolfSSL\wolfcrypt\src/asn.c ****     switch (second) {
1377:..\acn-sdk-c\src\wolfSSL\wolfcrypt\src/asn.c ****     case 3:                   /* see RFC 2898 for ids */
1378:..\acn-sdk-c\src\wolfSSL\wolfcrypt\src/asn.c ****         *id = PBE_MD5_DES;
1379:..\acn-sdk-c\src\wolfSSL\wolfcrypt\src/asn.c ****         return 0;
1380:..\acn-sdk-c\src\wolfSSL\wolfcrypt\src/asn.c ****     case 10:
1381:..\acn-sdk-c\src\wolfSSL\wolfcrypt\src/asn.c ****         *id = PBE_SHA1_DES;
1382:..\acn-sdk-c\src\wolfSSL\wolfcrypt\src/asn.c ****         return 0;
1383:..\acn-sdk-c\src\wolfSSL\wolfcrypt\src/asn.c ****     default:
1384:..\acn-sdk-c\src\wolfSSL\wolfcrypt\src/asn.c ****         return ALGO_ID_E;
1385:..\acn-sdk-c\src\wolfSSL\wolfcrypt\src/asn.c **** 
1386:..\acn-sdk-c\src\wolfSSL\wolfcrypt\src/asn.c ****     }
1387:..\acn-sdk-c\src\wolfSSL\wolfcrypt\src/asn.c **** }
1388:..\acn-sdk-c\src\wolfSSL\wolfcrypt\src/asn.c **** 
1389:..\acn-sdk-c\src\wolfSSL\wolfcrypt\src/asn.c **** 
1390:..\acn-sdk-c\src\wolfSSL\wolfcrypt\src/asn.c **** /* Check To see if PKCS v2 algo is supported, set id if it is return 0
1391:..\acn-sdk-c\src\wolfSSL\wolfcrypt\src/asn.c ****    < 0 on error */
1392:..\acn-sdk-c\src\wolfSSL\wolfcrypt\src/asn.c **** static int CheckAlgoV2(int oid, int* id)
1393:..\acn-sdk-c\src\wolfSSL\wolfcrypt\src/asn.c **** {
1394:..\acn-sdk-c\src\wolfSSL\wolfcrypt\src/asn.c ****     switch (oid) {
1395:..\acn-sdk-c\src\wolfSSL\wolfcrypt\src/asn.c ****     case 69:
1396:..\acn-sdk-c\src\wolfSSL\wolfcrypt\src/asn.c ****         *id = PBE_SHA1_DES;
1397:..\acn-sdk-c\src\wolfSSL\wolfcrypt\src/asn.c ****         return 0;
1398:..\acn-sdk-c\src\wolfSSL\wolfcrypt\src/asn.c ****     case 652:
1399:..\acn-sdk-c\src\wolfSSL\wolfcrypt\src/asn.c ****         *id = PBE_SHA1_DES3;
1400:..\acn-sdk-c\src\wolfSSL\wolfcrypt\src/asn.c ****         return 0;
1401:..\acn-sdk-c\src\wolfSSL\wolfcrypt\src/asn.c ****     default:
1402:..\acn-sdk-c\src\wolfSSL\wolfcrypt\src/asn.c ****         return ALGO_ID_E;
1403:..\acn-sdk-c\src\wolfSSL\wolfcrypt\src/asn.c **** 
1404:..\acn-sdk-c\src\wolfSSL\wolfcrypt\src/asn.c ****     }
1405:..\acn-sdk-c\src\wolfSSL\wolfcrypt\src/asn.c **** }
1406:..\acn-sdk-c\src\wolfSSL\wolfcrypt\src/asn.c **** 
1407:..\acn-sdk-c\src\wolfSSL\wolfcrypt\src/asn.c **** 
1408:..\acn-sdk-c\src\wolfSSL\wolfcrypt\src/asn.c **** /* Decrypt input in place from parameters based on id */
1409:..\acn-sdk-c\src\wolfSSL\wolfcrypt\src/asn.c **** static int DecryptKey(const char* password, int passwordSz, byte* salt,
1410:..\acn-sdk-c\src\wolfSSL\wolfcrypt\src/asn.c ****                       int saltSz, int iterations, int id, byte* input,
1411:..\acn-sdk-c\src\wolfSSL\wolfcrypt\src/asn.c ****                       int length, int version, byte* cbcIv)
1412:..\acn-sdk-c\src\wolfSSL\wolfcrypt\src/asn.c **** {
1413:..\acn-sdk-c\src\wolfSSL\wolfcrypt\src/asn.c ****     int typeH;
1414:..\acn-sdk-c\src\wolfSSL\wolfcrypt\src/asn.c ****     int derivedLen;
1415:..\acn-sdk-c\src\wolfSSL\wolfcrypt\src/asn.c ****     int decryptionType;
1416:..\acn-sdk-c\src\wolfSSL\wolfcrypt\src/asn.c ****     int ret = 0;
1417:..\acn-sdk-c\src\wolfSSL\wolfcrypt\src/asn.c **** #ifdef WOLFSSL_SMALL_STACK
1418:..\acn-sdk-c\src\wolfSSL\wolfcrypt\src/asn.c ****     byte* key;
1419:..\acn-sdk-c\src\wolfSSL\wolfcrypt\src/asn.c **** #else
1420:..\acn-sdk-c\src\wolfSSL\wolfcrypt\src/asn.c ****     byte key[MAX_KEY_SIZE];
1421:..\acn-sdk-c\src\wolfSSL\wolfcrypt\src/asn.c **** #endif
1422:..\acn-sdk-c\src\wolfSSL\wolfcrypt\src/asn.c **** 
1423:..\acn-sdk-c\src\wolfSSL\wolfcrypt\src/asn.c ****     (void)input;
1424:..\acn-sdk-c\src\wolfSSL\wolfcrypt\src/asn.c ****     (void)length;
1425:..\acn-sdk-c\src\wolfSSL\wolfcrypt\src/asn.c **** 
1426:..\acn-sdk-c\src\wolfSSL\wolfcrypt\src/asn.c ****     switch (id) {
1427:..\acn-sdk-c\src\wolfSSL\wolfcrypt\src/asn.c ****         case PBE_MD5_DES:
1428:..\acn-sdk-c\src\wolfSSL\wolfcrypt\src/asn.c ****             typeH = MD5;
1429:..\acn-sdk-c\src\wolfSSL\wolfcrypt\src/asn.c ****             derivedLen = 16;           /* may need iv for v1.5 */
ARM GAS  C:\Users\ddemidov\AppData\Local\Temp\ccPZV1ly.s 			page 39


1430:..\acn-sdk-c\src\wolfSSL\wolfcrypt\src/asn.c ****             decryptionType = DES_TYPE;
1431:..\acn-sdk-c\src\wolfSSL\wolfcrypt\src/asn.c ****             break;
1432:..\acn-sdk-c\src\wolfSSL\wolfcrypt\src/asn.c **** 
1433:..\acn-sdk-c\src\wolfSSL\wolfcrypt\src/asn.c ****         case PBE_SHA1_DES:
1434:..\acn-sdk-c\src\wolfSSL\wolfcrypt\src/asn.c ****             typeH = SHA;
1435:..\acn-sdk-c\src\wolfSSL\wolfcrypt\src/asn.c ****             derivedLen = 16;           /* may need iv for v1.5 */
1436:..\acn-sdk-c\src\wolfSSL\wolfcrypt\src/asn.c ****             decryptionType = DES_TYPE;
1437:..\acn-sdk-c\src\wolfSSL\wolfcrypt\src/asn.c ****             break;
1438:..\acn-sdk-c\src\wolfSSL\wolfcrypt\src/asn.c **** 
1439:..\acn-sdk-c\src\wolfSSL\wolfcrypt\src/asn.c ****         case PBE_SHA1_DES3:
1440:..\acn-sdk-c\src\wolfSSL\wolfcrypt\src/asn.c ****             typeH = SHA;
1441:..\acn-sdk-c\src\wolfSSL\wolfcrypt\src/asn.c ****             derivedLen = 32;           /* may need iv for v1.5 */
1442:..\acn-sdk-c\src\wolfSSL\wolfcrypt\src/asn.c ****             decryptionType = DES3_TYPE;
1443:..\acn-sdk-c\src\wolfSSL\wolfcrypt\src/asn.c ****             break;
1444:..\acn-sdk-c\src\wolfSSL\wolfcrypt\src/asn.c **** 
1445:..\acn-sdk-c\src\wolfSSL\wolfcrypt\src/asn.c ****         case PBE_SHA1_RC4_128:
1446:..\acn-sdk-c\src\wolfSSL\wolfcrypt\src/asn.c ****             typeH = SHA;
1447:..\acn-sdk-c\src\wolfSSL\wolfcrypt\src/asn.c ****             derivedLen = 16;
1448:..\acn-sdk-c\src\wolfSSL\wolfcrypt\src/asn.c ****             decryptionType = RC4_TYPE;
1449:..\acn-sdk-c\src\wolfSSL\wolfcrypt\src/asn.c ****             break;
1450:..\acn-sdk-c\src\wolfSSL\wolfcrypt\src/asn.c **** 
1451:..\acn-sdk-c\src\wolfSSL\wolfcrypt\src/asn.c ****         default:
1452:..\acn-sdk-c\src\wolfSSL\wolfcrypt\src/asn.c ****             return ALGO_ID_E;
1453:..\acn-sdk-c\src\wolfSSL\wolfcrypt\src/asn.c ****     }
1454:..\acn-sdk-c\src\wolfSSL\wolfcrypt\src/asn.c **** 
1455:..\acn-sdk-c\src\wolfSSL\wolfcrypt\src/asn.c **** #ifdef WOLFSSL_SMALL_STACK
1456:..\acn-sdk-c\src\wolfSSL\wolfcrypt\src/asn.c ****     key = (byte*)XMALLOC(MAX_KEY_SIZE, NULL, DYNAMIC_TYPE_TMP_BUFFER);
1457:..\acn-sdk-c\src\wolfSSL\wolfcrypt\src/asn.c ****     if (key == NULL)
1458:..\acn-sdk-c\src\wolfSSL\wolfcrypt\src/asn.c ****         return MEMORY_E;
1459:..\acn-sdk-c\src\wolfSSL\wolfcrypt\src/asn.c **** #endif
1460:..\acn-sdk-c\src\wolfSSL\wolfcrypt\src/asn.c **** 
1461:..\acn-sdk-c\src\wolfSSL\wolfcrypt\src/asn.c ****     if (version == PKCS5v2)
1462:..\acn-sdk-c\src\wolfSSL\wolfcrypt\src/asn.c ****         ret = wc_PBKDF2(key, (byte*)password, passwordSz,
1463:..\acn-sdk-c\src\wolfSSL\wolfcrypt\src/asn.c ****                         salt, saltSz, iterations, derivedLen, typeH);
1464:..\acn-sdk-c\src\wolfSSL\wolfcrypt\src/asn.c **** #ifndef NO_SHA
1465:..\acn-sdk-c\src\wolfSSL\wolfcrypt\src/asn.c ****     else if (version == PKCS5)
1466:..\acn-sdk-c\src\wolfSSL\wolfcrypt\src/asn.c ****         ret = wc_PBKDF1(key, (byte*)password, passwordSz,
1467:..\acn-sdk-c\src\wolfSSL\wolfcrypt\src/asn.c ****                         salt, saltSz, iterations, derivedLen, typeH);
1468:..\acn-sdk-c\src\wolfSSL\wolfcrypt\src/asn.c **** #endif
1469:..\acn-sdk-c\src\wolfSSL\wolfcrypt\src/asn.c ****     else if (version == PKCS12) {
1470:..\acn-sdk-c\src\wolfSSL\wolfcrypt\src/asn.c ****         int  i, idx = 0;
1471:..\acn-sdk-c\src\wolfSSL\wolfcrypt\src/asn.c ****         byte unicodePasswd[MAX_UNICODE_SZ];
1472:..\acn-sdk-c\src\wolfSSL\wolfcrypt\src/asn.c **** 
1473:..\acn-sdk-c\src\wolfSSL\wolfcrypt\src/asn.c ****         if ( (passwordSz * 2 + 2) > (int)sizeof(unicodePasswd)) {
1474:..\acn-sdk-c\src\wolfSSL\wolfcrypt\src/asn.c **** #ifdef WOLFSSL_SMALL_STACK
1475:..\acn-sdk-c\src\wolfSSL\wolfcrypt\src/asn.c ****             XFREE(key, NULL, DYNAMIC_TYPE_TMP_BUFFER);
1476:..\acn-sdk-c\src\wolfSSL\wolfcrypt\src/asn.c **** #endif
1477:..\acn-sdk-c\src\wolfSSL\wolfcrypt\src/asn.c ****             return UNICODE_SIZE_E;
1478:..\acn-sdk-c\src\wolfSSL\wolfcrypt\src/asn.c ****         }
1479:..\acn-sdk-c\src\wolfSSL\wolfcrypt\src/asn.c **** 
1480:..\acn-sdk-c\src\wolfSSL\wolfcrypt\src/asn.c ****         for (i = 0; i < passwordSz; i++) {
1481:..\acn-sdk-c\src\wolfSSL\wolfcrypt\src/asn.c ****             unicodePasswd[idx++] = 0x00;
1482:..\acn-sdk-c\src\wolfSSL\wolfcrypt\src/asn.c ****             unicodePasswd[idx++] = (byte)password[i];
1483:..\acn-sdk-c\src\wolfSSL\wolfcrypt\src/asn.c ****         }
1484:..\acn-sdk-c\src\wolfSSL\wolfcrypt\src/asn.c ****         /* add trailing NULL */
1485:..\acn-sdk-c\src\wolfSSL\wolfcrypt\src/asn.c ****         unicodePasswd[idx++] = 0x00;
1486:..\acn-sdk-c\src\wolfSSL\wolfcrypt\src/asn.c ****         unicodePasswd[idx++] = 0x00;
ARM GAS  C:\Users\ddemidov\AppData\Local\Temp\ccPZV1ly.s 			page 40


1487:..\acn-sdk-c\src\wolfSSL\wolfcrypt\src/asn.c **** 
1488:..\acn-sdk-c\src\wolfSSL\wolfcrypt\src/asn.c ****         ret =  wc_PKCS12_PBKDF(key, unicodePasswd, idx, salt, saltSz,
1489:..\acn-sdk-c\src\wolfSSL\wolfcrypt\src/asn.c ****                             iterations, derivedLen, typeH, 1);
1490:..\acn-sdk-c\src\wolfSSL\wolfcrypt\src/asn.c ****         if (decryptionType != RC4_TYPE)
1491:..\acn-sdk-c\src\wolfSSL\wolfcrypt\src/asn.c ****             ret += wc_PKCS12_PBKDF(cbcIv, unicodePasswd, idx, salt, saltSz,
1492:..\acn-sdk-c\src\wolfSSL\wolfcrypt\src/asn.c ****                                 iterations, 8, typeH, 2);
1493:..\acn-sdk-c\src\wolfSSL\wolfcrypt\src/asn.c ****     }
1494:..\acn-sdk-c\src\wolfSSL\wolfcrypt\src/asn.c ****     else {
1495:..\acn-sdk-c\src\wolfSSL\wolfcrypt\src/asn.c **** #ifdef WOLFSSL_SMALL_STACK
1496:..\acn-sdk-c\src\wolfSSL\wolfcrypt\src/asn.c ****         XFREE(key, NULL, DYNAMIC_TYPE_TMP_BUFFER);
1497:..\acn-sdk-c\src\wolfSSL\wolfcrypt\src/asn.c **** #endif
1498:..\acn-sdk-c\src\wolfSSL\wolfcrypt\src/asn.c ****         return ALGO_ID_E;
1499:..\acn-sdk-c\src\wolfSSL\wolfcrypt\src/asn.c ****     }
1500:..\acn-sdk-c\src\wolfSSL\wolfcrypt\src/asn.c **** 
1501:..\acn-sdk-c\src\wolfSSL\wolfcrypt\src/asn.c ****     if (ret != 0) {
1502:..\acn-sdk-c\src\wolfSSL\wolfcrypt\src/asn.c **** #ifdef WOLFSSL_SMALL_STACK
1503:..\acn-sdk-c\src\wolfSSL\wolfcrypt\src/asn.c ****         XFREE(key, NULL, DYNAMIC_TYPE_TMP_BUFFER);
1504:..\acn-sdk-c\src\wolfSSL\wolfcrypt\src/asn.c **** #endif
1505:..\acn-sdk-c\src\wolfSSL\wolfcrypt\src/asn.c ****         return ret;
1506:..\acn-sdk-c\src\wolfSSL\wolfcrypt\src/asn.c ****     }
1507:..\acn-sdk-c\src\wolfSSL\wolfcrypt\src/asn.c **** 
1508:..\acn-sdk-c\src\wolfSSL\wolfcrypt\src/asn.c ****     switch (decryptionType) {
1509:..\acn-sdk-c\src\wolfSSL\wolfcrypt\src/asn.c **** #ifndef NO_DES3
1510:..\acn-sdk-c\src\wolfSSL\wolfcrypt\src/asn.c ****         case DES_TYPE:
1511:..\acn-sdk-c\src\wolfSSL\wolfcrypt\src/asn.c ****         {
1512:..\acn-sdk-c\src\wolfSSL\wolfcrypt\src/asn.c ****             Des    dec;
1513:..\acn-sdk-c\src\wolfSSL\wolfcrypt\src/asn.c ****             byte*  desIv = key + 8;
1514:..\acn-sdk-c\src\wolfSSL\wolfcrypt\src/asn.c **** 
1515:..\acn-sdk-c\src\wolfSSL\wolfcrypt\src/asn.c ****             if (version == PKCS5v2 || version == PKCS12)
1516:..\acn-sdk-c\src\wolfSSL\wolfcrypt\src/asn.c ****                 desIv = cbcIv;
1517:..\acn-sdk-c\src\wolfSSL\wolfcrypt\src/asn.c **** 
1518:..\acn-sdk-c\src\wolfSSL\wolfcrypt\src/asn.c ****             ret = wc_Des_SetKey(&dec, key, desIv, DES_DECRYPTION);
1519:..\acn-sdk-c\src\wolfSSL\wolfcrypt\src/asn.c ****             if (ret != 0) {
1520:..\acn-sdk-c\src\wolfSSL\wolfcrypt\src/asn.c **** #ifdef WOLFSSL_SMALL_STACK
1521:..\acn-sdk-c\src\wolfSSL\wolfcrypt\src/asn.c ****                 XFREE(key, NULL, DYNAMIC_TYPE_TMP_BUFFER);
1522:..\acn-sdk-c\src\wolfSSL\wolfcrypt\src/asn.c **** #endif
1523:..\acn-sdk-c\src\wolfSSL\wolfcrypt\src/asn.c ****                 return ret;
1524:..\acn-sdk-c\src\wolfSSL\wolfcrypt\src/asn.c ****             }
1525:..\acn-sdk-c\src\wolfSSL\wolfcrypt\src/asn.c **** 
1526:..\acn-sdk-c\src\wolfSSL\wolfcrypt\src/asn.c ****             wc_Des_CbcDecrypt(&dec, input, input, length);
1527:..\acn-sdk-c\src\wolfSSL\wolfcrypt\src/asn.c ****             break;
1528:..\acn-sdk-c\src\wolfSSL\wolfcrypt\src/asn.c ****         }
1529:..\acn-sdk-c\src\wolfSSL\wolfcrypt\src/asn.c **** 
1530:..\acn-sdk-c\src\wolfSSL\wolfcrypt\src/asn.c ****         case DES3_TYPE:
1531:..\acn-sdk-c\src\wolfSSL\wolfcrypt\src/asn.c ****         {
1532:..\acn-sdk-c\src\wolfSSL\wolfcrypt\src/asn.c ****             Des3   dec;
1533:..\acn-sdk-c\src\wolfSSL\wolfcrypt\src/asn.c ****             byte*  desIv = key + 24;
1534:..\acn-sdk-c\src\wolfSSL\wolfcrypt\src/asn.c **** 
1535:..\acn-sdk-c\src\wolfSSL\wolfcrypt\src/asn.c ****             if (version == PKCS5v2 || version == PKCS12)
1536:..\acn-sdk-c\src\wolfSSL\wolfcrypt\src/asn.c ****                 desIv = cbcIv;
1537:..\acn-sdk-c\src\wolfSSL\wolfcrypt\src/asn.c ****             ret = wc_Des3_SetKey(&dec, key, desIv, DES_DECRYPTION);
1538:..\acn-sdk-c\src\wolfSSL\wolfcrypt\src/asn.c ****             if (ret != 0) {
1539:..\acn-sdk-c\src\wolfSSL\wolfcrypt\src/asn.c **** #ifdef WOLFSSL_SMALL_STACK
1540:..\acn-sdk-c\src\wolfSSL\wolfcrypt\src/asn.c ****                 XFREE(key, NULL, DYNAMIC_TYPE_TMP_BUFFER);
1541:..\acn-sdk-c\src\wolfSSL\wolfcrypt\src/asn.c **** #endif
1542:..\acn-sdk-c\src\wolfSSL\wolfcrypt\src/asn.c ****                 return ret;
1543:..\acn-sdk-c\src\wolfSSL\wolfcrypt\src/asn.c ****             }
ARM GAS  C:\Users\ddemidov\AppData\Local\Temp\ccPZV1ly.s 			page 41


1544:..\acn-sdk-c\src\wolfSSL\wolfcrypt\src/asn.c ****             ret = wc_Des3_CbcDecrypt(&dec, input, input, length);
1545:..\acn-sdk-c\src\wolfSSL\wolfcrypt\src/asn.c ****             if (ret != 0) {
1546:..\acn-sdk-c\src\wolfSSL\wolfcrypt\src/asn.c **** #ifdef WOLFSSL_SMALL_STACK
1547:..\acn-sdk-c\src\wolfSSL\wolfcrypt\src/asn.c ****                 XFREE(key, NULL, DYNAMIC_TYPE_TMP_BUFFER);
1548:..\acn-sdk-c\src\wolfSSL\wolfcrypt\src/asn.c **** #endif
1549:..\acn-sdk-c\src\wolfSSL\wolfcrypt\src/asn.c ****                 return ret;
1550:..\acn-sdk-c\src\wolfSSL\wolfcrypt\src/asn.c ****             }
1551:..\acn-sdk-c\src\wolfSSL\wolfcrypt\src/asn.c ****             break;
1552:..\acn-sdk-c\src\wolfSSL\wolfcrypt\src/asn.c ****         }
1553:..\acn-sdk-c\src\wolfSSL\wolfcrypt\src/asn.c **** #endif
1554:..\acn-sdk-c\src\wolfSSL\wolfcrypt\src/asn.c **** #ifndef NO_RC4
1555:..\acn-sdk-c\src\wolfSSL\wolfcrypt\src/asn.c ****         case RC4_TYPE:
1556:..\acn-sdk-c\src\wolfSSL\wolfcrypt\src/asn.c ****         {
1557:..\acn-sdk-c\src\wolfSSL\wolfcrypt\src/asn.c ****             Arc4    dec;
1558:..\acn-sdk-c\src\wolfSSL\wolfcrypt\src/asn.c **** 
1559:..\acn-sdk-c\src\wolfSSL\wolfcrypt\src/asn.c ****             wc_Arc4SetKey(&dec, key, derivedLen);
1560:..\acn-sdk-c\src\wolfSSL\wolfcrypt\src/asn.c ****             wc_Arc4Process(&dec, input, input, length);
1561:..\acn-sdk-c\src\wolfSSL\wolfcrypt\src/asn.c ****             break;
1562:..\acn-sdk-c\src\wolfSSL\wolfcrypt\src/asn.c ****         }
1563:..\acn-sdk-c\src\wolfSSL\wolfcrypt\src/asn.c **** #endif
1564:..\acn-sdk-c\src\wolfSSL\wolfcrypt\src/asn.c **** 
1565:..\acn-sdk-c\src\wolfSSL\wolfcrypt\src/asn.c ****         default:
1566:..\acn-sdk-c\src\wolfSSL\wolfcrypt\src/asn.c **** #ifdef WOLFSSL_SMALL_STACK
1567:..\acn-sdk-c\src\wolfSSL\wolfcrypt\src/asn.c ****             XFREE(key, NULL, DYNAMIC_TYPE_TMP_BUFFER);
1568:..\acn-sdk-c\src\wolfSSL\wolfcrypt\src/asn.c **** #endif
1569:..\acn-sdk-c\src\wolfSSL\wolfcrypt\src/asn.c ****             return ALGO_ID_E;
1570:..\acn-sdk-c\src\wolfSSL\wolfcrypt\src/asn.c ****     }
1571:..\acn-sdk-c\src\wolfSSL\wolfcrypt\src/asn.c **** 
1572:..\acn-sdk-c\src\wolfSSL\wolfcrypt\src/asn.c **** #ifdef WOLFSSL_SMALL_STACK
1573:..\acn-sdk-c\src\wolfSSL\wolfcrypt\src/asn.c ****     XFREE(key, NULL, DYNAMIC_TYPE_TMP_BUFFER);
1574:..\acn-sdk-c\src\wolfSSL\wolfcrypt\src/asn.c **** #endif
1575:..\acn-sdk-c\src\wolfSSL\wolfcrypt\src/asn.c **** 
1576:..\acn-sdk-c\src\wolfSSL\wolfcrypt\src/asn.c ****     return 0;
1577:..\acn-sdk-c\src\wolfSSL\wolfcrypt\src/asn.c **** }
1578:..\acn-sdk-c\src\wolfSSL\wolfcrypt\src/asn.c **** 
1579:..\acn-sdk-c\src\wolfSSL\wolfcrypt\src/asn.c **** 
1580:..\acn-sdk-c\src\wolfSSL\wolfcrypt\src/asn.c **** /* Remove Encrypted PKCS8 header, move beginning of traditional to beginning
1581:..\acn-sdk-c\src\wolfSSL\wolfcrypt\src/asn.c ****    of input */
1582:..\acn-sdk-c\src\wolfSSL\wolfcrypt\src/asn.c **** int ToTraditionalEnc(byte* input, word32 sz,const char* password,int passwordSz)
1583:..\acn-sdk-c\src\wolfSSL\wolfcrypt\src/asn.c **** {
1584:..\acn-sdk-c\src\wolfSSL\wolfcrypt\src/asn.c ****     word32 inOutIdx = 0, oid;
1585:..\acn-sdk-c\src\wolfSSL\wolfcrypt\src/asn.c ****     int    first, second, length, version, saltSz, id;
1586:..\acn-sdk-c\src\wolfSSL\wolfcrypt\src/asn.c ****     int    iterations = 0;
1587:..\acn-sdk-c\src\wolfSSL\wolfcrypt\src/asn.c **** #ifdef WOLFSSL_SMALL_STACK
1588:..\acn-sdk-c\src\wolfSSL\wolfcrypt\src/asn.c ****     byte*  salt = NULL;
1589:..\acn-sdk-c\src\wolfSSL\wolfcrypt\src/asn.c ****     byte*  cbcIv = NULL;
1590:..\acn-sdk-c\src\wolfSSL\wolfcrypt\src/asn.c **** #else
1591:..\acn-sdk-c\src\wolfSSL\wolfcrypt\src/asn.c ****     byte   salt[MAX_SALT_SIZE];
1592:..\acn-sdk-c\src\wolfSSL\wolfcrypt\src/asn.c ****     byte   cbcIv[MAX_IV_SIZE];
1593:..\acn-sdk-c\src\wolfSSL\wolfcrypt\src/asn.c **** #endif
1594:..\acn-sdk-c\src\wolfSSL\wolfcrypt\src/asn.c **** 
1595:..\acn-sdk-c\src\wolfSSL\wolfcrypt\src/asn.c ****     if (GetSequence(input, &inOutIdx, &length, sz) < 0)
1596:..\acn-sdk-c\src\wolfSSL\wolfcrypt\src/asn.c ****         return ASN_PARSE_E;
1597:..\acn-sdk-c\src\wolfSSL\wolfcrypt\src/asn.c **** 
1598:..\acn-sdk-c\src\wolfSSL\wolfcrypt\src/asn.c ****     if (GetAlgoId(input, &inOutIdx, &oid, sigType, sz) < 0)
1599:..\acn-sdk-c\src\wolfSSL\wolfcrypt\src/asn.c ****         return ASN_PARSE_E;
1600:..\acn-sdk-c\src\wolfSSL\wolfcrypt\src/asn.c **** 
ARM GAS  C:\Users\ddemidov\AppData\Local\Temp\ccPZV1ly.s 			page 42


1601:..\acn-sdk-c\src\wolfSSL\wolfcrypt\src/asn.c ****     first  = input[inOutIdx - 2];   /* PKCS version always 2nd to last byte */
1602:..\acn-sdk-c\src\wolfSSL\wolfcrypt\src/asn.c ****     second = input[inOutIdx - 1];   /* version.algo, algo id last byte */
1603:..\acn-sdk-c\src\wolfSSL\wolfcrypt\src/asn.c **** 
1604:..\acn-sdk-c\src\wolfSSL\wolfcrypt\src/asn.c ****     if (CheckAlgo(first, second, &id, &version) < 0)
1605:..\acn-sdk-c\src\wolfSSL\wolfcrypt\src/asn.c ****         return ASN_INPUT_E;  /* Algo ID error */
1606:..\acn-sdk-c\src\wolfSSL\wolfcrypt\src/asn.c **** 
1607:..\acn-sdk-c\src\wolfSSL\wolfcrypt\src/asn.c ****     if (version == PKCS5v2) {
1608:..\acn-sdk-c\src\wolfSSL\wolfcrypt\src/asn.c **** 
1609:..\acn-sdk-c\src\wolfSSL\wolfcrypt\src/asn.c ****         if (GetSequence(input, &inOutIdx, &length, sz) < 0)
1610:..\acn-sdk-c\src\wolfSSL\wolfcrypt\src/asn.c ****             return ASN_PARSE_E;
1611:..\acn-sdk-c\src\wolfSSL\wolfcrypt\src/asn.c **** 
1612:..\acn-sdk-c\src\wolfSSL\wolfcrypt\src/asn.c ****         if (GetAlgoId(input, &inOutIdx, &oid, kdfType, sz) < 0)
1613:..\acn-sdk-c\src\wolfSSL\wolfcrypt\src/asn.c ****             return ASN_PARSE_E;
1614:..\acn-sdk-c\src\wolfSSL\wolfcrypt\src/asn.c **** 
1615:..\acn-sdk-c\src\wolfSSL\wolfcrypt\src/asn.c ****         if (oid != PBKDF2_OID)
1616:..\acn-sdk-c\src\wolfSSL\wolfcrypt\src/asn.c ****             return ASN_PARSE_E;
1617:..\acn-sdk-c\src\wolfSSL\wolfcrypt\src/asn.c ****     }
1618:..\acn-sdk-c\src\wolfSSL\wolfcrypt\src/asn.c **** 
1619:..\acn-sdk-c\src\wolfSSL\wolfcrypt\src/asn.c ****     if (GetSequence(input, &inOutIdx, &length, sz) < 0)
1620:..\acn-sdk-c\src\wolfSSL\wolfcrypt\src/asn.c ****         return ASN_PARSE_E;
1621:..\acn-sdk-c\src\wolfSSL\wolfcrypt\src/asn.c **** 
1622:..\acn-sdk-c\src\wolfSSL\wolfcrypt\src/asn.c ****     if (input[inOutIdx++] != ASN_OCTET_STRING)
1623:..\acn-sdk-c\src\wolfSSL\wolfcrypt\src/asn.c ****         return ASN_PARSE_E;
1624:..\acn-sdk-c\src\wolfSSL\wolfcrypt\src/asn.c **** 
1625:..\acn-sdk-c\src\wolfSSL\wolfcrypt\src/asn.c ****     if (GetLength(input, &inOutIdx, &saltSz, sz) < 0)
1626:..\acn-sdk-c\src\wolfSSL\wolfcrypt\src/asn.c ****         return ASN_PARSE_E;
1627:..\acn-sdk-c\src\wolfSSL\wolfcrypt\src/asn.c **** 
1628:..\acn-sdk-c\src\wolfSSL\wolfcrypt\src/asn.c ****     if (saltSz > MAX_SALT_SIZE)
1629:..\acn-sdk-c\src\wolfSSL\wolfcrypt\src/asn.c ****         return ASN_PARSE_E;
1630:..\acn-sdk-c\src\wolfSSL\wolfcrypt\src/asn.c **** 
1631:..\acn-sdk-c\src\wolfSSL\wolfcrypt\src/asn.c **** #ifdef WOLFSSL_SMALL_STACK
1632:..\acn-sdk-c\src\wolfSSL\wolfcrypt\src/asn.c ****     salt = (byte*)XMALLOC(MAX_SALT_SIZE, NULL, DYNAMIC_TYPE_TMP_BUFFER);
1633:..\acn-sdk-c\src\wolfSSL\wolfcrypt\src/asn.c ****     if (salt == NULL)
1634:..\acn-sdk-c\src\wolfSSL\wolfcrypt\src/asn.c ****         return MEMORY_E;
1635:..\acn-sdk-c\src\wolfSSL\wolfcrypt\src/asn.c **** #endif
1636:..\acn-sdk-c\src\wolfSSL\wolfcrypt\src/asn.c **** 
1637:..\acn-sdk-c\src\wolfSSL\wolfcrypt\src/asn.c ****     XMEMCPY(salt, &input[inOutIdx], saltSz);
1638:..\acn-sdk-c\src\wolfSSL\wolfcrypt\src/asn.c ****     inOutIdx += saltSz;
1639:..\acn-sdk-c\src\wolfSSL\wolfcrypt\src/asn.c **** 
1640:..\acn-sdk-c\src\wolfSSL\wolfcrypt\src/asn.c ****     if (GetShortInt(input, &inOutIdx, &iterations) < 0) {
1641:..\acn-sdk-c\src\wolfSSL\wolfcrypt\src/asn.c **** #ifdef WOLFSSL_SMALL_STACK
1642:..\acn-sdk-c\src\wolfSSL\wolfcrypt\src/asn.c ****         XFREE(salt,  NULL, DYNAMIC_TYPE_TMP_BUFFER);
1643:..\acn-sdk-c\src\wolfSSL\wolfcrypt\src/asn.c **** #endif
1644:..\acn-sdk-c\src\wolfSSL\wolfcrypt\src/asn.c ****         return ASN_PARSE_E;
1645:..\acn-sdk-c\src\wolfSSL\wolfcrypt\src/asn.c ****     }
1646:..\acn-sdk-c\src\wolfSSL\wolfcrypt\src/asn.c **** 
1647:..\acn-sdk-c\src\wolfSSL\wolfcrypt\src/asn.c **** #ifdef WOLFSSL_SMALL_STACK
1648:..\acn-sdk-c\src\wolfSSL\wolfcrypt\src/asn.c ****     cbcIv = (byte*)XMALLOC(MAX_IV_SIZE, NULL, DYNAMIC_TYPE_TMP_BUFFER);
1649:..\acn-sdk-c\src\wolfSSL\wolfcrypt\src/asn.c ****     if (cbcIv == NULL) {
1650:..\acn-sdk-c\src\wolfSSL\wolfcrypt\src/asn.c ****         XFREE(salt,  NULL, DYNAMIC_TYPE_TMP_BUFFER);
1651:..\acn-sdk-c\src\wolfSSL\wolfcrypt\src/asn.c ****         return MEMORY_E;
1652:..\acn-sdk-c\src\wolfSSL\wolfcrypt\src/asn.c ****     }
1653:..\acn-sdk-c\src\wolfSSL\wolfcrypt\src/asn.c **** #endif
1654:..\acn-sdk-c\src\wolfSSL\wolfcrypt\src/asn.c **** 
1655:..\acn-sdk-c\src\wolfSSL\wolfcrypt\src/asn.c ****     if (version == PKCS5v2) {
1656:..\acn-sdk-c\src\wolfSSL\wolfcrypt\src/asn.c ****         /* get encryption algo */
1657:..\acn-sdk-c\src\wolfSSL\wolfcrypt\src/asn.c ****         /* JOHN: New type. Need a little more research. */
ARM GAS  C:\Users\ddemidov\AppData\Local\Temp\ccPZV1ly.s 			page 43


1658:..\acn-sdk-c\src\wolfSSL\wolfcrypt\src/asn.c ****         if (GetAlgoId(input, &inOutIdx, &oid, blkType, sz) < 0) {
1659:..\acn-sdk-c\src\wolfSSL\wolfcrypt\src/asn.c **** #ifdef WOLFSSL_SMALL_STACK
1660:..\acn-sdk-c\src\wolfSSL\wolfcrypt\src/asn.c ****             XFREE(salt,  NULL, DYNAMIC_TYPE_TMP_BUFFER);
1661:..\acn-sdk-c\src\wolfSSL\wolfcrypt\src/asn.c ****             XFREE(cbcIv, NULL, DYNAMIC_TYPE_TMP_BUFFER);
1662:..\acn-sdk-c\src\wolfSSL\wolfcrypt\src/asn.c **** #endif
1663:..\acn-sdk-c\src\wolfSSL\wolfcrypt\src/asn.c ****             return ASN_PARSE_E;
1664:..\acn-sdk-c\src\wolfSSL\wolfcrypt\src/asn.c ****         }
1665:..\acn-sdk-c\src\wolfSSL\wolfcrypt\src/asn.c **** 
1666:..\acn-sdk-c\src\wolfSSL\wolfcrypt\src/asn.c ****         if (CheckAlgoV2(oid, &id) < 0) {
1667:..\acn-sdk-c\src\wolfSSL\wolfcrypt\src/asn.c **** #ifdef WOLFSSL_SMALL_STACK
1668:..\acn-sdk-c\src\wolfSSL\wolfcrypt\src/asn.c ****             XFREE(salt,  NULL, DYNAMIC_TYPE_TMP_BUFFER);
1669:..\acn-sdk-c\src\wolfSSL\wolfcrypt\src/asn.c ****             XFREE(cbcIv, NULL, DYNAMIC_TYPE_TMP_BUFFER);
1670:..\acn-sdk-c\src\wolfSSL\wolfcrypt\src/asn.c **** #endif
1671:..\acn-sdk-c\src\wolfSSL\wolfcrypt\src/asn.c ****             return ASN_PARSE_E;  /* PKCS v2 algo id error */
1672:..\acn-sdk-c\src\wolfSSL\wolfcrypt\src/asn.c ****         }
1673:..\acn-sdk-c\src\wolfSSL\wolfcrypt\src/asn.c **** 
1674:..\acn-sdk-c\src\wolfSSL\wolfcrypt\src/asn.c ****         if (input[inOutIdx++] != ASN_OCTET_STRING) {
1675:..\acn-sdk-c\src\wolfSSL\wolfcrypt\src/asn.c **** #ifdef WOLFSSL_SMALL_STACK
1676:..\acn-sdk-c\src\wolfSSL\wolfcrypt\src/asn.c ****             XFREE(salt,  NULL, DYNAMIC_TYPE_TMP_BUFFER);
1677:..\acn-sdk-c\src\wolfSSL\wolfcrypt\src/asn.c ****             XFREE(cbcIv, NULL, DYNAMIC_TYPE_TMP_BUFFER);
1678:..\acn-sdk-c\src\wolfSSL\wolfcrypt\src/asn.c **** #endif
1679:..\acn-sdk-c\src\wolfSSL\wolfcrypt\src/asn.c ****             return ASN_PARSE_E;
1680:..\acn-sdk-c\src\wolfSSL\wolfcrypt\src/asn.c ****         }
1681:..\acn-sdk-c\src\wolfSSL\wolfcrypt\src/asn.c **** 
1682:..\acn-sdk-c\src\wolfSSL\wolfcrypt\src/asn.c ****         if (GetLength(input, &inOutIdx, &length, sz) < 0) {
1683:..\acn-sdk-c\src\wolfSSL\wolfcrypt\src/asn.c **** #ifdef WOLFSSL_SMALL_STACK
1684:..\acn-sdk-c\src\wolfSSL\wolfcrypt\src/asn.c ****             XFREE(salt,  NULL, DYNAMIC_TYPE_TMP_BUFFER);
1685:..\acn-sdk-c\src\wolfSSL\wolfcrypt\src/asn.c ****             XFREE(cbcIv, NULL, DYNAMIC_TYPE_TMP_BUFFER);
1686:..\acn-sdk-c\src\wolfSSL\wolfcrypt\src/asn.c **** #endif
1687:..\acn-sdk-c\src\wolfSSL\wolfcrypt\src/asn.c ****             return ASN_PARSE_E;
1688:..\acn-sdk-c\src\wolfSSL\wolfcrypt\src/asn.c ****         }
1689:..\acn-sdk-c\src\wolfSSL\wolfcrypt\src/asn.c **** 
1690:..\acn-sdk-c\src\wolfSSL\wolfcrypt\src/asn.c ****         XMEMCPY(cbcIv, &input[inOutIdx], length);
1691:..\acn-sdk-c\src\wolfSSL\wolfcrypt\src/asn.c ****         inOutIdx += length;
1692:..\acn-sdk-c\src\wolfSSL\wolfcrypt\src/asn.c ****     }
1693:..\acn-sdk-c\src\wolfSSL\wolfcrypt\src/asn.c **** 
1694:..\acn-sdk-c\src\wolfSSL\wolfcrypt\src/asn.c ****     if (input[inOutIdx++] != ASN_OCTET_STRING) {
1695:..\acn-sdk-c\src\wolfSSL\wolfcrypt\src/asn.c **** #ifdef WOLFSSL_SMALL_STACK
1696:..\acn-sdk-c\src\wolfSSL\wolfcrypt\src/asn.c ****         XFREE(salt,  NULL, DYNAMIC_TYPE_TMP_BUFFER);
1697:..\acn-sdk-c\src\wolfSSL\wolfcrypt\src/asn.c ****         XFREE(cbcIv, NULL, DYNAMIC_TYPE_TMP_BUFFER);
1698:..\acn-sdk-c\src\wolfSSL\wolfcrypt\src/asn.c **** #endif
1699:..\acn-sdk-c\src\wolfSSL\wolfcrypt\src/asn.c ****         return ASN_PARSE_E;
1700:..\acn-sdk-c\src\wolfSSL\wolfcrypt\src/asn.c ****     }
1701:..\acn-sdk-c\src\wolfSSL\wolfcrypt\src/asn.c **** 
1702:..\acn-sdk-c\src\wolfSSL\wolfcrypt\src/asn.c ****     if (GetLength(input, &inOutIdx, &length, sz) < 0) {
1703:..\acn-sdk-c\src\wolfSSL\wolfcrypt\src/asn.c **** #ifdef WOLFSSL_SMALL_STACK
1704:..\acn-sdk-c\src\wolfSSL\wolfcrypt\src/asn.c ****         XFREE(salt,  NULL, DYNAMIC_TYPE_TMP_BUFFER);
1705:..\acn-sdk-c\src\wolfSSL\wolfcrypt\src/asn.c ****         XFREE(cbcIv, NULL, DYNAMIC_TYPE_TMP_BUFFER);
1706:..\acn-sdk-c\src\wolfSSL\wolfcrypt\src/asn.c **** #endif
1707:..\acn-sdk-c\src\wolfSSL\wolfcrypt\src/asn.c ****         return ASN_PARSE_E;
1708:..\acn-sdk-c\src\wolfSSL\wolfcrypt\src/asn.c ****     }
1709:..\acn-sdk-c\src\wolfSSL\wolfcrypt\src/asn.c **** 
1710:..\acn-sdk-c\src\wolfSSL\wolfcrypt\src/asn.c ****     if (DecryptKey(password, passwordSz, salt, saltSz, iterations, id,
1711:..\acn-sdk-c\src\wolfSSL\wolfcrypt\src/asn.c ****                    input + inOutIdx, length, version, cbcIv) < 0) {
1712:..\acn-sdk-c\src\wolfSSL\wolfcrypt\src/asn.c **** #ifdef WOLFSSL_SMALL_STACK
1713:..\acn-sdk-c\src\wolfSSL\wolfcrypt\src/asn.c ****         XFREE(salt,  NULL, DYNAMIC_TYPE_TMP_BUFFER);
1714:..\acn-sdk-c\src\wolfSSL\wolfcrypt\src/asn.c ****         XFREE(cbcIv, NULL, DYNAMIC_TYPE_TMP_BUFFER);
ARM GAS  C:\Users\ddemidov\AppData\Local\Temp\ccPZV1ly.s 			page 44


1715:..\acn-sdk-c\src\wolfSSL\wolfcrypt\src/asn.c **** #endif
1716:..\acn-sdk-c\src\wolfSSL\wolfcrypt\src/asn.c ****         return ASN_INPUT_E;  /* decrypt failure */
1717:..\acn-sdk-c\src\wolfSSL\wolfcrypt\src/asn.c ****     }
1718:..\acn-sdk-c\src\wolfSSL\wolfcrypt\src/asn.c **** 
1719:..\acn-sdk-c\src\wolfSSL\wolfcrypt\src/asn.c **** #ifdef WOLFSSL_SMALL_STACK
1720:..\acn-sdk-c\src\wolfSSL\wolfcrypt\src/asn.c ****     XFREE(salt,  NULL, DYNAMIC_TYPE_TMP_BUFFER);
1721:..\acn-sdk-c\src\wolfSSL\wolfcrypt\src/asn.c ****     XFREE(cbcIv, NULL, DYNAMIC_TYPE_TMP_BUFFER);
1722:..\acn-sdk-c\src\wolfSSL\wolfcrypt\src/asn.c **** #endif
1723:..\acn-sdk-c\src\wolfSSL\wolfcrypt\src/asn.c **** 
1724:..\acn-sdk-c\src\wolfSSL\wolfcrypt\src/asn.c ****     XMEMMOVE(input, input + inOutIdx, length);
1725:..\acn-sdk-c\src\wolfSSL\wolfcrypt\src/asn.c ****     return ToTraditional(input, length);
1726:..\acn-sdk-c\src\wolfSSL\wolfcrypt\src/asn.c **** }
1727:..\acn-sdk-c\src\wolfSSL\wolfcrypt\src/asn.c **** 
1728:..\acn-sdk-c\src\wolfSSL\wolfcrypt\src/asn.c **** #endif /* NO_PWDBASED */
1729:..\acn-sdk-c\src\wolfSSL\wolfcrypt\src/asn.c **** 
1730:..\acn-sdk-c\src\wolfSSL\wolfcrypt\src/asn.c **** #ifndef NO_RSA
1731:..\acn-sdk-c\src\wolfSSL\wolfcrypt\src/asn.c **** 
1732:..\acn-sdk-c\src\wolfSSL\wolfcrypt\src/asn.c **** #ifndef HAVE_USER_RSA
1733:..\acn-sdk-c\src\wolfSSL\wolfcrypt\src/asn.c **** int wc_RsaPublicKeyDecode(const byte* input, word32* inOutIdx, RsaKey* key,
1734:..\acn-sdk-c\src\wolfSSL\wolfcrypt\src/asn.c ****                        word32 inSz)
1735:..\acn-sdk-c\src\wolfSSL\wolfcrypt\src/asn.c **** {
1736:..\acn-sdk-c\src\wolfSSL\wolfcrypt\src/asn.c ****     int    length;
1737:..\acn-sdk-c\src\wolfSSL\wolfcrypt\src/asn.c **** 
1738:..\acn-sdk-c\src\wolfSSL\wolfcrypt\src/asn.c ****     if (GetSequence(input, inOutIdx, &length, inSz) < 0)
1739:..\acn-sdk-c\src\wolfSSL\wolfcrypt\src/asn.c ****         return ASN_PARSE_E;
1740:..\acn-sdk-c\src\wolfSSL\wolfcrypt\src/asn.c **** 
1741:..\acn-sdk-c\src\wolfSSL\wolfcrypt\src/asn.c ****     key->type = RSA_PUBLIC;
1742:..\acn-sdk-c\src\wolfSSL\wolfcrypt\src/asn.c **** 
1743:..\acn-sdk-c\src\wolfSSL\wolfcrypt\src/asn.c **** #if defined(OPENSSL_EXTRA) || defined(RSA_DECODE_EXTRA)
1744:..\acn-sdk-c\src\wolfSSL\wolfcrypt\src/asn.c ****     {
1745:..\acn-sdk-c\src\wolfSSL\wolfcrypt\src/asn.c ****     byte b = input[*inOutIdx];
1746:..\acn-sdk-c\src\wolfSSL\wolfcrypt\src/asn.c ****     if (b != ASN_INTEGER) {
1747:..\acn-sdk-c\src\wolfSSL\wolfcrypt\src/asn.c ****         /* not from decoded cert, will have algo id, skip past */
1748:..\acn-sdk-c\src\wolfSSL\wolfcrypt\src/asn.c ****         if (GetSequence(input, inOutIdx, &length, inSz) < 0)
1749:..\acn-sdk-c\src\wolfSSL\wolfcrypt\src/asn.c ****             return ASN_PARSE_E;
1750:..\acn-sdk-c\src\wolfSSL\wolfcrypt\src/asn.c **** 
1751:..\acn-sdk-c\src\wolfSSL\wolfcrypt\src/asn.c ****         if (SkipObjectId(input, inOutIdx, inSz) < 0)
1752:..\acn-sdk-c\src\wolfSSL\wolfcrypt\src/asn.c ****             return ASN_PARSE_E;
1753:..\acn-sdk-c\src\wolfSSL\wolfcrypt\src/asn.c **** 
1754:..\acn-sdk-c\src\wolfSSL\wolfcrypt\src/asn.c ****         /* could have NULL tag and 0 terminator, but may not */
1755:..\acn-sdk-c\src\wolfSSL\wolfcrypt\src/asn.c ****         b = input[(*inOutIdx)++];
1756:..\acn-sdk-c\src\wolfSSL\wolfcrypt\src/asn.c **** 
1757:..\acn-sdk-c\src\wolfSSL\wolfcrypt\src/asn.c ****         if (b == ASN_TAG_NULL) {
1758:..\acn-sdk-c\src\wolfSSL\wolfcrypt\src/asn.c ****             b = input[(*inOutIdx)++];
1759:..\acn-sdk-c\src\wolfSSL\wolfcrypt\src/asn.c ****             if (b != 0)
1760:..\acn-sdk-c\src\wolfSSL\wolfcrypt\src/asn.c ****                 return ASN_EXPECT_0_E;
1761:..\acn-sdk-c\src\wolfSSL\wolfcrypt\src/asn.c ****         }
1762:..\acn-sdk-c\src\wolfSSL\wolfcrypt\src/asn.c ****         else
1763:..\acn-sdk-c\src\wolfSSL\wolfcrypt\src/asn.c ****         /* go back, didn't have it */
1764:..\acn-sdk-c\src\wolfSSL\wolfcrypt\src/asn.c ****             (*inOutIdx)--;
1765:..\acn-sdk-c\src\wolfSSL\wolfcrypt\src/asn.c **** 
1766:..\acn-sdk-c\src\wolfSSL\wolfcrypt\src/asn.c ****         /* should have bit tag length and seq next */
1767:..\acn-sdk-c\src\wolfSSL\wolfcrypt\src/asn.c ****         b = input[(*inOutIdx)++];
1768:..\acn-sdk-c\src\wolfSSL\wolfcrypt\src/asn.c ****         if (b != ASN_BIT_STRING)
1769:..\acn-sdk-c\src\wolfSSL\wolfcrypt\src/asn.c ****             return ASN_BITSTR_E;
1770:..\acn-sdk-c\src\wolfSSL\wolfcrypt\src/asn.c **** 
1771:..\acn-sdk-c\src\wolfSSL\wolfcrypt\src/asn.c ****         if (GetLength(input, inOutIdx, &length, inSz) < 0)
ARM GAS  C:\Users\ddemidov\AppData\Local\Temp\ccPZV1ly.s 			page 45


1772:..\acn-sdk-c\src\wolfSSL\wolfcrypt\src/asn.c ****             return ASN_PARSE_E;
1773:..\acn-sdk-c\src\wolfSSL\wolfcrypt\src/asn.c **** 
1774:..\acn-sdk-c\src\wolfSSL\wolfcrypt\src/asn.c ****         /* could have 0 */
1775:..\acn-sdk-c\src\wolfSSL\wolfcrypt\src/asn.c ****         b = input[(*inOutIdx)++];
1776:..\acn-sdk-c\src\wolfSSL\wolfcrypt\src/asn.c ****         if (b != 0)
1777:..\acn-sdk-c\src\wolfSSL\wolfcrypt\src/asn.c ****             (*inOutIdx)--;
1778:..\acn-sdk-c\src\wolfSSL\wolfcrypt\src/asn.c **** 
1779:..\acn-sdk-c\src\wolfSSL\wolfcrypt\src/asn.c ****         if (GetSequence(input, inOutIdx, &length, inSz) < 0)
1780:..\acn-sdk-c\src\wolfSSL\wolfcrypt\src/asn.c ****             return ASN_PARSE_E;
1781:..\acn-sdk-c\src\wolfSSL\wolfcrypt\src/asn.c ****     }  /* end if */
1782:..\acn-sdk-c\src\wolfSSL\wolfcrypt\src/asn.c ****     }  /* openssl var block */
1783:..\acn-sdk-c\src\wolfSSL\wolfcrypt\src/asn.c **** #endif /* OPENSSL_EXTRA */
1784:..\acn-sdk-c\src\wolfSSL\wolfcrypt\src/asn.c **** 
1785:..\acn-sdk-c\src\wolfSSL\wolfcrypt\src/asn.c ****     if (GetInt(&key->n,  input, inOutIdx, inSz) < 0 ||
1786:..\acn-sdk-c\src\wolfSSL\wolfcrypt\src/asn.c ****         GetInt(&key->e,  input, inOutIdx, inSz) < 0 )  return ASN_RSA_KEY_E;
1787:..\acn-sdk-c\src\wolfSSL\wolfcrypt\src/asn.c **** 
1788:..\acn-sdk-c\src\wolfSSL\wolfcrypt\src/asn.c ****     return 0;
1789:..\acn-sdk-c\src\wolfSSL\wolfcrypt\src/asn.c **** }
1790:..\acn-sdk-c\src\wolfSSL\wolfcrypt\src/asn.c **** 
1791:..\acn-sdk-c\src\wolfSSL\wolfcrypt\src/asn.c **** /* import RSA public key elements (n, e) into RsaKey structure (key) */
1792:..\acn-sdk-c\src\wolfSSL\wolfcrypt\src/asn.c **** int wc_RsaPublicKeyDecodeRaw(const byte* n, word32 nSz, const byte* e,
1793:..\acn-sdk-c\src\wolfSSL\wolfcrypt\src/asn.c ****                              word32 eSz, RsaKey* key)
1794:..\acn-sdk-c\src\wolfSSL\wolfcrypt\src/asn.c **** {
1795:..\acn-sdk-c\src\wolfSSL\wolfcrypt\src/asn.c ****     if (n == NULL || e == NULL || key == NULL)
1796:..\acn-sdk-c\src\wolfSSL\wolfcrypt\src/asn.c ****         return BAD_FUNC_ARG;
1797:..\acn-sdk-c\src\wolfSSL\wolfcrypt\src/asn.c **** 
1798:..\acn-sdk-c\src\wolfSSL\wolfcrypt\src/asn.c ****     key->type = RSA_PUBLIC;
1799:..\acn-sdk-c\src\wolfSSL\wolfcrypt\src/asn.c **** 
1800:..\acn-sdk-c\src\wolfSSL\wolfcrypt\src/asn.c ****     if (mp_init(&key->n) != MP_OKAY)
1801:..\acn-sdk-c\src\wolfSSL\wolfcrypt\src/asn.c ****         return MP_INIT_E;
1802:..\acn-sdk-c\src\wolfSSL\wolfcrypt\src/asn.c **** 
1803:..\acn-sdk-c\src\wolfSSL\wolfcrypt\src/asn.c ****     if (mp_read_unsigned_bin(&key->n, n, nSz) != 0) {
1804:..\acn-sdk-c\src\wolfSSL\wolfcrypt\src/asn.c ****         mp_clear(&key->n);
1805:..\acn-sdk-c\src\wolfSSL\wolfcrypt\src/asn.c ****         return ASN_GETINT_E;
1806:..\acn-sdk-c\src\wolfSSL\wolfcrypt\src/asn.c ****     }
1807:..\acn-sdk-c\src\wolfSSL\wolfcrypt\src/asn.c **** 
1808:..\acn-sdk-c\src\wolfSSL\wolfcrypt\src/asn.c ****     if (mp_init(&key->e) != MP_OKAY) {
1809:..\acn-sdk-c\src\wolfSSL\wolfcrypt\src/asn.c ****         mp_clear(&key->n);
1810:..\acn-sdk-c\src\wolfSSL\wolfcrypt\src/asn.c ****         return MP_INIT_E;
1811:..\acn-sdk-c\src\wolfSSL\wolfcrypt\src/asn.c ****     }
1812:..\acn-sdk-c\src\wolfSSL\wolfcrypt\src/asn.c **** 
1813:..\acn-sdk-c\src\wolfSSL\wolfcrypt\src/asn.c ****     if (mp_read_unsigned_bin(&key->e, e, eSz) != 0) {
1814:..\acn-sdk-c\src\wolfSSL\wolfcrypt\src/asn.c ****         mp_clear(&key->n);
1815:..\acn-sdk-c\src\wolfSSL\wolfcrypt\src/asn.c ****         mp_clear(&key->e);
1816:..\acn-sdk-c\src\wolfSSL\wolfcrypt\src/asn.c ****         return ASN_GETINT_E;
1817:..\acn-sdk-c\src\wolfSSL\wolfcrypt\src/asn.c ****     }
1818:..\acn-sdk-c\src\wolfSSL\wolfcrypt\src/asn.c **** 
1819:..\acn-sdk-c\src\wolfSSL\wolfcrypt\src/asn.c ****     return 0;
1820:..\acn-sdk-c\src\wolfSSL\wolfcrypt\src/asn.c **** }
1821:..\acn-sdk-c\src\wolfSSL\wolfcrypt\src/asn.c **** #endif /* HAVE_USER_RSA */
1822:..\acn-sdk-c\src\wolfSSL\wolfcrypt\src/asn.c **** #endif
1823:..\acn-sdk-c\src\wolfSSL\wolfcrypt\src/asn.c **** 
1824:..\acn-sdk-c\src\wolfSSL\wolfcrypt\src/asn.c **** #ifndef NO_DH
1825:..\acn-sdk-c\src\wolfSSL\wolfcrypt\src/asn.c **** 
1826:..\acn-sdk-c\src\wolfSSL\wolfcrypt\src/asn.c **** int wc_DhKeyDecode(const byte* input, word32* inOutIdx, DhKey* key, word32 inSz)
1827:..\acn-sdk-c\src\wolfSSL\wolfcrypt\src/asn.c **** {
1828:..\acn-sdk-c\src\wolfSSL\wolfcrypt\src/asn.c ****     int    length;
ARM GAS  C:\Users\ddemidov\AppData\Local\Temp\ccPZV1ly.s 			page 46


1829:..\acn-sdk-c\src\wolfSSL\wolfcrypt\src/asn.c **** 
1830:..\acn-sdk-c\src\wolfSSL\wolfcrypt\src/asn.c ****     if (GetSequence(input, inOutIdx, &length, inSz) < 0)
1831:..\acn-sdk-c\src\wolfSSL\wolfcrypt\src/asn.c ****         return ASN_PARSE_E;
1832:..\acn-sdk-c\src\wolfSSL\wolfcrypt\src/asn.c **** 
1833:..\acn-sdk-c\src\wolfSSL\wolfcrypt\src/asn.c ****     if (GetInt(&key->p,  input, inOutIdx, inSz) < 0 ||
1834:..\acn-sdk-c\src\wolfSSL\wolfcrypt\src/asn.c ****         GetInt(&key->g,  input, inOutIdx, inSz) < 0 )  return ASN_DH_KEY_E;
1835:..\acn-sdk-c\src\wolfSSL\wolfcrypt\src/asn.c **** 
1836:..\acn-sdk-c\src\wolfSSL\wolfcrypt\src/asn.c ****     return 0;
1837:..\acn-sdk-c\src\wolfSSL\wolfcrypt\src/asn.c **** }
1838:..\acn-sdk-c\src\wolfSSL\wolfcrypt\src/asn.c **** 
1839:..\acn-sdk-c\src\wolfSSL\wolfcrypt\src/asn.c **** 
1840:..\acn-sdk-c\src\wolfSSL\wolfcrypt\src/asn.c **** int wc_DhParamsLoad(const byte* input, word32 inSz, byte* p, word32* pInOutSz,
1841:..\acn-sdk-c\src\wolfSSL\wolfcrypt\src/asn.c ****                  byte* g, word32* gInOutSz)
1842:..\acn-sdk-c\src\wolfSSL\wolfcrypt\src/asn.c **** {
1843:..\acn-sdk-c\src\wolfSSL\wolfcrypt\src/asn.c ****     word32 i = 0;
1844:..\acn-sdk-c\src\wolfSSL\wolfcrypt\src/asn.c ****     byte   b;
1845:..\acn-sdk-c\src\wolfSSL\wolfcrypt\src/asn.c ****     int    length;
1846:..\acn-sdk-c\src\wolfSSL\wolfcrypt\src/asn.c **** 
1847:..\acn-sdk-c\src\wolfSSL\wolfcrypt\src/asn.c ****     if (GetSequence(input, &i, &length, inSz) < 0)
1848:..\acn-sdk-c\src\wolfSSL\wolfcrypt\src/asn.c ****         return ASN_PARSE_E;
1849:..\acn-sdk-c\src\wolfSSL\wolfcrypt\src/asn.c **** 
1850:..\acn-sdk-c\src\wolfSSL\wolfcrypt\src/asn.c ****     b = input[i++];
1851:..\acn-sdk-c\src\wolfSSL\wolfcrypt\src/asn.c ****     if (b != ASN_INTEGER)
1852:..\acn-sdk-c\src\wolfSSL\wolfcrypt\src/asn.c ****         return ASN_PARSE_E;
1853:..\acn-sdk-c\src\wolfSSL\wolfcrypt\src/asn.c **** 
1854:..\acn-sdk-c\src\wolfSSL\wolfcrypt\src/asn.c ****     if (GetLength(input, &i, &length, inSz) < 0)
1855:..\acn-sdk-c\src\wolfSSL\wolfcrypt\src/asn.c ****         return ASN_PARSE_E;
1856:..\acn-sdk-c\src\wolfSSL\wolfcrypt\src/asn.c **** 
1857:..\acn-sdk-c\src\wolfSSL\wolfcrypt\src/asn.c ****     if ( (b = input[i++]) == 0x00)
1858:..\acn-sdk-c\src\wolfSSL\wolfcrypt\src/asn.c ****         length--;
1859:..\acn-sdk-c\src\wolfSSL\wolfcrypt\src/asn.c ****     else
1860:..\acn-sdk-c\src\wolfSSL\wolfcrypt\src/asn.c ****         i--;
1861:..\acn-sdk-c\src\wolfSSL\wolfcrypt\src/asn.c **** 
1862:..\acn-sdk-c\src\wolfSSL\wolfcrypt\src/asn.c ****     if (length <= (int)*pInOutSz) {
1863:..\acn-sdk-c\src\wolfSSL\wolfcrypt\src/asn.c ****         XMEMCPY(p, &input[i], length);
1864:..\acn-sdk-c\src\wolfSSL\wolfcrypt\src/asn.c ****         *pInOutSz = length;
1865:..\acn-sdk-c\src\wolfSSL\wolfcrypt\src/asn.c ****     }
1866:..\acn-sdk-c\src\wolfSSL\wolfcrypt\src/asn.c ****     else
1867:..\acn-sdk-c\src\wolfSSL\wolfcrypt\src/asn.c ****         return BUFFER_E;
1868:..\acn-sdk-c\src\wolfSSL\wolfcrypt\src/asn.c **** 
1869:..\acn-sdk-c\src\wolfSSL\wolfcrypt\src/asn.c ****     i += length;
1870:..\acn-sdk-c\src\wolfSSL\wolfcrypt\src/asn.c **** 
1871:..\acn-sdk-c\src\wolfSSL\wolfcrypt\src/asn.c ****     b = input[i++];
1872:..\acn-sdk-c\src\wolfSSL\wolfcrypt\src/asn.c ****     if (b != ASN_INTEGER)
1873:..\acn-sdk-c\src\wolfSSL\wolfcrypt\src/asn.c ****         return ASN_PARSE_E;
1874:..\acn-sdk-c\src\wolfSSL\wolfcrypt\src/asn.c **** 
1875:..\acn-sdk-c\src\wolfSSL\wolfcrypt\src/asn.c ****     if (GetLength(input, &i, &length, inSz) < 0)
1876:..\acn-sdk-c\src\wolfSSL\wolfcrypt\src/asn.c ****         return ASN_PARSE_E;
1877:..\acn-sdk-c\src\wolfSSL\wolfcrypt\src/asn.c **** 
1878:..\acn-sdk-c\src\wolfSSL\wolfcrypt\src/asn.c ****     if (length <= (int)*gInOutSz) {
1879:..\acn-sdk-c\src\wolfSSL\wolfcrypt\src/asn.c ****         XMEMCPY(g, &input[i], length);
1880:..\acn-sdk-c\src\wolfSSL\wolfcrypt\src/asn.c ****         *gInOutSz = length;
1881:..\acn-sdk-c\src\wolfSSL\wolfcrypt\src/asn.c ****     }
1882:..\acn-sdk-c\src\wolfSSL\wolfcrypt\src/asn.c ****     else
1883:..\acn-sdk-c\src\wolfSSL\wolfcrypt\src/asn.c ****         return BUFFER_E;
1884:..\acn-sdk-c\src\wolfSSL\wolfcrypt\src/asn.c **** 
1885:..\acn-sdk-c\src\wolfSSL\wolfcrypt\src/asn.c ****     return 0;
ARM GAS  C:\Users\ddemidov\AppData\Local\Temp\ccPZV1ly.s 			page 47


1886:..\acn-sdk-c\src\wolfSSL\wolfcrypt\src/asn.c **** }
1887:..\acn-sdk-c\src\wolfSSL\wolfcrypt\src/asn.c **** 
1888:..\acn-sdk-c\src\wolfSSL\wolfcrypt\src/asn.c **** #endif /* NO_DH */
1889:..\acn-sdk-c\src\wolfSSL\wolfcrypt\src/asn.c **** 
1890:..\acn-sdk-c\src\wolfSSL\wolfcrypt\src/asn.c **** 
1891:..\acn-sdk-c\src\wolfSSL\wolfcrypt\src/asn.c **** #ifndef NO_DSA
1892:..\acn-sdk-c\src\wolfSSL\wolfcrypt\src/asn.c **** 
1893:..\acn-sdk-c\src\wolfSSL\wolfcrypt\src/asn.c **** int DsaPublicKeyDecode(const byte* input, word32* inOutIdx, DsaKey* key,
1894:..\acn-sdk-c\src\wolfSSL\wolfcrypt\src/asn.c ****                         word32 inSz)
1895:..\acn-sdk-c\src\wolfSSL\wolfcrypt\src/asn.c **** {
1896:..\acn-sdk-c\src\wolfSSL\wolfcrypt\src/asn.c ****     int    length;
1897:..\acn-sdk-c\src\wolfSSL\wolfcrypt\src/asn.c **** 
1898:..\acn-sdk-c\src\wolfSSL\wolfcrypt\src/asn.c ****     if (GetSequence(input, inOutIdx, &length, inSz) < 0)
1899:..\acn-sdk-c\src\wolfSSL\wolfcrypt\src/asn.c ****         return ASN_PARSE_E;
1900:..\acn-sdk-c\src\wolfSSL\wolfcrypt\src/asn.c **** 
1901:..\acn-sdk-c\src\wolfSSL\wolfcrypt\src/asn.c ****     if (GetInt(&key->p,  input, inOutIdx, inSz) < 0 ||
1902:..\acn-sdk-c\src\wolfSSL\wolfcrypt\src/asn.c ****         GetInt(&key->q,  input, inOutIdx, inSz) < 0 ||
1903:..\acn-sdk-c\src\wolfSSL\wolfcrypt\src/asn.c ****         GetInt(&key->g,  input, inOutIdx, inSz) < 0 ||
1904:..\acn-sdk-c\src\wolfSSL\wolfcrypt\src/asn.c ****         GetInt(&key->y,  input, inOutIdx, inSz) < 0 )
1905:..\acn-sdk-c\src\wolfSSL\wolfcrypt\src/asn.c ****         return ASN_DH_KEY_E;
1906:..\acn-sdk-c\src\wolfSSL\wolfcrypt\src/asn.c **** 
1907:..\acn-sdk-c\src\wolfSSL\wolfcrypt\src/asn.c ****     key->type = DSA_PUBLIC;
1908:..\acn-sdk-c\src\wolfSSL\wolfcrypt\src/asn.c ****     return 0;
1909:..\acn-sdk-c\src\wolfSSL\wolfcrypt\src/asn.c **** }
1910:..\acn-sdk-c\src\wolfSSL\wolfcrypt\src/asn.c **** 
1911:..\acn-sdk-c\src\wolfSSL\wolfcrypt\src/asn.c **** 
1912:..\acn-sdk-c\src\wolfSSL\wolfcrypt\src/asn.c **** int DsaPrivateKeyDecode(const byte* input, word32* inOutIdx, DsaKey* key,
1913:..\acn-sdk-c\src\wolfSSL\wolfcrypt\src/asn.c ****                         word32 inSz)
1914:..\acn-sdk-c\src\wolfSSL\wolfcrypt\src/asn.c **** {
1915:..\acn-sdk-c\src\wolfSSL\wolfcrypt\src/asn.c ****     int    length, version;
1916:..\acn-sdk-c\src\wolfSSL\wolfcrypt\src/asn.c **** 
1917:..\acn-sdk-c\src\wolfSSL\wolfcrypt\src/asn.c ****     if (GetSequence(input, inOutIdx, &length, inSz) < 0)
1918:..\acn-sdk-c\src\wolfSSL\wolfcrypt\src/asn.c ****         return ASN_PARSE_E;
1919:..\acn-sdk-c\src\wolfSSL\wolfcrypt\src/asn.c **** 
1920:..\acn-sdk-c\src\wolfSSL\wolfcrypt\src/asn.c ****     if (GetMyVersion(input, inOutIdx, &version) < 0)
1921:..\acn-sdk-c\src\wolfSSL\wolfcrypt\src/asn.c ****         return ASN_PARSE_E;
1922:..\acn-sdk-c\src\wolfSSL\wolfcrypt\src/asn.c **** 
1923:..\acn-sdk-c\src\wolfSSL\wolfcrypt\src/asn.c ****     if (GetInt(&key->p,  input, inOutIdx, inSz) < 0 ||
1924:..\acn-sdk-c\src\wolfSSL\wolfcrypt\src/asn.c ****         GetInt(&key->q,  input, inOutIdx, inSz) < 0 ||
1925:..\acn-sdk-c\src\wolfSSL\wolfcrypt\src/asn.c ****         GetInt(&key->g,  input, inOutIdx, inSz) < 0 ||
1926:..\acn-sdk-c\src\wolfSSL\wolfcrypt\src/asn.c ****         GetInt(&key->y,  input, inOutIdx, inSz) < 0 ||
1927:..\acn-sdk-c\src\wolfSSL\wolfcrypt\src/asn.c ****         GetInt(&key->x,  input, inOutIdx, inSz) < 0 )
1928:..\acn-sdk-c\src\wolfSSL\wolfcrypt\src/asn.c ****         return ASN_DH_KEY_E;
1929:..\acn-sdk-c\src\wolfSSL\wolfcrypt\src/asn.c **** 
1930:..\acn-sdk-c\src\wolfSSL\wolfcrypt\src/asn.c ****     key->type = DSA_PRIVATE;
1931:..\acn-sdk-c\src\wolfSSL\wolfcrypt\src/asn.c ****     return 0;
1932:..\acn-sdk-c\src\wolfSSL\wolfcrypt\src/asn.c **** }
1933:..\acn-sdk-c\src\wolfSSL\wolfcrypt\src/asn.c **** 
1934:..\acn-sdk-c\src\wolfSSL\wolfcrypt\src/asn.c **** static mp_int* GetDsaInt(DsaKey* key, int idx)
1935:..\acn-sdk-c\src\wolfSSL\wolfcrypt\src/asn.c **** {
1936:..\acn-sdk-c\src\wolfSSL\wolfcrypt\src/asn.c ****     if (idx == 0)
1937:..\acn-sdk-c\src\wolfSSL\wolfcrypt\src/asn.c ****         return &key->p;
1938:..\acn-sdk-c\src\wolfSSL\wolfcrypt\src/asn.c ****     if (idx == 1)
1939:..\acn-sdk-c\src\wolfSSL\wolfcrypt\src/asn.c ****         return &key->q;
1940:..\acn-sdk-c\src\wolfSSL\wolfcrypt\src/asn.c ****     if (idx == 2)
1941:..\acn-sdk-c\src\wolfSSL\wolfcrypt\src/asn.c ****         return &key->g;
1942:..\acn-sdk-c\src\wolfSSL\wolfcrypt\src/asn.c ****     if (idx == 3)
ARM GAS  C:\Users\ddemidov\AppData\Local\Temp\ccPZV1ly.s 			page 48


1943:..\acn-sdk-c\src\wolfSSL\wolfcrypt\src/asn.c ****         return &key->y;
1944:..\acn-sdk-c\src\wolfSSL\wolfcrypt\src/asn.c ****     if (idx == 4)
1945:..\acn-sdk-c\src\wolfSSL\wolfcrypt\src/asn.c ****         return &key->x;
1946:..\acn-sdk-c\src\wolfSSL\wolfcrypt\src/asn.c **** 
1947:..\acn-sdk-c\src\wolfSSL\wolfcrypt\src/asn.c ****     return NULL;
1948:..\acn-sdk-c\src\wolfSSL\wolfcrypt\src/asn.c **** }
1949:..\acn-sdk-c\src\wolfSSL\wolfcrypt\src/asn.c **** 
1950:..\acn-sdk-c\src\wolfSSL\wolfcrypt\src/asn.c **** /* Release Tmp DSA resources */
1951:..\acn-sdk-c\src\wolfSSL\wolfcrypt\src/asn.c **** static INLINE void FreeTmpDsas(byte** tmps)
1952:..\acn-sdk-c\src\wolfSSL\wolfcrypt\src/asn.c **** {
1953:..\acn-sdk-c\src\wolfSSL\wolfcrypt\src/asn.c ****     int i;
1954:..\acn-sdk-c\src\wolfSSL\wolfcrypt\src/asn.c **** 
1955:..\acn-sdk-c\src\wolfSSL\wolfcrypt\src/asn.c ****     for (i = 0; i < DSA_INTS; i++)
1956:..\acn-sdk-c\src\wolfSSL\wolfcrypt\src/asn.c ****         XFREE(tmps[i], NULL, DYNAMIC_TYPE_DSA);
1957:..\acn-sdk-c\src\wolfSSL\wolfcrypt\src/asn.c **** }
1958:..\acn-sdk-c\src\wolfSSL\wolfcrypt\src/asn.c **** 
1959:..\acn-sdk-c\src\wolfSSL\wolfcrypt\src/asn.c **** /* Convert DsaKey key to DER format, write to output (inLen), return bytes
1960:..\acn-sdk-c\src\wolfSSL\wolfcrypt\src/asn.c ****  written */
1961:..\acn-sdk-c\src\wolfSSL\wolfcrypt\src/asn.c **** int wc_DsaKeyToDer(DsaKey* key, byte* output, word32 inLen)
1962:..\acn-sdk-c\src\wolfSSL\wolfcrypt\src/asn.c **** {
1963:..\acn-sdk-c\src\wolfSSL\wolfcrypt\src/asn.c ****     word32 seqSz, verSz, rawLen, intTotalLen = 0;
1964:..\acn-sdk-c\src\wolfSSL\wolfcrypt\src/asn.c ****     word32 sizes[DSA_INTS];
1965:..\acn-sdk-c\src\wolfSSL\wolfcrypt\src/asn.c ****     int    i, j, outLen, ret = 0, lbit;
1966:..\acn-sdk-c\src\wolfSSL\wolfcrypt\src/asn.c **** 
1967:..\acn-sdk-c\src\wolfSSL\wolfcrypt\src/asn.c ****     byte  seq[MAX_SEQ_SZ];
1968:..\acn-sdk-c\src\wolfSSL\wolfcrypt\src/asn.c ****     byte  ver[MAX_VERSION_SZ];
1969:..\acn-sdk-c\src\wolfSSL\wolfcrypt\src/asn.c ****     byte* tmps[DSA_INTS];
1970:..\acn-sdk-c\src\wolfSSL\wolfcrypt\src/asn.c **** 
1971:..\acn-sdk-c\src\wolfSSL\wolfcrypt\src/asn.c ****     if (!key || !output)
1972:..\acn-sdk-c\src\wolfSSL\wolfcrypt\src/asn.c ****         return BAD_FUNC_ARG;
1973:..\acn-sdk-c\src\wolfSSL\wolfcrypt\src/asn.c **** 
1974:..\acn-sdk-c\src\wolfSSL\wolfcrypt\src/asn.c ****     if (key->type != DSA_PRIVATE)
1975:..\acn-sdk-c\src\wolfSSL\wolfcrypt\src/asn.c ****         return BAD_FUNC_ARG;
1976:..\acn-sdk-c\src\wolfSSL\wolfcrypt\src/asn.c **** 
1977:..\acn-sdk-c\src\wolfSSL\wolfcrypt\src/asn.c ****     for (i = 0; i < DSA_INTS; i++)
1978:..\acn-sdk-c\src\wolfSSL\wolfcrypt\src/asn.c ****         tmps[i] = NULL;
1979:..\acn-sdk-c\src\wolfSSL\wolfcrypt\src/asn.c **** 
1980:..\acn-sdk-c\src\wolfSSL\wolfcrypt\src/asn.c ****     /* write all big ints from key to DER tmps */
1981:..\acn-sdk-c\src\wolfSSL\wolfcrypt\src/asn.c ****     for (i = 0; i < DSA_INTS; i++) {
1982:..\acn-sdk-c\src\wolfSSL\wolfcrypt\src/asn.c ****         mp_int* keyInt = GetDsaInt(key, i);
1983:..\acn-sdk-c\src\wolfSSL\wolfcrypt\src/asn.c **** 
1984:..\acn-sdk-c\src\wolfSSL\wolfcrypt\src/asn.c ****         /* leading zero */
1985:..\acn-sdk-c\src\wolfSSL\wolfcrypt\src/asn.c ****         lbit = mp_leading_bit(keyInt);
1986:..\acn-sdk-c\src\wolfSSL\wolfcrypt\src/asn.c ****         rawLen = mp_unsigned_bin_size(keyInt) + lbit;
1987:..\acn-sdk-c\src\wolfSSL\wolfcrypt\src/asn.c **** 
1988:..\acn-sdk-c\src\wolfSSL\wolfcrypt\src/asn.c ****         tmps[i] = (byte*)XMALLOC(rawLen + MAX_SEQ_SZ, NULL, DYNAMIC_TYPE_DSA);
1989:..\acn-sdk-c\src\wolfSSL\wolfcrypt\src/asn.c ****         if (tmps[i] == NULL) {
1990:..\acn-sdk-c\src\wolfSSL\wolfcrypt\src/asn.c ****             ret = MEMORY_E;
1991:..\acn-sdk-c\src\wolfSSL\wolfcrypt\src/asn.c ****             break;
1992:..\acn-sdk-c\src\wolfSSL\wolfcrypt\src/asn.c ****         }
1993:..\acn-sdk-c\src\wolfSSL\wolfcrypt\src/asn.c **** 
1994:..\acn-sdk-c\src\wolfSSL\wolfcrypt\src/asn.c ****         tmps[i][0] = ASN_INTEGER;
1995:..\acn-sdk-c\src\wolfSSL\wolfcrypt\src/asn.c ****         sizes[i] = SetLength(rawLen, tmps[i] + 1) + 1 + lbit; /* tag & lbit */
1996:..\acn-sdk-c\src\wolfSSL\wolfcrypt\src/asn.c **** 
1997:..\acn-sdk-c\src\wolfSSL\wolfcrypt\src/asn.c ****         if (sizes[i] <= MAX_SEQ_SZ) {
1998:..\acn-sdk-c\src\wolfSSL\wolfcrypt\src/asn.c ****             int err;
1999:..\acn-sdk-c\src\wolfSSL\wolfcrypt\src/asn.c **** 
ARM GAS  C:\Users\ddemidov\AppData\Local\Temp\ccPZV1ly.s 			page 49


2000:..\acn-sdk-c\src\wolfSSL\wolfcrypt\src/asn.c ****             /* leading zero */
2001:..\acn-sdk-c\src\wolfSSL\wolfcrypt\src/asn.c ****             if (lbit)
2002:..\acn-sdk-c\src\wolfSSL\wolfcrypt\src/asn.c ****                 tmps[i][sizes[i]-1] = 0x00;
2003:..\acn-sdk-c\src\wolfSSL\wolfcrypt\src/asn.c **** 
2004:..\acn-sdk-c\src\wolfSSL\wolfcrypt\src/asn.c ****             err = mp_to_unsigned_bin(keyInt, tmps[i] + sizes[i]);
2005:..\acn-sdk-c\src\wolfSSL\wolfcrypt\src/asn.c ****             if (err == MP_OKAY) {
2006:..\acn-sdk-c\src\wolfSSL\wolfcrypt\src/asn.c ****                 sizes[i] += (rawLen-lbit); /* lbit included in rawLen */
2007:..\acn-sdk-c\src\wolfSSL\wolfcrypt\src/asn.c ****                 intTotalLen += sizes[i];
2008:..\acn-sdk-c\src\wolfSSL\wolfcrypt\src/asn.c ****             }
2009:..\acn-sdk-c\src\wolfSSL\wolfcrypt\src/asn.c ****             else {
2010:..\acn-sdk-c\src\wolfSSL\wolfcrypt\src/asn.c ****                 ret = err;
2011:..\acn-sdk-c\src\wolfSSL\wolfcrypt\src/asn.c ****                 break;
2012:..\acn-sdk-c\src\wolfSSL\wolfcrypt\src/asn.c ****             }
2013:..\acn-sdk-c\src\wolfSSL\wolfcrypt\src/asn.c ****         }
2014:..\acn-sdk-c\src\wolfSSL\wolfcrypt\src/asn.c ****         else {
2015:..\acn-sdk-c\src\wolfSSL\wolfcrypt\src/asn.c ****             ret = ASN_INPUT_E;
2016:..\acn-sdk-c\src\wolfSSL\wolfcrypt\src/asn.c ****             break;
2017:..\acn-sdk-c\src\wolfSSL\wolfcrypt\src/asn.c ****         }
2018:..\acn-sdk-c\src\wolfSSL\wolfcrypt\src/asn.c ****     }
2019:..\acn-sdk-c\src\wolfSSL\wolfcrypt\src/asn.c **** 
2020:..\acn-sdk-c\src\wolfSSL\wolfcrypt\src/asn.c ****     if (ret != 0) {
2021:..\acn-sdk-c\src\wolfSSL\wolfcrypt\src/asn.c ****         FreeTmpDsas(tmps);
2022:..\acn-sdk-c\src\wolfSSL\wolfcrypt\src/asn.c ****         return ret;
2023:..\acn-sdk-c\src\wolfSSL\wolfcrypt\src/asn.c ****     }
2024:..\acn-sdk-c\src\wolfSSL\wolfcrypt\src/asn.c **** 
2025:..\acn-sdk-c\src\wolfSSL\wolfcrypt\src/asn.c ****     /* make headers */
2026:..\acn-sdk-c\src\wolfSSL\wolfcrypt\src/asn.c ****     verSz = SetMyVersion(0, ver, FALSE);
2027:..\acn-sdk-c\src\wolfSSL\wolfcrypt\src/asn.c ****     seqSz = SetSequence(verSz + intTotalLen, seq);
2028:..\acn-sdk-c\src\wolfSSL\wolfcrypt\src/asn.c **** 
2029:..\acn-sdk-c\src\wolfSSL\wolfcrypt\src/asn.c ****     outLen = seqSz + verSz + intTotalLen;
2030:..\acn-sdk-c\src\wolfSSL\wolfcrypt\src/asn.c ****     if (outLen > (int)inLen)
2031:..\acn-sdk-c\src\wolfSSL\wolfcrypt\src/asn.c ****         return BAD_FUNC_ARG;
2032:..\acn-sdk-c\src\wolfSSL\wolfcrypt\src/asn.c **** 
2033:..\acn-sdk-c\src\wolfSSL\wolfcrypt\src/asn.c ****     /* write to output */
2034:..\acn-sdk-c\src\wolfSSL\wolfcrypt\src/asn.c ****     XMEMCPY(output, seq, seqSz);
2035:..\acn-sdk-c\src\wolfSSL\wolfcrypt\src/asn.c ****     j = seqSz;
2036:..\acn-sdk-c\src\wolfSSL\wolfcrypt\src/asn.c ****     XMEMCPY(output + j, ver, verSz);
2037:..\acn-sdk-c\src\wolfSSL\wolfcrypt\src/asn.c ****     j += verSz;
2038:..\acn-sdk-c\src\wolfSSL\wolfcrypt\src/asn.c **** 
2039:..\acn-sdk-c\src\wolfSSL\wolfcrypt\src/asn.c ****     for (i = 0; i < DSA_INTS; i++) {
2040:..\acn-sdk-c\src\wolfSSL\wolfcrypt\src/asn.c ****         XMEMCPY(output + j, tmps[i], sizes[i]);
2041:..\acn-sdk-c\src\wolfSSL\wolfcrypt\src/asn.c ****         j += sizes[i];
2042:..\acn-sdk-c\src\wolfSSL\wolfcrypt\src/asn.c ****     }
2043:..\acn-sdk-c\src\wolfSSL\wolfcrypt\src/asn.c ****     FreeTmpDsas(tmps);
2044:..\acn-sdk-c\src\wolfSSL\wolfcrypt\src/asn.c **** 
2045:..\acn-sdk-c\src\wolfSSL\wolfcrypt\src/asn.c ****     return outLen;
2046:..\acn-sdk-c\src\wolfSSL\wolfcrypt\src/asn.c **** }
2047:..\acn-sdk-c\src\wolfSSL\wolfcrypt\src/asn.c **** 
2048:..\acn-sdk-c\src\wolfSSL\wolfcrypt\src/asn.c **** #endif /* NO_DSA */
2049:..\acn-sdk-c\src\wolfSSL\wolfcrypt\src/asn.c **** 
2050:..\acn-sdk-c\src\wolfSSL\wolfcrypt\src/asn.c **** 
2051:..\acn-sdk-c\src\wolfSSL\wolfcrypt\src/asn.c **** void InitDecodedCert(DecodedCert* cert, byte* source, word32 inSz, void* heap)
2052:..\acn-sdk-c\src\wolfSSL\wolfcrypt\src/asn.c **** {
2053:..\acn-sdk-c\src\wolfSSL\wolfcrypt\src/asn.c ****     cert->publicKey       = 0;
2054:..\acn-sdk-c\src\wolfSSL\wolfcrypt\src/asn.c ****     cert->pubKeySize      = 0;
2055:..\acn-sdk-c\src\wolfSSL\wolfcrypt\src/asn.c ****     cert->pubKeyStored    = 0;
2056:..\acn-sdk-c\src\wolfSSL\wolfcrypt\src/asn.c ****     cert->version         = 0;
ARM GAS  C:\Users\ddemidov\AppData\Local\Temp\ccPZV1ly.s 			page 50


2057:..\acn-sdk-c\src\wolfSSL\wolfcrypt\src/asn.c ****     cert->signature       = 0;
2058:..\acn-sdk-c\src\wolfSSL\wolfcrypt\src/asn.c ****     cert->subjectCN       = 0;
2059:..\acn-sdk-c\src\wolfSSL\wolfcrypt\src/asn.c ****     cert->subjectCNLen    = 0;
2060:..\acn-sdk-c\src\wolfSSL\wolfcrypt\src/asn.c ****     cert->subjectCNEnc    = CTC_UTF8;
2061:..\acn-sdk-c\src\wolfSSL\wolfcrypt\src/asn.c ****     cert->subjectCNStored = 0;
2062:..\acn-sdk-c\src\wolfSSL\wolfcrypt\src/asn.c ****     cert->weOwnAltNames   = 0;
2063:..\acn-sdk-c\src\wolfSSL\wolfcrypt\src/asn.c ****     cert->altNames        = NULL;
2064:..\acn-sdk-c\src\wolfSSL\wolfcrypt\src/asn.c **** #ifndef IGNORE_NAME_CONSTRAINTS
2065:..\acn-sdk-c\src\wolfSSL\wolfcrypt\src/asn.c ****     cert->altEmailNames   = NULL;
2066:..\acn-sdk-c\src\wolfSSL\wolfcrypt\src/asn.c ****     cert->permittedNames  = NULL;
2067:..\acn-sdk-c\src\wolfSSL\wolfcrypt\src/asn.c ****     cert->excludedNames   = NULL;
2068:..\acn-sdk-c\src\wolfSSL\wolfcrypt\src/asn.c **** #endif /* IGNORE_NAME_CONSTRAINTS */
2069:..\acn-sdk-c\src\wolfSSL\wolfcrypt\src/asn.c ****     cert->issuer[0]       = '\0';
2070:..\acn-sdk-c\src\wolfSSL\wolfcrypt\src/asn.c ****     cert->subject[0]      = '\0';
2071:..\acn-sdk-c\src\wolfSSL\wolfcrypt\src/asn.c ****     cert->source          = source;  /* don't own */
2072:..\acn-sdk-c\src\wolfSSL\wolfcrypt\src/asn.c ****     cert->srcIdx          = 0;
2073:..\acn-sdk-c\src\wolfSSL\wolfcrypt\src/asn.c ****     cert->maxIdx          = inSz;    /* can't go over this index */
2074:..\acn-sdk-c\src\wolfSSL\wolfcrypt\src/asn.c ****     cert->heap            = heap;
2075:..\acn-sdk-c\src\wolfSSL\wolfcrypt\src/asn.c ****     XMEMSET(cert->serial, 0, EXTERNAL_SERIAL_SIZE);
2076:..\acn-sdk-c\src\wolfSSL\wolfcrypt\src/asn.c ****     cert->serialSz        = 0;
2077:..\acn-sdk-c\src\wolfSSL\wolfcrypt\src/asn.c ****     cert->extensions      = 0;
2078:..\acn-sdk-c\src\wolfSSL\wolfcrypt\src/asn.c ****     cert->extensionsSz    = 0;
2079:..\acn-sdk-c\src\wolfSSL\wolfcrypt\src/asn.c ****     cert->extensionsIdx   = 0;
2080:..\acn-sdk-c\src\wolfSSL\wolfcrypt\src/asn.c ****     cert->extAuthInfo     = NULL;
2081:..\acn-sdk-c\src\wolfSSL\wolfcrypt\src/asn.c ****     cert->extAuthInfoSz   = 0;
2082:..\acn-sdk-c\src\wolfSSL\wolfcrypt\src/asn.c ****     cert->extCrlInfo      = NULL;
2083:..\acn-sdk-c\src\wolfSSL\wolfcrypt\src/asn.c ****     cert->extCrlInfoSz    = 0;
2084:..\acn-sdk-c\src\wolfSSL\wolfcrypt\src/asn.c ****     XMEMSET(cert->extSubjKeyId, 0, KEYID_SIZE);
2085:..\acn-sdk-c\src\wolfSSL\wolfcrypt\src/asn.c ****     cert->extSubjKeyIdSet = 0;
2086:..\acn-sdk-c\src\wolfSSL\wolfcrypt\src/asn.c ****     XMEMSET(cert->extAuthKeyId, 0, KEYID_SIZE);
2087:..\acn-sdk-c\src\wolfSSL\wolfcrypt\src/asn.c ****     cert->extAuthKeyIdSet = 0;
2088:..\acn-sdk-c\src\wolfSSL\wolfcrypt\src/asn.c ****     cert->extKeyUsageSet  = 0;
2089:..\acn-sdk-c\src\wolfSSL\wolfcrypt\src/asn.c ****     cert->extKeyUsage     = 0;
2090:..\acn-sdk-c\src\wolfSSL\wolfcrypt\src/asn.c ****     cert->extExtKeyUsageSet = 0;
2091:..\acn-sdk-c\src\wolfSSL\wolfcrypt\src/asn.c ****     cert->extExtKeyUsage    = 0;
2092:..\acn-sdk-c\src\wolfSSL\wolfcrypt\src/asn.c ****     cert->isCA            = 0;
2093:..\acn-sdk-c\src\wolfSSL\wolfcrypt\src/asn.c **** #ifdef HAVE_PKCS7
2094:..\acn-sdk-c\src\wolfSSL\wolfcrypt\src/asn.c ****     cert->issuerRaw       = NULL;
2095:..\acn-sdk-c\src\wolfSSL\wolfcrypt\src/asn.c ****     cert->issuerRawLen    = 0;
2096:..\acn-sdk-c\src\wolfSSL\wolfcrypt\src/asn.c **** #endif
2097:..\acn-sdk-c\src\wolfSSL\wolfcrypt\src/asn.c **** #ifdef WOLFSSL_CERT_GEN
2098:..\acn-sdk-c\src\wolfSSL\wolfcrypt\src/asn.c ****     cert->subjectSN       = 0;
2099:..\acn-sdk-c\src\wolfSSL\wolfcrypt\src/asn.c ****     cert->subjectSNLen    = 0;
2100:..\acn-sdk-c\src\wolfSSL\wolfcrypt\src/asn.c ****     cert->subjectSNEnc    = CTC_UTF8;
2101:..\acn-sdk-c\src\wolfSSL\wolfcrypt\src/asn.c ****     cert->subjectC        = 0;
2102:..\acn-sdk-c\src\wolfSSL\wolfcrypt\src/asn.c ****     cert->subjectCLen     = 0;
2103:..\acn-sdk-c\src\wolfSSL\wolfcrypt\src/asn.c ****     cert->subjectCEnc     = CTC_PRINTABLE;
2104:..\acn-sdk-c\src\wolfSSL\wolfcrypt\src/asn.c ****     cert->subjectL        = 0;
2105:..\acn-sdk-c\src\wolfSSL\wolfcrypt\src/asn.c ****     cert->subjectLLen     = 0;
2106:..\acn-sdk-c\src\wolfSSL\wolfcrypt\src/asn.c ****     cert->subjectLEnc     = CTC_UTF8;
2107:..\acn-sdk-c\src\wolfSSL\wolfcrypt\src/asn.c ****     cert->subjectST       = 0;
2108:..\acn-sdk-c\src\wolfSSL\wolfcrypt\src/asn.c ****     cert->subjectSTLen    = 0;
2109:..\acn-sdk-c\src\wolfSSL\wolfcrypt\src/asn.c ****     cert->subjectSTEnc    = CTC_UTF8;
2110:..\acn-sdk-c\src\wolfSSL\wolfcrypt\src/asn.c ****     cert->subjectO        = 0;
2111:..\acn-sdk-c\src\wolfSSL\wolfcrypt\src/asn.c ****     cert->subjectOLen     = 0;
2112:..\acn-sdk-c\src\wolfSSL\wolfcrypt\src/asn.c ****     cert->subjectOEnc     = CTC_UTF8;
2113:..\acn-sdk-c\src\wolfSSL\wolfcrypt\src/asn.c ****     cert->subjectOU       = 0;
ARM GAS  C:\Users\ddemidov\AppData\Local\Temp\ccPZV1ly.s 			page 51


2114:..\acn-sdk-c\src\wolfSSL\wolfcrypt\src/asn.c ****     cert->subjectOULen    = 0;
2115:..\acn-sdk-c\src\wolfSSL\wolfcrypt\src/asn.c ****     cert->subjectOUEnc    = CTC_UTF8;
2116:..\acn-sdk-c\src\wolfSSL\wolfcrypt\src/asn.c ****     cert->subjectEmail    = 0;
2117:..\acn-sdk-c\src\wolfSSL\wolfcrypt\src/asn.c ****     cert->subjectEmailLen = 0;
2118:..\acn-sdk-c\src\wolfSSL\wolfcrypt\src/asn.c **** #endif /* WOLFSSL_CERT_GEN */
2119:..\acn-sdk-c\src\wolfSSL\wolfcrypt\src/asn.c ****     cert->beforeDate      = NULL;
2120:..\acn-sdk-c\src\wolfSSL\wolfcrypt\src/asn.c ****     cert->beforeDateLen   = 0;
2121:..\acn-sdk-c\src\wolfSSL\wolfcrypt\src/asn.c ****     cert->afterDate       = NULL;
2122:..\acn-sdk-c\src\wolfSSL\wolfcrypt\src/asn.c ****     cert->afterDateLen    = 0;
2123:..\acn-sdk-c\src\wolfSSL\wolfcrypt\src/asn.c **** #ifdef OPENSSL_EXTRA
2124:..\acn-sdk-c\src\wolfSSL\wolfcrypt\src/asn.c ****     XMEMSET(&cert->issuerName, 0, sizeof(DecodedName));
2125:..\acn-sdk-c\src\wolfSSL\wolfcrypt\src/asn.c ****     XMEMSET(&cert->subjectName, 0, sizeof(DecodedName));
2126:..\acn-sdk-c\src\wolfSSL\wolfcrypt\src/asn.c ****     cert->extBasicConstSet = 0;
2127:..\acn-sdk-c\src\wolfSSL\wolfcrypt\src/asn.c ****     cert->extBasicConstCrit = 0;
2128:..\acn-sdk-c\src\wolfSSL\wolfcrypt\src/asn.c ****     cert->extBasicConstPlSet = 0;
2129:..\acn-sdk-c\src\wolfSSL\wolfcrypt\src/asn.c ****     cert->pathLength = 0;
2130:..\acn-sdk-c\src\wolfSSL\wolfcrypt\src/asn.c ****     cert->extSubjAltNameSet = 0;
2131:..\acn-sdk-c\src\wolfSSL\wolfcrypt\src/asn.c ****     cert->extSubjAltNameCrit = 0;
2132:..\acn-sdk-c\src\wolfSSL\wolfcrypt\src/asn.c ****     cert->extAuthKeyIdCrit = 0;
2133:..\acn-sdk-c\src\wolfSSL\wolfcrypt\src/asn.c ****     cert->extSubjKeyIdCrit = 0;
2134:..\acn-sdk-c\src\wolfSSL\wolfcrypt\src/asn.c ****     cert->extKeyUsageCrit = 0;
2135:..\acn-sdk-c\src\wolfSSL\wolfcrypt\src/asn.c ****     cert->extExtKeyUsageCrit = 0;
2136:..\acn-sdk-c\src\wolfSSL\wolfcrypt\src/asn.c ****     cert->extExtKeyUsageSrc = NULL;
2137:..\acn-sdk-c\src\wolfSSL\wolfcrypt\src/asn.c ****     cert->extExtKeyUsageSz = 0;
2138:..\acn-sdk-c\src\wolfSSL\wolfcrypt\src/asn.c ****     cert->extExtKeyUsageCount = 0;
2139:..\acn-sdk-c\src\wolfSSL\wolfcrypt\src/asn.c ****     cert->extAuthKeyIdSrc = NULL;
2140:..\acn-sdk-c\src\wolfSSL\wolfcrypt\src/asn.c ****     cert->extAuthKeyIdSz = 0;
2141:..\acn-sdk-c\src\wolfSSL\wolfcrypt\src/asn.c ****     cert->extSubjKeyIdSrc = NULL;
2142:..\acn-sdk-c\src\wolfSSL\wolfcrypt\src/asn.c ****     cert->extSubjKeyIdSz = 0;
2143:..\acn-sdk-c\src\wolfSSL\wolfcrypt\src/asn.c **** #endif /* OPENSSL_EXTRA */
2144:..\acn-sdk-c\src\wolfSSL\wolfcrypt\src/asn.c **** #if defined(OPENSSL_EXTRA) || !defined(IGNORE_NAME_CONSTRAINTS)
2145:..\acn-sdk-c\src\wolfSSL\wolfcrypt\src/asn.c ****     cert->extNameConstraintSet = 0;
2146:..\acn-sdk-c\src\wolfSSL\wolfcrypt\src/asn.c **** #endif /* OPENSSL_EXTRA || !IGNORE_NAME_CONSTRAINTS */
2147:..\acn-sdk-c\src\wolfSSL\wolfcrypt\src/asn.c **** #ifdef HAVE_ECC
2148:..\acn-sdk-c\src\wolfSSL\wolfcrypt\src/asn.c ****     cert->pkCurveOID = 0;
2149:..\acn-sdk-c\src\wolfSSL\wolfcrypt\src/asn.c **** #endif /* HAVE_ECC */
2150:..\acn-sdk-c\src\wolfSSL\wolfcrypt\src/asn.c **** #ifdef WOLFSSL_SEP
2151:..\acn-sdk-c\src\wolfSSL\wolfcrypt\src/asn.c ****     cert->deviceTypeSz = 0;
2152:..\acn-sdk-c\src\wolfSSL\wolfcrypt\src/asn.c ****     cert->deviceType = NULL;
2153:..\acn-sdk-c\src\wolfSSL\wolfcrypt\src/asn.c ****     cert->hwTypeSz = 0;
2154:..\acn-sdk-c\src\wolfSSL\wolfcrypt\src/asn.c ****     cert->hwType = NULL;
2155:..\acn-sdk-c\src\wolfSSL\wolfcrypt\src/asn.c ****     cert->hwSerialNumSz = 0;
2156:..\acn-sdk-c\src\wolfSSL\wolfcrypt\src/asn.c ****     cert->hwSerialNum = NULL;
2157:..\acn-sdk-c\src\wolfSSL\wolfcrypt\src/asn.c ****     #ifdef OPENSSL_EXTRA
2158:..\acn-sdk-c\src\wolfSSL\wolfcrypt\src/asn.c ****         cert->extCertPolicySet = 0;
2159:..\acn-sdk-c\src\wolfSSL\wolfcrypt\src/asn.c ****         cert->extCertPolicyCrit = 0;
2160:..\acn-sdk-c\src\wolfSSL\wolfcrypt\src/asn.c ****     #endif /* OPENSSL_EXTRA */
2161:..\acn-sdk-c\src\wolfSSL\wolfcrypt\src/asn.c **** #endif /* WOLFSSL_SEP */
2162:..\acn-sdk-c\src\wolfSSL\wolfcrypt\src/asn.c **** #ifdef WOLFSSL_CERT_EXT
2163:..\acn-sdk-c\src\wolfSSL\wolfcrypt\src/asn.c ****     XMEMSET(cert->extCertPolicies, 0, MAX_CERTPOL_NB*MAX_CERTPOL_SZ);
2164:..\acn-sdk-c\src\wolfSSL\wolfcrypt\src/asn.c ****     cert->extCertPoliciesNb = 0;
2165:..\acn-sdk-c\src\wolfSSL\wolfcrypt\src/asn.c **** #endif
2166:..\acn-sdk-c\src\wolfSSL\wolfcrypt\src/asn.c **** }
2167:..\acn-sdk-c\src\wolfSSL\wolfcrypt\src/asn.c **** 
2168:..\acn-sdk-c\src\wolfSSL\wolfcrypt\src/asn.c **** 
2169:..\acn-sdk-c\src\wolfSSL\wolfcrypt\src/asn.c **** void FreeAltNames(DNS_entry* altNames, void* heap)
2170:..\acn-sdk-c\src\wolfSSL\wolfcrypt\src/asn.c **** {
ARM GAS  C:\Users\ddemidov\AppData\Local\Temp\ccPZV1ly.s 			page 52


2171:..\acn-sdk-c\src\wolfSSL\wolfcrypt\src/asn.c ****     (void)heap;
2172:..\acn-sdk-c\src\wolfSSL\wolfcrypt\src/asn.c **** 
2173:..\acn-sdk-c\src\wolfSSL\wolfcrypt\src/asn.c ****     while (altNames) {
2174:..\acn-sdk-c\src\wolfSSL\wolfcrypt\src/asn.c ****         DNS_entry* tmp = altNames->next;
2175:..\acn-sdk-c\src\wolfSSL\wolfcrypt\src/asn.c **** 
2176:..\acn-sdk-c\src\wolfSSL\wolfcrypt\src/asn.c ****         XFREE(altNames->name, heap, DYNAMIC_TYPE_ALTNAME);
2177:..\acn-sdk-c\src\wolfSSL\wolfcrypt\src/asn.c ****         XFREE(altNames,       heap, DYNAMIC_TYPE_ALTNAME);
2178:..\acn-sdk-c\src\wolfSSL\wolfcrypt\src/asn.c ****         altNames = tmp;
2179:..\acn-sdk-c\src\wolfSSL\wolfcrypt\src/asn.c ****     }
2180:..\acn-sdk-c\src\wolfSSL\wolfcrypt\src/asn.c **** }
2181:..\acn-sdk-c\src\wolfSSL\wolfcrypt\src/asn.c **** 
2182:..\acn-sdk-c\src\wolfSSL\wolfcrypt\src/asn.c **** #ifndef IGNORE_NAME_CONSTRAINTS
2183:..\acn-sdk-c\src\wolfSSL\wolfcrypt\src/asn.c **** 
2184:..\acn-sdk-c\src\wolfSSL\wolfcrypt\src/asn.c **** void FreeNameSubtrees(Base_entry* names, void* heap)
2185:..\acn-sdk-c\src\wolfSSL\wolfcrypt\src/asn.c **** {
2186:..\acn-sdk-c\src\wolfSSL\wolfcrypt\src/asn.c ****     (void)heap;
2187:..\acn-sdk-c\src\wolfSSL\wolfcrypt\src/asn.c **** 
2188:..\acn-sdk-c\src\wolfSSL\wolfcrypt\src/asn.c ****     while (names) {
2189:..\acn-sdk-c\src\wolfSSL\wolfcrypt\src/asn.c ****         Base_entry* tmp = names->next;
2190:..\acn-sdk-c\src\wolfSSL\wolfcrypt\src/asn.c **** 
2191:..\acn-sdk-c\src\wolfSSL\wolfcrypt\src/asn.c ****         XFREE(names->name, heap, DYNAMIC_TYPE_ALTNAME);
2192:..\acn-sdk-c\src\wolfSSL\wolfcrypt\src/asn.c ****         XFREE(names,       heap, DYNAMIC_TYPE_ALTNAME);
2193:..\acn-sdk-c\src\wolfSSL\wolfcrypt\src/asn.c ****         names = tmp;
2194:..\acn-sdk-c\src\wolfSSL\wolfcrypt\src/asn.c ****     }
2195:..\acn-sdk-c\src\wolfSSL\wolfcrypt\src/asn.c **** }
2196:..\acn-sdk-c\src\wolfSSL\wolfcrypt\src/asn.c **** 
2197:..\acn-sdk-c\src\wolfSSL\wolfcrypt\src/asn.c **** #endif /* IGNORE_NAME_CONSTRAINTS */
2198:..\acn-sdk-c\src\wolfSSL\wolfcrypt\src/asn.c **** 
2199:..\acn-sdk-c\src\wolfSSL\wolfcrypt\src/asn.c **** void FreeDecodedCert(DecodedCert* cert)
2200:..\acn-sdk-c\src\wolfSSL\wolfcrypt\src/asn.c **** {
2201:..\acn-sdk-c\src\wolfSSL\wolfcrypt\src/asn.c ****     if (cert->subjectCNStored == 1)
2202:..\acn-sdk-c\src\wolfSSL\wolfcrypt\src/asn.c ****         XFREE(cert->subjectCN, cert->heap, DYNAMIC_TYPE_SUBJECT_CN);
2203:..\acn-sdk-c\src\wolfSSL\wolfcrypt\src/asn.c ****     if (cert->pubKeyStored == 1)
2204:..\acn-sdk-c\src\wolfSSL\wolfcrypt\src/asn.c ****         XFREE(cert->publicKey, cert->heap, DYNAMIC_TYPE_PUBLIC_KEY);
2205:..\acn-sdk-c\src\wolfSSL\wolfcrypt\src/asn.c ****     if (cert->weOwnAltNames && cert->altNames)
2206:..\acn-sdk-c\src\wolfSSL\wolfcrypt\src/asn.c ****         FreeAltNames(cert->altNames, cert->heap);
2207:..\acn-sdk-c\src\wolfSSL\wolfcrypt\src/asn.c **** #ifndef IGNORE_NAME_CONSTRAINTS
2208:..\acn-sdk-c\src\wolfSSL\wolfcrypt\src/asn.c ****     if (cert->altEmailNames)
2209:..\acn-sdk-c\src\wolfSSL\wolfcrypt\src/asn.c ****         FreeAltNames(cert->altEmailNames, cert->heap);
2210:..\acn-sdk-c\src\wolfSSL\wolfcrypt\src/asn.c ****     if (cert->permittedNames)
2211:..\acn-sdk-c\src\wolfSSL\wolfcrypt\src/asn.c ****         FreeNameSubtrees(cert->permittedNames, cert->heap);
2212:..\acn-sdk-c\src\wolfSSL\wolfcrypt\src/asn.c ****     if (cert->excludedNames)
2213:..\acn-sdk-c\src\wolfSSL\wolfcrypt\src/asn.c ****         FreeNameSubtrees(cert->excludedNames, cert->heap);
2214:..\acn-sdk-c\src\wolfSSL\wolfcrypt\src/asn.c **** #endif /* IGNORE_NAME_CONSTRAINTS */
2215:..\acn-sdk-c\src\wolfSSL\wolfcrypt\src/asn.c **** #ifdef WOLFSSL_SEP
2216:..\acn-sdk-c\src\wolfSSL\wolfcrypt\src/asn.c ****     XFREE(cert->deviceType, cert->heap, DYNAMIC_TYPE_X509_EXT);
2217:..\acn-sdk-c\src\wolfSSL\wolfcrypt\src/asn.c ****     XFREE(cert->hwType, cert->heap, DYNAMIC_TYPE_X509_EXT);
2218:..\acn-sdk-c\src\wolfSSL\wolfcrypt\src/asn.c ****     XFREE(cert->hwSerialNum, cert->heap, DYNAMIC_TYPE_X509_EXT);
2219:..\acn-sdk-c\src\wolfSSL\wolfcrypt\src/asn.c **** #endif /* WOLFSSL_SEP */
2220:..\acn-sdk-c\src\wolfSSL\wolfcrypt\src/asn.c **** #ifdef OPENSSL_EXTRA
2221:..\acn-sdk-c\src\wolfSSL\wolfcrypt\src/asn.c ****     if (cert->issuerName.fullName != NULL)
2222:..\acn-sdk-c\src\wolfSSL\wolfcrypt\src/asn.c ****         XFREE(cert->issuerName.fullName, NULL, DYNAMIC_TYPE_X509);
2223:..\acn-sdk-c\src\wolfSSL\wolfcrypt\src/asn.c ****     if (cert->subjectName.fullName != NULL)
2224:..\acn-sdk-c\src\wolfSSL\wolfcrypt\src/asn.c ****         XFREE(cert->subjectName.fullName, NULL, DYNAMIC_TYPE_X509);
2225:..\acn-sdk-c\src\wolfSSL\wolfcrypt\src/asn.c **** #endif /* OPENSSL_EXTRA */
2226:..\acn-sdk-c\src\wolfSSL\wolfcrypt\src/asn.c **** }
2227:..\acn-sdk-c\src\wolfSSL\wolfcrypt\src/asn.c **** 
ARM GAS  C:\Users\ddemidov\AppData\Local\Temp\ccPZV1ly.s 			page 53


2228:..\acn-sdk-c\src\wolfSSL\wolfcrypt\src/asn.c **** #ifndef NO_ASN_TIME
2229:..\acn-sdk-c\src\wolfSSL\wolfcrypt\src/asn.c **** static int GetCertHeader(DecodedCert* cert)
2230:..\acn-sdk-c\src\wolfSSL\wolfcrypt\src/asn.c **** {
2231:..\acn-sdk-c\src\wolfSSL\wolfcrypt\src/asn.c ****     int ret = 0, len;
2232:..\acn-sdk-c\src\wolfSSL\wolfcrypt\src/asn.c ****     byte serialTmp[EXTERNAL_SERIAL_SIZE];
2233:..\acn-sdk-c\src\wolfSSL\wolfcrypt\src/asn.c **** #if defined(WOLFSSL_SMALL_STACK) && defined(USE_FAST_MATH)
2234:..\acn-sdk-c\src\wolfSSL\wolfcrypt\src/asn.c ****     mp_int* mpi = NULL;
2235:..\acn-sdk-c\src\wolfSSL\wolfcrypt\src/asn.c **** #else
2236:..\acn-sdk-c\src\wolfSSL\wolfcrypt\src/asn.c ****     mp_int stack_mpi;
2237:..\acn-sdk-c\src\wolfSSL\wolfcrypt\src/asn.c ****     mp_int* mpi = &stack_mpi;
2238:..\acn-sdk-c\src\wolfSSL\wolfcrypt\src/asn.c **** #endif
2239:..\acn-sdk-c\src\wolfSSL\wolfcrypt\src/asn.c **** 
2240:..\acn-sdk-c\src\wolfSSL\wolfcrypt\src/asn.c ****     if (GetSequence(cert->source, &cert->srcIdx, &len, cert->maxIdx) < 0)
2241:..\acn-sdk-c\src\wolfSSL\wolfcrypt\src/asn.c ****         return ASN_PARSE_E;
2242:..\acn-sdk-c\src\wolfSSL\wolfcrypt\src/asn.c **** 
2243:..\acn-sdk-c\src\wolfSSL\wolfcrypt\src/asn.c ****     cert->certBegin = cert->srcIdx;
2244:..\acn-sdk-c\src\wolfSSL\wolfcrypt\src/asn.c **** 
2245:..\acn-sdk-c\src\wolfSSL\wolfcrypt\src/asn.c ****     if (GetSequence(cert->source, &cert->srcIdx, &len, cert->maxIdx) < 0)
2246:..\acn-sdk-c\src\wolfSSL\wolfcrypt\src/asn.c ****         return ASN_PARSE_E;
2247:..\acn-sdk-c\src\wolfSSL\wolfcrypt\src/asn.c ****     cert->sigIndex = len + cert->srcIdx;
2248:..\acn-sdk-c\src\wolfSSL\wolfcrypt\src/asn.c **** 
2249:..\acn-sdk-c\src\wolfSSL\wolfcrypt\src/asn.c ****     if (GetExplicitVersion(cert->source, &cert->srcIdx, &cert->version) < 0)
2250:..\acn-sdk-c\src\wolfSSL\wolfcrypt\src/asn.c ****         return ASN_PARSE_E;
2251:..\acn-sdk-c\src\wolfSSL\wolfcrypt\src/asn.c **** 
2252:..\acn-sdk-c\src\wolfSSL\wolfcrypt\src/asn.c **** #if defined(WOLFSSL_SMALL_STACK) && defined(USE_FAST_MATH)
2253:..\acn-sdk-c\src\wolfSSL\wolfcrypt\src/asn.c ****     mpi = (mp_int*)XMALLOC(sizeof(mp_int), NULL, DYNAMIC_TYPE_TMP_BUFFER);
2254:..\acn-sdk-c\src\wolfSSL\wolfcrypt\src/asn.c ****     if (mpi == NULL)
2255:..\acn-sdk-c\src\wolfSSL\wolfcrypt\src/asn.c ****         return MEMORY_E;
2256:..\acn-sdk-c\src\wolfSSL\wolfcrypt\src/asn.c **** #endif
2257:..\acn-sdk-c\src\wolfSSL\wolfcrypt\src/asn.c **** 
2258:..\acn-sdk-c\src\wolfSSL\wolfcrypt\src/asn.c ****     if (GetInt(mpi, cert->source, &cert->srcIdx, cert->maxIdx) < 0) {
2259:..\acn-sdk-c\src\wolfSSL\wolfcrypt\src/asn.c **** #if defined(WOLFSSL_SMALL_STACK) && defined(USE_FAST_MATH)
2260:..\acn-sdk-c\src\wolfSSL\wolfcrypt\src/asn.c ****         XFREE(mpi, NULL, DYNAMIC_TYPE_TMP_BUFFER);
2261:..\acn-sdk-c\src\wolfSSL\wolfcrypt\src/asn.c **** #endif
2262:..\acn-sdk-c\src\wolfSSL\wolfcrypt\src/asn.c ****         return ASN_PARSE_E;
2263:..\acn-sdk-c\src\wolfSSL\wolfcrypt\src/asn.c ****     }
2264:..\acn-sdk-c\src\wolfSSL\wolfcrypt\src/asn.c **** 
2265:..\acn-sdk-c\src\wolfSSL\wolfcrypt\src/asn.c ****     len = mp_unsigned_bin_size(mpi);
2266:..\acn-sdk-c\src\wolfSSL\wolfcrypt\src/asn.c ****     if (len < (int)sizeof(serialTmp)) {
2267:..\acn-sdk-c\src\wolfSSL\wolfcrypt\src/asn.c ****         if ( (ret = mp_to_unsigned_bin(mpi, serialTmp)) == MP_OKAY) {
2268:..\acn-sdk-c\src\wolfSSL\wolfcrypt\src/asn.c ****             XMEMCPY(cert->serial, serialTmp, len);
2269:..\acn-sdk-c\src\wolfSSL\wolfcrypt\src/asn.c ****             cert->serialSz = len;
2270:..\acn-sdk-c\src\wolfSSL\wolfcrypt\src/asn.c ****         }
2271:..\acn-sdk-c\src\wolfSSL\wolfcrypt\src/asn.c ****     }
2272:..\acn-sdk-c\src\wolfSSL\wolfcrypt\src/asn.c ****     mp_clear(mpi);
2273:..\acn-sdk-c\src\wolfSSL\wolfcrypt\src/asn.c **** 
2274:..\acn-sdk-c\src\wolfSSL\wolfcrypt\src/asn.c **** #if defined(WOLFSSL_SMALL_STACK) && defined(USE_FAST_MATH)
2275:..\acn-sdk-c\src\wolfSSL\wolfcrypt\src/asn.c ****     XFREE(mpi, NULL, DYNAMIC_TYPE_TMP_BUFFER);
2276:..\acn-sdk-c\src\wolfSSL\wolfcrypt\src/asn.c **** #endif
2277:..\acn-sdk-c\src\wolfSSL\wolfcrypt\src/asn.c **** 
2278:..\acn-sdk-c\src\wolfSSL\wolfcrypt\src/asn.c ****     return ret;
2279:..\acn-sdk-c\src\wolfSSL\wolfcrypt\src/asn.c **** }
2280:..\acn-sdk-c\src\wolfSSL\wolfcrypt\src/asn.c **** 
2281:..\acn-sdk-c\src\wolfSSL\wolfcrypt\src/asn.c **** #if !defined(NO_RSA)
2282:..\acn-sdk-c\src\wolfSSL\wolfcrypt\src/asn.c **** /* Store Rsa Key, may save later, Dsa could use in future */
2283:..\acn-sdk-c\src\wolfSSL\wolfcrypt\src/asn.c **** static int StoreRsaKey(DecodedCert* cert)
2284:..\acn-sdk-c\src\wolfSSL\wolfcrypt\src/asn.c **** {
ARM GAS  C:\Users\ddemidov\AppData\Local\Temp\ccPZV1ly.s 			page 54


2285:..\acn-sdk-c\src\wolfSSL\wolfcrypt\src/asn.c ****     int    length;
2286:..\acn-sdk-c\src\wolfSSL\wolfcrypt\src/asn.c ****     word32 recvd = cert->srcIdx;
2287:..\acn-sdk-c\src\wolfSSL\wolfcrypt\src/asn.c **** 
2288:..\acn-sdk-c\src\wolfSSL\wolfcrypt\src/asn.c ****     if (GetSequence(cert->source, &cert->srcIdx, &length, cert->maxIdx) < 0)
2289:..\acn-sdk-c\src\wolfSSL\wolfcrypt\src/asn.c ****         return ASN_PARSE_E;
2290:..\acn-sdk-c\src\wolfSSL\wolfcrypt\src/asn.c **** 
2291:..\acn-sdk-c\src\wolfSSL\wolfcrypt\src/asn.c ****     recvd = cert->srcIdx - recvd;
2292:..\acn-sdk-c\src\wolfSSL\wolfcrypt\src/asn.c ****     length += recvd;
2293:..\acn-sdk-c\src\wolfSSL\wolfcrypt\src/asn.c **** 
2294:..\acn-sdk-c\src\wolfSSL\wolfcrypt\src/asn.c ****     while (recvd--)
2295:..\acn-sdk-c\src\wolfSSL\wolfcrypt\src/asn.c ****        cert->srcIdx--;
2296:..\acn-sdk-c\src\wolfSSL\wolfcrypt\src/asn.c **** 
2297:..\acn-sdk-c\src\wolfSSL\wolfcrypt\src/asn.c ****     cert->pubKeySize = length;
2298:..\acn-sdk-c\src\wolfSSL\wolfcrypt\src/asn.c ****     cert->publicKey = cert->source + cert->srcIdx;
2299:..\acn-sdk-c\src\wolfSSL\wolfcrypt\src/asn.c ****     cert->srcIdx += length;
2300:..\acn-sdk-c\src\wolfSSL\wolfcrypt\src/asn.c **** 
2301:..\acn-sdk-c\src\wolfSSL\wolfcrypt\src/asn.c ****     return 0;
2302:..\acn-sdk-c\src\wolfSSL\wolfcrypt\src/asn.c **** }
2303:..\acn-sdk-c\src\wolfSSL\wolfcrypt\src/asn.c **** #endif
2304:..\acn-sdk-c\src\wolfSSL\wolfcrypt\src/asn.c **** #endif /* !NO_ASN_TIME */
2305:..\acn-sdk-c\src\wolfSSL\wolfcrypt\src/asn.c **** 
2306:..\acn-sdk-c\src\wolfSSL\wolfcrypt\src/asn.c **** 
2307:..\acn-sdk-c\src\wolfSSL\wolfcrypt\src/asn.c **** #ifdef HAVE_ECC
2308:..\acn-sdk-c\src\wolfSSL\wolfcrypt\src/asn.c **** 
2309:..\acn-sdk-c\src\wolfSSL\wolfcrypt\src/asn.c ****     /* return 0 on success if the ECC curve oid sum is supported */
2310:..\acn-sdk-c\src\wolfSSL\wolfcrypt\src/asn.c ****     static int CheckCurve(word32 oid)
2311:..\acn-sdk-c\src\wolfSSL\wolfcrypt\src/asn.c ****     {
2312:..\acn-sdk-c\src\wolfSSL\wolfcrypt\src/asn.c ****         int ret = 0;
2313:..\acn-sdk-c\src\wolfSSL\wolfcrypt\src/asn.c **** 
2314:..\acn-sdk-c\src\wolfSSL\wolfcrypt\src/asn.c ****         switch (oid) {
2315:..\acn-sdk-c\src\wolfSSL\wolfcrypt\src/asn.c **** #if defined(HAVE_ALL_CURVES) || defined(HAVE_ECC160)
2316:..\acn-sdk-c\src\wolfSSL\wolfcrypt\src/asn.c ****             case ECC_160R1:
2317:..\acn-sdk-c\src\wolfSSL\wolfcrypt\src/asn.c **** #endif
2318:..\acn-sdk-c\src\wolfSSL\wolfcrypt\src/asn.c **** #if defined(HAVE_ALL_CURVES) || defined(HAVE_ECC192)
2319:..\acn-sdk-c\src\wolfSSL\wolfcrypt\src/asn.c ****             case ECC_192R1:
2320:..\acn-sdk-c\src\wolfSSL\wolfcrypt\src/asn.c **** #endif
2321:..\acn-sdk-c\src\wolfSSL\wolfcrypt\src/asn.c **** #if defined(HAVE_ALL_CURVES) || defined(HAVE_ECC224)
2322:..\acn-sdk-c\src\wolfSSL\wolfcrypt\src/asn.c ****             case ECC_224R1:
2323:..\acn-sdk-c\src\wolfSSL\wolfcrypt\src/asn.c **** #endif
2324:..\acn-sdk-c\src\wolfSSL\wolfcrypt\src/asn.c **** #if defined(HAVE_ALL_CURVES) || !defined(NO_ECC256)
2325:..\acn-sdk-c\src\wolfSSL\wolfcrypt\src/asn.c ****             case ECC_256R1:
2326:..\acn-sdk-c\src\wolfSSL\wolfcrypt\src/asn.c **** #endif
2327:..\acn-sdk-c\src\wolfSSL\wolfcrypt\src/asn.c **** #if defined(HAVE_ALL_CURVES) || defined(HAVE_ECC384)
2328:..\acn-sdk-c\src\wolfSSL\wolfcrypt\src/asn.c ****             case ECC_384R1:
2329:..\acn-sdk-c\src\wolfSSL\wolfcrypt\src/asn.c **** #endif
2330:..\acn-sdk-c\src\wolfSSL\wolfcrypt\src/asn.c **** #if defined(HAVE_ALL_CURVES) || defined(HAVE_ECC521)
2331:..\acn-sdk-c\src\wolfSSL\wolfcrypt\src/asn.c ****             case ECC_521R1:
2332:..\acn-sdk-c\src\wolfSSL\wolfcrypt\src/asn.c **** #endif
2333:..\acn-sdk-c\src\wolfSSL\wolfcrypt\src/asn.c ****                 break;
2334:..\acn-sdk-c\src\wolfSSL\wolfcrypt\src/asn.c **** 
2335:..\acn-sdk-c\src\wolfSSL\wolfcrypt\src/asn.c ****             default:
2336:..\acn-sdk-c\src\wolfSSL\wolfcrypt\src/asn.c ****                 ret = ALGO_ID_E;
2337:..\acn-sdk-c\src\wolfSSL\wolfcrypt\src/asn.c ****         }
2338:..\acn-sdk-c\src\wolfSSL\wolfcrypt\src/asn.c **** 
2339:..\acn-sdk-c\src\wolfSSL\wolfcrypt\src/asn.c ****         return ret;
2340:..\acn-sdk-c\src\wolfSSL\wolfcrypt\src/asn.c ****     }
2341:..\acn-sdk-c\src\wolfSSL\wolfcrypt\src/asn.c **** 
ARM GAS  C:\Users\ddemidov\AppData\Local\Temp\ccPZV1ly.s 			page 55


2342:..\acn-sdk-c\src\wolfSSL\wolfcrypt\src/asn.c **** #endif /* HAVE_ECC */
2343:..\acn-sdk-c\src\wolfSSL\wolfcrypt\src/asn.c **** 
2344:..\acn-sdk-c\src\wolfSSL\wolfcrypt\src/asn.c **** #ifndef NO_ASN_TIME
2345:..\acn-sdk-c\src\wolfSSL\wolfcrypt\src/asn.c **** static int GetKey(DecodedCert* cert)
2346:..\acn-sdk-c\src\wolfSSL\wolfcrypt\src/asn.c **** {
2347:..\acn-sdk-c\src\wolfSSL\wolfcrypt\src/asn.c ****     int length;
2348:..\acn-sdk-c\src\wolfSSL\wolfcrypt\src/asn.c **** #ifdef HAVE_NTRU
2349:..\acn-sdk-c\src\wolfSSL\wolfcrypt\src/asn.c ****     int tmpIdx = cert->srcIdx;
2350:..\acn-sdk-c\src\wolfSSL\wolfcrypt\src/asn.c **** #endif
2351:..\acn-sdk-c\src\wolfSSL\wolfcrypt\src/asn.c **** 
2352:..\acn-sdk-c\src\wolfSSL\wolfcrypt\src/asn.c ****     if (GetSequence(cert->source, &cert->srcIdx, &length, cert->maxIdx) < 0)
2353:..\acn-sdk-c\src\wolfSSL\wolfcrypt\src/asn.c ****         return ASN_PARSE_E;
2354:..\acn-sdk-c\src\wolfSSL\wolfcrypt\src/asn.c **** 
2355:..\acn-sdk-c\src\wolfSSL\wolfcrypt\src/asn.c ****     if (GetAlgoId(cert->source, &cert->srcIdx,
2356:..\acn-sdk-c\src\wolfSSL\wolfcrypt\src/asn.c ****                   &cert->keyOID, keyType, cert->maxIdx) < 0)
2357:..\acn-sdk-c\src\wolfSSL\wolfcrypt\src/asn.c ****         return ASN_PARSE_E;
2358:..\acn-sdk-c\src\wolfSSL\wolfcrypt\src/asn.c **** 
2359:..\acn-sdk-c\src\wolfSSL\wolfcrypt\src/asn.c ****     switch (cert->keyOID) {
2360:..\acn-sdk-c\src\wolfSSL\wolfcrypt\src/asn.c ****    #ifndef NO_RSA
2361:..\acn-sdk-c\src\wolfSSL\wolfcrypt\src/asn.c ****         case RSAk:
2362:..\acn-sdk-c\src\wolfSSL\wolfcrypt\src/asn.c ****         {
2363:..\acn-sdk-c\src\wolfSSL\wolfcrypt\src/asn.c ****             byte b = cert->source[cert->srcIdx++];
2364:..\acn-sdk-c\src\wolfSSL\wolfcrypt\src/asn.c ****             if (b != ASN_BIT_STRING)
2365:..\acn-sdk-c\src\wolfSSL\wolfcrypt\src/asn.c ****                 return ASN_BITSTR_E;
2366:..\acn-sdk-c\src\wolfSSL\wolfcrypt\src/asn.c **** 
2367:..\acn-sdk-c\src\wolfSSL\wolfcrypt\src/asn.c ****             if (GetLength(cert->source,&cert->srcIdx,&length,cert->maxIdx) < 0)
2368:..\acn-sdk-c\src\wolfSSL\wolfcrypt\src/asn.c ****                 return ASN_PARSE_E;
2369:..\acn-sdk-c\src\wolfSSL\wolfcrypt\src/asn.c ****             b = cert->source[cert->srcIdx++];
2370:..\acn-sdk-c\src\wolfSSL\wolfcrypt\src/asn.c ****             if (b != 0x00)
2371:..\acn-sdk-c\src\wolfSSL\wolfcrypt\src/asn.c ****                 return ASN_EXPECT_0_E;
2372:..\acn-sdk-c\src\wolfSSL\wolfcrypt\src/asn.c **** 
2373:..\acn-sdk-c\src\wolfSSL\wolfcrypt\src/asn.c ****             return StoreRsaKey(cert);
2374:..\acn-sdk-c\src\wolfSSL\wolfcrypt\src/asn.c ****         }
2375:..\acn-sdk-c\src\wolfSSL\wolfcrypt\src/asn.c **** 
2376:..\acn-sdk-c\src\wolfSSL\wolfcrypt\src/asn.c ****     #endif /* NO_RSA */
2377:..\acn-sdk-c\src\wolfSSL\wolfcrypt\src/asn.c ****     #ifdef HAVE_NTRU
2378:..\acn-sdk-c\src\wolfSSL\wolfcrypt\src/asn.c ****         case NTRUk:
2379:..\acn-sdk-c\src\wolfSSL\wolfcrypt\src/asn.c ****         {
2380:..\acn-sdk-c\src\wolfSSL\wolfcrypt\src/asn.c ****             const byte* key = &cert->source[tmpIdx];
2381:..\acn-sdk-c\src\wolfSSL\wolfcrypt\src/asn.c ****             byte*       next = (byte*)key;
2382:..\acn-sdk-c\src\wolfSSL\wolfcrypt\src/asn.c ****             word16      keyLen;
2383:..\acn-sdk-c\src\wolfSSL\wolfcrypt\src/asn.c ****             word32      rc;
2384:..\acn-sdk-c\src\wolfSSL\wolfcrypt\src/asn.c ****             word32      remaining = cert->maxIdx - cert->srcIdx;
2385:..\acn-sdk-c\src\wolfSSL\wolfcrypt\src/asn.c **** #ifdef WOLFSSL_SMALL_STACK
2386:..\acn-sdk-c\src\wolfSSL\wolfcrypt\src/asn.c ****             byte*       keyBlob = NULL;
2387:..\acn-sdk-c\src\wolfSSL\wolfcrypt\src/asn.c **** #else
2388:..\acn-sdk-c\src\wolfSSL\wolfcrypt\src/asn.c ****             byte        keyBlob[MAX_NTRU_KEY_SZ];
2389:..\acn-sdk-c\src\wolfSSL\wolfcrypt\src/asn.c **** #endif
2390:..\acn-sdk-c\src\wolfSSL\wolfcrypt\src/asn.c ****             rc = ntru_crypto_ntru_encrypt_subjectPublicKeyInfo2PublicKey(key,
2391:..\acn-sdk-c\src\wolfSSL\wolfcrypt\src/asn.c ****                                 &keyLen, NULL, &next, &remaining);
2392:..\acn-sdk-c\src\wolfSSL\wolfcrypt\src/asn.c ****             if (rc != NTRU_OK)
2393:..\acn-sdk-c\src\wolfSSL\wolfcrypt\src/asn.c ****                 return ASN_NTRU_KEY_E;
2394:..\acn-sdk-c\src\wolfSSL\wolfcrypt\src/asn.c ****             if (keyLen > MAX_NTRU_KEY_SZ)
2395:..\acn-sdk-c\src\wolfSSL\wolfcrypt\src/asn.c ****                 return ASN_NTRU_KEY_E;
2396:..\acn-sdk-c\src\wolfSSL\wolfcrypt\src/asn.c **** 
2397:..\acn-sdk-c\src\wolfSSL\wolfcrypt\src/asn.c **** #ifdef WOLFSSL_SMALL_STACK
2398:..\acn-sdk-c\src\wolfSSL\wolfcrypt\src/asn.c ****             keyBlob = (byte*)XMALLOC(MAX_NTRU_KEY_SZ, NULL,
ARM GAS  C:\Users\ddemidov\AppData\Local\Temp\ccPZV1ly.s 			page 56


2399:..\acn-sdk-c\src\wolfSSL\wolfcrypt\src/asn.c ****                                      DYNAMIC_TYPE_TMP_BUFFER);
2400:..\acn-sdk-c\src\wolfSSL\wolfcrypt\src/asn.c ****             if (keyBlob == NULL)
2401:..\acn-sdk-c\src\wolfSSL\wolfcrypt\src/asn.c ****                 return MEMORY_E;
2402:..\acn-sdk-c\src\wolfSSL\wolfcrypt\src/asn.c **** #endif
2403:..\acn-sdk-c\src\wolfSSL\wolfcrypt\src/asn.c **** 
2404:..\acn-sdk-c\src\wolfSSL\wolfcrypt\src/asn.c ****             rc = ntru_crypto_ntru_encrypt_subjectPublicKeyInfo2PublicKey(key,
2405:..\acn-sdk-c\src\wolfSSL\wolfcrypt\src/asn.c ****                                 &keyLen, keyBlob, &next, &remaining);
2406:..\acn-sdk-c\src\wolfSSL\wolfcrypt\src/asn.c ****             if (rc != NTRU_OK) {
2407:..\acn-sdk-c\src\wolfSSL\wolfcrypt\src/asn.c **** #ifdef WOLFSSL_SMALL_STACK
2408:..\acn-sdk-c\src\wolfSSL\wolfcrypt\src/asn.c ****                 XFREE(keyBlob, NULL, DYNAMIC_TYPE_TMP_BUFFER);
2409:..\acn-sdk-c\src\wolfSSL\wolfcrypt\src/asn.c **** #endif
2410:..\acn-sdk-c\src\wolfSSL\wolfcrypt\src/asn.c ****                 return ASN_NTRU_KEY_E;
2411:..\acn-sdk-c\src\wolfSSL\wolfcrypt\src/asn.c ****             }
2412:..\acn-sdk-c\src\wolfSSL\wolfcrypt\src/asn.c **** 
2413:..\acn-sdk-c\src\wolfSSL\wolfcrypt\src/asn.c ****             if ( (next - key) < 0) {
2414:..\acn-sdk-c\src\wolfSSL\wolfcrypt\src/asn.c **** #ifdef WOLFSSL_SMALL_STACK
2415:..\acn-sdk-c\src\wolfSSL\wolfcrypt\src/asn.c ****                 XFREE(keyBlob, NULL, DYNAMIC_TYPE_TMP_BUFFER);
2416:..\acn-sdk-c\src\wolfSSL\wolfcrypt\src/asn.c **** #endif
2417:..\acn-sdk-c\src\wolfSSL\wolfcrypt\src/asn.c ****                 return ASN_NTRU_KEY_E;
2418:..\acn-sdk-c\src\wolfSSL\wolfcrypt\src/asn.c ****             }
2419:..\acn-sdk-c\src\wolfSSL\wolfcrypt\src/asn.c **** 
2420:..\acn-sdk-c\src\wolfSSL\wolfcrypt\src/asn.c ****             cert->srcIdx = tmpIdx + (int)(next - key);
2421:..\acn-sdk-c\src\wolfSSL\wolfcrypt\src/asn.c **** 
2422:..\acn-sdk-c\src\wolfSSL\wolfcrypt\src/asn.c ****             cert->publicKey = (byte*) XMALLOC(keyLen, cert->heap,
2423:..\acn-sdk-c\src\wolfSSL\wolfcrypt\src/asn.c ****                                               DYNAMIC_TYPE_PUBLIC_KEY);
2424:..\acn-sdk-c\src\wolfSSL\wolfcrypt\src/asn.c ****             if (cert->publicKey == NULL) {
2425:..\acn-sdk-c\src\wolfSSL\wolfcrypt\src/asn.c **** #ifdef WOLFSSL_SMALL_STACK
2426:..\acn-sdk-c\src\wolfSSL\wolfcrypt\src/asn.c ****                 XFREE(keyBlob, NULL, DYNAMIC_TYPE_TMP_BUFFER);
2427:..\acn-sdk-c\src\wolfSSL\wolfcrypt\src/asn.c **** #endif
2428:..\acn-sdk-c\src\wolfSSL\wolfcrypt\src/asn.c ****                 return MEMORY_E;
2429:..\acn-sdk-c\src\wolfSSL\wolfcrypt\src/asn.c ****             }
2430:..\acn-sdk-c\src\wolfSSL\wolfcrypt\src/asn.c ****             XMEMCPY(cert->publicKey, keyBlob, keyLen);
2431:..\acn-sdk-c\src\wolfSSL\wolfcrypt\src/asn.c ****             cert->pubKeyStored = 1;
2432:..\acn-sdk-c\src\wolfSSL\wolfcrypt\src/asn.c ****             cert->pubKeySize   = keyLen;
2433:..\acn-sdk-c\src\wolfSSL\wolfcrypt\src/asn.c **** 
2434:..\acn-sdk-c\src\wolfSSL\wolfcrypt\src/asn.c **** #ifdef WOLFSSL_SMALL_STACK
2435:..\acn-sdk-c\src\wolfSSL\wolfcrypt\src/asn.c ****             XFREE(keyBlob, NULL, DYNAMIC_TYPE_TMP_BUFFER);
2436:..\acn-sdk-c\src\wolfSSL\wolfcrypt\src/asn.c **** #endif
2437:..\acn-sdk-c\src\wolfSSL\wolfcrypt\src/asn.c **** 
2438:..\acn-sdk-c\src\wolfSSL\wolfcrypt\src/asn.c ****             return 0;
2439:..\acn-sdk-c\src\wolfSSL\wolfcrypt\src/asn.c ****         }
2440:..\acn-sdk-c\src\wolfSSL\wolfcrypt\src/asn.c ****     #endif /* HAVE_NTRU */
2441:..\acn-sdk-c\src\wolfSSL\wolfcrypt\src/asn.c ****     #ifdef HAVE_ECC
2442:..\acn-sdk-c\src\wolfSSL\wolfcrypt\src/asn.c ****         case ECDSAk:
2443:..\acn-sdk-c\src\wolfSSL\wolfcrypt\src/asn.c ****         {
2444:..\acn-sdk-c\src\wolfSSL\wolfcrypt\src/asn.c ****             byte b;
2445:..\acn-sdk-c\src\wolfSSL\wolfcrypt\src/asn.c **** 
2446:..\acn-sdk-c\src\wolfSSL\wolfcrypt\src/asn.c ****             if (GetObjectId(cert->source, &cert->srcIdx,
2447:..\acn-sdk-c\src\wolfSSL\wolfcrypt\src/asn.c ****                             &cert->pkCurveOID, curveType, cert->maxIdx) < 0)
2448:..\acn-sdk-c\src\wolfSSL\wolfcrypt\src/asn.c ****                 return ASN_PARSE_E;
2449:..\acn-sdk-c\src\wolfSSL\wolfcrypt\src/asn.c **** 
2450:..\acn-sdk-c\src\wolfSSL\wolfcrypt\src/asn.c ****             if (CheckCurve(cert->pkCurveOID) < 0)
2451:..\acn-sdk-c\src\wolfSSL\wolfcrypt\src/asn.c ****                 return ECC_CURVE_OID_E;
2452:..\acn-sdk-c\src\wolfSSL\wolfcrypt\src/asn.c **** 
2453:..\acn-sdk-c\src\wolfSSL\wolfcrypt\src/asn.c ****             /* key header */
2454:..\acn-sdk-c\src\wolfSSL\wolfcrypt\src/asn.c ****             b = cert->source[cert->srcIdx++];
2455:..\acn-sdk-c\src\wolfSSL\wolfcrypt\src/asn.c ****             if (b != ASN_BIT_STRING)
ARM GAS  C:\Users\ddemidov\AppData\Local\Temp\ccPZV1ly.s 			page 57


2456:..\acn-sdk-c\src\wolfSSL\wolfcrypt\src/asn.c ****                 return ASN_BITSTR_E;
2457:..\acn-sdk-c\src\wolfSSL\wolfcrypt\src/asn.c **** 
2458:..\acn-sdk-c\src\wolfSSL\wolfcrypt\src/asn.c ****             if (GetLength(cert->source,&cert->srcIdx,&length,cert->maxIdx) < 0)
2459:..\acn-sdk-c\src\wolfSSL\wolfcrypt\src/asn.c ****                 return ASN_PARSE_E;
2460:..\acn-sdk-c\src\wolfSSL\wolfcrypt\src/asn.c ****             b = cert->source[cert->srcIdx++];
2461:..\acn-sdk-c\src\wolfSSL\wolfcrypt\src/asn.c ****             if (b != 0x00)
2462:..\acn-sdk-c\src\wolfSSL\wolfcrypt\src/asn.c ****                 return ASN_EXPECT_0_E;
2463:..\acn-sdk-c\src\wolfSSL\wolfcrypt\src/asn.c **** 
2464:..\acn-sdk-c\src\wolfSSL\wolfcrypt\src/asn.c ****             /* actual key, use length - 1 since ate preceding 0 */
2465:..\acn-sdk-c\src\wolfSSL\wolfcrypt\src/asn.c ****             length -= 1;
2466:..\acn-sdk-c\src\wolfSSL\wolfcrypt\src/asn.c **** 
2467:..\acn-sdk-c\src\wolfSSL\wolfcrypt\src/asn.c ****             cert->publicKey = (byte*) XMALLOC(length, cert->heap,
2468:..\acn-sdk-c\src\wolfSSL\wolfcrypt\src/asn.c ****                                               DYNAMIC_TYPE_PUBLIC_KEY);
2469:..\acn-sdk-c\src\wolfSSL\wolfcrypt\src/asn.c ****             if (cert->publicKey == NULL)
2470:..\acn-sdk-c\src\wolfSSL\wolfcrypt\src/asn.c ****                 return MEMORY_E;
2471:..\acn-sdk-c\src\wolfSSL\wolfcrypt\src/asn.c ****             XMEMCPY(cert->publicKey, &cert->source[cert->srcIdx], length);
2472:..\acn-sdk-c\src\wolfSSL\wolfcrypt\src/asn.c ****             cert->pubKeyStored = 1;
2473:..\acn-sdk-c\src\wolfSSL\wolfcrypt\src/asn.c ****             cert->pubKeySize   = length;
2474:..\acn-sdk-c\src\wolfSSL\wolfcrypt\src/asn.c **** 
2475:..\acn-sdk-c\src\wolfSSL\wolfcrypt\src/asn.c ****             cert->srcIdx += length;
2476:..\acn-sdk-c\src\wolfSSL\wolfcrypt\src/asn.c **** 
2477:..\acn-sdk-c\src\wolfSSL\wolfcrypt\src/asn.c ****             return 0;
2478:..\acn-sdk-c\src\wolfSSL\wolfcrypt\src/asn.c ****         }
2479:..\acn-sdk-c\src\wolfSSL\wolfcrypt\src/asn.c ****     #endif /* HAVE_ECC */
2480:..\acn-sdk-c\src\wolfSSL\wolfcrypt\src/asn.c ****         default:
2481:..\acn-sdk-c\src\wolfSSL\wolfcrypt\src/asn.c ****             return ASN_UNKNOWN_OID_E;
2482:..\acn-sdk-c\src\wolfSSL\wolfcrypt\src/asn.c ****     }
2483:..\acn-sdk-c\src\wolfSSL\wolfcrypt\src/asn.c **** }
2484:..\acn-sdk-c\src\wolfSSL\wolfcrypt\src/asn.c **** 
2485:..\acn-sdk-c\src\wolfSSL\wolfcrypt\src/asn.c **** 
2486:..\acn-sdk-c\src\wolfSSL\wolfcrypt\src/asn.c **** /* process NAME, either issuer or subject */
2487:..\acn-sdk-c\src\wolfSSL\wolfcrypt\src/asn.c **** static int GetName(DecodedCert* cert, int nameType)
2488:..\acn-sdk-c\src\wolfSSL\wolfcrypt\src/asn.c **** {
2489:..\acn-sdk-c\src\wolfSSL\wolfcrypt\src/asn.c ****     int    length;  /* length of all distinguished names */
2490:..\acn-sdk-c\src\wolfSSL\wolfcrypt\src/asn.c ****     int    dummy;
2491:..\acn-sdk-c\src\wolfSSL\wolfcrypt\src/asn.c ****     int    ret;
2492:..\acn-sdk-c\src\wolfSSL\wolfcrypt\src/asn.c ****     char*  full;
2493:..\acn-sdk-c\src\wolfSSL\wolfcrypt\src/asn.c ****     byte*  hash;
2494:..\acn-sdk-c\src\wolfSSL\wolfcrypt\src/asn.c ****     word32 idx;
2495:..\acn-sdk-c\src\wolfSSL\wolfcrypt\src/asn.c ****     #ifdef OPENSSL_EXTRA
2496:..\acn-sdk-c\src\wolfSSL\wolfcrypt\src/asn.c ****         DecodedName* dName =
2497:..\acn-sdk-c\src\wolfSSL\wolfcrypt\src/asn.c ****                   (nameType == ISSUER) ? &cert->issuerName : &cert->subjectName;
2498:..\acn-sdk-c\src\wolfSSL\wolfcrypt\src/asn.c ****     #endif /* OPENSSL_EXTRA */
2499:..\acn-sdk-c\src\wolfSSL\wolfcrypt\src/asn.c **** 
2500:..\acn-sdk-c\src\wolfSSL\wolfcrypt\src/asn.c ****     WOLFSSL_MSG("Getting Cert Name");
2501:..\acn-sdk-c\src\wolfSSL\wolfcrypt\src/asn.c **** 
2502:..\acn-sdk-c\src\wolfSSL\wolfcrypt\src/asn.c ****     if (nameType == ISSUER) {
2503:..\acn-sdk-c\src\wolfSSL\wolfcrypt\src/asn.c ****         full = cert->issuer;
2504:..\acn-sdk-c\src\wolfSSL\wolfcrypt\src/asn.c ****         hash = cert->issuerHash;
2505:..\acn-sdk-c\src\wolfSSL\wolfcrypt\src/asn.c ****     }
2506:..\acn-sdk-c\src\wolfSSL\wolfcrypt\src/asn.c ****     else {
2507:..\acn-sdk-c\src\wolfSSL\wolfcrypt\src/asn.c ****         full = cert->subject;
2508:..\acn-sdk-c\src\wolfSSL\wolfcrypt\src/asn.c ****         hash = cert->subjectHash;
2509:..\acn-sdk-c\src\wolfSSL\wolfcrypt\src/asn.c ****     }
2510:..\acn-sdk-c\src\wolfSSL\wolfcrypt\src/asn.c **** 
2511:..\acn-sdk-c\src\wolfSSL\wolfcrypt\src/asn.c ****     if (cert->source[cert->srcIdx] == ASN_OBJECT_ID) {
2512:..\acn-sdk-c\src\wolfSSL\wolfcrypt\src/asn.c ****         WOLFSSL_MSG("Trying optional prefix...");
ARM GAS  C:\Users\ddemidov\AppData\Local\Temp\ccPZV1ly.s 			page 58


2513:..\acn-sdk-c\src\wolfSSL\wolfcrypt\src/asn.c **** 
2514:..\acn-sdk-c\src\wolfSSL\wolfcrypt\src/asn.c ****         if (GetLength(cert->source, &cert->srcIdx, &length, cert->maxIdx) < 0)
2515:..\acn-sdk-c\src\wolfSSL\wolfcrypt\src/asn.c ****             return ASN_PARSE_E;
2516:..\acn-sdk-c\src\wolfSSL\wolfcrypt\src/asn.c **** 
2517:..\acn-sdk-c\src\wolfSSL\wolfcrypt\src/asn.c ****         cert->srcIdx += length;
2518:..\acn-sdk-c\src\wolfSSL\wolfcrypt\src/asn.c ****         WOLFSSL_MSG("Got optional prefix");
2519:..\acn-sdk-c\src\wolfSSL\wolfcrypt\src/asn.c ****     }
2520:..\acn-sdk-c\src\wolfSSL\wolfcrypt\src/asn.c **** 
2521:..\acn-sdk-c\src\wolfSSL\wolfcrypt\src/asn.c ****     /* For OCSP, RFC2560 section 4.1.1 states the issuer hash should be
2522:..\acn-sdk-c\src\wolfSSL\wolfcrypt\src/asn.c ****      * calculated over the entire DER encoding of the Name field, including
2523:..\acn-sdk-c\src\wolfSSL\wolfcrypt\src/asn.c ****      * the tag and length. */
2524:..\acn-sdk-c\src\wolfSSL\wolfcrypt\src/asn.c ****     idx = cert->srcIdx;
2525:..\acn-sdk-c\src\wolfSSL\wolfcrypt\src/asn.c ****     if (GetSequence(cert->source, &cert->srcIdx, &length, cert->maxIdx) < 0)
2526:..\acn-sdk-c\src\wolfSSL\wolfcrypt\src/asn.c ****         return ASN_PARSE_E;
2527:..\acn-sdk-c\src\wolfSSL\wolfcrypt\src/asn.c **** 
2528:..\acn-sdk-c\src\wolfSSL\wolfcrypt\src/asn.c **** #ifdef NO_SHA
2529:..\acn-sdk-c\src\wolfSSL\wolfcrypt\src/asn.c ****     ret = wc_Sha256Hash(&cert->source[idx], length + cert->srcIdx - idx, hash);
2530:..\acn-sdk-c\src\wolfSSL\wolfcrypt\src/asn.c **** #else
2531:..\acn-sdk-c\src\wolfSSL\wolfcrypt\src/asn.c ****     ret = wc_ShaHash(&cert->source[idx], length + cert->srcIdx - idx, hash);
2532:..\acn-sdk-c\src\wolfSSL\wolfcrypt\src/asn.c **** #endif
2533:..\acn-sdk-c\src\wolfSSL\wolfcrypt\src/asn.c ****     if (ret != 0)
2534:..\acn-sdk-c\src\wolfSSL\wolfcrypt\src/asn.c ****         return ret;
2535:..\acn-sdk-c\src\wolfSSL\wolfcrypt\src/asn.c **** 
2536:..\acn-sdk-c\src\wolfSSL\wolfcrypt\src/asn.c ****     length += cert->srcIdx;
2537:..\acn-sdk-c\src\wolfSSL\wolfcrypt\src/asn.c ****     idx = 0;
2538:..\acn-sdk-c\src\wolfSSL\wolfcrypt\src/asn.c **** 
2539:..\acn-sdk-c\src\wolfSSL\wolfcrypt\src/asn.c **** #ifdef HAVE_PKCS7
2540:..\acn-sdk-c\src\wolfSSL\wolfcrypt\src/asn.c ****     /* store pointer to raw issuer */
2541:..\acn-sdk-c\src\wolfSSL\wolfcrypt\src/asn.c ****     if (nameType == ISSUER) {
2542:..\acn-sdk-c\src\wolfSSL\wolfcrypt\src/asn.c ****         cert->issuerRaw = &cert->source[cert->srcIdx];
2543:..\acn-sdk-c\src\wolfSSL\wolfcrypt\src/asn.c ****         cert->issuerRawLen = length - cert->srcIdx;
2544:..\acn-sdk-c\src\wolfSSL\wolfcrypt\src/asn.c ****     }
2545:..\acn-sdk-c\src\wolfSSL\wolfcrypt\src/asn.c **** #endif
2546:..\acn-sdk-c\src\wolfSSL\wolfcrypt\src/asn.c **** #ifndef IGNORE_NAME_CONSTRAINTS
2547:..\acn-sdk-c\src\wolfSSL\wolfcrypt\src/asn.c ****     if (nameType == SUBJECT) {
2548:..\acn-sdk-c\src\wolfSSL\wolfcrypt\src/asn.c ****         cert->subjectRaw = &cert->source[cert->srcIdx];
2549:..\acn-sdk-c\src\wolfSSL\wolfcrypt\src/asn.c ****         cert->subjectRawLen = length - cert->srcIdx;
2550:..\acn-sdk-c\src\wolfSSL\wolfcrypt\src/asn.c ****     }
2551:..\acn-sdk-c\src\wolfSSL\wolfcrypt\src/asn.c **** #endif
2552:..\acn-sdk-c\src\wolfSSL\wolfcrypt\src/asn.c **** 
2553:..\acn-sdk-c\src\wolfSSL\wolfcrypt\src/asn.c ****     while (cert->srcIdx < (word32)length) {
2554:..\acn-sdk-c\src\wolfSSL\wolfcrypt\src/asn.c ****         byte   b;
2555:..\acn-sdk-c\src\wolfSSL\wolfcrypt\src/asn.c ****         byte   joint[2];
2556:..\acn-sdk-c\src\wolfSSL\wolfcrypt\src/asn.c ****         byte   tooBig = FALSE;
2557:..\acn-sdk-c\src\wolfSSL\wolfcrypt\src/asn.c ****         int    oidSz;
2558:..\acn-sdk-c\src\wolfSSL\wolfcrypt\src/asn.c **** 
2559:..\acn-sdk-c\src\wolfSSL\wolfcrypt\src/asn.c ****         if (GetSet(cert->source, &cert->srcIdx, &dummy, cert->maxIdx) < 0) {
2560:..\acn-sdk-c\src\wolfSSL\wolfcrypt\src/asn.c ****             WOLFSSL_MSG("Cert name lacks set header, trying sequence");
2561:..\acn-sdk-c\src\wolfSSL\wolfcrypt\src/asn.c ****         }
2562:..\acn-sdk-c\src\wolfSSL\wolfcrypt\src/asn.c **** 
2563:..\acn-sdk-c\src\wolfSSL\wolfcrypt\src/asn.c ****         if (GetSequence(cert->source, &cert->srcIdx, &dummy, cert->maxIdx) < 0)
2564:..\acn-sdk-c\src\wolfSSL\wolfcrypt\src/asn.c ****             return ASN_PARSE_E;
2565:..\acn-sdk-c\src\wolfSSL\wolfcrypt\src/asn.c **** 
2566:..\acn-sdk-c\src\wolfSSL\wolfcrypt\src/asn.c ****         b = cert->source[cert->srcIdx++];
2567:..\acn-sdk-c\src\wolfSSL\wolfcrypt\src/asn.c ****         if (b != ASN_OBJECT_ID)
2568:..\acn-sdk-c\src\wolfSSL\wolfcrypt\src/asn.c ****             return ASN_OBJECT_ID_E;
2569:..\acn-sdk-c\src\wolfSSL\wolfcrypt\src/asn.c **** 
ARM GAS  C:\Users\ddemidov\AppData\Local\Temp\ccPZV1ly.s 			page 59


2570:..\acn-sdk-c\src\wolfSSL\wolfcrypt\src/asn.c ****         if (GetLength(cert->source, &cert->srcIdx, &oidSz, cert->maxIdx) < 0)
2571:..\acn-sdk-c\src\wolfSSL\wolfcrypt\src/asn.c ****             return ASN_PARSE_E;
2572:..\acn-sdk-c\src\wolfSSL\wolfcrypt\src/asn.c **** 
2573:..\acn-sdk-c\src\wolfSSL\wolfcrypt\src/asn.c ****         XMEMCPY(joint, &cert->source[cert->srcIdx], sizeof(joint));
2574:..\acn-sdk-c\src\wolfSSL\wolfcrypt\src/asn.c **** 
2575:..\acn-sdk-c\src\wolfSSL\wolfcrypt\src/asn.c ****         /* v1 name types */
2576:..\acn-sdk-c\src\wolfSSL\wolfcrypt\src/asn.c ****         if (joint[0] == 0x55 && joint[1] == 0x04) {
2577:..\acn-sdk-c\src\wolfSSL\wolfcrypt\src/asn.c ****             byte   id;
2578:..\acn-sdk-c\src\wolfSSL\wolfcrypt\src/asn.c ****             byte   copy = FALSE;
2579:..\acn-sdk-c\src\wolfSSL\wolfcrypt\src/asn.c ****             int    strLen;
2580:..\acn-sdk-c\src\wolfSSL\wolfcrypt\src/asn.c **** 
2581:..\acn-sdk-c\src\wolfSSL\wolfcrypt\src/asn.c ****             cert->srcIdx += 2;
2582:..\acn-sdk-c\src\wolfSSL\wolfcrypt\src/asn.c ****             id = cert->source[cert->srcIdx++];
2583:..\acn-sdk-c\src\wolfSSL\wolfcrypt\src/asn.c ****             b  = cert->source[cert->srcIdx++]; /* encoding */
2584:..\acn-sdk-c\src\wolfSSL\wolfcrypt\src/asn.c **** 
2585:..\acn-sdk-c\src\wolfSSL\wolfcrypt\src/asn.c ****             if (GetLength(cert->source, &cert->srcIdx, &strLen,
2586:..\acn-sdk-c\src\wolfSSL\wolfcrypt\src/asn.c ****                           cert->maxIdx) < 0)
2587:..\acn-sdk-c\src\wolfSSL\wolfcrypt\src/asn.c ****                 return ASN_PARSE_E;
2588:..\acn-sdk-c\src\wolfSSL\wolfcrypt\src/asn.c **** 
2589:..\acn-sdk-c\src\wolfSSL\wolfcrypt\src/asn.c ****             if ( (strLen + 14) > (int)(ASN_NAME_MAX - idx)) {
2590:..\acn-sdk-c\src\wolfSSL\wolfcrypt\src/asn.c ****                 /* include biggest pre fix header too 4 = "/serialNumber=" */
2591:..\acn-sdk-c\src\wolfSSL\wolfcrypt\src/asn.c ****                 WOLFSSL_MSG("ASN Name too big, skipping");
2592:..\acn-sdk-c\src\wolfSSL\wolfcrypt\src/asn.c ****                 tooBig = TRUE;
2593:..\acn-sdk-c\src\wolfSSL\wolfcrypt\src/asn.c ****             }
2594:..\acn-sdk-c\src\wolfSSL\wolfcrypt\src/asn.c **** 
2595:..\acn-sdk-c\src\wolfSSL\wolfcrypt\src/asn.c ****             if (id == ASN_COMMON_NAME) {
2596:..\acn-sdk-c\src\wolfSSL\wolfcrypt\src/asn.c ****                 if (nameType == SUBJECT) {
2597:..\acn-sdk-c\src\wolfSSL\wolfcrypt\src/asn.c ****                     cert->subjectCN = (char *)&cert->source[cert->srcIdx];
2598:..\acn-sdk-c\src\wolfSSL\wolfcrypt\src/asn.c ****                     cert->subjectCNLen = strLen;
2599:..\acn-sdk-c\src\wolfSSL\wolfcrypt\src/asn.c ****                     cert->subjectCNEnc = b;
2600:..\acn-sdk-c\src\wolfSSL\wolfcrypt\src/asn.c ****                 }
2601:..\acn-sdk-c\src\wolfSSL\wolfcrypt\src/asn.c **** 
2602:..\acn-sdk-c\src\wolfSSL\wolfcrypt\src/asn.c ****                 if (!tooBig) {
2603:..\acn-sdk-c\src\wolfSSL\wolfcrypt\src/asn.c ****                     XMEMCPY(&full[idx], "/CN=", 4);
2604:..\acn-sdk-c\src\wolfSSL\wolfcrypt\src/asn.c ****                     idx += 4;
2605:..\acn-sdk-c\src\wolfSSL\wolfcrypt\src/asn.c ****                     copy = TRUE;
2606:..\acn-sdk-c\src\wolfSSL\wolfcrypt\src/asn.c ****                 }
2607:..\acn-sdk-c\src\wolfSSL\wolfcrypt\src/asn.c ****                 #ifdef OPENSSL_EXTRA
2608:..\acn-sdk-c\src\wolfSSL\wolfcrypt\src/asn.c ****                     dName->cnIdx = cert->srcIdx;
2609:..\acn-sdk-c\src\wolfSSL\wolfcrypt\src/asn.c ****                     dName->cnLen = strLen;
2610:..\acn-sdk-c\src\wolfSSL\wolfcrypt\src/asn.c ****                 #endif /* OPENSSL_EXTRA */
