ARM GAS  C:\Users\ddemidov\AppData\Local\Temp\ccoL60no.s 			page 1


   1              		.cpu cortex-m0
   2              		.fpu softvfp
   3              		.eabi_attribute 20, 1
   4              		.eabi_attribute 21, 1
   5              		.eabi_attribute 23, 3
   6              		.eabi_attribute 24, 1
   7              		.eabi_attribute 25, 1
   8              		.eabi_attribute 26, 1
   9              		.eabi_attribute 30, 4
  10              		.eabi_attribute 34, 0
  11              		.eabi_attribute 18, 4
  12              		.code	16
  13              		.file	"client.c"
  14              		.text
  15              	.Ltext0:
  16              		.cfi_sections	.debug_frame
  17              		.global	__aeabi_uidiv
  18              		.global	__aeabi_uidivmod
  19              		.section	.text.ntp_set_time,"ax",%progbits
  20              		.align	1
  21              		.global	ntp_set_time
  22              		.code	16
  23              		.thumb_func
  24              		.type	ntp_set_time, %function
  25              	ntp_set_time:
  26              	.LFB0:
  27              		.file 1 "..\\acn-sdk-c\\src\\ntp\\client.c"
   1:..\acn-sdk-c\src\ntp/client.c **** /* Copyright (C) 2012 mbed.org, MIT License
   2:..\acn-sdk-c\src\ntp/client.c ****  *
   3:..\acn-sdk-c\src\ntp/client.c ****  * Permission is hereby granted, free of charge, to any person obtaining a copy of this software
   4:..\acn-sdk-c\src\ntp/client.c ****  * and associated documentation files (the "Software"), to deal in the Software without restriction
   5:..\acn-sdk-c\src\ntp/client.c ****  * including without limitation the rights to use, copy, modify, merge, publish, distribute,
   6:..\acn-sdk-c\src\ntp/client.c ****  * sublicense, and/or sell copies of the Software, and to permit persons to whom the Software is
   7:..\acn-sdk-c\src\ntp/client.c ****  * furnished to do so, subject to the following conditions:
   8:..\acn-sdk-c\src\ntp/client.c ****  *
   9:..\acn-sdk-c\src\ntp/client.c ****  * The above copyright notice and this permission notice shall be included in all copies or
  10:..\acn-sdk-c\src\ntp/client.c ****  * substantial portions of the Software.
  11:..\acn-sdk-c\src\ntp/client.c ****  *
  12:..\acn-sdk-c\src\ntp/client.c ****  * THE SOFTWARE IS PROVIDED "AS IS", WITHOUT WARRANTY OF ANY KIND, EXPRESS OR IMPLIED, INCLUDING
  13:..\acn-sdk-c\src\ntp/client.c ****  * BUT NOT LIMITED TO THE WARRANTIES OF MERCHANTABILITY, FITNESS FOR A PARTICULAR PURPOSE AND
  14:..\acn-sdk-c\src\ntp/client.c ****  * NONINFRINGEMENT. IN NO EVENT SHALL THE AUTHORS OR COPYRIGHT HOLDERS BE LIABLE FOR ANY CLAIM,
  15:..\acn-sdk-c\src\ntp/client.c ****  * DAMAGES OR OTHER LIABILITY, WHETHER IN AN ACTION OF CONTRACT, TORT OR OTHERWISE, ARISING FROM,
  16:..\acn-sdk-c\src\ntp/client.c ****  * OUT OF OR IN CONNECTION WITH THE SOFTWARE OR THE USE OR OTHER DEALINGS IN THE SOFTWARE.
  17:..\acn-sdk-c\src\ntp/client.c ****  */
  18:..\acn-sdk-c\src\ntp/client.c **** 
  19:..\acn-sdk-c\src\ntp/client.c **** //Debug is disabled by default
  20:..\acn-sdk-c\src\ntp/client.c **** #include "ntp/client.h"
  21:..\acn-sdk-c\src\ntp/client.c **** #include <debug.h>
  22:..\acn-sdk-c\src\ntp/client.c **** #include <bsd/socket.h>
  23:..\acn-sdk-c\src\ntp/client.c **** #include <time/time.h>
  24:..\acn-sdk-c\src\ntp/client.c **** #include <bsd/inet.h>
  25:..\acn-sdk-c\src\ntp/client.c **** 
  26:..\acn-sdk-c\src\ntp/client.c **** #define NTP_TIMESTAMP_DELTA 2208988800ull //Diff btw a UNIX timestamp (Starting Jan, 1st 1970) and 
  27:..\acn-sdk-c\src\ntp/client.c **** 
  28:..\acn-sdk-c\src\ntp/client.c **** int ntp_set_time(
  29:..\acn-sdk-c\src\ntp/client.c ****         const char* host,
  30:..\acn-sdk-c\src\ntp/client.c ****         uint16_t port,
ARM GAS  C:\Users\ddemidov\AppData\Local\Temp\ccoL60no.s 			page 2


  31:..\acn-sdk-c\src\ntp/client.c ****         uint32_t wait_option) {
  28              		.loc 1 31 0
  29              		.cfi_startproc
  30              	.LVL0:
  31 0000 F0B5     		push	{r4, r5, r6, r7, lr}
  32              		.cfi_def_cfa_offset 20
  33              		.cfi_offset 4, -20
  34              		.cfi_offset 5, -16
  35              		.cfi_offset 6, -12
  36              		.cfi_offset 7, -8
  37              		.cfi_offset 14, -4
  38 0002 061C     		mov	r6, r0
  39 0004 99B0     		sub	sp, sp, #100
  40              		.cfi_def_cfa_offset 120
  32:..\acn-sdk-c\src\ntp/client.c **** #ifdef DEBUG
  33:..\acn-sdk-c\src\ntp/client.c ****   time_t ctTime;
  34:..\acn-sdk-c\src\ntp/client.c ****   ctTime = time(NULL);
  41              		.loc 1 34 0
  42 0006 0020     		mov	r0, #0
  43              	.LVL1:
  31:..\acn-sdk-c\src\ntp/client.c **** #ifdef DEBUG
  44              		.loc 1 31 0
  45 0008 141C     		mov	r4, r2
  46 000a 0391     		str	r1, [sp, #12]
  47              		.loc 1 34 0
  48 000c FFF7FEFF 		bl	time
  49              	.LVL2:
  50 0010 0590     		str	r0, [sp, #20]
  35:..\acn-sdk-c\src\ntp/client.c ****   DBG("Time is set to (UTC): %s", ctime(&ctTime));
  51              		.loc 1 35 0
  52 0012 05A8     		add	r0, sp, #20
  53 0014 FFF7FEFF 		bl	ctime
  54              	.LVL3:
  55 0018 011C     		mov	r1, r0
  56 001a 7348     		ldr	r0, .L18
  57 001c FFF7FEFF 		bl	dbg_line
  58              	.LVL4:
  36:..\acn-sdk-c\src\ntp/client.c **** #endif
  37:..\acn-sdk-c\src\ntp/client.c **** 
  38:..\acn-sdk-c\src\ntp/client.c ****   struct NTPPacket pkt;
  39:..\acn-sdk-c\src\ntp/client.c **** 
  40:..\acn-sdk-c\src\ntp/client.c ****   int udp_sock;
  41:..\acn-sdk-c\src\ntp/client.c ****   socklen_t serverlen;
  42:..\acn-sdk-c\src\ntp/client.c ****   struct sockaddr_in serveraddr;
  43:..\acn-sdk-c\src\ntp/client.c ****   struct hostent *server;
  44:..\acn-sdk-c\src\ntp/client.c **** 
  45:..\acn-sdk-c\src\ntp/client.c ****   udp_sock = socket(AF_INET, SOCK_DGRAM, 0);
  59              		.loc 1 45 0
  60 0020 0220     		mov	r0, #2
  61 0022 0022     		mov	r2, #0
  62 0024 011C     		mov	r1, r0
  63 0026 FFF7FEFF 		bl	socket
  64              	.LVL5:
  65 002a 051E     		sub	r5, r0, #0
  66              	.LVL6:
  46:..\acn-sdk-c\src\ntp/client.c ****   if (udp_sock < 0) {
  67              		.loc 1 46 0
ARM GAS  C:\Users\ddemidov\AppData\Local\Temp\ccoL60no.s 			page 3


  68 002c 06DA     		bge	.L2
  47:..\acn-sdk-c\src\ntp/client.c ****       DBG("ERROR opening socket %d", udp_sock);
  69              		.loc 1 47 0
  70 002e 6F48     		ldr	r0, .L18+4
  71              	.LVL7:
  72 0030 291C     		mov	r1, r5
  73 0032 FFF7FEFF 		bl	dbg_line
  74              	.LVL8:
  48:..\acn-sdk-c\src\ntp/client.c ****       return -1;
  75              		.loc 1 48 0
  76 0036 0120     		mov	r0, #1
  77 0038 4042     		neg	r0, r0
  78 003a D3E0     		b	.L3
  79              	.LVL9:
  80              	.L2:
  49:..\acn-sdk-c\src\ntp/client.c ****   }
  50:..\acn-sdk-c\src\ntp/client.c ****   DBG("udp socket open %d", (int)udp_sock);
  81              		.loc 1 50 0
  82 003c 6C48     		ldr	r0, .L18+8
  83              	.LVL10:
  84 003e 291C     		mov	r1, r5
  85 0040 FFF7FEFF 		bl	dbg_line
  86              	.LVL11:
  51:..\acn-sdk-c\src\ntp/client.c **** 
  52:..\acn-sdk-c\src\ntp/client.c ****   if ( wait_option != 0 ) {
  87              		.loc 1 52 0
  88 0044 002C     		cmp	r4, #0
  89 0046 1BD0     		beq	.L4
  90              	.LBB2:
  53:..\acn-sdk-c\src\ntp/client.c ****       struct timeval timeout;
  54:..\acn-sdk-c\src\ntp/client.c ****       timeout.tv_sec = (time_t) (wait_option / 1000);
  91              		.loc 1 54 0
  92 0048 FA21     		mov	r1, #250
  93 004a 201C     		mov	r0, r4
  94 004c 8900     		lsl	r1, r1, #2
  95 004e FFF7FEFF 		bl	__aeabi_uidiv
  96              	.LVL12:
  55:..\acn-sdk-c\src\ntp/client.c ****       timeout.tv_usec = (suseconds_t)(wait_option % 1000) * 1000;
  97              		.loc 1 55 0
  98 0052 FA21     		mov	r1, #250
  54:..\acn-sdk-c\src\ntp/client.c ****       timeout.tv_usec = (suseconds_t)(wait_option % 1000) * 1000;
  99              		.loc 1 54 0
 100 0054 0C90     		str	r0, [sp, #48]
 101              		.loc 1 55 0
 102 0056 8900     		lsl	r1, r1, #2
 103 0058 201C     		mov	r0, r4
 104 005a FFF7FEFF 		bl	__aeabi_uidivmod
 105              	.LVL13:
 106 005e FA23     		mov	r3, #250
 107 0060 9B00     		lsl	r3, r3, #2
 108 0062 5943     		mul	r1, r3
  56:..\acn-sdk-c\src\ntp/client.c **** 
  57:..\acn-sdk-c\src\ntp/client.c ****       if ( setsockopt(udp_sock, SOL_SOCKET, SO_RCVTIMEO, (char *)&timeout, sizeof(timeout)) < 0 ) {
 109              		.loc 1 57 0
 110 0064 0823     		mov	r3, #8
  55:..\acn-sdk-c\src\ntp/client.c **** 
 111              		.loc 1 55 0
ARM GAS  C:\Users\ddemidov\AppData\Local\Temp\ccoL60no.s 			page 4


 112 0066 0D91     		str	r1, [sp, #52]
 113              		.loc 1 57 0
 114 0068 0093     		str	r3, [sp]
 115 006a 281C     		mov	r0, r5
 116 006c 6149     		ldr	r1, .L18+12
 117 006e 624A     		ldr	r2, .L18+16
 118 0070 0CAB     		add	r3, sp, #48
 119 0072 FFF7FEFF 		bl	setsockopt
 120              	.LVL14:
 121 0076 0028     		cmp	r0, #0
 122 0078 02DA     		bge	.L4
  58:..\acn-sdk-c\src\ntp/client.c ****           DBG("UDP set timeout fail");
 123              		.loc 1 58 0
 124 007a 6048     		ldr	r0, .L18+20
 125 007c FFF7FEFF 		bl	dbg_line
 126              	.LVL15:
 127              	.L4:
 128              	.LBE2:
  59:..\acn-sdk-c\src\ntp/client.c ****       }
  60:..\acn-sdk-c\src\ntp/client.c ****   }
  61:..\acn-sdk-c\src\ntp/client.c **** 
  62:..\acn-sdk-c\src\ntp/client.c ****   /* gethostbyname: get the server's DNS entry */
  63:..\acn-sdk-c\src\ntp/client.c ****   server = gethostbyname(host);
 129              		.loc 1 63 0
 130 0080 301C     		mov	r0, r6
 131 0082 FFF7FEFF 		bl	gethostbyname
 132              	.LVL16:
 133 0086 041E     		sub	r4, r0, #0
 134              	.LVL17:
  64:..\acn-sdk-c\src\ntp/client.c ****   if (server == NULL) {
 135              		.loc 1 64 0
 136 0088 07D1     		bne	.L6
 137              	.LBB3:
  65:..\acn-sdk-c\src\ntp/client.c ****       DBG("ERROR, no such host as %s\n", host);
 138              		.loc 1 65 0
 139 008a 5D48     		ldr	r0, .L18+24
 140              	.LVL18:
 141 008c 311C     		mov	r1, r6
 142 008e FFF7FEFF 		bl	dbg_line
 143              	.LVL19:
  66:..\acn-sdk-c\src\ntp/client.c ****       soc_close(udp_sock);
 144              		.loc 1 66 0
 145 0092 281C     		mov	r0, r5
 146 0094 FFF7FEFF 		bl	soc_close
 147              	.LVL20:
 148 0098 A3E0     		b	.L14
 149              	.LVL21:
 150              	.L6:
 151              	.LBE3:
  67:..\acn-sdk-c\src\ntp/client.c ****       return NTP_DNS;
  68:..\acn-sdk-c\src\ntp/client.c ****   }
  69:..\acn-sdk-c\src\ntp/client.c **** 
  70:..\acn-sdk-c\src\ntp/client.c ****   /* build the server's Internet address */
  71:..\acn-sdk-c\src\ntp/client.c ****   bzero((char *) &serveraddr, sizeof(serveraddr));
 152              		.loc 1 71 0
 153 009a 1027     		mov	r7, #16
 154 009c 08AE     		add	r6, sp, #32
ARM GAS  C:\Users\ddemidov\AppData\Local\Temp\ccoL60no.s 			page 5


 155              	.LVL22:
 156 009e 3A1C     		mov	r2, r7
 157 00a0 0021     		mov	r1, #0
 158 00a2 301C     		mov	r0, r6
 159              	.LVL23:
 160 00a4 FFF7FEFF 		bl	memset
 161              	.LVL24:
  72:..\acn-sdk-c\src\ntp/client.c ****   serveraddr.sin_family = AF_INET;
 162              		.loc 1 72 0
 163 00a8 0223     		mov	r3, #2
  73:..\acn-sdk-c\src\ntp/client.c ****   bcopy((char *)server->h_addr,
 164              		.loc 1 73 0
 165 00aa E268     		ldr	r2, [r4, #12]
 166 00ac 09A9     		add	r1, sp, #36
 167 00ae 6069     		ldr	r0, [r4, #20]
  72:..\acn-sdk-c\src\ntp/client.c ****   serveraddr.sin_family = AF_INET;
 168              		.loc 1 72 0
 169 00b0 7370     		strb	r3, [r6, #1]
 170              		.loc 1 73 0
 171 00b2 FFF7FEFF 		bl	bcopy
 172              	.LVL25:
  74:..\acn-sdk-c\src\ntp/client.c ****           (char *)&serveraddr.sin_addr.s_addr, (size_t)server->h_length);
  75:..\acn-sdk-c\src\ntp/client.c ****   serveraddr.sin_port = htons(port);
 173              		.loc 1 75 0
 174 00b6 0398     		ldr	r0, [sp, #12]
 175 00b8 FFF7FEFF 		bl	_htons
 176              	.LVL26:
  76:..\acn-sdk-c\src\ntp/client.c ****   serverlen = sizeof(serveraddr);
  77:..\acn-sdk-c\src\ntp/client.c **** 
  78:..\acn-sdk-c\src\ntp/client.c ****   //Now ping the server and wait for response
  79:..\acn-sdk-c\src\ntp/client.c ****   //Prepare NTP Packet:
  80:..\acn-sdk-c\src\ntp/client.c ****   pkt.li = 0; //Leap Indicator : No warning
  81:..\acn-sdk-c\src\ntp/client.c ****   pkt.vn = 4; //Version Number : 4
  82:..\acn-sdk-c\src\ntp/client.c ****   pkt.mode = 3; //Client mode
  83:..\acn-sdk-c\src\ntp/client.c ****   pkt.stratum = 0; //Not relevant here
 177              		.loc 1 83 0
 178 00bc 0024     		mov	r4, #0
 179              	.LVL27:
  82:..\acn-sdk-c\src\ntp/client.c ****   pkt.stratum = 0; //Not relevant here
 180              		.loc 1 82 0
 181 00be 2323     		mov	r3, #35
  76:..\acn-sdk-c\src\ntp/client.c ****   serverlen = sizeof(serveraddr);
 182              		.loc 1 76 0
 183 00c0 0697     		str	r7, [sp, #24]
  75:..\acn-sdk-c\src\ntp/client.c ****   serverlen = sizeof(serveraddr);
 184              		.loc 1 75 0
 185 00c2 7080     		strh	r0, [r6, #2]
  80:..\acn-sdk-c\src\ntp/client.c ****   pkt.vn = 4; //Version Number : 4
 186              		.loc 1 80 0
 187 00c4 0CAF     		add	r7, sp, #48
  84:..\acn-sdk-c\src\ntp/client.c ****   pkt.poll = 0; //Not significant as well
  85:..\acn-sdk-c\src\ntp/client.c ****   pkt.precision = 0; //Neither this one is
  86:..\acn-sdk-c\src\ntp/client.c **** 
  87:..\acn-sdk-c\src\ntp/client.c ****   pkt.rootDelay = 0; //Or this one
  88:..\acn-sdk-c\src\ntp/client.c ****   pkt.rootDispersion = 0; //Or that one
  89:..\acn-sdk-c\src\ntp/client.c ****   pkt.refId = 0; //...
  90:..\acn-sdk-c\src\ntp/client.c **** 
ARM GAS  C:\Users\ddemidov\AppData\Local\Temp\ccoL60no.s 			page 6


  91:..\acn-sdk-c\src\ntp/client.c ****   pkt.refTm_s = 0;
  92:..\acn-sdk-c\src\ntp/client.c ****   pkt.origTm_s = 0;
  93:..\acn-sdk-c\src\ntp/client.c ****   pkt.rxTm_s = 0;
  94:..\acn-sdk-c\src\ntp/client.c ****   time_t now1 = time(NULL);
 188              		.loc 1 94 0
 189 00c6 201C     		mov	r0, r4
  82:..\acn-sdk-c\src\ntp/client.c ****   pkt.stratum = 0; //Not relevant here
 190              		.loc 1 82 0
 191 00c8 3B70     		strb	r3, [r7]
  83:..\acn-sdk-c\src\ntp/client.c ****   pkt.poll = 0; //Not significant as well
 192              		.loc 1 83 0
 193 00ca 7C70     		strb	r4, [r7, #1]
  84:..\acn-sdk-c\src\ntp/client.c ****   pkt.poll = 0; //Not significant as well
 194              		.loc 1 84 0
 195 00cc BC70     		strb	r4, [r7, #2]
  85:..\acn-sdk-c\src\ntp/client.c **** 
 196              		.loc 1 85 0
 197 00ce FC70     		strb	r4, [r7, #3]
  87:..\acn-sdk-c\src\ntp/client.c ****   pkt.rootDispersion = 0; //Or that one
 198              		.loc 1 87 0
 199 00d0 7C60     		str	r4, [r7, #4]
  88:..\acn-sdk-c\src\ntp/client.c ****   pkt.refId = 0; //...
 200              		.loc 1 88 0
 201 00d2 BC60     		str	r4, [r7, #8]
  89:..\acn-sdk-c\src\ntp/client.c **** 
 202              		.loc 1 89 0
 203 00d4 FC60     		str	r4, [r7, #12]
  91:..\acn-sdk-c\src\ntp/client.c ****   pkt.origTm_s = 0;
 204              		.loc 1 91 0
 205 00d6 3C61     		str	r4, [r7, #16]
  92:..\acn-sdk-c\src\ntp/client.c ****   pkt.rxTm_s = 0;
 206              		.loc 1 92 0
 207 00d8 BC61     		str	r4, [r7, #24]
  93:..\acn-sdk-c\src\ntp/client.c ****   time_t now1 = time(NULL);
 208              		.loc 1 93 0
 209 00da 3C62     		str	r4, [r7, #32]
 210              		.loc 1 94 0
 211 00dc FFF7FEFF 		bl	time
 212              	.LVL28:
 213 00e0 011C     		mov	r1, r0
 214 00e2 0790     		str	r0, [sp, #28]
  95:..\acn-sdk-c\src\ntp/client.c ****   DBG("get time %d", (int)now1);
 215              		.loc 1 95 0
 216 00e4 4748     		ldr	r0, .L18+28
 217 00e6 FFF7FEFF 		bl	dbg_line
 218              	.LVL29:
  96:..\acn-sdk-c\src\ntp/client.c ****   DBG("ctime %s", ctime(&now1));
 219              		.loc 1 96 0
 220 00ea 07A8     		add	r0, sp, #28
 221 00ec FFF7FEFF 		bl	ctime
 222              	.LVL30:
 223 00f0 011C     		mov	r1, r0
 224 00f2 4548     		ldr	r0, .L18+32
 225 00f4 FFF7FEFF 		bl	dbg_line
 226              	.LVL31:
  97:..\acn-sdk-c\src\ntp/client.c **** 
  98:..\acn-sdk-c\src\ntp/client.c ****   pkt.txTm_s = _htonl( (uint32_t)NTP_TIMESTAMP_DELTA + (uint32_t)time(NULL) ); //WARN: We are in LE
ARM GAS  C:\Users\ddemidov\AppData\Local\Temp\ccoL60no.s 			page 7


 227              		.loc 1 98 0
 228 00f8 201C     		mov	r0, r4
 229 00fa FFF7FEFF 		bl	time
 230              	.LVL32:
 231 00fe 434B     		ldr	r3, .L18+36
 232 0100 C018     		add	r0, r0, r3
 233 0102 FFF7FEFF 		bl	_htonl
 234              	.LVL33:
  99:..\acn-sdk-c\src\ntp/client.c ****   pkt.refTm_f = pkt.origTm_f = pkt.rxTm_f = pkt.txTm_f = 0;
 100:..\acn-sdk-c\src\ntp/client.c **** 
 101:..\acn-sdk-c\src\ntp/client.c ****   //Set timeout, non-blocking and wait using select
 102:..\acn-sdk-c\src\ntp/client.c ****   int ret;
 103:..\acn-sdk-c\src\ntp/client.c ****   ret = sendto(udp_sock, (char*)&pkt, sizeof(struct NTPPacket), 0, (struct sockaddr*)&serveraddr, s
 235              		.loc 1 103 0
 236 0106 069B     		ldr	r3, [sp, #24]
  98:..\acn-sdk-c\src\ntp/client.c ****   pkt.refTm_f = pkt.origTm_f = pkt.rxTm_f = pkt.txTm_f = 0;
 237              		.loc 1 98 0
 238 0108 B862     		str	r0, [r7, #40]
  99:..\acn-sdk-c\src\ntp/client.c ****   pkt.refTm_f = pkt.origTm_f = pkt.rxTm_f = pkt.txTm_f = 0;
 239              		.loc 1 99 0
 240 010a FC62     		str	r4, [r7, #44]
 241 010c 7C62     		str	r4, [r7, #36]
 242 010e FC61     		str	r4, [r7, #28]
 243 0110 7C61     		str	r4, [r7, #20]
 244              		.loc 1 103 0
 245 0112 281C     		mov	r0, r5
 246 0114 0193     		str	r3, [sp, #4]
 247 0116 0096     		str	r6, [sp]
 248 0118 391C     		mov	r1, r7
 249 011a 3022     		mov	r2, #48
 250 011c 231C     		mov	r3, r4
 251 011e FFF7FEFF 		bl	sendto
 252              	.LVL34:
 104:..\acn-sdk-c\src\ntp/client.c ****   if (ret < 0 ) {
 253              		.loc 1 104 0
 254 0122 A042     		cmp	r0, r4
 255 0124 06DA     		bge	.L7
 256              	.LBB4:
 105:..\acn-sdk-c\src\ntp/client.c ****     DBG("Could not send packet");
 257              		.loc 1 105 0
 258 0126 3A48     		ldr	r0, .L18+40
 259              	.LVL35:
 260 0128 FFF7FEFF 		bl	dbg_line
 261              	.LVL36:
 106:..\acn-sdk-c\src\ntp/client.c ****     soc_close(udp_sock);
 262              		.loc 1 106 0
 263 012c 281C     		mov	r0, r5
 264 012e FFF7FEFF 		bl	soc_close
 265              	.LVL37:
 266 0132 11E0     		b	.L15
 267              	.LVL38:
 268              	.L7:
 269              	.LBE4:
 107:..\acn-sdk-c\src\ntp/client.c ****     return NTP_CONN;
 108:..\acn-sdk-c\src\ntp/client.c ****   }
 109:..\acn-sdk-c\src\ntp/client.c **** 
 110:..\acn-sdk-c\src\ntp/client.c ****   //Read response
ARM GAS  C:\Users\ddemidov\AppData\Local\Temp\ccoL60no.s 			page 8


 111:..\acn-sdk-c\src\ntp/client.c ****   ret = recvfrom(udp_sock, (char*)&pkt, sizeof(struct NTPPacket), 0, (struct sockaddr*)&serveraddr,
 270              		.loc 1 111 0
 271 0134 06AB     		add	r3, sp, #24
 272 0136 0096     		str	r6, [sp]
 273 0138 0193     		str	r3, [sp, #4]
 274 013a 281C     		mov	r0, r5
 275              	.LVL39:
 276 013c 391C     		mov	r1, r7
 277 013e 3022     		mov	r2, #48
 278 0140 231C     		mov	r3, r4
 279 0142 FFF7FEFF 		bl	recvfrom
 280              	.LVL40:
 281 0146 061C     		mov	r6, r0
 282              	.LVL41:
 112:..\acn-sdk-c\src\ntp/client.c ****   soc_close(udp_sock);
 283              		.loc 1 112 0
 284 0148 281C     		mov	r0, r5
 285              	.LVL42:
 286 014a FFF7FEFF 		bl	soc_close
 287              	.LVL43:
 113:..\acn-sdk-c\src\ntp/client.c **** 
 114:..\acn-sdk-c\src\ntp/client.c ****   if(ret < 0) {
 288              		.loc 1 114 0
 289 014e 002E     		cmp	r6, #0
 290 0150 04DA     		bge	.L8
 115:..\acn-sdk-c\src\ntp/client.c ****       DBG("Could not receive packet");
 291              		.loc 1 115 0
 292 0152 3048     		ldr	r0, .L18+44
 293 0154 FFF7FEFF 		bl	dbg_line
 294              	.LVL44:
 295              	.L15:
 116:..\acn-sdk-c\src\ntp/client.c ****       return NTP_CONN;
 296              		.loc 1 116 0
 297 0158 0320     		mov	r0, #3
 298 015a 43E0     		b	.L3
 299              	.LVL45:
 300              	.L8:
 117:..\acn-sdk-c\src\ntp/client.c ****   }
 118:..\acn-sdk-c\src\ntp/client.c **** 
 119:..\acn-sdk-c\src\ntp/client.c ****   //TODO: Accept chunks
 120:..\acn-sdk-c\src\ntp/client.c ****   if ( ret < (int)sizeof(struct NTPPacket) ) {
 121:..\acn-sdk-c\src\ntp/client.c ****     DBG("Receive packet size does not match");
 301              		.loc 1 121 0
 302 015c 2E48     		ldr	r0, .L18+48
 120:..\acn-sdk-c\src\ntp/client.c ****     DBG("Receive packet size does not match");
 303              		.loc 1 120 0
 304 015e 2F2E     		cmp	r6, #47
 305 0160 03DD     		ble	.L16
 122:..\acn-sdk-c\src\ntp/client.c ****     return NTP_PRTCL;
 123:..\acn-sdk-c\src\ntp/client.c ****   }
 124:..\acn-sdk-c\src\ntp/client.c **** 
 125:..\acn-sdk-c\src\ntp/client.c ****   //Kiss of death message : Not good !
 126:..\acn-sdk-c\src\ntp/client.c ****   if( pkt.stratum == 0) {
 306              		.loc 1 126 0
 307 0162 7B78     		ldrb	r3, [r7, #1]
 308 0164 002B     		cmp	r3, #0
 309 0166 04D1     		bne	.L10
ARM GAS  C:\Users\ddemidov\AppData\Local\Temp\ccoL60no.s 			page 9


 127:..\acn-sdk-c\src\ntp/client.c ****       DBG("Kissed to death!");
 310              		.loc 1 127 0
 311 0168 2C48     		ldr	r0, .L18+52
 312              	.L16:
 313 016a FFF7FEFF 		bl	dbg_line
 314              	.LVL46:
 128:..\acn-sdk-c\src\ntp/client.c ****       return NTP_PRTCL;
 315              		.loc 1 128 0
 316 016e 0120     		mov	r0, #1
 317 0170 38E0     		b	.L3
 318              	.L10:
 129:..\acn-sdk-c\src\ntp/client.c ****   }
 130:..\acn-sdk-c\src\ntp/client.c **** 
 131:..\acn-sdk-c\src\ntp/client.c ****   //Correct Endianness
 132:..\acn-sdk-c\src\ntp/client.c ****   pkt.refTm_s = _ntohl( pkt.refTm_s );
 319              		.loc 1 132 0
 320 0172 3869     		ldr	r0, [r7, #16]
 321 0174 FFF7FEFF 		bl	_ntohl
 322              	.LVL47:
 323 0178 3861     		str	r0, [r7, #16]
 133:..\acn-sdk-c\src\ntp/client.c ****   pkt.refTm_f = _ntohl( pkt.refTm_f );
 324              		.loc 1 133 0
 325 017a 7869     		ldr	r0, [r7, #20]
 326 017c FFF7FEFF 		bl	_ntohl
 327              	.LVL48:
 328 0180 7861     		str	r0, [r7, #20]
 134:..\acn-sdk-c\src\ntp/client.c ****   pkt.origTm_s = _ntohl( pkt.origTm_s );
 329              		.loc 1 134 0
 330 0182 B869     		ldr	r0, [r7, #24]
 331 0184 FFF7FEFF 		bl	_ntohl
 332              	.LVL49:
 333 0188 B861     		str	r0, [r7, #24]
 135:..\acn-sdk-c\src\ntp/client.c ****   pkt.origTm_f = _ntohl( pkt.origTm_f );
 334              		.loc 1 135 0
 335 018a F869     		ldr	r0, [r7, #28]
 336 018c FFF7FEFF 		bl	_ntohl
 337              	.LVL50:
 338 0190 F861     		str	r0, [r7, #28]
 136:..\acn-sdk-c\src\ntp/client.c ****   pkt.rxTm_s = _ntohl( pkt.rxTm_s );
 339              		.loc 1 136 0
 340 0192 386A     		ldr	r0, [r7, #32]
 341 0194 FFF7FEFF 		bl	_ntohl
 342              	.LVL51:
 343 0198 3862     		str	r0, [r7, #32]
 137:..\acn-sdk-c\src\ntp/client.c ****   pkt.rxTm_f = _ntohl( pkt.rxTm_f );
 344              		.loc 1 137 0
 345 019a 786A     		ldr	r0, [r7, #36]
 346 019c FFF7FEFF 		bl	_ntohl
 347              	.LVL52:
 348 01a0 7862     		str	r0, [r7, #36]
 138:..\acn-sdk-c\src\ntp/client.c ****   pkt.txTm_s = _ntohl( pkt.txTm_s );
 349              		.loc 1 138 0
 350 01a2 B86A     		ldr	r0, [r7, #40]
 351 01a4 FFF7FEFF 		bl	_ntohl
 352              	.LVL53:
 353 01a8 B862     		str	r0, [r7, #40]
 139:..\acn-sdk-c\src\ntp/client.c ****   pkt.txTm_f = _ntohl( pkt.txTm_f );
ARM GAS  C:\Users\ddemidov\AppData\Local\Temp\ccoL60no.s 			page 10


 354              		.loc 1 139 0
 355 01aa F86A     		ldr	r0, [r7, #44]
 356 01ac FFF7FEFF 		bl	_ntohl
 357              	.LVL54:
 358 01b0 F862     		str	r0, [r7, #44]
 140:..\acn-sdk-c\src\ntp/client.c **** 
 141:..\acn-sdk-c\src\ntp/client.c ****   //Compute offset, see RFC 4330 p.13
 142:..\acn-sdk-c\src\ntp/client.c ****   uint32_t destTm_s = (uint32_t)NTP_TIMESTAMP_DELTA + (uint32_t)time(NULL);
 359              		.loc 1 142 0
 360 01b2 201C     		mov	r0, r4
 361 01b4 FFF7FEFF 		bl	time
 362              	.LVL55:
 143:..\acn-sdk-c\src\ntp/client.c ****   int64_t offset = ( (int64_t)( pkt.rxTm_s - pkt.origTm_s ) + (int64_t) ( pkt.txTm_s - destTm_s ) )
 363              		.loc 1 143 0
 364 01b8 396A     		ldr	r1, [r7, #32]
 365 01ba BD69     		ldr	r5, [r7, #24]
 366              	.LVL56:
 367 01bc 231C     		mov	r3, r4
 368 01be 4A1B     		sub	r2, r1, r5
 369 01c0 B96A     		ldr	r1, [r7, #40]
 370 01c2 271C     		mov	r7, r4
 371 01c4 164D     		ldr	r5, .L18+56
 372 01c6 4919     		add	r1, r1, r5
 373 01c8 0E1A     		sub	r6, r1, r0
 374              	.LVL57:
 375 01ca 9219     		add	r2, r2, r6
 376 01cc 7B41     		adc	r3, r3, r7
 377 01ce 111C     		mov	r1, r2
 378 01d0 DB07     		lsl	r3, r3, #31
 379 01d2 4E08     		lsr	r6, r1, #1
 144:..\acn-sdk-c\src\ntp/client.c ****   set_time((time_t)offset + time(NULL));
 380              		.loc 1 144 0
 381 01d4 201C     		mov	r0, r4
 382              	.LVL58:
 143:..\acn-sdk-c\src\ntp/client.c ****   int64_t offset = ( (int64_t)( pkt.rxTm_s - pkt.origTm_s ) + (int64_t) ( pkt.txTm_s - destTm_s ) )
 383              		.loc 1 143 0
 384 01d6 1E43     		orr	r6, r3
 385              		.loc 1 144 0
 386 01d8 FFF7FEFF 		bl	time
 387              	.LVL59:
 388 01dc 3018     		add	r0, r6, r0
 389 01de FFF7FEFF 		bl	set_time
 390              	.LVL60:
 391              	.L14:
 145:..\acn-sdk-c\src\ntp/client.c **** 
 146:..\acn-sdk-c\src\ntp/client.c ****   return NTP_OK;
 392              		.loc 1 146 0
 393 01e2 201C     		mov	r0, r4
 394              	.L3:
 147:..\acn-sdk-c\src\ntp/client.c **** }
 395              		.loc 1 147 0
 396 01e4 19B0     		add	sp, sp, #100
 397              		@ sp needed
 398 01e6 F0BD     		pop	{r4, r5, r6, r7, pc}
 399              	.L19:
 400              		.align	2
 401              	.L18:
ARM GAS  C:\Users\ddemidov\AppData\Local\Temp\ccoL60no.s 			page 11


 402 01e8 00000000 		.word	.LC0
 403 01ec 19000000 		.word	.LC2
 404 01f0 31000000 		.word	.LC4
 405 01f4 FF0F0000 		.word	4095
 406 01f8 06100000 		.word	4102
 407 01fc 44000000 		.word	.LC6
 408 0200 59000000 		.word	.LC8
 409 0204 74000000 		.word	.LC10
 410 0208 80000000 		.word	.LC12
 411 020c 807EAA83 		.word	-2085978496
 412 0210 89000000 		.word	.LC14
 413 0214 9F000000 		.word	.LC16
 414 0218 B8000000 		.word	.LC18
 415 021c DB000000 		.word	.LC20
 416 0220 8081557C 		.word	2085978496
 417              		.cfi_endproc
 418              	.LFE0:
 419              		.size	ntp_set_time, .-ntp_set_time
 420              		.section	.rodata.str1.1,"aMS",%progbits,1
 421              	.LC0:
 422 0000 54696D65 		.ascii	"Time is set to (UTC): %s\000"
 422      20697320 
 422      73657420 
 422      746F2028 
 422      55544329 
 423              	.LC2:
 424 0019 4552524F 		.ascii	"ERROR opening socket %d\000"
 424      52206F70 
 424      656E696E 
 424      6720736F 
 424      636B6574 
 425              	.LC4:
 426 0031 75647020 		.ascii	"udp socket open %d\000"
 426      736F636B 
 426      6574206F 
 426      70656E20 
 426      256400
 427              	.LC6:
 428 0044 55445020 		.ascii	"UDP set timeout fail\000"
 428      73657420 
 428      74696D65 
 428      6F757420 
 428      6661696C 
 429              	.LC8:
 430 0059 4552524F 		.ascii	"ERROR, no such host as %s\012\000"
 430      522C206E 
 430      6F207375 
 430      63682068 
 430      6F737420 
 431              	.LC10:
 432 0074 67657420 		.ascii	"get time %d\000"
 432      74696D65 
 432      20256400 
 433              	.LC12:
 434 0080 6374696D 		.ascii	"ctime %s\000"
 434      65202573 
 434      00
ARM GAS  C:\Users\ddemidov\AppData\Local\Temp\ccoL60no.s 			page 12


 435              	.LC14:
 436 0089 436F756C 		.ascii	"Could not send packet\000"
 436      64206E6F 
 436      74207365 
 436      6E642070 
 436      61636B65 
 437              	.LC16:
 438 009f 436F756C 		.ascii	"Could not receive packet\000"
 438      64206E6F 
 438      74207265 
 438      63656976 
 438      65207061 
 439              	.LC18:
 440 00b8 52656365 		.ascii	"Receive packet size does not match\000"
 440      69766520 
 440      7061636B 
 440      65742073 
 440      697A6520 
 441              	.LC20:
 442 00db 4B697373 		.ascii	"Kissed to death!\000"
 442      65642074 
 442      6F206465 
 442      61746821 
 442      00
 443              		.text
 444              	.Letext0:
 445              		.file 2 "c:\\program files (x86)\\cypress\\psoc creator\\3.3\\psoc creator\\import\\gnu\\arm\\4.9.
 446              		.file 3 "c:\\program files (x86)\\cypress\\psoc creator\\3.3\\psoc creator\\import\\gnu\\arm\\4.9.
 447              		.file 4 "c:\\program files (x86)\\cypress\\psoc creator\\3.3\\psoc creator\\import\\gnu\\arm\\4.9.
 448              		.file 5 "c:\\program files (x86)\\cypress\\psoc creator\\3.3\\psoc creator\\import\\gnu\\arm\\4.9.
 449              		.file 6 "..\\acn-sdk-c\\include/ntp/client.h"
 450              		.file 7 "..\\acn-sdk-c/platforms/common/bsd/sockdef.h"
 451              		.file 8 "..\\acn-sdk-c\\include/bsd/socket.h"
 452              		.file 9 "c:\\program files (x86)\\cypress\\psoc creator\\3.3\\psoc creator\\import\\gnu\\arm\\4.9.
 453              		.file 10 "..\\acn-sdk-c/platforms/senseability/trace.h"
 454              		.file 11 "c:\\program files (x86)\\cypress\\psoc creator\\3.3\\psoc creator\\import\\gnu\\arm\\4.9
 455              		.file 12 "c:\\program files (x86)\\cypress\\psoc creator\\3.3\\psoc creator\\import\\gnu\\arm\\4.9
 456              		.file 13 "..\\acn-sdk-c\\include/bsd/inet.h"
 457              		.file 14 "..\\acn-sdk-c\\include/time/time.h"