ARM GAS  C:\Users\ddemidov\AppData\Local\Temp\ccj0ptZt.s 			page 1


   1              		.cpu cortex-m0
   2              		.fpu softvfp
   3              		.eabi_attribute 20, 1
   4              		.eabi_attribute 21, 1
   5              		.eabi_attribute 23, 3
   6              		.eabi_attribute 24, 1
   7              		.eabi_attribute 25, 1
   8              		.eabi_attribute 26, 1
   9              		.eabi_attribute 30, 4
  10              		.eabi_attribute 34, 0
  11              		.eabi_attribute 18, 4
  12              		.code	16
  13              		.file	"coding.c"
  14              		.text
  15              	.Ltext0:
  16              		.cfi_sections	.debug_frame
  17              		.section	.text.CEscape,"ax",%progbits
  18              		.align	1
  19              		.code	16
  20              		.thumb_func
  21              		.type	CEscape, %function
  22              	CEscape:
  23              	.LFB1:
  24              		.file 1 "..\\acn-sdk-c\\src\\wolfSSL\\wolfcrypt\\src\\coding.c"
   1:..\acn-sdk-c\src\wolfSSL\wolfcrypt\src/coding.c **** /* coding.c
   2:..\acn-sdk-c\src\wolfSSL\wolfcrypt\src/coding.c ****  *
   3:..\acn-sdk-c\src\wolfSSL\wolfcrypt\src/coding.c ****  * Copyright (C) 2006-2016 wolfSSL Inc.
   4:..\acn-sdk-c\src\wolfSSL\wolfcrypt\src/coding.c ****  *
   5:..\acn-sdk-c\src\wolfSSL\wolfcrypt\src/coding.c ****  * This file is part of wolfSSL.
   6:..\acn-sdk-c\src\wolfSSL\wolfcrypt\src/coding.c ****  *
   7:..\acn-sdk-c\src\wolfSSL\wolfcrypt\src/coding.c ****  * wolfSSL is free software; you can redistribute it and/or modify
   8:..\acn-sdk-c\src\wolfSSL\wolfcrypt\src/coding.c ****  * it under the terms of the GNU General Public License as published by
   9:..\acn-sdk-c\src\wolfSSL\wolfcrypt\src/coding.c ****  * the Free Software Foundation; either version 2 of the License, or
  10:..\acn-sdk-c\src\wolfSSL\wolfcrypt\src/coding.c ****  * (at your option) any later version.
  11:..\acn-sdk-c\src\wolfSSL\wolfcrypt\src/coding.c ****  *
  12:..\acn-sdk-c\src\wolfSSL\wolfcrypt\src/coding.c ****  * wolfSSL is distributed in the hope that it will be useful,
  13:..\acn-sdk-c\src\wolfSSL\wolfcrypt\src/coding.c ****  * but WITHOUT ANY WARRANTY; without even the implied warranty of
  14:..\acn-sdk-c\src\wolfSSL\wolfcrypt\src/coding.c ****  * MERCHANTABILITY or FITNESS FOR A PARTICULAR PURPOSE.  See the
  15:..\acn-sdk-c\src\wolfSSL\wolfcrypt\src/coding.c ****  * GNU General Public License for more details.
  16:..\acn-sdk-c\src\wolfSSL\wolfcrypt\src/coding.c ****  *
  17:..\acn-sdk-c\src\wolfSSL\wolfcrypt\src/coding.c ****  * You should have received a copy of the GNU General Public License
  18:..\acn-sdk-c\src\wolfSSL\wolfcrypt\src/coding.c ****  * along with this program; if not, write to the Free Software
  19:..\acn-sdk-c\src\wolfSSL\wolfcrypt\src/coding.c ****  * Foundation, Inc., 51 Franklin Street, Fifth Floor, Boston, MA 02110-1335, USA
  20:..\acn-sdk-c\src\wolfSSL\wolfcrypt\src/coding.c ****  */
  21:..\acn-sdk-c\src\wolfSSL\wolfcrypt\src/coding.c **** 
  22:..\acn-sdk-c\src\wolfSSL\wolfcrypt\src/coding.c **** 
  23:..\acn-sdk-c\src\wolfSSL\wolfcrypt\src/coding.c **** #ifdef HAVE_CONFIG_H
  24:..\acn-sdk-c\src\wolfSSL\wolfcrypt\src/coding.c ****     #include <config.h>
  25:..\acn-sdk-c\src\wolfSSL\wolfcrypt\src/coding.c **** #endif
  26:..\acn-sdk-c\src\wolfSSL\wolfcrypt\src/coding.c **** 
  27:..\acn-sdk-c\src\wolfSSL\wolfcrypt\src/coding.c **** #include <wolfssl/wolfcrypt/settings.h>
  28:..\acn-sdk-c\src\wolfSSL\wolfcrypt\src/coding.c **** 
  29:..\acn-sdk-c\src\wolfSSL\wolfcrypt\src/coding.c **** #ifndef NO_CODING
  30:..\acn-sdk-c\src\wolfSSL\wolfcrypt\src/coding.c **** 
  31:..\acn-sdk-c\src\wolfSSL\wolfcrypt\src/coding.c **** #include <wolfssl/wolfcrypt/coding.h>
  32:..\acn-sdk-c\src\wolfSSL\wolfcrypt\src/coding.c **** #include <wolfssl/wolfcrypt/error-crypt.h>
  33:..\acn-sdk-c\src\wolfSSL\wolfcrypt\src/coding.c **** #include <wolfssl/wolfcrypt/logging.h>
ARM GAS  C:\Users\ddemidov\AppData\Local\Temp\ccj0ptZt.s 			page 2


  34:..\acn-sdk-c\src\wolfSSL\wolfcrypt\src/coding.c **** 
  35:..\acn-sdk-c\src\wolfSSL\wolfcrypt\src/coding.c **** 
  36:..\acn-sdk-c\src\wolfSSL\wolfcrypt\src/coding.c **** enum {
  37:..\acn-sdk-c\src\wolfSSL\wolfcrypt\src/coding.c ****     BAD         = 0xFF,  /* invalid encoding */
  38:..\acn-sdk-c\src\wolfSSL\wolfcrypt\src/coding.c ****     PAD         = '=',
  39:..\acn-sdk-c\src\wolfSSL\wolfcrypt\src/coding.c ****     PEM_LINE_SZ = 64
  40:..\acn-sdk-c\src\wolfSSL\wolfcrypt\src/coding.c **** };
  41:..\acn-sdk-c\src\wolfSSL\wolfcrypt\src/coding.c **** 
  42:..\acn-sdk-c\src\wolfSSL\wolfcrypt\src/coding.c **** 
  43:..\acn-sdk-c\src\wolfSSL\wolfcrypt\src/coding.c **** static
  44:..\acn-sdk-c\src\wolfSSL\wolfcrypt\src/coding.c **** const byte base64Decode[] = { 62, BAD, BAD, BAD, 63,   /* + starts at 0x2B */
  45:..\acn-sdk-c\src\wolfSSL\wolfcrypt\src/coding.c ****                               52, 53, 54, 55, 56, 57, 58, 59, 60, 61,
  46:..\acn-sdk-c\src\wolfSSL\wolfcrypt\src/coding.c ****                               BAD, BAD, BAD, BAD, BAD, BAD, BAD,
  47:..\acn-sdk-c\src\wolfSSL\wolfcrypt\src/coding.c ****                               0, 1, 2, 3, 4, 5, 6, 7, 8, 9,
  48:..\acn-sdk-c\src\wolfSSL\wolfcrypt\src/coding.c ****                               10, 11, 12, 13, 14, 15, 16, 17, 18, 19,
  49:..\acn-sdk-c\src\wolfSSL\wolfcrypt\src/coding.c ****                               20, 21, 22, 23, 24, 25,
  50:..\acn-sdk-c\src\wolfSSL\wolfcrypt\src/coding.c ****                               BAD, BAD, BAD, BAD, BAD, BAD,
  51:..\acn-sdk-c\src\wolfSSL\wolfcrypt\src/coding.c ****                               26, 27, 28, 29, 30, 31, 32, 33, 34, 35,
  52:..\acn-sdk-c\src\wolfSSL\wolfcrypt\src/coding.c ****                               36, 37, 38, 39, 40, 41, 42, 43, 44, 45,
  53:..\acn-sdk-c\src\wolfSSL\wolfcrypt\src/coding.c ****                               46, 47, 48, 49, 50, 51
  54:..\acn-sdk-c\src\wolfSSL\wolfcrypt\src/coding.c ****                             };
  55:..\acn-sdk-c\src\wolfSSL\wolfcrypt\src/coding.c **** 
  56:..\acn-sdk-c\src\wolfSSL\wolfcrypt\src/coding.c **** 
  57:..\acn-sdk-c\src\wolfSSL\wolfcrypt\src/coding.c **** int Base64_Decode(const byte* in, word32 inLen, byte* out, word32* outLen)
  58:..\acn-sdk-c\src\wolfSSL\wolfcrypt\src/coding.c **** {
  59:..\acn-sdk-c\src\wolfSSL\wolfcrypt\src/coding.c ****     word32 i = 0;
  60:..\acn-sdk-c\src\wolfSSL\wolfcrypt\src/coding.c ****     word32 j = 0;
  61:..\acn-sdk-c\src\wolfSSL\wolfcrypt\src/coding.c ****     word32 plainSz = inLen - ((inLen + (PEM_LINE_SZ - 1)) / PEM_LINE_SZ );
  62:..\acn-sdk-c\src\wolfSSL\wolfcrypt\src/coding.c ****     const byte maxIdx = (byte)sizeof(base64Decode) + 0x2B - 1;
  63:..\acn-sdk-c\src\wolfSSL\wolfcrypt\src/coding.c **** 
  64:..\acn-sdk-c\src\wolfSSL\wolfcrypt\src/coding.c ****     plainSz = (plainSz * 3 + 3) / 4;
  65:..\acn-sdk-c\src\wolfSSL\wolfcrypt\src/coding.c ****     if (plainSz > *outLen) return BAD_FUNC_ARG;
  66:..\acn-sdk-c\src\wolfSSL\wolfcrypt\src/coding.c **** 
  67:..\acn-sdk-c\src\wolfSSL\wolfcrypt\src/coding.c ****     while (inLen > 3) {
  68:..\acn-sdk-c\src\wolfSSL\wolfcrypt\src/coding.c ****         byte b1, b2, b3;
  69:..\acn-sdk-c\src\wolfSSL\wolfcrypt\src/coding.c ****         byte e1 = in[j++];
  70:..\acn-sdk-c\src\wolfSSL\wolfcrypt\src/coding.c ****         byte e2 = in[j++];
  71:..\acn-sdk-c\src\wolfSSL\wolfcrypt\src/coding.c ****         byte e3 = in[j++];
  72:..\acn-sdk-c\src\wolfSSL\wolfcrypt\src/coding.c ****         byte e4 = in[j++];
  73:..\acn-sdk-c\src\wolfSSL\wolfcrypt\src/coding.c **** 
  74:..\acn-sdk-c\src\wolfSSL\wolfcrypt\src/coding.c ****         int pad3 = 0;
  75:..\acn-sdk-c\src\wolfSSL\wolfcrypt\src/coding.c ****         int pad4 = 0;
  76:..\acn-sdk-c\src\wolfSSL\wolfcrypt\src/coding.c **** 
  77:..\acn-sdk-c\src\wolfSSL\wolfcrypt\src/coding.c ****         if (e1 == 0)            /* end file 0's */
  78:..\acn-sdk-c\src\wolfSSL\wolfcrypt\src/coding.c ****             break;
  79:..\acn-sdk-c\src\wolfSSL\wolfcrypt\src/coding.c ****         if (e3 == PAD)
  80:..\acn-sdk-c\src\wolfSSL\wolfcrypt\src/coding.c ****             pad3 = 1;
  81:..\acn-sdk-c\src\wolfSSL\wolfcrypt\src/coding.c ****         if (e4 == PAD)
  82:..\acn-sdk-c\src\wolfSSL\wolfcrypt\src/coding.c ****             pad4 = 1;
  83:..\acn-sdk-c\src\wolfSSL\wolfcrypt\src/coding.c **** 
  84:..\acn-sdk-c\src\wolfSSL\wolfcrypt\src/coding.c ****         if (e1 < 0x2B || e2 < 0x2B || e3 < 0x2B || e4 < 0x2B) {
  85:..\acn-sdk-c\src\wolfSSL\wolfcrypt\src/coding.c ****             WOLFSSL_MSG("Bad Base64 Decode data, too small");
  86:..\acn-sdk-c\src\wolfSSL\wolfcrypt\src/coding.c ****             return ASN_INPUT_E;
  87:..\acn-sdk-c\src\wolfSSL\wolfcrypt\src/coding.c ****         }
  88:..\acn-sdk-c\src\wolfSSL\wolfcrypt\src/coding.c **** 
  89:..\acn-sdk-c\src\wolfSSL\wolfcrypt\src/coding.c ****         if (e1 > maxIdx || e2 > maxIdx || e3 > maxIdx || e4 > maxIdx) {
  90:..\acn-sdk-c\src\wolfSSL\wolfcrypt\src/coding.c ****             WOLFSSL_MSG("Bad Base64 Decode data, too big");
ARM GAS  C:\Users\ddemidov\AppData\Local\Temp\ccj0ptZt.s 			page 3


  91:..\acn-sdk-c\src\wolfSSL\wolfcrypt\src/coding.c ****             return ASN_INPUT_E;
  92:..\acn-sdk-c\src\wolfSSL\wolfcrypt\src/coding.c ****         }
  93:..\acn-sdk-c\src\wolfSSL\wolfcrypt\src/coding.c **** 
  94:..\acn-sdk-c\src\wolfSSL\wolfcrypt\src/coding.c ****         e1 = base64Decode[e1 - 0x2B];
  95:..\acn-sdk-c\src\wolfSSL\wolfcrypt\src/coding.c ****         e2 = base64Decode[e2 - 0x2B];
  96:..\acn-sdk-c\src\wolfSSL\wolfcrypt\src/coding.c ****         e3 = (e3 == PAD) ? 0 : base64Decode[e3 - 0x2B];
  97:..\acn-sdk-c\src\wolfSSL\wolfcrypt\src/coding.c ****         e4 = (e4 == PAD) ? 0 : base64Decode[e4 - 0x2B];
  98:..\acn-sdk-c\src\wolfSSL\wolfcrypt\src/coding.c **** 
  99:..\acn-sdk-c\src\wolfSSL\wolfcrypt\src/coding.c ****         b1 = (byte)((e1 << 2) | (e2 >> 4));
 100:..\acn-sdk-c\src\wolfSSL\wolfcrypt\src/coding.c ****         b2 = (byte)(((e2 & 0xF) << 4) | (e3 >> 2));
 101:..\acn-sdk-c\src\wolfSSL\wolfcrypt\src/coding.c ****         b3 = (byte)(((e3 & 0x3) << 6) | e4);
 102:..\acn-sdk-c\src\wolfSSL\wolfcrypt\src/coding.c **** 
 103:..\acn-sdk-c\src\wolfSSL\wolfcrypt\src/coding.c ****         out[i++] = b1;
 104:..\acn-sdk-c\src\wolfSSL\wolfcrypt\src/coding.c ****         if (!pad3)
 105:..\acn-sdk-c\src\wolfSSL\wolfcrypt\src/coding.c ****             out[i++] = b2;
 106:..\acn-sdk-c\src\wolfSSL\wolfcrypt\src/coding.c ****         if (!pad4)
 107:..\acn-sdk-c\src\wolfSSL\wolfcrypt\src/coding.c ****             out[i++] = b3;
 108:..\acn-sdk-c\src\wolfSSL\wolfcrypt\src/coding.c ****         else
 109:..\acn-sdk-c\src\wolfSSL\wolfcrypt\src/coding.c ****             break;
 110:..\acn-sdk-c\src\wolfSSL\wolfcrypt\src/coding.c **** 
 111:..\acn-sdk-c\src\wolfSSL\wolfcrypt\src/coding.c ****         inLen -= 4;
 112:..\acn-sdk-c\src\wolfSSL\wolfcrypt\src/coding.c ****         if (inLen && (in[j] == ' ' || in[j] == '\r' || in[j] == '\n')) {
 113:..\acn-sdk-c\src\wolfSSL\wolfcrypt\src/coding.c ****             byte endLine = in[j++];
 114:..\acn-sdk-c\src\wolfSSL\wolfcrypt\src/coding.c ****             inLen--;
 115:..\acn-sdk-c\src\wolfSSL\wolfcrypt\src/coding.c ****             while (inLen && endLine == ' ') {   /* allow trailing whitespace */
 116:..\acn-sdk-c\src\wolfSSL\wolfcrypt\src/coding.c ****                 endLine = in[j++];
 117:..\acn-sdk-c\src\wolfSSL\wolfcrypt\src/coding.c ****                 inLen--;
 118:..\acn-sdk-c\src\wolfSSL\wolfcrypt\src/coding.c ****             }
 119:..\acn-sdk-c\src\wolfSSL\wolfcrypt\src/coding.c ****             if (endLine == '\r') {
 120:..\acn-sdk-c\src\wolfSSL\wolfcrypt\src/coding.c ****                 if (inLen) {
 121:..\acn-sdk-c\src\wolfSSL\wolfcrypt\src/coding.c ****                     endLine = in[j++];
 122:..\acn-sdk-c\src\wolfSSL\wolfcrypt\src/coding.c ****                     inLen--;
 123:..\acn-sdk-c\src\wolfSSL\wolfcrypt\src/coding.c ****                 }
 124:..\acn-sdk-c\src\wolfSSL\wolfcrypt\src/coding.c ****             }
 125:..\acn-sdk-c\src\wolfSSL\wolfcrypt\src/coding.c ****             if (endLine != '\n') {
 126:..\acn-sdk-c\src\wolfSSL\wolfcrypt\src/coding.c ****                 WOLFSSL_MSG("Bad end of line in Base64 Decode");
 127:..\acn-sdk-c\src\wolfSSL\wolfcrypt\src/coding.c ****                 return ASN_INPUT_E;
 128:..\acn-sdk-c\src\wolfSSL\wolfcrypt\src/coding.c ****             }
 129:..\acn-sdk-c\src\wolfSSL\wolfcrypt\src/coding.c ****         }
 130:..\acn-sdk-c\src\wolfSSL\wolfcrypt\src/coding.c ****     }
 131:..\acn-sdk-c\src\wolfSSL\wolfcrypt\src/coding.c ****     *outLen = i;
 132:..\acn-sdk-c\src\wolfSSL\wolfcrypt\src/coding.c **** 
 133:..\acn-sdk-c\src\wolfSSL\wolfcrypt\src/coding.c ****     return 0;
 134:..\acn-sdk-c\src\wolfSSL\wolfcrypt\src/coding.c **** }
 135:..\acn-sdk-c\src\wolfSSL\wolfcrypt\src/coding.c **** 
 136:..\acn-sdk-c\src\wolfSSL\wolfcrypt\src/coding.c **** 
 137:..\acn-sdk-c\src\wolfSSL\wolfcrypt\src/coding.c **** #if defined(WOLFSSL_BASE64_ENCODE)
 138:..\acn-sdk-c\src\wolfSSL\wolfcrypt\src/coding.c **** 
 139:..\acn-sdk-c\src\wolfSSL\wolfcrypt\src/coding.c **** static
 140:..\acn-sdk-c\src\wolfSSL\wolfcrypt\src/coding.c **** const byte base64Encode[] = { 'A', 'B', 'C', 'D', 'E', 'F', 'G', 'H', 'I', 'J',
 141:..\acn-sdk-c\src\wolfSSL\wolfcrypt\src/coding.c ****                               'K', 'L', 'M', 'N', 'O', 'P', 'Q', 'R', 'S', 'T',
 142:..\acn-sdk-c\src\wolfSSL\wolfcrypt\src/coding.c ****                               'U', 'V', 'W', 'X', 'Y', 'Z',
 143:..\acn-sdk-c\src\wolfSSL\wolfcrypt\src/coding.c ****                               'a', 'b', 'c', 'd', 'e', 'f', 'g', 'h', 'i', 'j',
 144:..\acn-sdk-c\src\wolfSSL\wolfcrypt\src/coding.c ****                               'k', 'l', 'm', 'n', 'o', 'p', 'q', 'r', 's', 't',
 145:..\acn-sdk-c\src\wolfSSL\wolfcrypt\src/coding.c ****                               'u', 'v', 'w', 'x', 'y', 'z',
 146:..\acn-sdk-c\src\wolfSSL\wolfcrypt\src/coding.c ****                               '0', '1', '2', '3', '4', '5', '6', '7', '8', '9',
 147:..\acn-sdk-c\src\wolfSSL\wolfcrypt\src/coding.c ****                               '+', '/'
ARM GAS  C:\Users\ddemidov\AppData\Local\Temp\ccj0ptZt.s 			page 4


 148:..\acn-sdk-c\src\wolfSSL\wolfcrypt\src/coding.c ****                             };
 149:..\acn-sdk-c\src\wolfSSL\wolfcrypt\src/coding.c **** 
 150:..\acn-sdk-c\src\wolfSSL\wolfcrypt\src/coding.c **** 
 151:..\acn-sdk-c\src\wolfSSL\wolfcrypt\src/coding.c **** /* make sure *i (idx) won't exceed max, store and possibly escape to out,
 152:..\acn-sdk-c\src\wolfSSL\wolfcrypt\src/coding.c ****  * raw means use e w/o decode,  0 on success */
 153:..\acn-sdk-c\src\wolfSSL\wolfcrypt\src/coding.c **** static int CEscape(int escaped, byte e, byte* out, word32* i, word32 max,
 154:..\acn-sdk-c\src\wolfSSL\wolfcrypt\src/coding.c ****                   int raw, int getSzOnly)
 155:..\acn-sdk-c\src\wolfSSL\wolfcrypt\src/coding.c **** {
  25              		.loc 1 155 0
  26              		.cfi_startproc
  27              	.LVL0:
  28 0000 F7B5     		push	{r0, r1, r2, r4, r5, r6, r7, lr}
  29              		.cfi_def_cfa_offset 32
  30              		.cfi_offset 0, -32
  31              		.cfi_offset 1, -28
  32              		.cfi_offset 2, -24
  33              		.cfi_offset 4, -20
  34              		.cfi_offset 5, -16
  35              		.cfi_offset 6, -12
  36              		.cfi_offset 7, -8
  37              		.cfi_offset 14, -4
 156:..\acn-sdk-c\src\wolfSSL\wolfcrypt\src/coding.c ****     int    doEscape = 0;
 157:..\acn-sdk-c\src\wolfSSL\wolfcrypt\src/coding.c ****     word32 needed = 1;
 158:..\acn-sdk-c\src\wolfSSL\wolfcrypt\src/coding.c ****     word32 idx = *i;
 159:..\acn-sdk-c\src\wolfSSL\wolfcrypt\src/coding.c **** 
 160:..\acn-sdk-c\src\wolfSSL\wolfcrypt\src/coding.c ****     byte basic;
 161:..\acn-sdk-c\src\wolfSSL\wolfcrypt\src/coding.c ****     byte plus    = 0;
 162:..\acn-sdk-c\src\wolfSSL\wolfcrypt\src/coding.c ****     byte equals  = 0;
 163:..\acn-sdk-c\src\wolfSSL\wolfcrypt\src/coding.c ****     byte newline = 0;
 164:..\acn-sdk-c\src\wolfSSL\wolfcrypt\src/coding.c **** 
 165:..\acn-sdk-c\src\wolfSSL\wolfcrypt\src/coding.c ****     if (raw)
  38              		.loc 1 165 0
  39 0002 099C     		ldr	r4, [sp, #36]
 155:..\acn-sdk-c\src\wolfSSL\wolfcrypt\src/coding.c ****     int    doEscape = 0;
  40              		.loc 1 155 0
  41 0004 0193     		str	r3, [sp, #4]
 158:..\acn-sdk-c\src\wolfSSL\wolfcrypt\src/coding.c **** 
  42              		.loc 1 158 0
  43 0006 1B68     		ldr	r3, [r3]
  44              	.LVL1:
  45              		.loc 1 165 0
  46 0008 002C     		cmp	r4, #0
  47 000a 01D1     		bne	.L2
 166:..\acn-sdk-c\src\wolfSSL\wolfcrypt\src/coding.c ****         basic = e;
 167:..\acn-sdk-c\src\wolfSSL\wolfcrypt\src/coding.c ****     else
 168:..\acn-sdk-c\src\wolfSSL\wolfcrypt\src/coding.c ****         basic = base64Encode[e];
  48              		.loc 1 168 0
  49 000c 314C     		ldr	r4, .L32
  50 000e 615C     		ldrb	r1, [r4, r1]
  51              	.LVL2:
  52              	.L2:
 169:..\acn-sdk-c\src\wolfSSL\wolfcrypt\src/coding.c **** 
 170:..\acn-sdk-c\src\wolfSSL\wolfcrypt\src/coding.c ****     /* check whether to escape. Only escape for EncodeEsc */
 171:..\acn-sdk-c\src\wolfSSL\wolfcrypt\src/coding.c ****     if (escaped == WC_ESC_NL_ENC) {
  53              		.loc 1 171 0
  54 0010 0128     		cmp	r0, #1
  55 0012 15D1     		bne	.L18
ARM GAS  C:\Users\ddemidov\AppData\Local\Temp\ccj0ptZt.s 			page 5


 172:..\acn-sdk-c\src\wolfSSL\wolfcrypt\src/coding.c ****         switch ((char)basic) {
  56              		.loc 1 172 0
  57 0014 2B29     		cmp	r1, #43
  58 0016 18D0     		beq	.L19
  59 0018 3D29     		cmp	r1, #61
  60 001a 05D0     		beq	.L5
  61 001c 0A29     		cmp	r1, #10
  62 001e 09D0     		beq	.L6
 163:..\acn-sdk-c\src\wolfSSL\wolfcrypt\src/coding.c **** 
  63              		.loc 1 163 0
  64 0020 0024     		mov	r4, #0
 162:..\acn-sdk-c\src\wolfSSL\wolfcrypt\src/coding.c ****     byte newline = 0;
  65              		.loc 1 162 0
  66 0022 251C     		mov	r5, r4
 161:..\acn-sdk-c\src\wolfSSL\wolfcrypt\src/coding.c ****     byte equals  = 0;
  67              		.loc 1 161 0
  68 0024 271C     		mov	r7, r4
  69 0026 09E0     		b	.L29
  70              	.L5:
  71              	.LVL3:
 173:..\acn-sdk-c\src\wolfSSL\wolfcrypt\src/coding.c ****             case '+' :
 174:..\acn-sdk-c\src\wolfSSL\wolfcrypt\src/coding.c ****                 plus     = 1;
 175:..\acn-sdk-c\src\wolfSSL\wolfcrypt\src/coding.c ****                 doEscape = 1;
 176:..\acn-sdk-c\src\wolfSSL\wolfcrypt\src/coding.c ****                 needed  += 2;
 177:..\acn-sdk-c\src\wolfSSL\wolfcrypt\src/coding.c ****                 break;
 178:..\acn-sdk-c\src\wolfSSL\wolfcrypt\src/coding.c ****             case '=' :
 179:..\acn-sdk-c\src\wolfSSL\wolfcrypt\src/coding.c ****                 equals   = 1;
  72              		.loc 1 179 0
  73 0028 051C     		mov	r5, r0
 163:..\acn-sdk-c\src\wolfSSL\wolfcrypt\src/coding.c **** 
  74              		.loc 1 163 0
  75 002a 0024     		mov	r4, #0
 180:..\acn-sdk-c\src\wolfSSL\wolfcrypt\src/coding.c ****                 doEscape = 1;
 181:..\acn-sdk-c\src\wolfSSL\wolfcrypt\src/coding.c ****                 needed  += 2;
  76              		.loc 1 181 0
  77 002c 0320     		mov	r0, #3
  78              	.LVL4:
 161:..\acn-sdk-c\src\wolfSSL\wolfcrypt\src/coding.c ****     byte equals  = 0;
  79              		.loc 1 161 0
  80 002e 271C     		mov	r7, r4
 180:..\acn-sdk-c\src\wolfSSL\wolfcrypt\src/coding.c ****                 doEscape = 1;
  81              		.loc 1 180 0
  82 0030 AC46     		mov	ip, r5
 182:..\acn-sdk-c\src\wolfSSL\wolfcrypt\src/coding.c ****                 break;
  83              		.loc 1 182 0
  84 0032 0FE0     		b	.L3
  85              	.LVL5:
  86              	.L6:
 162:..\acn-sdk-c\src\wolfSSL\wolfcrypt\src/coding.c ****     byte newline = 0;
  87              		.loc 1 162 0
  88 0034 0025     		mov	r5, #0
 183:..\acn-sdk-c\src\wolfSSL\wolfcrypt\src/coding.c ****             case '\n' :
 184:..\acn-sdk-c\src\wolfSSL\wolfcrypt\src/coding.c ****                 newline  = 1;
  89              		.loc 1 184 0
  90 0036 041C     		mov	r4, r0
 161:..\acn-sdk-c\src\wolfSSL\wolfcrypt\src/coding.c ****     byte equals  = 0;
  91              		.loc 1 161 0
ARM GAS  C:\Users\ddemidov\AppData\Local\Temp\ccj0ptZt.s 			page 6


  92 0038 2F1C     		mov	r7, r5
 185:..\acn-sdk-c\src\wolfSSL\wolfcrypt\src/coding.c ****                 doEscape = 1;
 186:..\acn-sdk-c\src\wolfSSL\wolfcrypt\src/coding.c ****                 needed  += 2;
  93              		.loc 1 186 0
  94 003a 0320     		mov	r0, #3
  95              	.LVL6:
  96              	.L29:
 185:..\acn-sdk-c\src\wolfSSL\wolfcrypt\src/coding.c ****                 doEscape = 1;
  97              		.loc 1 185 0
  98 003c A446     		mov	ip, r4
 187:..\acn-sdk-c\src\wolfSSL\wolfcrypt\src/coding.c ****                 break;
  99              		.loc 1 187 0
 100 003e 09E0     		b	.L3
 101              	.LVL7:
 102              	.L18:
 163:..\acn-sdk-c\src\wolfSSL\wolfcrypt\src/coding.c **** 
 103              		.loc 1 163 0
 104 0040 0024     		mov	r4, #0
 157:..\acn-sdk-c\src\wolfSSL\wolfcrypt\src/coding.c ****     word32 idx = *i;
 105              		.loc 1 157 0
 106 0042 0120     		mov	r0, #1
 107              	.LVL8:
 162:..\acn-sdk-c\src\wolfSSL\wolfcrypt\src/coding.c ****     byte newline = 0;
 108              		.loc 1 162 0
 109 0044 251C     		mov	r5, r4
 161:..\acn-sdk-c\src\wolfSSL\wolfcrypt\src/coding.c ****     byte equals  = 0;
 110              		.loc 1 161 0
 111 0046 271C     		mov	r7, r4
 112 0048 F8E7     		b	.L29
 113              	.LVL9:
 114              	.L19:
 174:..\acn-sdk-c\src\wolfSSL\wolfcrypt\src/coding.c ****                 doEscape = 1;
 115              		.loc 1 174 0
 116 004a 071C     		mov	r7, r0
 163:..\acn-sdk-c\src\wolfSSL\wolfcrypt\src/coding.c **** 
 117              		.loc 1 163 0
 118 004c 0024     		mov	r4, #0
 176:..\acn-sdk-c\src\wolfSSL\wolfcrypt\src/coding.c ****                 break;
 119              		.loc 1 176 0
 120 004e 0320     		mov	r0, #3
 121              	.LVL10:
 162:..\acn-sdk-c\src\wolfSSL\wolfcrypt\src/coding.c ****     byte newline = 0;
 122              		.loc 1 162 0
 123 0050 251C     		mov	r5, r4
 175:..\acn-sdk-c\src\wolfSSL\wolfcrypt\src/coding.c ****                 needed  += 2;
 124              		.loc 1 175 0
 125 0052 BC46     		mov	ip, r7
 126              	.LVL11:
 127              	.L3:
 188:..\acn-sdk-c\src\wolfSSL\wolfcrypt\src/coding.c ****             default:
 189:..\acn-sdk-c\src\wolfSSL\wolfcrypt\src/coding.c ****                 /* do nothing */
 190:..\acn-sdk-c\src\wolfSSL\wolfcrypt\src/coding.c ****                 break;
 191:..\acn-sdk-c\src\wolfSSL\wolfcrypt\src/coding.c ****         }
 192:..\acn-sdk-c\src\wolfSSL\wolfcrypt\src/coding.c ****     }
 193:..\acn-sdk-c\src\wolfSSL\wolfcrypt\src/coding.c **** 
 194:..\acn-sdk-c\src\wolfSSL\wolfcrypt\src/coding.c ****     /* check size */
 195:..\acn-sdk-c\src\wolfSSL\wolfcrypt\src/coding.c ****     if ( (idx+needed) > max && !getSzOnly) {
ARM GAS  C:\Users\ddemidov\AppData\Local\Temp\ccj0ptZt.s 			page 7


 128              		.loc 1 195 0
 129 0054 C018     		add	r0, r0, r3
 130              	.LVL12:
 131 0056 061E     		sub	r6, r0, #0
 132 0058 0898     		ldr	r0, [sp, #32]
 133 005a 8642     		cmp	r6, r0
 134 005c 05D9     		bls	.L7
 135              		.loc 1 195 0 is_stmt 0 discriminator 1
 136 005e 0A9A     		ldr	r2, [sp, #40]
 137              	.LVL13:
 138 0060 002A     		cmp	r2, #0
 139 0062 31D1     		bne	.L27
 196:..\acn-sdk-c\src\wolfSSL\wolfcrypt\src/coding.c ****         WOLFSSL_MSG("Escape buffer max too small");
 197:..\acn-sdk-c\src\wolfSSL\wolfcrypt\src/coding.c ****         return BUFFER_E;
 140              		.loc 1 197 0 is_stmt 1
 141 0064 8420     		mov	r0, #132
 142 0066 4042     		neg	r0, r0
 143 0068 32E0     		b	.L28
 144              	.LVL14:
 145              	.L7:
 198:..\acn-sdk-c\src\wolfSSL\wolfcrypt\src/coding.c ****     }
 199:..\acn-sdk-c\src\wolfSSL\wolfcrypt\src/coding.c **** 
 200:..\acn-sdk-c\src\wolfSSL\wolfcrypt\src/coding.c ****     /* store it */
 201:..\acn-sdk-c\src\wolfSSL\wolfcrypt\src/coding.c ****     if (doEscape == 0) {
 146              		.loc 1 201 0
 147 006a 6046     		mov	r0, ip
 148 006c 0028     		cmp	r0, #0
 149 006e 07D1     		bne	.L10
 150              	.LVL15:
 202:..\acn-sdk-c\src\wolfSSL\wolfcrypt\src/coding.c ****         if(getSzOnly)
 151              		.loc 1 202 0
 152 0070 0A98     		ldr	r0, [sp, #40]
 153              	.LVL16:
 154 0072 0028     		cmp	r0, #0
 155 0074 01D0     		beq	.L11
 156              	.LVL17:
 157              	.L16:
 203:..\acn-sdk-c\src\wolfSSL\wolfcrypt\src/coding.c ****             idx++;
 158              		.loc 1 203 0
 159 0076 581C     		add	r0, r3, #1
 160              	.LVL18:
 161 0078 22E0     		b	.L12
 162              	.LVL19:
 163              	.L11:
 204:..\acn-sdk-c\src\wolfSSL\wolfcrypt\src/coding.c ****         else
 205:..\acn-sdk-c\src\wolfSSL\wolfcrypt\src/coding.c ****             out[idx++] = basic;
 164              		.loc 1 205 0
 165 007a 581C     		add	r0, r3, #1
 166              	.LVL20:
 167 007c D154     		strb	r1, [r2, r3]
 168 007e 1FE0     		b	.L12
 169              	.LVL21:
 170              	.L10:
 206:..\acn-sdk-c\src\wolfSSL\wolfcrypt\src/coding.c ****     }
 207:..\acn-sdk-c\src\wolfSSL\wolfcrypt\src/coding.c ****     else {
 208:..\acn-sdk-c\src\wolfSSL\wolfcrypt\src/coding.c ****         if(getSzOnly)
 171              		.loc 1 208 0
ARM GAS  C:\Users\ddemidov\AppData\Local\Temp\ccj0ptZt.s 			page 8


 172 0080 0A99     		ldr	r1, [sp, #40]
 173              	.LVL22:
 174 0082 0029     		cmp	r1, #0
 175 0084 01D0     		beq	.L13
 176              	.LVL23:
 177              	.L17:
 209:..\acn-sdk-c\src\wolfSSL\wolfcrypt\src/coding.c ****             idx+=3;
 178              		.loc 1 209 0
 179 0086 D81C     		add	r0, r3, #3
 180              	.LVL24:
 181 0088 1AE0     		b	.L12
 182              	.LVL25:
 183              	.L13:
 210:..\acn-sdk-c\src\wolfSSL\wolfcrypt\src/coding.c ****         else {
 211:..\acn-sdk-c\src\wolfSSL\wolfcrypt\src/coding.c ****             out[idx++] = '%';  /* start escape */
 184              		.loc 1 211 0
 185 008a 2521     		mov	r1, #37
 186 008c 581C     		add	r0, r3, #1
 187              	.LVL26:
 188 008e D154     		strb	r1, [r2, r3]
 212:..\acn-sdk-c\src\wolfSSL\wolfcrypt\src/coding.c **** 
 213:..\acn-sdk-c\src\wolfSSL\wolfcrypt\src/coding.c ****             if (plus) {
 189              		.loc 1 213 0
 190 0090 002F     		cmp	r7, #0
 191 0092 05D0     		beq	.L14
 192              	.LVL27:
 214:..\acn-sdk-c\src\wolfSSL\wolfcrypt\src/coding.c ****                 out[idx++] = '2';
 193              		.loc 1 214 0
 194 0094 0D31     		add	r1, r1, #13
 195 0096 1154     		strb	r1, [r2, r0]
 215:..\acn-sdk-c\src\wolfSSL\wolfcrypt\src/coding.c ****                 out[idx++] = 'B';
 196              		.loc 1 215 0
 197 0098 D81C     		add	r0, r3, #3
 198              	.LVL28:
 199 009a D318     		add	r3, r2, r3
 200 009c 4222     		mov	r2, #66
 201              	.LVL29:
 202 009e 0EE0     		b	.L30
 203              	.LVL30:
 204              	.L14:
 216:..\acn-sdk-c\src\wolfSSL\wolfcrypt\src/coding.c ****             }
 217:..\acn-sdk-c\src\wolfSSL\wolfcrypt\src/coding.c ****             else if (equals) {
 205              		.loc 1 217 0
 206 00a0 002D     		cmp	r5, #0
 207 00a2 05D0     		beq	.L15
 208              	.LVL31:
 218:..\acn-sdk-c\src\wolfSSL\wolfcrypt\src/coding.c ****                 out[idx++] = '3';
 209              		.loc 1 218 0
 210 00a4 3321     		mov	r1, #51
 211 00a6 1154     		strb	r1, [r2, r0]
 219:..\acn-sdk-c\src\wolfSSL\wolfcrypt\src/coding.c ****                 out[idx++] = 'D';
 212              		.loc 1 219 0
 213 00a8 D81C     		add	r0, r3, #3
 214              	.LVL32:
 215 00aa D318     		add	r3, r2, r3
 216 00ac 4422     		mov	r2, #68
 217              	.LVL33:
ARM GAS  C:\Users\ddemidov\AppData\Local\Temp\ccj0ptZt.s 			page 9


 218 00ae 06E0     		b	.L30
 219              	.LVL34:
 220              	.L15:
 220:..\acn-sdk-c\src\wolfSSL\wolfcrypt\src/coding.c ****             }
 221:..\acn-sdk-c\src\wolfSSL\wolfcrypt\src/coding.c ****             else if (newline) {
 221              		.loc 1 221 0
 222 00b0 002C     		cmp	r4, #0
 223 00b2 05D0     		beq	.L12
 224              	.LVL35:
 222:..\acn-sdk-c\src\wolfSSL\wolfcrypt\src/coding.c ****                 out[idx++] = '0';
 225              		.loc 1 222 0
 226 00b4 3021     		mov	r1, #48
 227 00b6 1154     		strb	r1, [r2, r0]
 223:..\acn-sdk-c\src\wolfSSL\wolfcrypt\src/coding.c ****                 out[idx++] = 'A';
 228              		.loc 1 223 0
 229 00b8 D81C     		add	r0, r3, #3
 230              	.LVL36:
 231 00ba D318     		add	r3, r2, r3
 232 00bc 4122     		mov	r2, #65
 233              	.LVL37:
 234              	.L30:
 235 00be 9A70     		strb	r2, [r3, #2]
 236              	.LVL38:
 237              	.L12:
 224:..\acn-sdk-c\src\wolfSSL\wolfcrypt\src/coding.c ****             }
 225:..\acn-sdk-c\src\wolfSSL\wolfcrypt\src/coding.c ****         }
 226:..\acn-sdk-c\src\wolfSSL\wolfcrypt\src/coding.c ****     }
 227:..\acn-sdk-c\src\wolfSSL\wolfcrypt\src/coding.c ****     *i = idx;
 238              		.loc 1 227 0
 239 00c0 019B     		ldr	r3, [sp, #4]
 240 00c2 1860     		str	r0, [r3]
 228:..\acn-sdk-c\src\wolfSSL\wolfcrypt\src/coding.c **** 
 229:..\acn-sdk-c\src\wolfSSL\wolfcrypt\src/coding.c ****     return 0;
 241              		.loc 1 229 0
 242 00c4 0020     		mov	r0, #0
 243              	.LVL39:
 244 00c6 03E0     		b	.L28
 245              	.LVL40:
 246              	.L27:
 201:..\acn-sdk-c\src\wolfSSL\wolfcrypt\src/coding.c ****         if(getSzOnly)
 247              		.loc 1 201 0
 248 00c8 6246     		mov	r2, ip
 249 00ca 002A     		cmp	r2, #0
 250 00cc D3D0     		beq	.L16
 251              	.LVL41:
 252 00ce DAE7     		b	.L17
 253              	.LVL42:
 254              	.L28:
 230:..\acn-sdk-c\src\wolfSSL\wolfcrypt\src/coding.c **** }
 255              		.loc 1 230 0
 256              		@ sp needed
 257              	.LVL43:
 258              	.LVL44:
 259              	.LVL45:
 260 00d0 FEBD     		pop	{r1, r2, r3, r4, r5, r6, r7, pc}
 261              	.L33:
 262 00d2 C046     		.align	2
ARM GAS  C:\Users\ddemidov\AppData\Local\Temp\ccj0ptZt.s 			page 10


 263              	.L32:
 264 00d4 00000000 		.word	.LANCHOR0
 265              		.cfi_endproc
 266              	.LFE1:
 267              		.size	CEscape, .-CEscape
 268              		.global	__aeabi_uidiv
 269              		.section	.text.DoBase64_Encode,"ax",%progbits
 270              		.align	1
 271              		.code	16
 272              		.thumb_func
 273              		.type	DoBase64_Encode, %function
 274              	DoBase64_Encode:
 275              	.LFB2:
 231:..\acn-sdk-c\src\wolfSSL\wolfcrypt\src/coding.c **** 
 232:..\acn-sdk-c\src\wolfSSL\wolfcrypt\src/coding.c **** 
 233:..\acn-sdk-c\src\wolfSSL\wolfcrypt\src/coding.c **** /* internal worker, handles both escaped and normal line endings.
 234:..\acn-sdk-c\src\wolfSSL\wolfcrypt\src/coding.c ****    If out buffer is NULL, will return sz needed in outLen */
 235:..\acn-sdk-c\src\wolfSSL\wolfcrypt\src/coding.c **** static int DoBase64_Encode(const byte* in, word32 inLen, byte* out,
 236:..\acn-sdk-c\src\wolfSSL\wolfcrypt\src/coding.c ****                            word32* outLen, int escaped)
 237:..\acn-sdk-c\src\wolfSSL\wolfcrypt\src/coding.c **** {
 276              		.loc 1 237 0
 277              		.cfi_startproc
 278              	.LVL46:
 279 0000 F0B5     		push	{r4, r5, r6, r7, lr}
 280              		.cfi_def_cfa_offset 20
 281              		.cfi_offset 4, -20
 282              		.cfi_offset 5, -16
 283              		.cfi_offset 6, -12
 284              		.cfi_offset 7, -8
 285              		.cfi_offset 14, -4
 286 0002 1C1C     		mov	r4, r3
 238:..\acn-sdk-c\src\wolfSSL\wolfcrypt\src/coding.c ****     int    ret = 0;
 239:..\acn-sdk-c\src\wolfSSL\wolfcrypt\src/coding.c ****     word32 i = 0,
 287              		.loc 1 239 0
 288 0004 0023     		mov	r3, #0
 289              	.LVL47:
 237:..\acn-sdk-c\src\wolfSSL\wolfcrypt\src/coding.c ****     int    ret = 0;
 290              		.loc 1 237 0
 291 0006 8FB0     		sub	sp, sp, #60
 292              		.cfi_def_cfa_offset 80
 293              		.loc 1 239 0
 294 0008 0D93     		str	r3, [sp, #52]
 295              	.LVL48:
 240:..\acn-sdk-c\src\wolfSSL\wolfcrypt\src/coding.c ****            j = 0,
 241:..\acn-sdk-c\src\wolfSSL\wolfcrypt\src/coding.c ****            n = 0;   /* new line counter */
 242:..\acn-sdk-c\src\wolfSSL\wolfcrypt\src/coding.c **** 
 243:..\acn-sdk-c\src\wolfSSL\wolfcrypt\src/coding.c ****     int    getSzOnly = (out == NULL);
 296              		.loc 1 243 0
 297 000a 131C     		mov	r3, r2
 237:..\acn-sdk-c\src\wolfSSL\wolfcrypt\src/coding.c ****     int    ret = 0;
 298              		.loc 1 237 0
 299 000c 0492     		str	r2, [sp, #16]
 300              		.loc 1 243 0
 301 000e 5A42     		neg	r2, r3
 302 0010 5341     		adc	r3, r3, r2
 303              	.LVL49:
 237:..\acn-sdk-c\src\wolfSSL\wolfcrypt\src/coding.c ****     int    ret = 0;
ARM GAS  C:\Users\ddemidov\AppData\Local\Temp\ccj0ptZt.s 			page 11


 304              		.loc 1 237 0
 305 0012 0690     		str	r0, [sp, #24]
 306 0014 0E1C     		mov	r6, r1
 244:..\acn-sdk-c\src\wolfSSL\wolfcrypt\src/coding.c **** 
 245:..\acn-sdk-c\src\wolfSSL\wolfcrypt\src/coding.c ****     word32 outSz = (inLen + 3 - 1) / 3 * 4;
 307              		.loc 1 245 0
 308 0016 881C     		add	r0, r1, #2
 309              	.LVL50:
 310 0018 0321     		mov	r1, #3
 311              	.LVL51:
 243:..\acn-sdk-c\src\wolfSSL\wolfcrypt\src/coding.c **** 
 312              		.loc 1 243 0
 313 001a DDB2     		uxtb	r5, r3
 314              	.LVL52:
 315              		.loc 1 245 0
 316 001c FFF7FEFF 		bl	__aeabi_uidiv
 317              	.LVL53:
 318 0020 8000     		lsl	r0, r0, #2
 319              	.LVL54:
 246:..\acn-sdk-c\src\wolfSSL\wolfcrypt\src/coding.c ****     word32 addSz = (outSz + PEM_LINE_SZ - 1) / PEM_LINE_SZ;  /* new lines */
 320              		.loc 1 246 0
 321 0022 031C     		mov	r3, r0
 247:..\acn-sdk-c\src\wolfSSL\wolfcrypt\src/coding.c **** 
 248:..\acn-sdk-c\src\wolfSSL\wolfcrypt\src/coding.c ****     if (escaped == WC_ESC_NL_ENC)
 322              		.loc 1 248 0
 323 0024 149A     		ldr	r2, [sp, #80]
 246:..\acn-sdk-c\src\wolfSSL\wolfcrypt\src/coding.c ****     word32 addSz = (outSz + PEM_LINE_SZ - 1) / PEM_LINE_SZ;  /* new lines */
 324              		.loc 1 246 0
 325 0026 3F33     		add	r3, r3, #63
 326 0028 9B09     		lsr	r3, r3, #6
 327              	.LVL55:
 328              		.loc 1 248 0
 329 002a 012A     		cmp	r2, #1
 330 002c 02D1     		bne	.L35
 249:..\acn-sdk-c\src\wolfSSL\wolfcrypt\src/coding.c ****         addSz *= 3;   /* instead of just \n, we're doing %0A triplet */
 331              		.loc 1 249 0
 332 002e 0232     		add	r2, r2, #2
 333 0030 5343     		mul	r3, r2
 334              	.LVL56:
 335 0032 05E0     		b	.L36
 336              	.L35:
 250:..\acn-sdk-c\src\wolfSSL\wolfcrypt\src/coding.c ****     else if (escaped == WC_NO_NL_ENC)
 251:..\acn-sdk-c\src\wolfSSL\wolfcrypt\src/coding.c ****         addSz = 0;    /* encode without \n */
 337              		.loc 1 251 0
 338 0034 149A     		ldr	r2, [sp, #80]
 339 0036 023A     		sub	r2, r2, #2
 340 0038 511E     		sub	r1, r2, #1
 341 003a 8A41     		sbc	r2, r2, r1
 342 003c 5242     		neg	r2, r2
 343 003e 1340     		and	r3, r2
 344              	.LVL57:
 345              	.L36:
 252:..\acn-sdk-c\src\wolfSSL\wolfcrypt\src/coding.c **** 
 253:..\acn-sdk-c\src\wolfSSL\wolfcrypt\src/coding.c ****     outSz += addSz;
 346              		.loc 1 253 0
 347 0040 1B18     		add	r3, r3, r0
 348              	.LVL58:
ARM GAS  C:\Users\ddemidov\AppData\Local\Temp\ccj0ptZt.s 			page 12


 349 0042 0893     		str	r3, [sp, #32]
 350              	.LVL59:
 254:..\acn-sdk-c\src\wolfSSL\wolfcrypt\src/coding.c **** 
 255:..\acn-sdk-c\src\wolfSSL\wolfcrypt\src/coding.c ****     /* if escaped we can't predetermine size for one pass encoding, but
 256:..\acn-sdk-c\src\wolfSSL\wolfcrypt\src/coding.c ****      * make sure we have enough if no escapes are in input
 257:..\acn-sdk-c\src\wolfSSL\wolfcrypt\src/coding.c ****      * Also need to ensure outLen valid before dereference */
 258:..\acn-sdk-c\src\wolfSSL\wolfcrypt\src/coding.c ****     if (!outLen || (outSz > *outLen && !getSzOnly)) return BAD_FUNC_ARG;
 351              		.loc 1 258 0
 352 0044 002C     		cmp	r4, #0
 353 0046 00D1     		bne	.LCB376
 354 0048 9EE0     		b	.L54	@long jump
 355              	.LCB376:
 356              		.loc 1 258 0 is_stmt 0 discriminator 2
 357 004a 2268     		ldr	r2, [r4]
 358 004c 9342     		cmp	r3, r2
 359 004e 04D8     		bhi	.L38
 360              	.L40:
 251:..\acn-sdk-c\src\wolfSSL\wolfcrypt\src/coding.c **** 
 361              		.loc 1 251 0 is_stmt 1
 362 0050 069B     		ldr	r3, [sp, #24]
 363              	.LVL60:
 364 0052 0593     		str	r3, [sp, #20]
 365 0054 0023     		mov	r3, #0
 366 0056 0793     		str	r3, [sp, #28]
 367 0058 4EE0     		b	.L39
 368              	.LVL61:
 369              	.L38:
 370              		.loc 1 258 0 discriminator 3
 371 005a 002D     		cmp	r5, #0
 372 005c F8D1     		bne	.L40
 373 005e 93E0     		b	.L54
 374              	.LVL62:
 375              	.L43:
 376              	.LBB2:
 259:..\acn-sdk-c\src\wolfSSL\wolfcrypt\src/coding.c **** 
 260:..\acn-sdk-c\src\wolfSSL\wolfcrypt\src/coding.c ****     while (inLen > 2) {
 261:..\acn-sdk-c\src\wolfSSL\wolfcrypt\src/coding.c ****         byte b1 = in[j++];
 262:..\acn-sdk-c\src\wolfSSL\wolfcrypt\src/coding.c ****         byte b2 = in[j++];
 263:..\acn-sdk-c\src\wolfSSL\wolfcrypt\src/coding.c ****         byte b3 = in[j++];
 264:..\acn-sdk-c\src\wolfSSL\wolfcrypt\src/coding.c **** 
 265:..\acn-sdk-c\src\wolfSSL\wolfcrypt\src/coding.c ****         /* encoded idx */
 266:..\acn-sdk-c\src\wolfSSL\wolfcrypt\src/coding.c ****         byte e1 = b1 >> 2;
 267:..\acn-sdk-c\src\wolfSSL\wolfcrypt\src/coding.c ****         byte e2 = (byte)(((b1 & 0x3) << 4) | (b2 >> 4));
 377              		.loc 1 267 0
 378 0060 0327     		mov	r7, #3
 261:..\acn-sdk-c\src\wolfSSL\wolfcrypt\src/coding.c ****         byte b2 = in[j++];
 379              		.loc 1 261 0
 380 0062 059B     		ldr	r3, [sp, #20]
 263:..\acn-sdk-c\src\wolfSSL\wolfcrypt\src/coding.c **** 
 381              		.loc 1 263 0
 382 0064 059A     		ldr	r2, [sp, #20]
 261:..\acn-sdk-c\src\wolfSSL\wolfcrypt\src/coding.c ****         byte b2 = in[j++];
 383              		.loc 1 261 0
 384 0066 1978     		ldrb	r1, [r3]
 385              	.LVL63:
 262:..\acn-sdk-c\src\wolfSSL\wolfcrypt\src/coding.c ****         byte b3 = in[j++];
 386              		.loc 1 262 0
ARM GAS  C:\Users\ddemidov\AppData\Local\Temp\ccj0ptZt.s 			page 13


 387 0068 5B78     		ldrb	r3, [r3, #1]
 388              	.LVL64:
 389              		.loc 1 267 0
 390 006a 0F40     		and	r7, r1
 391 006c 1809     		lsr	r0, r3, #4
 392 006e 3F01     		lsl	r7, r7, #4
 393 0070 0743     		orr	r7, r0
 394 0072 0997     		str	r7, [sp, #36]
 268:..\acn-sdk-c\src\wolfSSL\wolfcrypt\src/coding.c ****         byte e3 = (byte)(((b2 & 0xF) << 2) | (b3 >> 6));
 395              		.loc 1 268 0
 396 0074 0F27     		mov	r7, #15
 263:..\acn-sdk-c\src\wolfSSL\wolfcrypt\src/coding.c **** 
 397              		.loc 1 263 0
 398 0076 9278     		ldrb	r2, [r2, #2]
 399              	.LVL65:
 400              		.loc 1 268 0
 401 0078 3B40     		and	r3, r7
 402              	.LVL66:
 403 007a 9009     		lsr	r0, r2, #6
 404 007c 9B00     		lsl	r3, r3, #2
 405 007e 0343     		orr	r3, r0
 406 0080 0A93     		str	r3, [sp, #40]
 407              	.LVL67:
 269:..\acn-sdk-c\src\wolfSSL\wolfcrypt\src/coding.c ****         byte e4 = b3 & 0x3F;
 408              		.loc 1 269 0
 409 0082 3F23     		mov	r3, #63
 410 0084 1A40     		and	r2, r3
 411              	.LVL68:
 270:..\acn-sdk-c\src\wolfSSL\wolfcrypt\src/coding.c **** 
 271:..\acn-sdk-c\src\wolfSSL\wolfcrypt\src/coding.c ****         /* store */
 272:..\acn-sdk-c\src\wolfSSL\wolfcrypt\src/coding.c ****         ret = CEscape(escaped, e1, out, &i, *outLen, 0, getSzOnly);
 412              		.loc 1 272 0
 413 0086 2368     		ldr	r3, [r4]
 269:..\acn-sdk-c\src\wolfSSL\wolfcrypt\src/coding.c ****         byte e4 = b3 & 0x3F;
 414              		.loc 1 269 0
 415 0088 0B92     		str	r2, [sp, #44]
 416              	.LVL69:
 417              		.loc 1 272 0
 418 008a 0093     		str	r3, [sp]
 419              	.LVL70:
 420 008c 0023     		mov	r3, #0
 421 008e 8908     		lsr	r1, r1, #2
 422              	.LVL71:
 423 0090 0193     		str	r3, [sp, #4]
 424 0092 0295     		str	r5, [sp, #8]
 425 0094 1498     		ldr	r0, [sp, #80]
 426 0096 049A     		ldr	r2, [sp, #16]
 427 0098 0DAB     		add	r3, sp, #52
 428 009a FFF7FEFF 		bl	CEscape
 429              	.LVL72:
 273:..\acn-sdk-c\src\wolfSSL\wolfcrypt\src/coding.c ****         if (ret != 0) break;
 430              		.loc 1 273 0
 431 009e 0028     		cmp	r0, #0
 432 00a0 62D1     		bne	.L50
 274:..\acn-sdk-c\src\wolfSSL\wolfcrypt\src/coding.c ****         ret = CEscape(escaped, e2, out, &i, *outLen, 0, getSzOnly);
 433              		.loc 1 274 0
 434 00a2 2368     		ldr	r3, [r4]
ARM GAS  C:\Users\ddemidov\AppData\Local\Temp\ccj0ptZt.s 			page 14


 435 00a4 0190     		str	r0, [sp, #4]
 436 00a6 0093     		str	r3, [sp]
 437 00a8 0295     		str	r5, [sp, #8]
 438 00aa 1498     		ldr	r0, [sp, #80]
 439              	.LVL73:
 440 00ac 0999     		ldr	r1, [sp, #36]
 441 00ae 049A     		ldr	r2, [sp, #16]
 442 00b0 0DAB     		add	r3, sp, #52
 443 00b2 FFF7FEFF 		bl	CEscape
 444              	.LVL74:
 275:..\acn-sdk-c\src\wolfSSL\wolfcrypt\src/coding.c ****         if (ret != 0) break;
 445              		.loc 1 275 0
 446 00b6 0028     		cmp	r0, #0
 447 00b8 56D1     		bne	.L50
 276:..\acn-sdk-c\src\wolfSSL\wolfcrypt\src/coding.c ****         ret = CEscape(escaped, e3, out, &i, *outLen, 0, getSzOnly);
 448              		.loc 1 276 0
 449 00ba 2368     		ldr	r3, [r4]
 450 00bc 0190     		str	r0, [sp, #4]
 451 00be 0093     		str	r3, [sp]
 452 00c0 0295     		str	r5, [sp, #8]
 453 00c2 1498     		ldr	r0, [sp, #80]
 454              	.LVL75:
 455 00c4 0A99     		ldr	r1, [sp, #40]
 456 00c6 049A     		ldr	r2, [sp, #16]
 457 00c8 0DAB     		add	r3, sp, #52
 458 00ca FFF7FEFF 		bl	CEscape
 459              	.LVL76:
 277:..\acn-sdk-c\src\wolfSSL\wolfcrypt\src/coding.c ****         if (ret != 0) break;
 460              		.loc 1 277 0
 461 00ce 0028     		cmp	r0, #0
 462 00d0 4AD1     		bne	.L50
 278:..\acn-sdk-c\src\wolfSSL\wolfcrypt\src/coding.c ****         ret = CEscape(escaped, e4, out, &i, *outLen, 0, getSzOnly);
 463              		.loc 1 278 0
 464 00d2 2368     		ldr	r3, [r4]
 465 00d4 0190     		str	r0, [sp, #4]
 466 00d6 0093     		str	r3, [sp]
 467 00d8 0295     		str	r5, [sp, #8]
 468 00da 1498     		ldr	r0, [sp, #80]
 469              	.LVL77:
 470 00dc 0B99     		ldr	r1, [sp, #44]
 471 00de 049A     		ldr	r2, [sp, #16]
 472 00e0 0DAB     		add	r3, sp, #52
 473 00e2 FFF7FEFF 		bl	CEscape
 474              	.LVL78:
 279:..\acn-sdk-c\src\wolfSSL\wolfcrypt\src/coding.c ****         if (ret != 0) break;
 475              		.loc 1 279 0
 476 00e6 0028     		cmp	r0, #0
 477 00e8 3ED1     		bne	.L50
 280:..\acn-sdk-c\src\wolfSSL\wolfcrypt\src/coding.c **** 
 281:..\acn-sdk-c\src\wolfSSL\wolfcrypt\src/coding.c ****         inLen -= 3;
 282:..\acn-sdk-c\src\wolfSSL\wolfcrypt\src/coding.c **** 
 283:..\acn-sdk-c\src\wolfSSL\wolfcrypt\src/coding.c ****         /* Insert newline after PEM_LINE_SZ, unless no \n requested */
 284:..\acn-sdk-c\src\wolfSSL\wolfcrypt\src/coding.c ****         if (escaped != WC_NO_NL_ENC && (++n % (PEM_LINE_SZ/4)) == 0 && inLen){
 478              		.loc 1 284 0
 479 00ea 149B     		ldr	r3, [sp, #80]
 281:..\acn-sdk-c\src\wolfSSL\wolfcrypt\src/coding.c **** 
 480              		.loc 1 281 0
ARM GAS  C:\Users\ddemidov\AppData\Local\Temp\ccj0ptZt.s 			page 15


 481 00ec 033E     		sub	r6, r6, #3
 482              	.LVL79:
 483              		.loc 1 284 0
 484 00ee 022B     		cmp	r3, #2
 485 00f0 08D1     		bne	.L75
 486              	.L42:
 487 00f2 059B     		ldr	r3, [sp, #20]
 488 00f4 0333     		add	r3, r3, #3
 489 00f6 0593     		str	r3, [sp, #20]
 490              	.LVL80:
 491              	.L39:
 492 00f8 059B     		ldr	r3, [sp, #20]
 493 00fa 069A     		ldr	r2, [sp, #24]
 494 00fc 9B1A     		sub	r3, r3, r2
 495              	.LVL81:
 496              	.LBE2:
 260:..\acn-sdk-c\src\wolfSSL\wolfcrypt\src/coding.c ****         byte b1 = in[j++];
 497              		.loc 1 260 0
 498 00fe 022E     		cmp	r6, #2
 499 0100 AED8     		bhi	.L43
 500 0102 14E0     		b	.L76
 501              	.LVL82:
 502              	.L75:
 503              	.LBB3:
 504              		.loc 1 284 0 discriminator 1
 505 0104 079B     		ldr	r3, [sp, #28]
 506 0106 0133     		add	r3, r3, #1
 507 0108 0793     		str	r3, [sp, #28]
 508              	.LVL83:
 509 010a 3B42     		tst	r3, r7
 510 010c F1D1     		bne	.L42
 511              		.loc 1 284 0 is_stmt 0 discriminator 2
 512 010e 002E     		cmp	r6, #0
 513 0110 EFD0     		beq	.L42
 285:..\acn-sdk-c\src\wolfSSL\wolfcrypt\src/coding.c ****             ret = CEscape(escaped, '\n', out, &i, *outLen, 1, getSzOnly);
 514              		.loc 1 285 0 is_stmt 1
 515 0112 2368     		ldr	r3, [r4]
 516              	.LVL84:
 517 0114 0295     		str	r5, [sp, #8]
 518 0116 0093     		str	r3, [sp]
 519 0118 0123     		mov	r3, #1
 520 011a 1498     		ldr	r0, [sp, #80]
 521              	.LVL85:
 522 011c 0193     		str	r3, [sp, #4]
 523 011e 0A21     		mov	r1, #10
 524 0120 049A     		ldr	r2, [sp, #16]
 525 0122 0DAB     		add	r3, sp, #52
 526 0124 FFF7FEFF 		bl	CEscape
 527              	.LVL86:
 286:..\acn-sdk-c\src\wolfSSL\wolfcrypt\src/coding.c ****             if (ret != 0) break;
 528              		.loc 1 286 0
 529 0128 0028     		cmp	r0, #0
 530 012a E2D0     		beq	.L42
 531              	.LBE3:
 532 012c 1CE0     		b	.L50
 533              	.LVL87:
 534              	.L76:
ARM GAS  C:\Users\ddemidov\AppData\Local\Temp\ccj0ptZt.s 			page 16


 287:..\acn-sdk-c\src\wolfSSL\wolfcrypt\src/coding.c ****         }
 288:..\acn-sdk-c\src\wolfSSL\wolfcrypt\src/coding.c ****     }
 289:..\acn-sdk-c\src\wolfSSL\wolfcrypt\src/coding.c **** 
 290:..\acn-sdk-c\src\wolfSSL\wolfcrypt\src/coding.c ****     /* last integral */
 291:..\acn-sdk-c\src\wolfSSL\wolfcrypt\src/coding.c ****     if (inLen && ret == 0) {
 535              		.loc 1 291 0
 536 012e 002E     		cmp	r6, #0
 537 0130 66D0     		beq	.L53
 538              	.LVL88:
 539              	.LBB4:
 292:..\acn-sdk-c\src\wolfSSL\wolfcrypt\src/coding.c ****         int twoBytes = (inLen == 2);
 540              		.loc 1 292 0
 541 0132 023E     		sub	r6, r6, #2
 542              	.LVL89:
 543 0134 7242     		neg	r2, r6
 544 0136 7241     		adc	r2, r2, r6
 545              	.LVL90:
 293:..\acn-sdk-c\src\wolfSSL\wolfcrypt\src/coding.c **** 
 294:..\acn-sdk-c\src\wolfSSL\wolfcrypt\src/coding.c ****         byte b1 = in[j++];
 295:..\acn-sdk-c\src\wolfSSL\wolfcrypt\src/coding.c ****         byte b2 = (twoBytes) ? in[j++] : 0;
 546              		.loc 1 295 0
 547 0138 0026     		mov	r6, #0
 292:..\acn-sdk-c\src\wolfSSL\wolfcrypt\src/coding.c ****         int twoBytes = (inLen == 2);
 548              		.loc 1 292 0
 549 013a D2B2     		uxtb	r2, r2
 550 013c 0592     		str	r2, [sp, #20]
 551              	.LVL91:
 294:..\acn-sdk-c\src\wolfSSL\wolfcrypt\src/coding.c ****         byte b2 = (twoBytes) ? in[j++] : 0;
 552              		.loc 1 294 0
 553 013e 069A     		ldr	r2, [sp, #24]
 554 0140 D75C     		ldrb	r7, [r2, r3]
 555              	.LVL92:
 556              		.loc 1 295 0
 557 0142 059A     		ldr	r2, [sp, #20]
 558 0144 B242     		cmp	r2, r6
 559 0146 02D0     		beq	.L45
 560              	.LVL93:
 561              		.loc 1 295 0 is_stmt 0 discriminator 1
 562 0148 069A     		ldr	r2, [sp, #24]
 563 014a D318     		add	r3, r2, r3
 564              	.LVL94:
 565 014c 5E78     		ldrb	r6, [r3, #1]
 566              	.L45:
 567              	.LVL95:
 296:..\acn-sdk-c\src\wolfSSL\wolfcrypt\src/coding.c **** 
 297:..\acn-sdk-c\src\wolfSSL\wolfcrypt\src/coding.c ****         byte e1 = b1 >> 2;
 298:..\acn-sdk-c\src\wolfSSL\wolfcrypt\src/coding.c ****         byte e2 = (byte)(((b1 & 0x3) << 4) | (b2 >> 4));
 299:..\acn-sdk-c\src\wolfSSL\wolfcrypt\src/coding.c ****         byte e3 = (byte)((b2 & 0xF) << 2);
 300:..\acn-sdk-c\src\wolfSSL\wolfcrypt\src/coding.c **** 
 301:..\acn-sdk-c\src\wolfSSL\wolfcrypt\src/coding.c ****         ret = CEscape(escaped, e1, out, &i, *outLen, 0, getSzOnly);
 568              		.loc 1 301 0 is_stmt 1 discriminator 4
 569 014e 2368     		ldr	r3, [r4]
 570 0150 B908     		lsr	r1, r7, #2
 571 0152 0093     		str	r3, [sp]
 572 0154 0023     		mov	r3, #0
 573 0156 0295     		str	r5, [sp, #8]
 574 0158 0193     		str	r3, [sp, #4]
ARM GAS  C:\Users\ddemidov\AppData\Local\Temp\ccj0ptZt.s 			page 17


 575 015a 1498     		ldr	r0, [sp, #80]
 576 015c 049A     		ldr	r2, [sp, #16]
 577 015e 0DAB     		add	r3, sp, #52
 578 0160 FFF7FEFF 		bl	CEscape
 579              	.LVL96:
 302:..\acn-sdk-c\src\wolfSSL\wolfcrypt\src/coding.c ****         if (ret == 0)
 580              		.loc 1 302 0 discriminator 4
 581 0164 0028     		cmp	r0, #0
 582 0166 14D0     		beq	.L77
 583              	.LVL97:
 584              	.L50:
 585              	.LBE4:
 303:..\acn-sdk-c\src\wolfSSL\wolfcrypt\src/coding.c ****             ret = CEscape(escaped, e2, out, &i, *outLen, 0, getSzOnly);
 304:..\acn-sdk-c\src\wolfSSL\wolfcrypt\src/coding.c ****         if (ret == 0) {
 305:..\acn-sdk-c\src\wolfSSL\wolfcrypt\src/coding.c ****             /* third */
 306:..\acn-sdk-c\src\wolfSSL\wolfcrypt\src/coding.c ****             if (twoBytes)
 307:..\acn-sdk-c\src\wolfSSL\wolfcrypt\src/coding.c ****                 ret = CEscape(escaped, e3, out, &i, *outLen, 0, getSzOnly);
 308:..\acn-sdk-c\src\wolfSSL\wolfcrypt\src/coding.c ****             else
 309:..\acn-sdk-c\src\wolfSSL\wolfcrypt\src/coding.c ****                 ret = CEscape(escaped, '=', out, &i, *outLen, 1, getSzOnly);
 310:..\acn-sdk-c\src\wolfSSL\wolfcrypt\src/coding.c ****         }
 311:..\acn-sdk-c\src\wolfSSL\wolfcrypt\src/coding.c ****         /* fourth always pad */
 312:..\acn-sdk-c\src\wolfSSL\wolfcrypt\src/coding.c ****         if (ret == 0)
 313:..\acn-sdk-c\src\wolfSSL\wolfcrypt\src/coding.c ****             ret = CEscape(escaped, '=', out, &i, *outLen, 1, getSzOnly);
 314:..\acn-sdk-c\src\wolfSSL\wolfcrypt\src/coding.c ****     }
 315:..\acn-sdk-c\src\wolfSSL\wolfcrypt\src/coding.c **** 
 316:..\acn-sdk-c\src\wolfSSL\wolfcrypt\src/coding.c ****     if (ret == 0 && escaped != WC_NO_NL_ENC)
 317:..\acn-sdk-c\src\wolfSSL\wolfcrypt\src/coding.c ****         ret = CEscape(escaped, '\n', out, &i, *outLen, 1, getSzOnly);
 318:..\acn-sdk-c\src\wolfSSL\wolfcrypt\src/coding.c **** 
 319:..\acn-sdk-c\src\wolfSSL\wolfcrypt\src/coding.c ****     if (i != outSz && escaped != 1 && ret == 0)
 586              		.loc 1 319 0
 587 0168 0D9B     		ldr	r3, [sp, #52]
 588 016a 089A     		ldr	r2, [sp, #32]
 589 016c 9342     		cmp	r3, r2
 590 016e 04D0     		beq	.L51
 591              		.loc 1 319 0 is_stmt 0 discriminator 1
 592 0170 149A     		ldr	r2, [sp, #80]
 593 0172 012A     		cmp	r2, #1
 594 0174 01D0     		beq	.L51
 595              		.loc 1 319 0 discriminator 2
 596 0176 0028     		cmp	r0, #0
 597 0178 08D0     		beq	.L57
 598              	.L51:
 320:..\acn-sdk-c\src\wolfSSL\wolfcrypt\src/coding.c ****         return ASN_INPUT_E;
 321:..\acn-sdk-c\src\wolfSSL\wolfcrypt\src/coding.c **** 
 322:..\acn-sdk-c\src\wolfSSL\wolfcrypt\src/coding.c ****     *outLen = i;
 599              		.loc 1 322 0 is_stmt 1
 600 017a 2360     		str	r3, [r4]
 323:..\acn-sdk-c\src\wolfSSL\wolfcrypt\src/coding.c ****     if(ret == 0)
 601              		.loc 1 323 0
 602 017c 0028     		cmp	r0, #0
 603 017e 4FD1     		bne	.L66
 324:..\acn-sdk-c\src\wolfSSL\wolfcrypt\src/coding.c ****         return getSzOnly ? LENGTH_ONLY_E : 0;
 604              		.loc 1 324 0
 605 0180 002D     		cmp	r5, #0
 606 0182 4DD0     		beq	.L66
 607 0184 CA20     		mov	r0, #202
 608              	.LVL98:
ARM GAS  C:\Users\ddemidov\AppData\Local\Temp\ccj0ptZt.s 			page 18


 609 0186 02E0     		b	.L74
 610              	.LVL99:
 611              	.L54:
 258:..\acn-sdk-c\src\wolfSSL\wolfcrypt\src/coding.c **** 
 612              		.loc 1 258 0
 613 0188 AD20     		mov	r0, #173
 614 018a 00E0     		b	.L74
 615              	.LVL100:
 616              	.L57:
 320:..\acn-sdk-c\src\wolfSSL\wolfcrypt\src/coding.c **** 
 617              		.loc 1 320 0
 618 018c 9A20     		mov	r0, #154
 619              	.LVL101:
 620              	.L74:
 621              		.loc 1 324 0
 622 018e 4042     		neg	r0, r0
 623 0190 46E0     		b	.L66
 624              	.LVL102:
 625              	.L77:
 626              	.LBB5:
 298:..\acn-sdk-c\src\wolfSSL\wolfcrypt\src/coding.c ****         byte e3 = (byte)((b2 & 0xF) << 2);
 627              		.loc 1 298 0
 628 0192 0321     		mov	r1, #3
 629 0194 3309     		lsr	r3, r6, #4
 630 0196 0F40     		and	r7, r1
 631              	.LVL103:
 303:..\acn-sdk-c\src\wolfSSL\wolfcrypt\src/coding.c ****         if (ret == 0) {
 632              		.loc 1 303 0
 633 0198 191C     		mov	r1, r3
 634 019a 2368     		ldr	r3, [r4]
 298:..\acn-sdk-c\src\wolfSSL\wolfcrypt\src/coding.c ****         byte e3 = (byte)((b2 & 0xF) << 2);
 635              		.loc 1 298 0
 636 019c 3F01     		lsl	r7, r7, #4
 303:..\acn-sdk-c\src\wolfSSL\wolfcrypt\src/coding.c ****         if (ret == 0) {
 637              		.loc 1 303 0
 638 019e 0093     		str	r3, [sp]
 639 01a0 0190     		str	r0, [sp, #4]
 640 01a2 3943     		orr	r1, r7
 641 01a4 0295     		str	r5, [sp, #8]
 642 01a6 1498     		ldr	r0, [sp, #80]
 643              	.LVL104:
 644 01a8 049A     		ldr	r2, [sp, #16]
 645 01aa 0DAB     		add	r3, sp, #52
 646 01ac FFF7FEFF 		bl	CEscape
 647              	.LVL105:
 304:..\acn-sdk-c\src\wolfSSL\wolfcrypt\src/coding.c ****             /* third */
 648              		.loc 1 304 0
 649 01b0 0028     		cmp	r0, #0
 650 01b2 D9D1     		bne	.L50
 306:..\acn-sdk-c\src\wolfSSL\wolfcrypt\src/coding.c ****                 ret = CEscape(escaped, e3, out, &i, *outLen, 0, getSzOnly);
 651              		.loc 1 306 0
 652 01b4 059B     		ldr	r3, [sp, #20]
 653 01b6 002B     		cmp	r3, #0
 654 01b8 08D0     		beq	.L47
 299:..\acn-sdk-c\src\wolfSSL\wolfcrypt\src/coding.c **** 
 655              		.loc 1 299 0
 656 01ba 0F21     		mov	r1, #15
ARM GAS  C:\Users\ddemidov\AppData\Local\Temp\ccj0ptZt.s 			page 19


 307:..\acn-sdk-c\src\wolfSSL\wolfcrypt\src/coding.c ****             else
 657              		.loc 1 307 0
 658 01bc 2368     		ldr	r3, [r4]
 299:..\acn-sdk-c\src\wolfSSL\wolfcrypt\src/coding.c **** 
 659              		.loc 1 299 0
 660 01be 3140     		and	r1, r6
 307:..\acn-sdk-c\src\wolfSSL\wolfcrypt\src/coding.c ****             else
 661              		.loc 1 307 0
 662 01c0 0190     		str	r0, [sp, #4]
 663 01c2 8900     		lsl	r1, r1, #2
 664 01c4 0093     		str	r3, [sp]
 665 01c6 0295     		str	r5, [sp, #8]
 666 01c8 1498     		ldr	r0, [sp, #80]
 667              	.LVL106:
 668 01ca 06E0     		b	.L73
 669              	.LVL107:
 670              	.L47:
 309:..\acn-sdk-c\src\wolfSSL\wolfcrypt\src/coding.c ****         }
 671              		.loc 1 309 0
 672 01cc 2368     		ldr	r3, [r4]
 673 01ce 3D21     		mov	r1, #61
 674 01d0 0093     		str	r3, [sp]
 675 01d2 0123     		mov	r3, #1
 676 01d4 1498     		ldr	r0, [sp, #80]
 677              	.LVL108:
 678 01d6 0193     		str	r3, [sp, #4]
 679 01d8 0295     		str	r5, [sp, #8]
 680              	.L73:
 681 01da 049A     		ldr	r2, [sp, #16]
 682 01dc 0DAB     		add	r3, sp, #52
 683 01de FFF7FEFF 		bl	CEscape
 684              	.LVL109:
 312:..\acn-sdk-c\src\wolfSSL\wolfcrypt\src/coding.c ****             ret = CEscape(escaped, '=', out, &i, *outLen, 1, getSzOnly);
 685              		.loc 1 312 0
 686 01e2 0028     		cmp	r0, #0
 687 01e4 C0D1     		bne	.L50
 313:..\acn-sdk-c\src\wolfSSL\wolfcrypt\src/coding.c ****     }
 688              		.loc 1 313 0
 689 01e6 2368     		ldr	r3, [r4]
 690 01e8 0295     		str	r5, [sp, #8]
 691 01ea 0093     		str	r3, [sp]
 692 01ec 0123     		mov	r3, #1
 693 01ee 1498     		ldr	r0, [sp, #80]
 694              	.LVL110:
 695 01f0 0193     		str	r3, [sp, #4]
 696 01f2 3D21     		mov	r1, #61
 697 01f4 049A     		ldr	r2, [sp, #16]
 698 01f6 0DAB     		add	r3, sp, #52
 699 01f8 FFF7FEFF 		bl	CEscape
 700              	.LVL111:
 701              	.LBE5:
 316:..\acn-sdk-c\src\wolfSSL\wolfcrypt\src/coding.c ****         ret = CEscape(escaped, '\n', out, &i, *outLen, 1, getSzOnly);
 702              		.loc 1 316 0
 703 01fc 0028     		cmp	r0, #0
 704 01fe B3D1     		bne	.L50
 705              	.LVL112:
 706              	.L53:
ARM GAS  C:\Users\ddemidov\AppData\Local\Temp\ccj0ptZt.s 			page 20


 707 0200 149B     		ldr	r3, [sp, #80]
 708 0202 0020     		mov	r0, #0
 709 0204 022B     		cmp	r3, #2
 710 0206 AFD0     		beq	.L50
 317:..\acn-sdk-c\src\wolfSSL\wolfcrypt\src/coding.c **** 
 711              		.loc 1 317 0
 712 0208 2368     		ldr	r3, [r4]
 713 020a 0295     		str	r5, [sp, #8]
 714 020c 0093     		str	r3, [sp]
 715 020e 0123     		mov	r3, #1
 716 0210 1498     		ldr	r0, [sp, #80]
 717 0212 0193     		str	r3, [sp, #4]
 718 0214 0A21     		mov	r1, #10
 719 0216 049A     		ldr	r2, [sp, #16]
 720 0218 0DAB     		add	r3, sp, #52
 721 021a FFF7FEFF 		bl	CEscape
 722              	.LVL113:
 723 021e A3E7     		b	.L50
 724              	.LVL114:
 725              	.L66:
 325:..\acn-sdk-c\src\wolfSSL\wolfcrypt\src/coding.c ****     return ret;
 326:..\acn-sdk-c\src\wolfSSL\wolfcrypt\src/coding.c **** }
 726              		.loc 1 326 0
 727 0220 0FB0     		add	sp, sp, #60
 728              		@ sp needed
 729              	.LVL115:
 730              	.LVL116:
 731 0222 F0BD     		pop	{r4, r5, r6, r7, pc}
 732              		.cfi_endproc
 733              	.LFE2:
 734              		.size	DoBase64_Encode, .-DoBase64_Encode
 735              		.section	.text.Base64_Decode,"ax",%progbits
 736              		.align	1
 737              		.global	Base64_Decode
 738              		.code	16
 739              		.thumb_func
 740              		.type	Base64_Decode, %function
 741              	Base64_Decode:
 742              	.LFB0:
  58:..\acn-sdk-c\src\wolfSSL\wolfcrypt\src/coding.c ****     word32 i = 0;
 743              		.loc 1 58 0
 744              		.cfi_startproc
 745              	.LVL117:
 746 0000 F0B5     		push	{r4, r5, r6, r7, lr}
 747              		.cfi_def_cfa_offset 20
 748              		.cfi_offset 4, -20
 749              		.cfi_offset 5, -16
 750              		.cfi_offset 6, -12
 751              		.cfi_offset 7, -8
 752              		.cfi_offset 14, -4
 753 0002 87B0     		sub	sp, sp, #28
 754              		.cfi_def_cfa_offset 48
  58:..\acn-sdk-c\src\wolfSSL\wolfcrypt\src/coding.c ****     word32 i = 0;
 755              		.loc 1 58 0
 756 0004 0292     		str	r2, [sp, #8]
  61:..\acn-sdk-c\src\wolfSSL\wolfcrypt\src/coding.c ****     const byte maxIdx = (byte)sizeof(base64Decode) + 0x2B - 1;
 757              		.loc 1 61 0
ARM GAS  C:\Users\ddemidov\AppData\Local\Temp\ccj0ptZt.s 			page 21


 758 0006 0A1C     		mov	r2, r1
 759              	.LVL118:
 760 0008 3F32     		add	r2, r2, #63
  58:..\acn-sdk-c\src\wolfSSL\wolfcrypt\src/coding.c ****     word32 i = 0;
 761              		.loc 1 58 0
 762 000a 8446     		mov	ip, r0
  61:..\acn-sdk-c\src\wolfSSL\wolfcrypt\src/coding.c ****     const byte maxIdx = (byte)sizeof(base64Decode) + 0x2B - 1;
 763              		.loc 1 61 0
 764 000c 9209     		lsr	r2, r2, #6
 765              	.LVL119:
 766 000e 481C     		add	r0, r1, #1
 767              	.LVL120:
  64:..\acn-sdk-c\src\wolfSSL\wolfcrypt\src/coding.c ****     if (plainSz > *outLen) return BAD_FUNC_ARG;
 768              		.loc 1 64 0
 769 0010 821A     		sub	r2, r0, r2
 770              	.LVL121:
 771 0012 0320     		mov	r0, #3
 772 0014 4243     		mul	r2, r0
  65:..\acn-sdk-c\src\wolfSSL\wolfcrypt\src/coding.c **** 
 773              		.loc 1 65 0
 774 0016 1868     		ldr	r0, [r3]
  64:..\acn-sdk-c\src\wolfSSL\wolfcrypt\src/coding.c ****     if (plainSz > *outLen) return BAD_FUNC_ARG;
 775              		.loc 1 64 0
 776 0018 9208     		lsr	r2, r2, #2
  65:..\acn-sdk-c\src\wolfSSL\wolfcrypt\src/coding.c **** 
 777              		.loc 1 65 0
 778 001a 8242     		cmp	r2, r0
 779 001c 7CD8     		bhi	.L96
 780 001e 0022     		mov	r2, #0
 781 0020 101C     		mov	r0, r2
 782              	.LVL122:
 783              	.L80:
  67:..\acn-sdk-c\src\wolfSSL\wolfcrypt\src/coding.c ****         byte b1, b2, b3;
 784              		.loc 1 67 0
 785 0022 0329     		cmp	r1, #3
 786 0024 75D9     		bls	.L81
 787              	.LVL123:
 788              	.LBB6:
  69:..\acn-sdk-c\src\wolfSSL\wolfcrypt\src/coding.c ****         byte e2 = in[j++];
 789              		.loc 1 69 0
 790 0026 6446     		mov	r4, ip
 791 0028 A55C     		ldrb	r5, [r4, r2]
 792              	.LVL124:
  70:..\acn-sdk-c\src\wolfSSL\wolfcrypt\src/coding.c ****         byte e3 = in[j++];
 793              		.loc 1 70 0
 794 002a A418     		add	r4, r4, r2
  71:..\acn-sdk-c\src\wolfSSL\wolfcrypt\src/coding.c ****         byte e4 = in[j++];
 795              		.loc 1 71 0
 796 002c A778     		ldrb	r7, [r4, #2]
  70:..\acn-sdk-c\src\wolfSSL\wolfcrypt\src/coding.c ****         byte e3 = in[j++];
 797              		.loc 1 70 0
 798 002e 6678     		ldrb	r6, [r4, #1]
 799              	.LVL125:
  72:..\acn-sdk-c\src\wolfSSL\wolfcrypt\src/coding.c **** 
 800              		.loc 1 72 0
 801 0030 E478     		ldrb	r4, [r4, #3]
  71:..\acn-sdk-c\src\wolfSSL\wolfcrypt\src/coding.c ****         byte e4 = in[j++];
ARM GAS  C:\Users\ddemidov\AppData\Local\Temp\ccj0ptZt.s 			page 22


 802              		.loc 1 71 0
 803 0032 0197     		str	r7, [sp, #4]
 804              	.LVL126:
  72:..\acn-sdk-c\src\wolfSSL\wolfcrypt\src/coding.c **** 
 805              		.loc 1 72 0
 806 0034 0094     		str	r4, [sp]
 807              	.LVL127:
  77:..\acn-sdk-c\src\wolfSSL\wolfcrypt\src/coding.c ****             break;
 808              		.loc 1 77 0
 809 0036 002D     		cmp	r5, #0
 810 0038 6BD0     		beq	.L81
 811              	.LVL128:
  84:..\acn-sdk-c\src\wolfSSL\wolfcrypt\src/coding.c ****             WOLFSSL_MSG("Bad Base64 Decode data, too small");
 812              		.loc 1 84 0
 813 003a 2B3D     		sub	r5, r5, #43
 814              	.LVL129:
 815 003c ECB2     		uxtb	r4, r5
 816 003e 4F2C     		cmp	r4, #79
 817 0040 01D9     		bls	.L82
 818              	.LVL130:
 819              	.L83:
  86:..\acn-sdk-c\src\wolfSSL\wolfcrypt\src/coding.c ****         }
 820              		.loc 1 86 0
 821 0042 9A20     		mov	r0, #154
 822 0044 69E0     		b	.L119
 823              	.LVL131:
 824              	.L82:
  84:..\acn-sdk-c\src\wolfSSL\wolfcrypt\src/coding.c ****             WOLFSSL_MSG("Bad Base64 Decode data, too small");
 825              		.loc 1 84 0 discriminator 1
 826 0046 2B3E     		sub	r6, r6, #43
 827              	.LVL132:
 828 0048 F4B2     		uxtb	r4, r6
 829 004a 4F2C     		cmp	r4, #79
 830 004c F9D8     		bhi	.L83
  84:..\acn-sdk-c\src\wolfSSL\wolfcrypt\src/coding.c ****             WOLFSSL_MSG("Bad Base64 Decode data, too small");
 831              		.loc 1 84 0 is_stmt 0 discriminator 2
 832 004e 019C     		ldr	r4, [sp, #4]
 833 0050 2B3C     		sub	r4, r4, #43
 834 0052 0494     		str	r4, [sp, #16]
 835 0054 6C46     		mov	r4, sp
 836 0056 247C     		ldrb	r4, [r4, #16]
 837 0058 4F2C     		cmp	r4, #79
 838 005a F2D8     		bhi	.L83
  84:..\acn-sdk-c\src\wolfSSL\wolfcrypt\src/coding.c ****             WOLFSSL_MSG("Bad Base64 Decode data, too small");
 839              		.loc 1 84 0 discriminator 3
 840 005c 009C     		ldr	r4, [sp]
 841 005e 2B3C     		sub	r4, r4, #43
 842 0060 4F2C     		cmp	r4, #79
 843 0062 EED8     		bhi	.L83
  94:..\acn-sdk-c\src\wolfSSL\wolfcrypt\src/coding.c ****         e2 = base64Decode[e2 - 0x2B];
 844              		.loc 1 94 0 is_stmt 1
 845 0064 314C     		ldr	r4, .L121
 846 0066 271C     		mov	r7, r4
 847 0068 4037     		add	r7, r7, #64
 848 006a 7D5D     		ldrb	r5, [r7, r5]
 849              	.LVL133:
 850 006c 0595     		str	r5, [sp, #20]
ARM GAS  C:\Users\ddemidov\AppData\Local\Temp\ccj0ptZt.s 			page 23


 851              	.LVL134:
  95:..\acn-sdk-c\src\wolfSSL\wolfcrypt\src/coding.c ****         e3 = (e3 == PAD) ? 0 : base64Decode[e3 - 0x2B];
 852              		.loc 1 95 0
 853 006e BD5D     		ldrb	r5, [r7, r6]
  96:..\acn-sdk-c\src\wolfSSL\wolfcrypt\src/coding.c ****         e4 = (e4 == PAD) ? 0 : base64Decode[e4 - 0x2B];
 854              		.loc 1 96 0
 855 0070 019E     		ldr	r6, [sp, #4]
 856              	.LVL135:
  95:..\acn-sdk-c\src\wolfSSL\wolfcrypt\src/coding.c ****         e3 = (e3 == PAD) ? 0 : base64Decode[e3 - 0x2B];
 857              		.loc 1 95 0
 858 0072 0395     		str	r5, [sp, #12]
 859              	.LVL136:
  96:..\acn-sdk-c\src\wolfSSL\wolfcrypt\src/coding.c ****         e4 = (e4 == PAD) ? 0 : base64Decode[e4 - 0x2B];
 860              		.loc 1 96 0
 861 0074 0025     		mov	r5, #0
 862 0076 3D2E     		cmp	r6, #61
 863 0078 01D0     		beq	.L84
  96:..\acn-sdk-c\src\wolfSSL\wolfcrypt\src/coding.c ****         e4 = (e4 == PAD) ? 0 : base64Decode[e4 - 0x2B];
 864              		.loc 1 96 0 is_stmt 0 discriminator 1
 865 007a 049D     		ldr	r5, [sp, #16]
 866 007c 7D5D     		ldrb	r5, [r7, r5]
 867              	.L84:
 868              	.LVL137:
  97:..\acn-sdk-c\src\wolfSSL\wolfcrypt\src/coding.c **** 
 869              		.loc 1 97 0 is_stmt 1 discriminator 4
 870 007e 009F     		ldr	r7, [sp]
 871 0080 0026     		mov	r6, #0
 872 0082 3D2F     		cmp	r7, #61
 873 0084 01D0     		beq	.L85
  97:..\acn-sdk-c\src\wolfSSL\wolfcrypt\src/coding.c **** 
 874              		.loc 1 97 0 is_stmt 0 discriminator 1
 875 0086 E419     		add	r4, r4, r7
 876 0088 667D     		ldrb	r6, [r4, #21]
 877              	.L85:
 878              	.LVL138:
 101:..\acn-sdk-c\src\wolfSSL\wolfcrypt\src/coding.c **** 
 879              		.loc 1 101 0 is_stmt 1 discriminator 4
 880 008a AC01     		lsl	r4, r5, #6
 881 008c 2643     		orr	r6, r4
 882              	.LVL139:
 883 008e F4B2     		uxtb	r4, r6
 884 0090 0494     		str	r4, [sp, #16]
 885              	.LVL140:
  99:..\acn-sdk-c\src\wolfSSL\wolfcrypt\src/coding.c ****         b2 = (byte)(((e2 & 0xF) << 4) | (e3 >> 2));
 886              		.loc 1 99 0 discriminator 4
 887 0092 039C     		ldr	r4, [sp, #12]
 103:..\acn-sdk-c\src\wolfSSL\wolfcrypt\src/coding.c ****         if (!pad3)
 888              		.loc 1 103 0 discriminator 4
 889 0094 471C     		add	r7, r0, #1
 890              	.LVL141:
  99:..\acn-sdk-c\src\wolfSSL\wolfcrypt\src/coding.c ****         b2 = (byte)(((e2 & 0xF) << 4) | (e3 >> 2));
 891              		.loc 1 99 0 discriminator 4
 892 0096 2609     		lsr	r6, r4, #4
 893 0098 059C     		ldr	r4, [sp, #20]
 894 009a A400     		lsl	r4, r4, #2
 895 009c 2643     		orr	r6, r4
 103:..\acn-sdk-c\src\wolfSSL\wolfcrypt\src/coding.c ****         if (!pad3)
ARM GAS  C:\Users\ddemidov\AppData\Local\Temp\ccj0ptZt.s 			page 24


 896              		.loc 1 103 0 discriminator 4
 897 009e 029C     		ldr	r4, [sp, #8]
 898 00a0 2654     		strb	r6, [r4, r0]
 104:..\acn-sdk-c\src\wolfSSL\wolfcrypt\src/coding.c ****             out[i++] = b2;
 899              		.loc 1 104 0 discriminator 4
 900 00a2 019C     		ldr	r4, [sp, #4]
 901 00a4 3D2C     		cmp	r4, #61
 902 00a6 07D0     		beq	.L99
 100:..\acn-sdk-c\src\wolfSSL\wolfcrypt\src/coding.c ****         b3 = (byte)(((e3 & 0x3) << 6) | e4);
 903              		.loc 1 100 0
 904 00a8 039C     		ldr	r4, [sp, #12]
 905 00aa AD08     		lsr	r5, r5, #2
 906              	.LVL142:
 907 00ac 2401     		lsl	r4, r4, #4
 908 00ae 2543     		orr	r5, r4
 105:..\acn-sdk-c\src\wolfSSL\wolfcrypt\src/coding.c ****         if (!pad4)
 909              		.loc 1 105 0
 910 00b0 029C     		ldr	r4, [sp, #8]
 911 00b2 0230     		add	r0, r0, #2
 912              	.LVL143:
 913 00b4 E555     		strb	r5, [r4, r7]
 914 00b6 00E0     		b	.L86
 915              	.LVL144:
 916              	.L99:
 103:..\acn-sdk-c\src\wolfSSL\wolfcrypt\src/coding.c ****         if (!pad3)
 917              		.loc 1 103 0
 918 00b8 381C     		mov	r0, r7
 919              	.LVL145:
 920              	.L86:
 106:..\acn-sdk-c\src\wolfSSL\wolfcrypt\src/coding.c ****             out[i++] = b3;
 921              		.loc 1 106 0
 922 00ba 009C     		ldr	r4, [sp]
 923 00bc 3D2C     		cmp	r4, #61
 924 00be 28D0     		beq	.L81
 107:..\acn-sdk-c\src\wolfSSL\wolfcrypt\src/coding.c ****         else
 925              		.loc 1 107 0
 926 00c0 6F46     		mov	r7, sp
 927 00c2 029E     		ldr	r6, [sp, #8]
 928 00c4 3F7C     		ldrb	r7, [r7, #16]
  72:..\acn-sdk-c\src\wolfSSL\wolfcrypt\src/coding.c **** 
 929              		.loc 1 72 0
 930 00c6 141D     		add	r4, r2, #4
 107:..\acn-sdk-c\src\wolfSSL\wolfcrypt\src/coding.c ****         else
 931              		.loc 1 107 0
 932 00c8 3754     		strb	r7, [r6, r0]
 111:..\acn-sdk-c\src\wolfSSL\wolfcrypt\src/coding.c ****         if (inLen && (in[j] == ' ' || in[j] == '\r' || in[j] == '\n')) {
 933              		.loc 1 111 0
 934 00ca 0E1F     		sub	r6, r1, #4
 107:..\acn-sdk-c\src\wolfSSL\wolfcrypt\src/coding.c ****         else
 935              		.loc 1 107 0
 936 00cc 451C     		add	r5, r0, #1
 937              	.LVL146:
 112:..\acn-sdk-c\src\wolfSSL\wolfcrypt\src/coding.c ****             byte endLine = in[j++];
 938              		.loc 1 112 0
 939 00ce 002E     		cmp	r6, #0
 940 00d0 1BD0     		beq	.L87
 112:..\acn-sdk-c\src\wolfSSL\wolfcrypt\src/coding.c ****             byte endLine = in[j++];
ARM GAS  C:\Users\ddemidov\AppData\Local\Temp\ccj0ptZt.s 			page 25


 941              		.loc 1 112 0 is_stmt 0 discriminator 1
 942 00d2 6046     		mov	r0, ip
 943 00d4 005D     		ldrb	r0, [r0, r4]
 944 00d6 2028     		cmp	r0, #32
 945 00d8 03D0     		beq	.L88
 112:..\acn-sdk-c\src\wolfSSL\wolfcrypt\src/coding.c ****             byte endLine = in[j++];
 946              		.loc 1 112 0 discriminator 2
 947 00da 0D28     		cmp	r0, #13
 948 00dc 01D0     		beq	.L88
 112:..\acn-sdk-c\src\wolfSSL\wolfcrypt\src/coding.c ****             byte endLine = in[j++];
 949              		.loc 1 112 0 discriminator 3
 950 00de 0A28     		cmp	r0, #10
 951 00e0 13D1     		bne	.L87
 952              	.L88:
 953              	.LBB7:
 113:..\acn-sdk-c\src\wolfSSL\wolfcrypt\src/coding.c ****             inLen--;
 954              		.loc 1 113 0 is_stmt 1
 955 00e2 0532     		add	r2, r2, #5
 956              	.LVL147:
 114:..\acn-sdk-c\src\wolfSSL\wolfcrypt\src/coding.c ****             while (inLen && endLine == ' ') {   /* allow trailing whitespace */
 957              		.loc 1 114 0
 958 00e4 4E1F     		sub	r6, r1, #5
 959              	.LVL148:
 960              	.L89:
 115:..\acn-sdk-c\src\wolfSSL\wolfcrypt\src/coding.c ****                 endLine = in[j++];
 961              		.loc 1 115 0
 962 00e6 002E     		cmp	r6, #0
 963 00e8 19D0     		beq	.L90
 115:..\acn-sdk-c\src\wolfSSL\wolfcrypt\src/coding.c ****                 endLine = in[j++];
 964              		.loc 1 115 0 is_stmt 0 discriminator 1
 965 00ea 2028     		cmp	r0, #32
 966 00ec 04D1     		bne	.L120
 967              	.LVL149:
 116:..\acn-sdk-c\src\wolfSSL\wolfcrypt\src/coding.c ****                 inLen--;
 968              		.loc 1 116 0 is_stmt 1
 969 00ee 6146     		mov	r1, ip
 117:..\acn-sdk-c\src\wolfSSL\wolfcrypt\src/coding.c ****             }
 970              		.loc 1 117 0
 971 00f0 013E     		sub	r6, r6, #1
 972              	.LVL150:
 116:..\acn-sdk-c\src\wolfSSL\wolfcrypt\src/coding.c ****                 inLen--;
 973              		.loc 1 116 0
 974 00f2 885C     		ldrb	r0, [r1, r2]
 975              	.LVL151:
 976 00f4 0132     		add	r2, r2, #1
 977              	.LVL152:
 978 00f6 F6E7     		b	.L89
 979              	.L120:
 980 00f8 141C     		mov	r4, r2
 119:..\acn-sdk-c\src\wolfSSL\wolfcrypt\src/coding.c ****                 if (inLen) {
 981              		.loc 1 119 0
 982 00fa 0D28     		cmp	r0, #13
 983 00fc 03D1     		bne	.L94
 121:..\acn-sdk-c\src\wolfSSL\wolfcrypt\src/coding.c ****                     inLen--;
 984              		.loc 1 121 0
 985 00fe 6146     		mov	r1, ip
 986 0100 885C     		ldrb	r0, [r1, r2]
ARM GAS  C:\Users\ddemidov\AppData\Local\Temp\ccj0ptZt.s 			page 26


 987              	.LVL153:
 988 0102 0134     		add	r4, r4, #1
 989              	.LVL154:
 122:..\acn-sdk-c\src\wolfSSL\wolfcrypt\src/coding.c ****                 }
 990              		.loc 1 122 0
 991 0104 013E     		sub	r6, r6, #1
 992              	.LVL155:
 993              	.L94:
 125:..\acn-sdk-c\src\wolfSSL\wolfcrypt\src/coding.c ****                 WOLFSSL_MSG("Bad end of line in Base64 Decode");
 994              		.loc 1 125 0
 995 0106 0A28     		cmp	r0, #10
 996 0108 9BD1     		bne	.L83
 997              	.LVL156:
 998              	.L87:
 999              	.LBE7:
 1000              	.LBE6:
  65:..\acn-sdk-c\src\wolfSSL\wolfcrypt\src/coding.c **** 
 1001              		.loc 1 65 0
 1002 010a 221C     		mov	r2, r4
 1003 010c 281C     		mov	r0, r5
 1004 010e 311C     		mov	r1, r6
 1005 0110 87E7     		b	.L80
 1006              	.LVL157:
 1007              	.L81:
 131:..\acn-sdk-c\src\wolfSSL\wolfcrypt\src/coding.c **** 
 1008              		.loc 1 131 0
 1009 0112 1860     		str	r0, [r3]
 133:..\acn-sdk-c\src\wolfSSL\wolfcrypt\src/coding.c **** }
 1010              		.loc 1 133 0
 1011 0114 0020     		mov	r0, #0
 1012              	.LVL158:
 1013 0116 06E0     		b	.L118
 1014              	.LVL159:
 1015              	.L96:
  65:..\acn-sdk-c\src\wolfSSL\wolfcrypt\src/coding.c **** 
 1016              		.loc 1 65 0
 1017 0118 AD20     		mov	r0, #173
 1018              	.LVL160:
 1019              	.L119:
 1020 011a 4042     		neg	r0, r0
 1021 011c 03E0     		b	.L118
 1022              	.LVL161:
 1023              	.L90:
 1024              	.LBB9:
 1025              	.LBB8:
 1026 011e 141C     		mov	r4, r2
 119:..\acn-sdk-c\src\wolfSSL\wolfcrypt\src/coding.c ****                 if (inLen) {
 1027              		.loc 1 119 0
 1028 0120 0D28     		cmp	r0, #13
 1029 0122 F0D1     		bne	.L94
 1030 0124 8DE7     		b	.L83
 1031              	.LVL162:
 1032              	.L118:
 1033              	.LBE8:
 1034              	.LBE9:
 134:..\acn-sdk-c\src\wolfSSL\wolfcrypt\src/coding.c **** 
 1035              		.loc 1 134 0
ARM GAS  C:\Users\ddemidov\AppData\Local\Temp\ccj0ptZt.s 			page 27


 1036 0126 07B0     		add	sp, sp, #28
 1037              		@ sp needed
 1038 0128 F0BD     		pop	{r4, r5, r6, r7, pc}
 1039              	.L122:
 1040 012a C046     		.align	2
 1041              	.L121:
 1042 012c 00000000 		.word	.LANCHOR0
 1043              		.cfi_endproc
 1044              	.LFE0:
 1045              		.size	Base64_Decode, .-Base64_Decode
 1046              		.section	.text.Base64_Encode,"ax",%progbits
 1047              		.align	1
 1048              		.global	Base64_Encode
 1049              		.code	16
 1050              		.thumb_func
 1051              		.type	Base64_Encode, %function
 1052              	Base64_Encode:
 1053              	.LFB3:
 327:..\acn-sdk-c\src\wolfSSL\wolfcrypt\src/coding.c **** 
 328:..\acn-sdk-c\src\wolfSSL\wolfcrypt\src/coding.c **** 
 329:..\acn-sdk-c\src\wolfSSL\wolfcrypt\src/coding.c **** /* Base64 Encode, PEM style, with \n line endings */
 330:..\acn-sdk-c\src\wolfSSL\wolfcrypt\src/coding.c **** int Base64_Encode(const byte* in, word32 inLen, byte* out, word32* outLen)
 331:..\acn-sdk-c\src\wolfSSL\wolfcrypt\src/coding.c **** {
 1054              		.loc 1 331 0
 1055              		.cfi_startproc
 1056              	.LVL163:
 1057 0000 13B5     		push	{r0, r1, r4, lr}
 1058              		.cfi_def_cfa_offset 16
 1059              		.cfi_offset 0, -16
 1060              		.cfi_offset 1, -12
 1061              		.cfi_offset 4, -8
 1062              		.cfi_offset 14, -4
 332:..\acn-sdk-c\src\wolfSSL\wolfcrypt\src/coding.c ****     return DoBase64_Encode(in, inLen, out, outLen, WC_STD_ENC);
 1063              		.loc 1 332 0
 1064 0002 0024     		mov	r4, #0
 1065 0004 0094     		str	r4, [sp]
 1066 0006 FFF7FEFF 		bl	DoBase64_Encode
 1067              	.LVL164:
 333:..\acn-sdk-c\src\wolfSSL\wolfcrypt\src/coding.c **** }
 1068              		.loc 1 333 0
 1069              		@ sp needed
 1070 000a 16BD     		pop	{r1, r2, r4, pc}
 1071              		.cfi_endproc
 1072              	.LFE3:
 1073              		.size	Base64_Encode, .-Base64_Encode
 1074              		.section	.text.Base64_EncodeEsc,"ax",%progbits
 1075              		.align	1
 1076              		.global	Base64_EncodeEsc
 1077              		.code	16
 1078              		.thumb_func
 1079              		.type	Base64_EncodeEsc, %function
 1080              	Base64_EncodeEsc:
 1081              	.LFB4:
 334:..\acn-sdk-c\src\wolfSSL\wolfcrypt\src/coding.c **** 
 335:..\acn-sdk-c\src\wolfSSL\wolfcrypt\src/coding.c **** 
 336:..\acn-sdk-c\src\wolfSSL\wolfcrypt\src/coding.c **** /* Base64 Encode, with %0A escaped line endings instead of \n */
 337:..\acn-sdk-c\src\wolfSSL\wolfcrypt\src/coding.c **** int Base64_EncodeEsc(const byte* in, word32 inLen, byte* out, word32* outLen)
ARM GAS  C:\Users\ddemidov\AppData\Local\Temp\ccj0ptZt.s 			page 28


 338:..\acn-sdk-c\src\wolfSSL\wolfcrypt\src/coding.c **** {
 1082              		.loc 1 338 0
 1083              		.cfi_startproc
 1084              	.LVL165:
 1085 0000 13B5     		push	{r0, r1, r4, lr}
 1086              		.cfi_def_cfa_offset 16
 1087              		.cfi_offset 0, -16
 1088              		.cfi_offset 1, -12
 1089              		.cfi_offset 4, -8
 1090              		.cfi_offset 14, -4
 339:..\acn-sdk-c\src\wolfSSL\wolfcrypt\src/coding.c ****     return DoBase64_Encode(in, inLen, out, outLen, WC_ESC_NL_ENC);
 1091              		.loc 1 339 0
 1092 0002 0124     		mov	r4, #1
 1093 0004 0094     		str	r4, [sp]
 1094 0006 FFF7FEFF 		bl	DoBase64_Encode
 1095              	.LVL166:
 340:..\acn-sdk-c\src\wolfSSL\wolfcrypt\src/coding.c **** }
 1096              		.loc 1 340 0
 1097              		@ sp needed
 1098 000a 16BD     		pop	{r1, r2, r4, pc}
 1099              		.cfi_endproc
 1100              	.LFE4:
 1101              		.size	Base64_EncodeEsc, .-Base64_EncodeEsc
 1102              		.section	.text.Base64_Encode_NoNl,"ax",%progbits
 1103              		.align	1
 1104              		.global	Base64_Encode_NoNl
 1105              		.code	16
 1106              		.thumb_func
 1107              		.type	Base64_Encode_NoNl, %function
 1108              	Base64_Encode_NoNl:
 1109              	.LFB5:
 341:..\acn-sdk-c\src\wolfSSL\wolfcrypt\src/coding.c **** 
 342:..\acn-sdk-c\src\wolfSSL\wolfcrypt\src/coding.c **** int Base64_Encode_NoNl(const byte* in, word32 inLen, byte* out, word32* outLen)
 343:..\acn-sdk-c\src\wolfSSL\wolfcrypt\src/coding.c **** {
 1110              		.loc 1 343 0
 1111              		.cfi_startproc
 1112              	.LVL167:
 1113 0000 13B5     		push	{r0, r1, r4, lr}
 1114              		.cfi_def_cfa_offset 16
 1115              		.cfi_offset 0, -16
 1116              		.cfi_offset 1, -12
 1117              		.cfi_offset 4, -8
 1118              		.cfi_offset 14, -4
 344:..\acn-sdk-c\src\wolfSSL\wolfcrypt\src/coding.c ****     return DoBase64_Encode(in, inLen, out, outLen, WC_NO_NL_ENC);
 1119              		.loc 1 344 0
 1120 0002 0224     		mov	r4, #2
 1121 0004 0094     		str	r4, [sp]
 1122 0006 FFF7FEFF 		bl	DoBase64_Encode
 1123              	.LVL168:
 345:..\acn-sdk-c\src\wolfSSL\wolfcrypt\src/coding.c **** }
 1124              		.loc 1 345 0
 1125              		@ sp needed
 1126 000a 16BD     		pop	{r1, r2, r4, pc}
 1127              		.cfi_endproc
 1128              	.LFE5:
 1129              		.size	Base64_Encode_NoNl, .-Base64_Encode_NoNl
 1130              		.section	.rodata
ARM GAS  C:\Users\ddemidov\AppData\Local\Temp\ccj0ptZt.s 			page 29


 1131              		.set	.LANCHOR0,. + 0
 1132              		.type	base64Encode, %object
 1133              		.size	base64Encode, 64
 1134              	base64Encode:
 1135 0000 41       		.byte	65
 1136 0001 42       		.byte	66
 1137 0002 43       		.byte	67
 1138 0003 44       		.byte	68
 1139 0004 45       		.byte	69
 1140 0005 46       		.byte	70
 1141 0006 47       		.byte	71
 1142 0007 48       		.byte	72
 1143 0008 49       		.byte	73
 1144 0009 4A       		.byte	74
 1145 000a 4B       		.byte	75
 1146 000b 4C       		.byte	76
 1147 000c 4D       		.byte	77
 1148 000d 4E       		.byte	78
 1149 000e 4F       		.byte	79
 1150 000f 50       		.byte	80
 1151 0010 51       		.byte	81
 1152 0011 52       		.byte	82
 1153 0012 53       		.byte	83
 1154 0013 54       		.byte	84
 1155 0014 55       		.byte	85
 1156 0015 56       		.byte	86
 1157 0016 57       		.byte	87
 1158 0017 58       		.byte	88
 1159 0018 59       		.byte	89
 1160 0019 5A       		.byte	90
 1161 001a 61       		.byte	97
 1162 001b 62       		.byte	98
 1163 001c 63       		.byte	99
 1164 001d 64       		.byte	100
 1165 001e 65       		.byte	101
 1166 001f 66       		.byte	102
 1167 0020 67       		.byte	103
 1168 0021 68       		.byte	104
 1169 0022 69       		.byte	105
 1170 0023 6A       		.byte	106
 1171 0024 6B       		.byte	107
 1172 0025 6C       		.byte	108
 1173 0026 6D       		.byte	109
 1174 0027 6E       		.byte	110
 1175 0028 6F       		.byte	111
 1176 0029 70       		.byte	112
 1177 002a 71       		.byte	113
 1178 002b 72       		.byte	114
 1179 002c 73       		.byte	115
 1180 002d 74       		.byte	116
 1181 002e 75       		.byte	117
 1182 002f 76       		.byte	118
 1183 0030 77       		.byte	119
 1184 0031 78       		.byte	120
 1185 0032 79       		.byte	121
 1186 0033 7A       		.byte	122
 1187 0034 30       		.byte	48
ARM GAS  C:\Users\ddemidov\AppData\Local\Temp\ccj0ptZt.s 			page 30


 1188 0035 31       		.byte	49
 1189 0036 32       		.byte	50
 1190 0037 33       		.byte	51
 1191 0038 34       		.byte	52
 1192 0039 35       		.byte	53
 1193 003a 36       		.byte	54
 1194 003b 37       		.byte	55
 1195 003c 38       		.byte	56
 1196 003d 39       		.byte	57
 1197 003e 2B       		.byte	43
 1198 003f 2F       		.byte	47
 1199              		.type	base64Decode, %object
 1200              		.size	base64Decode, 80
 1201              	base64Decode:
 1202 0040 3E       		.byte	62
 1203 0041 FF       		.byte	-1
 1204 0042 FF       		.byte	-1
 1205 0043 FF       		.byte	-1
 1206 0044 3F       		.byte	63
 1207 0045 34       		.byte	52
 1208 0046 35       		.byte	53
 1209 0047 36       		.byte	54
 1210 0048 37       		.byte	55
 1211 0049 38       		.byte	56
 1212 004a 39       		.byte	57
 1213 004b 3A       		.byte	58
 1214 004c 3B       		.byte	59
 1215 004d 3C       		.byte	60
 1216 004e 3D       		.byte	61
 1217 004f FF       		.byte	-1
 1218 0050 FF       		.byte	-1
 1219 0051 FF       		.byte	-1
 1220 0052 FF       		.byte	-1
 1221 0053 FF       		.byte	-1
 1222 0054 FF       		.byte	-1
 1223 0055 FF       		.byte	-1
 1224 0056 00       		.byte	0
 1225 0057 01       		.byte	1
 1226 0058 02       		.byte	2
 1227 0059 03       		.byte	3
 1228 005a 04       		.byte	4
 1229 005b 05       		.byte	5
 1230 005c 06       		.byte	6
 1231 005d 07       		.byte	7
 1232 005e 08       		.byte	8
 1233 005f 09       		.byte	9
 1234 0060 0A       		.byte	10
 1235 0061 0B       		.byte	11
 1236 0062 0C       		.byte	12
 1237 0063 0D       		.byte	13
 1238 0064 0E       		.byte	14
 1239 0065 0F       		.byte	15
 1240 0066 10       		.byte	16
 1241 0067 11       		.byte	17
 1242 0068 12       		.byte	18
 1243 0069 13       		.byte	19
 1244 006a 14       		.byte	20
ARM GAS  C:\Users\ddemidov\AppData\Local\Temp\ccj0ptZt.s 			page 31


 1245 006b 15       		.byte	21
 1246 006c 16       		.byte	22
 1247 006d 17       		.byte	23
 1248 006e 18       		.byte	24
 1249 006f 19       		.byte	25
 1250 0070 FF       		.byte	-1
 1251 0071 FF       		.byte	-1
 1252 0072 FF       		.byte	-1
 1253 0073 FF       		.byte	-1
 1254 0074 FF       		.byte	-1
 1255 0075 FF       		.byte	-1
 1256 0076 1A       		.byte	26
 1257 0077 1B       		.byte	27
 1258 0078 1C       		.byte	28
 1259 0079 1D       		.byte	29
 1260 007a 1E       		.byte	30
 1261 007b 1F       		.byte	31
 1262 007c 20       		.byte	32
 1263 007d 21       		.byte	33
 1264 007e 22       		.byte	34
 1265 007f 23       		.byte	35
 1266 0080 24       		.byte	36
 1267 0081 25       		.byte	37
 1268 0082 26       		.byte	38
 1269 0083 27       		.byte	39
 1270 0084 28       		.byte	40
 1271 0085 29       		.byte	41
 1272 0086 2A       		.byte	42
 1273 0087 2B       		.byte	43
 1274 0088 2C       		.byte	44
 1275 0089 2D       		.byte	45
 1276 008a 2E       		.byte	46
 1277 008b 2F       		.byte	47
 1278 008c 30       		.byte	48
 1279 008d 31       		.byte	49
 1280 008e 32       		.byte	50
 1281 008f 33       		.byte	51
 1282              		.text
 1283              	.Letext0:
 1284              		.file 2 "..\\acn-sdk-c\\src\\wolfSSL/wolfssl/wolfcrypt/types.h"
 1285              		.file 3 "..\\acn-sdk-c\\src\\wolfSSL/wolfssl/wolfcrypt/error-crypt.h"
 1286              		.file 4 "..\\acn-sdk-c\\src\\wolfSSL/wolfssl/wolfcrypt/coding.h"