ARM GAS  C:\Users\ddemidov\AppData\Local\Temp\ccNs4Ptg.s 			page 1


   1              		.cpu cortex-m0
   2              		.fpu softvfp
   3              		.eabi_attribute 20, 1
   4              		.eabi_attribute 21, 1
   5              		.eabi_attribute 23, 3
   6              		.eabi_attribute 24, 1
   7              		.eabi_attribute 25, 1
   8              		.eabi_attribute 26, 1
   9              		.eabi_attribute 30, 4
  10              		.eabi_attribute 34, 0
  11              		.eabi_attribute 18, 4
  12              		.code	16
  13              		.file	"connection.c"
  14              		.text
  15              	.Ltext0:
  16              		.cfi_sections	.debug_frame
  17              		.section	.text.arrow_prepare_gateway,"ax",%progbits
  18              		.align	1
  19              		.global	arrow_prepare_gateway
  20              		.code	16
  21              		.thumb_func
  22              		.type	arrow_prepare_gateway, %function
  23              	arrow_prepare_gateway:
  24              	.LFB0:
  25              		.file 1 "..\\acn-sdk-c\\src\\arrow\\connection.c"
   1:..\acn-sdk-c\src\arrow/connection.c **** /* Copyright (c) 2017 Arrow Electronics, Inc.
   2:..\acn-sdk-c\src\arrow/connection.c ****  * All rights reserved. This program and the accompanying materials
   3:..\acn-sdk-c\src\arrow/connection.c ****  * are made available under the terms of the Apache License 2.0
   4:..\acn-sdk-c\src\arrow/connection.c ****  * which accompanies this distribution, and is available at
   5:..\acn-sdk-c\src\arrow/connection.c ****  * http://apache.org/licenses/LICENSE-2.0
   6:..\acn-sdk-c\src\arrow/connection.c ****  * Contributors: Arrow Electronics, Inc.
   7:..\acn-sdk-c\src\arrow/connection.c ****  */
   8:..\acn-sdk-c\src\arrow/connection.c **** 
   9:..\acn-sdk-c\src\arrow/connection.c **** #include "arrow/connection.h"
  10:..\acn-sdk-c\src\arrow/connection.c **** #include <config.h>
  11:..\acn-sdk-c\src\arrow/connection.c **** #include <debug.h>
  12:..\acn-sdk-c\src\arrow/connection.c **** #include <http/client.h>
  13:..\acn-sdk-c\src\arrow/connection.c **** #include <json/json.h>
  14:..\acn-sdk-c\src\arrow/connection.c **** #include <json/telemetry.h>
  15:..\acn-sdk-c\src\arrow/connection.c **** #include <arrow/net.h>
  16:..\acn-sdk-c\src\arrow/connection.c **** #include <arrow/storage.h>
  17:..\acn-sdk-c\src\arrow/connection.c **** #include <arrow/mem.h>
  18:..\acn-sdk-c\src\arrow/connection.c **** 
  19:..\acn-sdk-c\src\arrow/connection.c **** int arrow_prepare_gateway(arrow_gateway_t *gateway) {
  26              		.loc 1 19 0
  27              		.cfi_startproc
  28              	.LVL0:
  29 0000 F7B5     		push	{r0, r1, r2, r4, r5, r6, r7, lr}
  30              		.cfi_def_cfa_offset 32
  31              		.cfi_offset 0, -32
  32              		.cfi_offset 1, -28
  33              		.cfi_offset 2, -24
  34              		.cfi_offset 4, -20
  35              		.cfi_offset 5, -16
  36              		.cfi_offset 6, -12
  37              		.cfi_offset 7, -8
  38              		.cfi_offset 14, -4
ARM GAS  C:\Users\ddemidov\AppData\Local\Temp\ccNs4Ptg.s 			page 2


  39              		.loc 1 19 0
  40 0002 051C     		mov	r5, r0
  20:..\acn-sdk-c\src\arrow/connection.c ****   arrow_gateway_init(gateway);
  41              		.loc 1 20 0
  42 0004 FFF7FEFF 		bl	arrow_gateway_init
  43              	.LVL1:
  21:..\acn-sdk-c\src\arrow/connection.c ****   arrow_gateway_add_name(gateway, GATEWAY_NAME);
  44              		.loc 1 21 0
  45 0008 281C     		mov	r0, r5
  46 000a 2249     		ldr	r1, .L4
  47 000c FFF7FEFF 		bl	arrow_gateway_add_name
  48              	.LVL2:
  22:..\acn-sdk-c\src\arrow/connection.c ****   arrow_gateway_add_os(gateway, GATEWAY_OS);
  49              		.loc 1 22 0
  50 0010 281C     		mov	r0, r5
  51 0012 2149     		ldr	r1, .L4+4
  52 0014 FFF7FEFF 		bl	arrow_gateway_add_os
  53              	.LVL3:
  23:..\acn-sdk-c\src\arrow/connection.c ****   arrow_gateway_add_software_name(gateway, GATEWAY_SOFTWARE_NAME);
  54              		.loc 1 23 0
  55 0018 281C     		mov	r0, r5
  56 001a 2049     		ldr	r1, .L4+8
  57 001c FFF7FEFF 		bl	arrow_gateway_add_software_name
  58              	.LVL4:
  24:..\acn-sdk-c\src\arrow/connection.c ****   arrow_gateway_add_software_version(gateway, GATEWAY_SOFTWARE_VERSION);
  59              		.loc 1 24 0
  60 0020 281C     		mov	r0, r5
  61 0022 1F49     		ldr	r1, .L4+12
  62 0024 FFF7FEFF 		bl	arrow_gateway_add_software_version
  63              	.LVL5:
  25:..\acn-sdk-c\src\arrow/connection.c ****   arrow_gateway_add_type(gateway, GATEWAY_TYPE);
  64              		.loc 1 25 0
  65 0028 281C     		mov	r0, r5
  66 002a 1E49     		ldr	r1, .L4+16
  67 002c FFF7FEFF 		bl	arrow_gateway_add_type
  68              	.LVL6:
  26:..\acn-sdk-c\src\arrow/connection.c ****   arrow_gateway_add_sdkVersion(gateway, xstr(SDK_VERSION));
  69              		.loc 1 26 0
  70 0030 1D49     		ldr	r1, .L4+20
  71 0032 281C     		mov	r0, r5
  72 0034 FFF7FEFF 		bl	arrow_gateway_add_sdkVersion
  73              	.LVL7:
  27:..\acn-sdk-c\src\arrow/connection.c ****   char *uid = (char*)malloc(strlen(GATEWAY_UID_PREFIX) + 20);
  74              		.loc 1 27 0
  75 0038 1B20     		mov	r0, #27
  76 003a FFF7FEFF 		bl	malloc
  77              	.LVL8:
  78 003e 041C     		mov	r4, r0
  79              	.LVL9:
  28:..\acn-sdk-c\src\arrow/connection.c ****   strcpy(uid, GATEWAY_UID_PREFIX);
  80              		.loc 1 28 0
  81 0040 1A49     		ldr	r1, .L4+24
  82 0042 FFF7FEFF 		bl	strcpy
  83              	.LVL10:
  29:..\acn-sdk-c\src\arrow/connection.c ****   strcat(uid, "-");
  84              		.loc 1 29 0
  85 0046 1A49     		ldr	r1, .L4+28
ARM GAS  C:\Users\ddemidov\AppData\Local\Temp\ccNs4Ptg.s 			page 3


  86 0048 201C     		mov	r0, r4
  87 004a FFF7FEFF 		bl	strcat
  88              	.LVL11:
  30:..\acn-sdk-c\src\arrow/connection.c ****   size_t uidlen = strlen(uid);
  89              		.loc 1 30 0
  90 004e 201C     		mov	r0, r4
  91 0050 FFF7FEFF 		bl	strlen
  92              	.LVL12:
  93 0054 071C     		mov	r7, r0
  94              	.LVL13:
  31:..\acn-sdk-c\src\arrow/connection.c ****   char mac[7];
  32:..\acn-sdk-c\src\arrow/connection.c ****   get_mac_address(mac);
  95              		.loc 1 32 0
  96 0056 6846     		mov	r0, sp
  97              	.LVL14:
  98 0058 FFF7FEFF 		bl	get_mac_address
  99              	.LVL15:
  33:..\acn-sdk-c\src\arrow/connection.c ****   int i;
  34:..\acn-sdk-c\src\arrow/connection.c ****   for(i=0; i<6; i++) sprintf(uid+uidlen+2*i, "%02x", (uint8_t)(mac[i]));
 100              		.loc 1 34 0
 101 005c 0026     		mov	r6, #0
 102              	.LVL16:
 103              	.L2:
 104              		.loc 1 34 0 is_stmt 0 discriminator 3
 105 005e 6B46     		mov	r3, sp
 106 0060 7000     		lsl	r0, r6, #1
 107 0062 C019     		add	r0, r0, r7
 108 0064 9A5D     		ldrb	r2, [r3, r6]
 109 0066 2018     		add	r0, r4, r0
 110 0068 1249     		ldr	r1, .L4+32
 111 006a 0136     		add	r6, r6, #1
 112              	.LVL17:
 113 006c FFF7FEFF 		bl	sprintf
 114              	.LVL18:
 115 0070 062E     		cmp	r6, #6
 116 0072 F4D1     		bne	.L2
 117              	.LVL19:
  35:..\acn-sdk-c\src\arrow/connection.c ****   uidlen += 12;
  36:..\acn-sdk-c\src\arrow/connection.c ****   uid[uidlen] = '\0';
 118              		.loc 1 36 0 is_stmt 1
 119 0074 0026     		mov	r6, #0
 120              	.LVL20:
 121 0076 E719     		add	r7, r4, r7
 122              	.LVL21:
 123 0078 3E73     		strb	r6, [r7, #12]
  37:..\acn-sdk-c\src\arrow/connection.c ****   DBG("uid: [%s]", uid);
 124              		.loc 1 37 0
 125 007a 211C     		mov	r1, r4
 126 007c 0E48     		ldr	r0, .L4+36
 127 007e FFF7FEFF 		bl	dbg_line
 128              	.LVL22:
  38:..\acn-sdk-c\src\arrow/connection.c ****   arrow_gateway_add_uid(gateway, uid);
 129              		.loc 1 38 0
 130 0082 281C     		mov	r0, r5
 131 0084 211C     		mov	r1, r4
 132 0086 FFF7FEFF 		bl	arrow_gateway_add_uid
 133              	.LVL23:
ARM GAS  C:\Users\ddemidov\AppData\Local\Temp\ccNs4Ptg.s 			page 4


  39:..\acn-sdk-c\src\arrow/connection.c ****   free(uid);
 134              		.loc 1 39 0
 135 008a 201C     		mov	r0, r4
 136 008c FFF7FEFF 		bl	free
 137              	.LVL24:
  40:..\acn-sdk-c\src\arrow/connection.c ****   return 0;
  41:..\acn-sdk-c\src\arrow/connection.c **** }
 138              		.loc 1 41 0
 139              		@ sp needed
 140 0090 301C     		mov	r0, r6
 141              	.LVL25:
 142              	.LVL26:
 143 0092 FEBD     		pop	{r1, r2, r3, r4, r5, r6, r7, pc}
 144              	.L5:
 145              		.align	2
 146              	.L4:
 147 0094 00000000 		.word	.LC2
 148 0098 12000000 		.word	.LC4
 149 009c 17000000 		.word	.LC6
 150 00a0 1B000000 		.word	.LC8
 151 00a4 1F000000 		.word	.LC10
 152 00a8 25000000 		.word	.LC12
 153 00ac 2B000000 		.word	.LC14
 154 00b0 33000000 		.word	.LC16
 155 00b4 35000000 		.word	.LC18
 156 00b8 3A000000 		.word	.LC20
 157              		.cfi_endproc
 158              	.LFE0:
 159              		.size	arrow_prepare_gateway, .-arrow_prepare_gateway
 160              		.section	.text.arrow_register_gateway,"ax",%progbits
 161              		.align	1
 162              		.global	arrow_register_gateway
 163              		.code	16
 164              		.thumb_func
 165              		.type	arrow_register_gateway, %function
 166              	arrow_register_gateway:
 167              	.LFB1:
  42:..\acn-sdk-c\src\arrow/connection.c **** 
  43:..\acn-sdk-c\src\arrow/connection.c **** int arrow_register_gateway(arrow_gateway_t *gateway) {
 168              		.loc 1 43 0
 169              		.cfi_startproc
 170              	.LVL27:
 171 0000 30B5     		push	{r4, r5, lr}
 172              		.cfi_def_cfa_offset 12
 173              		.cfi_offset 4, -12
 174              		.cfi_offset 5, -8
 175              		.cfi_offset 14, -4
 176 0002 041C     		mov	r4, r0
 177 0004 D1B0     		sub	sp, sp, #324
 178              		.cfi_def_cfa_offset 336
  44:..\acn-sdk-c\src\arrow/connection.c ****     http_client_t cli;
  45:..\acn-sdk-c\src\arrow/connection.c ****     http_response_t response;
  46:..\acn-sdk-c\src\arrow/connection.c ****     http_request_t request;
  47:..\acn-sdk-c\src\arrow/connection.c **** 
  48:..\acn-sdk-c\src\arrow/connection.c ****     http_client_init(&cli);
 179              		.loc 1 48 0
 180 0006 01A8     		add	r0, sp, #4
ARM GAS  C:\Users\ddemidov\AppData\Local\Temp\ccNs4Ptg.s 			page 5


 181              	.LVL28:
 182 0008 FFF7FEFF 		bl	http_client_init
 183              	.LVL29:
  49:..\acn-sdk-c\src\arrow/connection.c ****     http_request_init(&request, POST, ARROW_API_GATEWAY_ENDPOINT);
 184              		.loc 1 49 0
 185 000c 1F4A     		ldr	r2, .L9
 186 000e 0121     		mov	r1, #1
 187 0010 11A8     		add	r0, sp, #68
 188 0012 FFF7FEFF 		bl	http_request_init
 189              	.LVL30:
  50:..\acn-sdk-c\src\arrow/connection.c **** 
  51:..\acn-sdk-c\src\arrow/connection.c ****     char *payload = arrow_gateway_serialize(gateway);
 190              		.loc 1 51 0
 191 0016 201C     		mov	r0, r4
 192 0018 FFF7FEFF 		bl	arrow_gateway_serialize
 193              	.LVL31:
 194 001c 051C     		mov	r5, r0
 195              	.LVL32:
  52:..\acn-sdk-c\src\arrow/connection.c ****     DBG("payload %s", payload);
 196              		.loc 1 52 0
 197 001e 1C48     		ldr	r0, .L9+4
 198              	.LVL33:
 199 0020 291C     		mov	r1, r5
 200 0022 FFF7FEFF 		bl	dbg_line
 201              	.LVL34:
  53:..\acn-sdk-c\src\arrow/connection.c **** 
  54:..\acn-sdk-c\src\arrow/connection.c ****     http_request_set_payload(&request, payload);
 202              		.loc 1 54 0
 203 0026 291C     		mov	r1, r5
 204 0028 11A8     		add	r0, sp, #68
 205 002a FFF7FEFF 		bl	http_request_set_payload
 206              	.LVL35:
  55:..\acn-sdk-c\src\arrow/connection.c ****     sign_request(&request);
 207              		.loc 1 55 0
 208 002e 11A8     		add	r0, sp, #68
 209 0030 FFF7FEFF 		bl	sign_request
 210              	.LVL36:
  56:..\acn-sdk-c\src\arrow/connection.c ****     http_client_do(&cli, &request, &response);
 211              		.loc 1 56 0
 212 0034 09AA     		add	r2, sp, #36
 213 0036 11A9     		add	r1, sp, #68
 214 0038 01A8     		add	r0, sp, #4
 215 003a FFF7FEFF 		bl	http_client_do
 216              	.LVL37:
  57:..\acn-sdk-c\src\arrow/connection.c **** 
  58:..\acn-sdk-c\src\arrow/connection.c ****     free(payload);
 217              		.loc 1 58 0
 218 003e 281C     		mov	r0, r5
 219 0040 FFF7FEFF 		bl	free
 220              	.LVL38:
  59:..\acn-sdk-c\src\arrow/connection.c **** 
  60:..\acn-sdk-c\src\arrow/connection.c ****     http_request_close(&request);
 221              		.loc 1 60 0
 222 0044 11A8     		add	r0, sp, #68
 223 0046 FFF7FEFF 		bl	http_request_close
 224              	.LVL39:
  61:..\acn-sdk-c\src\arrow/connection.c ****     DBG("response %d", response.m_httpResponseCode);
ARM GAS  C:\Users\ddemidov\AppData\Local\Temp\ccNs4Ptg.s 			page 6


 225              		.loc 1 61 0
 226 004a 0999     		ldr	r1, [sp, #36]
 227 004c 1148     		ldr	r0, .L9+8
 228 004e FFF7FEFF 		bl	dbg_line
 229              	.LVL40:
  62:..\acn-sdk-c\src\arrow/connection.c **** 
  63:..\acn-sdk-c\src\arrow/connection.c ****     http_client_free(&cli);
 230              		.loc 1 63 0
 231 0052 01A8     		add	r0, sp, #4
 232 0054 FFF7FEFF 		bl	http_client_free
 233              	.LVL41:
  64:..\acn-sdk-c\src\arrow/connection.c **** 
  65:..\acn-sdk-c\src\arrow/connection.c ****     if ( arrow_gateway_parse(gateway, (char*)response.payload.buf) < 0 ) {
 234              		.loc 1 65 0
 235 0058 201C     		mov	r0, r4
 236 005a 1099     		ldr	r1, [sp, #64]
 237 005c FFF7FEFF 		bl	arrow_gateway_parse
 238              	.LVL42:
 239 0060 0028     		cmp	r0, #0
 240 0062 08DA     		bge	.L7
  66:..\acn-sdk-c\src\arrow/connection.c ****         DBG("parse error");
 241              		.loc 1 66 0
 242 0064 0C48     		ldr	r0, .L9+12
 243 0066 FFF7FEFF 		bl	dbg_line
 244              	.LVL43:
  67:..\acn-sdk-c\src\arrow/connection.c ****         http_response_free(&response);
 245              		.loc 1 67 0
 246 006a 09A8     		add	r0, sp, #36
 247 006c FFF7FEFF 		bl	http_response_free
 248              	.LVL44:
  68:..\acn-sdk-c\src\arrow/connection.c ****         return -1;
 249              		.loc 1 68 0
 250 0070 0120     		mov	r0, #1
 251 0072 4042     		neg	r0, r0
 252 0074 07E0     		b	.L8
 253              	.L7:
  69:..\acn-sdk-c\src\arrow/connection.c ****     } else {
  70:..\acn-sdk-c\src\arrow/connection.c ****         DBG("gateway hid: %s", gateway->hid);
 254              		.loc 1 70 0
 255 0076 0948     		ldr	r0, .L9+16
 256 0078 2169     		ldr	r1, [r4, #16]
 257 007a FFF7FEFF 		bl	dbg_line
 258              	.LVL45:
  71:..\acn-sdk-c\src\arrow/connection.c ****     }
  72:..\acn-sdk-c\src\arrow/connection.c ****     http_response_free(&response);
 259              		.loc 1 72 0
 260 007e 09A8     		add	r0, sp, #36
 261 0080 FFF7FEFF 		bl	http_response_free
 262              	.LVL46:
  73:..\acn-sdk-c\src\arrow/connection.c ****     return 0;
 263              		.loc 1 73 0
 264 0084 0020     		mov	r0, #0
 265              	.L8:
  74:..\acn-sdk-c\src\arrow/connection.c **** }
 266              		.loc 1 74 0
 267 0086 51B0     		add	sp, sp, #324
 268              		@ sp needed
ARM GAS  C:\Users\ddemidov\AppData\Local\Temp\ccNs4Ptg.s 			page 7


 269              	.LVL47:
 270              	.LVL48:
 271 0088 30BD     		pop	{r4, r5, pc}
 272              	.L10:
 273 008a C046     		.align	2
 274              	.L9:
 275 008c 44000000 		.word	.LC22
 276 0090 7B000000 		.word	.LC24
 277 0094 86000000 		.word	.LC26
 278 0098 92000000 		.word	.LC28
 279 009c 9E000000 		.word	.LC30
 280              		.cfi_endproc
 281              	.LFE1:
 282              		.size	arrow_register_gateway, .-arrow_register_gateway
 283              		.section	.text.arrow_prepare_device,"ax",%progbits
 284              		.align	1
 285              		.global	arrow_prepare_device
 286              		.code	16
 287              		.thumb_func
 288              		.type	arrow_prepare_device, %function
 289              	arrow_prepare_device:
 290              	.LFB2:
  75:..\acn-sdk-c\src\arrow/connection.c **** 
  76:..\acn-sdk-c\src\arrow/connection.c **** int arrow_prepare_device(arrow_gateway_t *gateway, arrow_device_t *device) {
 291              		.loc 1 76 0
 292              		.cfi_startproc
 293              	.LVL49:
 294 0000 70B5     		push	{r4, r5, r6, lr}
 295              		.cfi_def_cfa_offset 16
 296              		.cfi_offset 4, -16
 297              		.cfi_offset 5, -12
 298              		.cfi_offset 6, -8
 299              		.cfi_offset 14, -4
 300              		.loc 1 76 0
 301 0002 0D1C     		mov	r5, r1
 302 0004 041C     		mov	r4, r0
  77:..\acn-sdk-c\src\arrow/connection.c ****   arrow_device_init(device);
 303              		.loc 1 77 0
 304 0006 081C     		mov	r0, r1
 305              	.LVL50:
 306 0008 FFF7FEFF 		bl	arrow_device_init
 307              	.LVL51:
  78:..\acn-sdk-c\src\arrow/connection.c ****   arrow_device_add_gateway_hid(device, gateway->hid);
 308              		.loc 1 78 0
 309 000c 281C     		mov	r0, r5
 310 000e 2169     		ldr	r1, [r4, #16]
 311 0010 FFF7FEFF 		bl	arrow_device_add_gateway_hid
 312              	.LVL52:
  79:..\acn-sdk-c\src\arrow/connection.c ****   arrow_device_add_name(device, DEVICE_NAME);
 313              		.loc 1 79 0
 314 0014 281C     		mov	r0, r5
 315 0016 1449     		ldr	r1, .L14
 316 0018 FFF7FEFF 		bl	arrow_device_add_name
 317              	.LVL53:
  80:..\acn-sdk-c\src\arrow/connection.c ****   arrow_device_add_type(device, DEVICE_TYPE);
 318              		.loc 1 80 0
 319 001c 281C     		mov	r0, r5
ARM GAS  C:\Users\ddemidov\AppData\Local\Temp\ccNs4Ptg.s 			page 8


 320 001e 1349     		ldr	r1, .L14+4
 321 0020 FFF7FEFF 		bl	arrow_device_add_type
 322              	.LVL54:
  81:..\acn-sdk-c\src\arrow/connection.c **** //    FIXME info property extra param?
  82:..\acn-sdk-c\src\arrow/connection.c **** //    arrow_device_add_info(device, "info1", "value1");
  83:..\acn-sdk-c\src\arrow/connection.c **** //    arrow_device_add_info(device, "info2", "value2");
  84:..\acn-sdk-c\src\arrow/connection.c **** //    arrow_device_add_property(device, "prop1", "value1");
  85:..\acn-sdk-c\src\arrow/connection.c **** //    arrow_device_add_property(device, "prop2", "value2");
  86:..\acn-sdk-c\src\arrow/connection.c ****   if ( !gateway->uid ) return -1;
 323              		.loc 1 86 0
 324 0024 6668     		ldr	r6, [r4, #4]
 325 0026 002E     		cmp	r6, #0
 326 0028 1AD0     		beq	.L13
  87:..\acn-sdk-c\src\arrow/connection.c ****   char *uid = (char*)malloc(strlen(gateway->uid)+strlen(DEVICE_UID_SUFFIX)+2);
 327              		.loc 1 87 0
 328 002a 301C     		mov	r0, r6
 329 002c FFF7FEFF 		bl	strlen
 330              	.LVL55:
 331 0030 0830     		add	r0, r0, #8
 332 0032 FFF7FEFF 		bl	malloc
 333              	.LVL56:
 334 0036 041C     		mov	r4, r0
 335              	.LVL57:
  88:..\acn-sdk-c\src\arrow/connection.c ****   strcpy(uid, gateway->uid);
 336              		.loc 1 88 0
 337 0038 311C     		mov	r1, r6
 338 003a FFF7FEFF 		bl	strcpy
 339              	.LVL58:
  89:..\acn-sdk-c\src\arrow/connection.c ****   strcat(uid, "-");
 340              		.loc 1 89 0
 341 003e 0C49     		ldr	r1, .L14+8
 342 0040 201C     		mov	r0, r4
 343 0042 FFF7FEFF 		bl	strcat
 344              	.LVL59:
  90:..\acn-sdk-c\src\arrow/connection.c ****   strcat(uid, DEVICE_UID_SUFFIX);
 345              		.loc 1 90 0
 346 0046 0B49     		ldr	r1, .L14+12
 347 0048 201C     		mov	r0, r4
 348 004a FFF7FEFF 		bl	strcat
 349              	.LVL60:
  91:..\acn-sdk-c\src\arrow/connection.c ****   arrow_device_add_uid(device, uid);
 350              		.loc 1 91 0
 351 004e 281C     		mov	r0, r5
 352 0050 211C     		mov	r1, r4
 353 0052 FFF7FEFF 		bl	arrow_device_add_uid
 354              	.LVL61:
  92:..\acn-sdk-c\src\arrow/connection.c ****   free(uid);
 355              		.loc 1 92 0
 356 0056 201C     		mov	r0, r4
 357 0058 FFF7FEFF 		bl	free
 358              	.LVL62:
  93:..\acn-sdk-c\src\arrow/connection.c ****   return 0;
 359              		.loc 1 93 0
 360 005c 0020     		mov	r0, #0
 361 005e 01E0     		b	.L12
 362              	.LVL63:
 363              	.L13:
ARM GAS  C:\Users\ddemidov\AppData\Local\Temp\ccNs4Ptg.s 			page 9


  86:..\acn-sdk-c\src\arrow/connection.c ****   char *uid = (char*)malloc(strlen(gateway->uid)+strlen(DEVICE_UID_SUFFIX)+2);
 364              		.loc 1 86 0
 365 0060 0120     		mov	r0, #1
 366 0062 4042     		neg	r0, r0
 367              	.LVL64:
 368              	.L12:
  94:..\acn-sdk-c\src\arrow/connection.c **** }
 369              		.loc 1 94 0
 370              		@ sp needed
 371              	.LVL65:
 372 0064 70BD     		pop	{r4, r5, r6, pc}
 373              	.L15:
 374 0066 C046     		.align	2
 375              	.L14:
 376 0068 AE000000 		.word	.LC32
 377 006c BD000000 		.word	.LC34
 378 0070 33000000 		.word	.LC16
 379 0074 CA000000 		.word	.LC37
 380              		.cfi_endproc
 381              	.LFE2:
 382              		.size	arrow_prepare_device, .-arrow_prepare_device
 383              		.section	.text.arrow_register_device,"ax",%progbits
 384              		.align	1
 385              		.global	arrow_register_device
 386              		.code	16
 387              		.thumb_func
 388              		.type	arrow_register_device, %function
 389              	arrow_register_device:
 390              	.LFB3:
  95:..\acn-sdk-c\src\arrow/connection.c **** 
  96:..\acn-sdk-c\src\arrow/connection.c **** int arrow_register_device(arrow_gateway_t *gateway, arrow_device_t *device) {
 391              		.loc 1 96 0
 392              		.cfi_startproc
 393              	.LVL66:
 394 0000 30B5     		push	{r4, r5, lr}
 395              		.cfi_def_cfa_offset 12
 396              		.cfi_offset 4, -12
 397              		.cfi_offset 5, -8
 398              		.cfi_offset 14, -4
 399 0002 0C1C     		mov	r4, r1
 400 0004 051C     		mov	r5, r0
 401 0006 D1B0     		sub	sp, sp, #324
 402              		.cfi_def_cfa_offset 336
  97:..\acn-sdk-c\src\arrow/connection.c ****     http_client_t cli;
  98:..\acn-sdk-c\src\arrow/connection.c ****     http_response_t response;
  99:..\acn-sdk-c\src\arrow/connection.c ****     http_request_t request;
 100:..\acn-sdk-c\src\arrow/connection.c **** 
 101:..\acn-sdk-c\src\arrow/connection.c ****     http_client_init(&cli);
 403              		.loc 1 101 0
 404 0008 01A8     		add	r0, sp, #4
 405              	.LVL67:
 406 000a FFF7FEFF 		bl	http_client_init
 407              	.LVL68:
 102:..\acn-sdk-c\src\arrow/connection.c ****     http_request_init(&request, POST, ARROW_API_DEVICE_ENDPOINT);
 408              		.loc 1 102 0
 409 000e 214A     		ldr	r2, .L19
 410 0010 11A8     		add	r0, sp, #68
ARM GAS  C:\Users\ddemidov\AppData\Local\Temp\ccNs4Ptg.s 			page 10


 411 0012 0121     		mov	r1, #1
 412 0014 FFF7FEFF 		bl	http_request_init
 413              	.LVL69:
 103:..\acn-sdk-c\src\arrow/connection.c ****     arrow_prepare_device(gateway, device);
 414              		.loc 1 103 0
 415 0018 211C     		mov	r1, r4
 416 001a 281C     		mov	r0, r5
 417 001c FFF7FEFF 		bl	arrow_prepare_device
 418              	.LVL70:
 104:..\acn-sdk-c\src\arrow/connection.c **** 
 105:..\acn-sdk-c\src\arrow/connection.c ****     char *payload = arrow_device_serialize(device);
 419              		.loc 1 105 0
 420 0020 201C     		mov	r0, r4
 421 0022 FFF7FEFF 		bl	arrow_device_serialize
 422              	.LVL71:
 423 0026 051C     		mov	r5, r0
 424              	.LVL72:
 106:..\acn-sdk-c\src\arrow/connection.c ****     http_request_set_payload(&request, payload);
 425              		.loc 1 106 0
 426 0028 11A8     		add	r0, sp, #68
 427              	.LVL73:
 428 002a 291C     		mov	r1, r5
 429 002c FFF7FEFF 		bl	http_request_set_payload
 430              	.LVL74:
 107:..\acn-sdk-c\src\arrow/connection.c ****     DBG("dev|%s|", payload);
 431              		.loc 1 107 0
 432 0030 291C     		mov	r1, r5
 433 0032 1948     		ldr	r0, .L19+4
 434 0034 FFF7FEFF 		bl	dbg_line
 435              	.LVL75:
 108:..\acn-sdk-c\src\arrow/connection.c ****     free(payload);
 436              		.loc 1 108 0
 437 0038 281C     		mov	r0, r5
 438 003a FFF7FEFF 		bl	free
 439              	.LVL76:
 109:..\acn-sdk-c\src\arrow/connection.c ****     sign_request(&request);
 440              		.loc 1 109 0
 441 003e 11A8     		add	r0, sp, #68
 442 0040 FFF7FEFF 		bl	sign_request
 443              	.LVL77:
 110:..\acn-sdk-c\src\arrow/connection.c ****     http_client_do(&cli, &request, &response);
 444              		.loc 1 110 0
 445 0044 09AA     		add	r2, sp, #36
 446 0046 11A9     		add	r1, sp, #68
 447 0048 01A8     		add	r0, sp, #4
 448 004a FFF7FEFF 		bl	http_client_do
 449              	.LVL78:
 111:..\acn-sdk-c\src\arrow/connection.c ****     http_request_close(&request);
 450              		.loc 1 111 0
 451 004e 11A8     		add	r0, sp, #68
 452 0050 FFF7FEFF 		bl	http_request_close
 453              	.LVL79:
 112:..\acn-sdk-c\src\arrow/connection.c ****     DBG("response %d", response.m_httpResponseCode);
 454              		.loc 1 112 0
 455 0054 0999     		ldr	r1, [sp, #36]
 456 0056 1148     		ldr	r0, .L19+8
 457 0058 FFF7FEFF 		bl	dbg_line
ARM GAS  C:\Users\ddemidov\AppData\Local\Temp\ccNs4Ptg.s 			page 11


 458              	.LVL80:
 113:..\acn-sdk-c\src\arrow/connection.c **** 
 114:..\acn-sdk-c\src\arrow/connection.c ****     http_client_free(&cli);
 459              		.loc 1 114 0
 460 005c 01A8     		add	r0, sp, #4
 461 005e FFF7FEFF 		bl	http_client_free
 462              	.LVL81:
 115:..\acn-sdk-c\src\arrow/connection.c ****     if ( arrow_device_parse(device, (char*)response.payload.buf) < 0) {
 463              		.loc 1 115 0
 464 0062 201C     		mov	r0, r4
 465 0064 1099     		ldr	r1, [sp, #64]
 466 0066 FFF7FEFF 		bl	arrow_device_parse
 467              	.LVL82:
 468 006a 0028     		cmp	r0, #0
 469 006c 08DA     		bge	.L17
 116:..\acn-sdk-c\src\arrow/connection.c ****         DBG("device parse error");
 470              		.loc 1 116 0
 471 006e 0C48     		ldr	r0, .L19+12
 472 0070 FFF7FEFF 		bl	dbg_line
 473              	.LVL83:
 117:..\acn-sdk-c\src\arrow/connection.c ****         http_response_free(&response);
 474              		.loc 1 117 0
 475 0074 09A8     		add	r0, sp, #36
 476 0076 FFF7FEFF 		bl	http_response_free
 477              	.LVL84:
 118:..\acn-sdk-c\src\arrow/connection.c ****         return -1;
 478              		.loc 1 118 0
 479 007a 0120     		mov	r0, #1
 480 007c 4042     		neg	r0, r0
 481 007e 07E0     		b	.L18
 482              	.L17:
 119:..\acn-sdk-c\src\arrow/connection.c ****     } else {
 120:..\acn-sdk-c\src\arrow/connection.c ****         DBG("device hid: %s", device->hid);
 483              		.loc 1 120 0
 484 0080 0848     		ldr	r0, .L19+16
 485 0082 E168     		ldr	r1, [r4, #12]
 486 0084 FFF7FEFF 		bl	dbg_line
 487              	.LVL85:
 121:..\acn-sdk-c\src\arrow/connection.c ****     }
 122:..\acn-sdk-c\src\arrow/connection.c ****     http_response_free(&response);
 488              		.loc 1 122 0
 489 0088 09A8     		add	r0, sp, #36
 490 008a FFF7FEFF 		bl	http_response_free
 491              	.LVL86:
 123:..\acn-sdk-c\src\arrow/connection.c ****     return 0;
 492              		.loc 1 123 0
 493 008e 0020     		mov	r0, #0
 494              	.L18:
 124:..\acn-sdk-c\src\arrow/connection.c **** }
 495              		.loc 1 124 0
 496 0090 51B0     		add	sp, sp, #324
 497              		@ sp needed
 498              	.LVL87:
 499              	.LVL88:
 500 0092 30BD     		pop	{r4, r5, pc}
 501              	.L20:
 502              		.align	2
ARM GAS  C:\Users\ddemidov\AppData\Local\Temp\ccNs4Ptg.s 			page 12


 503              	.L19:
 504 0094 D1000000 		.word	.LC39
 505 0098 07010000 		.word	.LC41
 506 009c 86000000 		.word	.LC26
 507 00a0 0F010000 		.word	.LC44
 508 00a4 22010000 		.word	.LC46
 509              		.cfi_endproc
 510              	.LFE3:
 511              		.size	arrow_register_device, .-arrow_register_device
 512              		.section	.text.arrow_heartbeat,"ax",%progbits
 513              		.align	1
 514              		.global	arrow_heartbeat
 515              		.code	16
 516              		.thumb_func
 517              		.type	arrow_heartbeat, %function
 518              	arrow_heartbeat:
 519              	.LFB4:
 125:..\acn-sdk-c\src\arrow/connection.c **** 
 126:..\acn-sdk-c\src\arrow/connection.c **** int arrow_heartbeat(arrow_gateway_t *gateway) {
 520              		.loc 1 126 0
 521              		.cfi_startproc
 522              	.LVL89:
 523 0000 30B5     		push	{r4, r5, lr}
 524              		.cfi_def_cfa_offset 12
 525              		.cfi_offset 4, -12
 526              		.cfi_offset 5, -8
 527              		.cfi_offset 14, -4
 528 0002 051C     		mov	r5, r0
 529 0004 D1B0     		sub	sp, sp, #324
 530              		.cfi_def_cfa_offset 336
 127:..\acn-sdk-c\src\arrow/connection.c ****   http_client_t cli;
 128:..\acn-sdk-c\src\arrow/connection.c ****   http_response_t response;
 129:..\acn-sdk-c\src\arrow/connection.c ****   http_request_t request;
 130:..\acn-sdk-c\src\arrow/connection.c **** 
 131:..\acn-sdk-c\src\arrow/connection.c ****   char *uri = (char *)malloc(strlen(ARROW_API_GATEWAY_ENDPOINT) + 50);
 531              		.loc 1 131 0
 532 0006 6820     		mov	r0, #104
 533              	.LVL90:
 534 0008 FFF7FEFF 		bl	malloc
 535              	.LVL91:
 536 000c 041C     		mov	r4, r0
 537              	.LVL92:
 132:..\acn-sdk-c\src\arrow/connection.c ****   strcpy(uri, ARROW_API_GATEWAY_ENDPOINT);
 538              		.loc 1 132 0
 539 000e 1B49     		ldr	r1, .L24
 540 0010 FFF7FEFF 		bl	strcpy
 541              	.LVL93:
 133:..\acn-sdk-c\src\arrow/connection.c ****   strcat(uri, "/");
 542              		.loc 1 133 0
 543 0014 1A49     		ldr	r1, .L24+4
 544 0016 201C     		mov	r0, r4
 545 0018 FFF7FEFF 		bl	strcat
 546              	.LVL94:
 134:..\acn-sdk-c\src\arrow/connection.c ****   strcat(uri, gateway->hid);
 547              		.loc 1 134 0
 548 001c 2969     		ldr	r1, [r5, #16]
 549 001e 201C     		mov	r0, r4
ARM GAS  C:\Users\ddemidov\AppData\Local\Temp\ccNs4Ptg.s 			page 13


 550 0020 FFF7FEFF 		bl	strcat
 551              	.LVL95:
 135:..\acn-sdk-c\src\arrow/connection.c ****   strcat(uri, "/heartbeat");
 552              		.loc 1 135 0
 553 0024 1749     		ldr	r1, .L24+8
 554 0026 201C     		mov	r0, r4
 555 0028 FFF7FEFF 		bl	strcat
 556              	.LVL96:
 136:..\acn-sdk-c\src\arrow/connection.c **** 
 137:..\acn-sdk-c\src\arrow/connection.c ****   http_client_init(&cli);
 557              		.loc 1 137 0
 558 002c 01A8     		add	r0, sp, #4
 559 002e FFF7FEFF 		bl	http_client_init
 560              	.LVL97:
 138:..\acn-sdk-c\src\arrow/connection.c ****   http_request_init(&request, PUT, uri);
 561              		.loc 1 138 0
 562 0032 0221     		mov	r1, #2
 563 0034 221C     		mov	r2, r4
 564 0036 11A8     		add	r0, sp, #68
 565 0038 FFF7FEFF 		bl	http_request_init
 566              	.LVL98:
 139:..\acn-sdk-c\src\arrow/connection.c **** 
 140:..\acn-sdk-c\src\arrow/connection.c ****   sign_request(&request);
 567              		.loc 1 140 0
 568 003c 11A8     		add	r0, sp, #68
 569 003e FFF7FEFF 		bl	sign_request
 570              	.LVL99:
 141:..\acn-sdk-c\src\arrow/connection.c ****   http_client_do(&cli, &request, &response);
 571              		.loc 1 141 0
 572 0042 09AA     		add	r2, sp, #36
 573 0044 11A9     		add	r1, sp, #68
 574 0046 01A8     		add	r0, sp, #4
 575 0048 FFF7FEFF 		bl	http_client_do
 576              	.LVL100:
 142:..\acn-sdk-c\src\arrow/connection.c ****   http_request_close(&request);
 577              		.loc 1 142 0
 578 004c 11A8     		add	r0, sp, #68
 579 004e FFF7FEFF 		bl	http_request_close
 580              	.LVL101:
 143:..\acn-sdk-c\src\arrow/connection.c ****   DBG("response %d", response.m_httpResponseCode);
 581              		.loc 1 143 0
 582 0052 0D48     		ldr	r0, .L24+12
 583 0054 0999     		ldr	r1, [sp, #36]
 584 0056 FFF7FEFF 		bl	dbg_line
 585              	.LVL102:
 144:..\acn-sdk-c\src\arrow/connection.c ****   http_client_free(&cli);
 586              		.loc 1 144 0
 587 005a 01A8     		add	r0, sp, #4
 588 005c FFF7FEFF 		bl	http_client_free
 589              	.LVL103:
 145:..\acn-sdk-c\src\arrow/connection.c ****   if ( response.m_httpResponseCode != 200 ) {
 590              		.loc 1 145 0
 591 0060 099B     		ldr	r3, [sp, #36]
 146:..\acn-sdk-c\src\arrow/connection.c ****     http_response_free(&response);
 592              		.loc 1 146 0
 593 0062 09A8     		add	r0, sp, #36
 145:..\acn-sdk-c\src\arrow/connection.c ****   if ( response.m_httpResponseCode != 200 ) {
ARM GAS  C:\Users\ddemidov\AppData\Local\Temp\ccNs4Ptg.s 			page 14


 594              		.loc 1 145 0
 595 0064 C82B     		cmp	r3, #200
 596 0066 04D0     		beq	.L22
 597              		.loc 1 146 0
 598 0068 FFF7FEFF 		bl	http_response_free
 599              	.LVL104:
 147:..\acn-sdk-c\src\arrow/connection.c ****     return -1;
 600              		.loc 1 147 0
 601 006c 0120     		mov	r0, #1
 602 006e 4042     		neg	r0, r0
 603 0070 02E0     		b	.L23
 604              	.L22:
 148:..\acn-sdk-c\src\arrow/connection.c ****   }
 149:..\acn-sdk-c\src\arrow/connection.c ****   http_response_free(&response);
 605              		.loc 1 149 0
 606 0072 FFF7FEFF 		bl	http_response_free
 607              	.LVL105:
 150:..\acn-sdk-c\src\arrow/connection.c ****   return 0;
 608              		.loc 1 150 0
 609 0076 0020     		mov	r0, #0
 610              	.L23:
 151:..\acn-sdk-c\src\arrow/connection.c **** }
 611              		.loc 1 151 0
 612 0078 51B0     		add	sp, sp, #324
 613              		@ sp needed
 614              	.LVL106:
 615              	.LVL107:
 616 007a 30BD     		pop	{r4, r5, pc}
 617              	.L25:
 618              		.align	2
 619              	.L24:
 620 007c 44000000 		.word	.LC22
 621 0080 31010000 		.word	.LC49
 622 0084 33010000 		.word	.LC51
 623 0088 86000000 		.word	.LC26
 624              		.cfi_endproc
 625              	.LFE4:
 626              		.size	arrow_heartbeat, .-arrow_heartbeat
 627              		.section	.text.arrow_checkin,"ax",%progbits
 628              		.align	1
 629              		.global	arrow_checkin
 630              		.code	16
 631              		.thumb_func
 632              		.type	arrow_checkin, %function
 633              	arrow_checkin:
 634              	.LFB5:
 152:..\acn-sdk-c\src\arrow/connection.c **** 
 153:..\acn-sdk-c\src\arrow/connection.c **** int arrow_checkin(arrow_gateway_t *gateway) {
 635              		.loc 1 153 0
 636              		.cfi_startproc
 637              	.LVL108:
 638 0000 30B5     		push	{r4, r5, lr}
 639              		.cfi_def_cfa_offset 12
 640              		.cfi_offset 4, -12
 641              		.cfi_offset 5, -8
 642              		.cfi_offset 14, -4
 643 0002 051C     		mov	r5, r0
ARM GAS  C:\Users\ddemidov\AppData\Local\Temp\ccNs4Ptg.s 			page 15


 644 0004 D1B0     		sub	sp, sp, #324
 645              		.cfi_def_cfa_offset 336
 154:..\acn-sdk-c\src\arrow/connection.c ****   http_client_t cli;
 155:..\acn-sdk-c\src\arrow/connection.c ****   http_response_t response;
 156:..\acn-sdk-c\src\arrow/connection.c ****   http_request_t request;
 157:..\acn-sdk-c\src\arrow/connection.c **** 
 158:..\acn-sdk-c\src\arrow/connection.c ****   char *uri = (char *)malloc(strlen(ARROW_API_GATEWAY_ENDPOINT) + 50);
 646              		.loc 1 158 0
 647 0006 6820     		mov	r0, #104
 648              	.LVL109:
 649 0008 FFF7FEFF 		bl	malloc
 650              	.LVL110:
 651 000c 041C     		mov	r4, r0
 652              	.LVL111:
 159:..\acn-sdk-c\src\arrow/connection.c ****   strcpy(uri, ARROW_API_GATEWAY_ENDPOINT);
 653              		.loc 1 159 0
 654 000e 1B49     		ldr	r1, .L29
 655 0010 FFF7FEFF 		bl	strcpy
 656              	.LVL112:
 160:..\acn-sdk-c\src\arrow/connection.c ****   strcat(uri, "/");
 657              		.loc 1 160 0
 658 0014 1A49     		ldr	r1, .L29+4
 659 0016 201C     		mov	r0, r4
 660 0018 FFF7FEFF 		bl	strcat
 661              	.LVL113:
 161:..\acn-sdk-c\src\arrow/connection.c ****   strcat(uri, gateway->hid);
 662              		.loc 1 161 0
 663 001c 2969     		ldr	r1, [r5, #16]
 664 001e 201C     		mov	r0, r4
 665 0020 FFF7FEFF 		bl	strcat
 666              	.LVL114:
 162:..\acn-sdk-c\src\arrow/connection.c ****   strcat(uri, "/checkin");
 667              		.loc 1 162 0
 668 0024 1749     		ldr	r1, .L29+8
 669 0026 201C     		mov	r0, r4
 670 0028 FFF7FEFF 		bl	strcat
 671              	.LVL115:
 163:..\acn-sdk-c\src\arrow/connection.c **** 
 164:..\acn-sdk-c\src\arrow/connection.c ****   http_client_init(&cli);
 672              		.loc 1 164 0
 673 002c 01A8     		add	r0, sp, #4
 674 002e FFF7FEFF 		bl	http_client_init
 675              	.LVL116:
 165:..\acn-sdk-c\src\arrow/connection.c ****   http_request_init(&request, PUT, uri);
 676              		.loc 1 165 0
 677 0032 0221     		mov	r1, #2
 678 0034 221C     		mov	r2, r4
 679 0036 11A8     		add	r0, sp, #68
 680 0038 FFF7FEFF 		bl	http_request_init
 681              	.LVL117:
 166:..\acn-sdk-c\src\arrow/connection.c **** 
 167:..\acn-sdk-c\src\arrow/connection.c ****   sign_request(&request);
 682              		.loc 1 167 0
 683 003c 11A8     		add	r0, sp, #68
 684 003e FFF7FEFF 		bl	sign_request
 685              	.LVL118:
 168:..\acn-sdk-c\src\arrow/connection.c ****   http_client_do(&cli, &request, &response);
ARM GAS  C:\Users\ddemidov\AppData\Local\Temp\ccNs4Ptg.s 			page 16


 686              		.loc 1 168 0
 687 0042 09AA     		add	r2, sp, #36
 688 0044 11A9     		add	r1, sp, #68
 689 0046 01A8     		add	r0, sp, #4
 690 0048 FFF7FEFF 		bl	http_client_do
 691              	.LVL119:
 169:..\acn-sdk-c\src\arrow/connection.c ****   http_request_close(&request);
 692              		.loc 1 169 0
 693 004c 11A8     		add	r0, sp, #68
 694 004e FFF7FEFF 		bl	http_request_close
 695              	.LVL120:
 170:..\acn-sdk-c\src\arrow/connection.c ****   DBG("response %d", response.m_httpResponseCode);
 696              		.loc 1 170 0
 697 0052 0D48     		ldr	r0, .L29+12
 698 0054 0999     		ldr	r1, [sp, #36]
 699 0056 FFF7FEFF 		bl	dbg_line
 700              	.LVL121:
 171:..\acn-sdk-c\src\arrow/connection.c ****   http_client_free(&cli);
 701              		.loc 1 171 0
 702 005a 01A8     		add	r0, sp, #4
 703 005c FFF7FEFF 		bl	http_client_free
 704              	.LVL122:
 172:..\acn-sdk-c\src\arrow/connection.c ****   if ( response.m_httpResponseCode != 200 ) {
 705              		.loc 1 172 0
 706 0060 099B     		ldr	r3, [sp, #36]
 173:..\acn-sdk-c\src\arrow/connection.c ****     http_response_free(&response);
 707              		.loc 1 173 0
 708 0062 09A8     		add	r0, sp, #36
 172:..\acn-sdk-c\src\arrow/connection.c ****   if ( response.m_httpResponseCode != 200 ) {
 709              		.loc 1 172 0
 710 0064 C82B     		cmp	r3, #200
 711 0066 04D0     		beq	.L27
 712              		.loc 1 173 0
 713 0068 FFF7FEFF 		bl	http_response_free
 714              	.LVL123:
 174:..\acn-sdk-c\src\arrow/connection.c ****     return -1;
 715              		.loc 1 174 0
 716 006c 0120     		mov	r0, #1
 717 006e 4042     		neg	r0, r0
 718 0070 02E0     		b	.L28
 719              	.L27:
 175:..\acn-sdk-c\src\arrow/connection.c ****   }
 176:..\acn-sdk-c\src\arrow/connection.c ****   http_response_free(&response);
 720              		.loc 1 176 0
 721 0072 FFF7FEFF 		bl	http_response_free
 722              	.LVL124:
 177:..\acn-sdk-c\src\arrow/connection.c ****   return 0;
 723              		.loc 1 177 0
 724 0076 0020     		mov	r0, #0
 725              	.L28:
 178:..\acn-sdk-c\src\arrow/connection.c **** }
 726              		.loc 1 178 0
 727 0078 51B0     		add	sp, sp, #324
 728              		@ sp needed
 729              	.LVL125:
 730              	.LVL126:
 731 007a 30BD     		pop	{r4, r5, pc}
ARM GAS  C:\Users\ddemidov\AppData\Local\Temp\ccNs4Ptg.s 			page 17


 732              	.L30:
 733              		.align	2
 734              	.L29:
 735 007c 44000000 		.word	.LC22
 736 0080 31010000 		.word	.LC49
 737 0084 3E010000 		.word	.LC56
 738 0088 86000000 		.word	.LC26
 739              		.cfi_endproc
 740              	.LFE5:
 741              		.size	arrow_checkin, .-arrow_checkin
 742              		.section	.text.arrow_config,"ax",%progbits
 743              		.align	1
 744              		.global	arrow_config
 745              		.code	16
 746              		.thumb_func
 747              		.type	arrow_config, %function
 748              	arrow_config:
 749              	.LFB6:
 179:..\acn-sdk-c\src\arrow/connection.c **** 
 180:..\acn-sdk-c\src\arrow/connection.c **** int arrow_config(arrow_gateway_t *gateway, arrow_gateway_config_t *config) {
 750              		.loc 1 180 0
 751              		.cfi_startproc
 752              	.LVL127:
 753 0000 F0B5     		push	{r4, r5, r6, r7, lr}
 754              		.cfi_def_cfa_offset 20
 755              		.cfi_offset 4, -20
 756              		.cfi_offset 5, -16
 757              		.cfi_offset 6, -12
 758              		.cfi_offset 7, -8
 759              		.cfi_offset 14, -4
 181:..\acn-sdk-c\src\arrow/connection.c ****   http_client_t cli;
 182:..\acn-sdk-c\src\arrow/connection.c ****   http_response_t response;
 183:..\acn-sdk-c\src\arrow/connection.c ****   http_request_t request;
 184:..\acn-sdk-c\src\arrow/connection.c **** 
 185:..\acn-sdk-c\src\arrow/connection.c ****   char *uri = (char *)malloc(strlen(ARROW_API_GATEWAY_ENDPOINT) + strlen(gateway->hid) + 20);
 760              		.loc 1 185 0
 761 0002 0569     		ldr	r5, [r0, #16]
 180:..\acn-sdk-c\src\arrow/connection.c ****   http_client_t cli;
 762              		.loc 1 180 0
 763 0004 D3B0     		sub	sp, sp, #332
 764              		.cfi_def_cfa_offset 352
 765              		.loc 1 185 0
 766 0006 281C     		mov	r0, r5
 767              	.LVL128:
 180:..\acn-sdk-c\src\arrow/connection.c ****   http_client_t cli;
 768              		.loc 1 180 0
 769 0008 0191     		str	r1, [sp, #4]
 770              		.loc 1 185 0
 771 000a FFF7FEFF 		bl	strlen
 772              	.LVL129:
 773 000e 4A30     		add	r0, r0, #74
 774 0010 FFF7FEFF 		bl	malloc
 775              	.LVL130:
 776 0014 041C     		mov	r4, r0
 777              	.LVL131:
 186:..\acn-sdk-c\src\arrow/connection.c ****   strcpy(uri, ARROW_API_GATEWAY_ENDPOINT);
 778              		.loc 1 186 0
ARM GAS  C:\Users\ddemidov\AppData\Local\Temp\ccNs4Ptg.s 			page 18


 779 0016 3749     		ldr	r1, .L43
 780 0018 FFF7FEFF 		bl	strcpy
 781              	.LVL132:
 187:..\acn-sdk-c\src\arrow/connection.c ****   strcat(uri, "/");
 782              		.loc 1 187 0
 783 001c 3649     		ldr	r1, .L43+4
 784 001e 201C     		mov	r0, r4
 785 0020 FFF7FEFF 		bl	strcat
 786              	.LVL133:
 188:..\acn-sdk-c\src\arrow/connection.c ****   strcat(uri, gateway->hid);
 787              		.loc 1 188 0
 788 0024 291C     		mov	r1, r5
 789 0026 201C     		mov	r0, r4
 790 0028 FFF7FEFF 		bl	strcat
 791              	.LVL134:
 189:..\acn-sdk-c\src\arrow/connection.c ****   strcat(uri, "/config");
 792              		.loc 1 189 0
 793 002c 3349     		ldr	r1, .L43+8
 794 002e 201C     		mov	r0, r4
 795 0030 FFF7FEFF 		bl	strcat
 796              	.LVL135:
 190:..\acn-sdk-c\src\arrow/connection.c **** 
 191:..\acn-sdk-c\src\arrow/connection.c ****   http_client_init(&cli);
 797              		.loc 1 191 0
 798 0034 03A8     		add	r0, sp, #12
 799 0036 FFF7FEFF 		bl	http_client_init
 800              	.LVL136:
 192:..\acn-sdk-c\src\arrow/connection.c ****   http_request_init(&request, GET, uri);
 801              		.loc 1 192 0
 802 003a 0021     		mov	r1, #0
 803 003c 221C     		mov	r2, r4
 804 003e 13A8     		add	r0, sp, #76
 805 0040 FFF7FEFF 		bl	http_request_init
 806              	.LVL137:
 193:..\acn-sdk-c\src\arrow/connection.c **** 
 194:..\acn-sdk-c\src\arrow/connection.c ****   sign_request(&request);
 807              		.loc 1 194 0
 808 0044 13A8     		add	r0, sp, #76
 809 0046 FFF7FEFF 		bl	sign_request
 810              	.LVL138:
 195:..\acn-sdk-c\src\arrow/connection.c **** 
 196:..\acn-sdk-c\src\arrow/connection.c ****   http_client_do(&cli, &request, &response);
 811              		.loc 1 196 0
 812 004a 0BAA     		add	r2, sp, #44
 813 004c 13A9     		add	r1, sp, #76
 814 004e 03A8     		add	r0, sp, #12
 815 0050 FFF7FEFF 		bl	http_client_do
 816              	.LVL139:
 197:..\acn-sdk-c\src\arrow/connection.c ****   http_request_close(&request);
 817              		.loc 1 197 0
 818 0054 13A8     		add	r0, sp, #76
 819 0056 FFF7FEFF 		bl	http_request_close
 820              	.LVL140:
 198:..\acn-sdk-c\src\arrow/connection.c ****   DBG("response %d", response.m_httpResponseCode);
 821              		.loc 1 198 0
 822 005a 2948     		ldr	r0, .L43+12
 823 005c 0B99     		ldr	r1, [sp, #44]
ARM GAS  C:\Users\ddemidov\AppData\Local\Temp\ccNs4Ptg.s 			page 19


 824 005e FFF7FEFF 		bl	dbg_line
 825              	.LVL141:
 199:..\acn-sdk-c\src\arrow/connection.c ****   http_client_free(&cli);
 826              		.loc 1 199 0
 827 0062 03A8     		add	r0, sp, #12
 828 0064 FFF7FEFF 		bl	http_client_free
 829              	.LVL142:
 200:..\acn-sdk-c\src\arrow/connection.c ****   if ( response.m_httpResponseCode != 200 ) {
 830              		.loc 1 200 0
 831 0068 0B9B     		ldr	r3, [sp, #44]
 832 006a C82B     		cmp	r3, #200
 833 006c 03D0     		beq	.L32
 201:..\acn-sdk-c\src\arrow/connection.c ****     http_response_free(&response);
 834              		.loc 1 201 0
 835 006e 0BA8     		add	r0, sp, #44
 836 0070 FFF7FEFF 		bl	http_response_free
 837              	.LVL143:
 838 0074 3AE0     		b	.L36
 839              	.L32:
 202:..\acn-sdk-c\src\arrow/connection.c ****     return -1;
 203:..\acn-sdk-c\src\arrow/connection.c ****   }
 204:..\acn-sdk-c\src\arrow/connection.c ****   DBG("pay: {%s}\r\n", response.payload.buf);
 840              		.loc 1 204 0
 841 0076 1299     		ldr	r1, [sp, #72]
 842 0078 2248     		ldr	r0, .L43+16
 843 007a FFF7FEFF 		bl	dbg_line
 844              	.LVL144:
 205:..\acn-sdk-c\src\arrow/connection.c **** 
 206:..\acn-sdk-c\src\arrow/connection.c ****   JsonNode *_main = json_decode((char*)response.payload.buf);
 845              		.loc 1 206 0
 846 007e 1298     		ldr	r0, [sp, #72]
 847 0080 FFF7FEFF 		bl	json_decode
 848              	.LVL145:
 207:..\acn-sdk-c\src\arrow/connection.c ****   JsonNode *tmp;
 208:..\acn-sdk-c\src\arrow/connection.c ****   JsonNode *_main_key = json_find_member(_main, "key");
 849              		.loc 1 208 0
 850 0084 2049     		ldr	r1, .L43+20
 206:..\acn-sdk-c\src\arrow/connection.c ****   JsonNode *tmp;
 851              		.loc 1 206 0
 852 0086 061C     		mov	r6, r0
 853              	.LVL146:
 854              		.loc 1 208 0
 855 0088 FFF7FEFF 		bl	json_find_member
 856              	.LVL147:
 857 008c 041E     		sub	r4, r0, #0
 858              	.LVL148:
 209:..\acn-sdk-c\src\arrow/connection.c ****   if ( _main_key ) {
 859              		.loc 1 209 0
 860 008e 2DD0     		beq	.L36
 210:..\acn-sdk-c\src\arrow/connection.c ****     tmp = json_find_member(_main_key, "apiKey");
 861              		.loc 1 210 0
 862 0090 1E49     		ldr	r1, .L43+24
 863 0092 FFF7FEFF 		bl	json_find_member
 864              	.LVL149:
 865 0096 051E     		sub	r5, r0, #0
 866              	.LVL150:
 211:..\acn-sdk-c\src\arrow/connection.c ****     if (tmp) {
ARM GAS  C:\Users\ddemidov\AppData\Local\Temp\ccNs4Ptg.s 			page 20


 867              		.loc 1 211 0
 868 0098 0BD0     		beq	.L34
 212:..\acn-sdk-c\src\arrow/connection.c ****       DBG("(%d) api key: %s", strlen(tmp->string_), tmp->string_);
 869              		.loc 1 212 0
 870 009a 8769     		ldr	r7, [r0, #24]
 871 009c 381C     		mov	r0, r7
 872              	.LVL151:
 873 009e FFF7FEFF 		bl	strlen
 874              	.LVL152:
 875 00a2 3A1C     		mov	r2, r7
 876 00a4 011C     		mov	r1, r0
 877 00a6 1A48     		ldr	r0, .L43+28
 878 00a8 FFF7FEFF 		bl	dbg_line
 879              	.LVL153:
 213:..\acn-sdk-c\src\arrow/connection.c ****       set_api_key(tmp->string_);
 880              		.loc 1 213 0
 881 00ac A869     		ldr	r0, [r5, #24]
 882 00ae FFF7FEFF 		bl	set_api_key
 883              	.LVL154:
 884              	.L34:
 214:..\acn-sdk-c\src\arrow/connection.c ****     }
 215:..\acn-sdk-c\src\arrow/connection.c ****     tmp = json_find_member(_main_key, "secretKey");
 885              		.loc 1 215 0
 886 00b2 201C     		mov	r0, r4
 887 00b4 1749     		ldr	r1, .L43+32
 888 00b6 FFF7FEFF 		bl	json_find_member
 889              	.LVL155:
 890 00ba 041E     		sub	r4, r0, #0
 891              	.LVL156:
 216:..\acn-sdk-c\src\arrow/connection.c ****     if (tmp) {
 892              		.loc 1 216 0
 893 00bc 0BD0     		beq	.L35
 217:..\acn-sdk-c\src\arrow/connection.c ****       DBG("(%d) secret key: %s", strlen(tmp->string_), tmp->string_);
 894              		.loc 1 217 0
 895 00be 8569     		ldr	r5, [r0, #24]
 896 00c0 281C     		mov	r0, r5
 897              	.LVL157:
 898 00c2 FFF7FEFF 		bl	strlen
 899              	.LVL158:
 900 00c6 2A1C     		mov	r2, r5
 901 00c8 011C     		mov	r1, r0
 902 00ca 1348     		ldr	r0, .L43+36
 903 00cc FFF7FEFF 		bl	dbg_line
 904              	.LVL159:
 218:..\acn-sdk-c\src\arrow/connection.c ****       set_secret_key(tmp->string_);
 905              		.loc 1 218 0
 906 00d0 A069     		ldr	r0, [r4, #24]
 907 00d2 FFF7FEFF 		bl	set_secret_key
 908              	.LVL160:
 909              	.L35:
 219:..\acn-sdk-c\src\arrow/connection.c ****     }
 220:..\acn-sdk-c\src\arrow/connection.c ****   } else return -1;
 221:..\acn-sdk-c\src\arrow/connection.c ****   arrow_gateway_config_init(config);
 910              		.loc 1 221 0
 911 00d6 0198     		ldr	r0, [sp, #4]
 912 00d8 FFF7FEFF 		bl	arrow_gateway_config_init
 913              	.LVL161:
ARM GAS  C:\Users\ddemidov\AppData\Local\Temp\ccNs4Ptg.s 			page 21


 222:..\acn-sdk-c\src\arrow/connection.c **** #if defined(__IBM__)
 223:..\acn-sdk-c\src\arrow/connection.c ****   JsonNode *_main_ibm = json_find_member(_main, "ibm");
 224:..\acn-sdk-c\src\arrow/connection.c ****   if ( _main_ibm ) {
 225:..\acn-sdk-c\src\arrow/connection.c ****     config->type = 1;
 226:..\acn-sdk-c\src\arrow/connection.c ****     tmp = json_find_member(_main_ibm, "organizationId");
 227:..\acn-sdk-c\src\arrow/connection.c ****     if ( tmp ) arrow_gateway_config_add_organizationId(config, tmp->string_);
 228:..\acn-sdk-c\src\arrow/connection.c ****     tmp = json_find_member(_main_ibm, "gatewayType");
 229:..\acn-sdk-c\src\arrow/connection.c ****     if ( tmp ) arrow_gateway_config_add_gatewayType(config, tmp->string_);
 230:..\acn-sdk-c\src\arrow/connection.c ****     tmp = json_find_member(_main_ibm, "gatewayId");
 231:..\acn-sdk-c\src\arrow/connection.c ****     if ( tmp ) arrow_gateway_config_add_gatewayId(config, tmp->string_);
 232:..\acn-sdk-c\src\arrow/connection.c ****     tmp = json_find_member(_main_ibm, "authToken");
 233:..\acn-sdk-c\src\arrow/connection.c ****     if ( tmp ) arrow_gateway_config_add_authToken(config, tmp->string_);
 234:..\acn-sdk-c\src\arrow/connection.c ****     tmp = json_find_member(_main_ibm, "authMethod");
 235:..\acn-sdk-c\src\arrow/connection.c ****     if ( tmp ) arrow_gateway_config_add_authMethod(config, tmp->string_);
 236:..\acn-sdk-c\src\arrow/connection.c ****   }
 237:..\acn-sdk-c\src\arrow/connection.c **** #elif defined(__AZURE__)
 238:..\acn-sdk-c\src\arrow/connection.c ****   JsonNode *_main_azure = json_find_member(_main, "azure");
 239:..\acn-sdk-c\src\arrow/connection.c ****   if ( _main_azure ) {
 240:..\acn-sdk-c\src\arrow/connection.c ****     config->type = 3;
 241:..\acn-sdk-c\src\arrow/connection.c ****     tmp = json_find_member(_main_azure, "host");
 242:..\acn-sdk-c\src\arrow/connection.c ****     if ( tmp ) arrow_gateway_config_add_host(config, tmp->string_);
 243:..\acn-sdk-c\src\arrow/connection.c ****     tmp = json_find_member(_main_azure, "accessKey");
 244:..\acn-sdk-c\src\arrow/connection.c ****     if ( tmp ) arrow_gateway_config_add_accessKey(config, tmp->string_);
 245:..\acn-sdk-c\src\arrow/connection.c ****   }
 246:..\acn-sdk-c\src\arrow/connection.c **** #endif
 247:..\acn-sdk-c\src\arrow/connection.c ****   json_delete(_main);
 914              		.loc 1 247 0
 915 00dc 301C     		mov	r0, r6
 916 00de FFF7FEFF 		bl	json_delete
 917              	.LVL162:
 248:..\acn-sdk-c\src\arrow/connection.c ****   http_response_free(&response);
 918              		.loc 1 248 0
 919 00e2 0BA8     		add	r0, sp, #44
 920 00e4 FFF7FEFF 		bl	http_response_free
 921              	.LVL163:
 249:..\acn-sdk-c\src\arrow/connection.c ****   return 0;
 922              		.loc 1 249 0
 923 00e8 0020     		mov	r0, #0
 924 00ea 01E0     		b	.L33
 925              	.LVL164:
 926              	.L36:
 220:..\acn-sdk-c\src\arrow/connection.c ****   arrow_gateway_config_init(config);
 927              		.loc 1 220 0
 928 00ec 0120     		mov	r0, #1
 929 00ee 4042     		neg	r0, r0
 930              	.L33:
 250:..\acn-sdk-c\src\arrow/connection.c **** }
 931              		.loc 1 250 0
 932 00f0 53B0     		add	sp, sp, #332
 933              		@ sp needed
 934 00f2 F0BD     		pop	{r4, r5, r6, r7, pc}
 935              	.L44:
 936              		.align	2
 937              	.L43:
 938 00f4 44000000 		.word	.LC22
 939 00f8 31010000 		.word	.LC49
 940 00fc 47010000 		.word	.LC61
ARM GAS  C:\Users\ddemidov\AppData\Local\Temp\ccNs4Ptg.s 			page 22


 941 0100 86000000 		.word	.LC26
 942 0104 4F010000 		.word	.LC64
 943 0108 5B010000 		.word	.LC66
 944 010c 5F010000 		.word	.LC68
 945 0110 66010000 		.word	.LC70
 946 0114 77010000 		.word	.LC72
 947 0118 81010000 		.word	.LC74
 948              		.cfi_endproc
 949              	.LFE6:
 950              		.size	arrow_config, .-arrow_config
 951              		.section	.text.arrow_send_telemetry,"ax",%progbits
 952              		.align	1
 953              		.global	arrow_send_telemetry
 954              		.code	16
 955              		.thumb_func
 956              		.type	arrow_send_telemetry, %function
 957              	arrow_send_telemetry:
 958              	.LFB7:
 251:..\acn-sdk-c\src\arrow/connection.c **** 
 252:..\acn-sdk-c\src\arrow/connection.c **** 
 253:..\acn-sdk-c\src\arrow/connection.c **** int arrow_send_telemetry(arrow_device_t *device, void *d) {
 959              		.loc 1 253 0
 960              		.cfi_startproc
 961              	.LVL165:
 962 0000 30B5     		push	{r4, r5, lr}
 963              		.cfi_def_cfa_offset 12
 964              		.cfi_offset 4, -12
 965              		.cfi_offset 5, -8
 966              		.cfi_offset 14, -4
 967 0002 D1B0     		sub	sp, sp, #324
 968              		.cfi_def_cfa_offset 336
 969              		.loc 1 253 0
 970 0004 051C     		mov	r5, r0
 254:..\acn-sdk-c\src\arrow/connection.c ****     http_client_t cli;
 255:..\acn-sdk-c\src\arrow/connection.c ****     http_response_t response;
 256:..\acn-sdk-c\src\arrow/connection.c ****     http_request_t request;
 257:..\acn-sdk-c\src\arrow/connection.c ****     sensor_data_t *data = (sensor_data_t*)d;
 258:..\acn-sdk-c\src\arrow/connection.c **** 
 259:..\acn-sdk-c\src\arrow/connection.c ****     http_client_init(&cli);
 971              		.loc 1 259 0
 972 0006 01A8     		add	r0, sp, #4
 973              	.LVL166:
 253:..\acn-sdk-c\src\arrow/connection.c ****     http_client_t cli;
 974              		.loc 1 253 0
 975 0008 0C1C     		mov	r4, r1
 976              	.LVL167:
 977              		.loc 1 259 0
 978 000a FFF7FEFF 		bl	http_client_init
 979              	.LVL168:
 260:..\acn-sdk-c\src\arrow/connection.c ****     http_request_init(&request, POST, ARROW_API_TELEMETRY_ENDPOINT);
 980              		.loc 1 260 0
 981 000e 174A     		ldr	r2, .L46
 982 0010 11A8     		add	r0, sp, #68
 983 0012 0121     		mov	r1, #1
 984 0014 FFF7FEFF 		bl	http_request_init
 985              	.LVL169:
 261:..\acn-sdk-c\src\arrow/connection.c ****     request.is_chunked = 1;
ARM GAS  C:\Users\ddemidov\AppData\Local\Temp\ccNs4Ptg.s 			page 23


 986              		.loc 1 261 0
 987 0018 0123     		mov	r3, #1
 262:..\acn-sdk-c\src\arrow/connection.c ****     char *tmp = telemetry_serialize(device, data);
 988              		.loc 1 262 0
 989 001a 211C     		mov	r1, r4
 990 001c 281C     		mov	r0, r5
 261:..\acn-sdk-c\src\arrow/connection.c ****     request.is_chunked = 1;
 991              		.loc 1 261 0
 992 001e 4893     		str	r3, [sp, #288]
 993              		.loc 1 262 0
 994 0020 FFF7FEFF 		bl	telemetry_serialize
 995              	.LVL170:
 996 0024 041C     		mov	r4, r0
 997              	.LVL171:
 263:..\acn-sdk-c\src\arrow/connection.c ****     DBG("set payload %s", tmp);
 998              		.loc 1 263 0
 999 0026 1248     		ldr	r0, .L46+4
 1000              	.LVL172:
 1001 0028 211C     		mov	r1, r4
 1002 002a FFF7FEFF 		bl	dbg_line
 1003              	.LVL173:
 264:..\acn-sdk-c\src\arrow/connection.c ****     http_request_set_payload(&request, tmp);
 1004              		.loc 1 264 0
 1005 002e 211C     		mov	r1, r4
 1006 0030 11A8     		add	r0, sp, #68
 1007 0032 FFF7FEFF 		bl	http_request_set_payload
 1008              	.LVL174:
 265:..\acn-sdk-c\src\arrow/connection.c ****     free(tmp);
 1009              		.loc 1 265 0
 1010 0036 201C     		mov	r0, r4
 1011 0038 FFF7FEFF 		bl	free
 1012              	.LVL175:
 266:..\acn-sdk-c\src\arrow/connection.c ****     sign_request(&request);
 1013              		.loc 1 266 0
 1014 003c 11A8     		add	r0, sp, #68
 1015 003e FFF7FEFF 		bl	sign_request
 1016              	.LVL176:
 267:..\acn-sdk-c\src\arrow/connection.c ****     http_client_do(&cli, &request, &response);
 1017              		.loc 1 267 0
 1018 0042 09AA     		add	r2, sp, #36
 1019 0044 11A9     		add	r1, sp, #68
 1020 0046 01A8     		add	r0, sp, #4
 1021 0048 FFF7FEFF 		bl	http_client_do
 1022              	.LVL177:
 268:..\acn-sdk-c\src\arrow/connection.c ****     DBG("response %d", response.m_httpResponseCode);
 1023              		.loc 1 268 0
 1024 004c 0999     		ldr	r1, [sp, #36]
 1025 004e 0948     		ldr	r0, .L46+8
 1026 0050 FFF7FEFF 		bl	dbg_line
 1027              	.LVL178:
 269:..\acn-sdk-c\src\arrow/connection.c ****     http_request_close(&request);
 1028              		.loc 1 269 0
 1029 0054 11A8     		add	r0, sp, #68
 1030 0056 FFF7FEFF 		bl	http_request_close
 1031              	.LVL179:
 270:..\acn-sdk-c\src\arrow/connection.c ****     http_client_free(&cli);
 1032              		.loc 1 270 0
ARM GAS  C:\Users\ddemidov\AppData\Local\Temp\ccNs4Ptg.s 			page 24


 1033 005a 01A8     		add	r0, sp, #4
 1034 005c FFF7FEFF 		bl	http_client_free
 1035              	.LVL180:
 271:..\acn-sdk-c\src\arrow/connection.c ****     http_response_free(&response);
 1036              		.loc 1 271 0
 1037 0060 09A8     		add	r0, sp, #36
 1038 0062 FFF7FEFF 		bl	http_response_free
 1039              	.LVL181:
 272:..\acn-sdk-c\src\arrow/connection.c ****     return 0;
 273:..\acn-sdk-c\src\arrow/connection.c **** }
 1040              		.loc 1 273 0
 1041 0066 0020     		mov	r0, #0
 1042 0068 51B0     		add	sp, sp, #324
 1043              		@ sp needed
 1044              	.LVL182:
 1045              	.LVL183:
 1046 006a 30BD     		pop	{r4, r5, pc}
 1047              	.L47:
 1048              		.align	2
 1049              	.L46:
 1050 006c 95010000 		.word	.LC76
 1051 0070 CF010000 		.word	.LC78
 1052 0074 86000000 		.word	.LC26
 1053              		.cfi_endproc
 1054              	.LFE7:
 1055              		.size	arrow_send_telemetry, .-arrow_send_telemetry
 1056              		.section	.text.arrow_connect_gateway,"ax",%progbits
 1057              		.align	1
 1058              		.global	arrow_connect_gateway
 1059              		.code	16
 1060              		.thumb_func
 1061              		.type	arrow_connect_gateway, %function
 1062              	arrow_connect_gateway:
 1063              	.LFB8:
 274:..\acn-sdk-c\src\arrow/connection.c **** 
 275:..\acn-sdk-c\src\arrow/connection.c **** int arrow_connect_gateway(arrow_gateway_t *gateway){
 1064              		.loc 1 275 0
 1065              		.cfi_startproc
 1066              	.LVL184:
 1067 0000 10B5     		push	{r4, lr}
 1068              		.cfi_def_cfa_offset 8
 1069              		.cfi_offset 4, -8
 1070              		.cfi_offset 14, -4
 1071              		.loc 1 275 0
 1072 0002 041C     		mov	r4, r0
 276:..\acn-sdk-c\src\arrow/connection.c ****   arrow_prepare_gateway(gateway);
 1073              		.loc 1 276 0
 1074 0004 FFF7FEFF 		bl	arrow_prepare_gateway
 1075              	.LVL185:
 277:..\acn-sdk-c\src\arrow/connection.c ****   int ret = restore_gateway_info(gateway);
 1076              		.loc 1 277 0
 1077 0008 201C     		mov	r0, r4
 1078 000a FFF7FEFF 		bl	restore_gateway_info
 1079              	.LVL186:
 278:..\acn-sdk-c\src\arrow/connection.c ****   if ( ret < 0 ) {
 1080              		.loc 1 278 0
 1081 000e 0028     		cmp	r0, #0
ARM GAS  C:\Users\ddemidov\AppData\Local\Temp\ccNs4Ptg.s 			page 25


 1082 0010 09DA     		bge	.L49
 279:..\acn-sdk-c\src\arrow/connection.c ****     // new registration
 280:..\acn-sdk-c\src\arrow/connection.c ****     if ( arrow_register_gateway(gateway) < 0 ) {
 1083              		.loc 1 280 0
 1084 0012 201C     		mov	r0, r4
 1085              	.LVL187:
 1086 0014 FFF7FEFF 		bl	arrow_register_gateway
 1087              	.LVL188:
 1088 0018 0028     		cmp	r0, #0
 1089 001a 0CDB     		blt	.L51
 281:..\acn-sdk-c\src\arrow/connection.c ****       return -1;
 282:..\acn-sdk-c\src\arrow/connection.c ****     }
 283:..\acn-sdk-c\src\arrow/connection.c ****     save_gateway_info(gateway);
 1090              		.loc 1 283 0
 1091 001c 201C     		mov	r0, r4
 1092 001e FFF7FEFF 		bl	save_gateway_info
 1093              	.LVL189:
 284:..\acn-sdk-c\src\arrow/connection.c ****   } else {
 285:..\acn-sdk-c\src\arrow/connection.c ****     // hid already set
 286:..\acn-sdk-c\src\arrow/connection.c ****     DBG("gateway checkin hid %s", gateway->hid);
 287:..\acn-sdk-c\src\arrow/connection.c ****     return arrow_checkin(gateway);
 288:..\acn-sdk-c\src\arrow/connection.c ****   }
 289:..\acn-sdk-c\src\arrow/connection.c ****   return 0;
 1094              		.loc 1 289 0
 1095 0022 0020     		mov	r0, #0
 1096 0024 09E0     		b	.L50
 1097              	.LVL190:
 1098              	.L49:
 286:..\acn-sdk-c\src\arrow/connection.c ****     return arrow_checkin(gateway);
 1099              		.loc 1 286 0
 1100 0026 0548     		ldr	r0, .L52
 1101              	.LVL191:
 1102 0028 2169     		ldr	r1, [r4, #16]
 1103 002a FFF7FEFF 		bl	dbg_line
 1104              	.LVL192:
 287:..\acn-sdk-c\src\arrow/connection.c ****   }
 1105              		.loc 1 287 0
 1106 002e 201C     		mov	r0, r4
 1107 0030 FFF7FEFF 		bl	arrow_checkin
 1108              	.LVL193:
 1109 0034 01E0     		b	.L50
 1110              	.L51:
 281:..\acn-sdk-c\src\arrow/connection.c ****     }
 1111              		.loc 1 281 0
 1112 0036 0120     		mov	r0, #1
 1113 0038 4042     		neg	r0, r0
 1114              	.L50:
 290:..\acn-sdk-c\src\arrow/connection.c **** }
 1115              		.loc 1 290 0
 1116              		@ sp needed
 1117              	.LVL194:
 1118 003a 10BD     		pop	{r4, pc}
 1119              	.L53:
 1120              		.align	2
 1121              	.L52:
 1122 003c DE010000 		.word	.LC81
 1123              		.cfi_endproc
ARM GAS  C:\Users\ddemidov\AppData\Local\Temp\ccNs4Ptg.s 			page 26


 1124              	.LFE8:
 1125              		.size	arrow_connect_gateway, .-arrow_connect_gateway
 1126              		.section	.text.arrow_connect_device,"ax",%progbits
 1127              		.align	1
 1128              		.global	arrow_connect_device
 1129              		.code	16
 1130              		.thumb_func
 1131              		.type	arrow_connect_device, %function
 1132              	arrow_connect_device:
 1133              	.LFB9:
 291:..\acn-sdk-c\src\arrow/connection.c **** 
 292:..\acn-sdk-c\src\arrow/connection.c **** int arrow_connect_device(arrow_gateway_t *gateway, arrow_device_t *device) {
 1134              		.loc 1 292 0
 1135              		.cfi_startproc
 1136              	.LVL195:
 1137 0000 70B5     		push	{r4, r5, r6, lr}
 1138              		.cfi_def_cfa_offset 16
 1139              		.cfi_offset 4, -16
 1140              		.cfi_offset 5, -12
 1141              		.cfi_offset 6, -8
 1142              		.cfi_offset 14, -4
 1143              		.loc 1 292 0
 1144 0002 0C1C     		mov	r4, r1
 1145 0004 061C     		mov	r6, r0
 293:..\acn-sdk-c\src\arrow/connection.c ****   arrow_device_init(device);
 1146              		.loc 1 293 0
 1147 0006 081C     		mov	r0, r1
 1148              	.LVL196:
 1149 0008 FFF7FEFF 		bl	arrow_device_init
 1150              	.LVL197:
 294:..\acn-sdk-c\src\arrow/connection.c ****   arrow_prepare_device(gateway, device);
 1151              		.loc 1 294 0
 1152 000c 211C     		mov	r1, r4
 1153 000e 301C     		mov	r0, r6
 1154 0010 FFF7FEFF 		bl	arrow_prepare_device
 1155              	.LVL198:
 295:..\acn-sdk-c\src\arrow/connection.c ****   if ( restore_device_info(device) < 0 ) {
 1156              		.loc 1 295 0
 1157 0014 201C     		mov	r0, r4
 1158 0016 FFF7FEFF 		bl	restore_device_info
 1159              	.LVL199:
 296:..\acn-sdk-c\src\arrow/connection.c ****     if ( arrow_register_device(gateway, device) < 0 ) return -1;
 297:..\acn-sdk-c\src\arrow/connection.c ****     save_device_info(device);
 298:..\acn-sdk-c\src\arrow/connection.c ****   }
 299:..\acn-sdk-c\src\arrow/connection.c ****   return 0;
 1160              		.loc 1 299 0
 1161 001a 0025     		mov	r5, #0
 295:..\acn-sdk-c\src\arrow/connection.c ****   if ( restore_device_info(device) < 0 ) {
 1162              		.loc 1 295 0
 1163 001c A842     		cmp	r0, r5
 1164 001e 0BDA     		bge	.L55
 296:..\acn-sdk-c\src\arrow/connection.c ****     if ( arrow_register_device(gateway, device) < 0 ) return -1;
 1165              		.loc 1 296 0
 1166 0020 301C     		mov	r0, r6
 1167 0022 211C     		mov	r1, r4
 1168 0024 FFF7FEFF 		bl	arrow_register_device
 1169              	.LVL200:
ARM GAS  C:\Users\ddemidov\AppData\Local\Temp\ccNs4Ptg.s 			page 27


 1170 0028 A842     		cmp	r0, r5
 1171 002a 03DB     		blt	.L57
 297:..\acn-sdk-c\src\arrow/connection.c ****   }
 1172              		.loc 1 297 0
 1173 002c 201C     		mov	r0, r4
 1174 002e FFF7FEFF 		bl	save_device_info
 1175              	.LVL201:
 1176 0032 01E0     		b	.L55
 1177              	.L57:
 296:..\acn-sdk-c\src\arrow/connection.c ****     if ( arrow_register_device(gateway, device) < 0 ) return -1;
 1178              		.loc 1 296 0
 1179 0034 0125     		mov	r5, #1
 1180 0036 6D42     		neg	r5, r5
 1181              	.L55:
 300:..\acn-sdk-c\src\arrow/connection.c **** }
 1182              		.loc 1 300 0
 1183 0038 281C     		mov	r0, r5
 1184              		@ sp needed
 1185              	.LVL202:
 1186              	.LVL203:
 1187 003a 70BD     		pop	{r4, r5, r6, pc}
 1188              		.cfi_endproc
 1189              	.LFE9:
 1190              		.size	arrow_connect_device, .-arrow_connect_device
 1191              		.section	.rodata.str1.1,"aMS",%progbits,1
 1192              	.LC2:
 1193 0000 43797072 		.ascii	"Cypress-gate-demo\000"
 1193      6573732D 
 1193      67617465 
 1193      2D64656D 
 1193      6F00
 1194              	.LC4:
 1195 0012 6E6F6E65 		.ascii	"none\000"
 1195      00
 1196              	.LC6:
 1197 0017 656F7300 		.ascii	"eos\000"
 1198              	.LC8:
 1199 001b 302E3100 		.ascii	"0.1\000"
 1200              	.LC10:
 1201 001f 4C6F6361 		.ascii	"Local\000"
 1201      6C00
 1202              	.LC12:
 1203 0025 312E312E 		.ascii	"1.1.0\000"
 1203      3000
 1204              	.LC14:
 1205 002b 43797072 		.ascii	"Cypress\000"
 1205      65737300 
 1206              	.LC16:
 1207 0033 2D00     		.ascii	"-\000"
 1208              	.LC18:
 1209 0035 25303278 		.ascii	"%02x\000"
 1209      00
 1210              	.LC20:
 1211 003a 7569643A 		.ascii	"uid: [%s]\000"
 1211      205B2573 
 1211      5D00
 1212              	.LC22:
ARM GAS  C:\Users\ddemidov\AppData\Local\Temp\ccNs4Ptg.s 			page 28


 1213 0044 68747470 		.ascii	"https://api.arrowconnect.io:443/api/v1/kronos/gatew"
 1213      733A2F2F 
 1213      6170692E 
 1213      6172726F 
 1213      77636F6E 
 1214 0077 61797300 		.ascii	"ays\000"
 1215              	.LC24:
 1216 007b 7061796C 		.ascii	"payload %s\000"
 1216      6F616420 
 1216      257300
 1217              	.LC26:
 1218 0086 72657370 		.ascii	"response %d\000"
 1218      6F6E7365 
 1218      20256400 
 1219              	.LC28:
 1220 0092 70617273 		.ascii	"parse error\000"
 1220      65206572 
 1220      726F7200 
 1221              	.LC30:
 1222 009e 67617465 		.ascii	"gateway hid: %s\000"
 1222      77617920 
 1222      6869643A 
 1222      20257300 
 1223              	.LC32:
 1224 00ae 53656E73 		.ascii	"SenseAbility20\000"
 1224      65416269 
 1224      6C697479 
 1224      323000
 1225              	.LC34:
 1226 00bd 53656E73 		.ascii	"SenseAbility\000"
 1226      65416269 
 1226      6C697479 
 1226      00
 1227              	.LC37:
 1228 00ca 6465766B 		.ascii	"devkit\000"
 1228      697400
 1229              	.LC39:
 1230 00d1 68747470 		.ascii	"https://api.arrowconnect.io:443/api/v1/kronos/devic"
 1230      733A2F2F 
 1230      6170692E 
 1230      6172726F 
 1230      77636F6E 
 1231 0104 657300   		.ascii	"es\000"
 1232              	.LC41:
 1233 0107 6465767C 		.ascii	"dev|%s|\000"
 1233      25737C00 
 1234              	.LC44:
 1235 010f 64657669 		.ascii	"device parse error\000"
 1235      63652070 
 1235      61727365 
 1235      20657272 
 1235      6F7200
 1236              	.LC46:
 1237 0122 64657669 		.ascii	"device hid: %s\000"
 1237      63652068 
 1237      69643A20 
 1237      257300
ARM GAS  C:\Users\ddemidov\AppData\Local\Temp\ccNs4Ptg.s 			page 29


 1238              	.LC49:
 1239 0131 2F00     		.ascii	"/\000"
 1240              	.LC51:
 1241 0133 2F686561 		.ascii	"/heartbeat\000"
 1241      72746265 
 1241      617400
 1242              	.LC56:
 1243 013e 2F636865 		.ascii	"/checkin\000"
 1243      636B696E 
 1243      00
 1244              	.LC61:
 1245 0147 2F636F6E 		.ascii	"/config\000"
 1245      66696700 
 1246              	.LC64:
 1247 014f 7061793A 		.ascii	"pay: {%s}\015\012\000"
 1247      207B2573 
 1247      7D0D0A00 
 1248              	.LC66:
 1249 015b 6B657900 		.ascii	"key\000"
 1250              	.LC68:
 1251 015f 6170694B 		.ascii	"apiKey\000"
 1251      657900
 1252              	.LC70:
 1253 0166 28256429 		.ascii	"(%d) api key: %s\000"
 1253      20617069 
 1253      206B6579 
 1253      3A202573 
 1253      00
 1254              	.LC72:
 1255 0177 73656372 		.ascii	"secretKey\000"
 1255      65744B65 
 1255      7900
 1256              	.LC74:
 1257 0181 28256429 		.ascii	"(%d) secret key: %s\000"
 1257      20736563 
 1257      72657420 
 1257      6B65793A 
 1257      20257300 
 1258              	.LC76:
 1259 0195 68747470 		.ascii	"https://api.arrowconnect.io:443/api/v1/kronos/telem"
 1259      733A2F2F 
 1259      6170692E 
 1259      6172726F 
 1259      77636F6E 
 1260 01c8 65747269 		.ascii	"etries\000"
 1260      657300
 1261              	.LC78:
 1262 01cf 73657420 		.ascii	"set payload %s\000"
 1262      7061796C 
 1262      6F616420 
 1262      257300
 1263              	.LC81:
 1264 01de 67617465 		.ascii	"gateway checkin hid %s\000"
 1264      77617920 
 1264      63686563 
 1264      6B696E20 
 1264      68696420 
ARM GAS  C:\Users\ddemidov\AppData\Local\Temp\ccNs4Ptg.s 			page 30


 1265              		.text
 1266              	.Letext0:
 1267              		.file 2 "c:\\program files (x86)\\cypress\\psoc creator\\3.3\\psoc creator\\import\\gnu\\arm\\4.9.
 1268              		.file 3 "c:\\program files (x86)\\cypress\\psoc creator\\3.3\\psoc creator\\import\\gnu\\arm\\4.9.
 1269              		.file 4 "..\\acn-sdk-c\\include/json/json.h"
 1270              		.file 5 "..\\acn-sdk-c\\include/arrow/gateway.h"
 1271              		.file 6 "..\\acn-sdk-c\\include/arrow/device.h"
 1272              		.file 7 "c:\\program files (x86)\\cypress\\psoc creator\\3.3\\psoc creator\\import\\gnu\\arm\\4.9.
 1273              		.file 8 "..\\acn-sdk-c\\include/http/request.h"
 1274              		.file 9 "..\\acn-sdk-c\\src\\wolfSSL/wolfssl/ssl.h"
 1275              		.file 10 "..\\acn-sdk-c\\include/http/client.h"
 1276              		.file 11 "<built-in>"
 1277              		.file 12 "c:\\program files (x86)\\cypress\\psoc creator\\3.3\\psoc creator\\import\\gnu\\arm\\4.9
 1278              		.file 13 "c:\\program files (x86)\\cypress\\psoc creator\\3.3\\psoc creator\\import\\gnu\\arm\\4.9
 1279              		.file 14 "..\\acn-sdk-c\\include/arrow/net.h"
 1280              		.file 15 "..\\acn-sdk-c/platforms/senseability/trace.h"
 1281              		.file 16 "..\\acn-sdk-c\\include/arrow/request.h"
 1282              		.file 17 "..\\acn-sdk-c\\include/arrow/sign.h"
 1283              		.file 18 "..\\acn-sdk-c\\include/json/telemetry.h"
 1284              		.file 19 "..\\acn-sdk-c\\include/arrow/storage.h"