ARM GAS  C:\Users\ddemidov\AppData\Local\Temp\ccPnVEX8.s 			page 1


   1              		.cpu cortex-m0
   2              		.fpu softvfp
   3              		.eabi_attribute 20, 1
   4              		.eabi_attribute 21, 1
   5              		.eabi_attribute 23, 3
   6              		.eabi_attribute 24, 1
   7              		.eabi_attribute 25, 1
   8              		.eabi_attribute 26, 1
   9              		.eabi_attribute 30, 4
  10              		.eabi_attribute 34, 0
  11              		.eabi_attribute 18, 4
  12              		.code	16
  13              		.file	"crypt.c"
  14              		.text
  15              	.Ltext0:
  16              		.cfi_sections	.debug_frame
  17              		.section	.text.sha256,"ax",%progbits
  18              		.align	1
  19              		.global	sha256
  20              		.code	16
  21              		.thumb_func
  22              		.type	sha256, %function
  23              	sha256:
  24              	.LFB0:
  25              		.file 1 "..\\acn-sdk-c\\platforms\\common\\wolf\\crypt\\crypt.c"
   1:..\acn-sdk-c\platforms\common\wolf\crypt/crypt.c **** /* Copyright (c) 2017 Arrow Electronics, Inc.
   2:..\acn-sdk-c\platforms\common\wolf\crypt/crypt.c ****  * All rights reserved. This program and the accompanying materials
   3:..\acn-sdk-c\platforms\common\wolf\crypt/crypt.c ****  * are made available under the terms of the Apache License 2.0
   4:..\acn-sdk-c\platforms\common\wolf\crypt/crypt.c ****  * which accompanies this distribution, and is available at
   5:..\acn-sdk-c\platforms\common\wolf\crypt/crypt.c ****  * http://apache.org/licenses/LICENSE-2.0
   6:..\acn-sdk-c\platforms\common\wolf\crypt/crypt.c ****  * Contributors: Arrow Electronics, Inc.
   7:..\acn-sdk-c\platforms\common\wolf\crypt/crypt.c ****  */
   8:..\acn-sdk-c\platforms\common\wolf\crypt/crypt.c **** 
   9:..\acn-sdk-c\platforms\common\wolf\crypt/crypt.c **** #include "crypt/crypt.h"
  10:..\acn-sdk-c\platforms\common\wolf\crypt/crypt.c **** 
  11:..\acn-sdk-c\platforms\common\wolf\crypt/crypt.c **** #include "wolfssl/wolfcrypt/sha256.h"
  12:..\acn-sdk-c\platforms\common\wolf\crypt/crypt.c **** #include "wolfssl/wolfcrypt/hmac.h"
  13:..\acn-sdk-c\platforms\common\wolf\crypt/crypt.c **** 
  14:..\acn-sdk-c\platforms\common\wolf\crypt/crypt.c **** void sha256(char *shasum, char *buf, int size) {
  26              		.loc 1 14 0
  27              		.cfi_startproc
  28              	.LVL0:
  29 0000 70B5     		push	{r4, r5, r6, lr}
  30              		.cfi_def_cfa_offset 16
  31              		.cfi_offset 4, -16
  32              		.cfi_offset 5, -12
  33              		.cfi_offset 6, -8
  34              		.cfi_offset 14, -4
  35 0002 0E1C     		mov	r6, r1
  36 0004 151C     		mov	r5, r2
  37 0006 041C     		mov	r4, r0
  38 0008 9CB0     		sub	sp, sp, #112
  39              		.cfi_def_cfa_offset 128
  15:..\acn-sdk-c\platforms\common\wolf\crypt/crypt.c ****   Sha256 sh;
  16:..\acn-sdk-c\platforms\common\wolf\crypt/crypt.c ****   wc_InitSha256(&sh);
  40              		.loc 1 16 0
  41 000a 01A8     		add	r0, sp, #4
ARM GAS  C:\Users\ddemidov\AppData\Local\Temp\ccPnVEX8.s 			page 2


  42              	.LVL1:
  43 000c FFF7FEFF 		bl	wc_InitSha256
  44              	.LVL2:
  17:..\acn-sdk-c\platforms\common\wolf\crypt/crypt.c ****   wc_Sha256Update(&sh, (byte*)buf, (word32)size);
  45              		.loc 1 17 0
  46 0010 311C     		mov	r1, r6
  47 0012 2A1C     		mov	r2, r5
  48 0014 01A8     		add	r0, sp, #4
  49 0016 FFF7FEFF 		bl	wc_Sha256Update
  50              	.LVL3:
  18:..\acn-sdk-c\platforms\common\wolf\crypt/crypt.c ****   wc_Sha256Final(&sh, (byte*)shasum);
  51              		.loc 1 18 0
  52 001a 01A8     		add	r0, sp, #4
  53 001c 211C     		mov	r1, r4
  54 001e FFF7FEFF 		bl	wc_Sha256Final
  55              	.LVL4:
  19:..\acn-sdk-c\platforms\common\wolf\crypt/crypt.c **** }
  56              		.loc 1 19 0
  57 0022 1CB0     		add	sp, sp, #112
  58              		@ sp needed
  59              	.LVL5:
  60              	.LVL6:
  61              	.LVL7:
  62 0024 70BD     		pop	{r4, r5, r6, pc}
  63              		.cfi_endproc
  64              	.LFE0:
  65              		.size	sha256, .-sha256
  66              		.section	.text.hmac256,"ax",%progbits
  67              		.align	1
  68              		.global	hmac256
  69              		.code	16
  70              		.thumb_func
  71              		.type	hmac256, %function
  72              	hmac256:
  73              	.LFB1:
  20:..\acn-sdk-c\platforms\common\wolf\crypt/crypt.c **** 
  21:..\acn-sdk-c\platforms\common\wolf\crypt/crypt.c **** void hmac256(char *hmacdig, const char *key, int key_size, const char *buf, int buf_size) {
  74              		.loc 1 21 0
  75              		.cfi_startproc
  76              	.LVL8:
  77 0000 F0B5     		push	{r4, r5, r6, r7, lr}
  78              		.cfi_def_cfa_offset 20
  79              		.cfi_offset 4, -20
  80              		.cfi_offset 5, -16
  81              		.cfi_offset 6, -12
  82              		.cfi_offset 7, -8
  83              		.cfi_offset 14, -4
  84 0002 0F1C     		mov	r7, r1
  85 0004 161C     		mov	r6, r2
  86 0006 1D1C     		mov	r5, r3
  87 0008 041C     		mov	r4, r0
  88 000a C5B0     		sub	sp, sp, #276
  89              		.cfi_def_cfa_offset 296
  22:..\acn-sdk-c\platforms\common\wolf\crypt/crypt.c ****   Hmac hmac;
  23:..\acn-sdk-c\platforms\common\wolf\crypt/crypt.c ****   wc_HmacSetKey(&hmac, SHA256, (const byte*)key, (word32)key_size);
  90              		.loc 1 23 0
  91 000c 331C     		mov	r3, r6
ARM GAS  C:\Users\ddemidov\AppData\Local\Temp\ccPnVEX8.s 			page 3


  92              	.LVL9:
  93 000e 3A1C     		mov	r2, r7
  94              	.LVL10:
  95 0010 6846     		mov	r0, sp
  96              	.LVL11:
  97 0012 0221     		mov	r1, #2
  98              	.LVL12:
  99 0014 FFF7FEFF 		bl	wc_HmacSetKey
 100              	.LVL13:
  24:..\acn-sdk-c\platforms\common\wolf\crypt/crypt.c ****   wc_HmacUpdate(&hmac, (const byte*)buf, (word32)buf_size);
 101              		.loc 1 24 0
 102 0018 291C     		mov	r1, r5
 103 001a 4A9A     		ldr	r2, [sp, #296]
 104 001c 6846     		mov	r0, sp
 105 001e FFF7FEFF 		bl	wc_HmacUpdate
 106              	.LVL14:
  25:..\acn-sdk-c\platforms\common\wolf\crypt/crypt.c ****   wc_HmacFinal(&hmac, (byte*)hmacdig);
 107              		.loc 1 25 0
 108 0022 6846     		mov	r0, sp
 109 0024 211C     		mov	r1, r4
 110 0026 FFF7FEFF 		bl	wc_HmacFinal
 111              	.LVL15:
  26:..\acn-sdk-c\platforms\common\wolf\crypt/crypt.c **** }
 112              		.loc 1 26 0
 113 002a 45B0     		add	sp, sp, #276
 114              		@ sp needed
 115              	.LVL16:
 116              	.LVL17:
 117              	.LVL18:
 118              	.LVL19:
 119 002c F0BD     		pop	{r4, r5, r6, r7, pc}
 120              		.cfi_endproc
 121              	.LFE1:
 122              		.size	hmac256, .-hmac256
 123              		.text
 124              	.Letext0:
 125              		.file 2 "..\\acn-sdk-c\\src\\wolfSSL/wolfssl/wolfcrypt/types.h"
 126              		.file 3 "..\\acn-sdk-c\\src\\wolfSSL/wolfssl/wolfcrypt/sha256.h"
 127              		.file 4 "..\\acn-sdk-c\\src\\wolfSSL/wolfssl/wolfcrypt/sha.h"
 128              		.file 5 "..\\acn-sdk-c\\src\\wolfSSL/wolfssl/wolfcrypt/hmac.h"