ARM GAS  C:\Users\ddemidov\AppData\Local\Temp\cccTGixi.s 			page 1


   1              		.cpu cortex-m0
   2              		.fpu softvfp
   3              		.eabi_attribute 20, 1
   4              		.eabi_attribute 21, 1
   5              		.eabi_attribute 23, 3
   6              		.eabi_attribute 24, 1
   7              		.eabi_attribute 25, 1
   8              		.eabi_attribute 26, 1
   9              		.eabi_attribute 30, 4
  10              		.eabi_attribute 34, 0
  11              		.eabi_attribute 18, 4
  12              		.code	16
  13              		.file	"cyfitter_cfg.c"
  14              		.text
  15              	.Ltext0:
  16              		.cfi_sections	.debug_frame
  17              		.section	.psocinit,"ax",%progbits
  18              		.align	1
  19              		.global	cyfitter_cfg
  20              		.code	16
  21              		.thumb_func
  22              		.type	cyfitter_cfg, %function
  23              	cyfitter_cfg:
  24              	.LFB8:
  25              		.file 1 ".\\Generated_Source\\PSoC4\\cyfitter_cfg.c"
   1:.\Generated_Source\PSoC4/cyfitter_cfg.c **** /*******************************************************************************
   2:.\Generated_Source\PSoC4/cyfitter_cfg.c **** * File Name: cyfitter_cfg.c
   3:.\Generated_Source\PSoC4/cyfitter_cfg.c **** * 
   4:.\Generated_Source\PSoC4/cyfitter_cfg.c **** * PSoC Creator  3.3 SP1
   5:.\Generated_Source\PSoC4/cyfitter_cfg.c **** *
   6:.\Generated_Source\PSoC4/cyfitter_cfg.c **** * Description:
   7:.\Generated_Source\PSoC4/cyfitter_cfg.c **** * This file contains device initialization code.
   8:.\Generated_Source\PSoC4/cyfitter_cfg.c **** * Except for the user defined sections in CyClockStartupError(), this file should not be modified.
   9:.\Generated_Source\PSoC4/cyfitter_cfg.c **** * This file is automatically generated by PSoC Creator.
  10:.\Generated_Source\PSoC4/cyfitter_cfg.c **** *
  11:.\Generated_Source\PSoC4/cyfitter_cfg.c **** ********************************************************************************
  12:.\Generated_Source\PSoC4/cyfitter_cfg.c **** * Copyright (c) 2007-2015 Cypress Semiconductor.  All rights reserved.
  13:.\Generated_Source\PSoC4/cyfitter_cfg.c **** * You may use this file only in accordance with the license, terms, conditions, 
  14:.\Generated_Source\PSoC4/cyfitter_cfg.c **** * disclaimers, and limitations in the end user license agreement accompanying 
  15:.\Generated_Source\PSoC4/cyfitter_cfg.c **** * the software package with which this file was provided.
  16:.\Generated_Source\PSoC4/cyfitter_cfg.c **** ********************************************************************************/
  17:.\Generated_Source\PSoC4/cyfitter_cfg.c **** 
  18:.\Generated_Source\PSoC4/cyfitter_cfg.c **** #include <string.h>
  19:.\Generated_Source\PSoC4/cyfitter_cfg.c **** #include "cytypes.h"
  20:.\Generated_Source\PSoC4/cyfitter_cfg.c **** #include "cydevice_trm.h"
  21:.\Generated_Source\PSoC4/cyfitter_cfg.c **** #include "cyfitter.h"
  22:.\Generated_Source\PSoC4/cyfitter_cfg.c **** #include "CyLib.h"
  23:.\Generated_Source\PSoC4/cyfitter_cfg.c **** #include "CyLFClk.h"
  24:.\Generated_Source\PSoC4/cyfitter_cfg.c **** #include "cyfitter_cfg.h"
  25:.\Generated_Source\PSoC4/cyfitter_cfg.c **** 
  26:.\Generated_Source\PSoC4/cyfitter_cfg.c **** 
  27:.\Generated_Source\PSoC4/cyfitter_cfg.c **** #if defined(__GNUC__) || defined(__ARMCC_VERSION)
  28:.\Generated_Source\PSoC4/cyfitter_cfg.c ****     #define CYPACKED 
  29:.\Generated_Source\PSoC4/cyfitter_cfg.c ****     #define CYPACKED_ATTR __attribute__ ((packed))
  30:.\Generated_Source\PSoC4/cyfitter_cfg.c ****     #define CYALIGNED __attribute__ ((aligned))
  31:.\Generated_Source\PSoC4/cyfitter_cfg.c ****     #define CY_CFG_UNUSED __attribute__ ((unused))
  32:.\Generated_Source\PSoC4/cyfitter_cfg.c ****     #ifndef CY_CFG_SECTION
ARM GAS  C:\Users\ddemidov\AppData\Local\Temp\cccTGixi.s 			page 2


  33:.\Generated_Source\PSoC4/cyfitter_cfg.c ****         #define CY_CFG_SECTION __attribute__ ((section(".psocinit")))
  34:.\Generated_Source\PSoC4/cyfitter_cfg.c ****     #endif
  35:.\Generated_Source\PSoC4/cyfitter_cfg.c ****     
  36:.\Generated_Source\PSoC4/cyfitter_cfg.c ****     #if defined(__ARMCC_VERSION)
  37:.\Generated_Source\PSoC4/cyfitter_cfg.c ****         #define CY_CFG_MEMORY_BARRIER() __memory_changed()
  38:.\Generated_Source\PSoC4/cyfitter_cfg.c ****     #else
  39:.\Generated_Source\PSoC4/cyfitter_cfg.c ****         #define CY_CFG_MEMORY_BARRIER() __sync_synchronize()
  40:.\Generated_Source\PSoC4/cyfitter_cfg.c ****     #endif
  41:.\Generated_Source\PSoC4/cyfitter_cfg.c ****     
  42:.\Generated_Source\PSoC4/cyfitter_cfg.c **** #elif defined(__ICCARM__)
  43:.\Generated_Source\PSoC4/cyfitter_cfg.c ****     #include <intrinsics.h>
  44:.\Generated_Source\PSoC4/cyfitter_cfg.c **** 
  45:.\Generated_Source\PSoC4/cyfitter_cfg.c ****     #define CYPACKED __packed
  46:.\Generated_Source\PSoC4/cyfitter_cfg.c ****     #define CYPACKED_ATTR 
  47:.\Generated_Source\PSoC4/cyfitter_cfg.c ****     #define CYALIGNED _Pragma("data_alignment=4")
  48:.\Generated_Source\PSoC4/cyfitter_cfg.c ****     #define CY_CFG_UNUSED _Pragma("diag_suppress=Pe177")
  49:.\Generated_Source\PSoC4/cyfitter_cfg.c ****     #define CY_CFG_SECTION _Pragma("location=\".psocinit\"")
  50:.\Generated_Source\PSoC4/cyfitter_cfg.c ****     
  51:.\Generated_Source\PSoC4/cyfitter_cfg.c ****     #define CY_CFG_MEMORY_BARRIER() __DMB()
  52:.\Generated_Source\PSoC4/cyfitter_cfg.c ****     
  53:.\Generated_Source\PSoC4/cyfitter_cfg.c **** #else
  54:.\Generated_Source\PSoC4/cyfitter_cfg.c ****     #error Unsupported toolchain
  55:.\Generated_Source\PSoC4/cyfitter_cfg.c **** #endif
  56:.\Generated_Source\PSoC4/cyfitter_cfg.c **** 
  57:.\Generated_Source\PSoC4/cyfitter_cfg.c **** 
  58:.\Generated_Source\PSoC4/cyfitter_cfg.c **** CY_CFG_UNUSED
  59:.\Generated_Source\PSoC4/cyfitter_cfg.c **** static void CYMEMZERO(void *s, size_t n);
  60:.\Generated_Source\PSoC4/cyfitter_cfg.c **** CY_CFG_UNUSED
  61:.\Generated_Source\PSoC4/cyfitter_cfg.c **** static void CYMEMZERO(void *s, size_t n)
  62:.\Generated_Source\PSoC4/cyfitter_cfg.c **** {
  63:.\Generated_Source\PSoC4/cyfitter_cfg.c **** 	(void)memset(s, 0, n);
  64:.\Generated_Source\PSoC4/cyfitter_cfg.c **** }
  65:.\Generated_Source\PSoC4/cyfitter_cfg.c **** CY_CFG_UNUSED
  66:.\Generated_Source\PSoC4/cyfitter_cfg.c **** static void CYCONFIGCPY(void *dest, const void *src, size_t n);
  67:.\Generated_Source\PSoC4/cyfitter_cfg.c **** CY_CFG_UNUSED
  68:.\Generated_Source\PSoC4/cyfitter_cfg.c **** static void CYCONFIGCPY(void *dest, const void *src, size_t n)
  69:.\Generated_Source\PSoC4/cyfitter_cfg.c **** {
  70:.\Generated_Source\PSoC4/cyfitter_cfg.c **** 	(void)memcpy(dest, src, n);
  71:.\Generated_Source\PSoC4/cyfitter_cfg.c **** }
  72:.\Generated_Source\PSoC4/cyfitter_cfg.c **** CY_CFG_UNUSED
  73:.\Generated_Source\PSoC4/cyfitter_cfg.c **** static void CYCONFIGCPYCODE(void *dest, const void *src, size_t n);
  74:.\Generated_Source\PSoC4/cyfitter_cfg.c **** CY_CFG_UNUSED
  75:.\Generated_Source\PSoC4/cyfitter_cfg.c **** static void CYCONFIGCPYCODE(void *dest, const void *src, size_t n)
  76:.\Generated_Source\PSoC4/cyfitter_cfg.c **** {
  77:.\Generated_Source\PSoC4/cyfitter_cfg.c **** 	(void)memcpy(dest, src, n);
  78:.\Generated_Source\PSoC4/cyfitter_cfg.c **** }
  79:.\Generated_Source\PSoC4/cyfitter_cfg.c **** 
  80:.\Generated_Source\PSoC4/cyfitter_cfg.c **** 
  81:.\Generated_Source\PSoC4/cyfitter_cfg.c **** 
  82:.\Generated_Source\PSoC4/cyfitter_cfg.c **** /* Clock startup error codes                                                   */
  83:.\Generated_Source\PSoC4/cyfitter_cfg.c **** #define CYCLOCKSTART_NO_ERROR    0u
  84:.\Generated_Source\PSoC4/cyfitter_cfg.c **** #define CYCLOCKSTART_XTAL_ERROR  1u
  85:.\Generated_Source\PSoC4/cyfitter_cfg.c **** #define CYCLOCKSTART_32KHZ_ERROR 2u
  86:.\Generated_Source\PSoC4/cyfitter_cfg.c **** #define CYCLOCKSTART_PLL_ERROR   3u
  87:.\Generated_Source\PSoC4/cyfitter_cfg.c **** 
  88:.\Generated_Source\PSoC4/cyfitter_cfg.c **** #ifdef CY_NEED_CYCLOCKSTARTUPERROR
  89:.\Generated_Source\PSoC4/cyfitter_cfg.c **** /*******************************************************************************
ARM GAS  C:\Users\ddemidov\AppData\Local\Temp\cccTGixi.s 			page 3


  90:.\Generated_Source\PSoC4/cyfitter_cfg.c **** * Function Name: CyClockStartupError
  91:.\Generated_Source\PSoC4/cyfitter_cfg.c **** ********************************************************************************
  92:.\Generated_Source\PSoC4/cyfitter_cfg.c **** * Summary:
  93:.\Generated_Source\PSoC4/cyfitter_cfg.c **** *  If an error is encountered during clock configuration (crystal startup error,
  94:.\Generated_Source\PSoC4/cyfitter_cfg.c **** *  PLL lock error, etc.), the system will end up here.  Unless reimplemented by
  95:.\Generated_Source\PSoC4/cyfitter_cfg.c **** *  the customer, this function will stop in an infinite loop.
  96:.\Generated_Source\PSoC4/cyfitter_cfg.c **** *
  97:.\Generated_Source\PSoC4/cyfitter_cfg.c **** * Parameters:
  98:.\Generated_Source\PSoC4/cyfitter_cfg.c **** *   void
  99:.\Generated_Source\PSoC4/cyfitter_cfg.c **** *
 100:.\Generated_Source\PSoC4/cyfitter_cfg.c **** * Return:
 101:.\Generated_Source\PSoC4/cyfitter_cfg.c **** *   void
 102:.\Generated_Source\PSoC4/cyfitter_cfg.c **** *
 103:.\Generated_Source\PSoC4/cyfitter_cfg.c **** *******************************************************************************/
 104:.\Generated_Source\PSoC4/cyfitter_cfg.c **** CY_CFG_UNUSED
 105:.\Generated_Source\PSoC4/cyfitter_cfg.c **** static void CyClockStartupError(uint8 errorCode);
 106:.\Generated_Source\PSoC4/cyfitter_cfg.c **** CY_CFG_UNUSED
 107:.\Generated_Source\PSoC4/cyfitter_cfg.c **** static void CyClockStartupError(uint8 errorCode)
 108:.\Generated_Source\PSoC4/cyfitter_cfg.c **** {
 109:.\Generated_Source\PSoC4/cyfitter_cfg.c ****     /* To remove the compiler warning if errorCode not used.                */
 110:.\Generated_Source\PSoC4/cyfitter_cfg.c ****     errorCode = errorCode;
 111:.\Generated_Source\PSoC4/cyfitter_cfg.c **** 
 112:.\Generated_Source\PSoC4/cyfitter_cfg.c ****     /* `#START CyClockStartupError` */
 113:.\Generated_Source\PSoC4/cyfitter_cfg.c **** 
 114:.\Generated_Source\PSoC4/cyfitter_cfg.c ****     /* If we have a clock startup error (bad MHz crystal, PLL lock, etc.),  */
 115:.\Generated_Source\PSoC4/cyfitter_cfg.c ****     /* we will end up here to allow the customer to implement something to  */
 116:.\Generated_Source\PSoC4/cyfitter_cfg.c ****     /* deal with the clock condition.                                       */
 117:.\Generated_Source\PSoC4/cyfitter_cfg.c **** 
 118:.\Generated_Source\PSoC4/cyfitter_cfg.c ****     /* `#END` */
 119:.\Generated_Source\PSoC4/cyfitter_cfg.c **** 
 120:.\Generated_Source\PSoC4/cyfitter_cfg.c ****     /* If nothing else, stop here since the clocks have not started         */
 121:.\Generated_Source\PSoC4/cyfitter_cfg.c ****     /* correctly.                                                           */
 122:.\Generated_Source\PSoC4/cyfitter_cfg.c ****     while(1) {}
 123:.\Generated_Source\PSoC4/cyfitter_cfg.c **** }
 124:.\Generated_Source\PSoC4/cyfitter_cfg.c **** #endif
 125:.\Generated_Source\PSoC4/cyfitter_cfg.c **** 
 126:.\Generated_Source\PSoC4/cyfitter_cfg.c **** #define CY_CFG_BASE_ADDR_COUNT 7u
 127:.\Generated_Source\PSoC4/cyfitter_cfg.c **** CYPACKED typedef struct
 128:.\Generated_Source\PSoC4/cyfitter_cfg.c **** {
 129:.\Generated_Source\PSoC4/cyfitter_cfg.c **** 	uint8 offset;
 130:.\Generated_Source\PSoC4/cyfitter_cfg.c **** 	uint8 value;
 131:.\Generated_Source\PSoC4/cyfitter_cfg.c **** } CYPACKED_ATTR cy_cfg_addrvalue_t;
 132:.\Generated_Source\PSoC4/cyfitter_cfg.c **** 
 133:.\Generated_Source\PSoC4/cyfitter_cfg.c **** 
 134:.\Generated_Source\PSoC4/cyfitter_cfg.c **** 
 135:.\Generated_Source\PSoC4/cyfitter_cfg.c **** /*******************************************************************************
 136:.\Generated_Source\PSoC4/cyfitter_cfg.c **** * Function Name: cfg_write_bytes32
 137:.\Generated_Source\PSoC4/cyfitter_cfg.c **** ********************************************************************************
 138:.\Generated_Source\PSoC4/cyfitter_cfg.c **** * Summary:
 139:.\Generated_Source\PSoC4/cyfitter_cfg.c **** *  This function is used for setting up the chip configuration areas that
 140:.\Generated_Source\PSoC4/cyfitter_cfg.c **** *  contain relatively sparse data.
 141:.\Generated_Source\PSoC4/cyfitter_cfg.c **** *
 142:.\Generated_Source\PSoC4/cyfitter_cfg.c **** * Parameters:
 143:.\Generated_Source\PSoC4/cyfitter_cfg.c **** *   void
 144:.\Generated_Source\PSoC4/cyfitter_cfg.c **** *
 145:.\Generated_Source\PSoC4/cyfitter_cfg.c **** * Return:
 146:.\Generated_Source\PSoC4/cyfitter_cfg.c **** *   void
ARM GAS  C:\Users\ddemidov\AppData\Local\Temp\cccTGixi.s 			page 4


 147:.\Generated_Source\PSoC4/cyfitter_cfg.c **** *
 148:.\Generated_Source\PSoC4/cyfitter_cfg.c **** *******************************************************************************/
 149:.\Generated_Source\PSoC4/cyfitter_cfg.c **** static void cfg_write_bytes32(const uint32 addr_table[], const cy_cfg_addrvalue_t data_table[]);
 150:.\Generated_Source\PSoC4/cyfitter_cfg.c **** static void cfg_write_bytes32(const uint32 addr_table[], const cy_cfg_addrvalue_t data_table[])
 151:.\Generated_Source\PSoC4/cyfitter_cfg.c **** {
 152:.\Generated_Source\PSoC4/cyfitter_cfg.c **** 	/* For 32-bit little-endian architectures */
 153:.\Generated_Source\PSoC4/cyfitter_cfg.c **** 	uint32 i, j = 0u;
 154:.\Generated_Source\PSoC4/cyfitter_cfg.c **** 	for (i = 0u; i < CY_CFG_BASE_ADDR_COUNT; i++)
 155:.\Generated_Source\PSoC4/cyfitter_cfg.c **** 	{
 156:.\Generated_Source\PSoC4/cyfitter_cfg.c **** 		uint32 baseAddr = addr_table[i];
 157:.\Generated_Source\PSoC4/cyfitter_cfg.c **** 		uint8 count = (uint8)baseAddr;
 158:.\Generated_Source\PSoC4/cyfitter_cfg.c **** 		baseAddr &= 0xFFFFFF00u;
 159:.\Generated_Source\PSoC4/cyfitter_cfg.c **** 		while (count != 0u)
 160:.\Generated_Source\PSoC4/cyfitter_cfg.c **** 		{
 161:.\Generated_Source\PSoC4/cyfitter_cfg.c **** 			CY_SET_XTND_REG8((void CYFAR *)(baseAddr + data_table[j].offset), data_table[j].value);
 162:.\Generated_Source\PSoC4/cyfitter_cfg.c **** 			j++;
 163:.\Generated_Source\PSoC4/cyfitter_cfg.c **** 			count--;
 164:.\Generated_Source\PSoC4/cyfitter_cfg.c **** 		}
 165:.\Generated_Source\PSoC4/cyfitter_cfg.c **** 	}
 166:.\Generated_Source\PSoC4/cyfitter_cfg.c **** }
 167:.\Generated_Source\PSoC4/cyfitter_cfg.c **** 
 168:.\Generated_Source\PSoC4/cyfitter_cfg.c **** 
 169:.\Generated_Source\PSoC4/cyfitter_cfg.c **** /*******************************************************************************
 170:.\Generated_Source\PSoC4/cyfitter_cfg.c **** * Function Name: ClockSetup
 171:.\Generated_Source\PSoC4/cyfitter_cfg.c **** ********************************************************************************
 172:.\Generated_Source\PSoC4/cyfitter_cfg.c **** *
 173:.\Generated_Source\PSoC4/cyfitter_cfg.c **** * Summary:
 174:.\Generated_Source\PSoC4/cyfitter_cfg.c **** *   Performs the initialization of all of the clocks in the device based on the
 175:.\Generated_Source\PSoC4/cyfitter_cfg.c **** *   settings in the Clock tab of the DWR.  This includes enabling the requested
 176:.\Generated_Source\PSoC4/cyfitter_cfg.c **** *   clocks and setting the necessary dividers to produce the desired frequency. 
 177:.\Generated_Source\PSoC4/cyfitter_cfg.c **** *
 178:.\Generated_Source\PSoC4/cyfitter_cfg.c **** * Parameters:
 179:.\Generated_Source\PSoC4/cyfitter_cfg.c **** *   void
 180:.\Generated_Source\PSoC4/cyfitter_cfg.c **** *
 181:.\Generated_Source\PSoC4/cyfitter_cfg.c **** * Return:
 182:.\Generated_Source\PSoC4/cyfitter_cfg.c **** *   void
 183:.\Generated_Source\PSoC4/cyfitter_cfg.c **** *
 184:.\Generated_Source\PSoC4/cyfitter_cfg.c **** *******************************************************************************/
 185:.\Generated_Source\PSoC4/cyfitter_cfg.c **** static void ClockSetup(void);
 186:.\Generated_Source\PSoC4/cyfitter_cfg.c **** CY_CFG_SECTION
 187:.\Generated_Source\PSoC4/cyfitter_cfg.c **** static void ClockSetup(void)
 188:.\Generated_Source\PSoC4/cyfitter_cfg.c **** {
 189:.\Generated_Source\PSoC4/cyfitter_cfg.c **** 
 190:.\Generated_Source\PSoC4/cyfitter_cfg.c **** 	/* Set Flash Cycles based on max possible frequency in case a glitch occurs during ClockSetup(). *
 191:.\Generated_Source\PSoC4/cyfitter_cfg.c **** 	CY_SET_REG32((void CYXDATA *)(CYREG_CPUSS_FLASH_CTL), (0x0012u));
 192:.\Generated_Source\PSoC4/cyfitter_cfg.c **** 
 193:.\Generated_Source\PSoC4/cyfitter_cfg.c **** 	/* Start the WCO */
 194:.\Generated_Source\PSoC4/cyfitter_cfg.c **** 	CySysClkWcoStart();
 195:.\Generated_Source\PSoC4/cyfitter_cfg.c **** 	CyDelayCycles(12000000u); /* WCO may take up to 500ms to start */
 196:.\Generated_Source\PSoC4/cyfitter_cfg.c **** 	(void)CySysClkWcoSetPowerMode(CY_SYS_CLK_WCO_LPM);    /* Switch to the low power mode */
 197:.\Generated_Source\PSoC4/cyfitter_cfg.c **** 
 198:.\Generated_Source\PSoC4/cyfitter_cfg.c **** 	/* Setup and trim IMO based on desired frequency. */
 199:.\Generated_Source\PSoC4/cyfitter_cfg.c **** 	CySysClkWriteImoFreq(48u);
 200:.\Generated_Source\PSoC4/cyfitter_cfg.c **** 	/* CYDEV_CLK_ILO_CONFIG Starting address: CYDEV_CLK_ILO_CONFIG */
 201:.\Generated_Source\PSoC4/cyfitter_cfg.c **** 	CY_SET_XTND_REG32((void CYFAR *)(CYREG_CLK_ILO_CONFIG), 0x80000006u);
 202:.\Generated_Source\PSoC4/cyfitter_cfg.c **** 
 203:.\Generated_Source\PSoC4/cyfitter_cfg.c **** 	/* CYDEV_WDT_CONFIG Starting address: CYDEV_WDT_CONFIG */
ARM GAS  C:\Users\ddemidov\AppData\Local\Temp\cccTGixi.s 			page 5


 204:.\Generated_Source\PSoC4/cyfitter_cfg.c **** 	CY_SET_XTND_REG32((void CYFAR *)(CYREG_WDT_CONFIG), 0x40000000u);
 205:.\Generated_Source\PSoC4/cyfitter_cfg.c **** 
 206:.\Generated_Source\PSoC4/cyfitter_cfg.c **** 
 207:.\Generated_Source\PSoC4/cyfitter_cfg.c **** 	/* Enable fast start mode for XO */
 208:.\Generated_Source\PSoC4/cyfitter_cfg.c **** 	CY_SET_REG32((void*)CYREG_BLE_BLERD_BB_XO, CY_GET_REG32((void*)CYREG_BLE_BLERD_BB_XO) | (uint32)0x
 209:.\Generated_Source\PSoC4/cyfitter_cfg.c **** 	CY_SET_XTND_REG32((void CYFAR *)(CYREG_BLE_BLERD_BB_XO_CAPTRIM), 0x00003E2Du);
 210:.\Generated_Source\PSoC4/cyfitter_cfg.c **** 	/* Disable Crystal Stable Interrupt before enabling ECO */
 211:.\Generated_Source\PSoC4/cyfitter_cfg.c **** 	CY_SET_REG32((void*)CYREG_BLE_BLESS_LL_DSM_CTRL, CY_GET_REG32((void*)CYREG_BLE_BLESS_LL_DSM_CTRL) 
 212:.\Generated_Source\PSoC4/cyfitter_cfg.c **** 	/* Start the ECO and do not check status since it is not needed for HFCLK */
 213:.\Generated_Source\PSoC4/cyfitter_cfg.c **** 	(void)CySysClkEcoStart(2000u);
 214:.\Generated_Source\PSoC4/cyfitter_cfg.c **** 	CyDelayUs(1500u); /* Wait to stabalize */
 215:.\Generated_Source\PSoC4/cyfitter_cfg.c **** 
 216:.\Generated_Source\PSoC4/cyfitter_cfg.c **** 	/* Setup phase aligned clocks */
 217:.\Generated_Source\PSoC4/cyfitter_cfg.c **** 	CY_SET_REG32((void *)CYREG_PERI_DIV_16_CTL0, 0x00001D00u);
 218:.\Generated_Source\PSoC4/cyfitter_cfg.c **** 	CY_SET_REG32((void *)CYREG_PERI_DIV_CMD, 0x8000FF40u);
 219:.\Generated_Source\PSoC4/cyfitter_cfg.c **** 
 220:.\Generated_Source\PSoC4/cyfitter_cfg.c **** 	/* CYDEV_CLK_IMO_CONFIG Starting address: CYDEV_CLK_IMO_CONFIG */
 221:.\Generated_Source\PSoC4/cyfitter_cfg.c **** 	CY_SET_XTND_REG32((void CYFAR *)(CYREG_CLK_IMO_CONFIG), 0x80000000u);
 222:.\Generated_Source\PSoC4/cyfitter_cfg.c **** 
 223:.\Generated_Source\PSoC4/cyfitter_cfg.c **** 	/* CYDEV_CLK_SELECT Starting address: CYDEV_CLK_SELECT */
 224:.\Generated_Source\PSoC4/cyfitter_cfg.c **** 	CY_SET_XTND_REG32((void CYFAR *)(CYREG_CLK_SELECT), 0x00040000u);
 225:.\Generated_Source\PSoC4/cyfitter_cfg.c **** 
 226:.\Generated_Source\PSoC4/cyfitter_cfg.c **** 	/* CYDEV_PERI_PCLK_CTL2 Starting address: CYDEV_PERI_PCLK_CTL2 */
 227:.\Generated_Source\PSoC4/cyfitter_cfg.c **** 	CY_SET_XTND_REG32((void CYFAR *)(CYREG_PERI_PCLK_CTL2), 0x00000040u);
 228:.\Generated_Source\PSoC4/cyfitter_cfg.c **** 
 229:.\Generated_Source\PSoC4/cyfitter_cfg.c **** 	(void)CyIntSetVector(8u, &CySysWdtIsr);
 230:.\Generated_Source\PSoC4/cyfitter_cfg.c **** 	CyIntEnable(8u);
 231:.\Generated_Source\PSoC4/cyfitter_cfg.c **** 	CY_SET_XTND_REG32((void CYFAR *)(CYREG_WDT_CONFIG), 0x40000000u);
 232:.\Generated_Source\PSoC4/cyfitter_cfg.c **** }
 233:.\Generated_Source\PSoC4/cyfitter_cfg.c **** 
 234:.\Generated_Source\PSoC4/cyfitter_cfg.c **** 
 235:.\Generated_Source\PSoC4/cyfitter_cfg.c **** /* Analog API Functions */
 236:.\Generated_Source\PSoC4/cyfitter_cfg.c **** 
 237:.\Generated_Source\PSoC4/cyfitter_cfg.c **** 
 238:.\Generated_Source\PSoC4/cyfitter_cfg.c **** /*******************************************************************************
 239:.\Generated_Source\PSoC4/cyfitter_cfg.c **** * Function Name: AnalogSetDefault
 240:.\Generated_Source\PSoC4/cyfitter_cfg.c **** ********************************************************************************
 241:.\Generated_Source\PSoC4/cyfitter_cfg.c **** *
 242:.\Generated_Source\PSoC4/cyfitter_cfg.c **** * Summary:
 243:.\Generated_Source\PSoC4/cyfitter_cfg.c **** *  Sets up the analog portions of the chip to default values based on chip
 244:.\Generated_Source\PSoC4/cyfitter_cfg.c **** *  configuration options from the project.
 245:.\Generated_Source\PSoC4/cyfitter_cfg.c **** *
 246:.\Generated_Source\PSoC4/cyfitter_cfg.c **** * Parameters:
 247:.\Generated_Source\PSoC4/cyfitter_cfg.c **** *  void
 248:.\Generated_Source\PSoC4/cyfitter_cfg.c **** *
 249:.\Generated_Source\PSoC4/cyfitter_cfg.c **** * Return:
 250:.\Generated_Source\PSoC4/cyfitter_cfg.c **** *  void
 251:.\Generated_Source\PSoC4/cyfitter_cfg.c **** *
 252:.\Generated_Source\PSoC4/cyfitter_cfg.c **** *******************************************************************************/
 253:.\Generated_Source\PSoC4/cyfitter_cfg.c **** static void AnalogSetDefault(void);
 254:.\Generated_Source\PSoC4/cyfitter_cfg.c **** static void AnalogSetDefault(void)
 255:.\Generated_Source\PSoC4/cyfitter_cfg.c **** {
 256:.\Generated_Source\PSoC4/cyfitter_cfg.c **** 	CY_SET_XTND_REG32((void CYFAR *)CYREG_CTBM0_DFT_CTRL, 0x00000003u);
 257:.\Generated_Source\PSoC4/cyfitter_cfg.c **** 	CY_SET_XTND_REG32((void CYFAR *)CYREG_CTBM1_DFT_CTRL, 0x00000003u);
 258:.\Generated_Source\PSoC4/cyfitter_cfg.c **** 	CY_SET_XTND_REG32((void CYFAR *)CYREG_PASS_DSAB_DSAB_CTRL, 0x00000000u);
 259:.\Generated_Source\PSoC4/cyfitter_cfg.c **** }
 260:.\Generated_Source\PSoC4/cyfitter_cfg.c **** 
ARM GAS  C:\Users\ddemidov\AppData\Local\Temp\cccTGixi.s 			page 6


 261:.\Generated_Source\PSoC4/cyfitter_cfg.c **** #define CY_AMUX_UNUSED CYREG_CM0_ROM_DWT
 262:.\Generated_Source\PSoC4/cyfitter_cfg.c **** 
 263:.\Generated_Source\PSoC4/cyfitter_cfg.c **** 
 264:.\Generated_Source\PSoC4/cyfitter_cfg.c **** /*******************************************************************************
 265:.\Generated_Source\PSoC4/cyfitter_cfg.c **** * Function Name: cyfitter_cfg
 266:.\Generated_Source\PSoC4/cyfitter_cfg.c **** ********************************************************************************
 267:.\Generated_Source\PSoC4/cyfitter_cfg.c **** * Summary:
 268:.\Generated_Source\PSoC4/cyfitter_cfg.c **** *  This function is called by the start-up code for the selected device. It
 269:.\Generated_Source\PSoC4/cyfitter_cfg.c **** *  performs all of the necessary device configuration based on the design
 270:.\Generated_Source\PSoC4/cyfitter_cfg.c **** *  settings.  This includes settings from the Design Wide Resources (DWR) such
 271:.\Generated_Source\PSoC4/cyfitter_cfg.c **** *  as Clocks and Pins as well as any component configuration that is necessary.
 272:.\Generated_Source\PSoC4/cyfitter_cfg.c **** *
 273:.\Generated_Source\PSoC4/cyfitter_cfg.c **** * Parameters:  
 274:.\Generated_Source\PSoC4/cyfitter_cfg.c **** *   void
 275:.\Generated_Source\PSoC4/cyfitter_cfg.c **** *
 276:.\Generated_Source\PSoC4/cyfitter_cfg.c **** * Return:
 277:.\Generated_Source\PSoC4/cyfitter_cfg.c **** *   void
 278:.\Generated_Source\PSoC4/cyfitter_cfg.c **** *
 279:.\Generated_Source\PSoC4/cyfitter_cfg.c **** *******************************************************************************/
 280:.\Generated_Source\PSoC4/cyfitter_cfg.c **** CY_CFG_SECTION
 281:.\Generated_Source\PSoC4/cyfitter_cfg.c **** void cyfitter_cfg(void)
 282:.\Generated_Source\PSoC4/cyfitter_cfg.c **** {
  26              		.loc 1 282 0
  27              		.cfi_startproc
  28 0000 F8B5     		push	{r3, r4, r5, r6, r7, lr}
  29              		.cfi_def_cfa_offset 24
  30              		.cfi_offset 3, -24
  31              		.cfi_offset 4, -20
  32              		.cfi_offset 5, -16
  33              		.cfi_offset 6, -12
  34              		.cfi_offset 7, -8
  35              		.cfi_offset 14, -4
 283:.\Generated_Source\PSoC4/cyfitter_cfg.c **** 	/* Disable interrupts by default. Let user enable if/when they want. */
 284:.\Generated_Source\PSoC4/cyfitter_cfg.c **** 	CyGlobalIntDisable;
  36              		.loc 1 284 0
  37              	@ 284 ".\Generated_Source\PSoC4\cyfitter_cfg.c" 1
  38 0002 72B6     		CPSID   i
  39              	@ 0 "" 2
 285:.\Generated_Source\PSoC4/cyfitter_cfg.c **** 
 286:.\Generated_Source\PSoC4/cyfitter_cfg.c **** 	CY_SET_XTND_REG32((void CYFAR *)(CYREG_BLE_BLESS_LL_DSM_CTRL), 0x00000000u);
  40              		.loc 1 286 0
  41              		.code	16
  42 0004 0025     		mov	r5, #0
 287:.\Generated_Source\PSoC4/cyfitter_cfg.c **** 
 288:.\Generated_Source\PSoC4/cyfitter_cfg.c **** 	/* Enable the clock in the interrupt controller for the routed interrupts */
 289:.\Generated_Source\PSoC4/cyfitter_cfg.c **** 	CY_SET_REG8((void *)CYREG_UDB_UDBIF_INT_CLK_CTL, 0x01u);
  43              		.loc 1 289 0
  44 0006 0122     		mov	r2, #1
  45 0008 5E4B     		ldr	r3, .L7
 286:.\Generated_Source\PSoC4/cyfitter_cfg.c **** 
  46              		.loc 1 286 0
  47 000a 5F4C     		ldr	r4, .L7+4
  48              	.LBB14:
  49              	.LBB15:
  50              	.LBB16:
  51              	.LBB17:
  63:.\Generated_Source\PSoC4/cyfitter_cfg.c **** }
ARM GAS  C:\Users\ddemidov\AppData\Local\Temp\cccTGixi.s 			page 7


  52              		.loc 1 63 0
  53 000c 291C     		mov	r1, r5
  54              	.LBE17:
  55              	.LBE16:
  56              	.LBE15:
  57              	.LBE14:
 286:.\Generated_Source\PSoC4/cyfitter_cfg.c **** 
  58              		.loc 1 286 0
  59 000e 2560     		str	r5, [r4]
  60              		.loc 1 289 0
  61 0010 1A70     		strb	r2, [r3]
  62              	.LVL0:
  63              	.LBB24:
  64              	.LBB20:
  65              	.LBB19:
  66              	.LBB18:
  63:.\Generated_Source\PSoC4/cyfitter_cfg.c **** }
  67              		.loc 1 63 0
  68 0012 8022     		mov	r2, #128
  69 0014 5D48     		ldr	r0, .L7+8
  70 0016 D200     		lsl	r2, r2, #3
  71 0018 FFF7FEFF 		bl	memset
  72              	.LVL1:
  73 001c 8022     		mov	r2, #128
  74 001e 291C     		mov	r1, r5
  75 0020 5B48     		ldr	r0, .L7+12
  76 0022 D200     		lsl	r2, r2, #3
  77 0024 FFF7FEFF 		bl	memset
  78              	.LVL2:
  79 0028 291C     		mov	r1, r5
  80              	.LVL3:
  81              	.L4:
  82              	.LBE18:
  83              	.LBE19:
  84              	.LBE20:
  85              	.LBB21:
  86              	.LBB22:
  87              	.LBB23:
 156:.\Generated_Source\PSoC4/cyfitter_cfg.c **** 		uint8 count = (uint8)baseAddr;
  88              		.loc 1 156 0
  89 002a 5A4F     		ldr	r7, .L7+16
 158:.\Generated_Source\PSoC4/cyfitter_cfg.c **** 		while (count != 0u)
  90              		.loc 1 158 0
  91 002c FF20     		mov	r0, #255
 156:.\Generated_Source\PSoC4/cyfitter_cfg.c **** 		uint8 count = (uint8)baseAddr;
  92              		.loc 1 156 0
  93 002e CA59     		ldr	r2, [r1, r7]
  94              	.LVL4:
  95 0030 6B00     		lsl	r3, r5, #1
 158:.\Generated_Source\PSoC4/cyfitter_cfg.c **** 		while (count != 0u)
  96              		.loc 1 158 0
  97 0032 161C     		mov	r6, r2
  98 0034 8643     		bic	r6, r0
  99              	.LVL5:
 100 0036 1040     		and	r0, r2
 101 0038 2D18     		add	r5, r5, r0
 102              	.LVL6:
ARM GAS  C:\Users\ddemidov\AppData\Local\Temp\cccTGixi.s 			page 8


 103 003a 6A00     		lsl	r2, r5, #1
 104              	.LVL7:
 105 003c 1C37     		add	r7, r7, #28
 106              	.LVL8:
 107 003e 0133     		add	r3, r3, #1
 108 0040 0132     		add	r2, r2, #1
 109 0042 FB18     		add	r3, r7, r3
 110 0044 BA18     		add	r2, r7, r2
 111              	.LVL9:
 112              	.L2:
 159:.\Generated_Source\PSoC4/cyfitter_cfg.c **** 		{
 113              		.loc 1 159 0
 114 0046 9342     		cmp	r3, r2
 115 0048 06D0     		beq	.L6
 116 004a 581E     		sub	r0, r3, #1
 161:.\Generated_Source\PSoC4/cyfitter_cfg.c **** 			j++;
 117              		.loc 1 161 0
 118 004c 0078     		ldrb	r0, [r0]
 119 004e 1F78     		ldrb	r7, [r3]
 120 0050 8019     		add	r0, r0, r6
 121 0052 0770     		strb	r7, [r0]
 122 0054 0233     		add	r3, r3, #2
 123 0056 F6E7     		b	.L2
 124              	.L6:
 125              	.LVL10:
 126 0058 0431     		add	r1, r1, #4
 127              	.LBE23:
 154:.\Generated_Source\PSoC4/cyfitter_cfg.c **** 	{
 128              		.loc 1 154 0
 129 005a 1C29     		cmp	r1, #28
 130 005c E5D1     		bne	.L4
 131              	.LBE22:
 132              	.LBE21:
 290:.\Generated_Source\PSoC4/cyfitter_cfg.c **** 	{
 291:.\Generated_Source\PSoC4/cyfitter_cfg.c **** 		static const uint32 CYCODE cy_cfg_addr_table[] = {
 292:.\Generated_Source\PSoC4/cyfitter_cfg.c **** 			0x400F0001u, /* Base address: 0x400F0000 Count: 1 */
 293:.\Generated_Source\PSoC4/cyfitter_cfg.c **** 			0x400F3028u, /* Base address: 0x400F3000 Count: 40 */
 294:.\Generated_Source\PSoC4/cyfitter_cfg.c **** 			0x400F3107u, /* Base address: 0x400F3100 Count: 7 */
 295:.\Generated_Source\PSoC4/cyfitter_cfg.c **** 			0x400F3233u, /* Base address: 0x400F3200 Count: 51 */
 296:.\Generated_Source\PSoC4/cyfitter_cfg.c **** 			0x400F3316u, /* Base address: 0x400F3300 Count: 22 */
 297:.\Generated_Source\PSoC4/cyfitter_cfg.c **** 			0x400F4104u, /* Base address: 0x400F4100 Count: 4 */
 298:.\Generated_Source\PSoC4/cyfitter_cfg.c **** 			0x400F6002u, /* Base address: 0x400F6000 Count: 2 */
 299:.\Generated_Source\PSoC4/cyfitter_cfg.c **** 		};
 300:.\Generated_Source\PSoC4/cyfitter_cfg.c **** 
 301:.\Generated_Source\PSoC4/cyfitter_cfg.c **** 		static const cy_cfg_addrvalue_t CYCODE cy_cfg_data_table[] = {
 302:.\Generated_Source\PSoC4/cyfitter_cfg.c **** 			{0x83u, 0x0Du},
 303:.\Generated_Source\PSoC4/cyfitter_cfg.c **** 			{0x40u, 0x54u},
 304:.\Generated_Source\PSoC4/cyfitter_cfg.c **** 			{0x49u, 0xFFu},
 305:.\Generated_Source\PSoC4/cyfitter_cfg.c **** 			{0x4Au, 0xFFu},
 306:.\Generated_Source\PSoC4/cyfitter_cfg.c **** 			{0x4Bu, 0xFFu},
 307:.\Generated_Source\PSoC4/cyfitter_cfg.c **** 			{0x4Fu, 0x01u},
 308:.\Generated_Source\PSoC4/cyfitter_cfg.c **** 			{0x50u, 0x18u},
 309:.\Generated_Source\PSoC4/cyfitter_cfg.c **** 			{0x52u, 0x80u},
 310:.\Generated_Source\PSoC4/cyfitter_cfg.c **** 			{0x5Au, 0x04u},
 311:.\Generated_Source\PSoC4/cyfitter_cfg.c **** 			{0x5Bu, 0x04u},
 312:.\Generated_Source\PSoC4/cyfitter_cfg.c **** 			{0x5Du, 0x99u},
 313:.\Generated_Source\PSoC4/cyfitter_cfg.c **** 			{0x5Fu, 0x01u},
ARM GAS  C:\Users\ddemidov\AppData\Local\Temp\cccTGixi.s 			page 9


 314:.\Generated_Source\PSoC4/cyfitter_cfg.c **** 			{0x60u, 0x40u},
 315:.\Generated_Source\PSoC4/cyfitter_cfg.c **** 			{0x62u, 0x40u},
 316:.\Generated_Source\PSoC4/cyfitter_cfg.c **** 			{0x64u, 0x40u},
 317:.\Generated_Source\PSoC4/cyfitter_cfg.c **** 			{0x65u, 0x40u},
 318:.\Generated_Source\PSoC4/cyfitter_cfg.c **** 			{0x66u, 0x80u},
 319:.\Generated_Source\PSoC4/cyfitter_cfg.c **** 			{0x68u, 0x80u},
 320:.\Generated_Source\PSoC4/cyfitter_cfg.c **** 			{0x6Au, 0x80u},
 321:.\Generated_Source\PSoC4/cyfitter_cfg.c **** 			{0x6Cu, 0x80u},
 322:.\Generated_Source\PSoC4/cyfitter_cfg.c **** 			{0x6Eu, 0x80u},
 323:.\Generated_Source\PSoC4/cyfitter_cfg.c **** 			{0xC0u, 0x51u},
 324:.\Generated_Source\PSoC4/cyfitter_cfg.c **** 			{0xC9u, 0xFFu},
 325:.\Generated_Source\PSoC4/cyfitter_cfg.c **** 			{0xCAu, 0xFFu},
 326:.\Generated_Source\PSoC4/cyfitter_cfg.c **** 			{0xCBu, 0xFFu},
 327:.\Generated_Source\PSoC4/cyfitter_cfg.c **** 			{0xCDu, 0x83u},
 328:.\Generated_Source\PSoC4/cyfitter_cfg.c **** 			{0xCEu, 0x03u},
 329:.\Generated_Source\PSoC4/cyfitter_cfg.c **** 			{0xCFu, 0x01u},
 330:.\Generated_Source\PSoC4/cyfitter_cfg.c **** 			{0xD0u, 0x18u},
 331:.\Generated_Source\PSoC4/cyfitter_cfg.c **** 			{0xDAu, 0x04u},
 332:.\Generated_Source\PSoC4/cyfitter_cfg.c **** 			{0xDDu, 0x09u},
 333:.\Generated_Source\PSoC4/cyfitter_cfg.c **** 			{0xDFu, 0x01u},
 334:.\Generated_Source\PSoC4/cyfitter_cfg.c **** 			{0xE0u, 0x40u},
 335:.\Generated_Source\PSoC4/cyfitter_cfg.c **** 			{0xE2u, 0x40u},
 336:.\Generated_Source\PSoC4/cyfitter_cfg.c **** 			{0xE4u, 0x40u},
 337:.\Generated_Source\PSoC4/cyfitter_cfg.c **** 			{0xE5u, 0x40u},
 338:.\Generated_Source\PSoC4/cyfitter_cfg.c **** 			{0xE6u, 0x80u},
 339:.\Generated_Source\PSoC4/cyfitter_cfg.c **** 			{0xE8u, 0x80u},
 340:.\Generated_Source\PSoC4/cyfitter_cfg.c **** 			{0xEAu, 0x80u},
 341:.\Generated_Source\PSoC4/cyfitter_cfg.c **** 			{0xECu, 0x80u},
 342:.\Generated_Source\PSoC4/cyfitter_cfg.c **** 			{0xEEu, 0x80u},
 343:.\Generated_Source\PSoC4/cyfitter_cfg.c **** 			{0x41u, 0x01u},
 344:.\Generated_Source\PSoC4/cyfitter_cfg.c **** 			{0x46u, 0x01u},
 345:.\Generated_Source\PSoC4/cyfitter_cfg.c **** 			{0x48u, 0x02u},
 346:.\Generated_Source\PSoC4/cyfitter_cfg.c **** 			{0x4Cu, 0x02u},
 347:.\Generated_Source\PSoC4/cyfitter_cfg.c **** 			{0x70u, 0x02u},
 348:.\Generated_Source\PSoC4/cyfitter_cfg.c **** 			{0xD0u, 0x11u},
 349:.\Generated_Source\PSoC4/cyfitter_cfg.c **** 			{0xD2u, 0x18u},
 350:.\Generated_Source\PSoC4/cyfitter_cfg.c **** 			{0x40u, 0x51u},
 351:.\Generated_Source\PSoC4/cyfitter_cfg.c **** 			{0x49u, 0xFFu},
 352:.\Generated_Source\PSoC4/cyfitter_cfg.c **** 			{0x4Au, 0xFFu},
 353:.\Generated_Source\PSoC4/cyfitter_cfg.c **** 			{0x4Bu, 0xFFu},
 354:.\Generated_Source\PSoC4/cyfitter_cfg.c **** 			{0x4Du, 0x83u},
 355:.\Generated_Source\PSoC4/cyfitter_cfg.c **** 			{0x4Eu, 0x03u},
 356:.\Generated_Source\PSoC4/cyfitter_cfg.c **** 			{0x4Fu, 0x01u},
 357:.\Generated_Source\PSoC4/cyfitter_cfg.c **** 			{0x50u, 0x18u},
 358:.\Generated_Source\PSoC4/cyfitter_cfg.c **** 			{0x5Au, 0x04u},
 359:.\Generated_Source\PSoC4/cyfitter_cfg.c **** 			{0x5Du, 0x09u},
 360:.\Generated_Source\PSoC4/cyfitter_cfg.c **** 			{0x5Fu, 0x01u},
 361:.\Generated_Source\PSoC4/cyfitter_cfg.c **** 			{0x60u, 0x40u},
 362:.\Generated_Source\PSoC4/cyfitter_cfg.c **** 			{0x62u, 0x40u},
 363:.\Generated_Source\PSoC4/cyfitter_cfg.c **** 			{0x64u, 0x40u},
 364:.\Generated_Source\PSoC4/cyfitter_cfg.c **** 			{0x65u, 0x40u},
 365:.\Generated_Source\PSoC4/cyfitter_cfg.c **** 			{0x66u, 0x80u},
 366:.\Generated_Source\PSoC4/cyfitter_cfg.c **** 			{0x68u, 0x80u},
 367:.\Generated_Source\PSoC4/cyfitter_cfg.c **** 			{0x6Au, 0x80u},
 368:.\Generated_Source\PSoC4/cyfitter_cfg.c **** 			{0x6Cu, 0x80u},
 369:.\Generated_Source\PSoC4/cyfitter_cfg.c **** 			{0x6Eu, 0x80u},
 370:.\Generated_Source\PSoC4/cyfitter_cfg.c **** 			{0x8Eu, 0x01u},
ARM GAS  C:\Users\ddemidov\AppData\Local\Temp\cccTGixi.s 			page 10


 371:.\Generated_Source\PSoC4/cyfitter_cfg.c **** 			{0xAEu, 0x01u},
 372:.\Generated_Source\PSoC4/cyfitter_cfg.c **** 			{0xB6u, 0x01u},
 373:.\Generated_Source\PSoC4/cyfitter_cfg.c **** 			{0xBEu, 0x40u},
 374:.\Generated_Source\PSoC4/cyfitter_cfg.c **** 			{0xC0u, 0x54u},
 375:.\Generated_Source\PSoC4/cyfitter_cfg.c **** 			{0xC5u, 0xECu},
 376:.\Generated_Source\PSoC4/cyfitter_cfg.c **** 			{0xC7u, 0x20u},
 377:.\Generated_Source\PSoC4/cyfitter_cfg.c **** 			{0xC8u, 0x23u},
 378:.\Generated_Source\PSoC4/cyfitter_cfg.c **** 			{0xC9u, 0xFFu},
 379:.\Generated_Source\PSoC4/cyfitter_cfg.c **** 			{0xCAu, 0xFFu},
 380:.\Generated_Source\PSoC4/cyfitter_cfg.c **** 			{0xCBu, 0xFFu},
 381:.\Generated_Source\PSoC4/cyfitter_cfg.c **** 			{0xCDu, 0x83u},
 382:.\Generated_Source\PSoC4/cyfitter_cfg.c **** 			{0xCEu, 0x03u},
 383:.\Generated_Source\PSoC4/cyfitter_cfg.c **** 			{0xCFu, 0x01u},
 384:.\Generated_Source\PSoC4/cyfitter_cfg.c **** 			{0xD0u, 0x18u},
 385:.\Generated_Source\PSoC4/cyfitter_cfg.c **** 			{0xD4u, 0x01u},
 386:.\Generated_Source\PSoC4/cyfitter_cfg.c **** 			{0xD6u, 0x04u},
 387:.\Generated_Source\PSoC4/cyfitter_cfg.c **** 			{0xD8u, 0x04u},
 388:.\Generated_Source\PSoC4/cyfitter_cfg.c **** 			{0xDAu, 0x04u},
 389:.\Generated_Source\PSoC4/cyfitter_cfg.c **** 			{0xDBu, 0x04u},
 390:.\Generated_Source\PSoC4/cyfitter_cfg.c **** 			{0xDDu, 0x99u},
 391:.\Generated_Source\PSoC4/cyfitter_cfg.c **** 			{0xDFu, 0x01u},
 392:.\Generated_Source\PSoC4/cyfitter_cfg.c **** 			{0xE0u, 0x40u},
 393:.\Generated_Source\PSoC4/cyfitter_cfg.c **** 			{0xE2u, 0x40u},
 394:.\Generated_Source\PSoC4/cyfitter_cfg.c **** 			{0xE4u, 0x40u},
 395:.\Generated_Source\PSoC4/cyfitter_cfg.c **** 			{0xE5u, 0x40u},
 396:.\Generated_Source\PSoC4/cyfitter_cfg.c **** 			{0xE6u, 0x80u},
 397:.\Generated_Source\PSoC4/cyfitter_cfg.c **** 			{0xE8u, 0x80u},
 398:.\Generated_Source\PSoC4/cyfitter_cfg.c **** 			{0xEAu, 0x80u},
 399:.\Generated_Source\PSoC4/cyfitter_cfg.c **** 			{0xECu, 0x80u},
 400:.\Generated_Source\PSoC4/cyfitter_cfg.c **** 			{0xEEu, 0x80u},
 401:.\Generated_Source\PSoC4/cyfitter_cfg.c **** 			{0x02u, 0x01u},
 402:.\Generated_Source\PSoC4/cyfitter_cfg.c **** 			{0x10u, 0x02u},
 403:.\Generated_Source\PSoC4/cyfitter_cfg.c **** 			{0x19u, 0x40u},
 404:.\Generated_Source\PSoC4/cyfitter_cfg.c **** 			{0x41u, 0x01u},
 405:.\Generated_Source\PSoC4/cyfitter_cfg.c **** 			{0x46u, 0x01u},
 406:.\Generated_Source\PSoC4/cyfitter_cfg.c **** 			{0x48u, 0x02u},
 407:.\Generated_Source\PSoC4/cyfitter_cfg.c **** 			{0x49u, 0x05u},
 408:.\Generated_Source\PSoC4/cyfitter_cfg.c **** 			{0x4Cu, 0x02u},
 409:.\Generated_Source\PSoC4/cyfitter_cfg.c **** 			{0x51u, 0x01u},
 410:.\Generated_Source\PSoC4/cyfitter_cfg.c **** 			{0x52u, 0x01u},
 411:.\Generated_Source\PSoC4/cyfitter_cfg.c **** 			{0x59u, 0x45u},
 412:.\Generated_Source\PSoC4/cyfitter_cfg.c **** 			{0x63u, 0x80u},
 413:.\Generated_Source\PSoC4/cyfitter_cfg.c **** 			{0x83u, 0x40u},
 414:.\Generated_Source\PSoC4/cyfitter_cfg.c **** 			{0x95u, 0x02u},
 415:.\Generated_Source\PSoC4/cyfitter_cfg.c **** 			{0x9Eu, 0x01u},
 416:.\Generated_Source\PSoC4/cyfitter_cfg.c **** 			{0xA0u, 0x02u},
 417:.\Generated_Source\PSoC4/cyfitter_cfg.c **** 			{0xC0u, 0x01u},
 418:.\Generated_Source\PSoC4/cyfitter_cfg.c **** 			{0xC4u, 0x01u},
 419:.\Generated_Source\PSoC4/cyfitter_cfg.c **** 			{0xD0u, 0x11u},
 420:.\Generated_Source\PSoC4/cyfitter_cfg.c **** 			{0xD2u, 0x18u},
 421:.\Generated_Source\PSoC4/cyfitter_cfg.c **** 			{0xD6u, 0x0Bu},
 422:.\Generated_Source\PSoC4/cyfitter_cfg.c **** 			{0xD8u, 0x01u},
 423:.\Generated_Source\PSoC4/cyfitter_cfg.c **** 			{0x6Fu, 0x10u},
 424:.\Generated_Source\PSoC4/cyfitter_cfg.c **** 			{0x83u, 0x10u},
 425:.\Generated_Source\PSoC4/cyfitter_cfg.c **** 			{0xDAu, 0x80u},
 426:.\Generated_Source\PSoC4/cyfitter_cfg.c **** 			{0xE2u, 0x20u},
 427:.\Generated_Source\PSoC4/cyfitter_cfg.c **** 			{0x02u, 0x01u},
ARM GAS  C:\Users\ddemidov\AppData\Local\Temp\cccTGixi.s 			page 11


 428:.\Generated_Source\PSoC4/cyfitter_cfg.c **** 			{0x11u, 0x01u},
 429:.\Generated_Source\PSoC4/cyfitter_cfg.c **** 		};
 430:.\Generated_Source\PSoC4/cyfitter_cfg.c **** 
 431:.\Generated_Source\PSoC4/cyfitter_cfg.c **** 
 432:.\Generated_Source\PSoC4/cyfitter_cfg.c **** 
 433:.\Generated_Source\PSoC4/cyfitter_cfg.c **** 		CYPACKED typedef struct {
 434:.\Generated_Source\PSoC4/cyfitter_cfg.c **** 			void CYFAR *address;
 435:.\Generated_Source\PSoC4/cyfitter_cfg.c **** 			uint16 size;
 436:.\Generated_Source\PSoC4/cyfitter_cfg.c **** 		} CYPACKED_ATTR cfg_memset_t;
 437:.\Generated_Source\PSoC4/cyfitter_cfg.c **** 
 438:.\Generated_Source\PSoC4/cyfitter_cfg.c **** 		static const cfg_memset_t CYCODE cfg_memset_list [] = {
 439:.\Generated_Source\PSoC4/cyfitter_cfg.c **** 			/* address, size */
 440:.\Generated_Source\PSoC4/cyfitter_cfg.c **** 			{(void CYFAR *)(CYDEV_UDB_P0_U0_BASE), 1024u},
 441:.\Generated_Source\PSoC4/cyfitter_cfg.c **** 			{(void CYFAR *)(CYDEV_UDB_DSI0_BASE), 1024u},
 442:.\Generated_Source\PSoC4/cyfitter_cfg.c **** 		};
 443:.\Generated_Source\PSoC4/cyfitter_cfg.c **** 
 444:.\Generated_Source\PSoC4/cyfitter_cfg.c **** 		uint8 CYDATA i;
 445:.\Generated_Source\PSoC4/cyfitter_cfg.c **** 
 446:.\Generated_Source\PSoC4/cyfitter_cfg.c **** 		/* Zero out critical memory blocks before beginning configuration */
 447:.\Generated_Source\PSoC4/cyfitter_cfg.c **** 		for (i = 0u; i < (sizeof(cfg_memset_list)/sizeof(cfg_memset_list[0])); i++)
 448:.\Generated_Source\PSoC4/cyfitter_cfg.c **** 		{
 449:.\Generated_Source\PSoC4/cyfitter_cfg.c **** 			const cfg_memset_t CYCODE * CYDATA ms = &cfg_memset_list[i];
 450:.\Generated_Source\PSoC4/cyfitter_cfg.c **** 			CYMEMZERO(ms->address, (size_t)(uint32)(ms->size));
 451:.\Generated_Source\PSoC4/cyfitter_cfg.c **** 		}
 452:.\Generated_Source\PSoC4/cyfitter_cfg.c **** 
 453:.\Generated_Source\PSoC4/cyfitter_cfg.c **** 		cfg_write_bytes32(cy_cfg_addr_table, cy_cfg_data_table);
 454:.\Generated_Source\PSoC4/cyfitter_cfg.c **** 
 455:.\Generated_Source\PSoC4/cyfitter_cfg.c **** 		/* HSIOM Starting address: CYDEV_HSIOM_BASE */
 456:.\Generated_Source\PSoC4/cyfitter_cfg.c **** 		CY_SET_XTND_REG32((void CYFAR *)(CYDEV_HSIOM_BASE), 0xEE000000u);
 133              		.loc 1 456 0
 134 005e EE22     		mov	r2, #238
 135 0060 4D4B     		ldr	r3, .L7+20
 136 0062 1206     		lsl	r2, r2, #24
 137 0064 1A60     		str	r2, [r3]
 457:.\Generated_Source\PSoC4/cyfitter_cfg.c **** 		CY_SET_XTND_REG32((void CYFAR *)(CYREG_HSIOM_PORT_SEL3), 0x00EE0000u);
 138              		.loc 1 457 0
 139 0066 EE22     		mov	r2, #238
 140 0068 4C4B     		ldr	r3, .L7+24
 141 006a 1204     		lsl	r2, r2, #16
 142 006c 1A60     		str	r2, [r3]
 458:.\Generated_Source\PSoC4/cyfitter_cfg.c **** 
 459:.\Generated_Source\PSoC4/cyfitter_cfg.c **** 		/* UDB_PA_0 Starting address: CYDEV_UDB_PA0_BASE */
 460:.\Generated_Source\PSoC4/cyfitter_cfg.c **** 		CY_SET_XTND_REG32((void CYFAR *)(CYDEV_UDB_PA0_BASE), 0x00990000u);
 143              		.loc 1 460 0
 144 006e 9923     		mov	r3, #153
 461:.\Generated_Source\PSoC4/cyfitter_cfg.c **** 		CY_SET_XTND_REG32((void CYFAR *)(CYREG_UDB_PA0_CFG4), 0x00800000u);
 145              		.loc 1 461 0
 146 0070 8021     		mov	r1, #128
 460:.\Generated_Source\PSoC4/cyfitter_cfg.c **** 		CY_SET_XTND_REG32((void CYFAR *)(CYREG_UDB_PA0_CFG4), 0x00800000u);
 147              		.loc 1 460 0
 148 0072 4B4A     		ldr	r2, .L7+28
 149 0074 1B04     		lsl	r3, r3, #16
 150 0076 1360     		str	r3, [r2]
 151              		.loc 1 461 0
 152 0078 4A4A     		ldr	r2, .L7+32
 153 007a 0904     		lsl	r1, r1, #16
 154 007c 1160     		str	r1, [r2]
ARM GAS  C:\Users\ddemidov\AppData\Local\Temp\cccTGixi.s 			page 12


 462:.\Generated_Source\PSoC4/cyfitter_cfg.c **** 
 463:.\Generated_Source\PSoC4/cyfitter_cfg.c **** 		/* UDB_PA_1 Starting address: CYDEV_UDB_PA1_BASE */
 464:.\Generated_Source\PSoC4/cyfitter_cfg.c **** 		CY_SET_XTND_REG32((void CYFAR *)(CYDEV_UDB_PA1_BASE), 0x00990000u);
 465:.\Generated_Source\PSoC4/cyfitter_cfg.c **** 
 466:.\Generated_Source\PSoC4/cyfitter_cfg.c **** 		/* UDB_PA_2 Starting address: CYDEV_UDB_PA2_BASE */
 467:.\Generated_Source\PSoC4/cyfitter_cfg.c **** 		CY_SET_XTND_REG32((void CYFAR *)(CYDEV_UDB_PA2_BASE), 0x00990000u);
 468:.\Generated_Source\PSoC4/cyfitter_cfg.c **** 		CY_SET_XTND_REG32((void CYFAR *)(CYREG_UDB_PA2_CFG4), 0x0A000000u);
 155              		.loc 1 468 0
 156 007e A021     		mov	r1, #160
 469:.\Generated_Source\PSoC4/cyfitter_cfg.c **** 
 470:.\Generated_Source\PSoC4/cyfitter_cfg.c **** 		/* UDB_PA_3 Starting address: CYDEV_UDB_PA3_BASE */
 471:.\Generated_Source\PSoC4/cyfitter_cfg.c **** 		CY_SET_XTND_REG32((void CYFAR *)(CYDEV_UDB_PA3_BASE), 0x00990000u);
 472:.\Generated_Source\PSoC4/cyfitter_cfg.c **** 
 473:.\Generated_Source\PSoC4/cyfitter_cfg.c **** 		/* INT_SELECT Starting address: CYDEV_CPUSS_INT_SEL */
 474:.\Generated_Source\PSoC4/cyfitter_cfg.c **** 		CY_SET_XTND_REG32((void CYFAR *)(CYREG_CPUSS_INT_SEL), 0x00000002u);
 157              		.loc 1 474 0
 158 0080 0226     		mov	r6, #2
 159              	.LVL11:
 475:.\Generated_Source\PSoC4/cyfitter_cfg.c **** 
 476:.\Generated_Source\PSoC4/cyfitter_cfg.c **** 		/* INT_CONFIG Starting address: CYDEV_UDB_INT_CFG */
 477:.\Generated_Source\PSoC4/cyfitter_cfg.c **** 		CY_SET_XTND_REG32((void CYFAR *)(CYREG_UDB_INT_CFG), 0x00000002u);
 478:.\Generated_Source\PSoC4/cyfitter_cfg.c **** 
 479:.\Generated_Source\PSoC4/cyfitter_cfg.c **** 		/* Enable digital routing */
 480:.\Generated_Source\PSoC4/cyfitter_cfg.c **** 		CY_SET_XTND_REG8((void *)CYREG_UDB_UDBIF_BANK_CTL, CY_GET_XTND_REG8((void *)CYREG_UDB_UDBIF_BANK_
 481:.\Generated_Source\PSoC4/cyfitter_cfg.c **** 
 482:.\Generated_Source\PSoC4/cyfitter_cfg.c **** 		/* Enable UDB array */
 483:.\Generated_Source\PSoC4/cyfitter_cfg.c **** 		CY_SET_XTND_REG8((void *)CYREG_UDB_UDBIF_WAIT_CFG, (uint8)((CY_GET_XTND_REG8((void *)CYREG_UDB_UD
 160              		.loc 1 483 0
 161 0082 3C20     		mov	r0, #60
 464:.\Generated_Source\PSoC4/cyfitter_cfg.c **** 
 162              		.loc 1 464 0
 163 0084 484A     		ldr	r2, .L7+36
 468:.\Generated_Source\PSoC4/cyfitter_cfg.c **** 
 164              		.loc 1 468 0
 165 0086 0905     		lsl	r1, r1, #20
 464:.\Generated_Source\PSoC4/cyfitter_cfg.c **** 
 166              		.loc 1 464 0
 167 0088 1360     		str	r3, [r2]
 467:.\Generated_Source\PSoC4/cyfitter_cfg.c **** 		CY_SET_XTND_REG32((void CYFAR *)(CYREG_UDB_PA2_CFG4), 0x0A000000u);
 168              		.loc 1 467 0
 169 008a 484A     		ldr	r2, .L7+40
 170              	.LBE24:
 484:.\Generated_Source\PSoC4/cyfitter_cfg.c **** 		CY_SET_XTND_REG8((void *)CYREG_UDB_UDBIF_BANK_CTL, (uint8)(CY_GET_XTND_REG8((void *)CYREG_UDB_UDB
 485:.\Generated_Source\PSoC4/cyfitter_cfg.c **** 	}
 486:.\Generated_Source\PSoC4/cyfitter_cfg.c **** 
 487:.\Generated_Source\PSoC4/cyfitter_cfg.c **** 	/* Perform second pass device configuration. These items must be configured in specific order afte
 488:.\Generated_Source\PSoC4/cyfitter_cfg.c **** 	/* IOPINS0_0 Starting address: CYDEV_GPIO_PRT0_BASE */
 489:.\Generated_Source\PSoC4/cyfitter_cfg.c **** 	CY_SET_XTND_REG32((void CYFAR *)(CYDEV_GPIO_PRT0_BASE), 0x00000008u);
 171              		.loc 1 489 0
 172 008c 0825     		mov	r5, #8
 173              	.LVL12:
 174              	.LBB25:
 467:.\Generated_Source\PSoC4/cyfitter_cfg.c **** 		CY_SET_XTND_REG32((void CYFAR *)(CYREG_UDB_PA2_CFG4), 0x0A000000u);
 175              		.loc 1 467 0
 176 008e 1360     		str	r3, [r2]
 468:.\Generated_Source\PSoC4/cyfitter_cfg.c **** 
 177              		.loc 1 468 0
ARM GAS  C:\Users\ddemidov\AppData\Local\Temp\cccTGixi.s 			page 13


 178 0090 474A     		ldr	r2, .L7+44
 179              	.LBE25:
 180              	.LBB26:
 181              	.LBB27:
 204:.\Generated_Source\PSoC4/cyfitter_cfg.c **** 
 182              		.loc 1 204 0
 183 0092 484F     		ldr	r7, .L7+48
 184              	.LBE27:
 185              	.LBE26:
 186              	.LBB29:
 468:.\Generated_Source\PSoC4/cyfitter_cfg.c **** 
 187              		.loc 1 468 0
 188 0094 1160     		str	r1, [r2]
 471:.\Generated_Source\PSoC4/cyfitter_cfg.c **** 
 189              		.loc 1 471 0
 190 0096 484A     		ldr	r2, .L7+52
 483:.\Generated_Source\PSoC4/cyfitter_cfg.c **** 		CY_SET_XTND_REG8((void *)CYREG_UDB_UDBIF_BANK_CTL, (uint8)(CY_GET_XTND_REG8((void *)CYREG_UDB_UDB
 191              		.loc 1 483 0
 192 0098 4849     		ldr	r1, .L7+56
 471:.\Generated_Source\PSoC4/cyfitter_cfg.c **** 
 193              		.loc 1 471 0
 194 009a 1360     		str	r3, [r2]
 474:.\Generated_Source\PSoC4/cyfitter_cfg.c **** 
 195              		.loc 1 474 0
 196 009c 484B     		ldr	r3, .L7+60
 480:.\Generated_Source\PSoC4/cyfitter_cfg.c **** 
 197              		.loc 1 480 0
 198 009e 494A     		ldr	r2, .L7+64
 474:.\Generated_Source\PSoC4/cyfitter_cfg.c **** 
 199              		.loc 1 474 0
 200 00a0 1E60     		str	r6, [r3]
 477:.\Generated_Source\PSoC4/cyfitter_cfg.c **** 
 201              		.loc 1 477 0
 202 00a2 494B     		ldr	r3, .L7+68
 203              	.LBE29:
 490:.\Generated_Source\PSoC4/cyfitter_cfg.c **** 	CY_SET_XTND_REG32((void CYFAR *)(CYREG_GPIO_PRT0_PC), 0x00D80400u);
 491:.\Generated_Source\PSoC4/cyfitter_cfg.c **** 
 492:.\Generated_Source\PSoC4/cyfitter_cfg.c **** 	/* IOPINS0_1 Starting address: CYDEV_GPIO_PRT1_BASE */
 493:.\Generated_Source\PSoC4/cyfitter_cfg.c **** 	CY_SET_XTND_REG32((void CYFAR *)(CYDEV_GPIO_PRT1_BASE), 0x00000020u);
 494:.\Generated_Source\PSoC4/cyfitter_cfg.c **** 	CY_SET_XTND_REG32((void CYFAR *)(CYREG_GPIO_PRT1_PC), 0x00030000u);
 495:.\Generated_Source\PSoC4/cyfitter_cfg.c **** 
 496:.\Generated_Source\PSoC4/cyfitter_cfg.c **** 	/* IOPINS0_2 Starting address: CYDEV_GPIO_PRT2_BASE */
 497:.\Generated_Source\PSoC4/cyfitter_cfg.c **** 	CY_SET_XTND_REG32((void CYFAR *)(CYDEV_GPIO_PRT2_BASE), 0x00000043u);
 498:.\Generated_Source\PSoC4/cyfitter_cfg.c **** 	CY_SET_XTND_REG32((void CYFAR *)(CYREG_GPIO_PRT2_PC), 0x00189036u);
 499:.\Generated_Source\PSoC4/cyfitter_cfg.c **** 
 500:.\Generated_Source\PSoC4/cyfitter_cfg.c **** 	/* IOPINS0_3 Starting address: CYDEV_GPIO_PRT3_BASE */
 501:.\Generated_Source\PSoC4/cyfitter_cfg.c **** 	CY_SET_XTND_REG32((void CYFAR *)(CYDEV_GPIO_PRT3_BASE), 0x000000F0u);
 502:.\Generated_Source\PSoC4/cyfitter_cfg.c **** 	CY_SET_XTND_REG32((void CYFAR *)(CYREG_GPIO_PRT3_PC), 0x00DA4000u);
 503:.\Generated_Source\PSoC4/cyfitter_cfg.c **** 
 504:.\Generated_Source\PSoC4/cyfitter_cfg.c **** 
 505:.\Generated_Source\PSoC4/cyfitter_cfg.c **** 	/* Setup clocks based on selections from Clock DWR */
 506:.\Generated_Source\PSoC4/cyfitter_cfg.c **** 	ClockSetup();
 507:.\Generated_Source\PSoC4/cyfitter_cfg.c **** 
 508:.\Generated_Source\PSoC4/cyfitter_cfg.c **** 	/* Perform basic analog initialization to defaults */
 509:.\Generated_Source\PSoC4/cyfitter_cfg.c **** 	AnalogSetDefault();
 510:.\Generated_Source\PSoC4/cyfitter_cfg.c **** 
 511:.\Generated_Source\PSoC4/cyfitter_cfg.c **** }
ARM GAS  C:\Users\ddemidov\AppData\Local\Temp\cccTGixi.s 			page 14


 204              		.loc 1 511 0
 205              		@ sp needed
 206              	.LBB30:
 477:.\Generated_Source\PSoC4/cyfitter_cfg.c **** 
 207              		.loc 1 477 0
 208 00a4 1E60     		str	r6, [r3]
 480:.\Generated_Source\PSoC4/cyfitter_cfg.c **** 
 209              		.loc 1 480 0
 210 00a6 1378     		ldrb	r3, [r2]
 211 00a8 3343     		orr	r3, r6
 212 00aa 1370     		strb	r3, [r2]
 483:.\Generated_Source\PSoC4/cyfitter_cfg.c **** 		CY_SET_XTND_REG8((void *)CYREG_UDB_UDBIF_BANK_CTL, (uint8)(CY_GET_XTND_REG8((void *)CYREG_UDB_UDB
 213              		.loc 1 483 0
 214 00ac 0B78     		ldrb	r3, [r1]
 215 00ae 8343     		bic	r3, r0
 216 00b0 2838     		sub	r0, r0, #40
 217 00b2 0343     		orr	r3, r0
 218 00b4 0B70     		strb	r3, [r1]
 484:.\Generated_Source\PSoC4/cyfitter_cfg.c **** 	}
 219              		.loc 1 484 0
 220 00b6 1621     		mov	r1, #22
 221 00b8 1378     		ldrb	r3, [r2]
 222 00ba 0B43     		orr	r3, r1
 223 00bc 1370     		strb	r3, [r2]
 224              	.LBE30:
 489:.\Generated_Source\PSoC4/cyfitter_cfg.c **** 	CY_SET_XTND_REG32((void CYFAR *)(CYREG_GPIO_PRT0_PC), 0x00D80400u);
 225              		.loc 1 489 0
 226 00be 434B     		ldr	r3, .L7+72
 490:.\Generated_Source\PSoC4/cyfitter_cfg.c **** 
 227              		.loc 1 490 0
 228 00c0 434A     		ldr	r2, .L7+76
 489:.\Generated_Source\PSoC4/cyfitter_cfg.c **** 	CY_SET_XTND_REG32((void CYFAR *)(CYREG_GPIO_PRT0_PC), 0x00D80400u);
 229              		.loc 1 489 0
 230 00c2 1D60     		str	r5, [r3]
 490:.\Generated_Source\PSoC4/cyfitter_cfg.c **** 
 231              		.loc 1 490 0
 232 00c4 434B     		ldr	r3, .L7+80
 233 00c6 1A60     		str	r2, [r3]
 493:.\Generated_Source\PSoC4/cyfitter_cfg.c **** 	CY_SET_XTND_REG32((void CYFAR *)(CYREG_GPIO_PRT1_PC), 0x00030000u);
 234              		.loc 1 493 0
 235 00c8 2022     		mov	r2, #32
 236 00ca 434B     		ldr	r3, .L7+84
 237 00cc 1A60     		str	r2, [r3]
 494:.\Generated_Source\PSoC4/cyfitter_cfg.c **** 
 238              		.loc 1 494 0
 239 00ce C022     		mov	r2, #192
 240 00d0 424B     		ldr	r3, .L7+88
 241 00d2 9202     		lsl	r2, r2, #10
 242 00d4 1A60     		str	r2, [r3]
 497:.\Generated_Source\PSoC4/cyfitter_cfg.c **** 	CY_SET_XTND_REG32((void CYFAR *)(CYREG_GPIO_PRT2_PC), 0x00189036u);
 243              		.loc 1 497 0
 244 00d6 4322     		mov	r2, #67
 245 00d8 414B     		ldr	r3, .L7+92
 246 00da 1A60     		str	r2, [r3]
 498:.\Generated_Source\PSoC4/cyfitter_cfg.c **** 
 247              		.loc 1 498 0
 248 00dc 414A     		ldr	r2, .L7+96
ARM GAS  C:\Users\ddemidov\AppData\Local\Temp\cccTGixi.s 			page 15


 249 00de 424B     		ldr	r3, .L7+100
 250 00e0 1A60     		str	r2, [r3]
 501:.\Generated_Source\PSoC4/cyfitter_cfg.c **** 	CY_SET_XTND_REG32((void CYFAR *)(CYREG_GPIO_PRT3_PC), 0x00DA4000u);
 251              		.loc 1 501 0
 252 00e2 F022     		mov	r2, #240
 253 00e4 414B     		ldr	r3, .L7+104
 254 00e6 1A60     		str	r2, [r3]
 502:.\Generated_Source\PSoC4/cyfitter_cfg.c **** 
 255              		.loc 1 502 0
 256 00e8 414A     		ldr	r2, .L7+108
 257 00ea 424B     		ldr	r3, .L7+112
 258 00ec 1A60     		str	r2, [r3]
 259              	.LBB31:
 260              	.LBB28:
 191:.\Generated_Source\PSoC4/cyfitter_cfg.c **** 
 261              		.loc 1 191 0
 262 00ee 1222     		mov	r2, #18
 263 00f0 414B     		ldr	r3, .L7+116
 264 00f2 1A60     		str	r2, [r3]
 194:.\Generated_Source\PSoC4/cyfitter_cfg.c **** 	CyDelayCycles(12000000u); /* WCO may take up to 500ms to start */
 265              		.loc 1 194 0
 266 00f4 FFF7FEFF 		bl	CySysClkWcoStart
 267              	.LVL13:
 195:.\Generated_Source\PSoC4/cyfitter_cfg.c **** 	(void)CySysClkWcoSetPowerMode(CY_SYS_CLK_WCO_LPM);    /* Switch to the low power mode */
 268              		.loc 1 195 0
 269 00f8 4048     		ldr	r0, .L7+120
 270 00fa FFF7FEFF 		bl	CyDelayCycles
 271              	.LVL14:
 196:.\Generated_Source\PSoC4/cyfitter_cfg.c **** 
 272              		.loc 1 196 0
 273 00fe 0120     		mov	r0, #1
 274 0100 FFF7FEFF 		bl	CySysClkWcoSetPowerMode
 275              	.LVL15:
 199:.\Generated_Source\PSoC4/cyfitter_cfg.c **** 	/* CYDEV_CLK_ILO_CONFIG Starting address: CYDEV_CLK_ILO_CONFIG */
 276              		.loc 1 199 0
 277 0104 3020     		mov	r0, #48
 278 0106 FFF7FEFF 		bl	CySysClkWriteImoFreq
 279              	.LVL16:
 201:.\Generated_Source\PSoC4/cyfitter_cfg.c **** 
 280              		.loc 1 201 0
 281 010a 3D4A     		ldr	r2, .L7+124
 282 010c 3D4B     		ldr	r3, .L7+128
 213:.\Generated_Source\PSoC4/cyfitter_cfg.c **** 	CyDelayUs(1500u); /* Wait to stabalize */
 283              		.loc 1 213 0
 284 010e FA20     		mov	r0, #250
 201:.\Generated_Source\PSoC4/cyfitter_cfg.c **** 
 285              		.loc 1 201 0
 286 0110 1A60     		str	r2, [r3]
 204:.\Generated_Source\PSoC4/cyfitter_cfg.c **** 
 287              		.loc 1 204 0
 288 0112 8023     		mov	r3, #128
 208:.\Generated_Source\PSoC4/cyfitter_cfg.c **** 	CY_SET_XTND_REG32((void CYFAR *)(CYREG_BLE_BLERD_BB_XO_CAPTRIM), 0x00003E2Du);
 289              		.loc 1 208 0
 290 0114 3C4A     		ldr	r2, .L7+132
 204:.\Generated_Source\PSoC4/cyfitter_cfg.c **** 
 291              		.loc 1 204 0
 292 0116 DB05     		lsl	r3, r3, #23
ARM GAS  C:\Users\ddemidov\AppData\Local\Temp\cccTGixi.s 			page 16


 293 0118 3B60     		str	r3, [r7]
 208:.\Generated_Source\PSoC4/cyfitter_cfg.c **** 	CY_SET_XTND_REG32((void CYFAR *)(CYREG_BLE_BLERD_BB_XO_CAPTRIM), 0x00003E2Du);
 294              		.loc 1 208 0
 295 011a 1368     		ldr	r3, [r2]
 213:.\Generated_Source\PSoC4/cyfitter_cfg.c **** 	CyDelayUs(1500u); /* Wait to stabalize */
 296              		.loc 1 213 0
 297 011c C000     		lsl	r0, r0, #3
 208:.\Generated_Source\PSoC4/cyfitter_cfg.c **** 	CY_SET_XTND_REG32((void CYFAR *)(CYREG_BLE_BLERD_BB_XO_CAPTRIM), 0x00003E2Du);
 298              		.loc 1 208 0
 299 011e 1E43     		orr	r6, r3
 300 0120 1660     		str	r6, [r2]
 209:.\Generated_Source\PSoC4/cyfitter_cfg.c **** 	/* Disable Crystal Stable Interrupt before enabling ECO */
 301              		.loc 1 209 0
 302 0122 3A4B     		ldr	r3, .L7+136
 303 0124 3A4A     		ldr	r2, .L7+140
 304 0126 1A60     		str	r2, [r3]
 211:.\Generated_Source\PSoC4/cyfitter_cfg.c **** 	/* Start the ECO and do not check status since it is not needed for HFCLK */
 305              		.loc 1 211 0
 306 0128 2368     		ldr	r3, [r4]
 307 012a AB43     		bic	r3, r5
 308 012c 2360     		str	r3, [r4]
 213:.\Generated_Source\PSoC4/cyfitter_cfg.c **** 	CyDelayUs(1500u); /* Wait to stabalize */
 309              		.loc 1 213 0
 310 012e FFF7FEFF 		bl	CySysClkEcoStart
 311              	.LVL17:
 214:.\Generated_Source\PSoC4/cyfitter_cfg.c **** 
 312              		.loc 1 214 0
 313 0132 3848     		ldr	r0, .L7+144
 314 0134 FFF7FEFF 		bl	CyDelayUs
 315              	.LVL18:
 217:.\Generated_Source\PSoC4/cyfitter_cfg.c **** 	CY_SET_REG32((void *)CYREG_PERI_DIV_CMD, 0x8000FF40u);
 316              		.loc 1 217 0
 317 0138 E822     		mov	r2, #232
 318 013a 374B     		ldr	r3, .L7+148
 319 013c 5201     		lsl	r2, r2, #5
 320 013e 1A60     		str	r2, [r3]
 218:.\Generated_Source\PSoC4/cyfitter_cfg.c **** 
 321              		.loc 1 218 0
 322 0140 364A     		ldr	r2, .L7+152
 323 0142 374B     		ldr	r3, .L7+156
 229:.\Generated_Source\PSoC4/cyfitter_cfg.c **** 	CyIntEnable(8u);
 324              		.loc 1 229 0
 325 0144 281C     		mov	r0, r5
 218:.\Generated_Source\PSoC4/cyfitter_cfg.c **** 
 326              		.loc 1 218 0
 327 0146 1A60     		str	r2, [r3]
 221:.\Generated_Source\PSoC4/cyfitter_cfg.c **** 
 328              		.loc 1 221 0
 329 0148 8022     		mov	r2, #128
 330 014a 364B     		ldr	r3, .L7+160
 331 014c 1206     		lsl	r2, r2, #24
 332 014e 1A60     		str	r2, [r3]
 224:.\Generated_Source\PSoC4/cyfitter_cfg.c **** 
 333              		.loc 1 224 0
 334 0150 8022     		mov	r2, #128
 335 0152 354B     		ldr	r3, .L7+164
 336 0154 D202     		lsl	r2, r2, #11
ARM GAS  C:\Users\ddemidov\AppData\Local\Temp\cccTGixi.s 			page 17


 337 0156 1A60     		str	r2, [r3]
 227:.\Generated_Source\PSoC4/cyfitter_cfg.c **** 
 338              		.loc 1 227 0
 339 0158 4022     		mov	r2, #64
 340 015a 344B     		ldr	r3, .L7+168
 229:.\Generated_Source\PSoC4/cyfitter_cfg.c **** 	CyIntEnable(8u);
 341              		.loc 1 229 0
 342 015c 3449     		ldr	r1, .L7+172
 227:.\Generated_Source\PSoC4/cyfitter_cfg.c **** 
 343              		.loc 1 227 0
 344 015e 1A60     		str	r2, [r3]
 229:.\Generated_Source\PSoC4/cyfitter_cfg.c **** 	CyIntEnable(8u);
 345              		.loc 1 229 0
 346 0160 FFF7FEFF 		bl	CyIntSetVector
 347              	.LVL19:
 230:.\Generated_Source\PSoC4/cyfitter_cfg.c **** 	CY_SET_XTND_REG32((void CYFAR *)(CYREG_WDT_CONFIG), 0x40000000u);
 348              		.loc 1 230 0
 349 0164 281C     		mov	r0, r5
 350 0166 FFF7FEFF 		bl	CyIntEnable
 351              	.LVL20:
 231:.\Generated_Source\PSoC4/cyfitter_cfg.c **** }
 352              		.loc 1 231 0
 353 016a 8023     		mov	r3, #128
 354 016c DB05     		lsl	r3, r3, #23
 355 016e 3B60     		str	r3, [r7]
 356              	.LBE28:
 357              	.LBE31:
 358              	.LBB32:
 359              	.LBB33:
 256:.\Generated_Source\PSoC4/cyfitter_cfg.c **** 	CY_SET_XTND_REG32((void CYFAR *)CYREG_CTBM1_DFT_CTRL, 0x00000003u);
 360              		.loc 1 256 0
 361 0170 0323     		mov	r3, #3
 362 0172 304A     		ldr	r2, .L7+176
 363 0174 1360     		str	r3, [r2]
 257:.\Generated_Source\PSoC4/cyfitter_cfg.c **** 	CY_SET_XTND_REG32((void CYFAR *)CYREG_PASS_DSAB_DSAB_CTRL, 0x00000000u);
 364              		.loc 1 257 0
 365 0176 304A     		ldr	r2, .L7+180
 366 0178 1360     		str	r3, [r2]
 258:.\Generated_Source\PSoC4/cyfitter_cfg.c **** }
 367              		.loc 1 258 0
 368 017a 0022     		mov	r2, #0
 369 017c 2F4B     		ldr	r3, .L7+184
 370 017e 1A60     		str	r2, [r3]
 371              	.LBE33:
 372              	.LBE32:
 373              		.loc 1 511 0
 374 0180 F8BD     		pop	{r3, r4, r5, r6, r7, pc}
 375              	.L8:
 376 0182 C046     		.align	2
 377              	.L7:
 378 0184 1C700F40 		.word	1074753564
 379 0188 6CF02E40 		.word	1076818028
 380 018c 00300F40 		.word	1074737152
 381 0190 00400F40 		.word	1074741248
 382 0194 00000000 		.word	.LANCHOR0
 383 0198 00000240 		.word	1073872896
 384 019c 00030240 		.word	1073873664
ARM GAS  C:\Users\ddemidov\AppData\Local\Temp\cccTGixi.s 			page 18


 385 01a0 00500F40 		.word	1074745344
 386 01a4 04500F40 		.word	1074745348
 387 01a8 10500F40 		.word	1074745360
 388 01ac 20500F40 		.word	1074745376
 389 01b0 24500F40 		.word	1074745380
 390 01b4 0C020B40 		.word	1074463244
 391 01b8 30500F40 		.word	1074745392
 392 01bc 01700F40 		.word	1074753537
 393 01c0 20001040 		.word	1074790432
 394 01c4 00700F40 		.word	1074753536
 395 01c8 00800F40 		.word	1074757632
 396 01cc 00000440 		.word	1074003968
 397 01d0 0004D800 		.word	14156800
 398 01d4 08000440 		.word	1074003976
 399 01d8 00010440 		.word	1074004224
 400 01dc 08010440 		.word	1074004232
 401 01e0 00020440 		.word	1074004480
 402 01e4 36901800 		.word	1609782
 403 01e8 08020440 		.word	1074004488
 404 01ec 00030440 		.word	1074004736
 405 01f0 0040DA00 		.word	14303232
 406 01f4 08030440 		.word	1074004744
 407 01f8 30001040 		.word	1074790448
 408 01fc 001BB700 		.word	12000000
 409 0200 06000080 		.word	-2147483642
 410 0204 04010B40 		.word	1074462980
 411 0208 78002E40 		.word	1076756600
 412 020c 7C002E40 		.word	1076756604
 413 0210 2D3E0000 		.word	15917
 414 0214 DC050000 		.word	1500
 415 0218 00030140 		.word	1073808128
 416 021c 40FF0080 		.word	-2147418304
 417 0220 00000140 		.word	1073807360
 418 0224 08010B40 		.word	1074462984
 419 0228 00010B40 		.word	1074462976
 420 022c 08010140 		.word	1073807624
 421 0230 00000000 		.word	CySysWdtIsr
 422 0234 30003040 		.word	1076887600
 423 0238 30003140 		.word	1076953136
 424 023c 000E3F40 		.word	1077874176
 425              		.cfi_endproc
 426              	.LFE8:
 427              		.size	cyfitter_cfg, .-cyfitter_cfg
 428              		.section	.rodata
 429              		.align	2
 430              		.set	.LANCHOR0,. + 0
 431              		.type	cy_cfg_addr_table.4759, %object
 432              		.size	cy_cfg_addr_table.4759, 28
 433              	cy_cfg_addr_table.4759:
 434 0000 01000F40 		.word	1074724865
 435 0004 28300F40 		.word	1074737192
 436 0008 07310F40 		.word	1074737415
 437 000c 33320F40 		.word	1074737715
 438 0010 16330F40 		.word	1074737942
 439 0014 04410F40 		.word	1074741508
 440 0018 02600F40 		.word	1074749442
 441              		.type	cy_cfg_data_table.4760, %object
ARM GAS  C:\Users\ddemidov\AppData\Local\Temp\cccTGixi.s 			page 19


 442              		.size	cy_cfg_data_table.4760, 254
 443              	cy_cfg_data_table.4760:
 444 001c 83       		.byte	-125
 445 001d 0D       		.byte	13
 446 001e 40       		.byte	64
 447 001f 54       		.byte	84
 448 0020 49       		.byte	73
 449 0021 FF       		.byte	-1
 450 0022 4A       		.byte	74
 451 0023 FF       		.byte	-1
 452 0024 4B       		.byte	75
 453 0025 FF       		.byte	-1
 454 0026 4F       		.byte	79
 455 0027 01       		.byte	1
 456 0028 50       		.byte	80
 457 0029 18       		.byte	24
 458 002a 52       		.byte	82
 459 002b 80       		.byte	-128
 460 002c 5A       		.byte	90
 461 002d 04       		.byte	4
 462 002e 5B       		.byte	91
 463 002f 04       		.byte	4
 464 0030 5D       		.byte	93
 465 0031 99       		.byte	-103
 466 0032 5F       		.byte	95
 467 0033 01       		.byte	1
 468 0034 60       		.byte	96
 469 0035 40       		.byte	64
 470 0036 62       		.byte	98
 471 0037 40       		.byte	64
 472 0038 64       		.byte	100
 473 0039 40       		.byte	64
 474 003a 65       		.byte	101
 475 003b 40       		.byte	64
 476 003c 66       		.byte	102
 477 003d 80       		.byte	-128
 478 003e 68       		.byte	104
 479 003f 80       		.byte	-128
 480 0040 6A       		.byte	106
 481 0041 80       		.byte	-128
 482 0042 6C       		.byte	108
 483 0043 80       		.byte	-128
 484 0044 6E       		.byte	110
 485 0045 80       		.byte	-128
 486 0046 C0       		.byte	-64
 487 0047 51       		.byte	81
 488 0048 C9       		.byte	-55
 489 0049 FF       		.byte	-1
 490 004a CA       		.byte	-54
 491 004b FF       		.byte	-1
 492 004c CB       		.byte	-53
 493 004d FF       		.byte	-1
 494 004e CD       		.byte	-51
 495 004f 83       		.byte	-125
 496 0050 CE       		.byte	-50
 497 0051 03       		.byte	3
 498 0052 CF       		.byte	-49
ARM GAS  C:\Users\ddemidov\AppData\Local\Temp\cccTGixi.s 			page 20


 499 0053 01       		.byte	1
 500 0054 D0       		.byte	-48
 501 0055 18       		.byte	24
 502 0056 DA       		.byte	-38
 503 0057 04       		.byte	4
 504 0058 DD       		.byte	-35
 505 0059 09       		.byte	9
 506 005a DF       		.byte	-33
 507 005b 01       		.byte	1
 508 005c E0       		.byte	-32
 509 005d 40       		.byte	64
 510 005e E2       		.byte	-30
 511 005f 40       		.byte	64
 512 0060 E4       		.byte	-28
 513 0061 40       		.byte	64
 514 0062 E5       		.byte	-27
 515 0063 40       		.byte	64
 516 0064 E6       		.byte	-26
 517 0065 80       		.byte	-128
 518 0066 E8       		.byte	-24
 519 0067 80       		.byte	-128
 520 0068 EA       		.byte	-22
 521 0069 80       		.byte	-128
 522 006a EC       		.byte	-20
 523 006b 80       		.byte	-128
 524 006c EE       		.byte	-18
 525 006d 80       		.byte	-128
 526 006e 41       		.byte	65
 527 006f 01       		.byte	1
 528 0070 46       		.byte	70
 529 0071 01       		.byte	1
 530 0072 48       		.byte	72
 531 0073 02       		.byte	2
 532 0074 4C       		.byte	76
 533 0075 02       		.byte	2
 534 0076 70       		.byte	112
 535 0077 02       		.byte	2
 536 0078 D0       		.byte	-48
 537 0079 11       		.byte	17
 538 007a D2       		.byte	-46
 539 007b 18       		.byte	24
 540 007c 40       		.byte	64
 541 007d 51       		.byte	81
 542 007e 49       		.byte	73
 543 007f FF       		.byte	-1
 544 0080 4A       		.byte	74
 545 0081 FF       		.byte	-1
 546 0082 4B       		.byte	75
 547 0083 FF       		.byte	-1
 548 0084 4D       		.byte	77
 549 0085 83       		.byte	-125
 550 0086 4E       		.byte	78
 551 0087 03       		.byte	3
 552 0088 4F       		.byte	79
 553 0089 01       		.byte	1
 554 008a 50       		.byte	80
 555 008b 18       		.byte	24
ARM GAS  C:\Users\ddemidov\AppData\Local\Temp\cccTGixi.s 			page 21


 556 008c 5A       		.byte	90
 557 008d 04       		.byte	4
 558 008e 5D       		.byte	93
 559 008f 09       		.byte	9
 560 0090 5F       		.byte	95
 561 0091 01       		.byte	1
 562 0092 60       		.byte	96
 563 0093 40       		.byte	64
 564 0094 62       		.byte	98
 565 0095 40       		.byte	64
 566 0096 64       		.byte	100
 567 0097 40       		.byte	64
 568 0098 65       		.byte	101
 569 0099 40       		.byte	64
 570 009a 66       		.byte	102
 571 009b 80       		.byte	-128
 572 009c 68       		.byte	104
 573 009d 80       		.byte	-128
 574 009e 6A       		.byte	106
 575 009f 80       		.byte	-128
 576 00a0 6C       		.byte	108
 577 00a1 80       		.byte	-128
 578 00a2 6E       		.byte	110
 579 00a3 80       		.byte	-128
 580 00a4 8E       		.byte	-114
 581 00a5 01       		.byte	1
 582 00a6 AE       		.byte	-82
 583 00a7 01       		.byte	1
 584 00a8 B6       		.byte	-74
 585 00a9 01       		.byte	1
 586 00aa BE       		.byte	-66
 587 00ab 40       		.byte	64
 588 00ac C0       		.byte	-64
 589 00ad 54       		.byte	84
 590 00ae C5       		.byte	-59
 591 00af EC       		.byte	-20
 592 00b0 C7       		.byte	-57
 593 00b1 20       		.byte	32
 594 00b2 C8       		.byte	-56
 595 00b3 23       		.byte	35
 596 00b4 C9       		.byte	-55
 597 00b5 FF       		.byte	-1
 598 00b6 CA       		.byte	-54
 599 00b7 FF       		.byte	-1
 600 00b8 CB       		.byte	-53
 601 00b9 FF       		.byte	-1
 602 00ba CD       		.byte	-51
 603 00bb 83       		.byte	-125
 604 00bc CE       		.byte	-50
 605 00bd 03       		.byte	3
 606 00be CF       		.byte	-49
 607 00bf 01       		.byte	1
 608 00c0 D0       		.byte	-48
 609 00c1 18       		.byte	24
 610 00c2 D4       		.byte	-44
 611 00c3 01       		.byte	1
 612 00c4 D6       		.byte	-42
ARM GAS  C:\Users\ddemidov\AppData\Local\Temp\cccTGixi.s 			page 22


 613 00c5 04       		.byte	4
 614 00c6 D8       		.byte	-40
 615 00c7 04       		.byte	4
 616 00c8 DA       		.byte	-38
 617 00c9 04       		.byte	4
 618 00ca DB       		.byte	-37
 619 00cb 04       		.byte	4
 620 00cc DD       		.byte	-35
 621 00cd 99       		.byte	-103
 622 00ce DF       		.byte	-33
 623 00cf 01       		.byte	1
 624 00d0 E0       		.byte	-32
 625 00d1 40       		.byte	64
 626 00d2 E2       		.byte	-30
 627 00d3 40       		.byte	64
 628 00d4 E4       		.byte	-28
 629 00d5 40       		.byte	64
 630 00d6 E5       		.byte	-27
 631 00d7 40       		.byte	64
 632 00d8 E6       		.byte	-26
 633 00d9 80       		.byte	-128
 634 00da E8       		.byte	-24
 635 00db 80       		.byte	-128
 636 00dc EA       		.byte	-22
 637 00dd 80       		.byte	-128
 638 00de EC       		.byte	-20
 639 00df 80       		.byte	-128
 640 00e0 EE       		.byte	-18
 641 00e1 80       		.byte	-128
 642 00e2 02       		.byte	2
 643 00e3 01       		.byte	1
 644 00e4 10       		.byte	16
 645 00e5 02       		.byte	2
 646 00e6 19       		.byte	25
 647 00e7 40       		.byte	64
 648 00e8 41       		.byte	65
 649 00e9 01       		.byte	1
 650 00ea 46       		.byte	70
 651 00eb 01       		.byte	1
 652 00ec 48       		.byte	72
 653 00ed 02       		.byte	2
 654 00ee 49       		.byte	73
 655 00ef 05       		.byte	5
 656 00f0 4C       		.byte	76
 657 00f1 02       		.byte	2
 658 00f2 51       		.byte	81
 659 00f3 01       		.byte	1
 660 00f4 52       		.byte	82
 661 00f5 01       		.byte	1
 662 00f6 59       		.byte	89
 663 00f7 45       		.byte	69
 664 00f8 63       		.byte	99
 665 00f9 80       		.byte	-128
 666 00fa 83       		.byte	-125
 667 00fb 40       		.byte	64
 668 00fc 95       		.byte	-107
 669 00fd 02       		.byte	2
ARM GAS  C:\Users\ddemidov\AppData\Local\Temp\cccTGixi.s 			page 23


 670 00fe 9E       		.byte	-98
 671 00ff 01       		.byte	1
 672 0100 A0       		.byte	-96
 673 0101 02       		.byte	2
 674 0102 C0       		.byte	-64
 675 0103 01       		.byte	1
 676 0104 C4       		.byte	-60
 677 0105 01       		.byte	1
 678 0106 D0       		.byte	-48
 679 0107 11       		.byte	17
 680 0108 D2       		.byte	-46
 681 0109 18       		.byte	24
 682 010a D6       		.byte	-42
 683 010b 0B       		.byte	11
 684 010c D8       		.byte	-40
 685 010d 01       		.byte	1
 686 010e 6F       		.byte	111
 687 010f 10       		.byte	16
 688 0110 83       		.byte	-125
 689 0111 10       		.byte	16
 690 0112 DA       		.byte	-38
 691 0113 80       		.byte	-128
 692 0114 E2       		.byte	-30
 693 0115 20       		.byte	32
 694 0116 02       		.byte	2
 695 0117 01       		.byte	1
 696 0118 11       		.byte	17
 697 0119 01       		.byte	1
 698 011a 0000     		.text
 699              	.Letext0:
 700              		.file 2 "c:\\program files (x86)\\cypress\\psoc creator\\3.3\\psoc creator\\import\\gnu\\arm\\4.9.
 701              		.file 3 ".\\Generated_Source\\PSoC4\\cytypes.h"
 702              		.file 4 ".\\Generated_Source\\PSoC4\\CyLib.h"
 703              		.file 5 ".\\Generated_Source\\PSoC4\\CyLFClk.h"