ARM GAS  C:\Users\ddemidov\AppData\Local\Temp\ccf2WIYM.s 			page 1


   1              		.cpu cortex-m0
   2              		.fpu softvfp
   3              		.eabi_attribute 20, 1
   4              		.eabi_attribute 21, 1
   5              		.eabi_attribute 23, 3
   6              		.eabi_attribute 24, 1
   7              		.eabi_attribute 25, 1
   8              		.eabi_attribute 26, 1
   9              		.eabi_attribute 30, 4
  10              		.eabi_attribute 34, 0
  11              		.eabi_attribute 18, 4
  12              		.code	16
  13              		.file	"CyFlash.c"
  14              		.text
  15              	.Ltext0:
  16              		.cfi_sections	.debug_frame
  17              		.section	.text.CySysFlashClockBackup,"ax",%progbits
  18              		.align	1
  19              		.code	16
  20              		.thumb_func
  21              		.type	CySysFlashClockBackup, %function
  22              	CySysFlashClockBackup:
  23              	.LFB5:
  24              		.file 1 ".\\Generated_Source\\PSoC4\\CyFlash.c"
   1:.\Generated_Source\PSoC4/CyFlash.c **** /*******************************************************************************
   2:.\Generated_Source\PSoC4/CyFlash.c **** * File Name: CyFlash.c
   3:.\Generated_Source\PSoC4/CyFlash.c **** * Version 5.30
   4:.\Generated_Source\PSoC4/CyFlash.c **** *
   5:.\Generated_Source\PSoC4/CyFlash.c **** *  Description:
   6:.\Generated_Source\PSoC4/CyFlash.c **** *   Provides an API for the FLASH.
   7:.\Generated_Source\PSoC4/CyFlash.c **** *
   8:.\Generated_Source\PSoC4/CyFlash.c **** *  Note:
   9:.\Generated_Source\PSoC4/CyFlash.c **** *   This code is endian agnostic.
  10:.\Generated_Source\PSoC4/CyFlash.c **** *
  11:.\Generated_Source\PSoC4/CyFlash.c **** *  Note:
  12:.\Generated_Source\PSoC4/CyFlash.c **** *   Documentation of the API's in this file is located in the
  13:.\Generated_Source\PSoC4/CyFlash.c **** *   System Reference Guide provided with PSoC Creator.
  14:.\Generated_Source\PSoC4/CyFlash.c **** *
  15:.\Generated_Source\PSoC4/CyFlash.c **** ********************************************************************************
  16:.\Generated_Source\PSoC4/CyFlash.c **** * Copyright 2010-2015, Cypress Semiconductor Corporation.  All rights reserved.
  17:.\Generated_Source\PSoC4/CyFlash.c **** * You may use this file only in accordance with the license, terms, conditions,
  18:.\Generated_Source\PSoC4/CyFlash.c **** * disclaimers, and limitations in the end user license agreement accompanying
  19:.\Generated_Source\PSoC4/CyFlash.c **** * the software package with which this file was provided.
  20:.\Generated_Source\PSoC4/CyFlash.c **** *******************************************************************************/
  21:.\Generated_Source\PSoC4/CyFlash.c **** 
  22:.\Generated_Source\PSoC4/CyFlash.c **** #include "CyFlash.h"
  23:.\Generated_Source\PSoC4/CyFlash.c **** 
  24:.\Generated_Source\PSoC4/CyFlash.c **** 
  25:.\Generated_Source\PSoC4/CyFlash.c **** /*******************************************************************************
  26:.\Generated_Source\PSoC4/CyFlash.c **** * Cypress identified a defect with the Flash write functionality of the
  27:.\Generated_Source\PSoC4/CyFlash.c **** * PSoC 4000, PSoC 4100, and PSoC 4200 devices. The CySysFlashWriteRow() function
  28:.\Generated_Source\PSoC4/CyFlash.c **** * now checks the data to be written and, if necessary, modifies it to have a
  29:.\Generated_Source\PSoC4/CyFlash.c **** * non-zero checksum. After writing to Flash, the modified data is replaced
  30:.\Generated_Source\PSoC4/CyFlash.c **** * (Flash program) with the correct (original) data.
  31:.\Generated_Source\PSoC4/CyFlash.c **** *******************************************************************************/
  32:.\Generated_Source\PSoC4/CyFlash.c **** #define CY_FLASH_CHECKSUM_WORKAROUND    (CY_PSOC4_4000 || CY_PSOC4_4100 || CY_PSOC4_4200)
  33:.\Generated_Source\PSoC4/CyFlash.c **** 
ARM GAS  C:\Users\ddemidov\AppData\Local\Temp\ccf2WIYM.s 			page 2


  34:.\Generated_Source\PSoC4/CyFlash.c **** #if (CY_IP_FM || ((!CY_PSOC4_4000) && CY_IP_SPCIF_SYNCHRONOUS) || (!CY_IP_FM) && CY_PSOC4_4000)
  35:.\Generated_Source\PSoC4/CyFlash.c ****     static CY_SYS_FLASH_CLOCK_BACKUP_STRUCT cySysFlashBackup;
  36:.\Generated_Source\PSoC4/CyFlash.c **** #endif /* (CY_IP_FM || ((!CY_PSOC4_4000) && CY_IP_SPCIF_SYNCHRONOUS) || (!CY_IP_FM) && CY_PSOC4_400
  37:.\Generated_Source\PSoC4/CyFlash.c **** 
  38:.\Generated_Source\PSoC4/CyFlash.c **** static cystatus CySysFlashClockBackup(void);
  39:.\Generated_Source\PSoC4/CyFlash.c **** static cystatus CySysFlashClockRestore(void);
  40:.\Generated_Source\PSoC4/CyFlash.c **** #if(CY_IP_SPCIF_SYNCHRONOUS)
  41:.\Generated_Source\PSoC4/CyFlash.c ****     static cystatus CySysFlashClockConfig(void);
  42:.\Generated_Source\PSoC4/CyFlash.c **** #endif  /* (CY_IP_SPCIF_SYNCHRONOUS) */
  43:.\Generated_Source\PSoC4/CyFlash.c **** 
  44:.\Generated_Source\PSoC4/CyFlash.c **** 
  45:.\Generated_Source\PSoC4/CyFlash.c **** /*******************************************************************************
  46:.\Generated_Source\PSoC4/CyFlash.c **** * Function Name: CySysFlashWriteRow
  47:.\Generated_Source\PSoC4/CyFlash.c **** ********************************************************************************
  48:.\Generated_Source\PSoC4/CyFlash.c **** *
  49:.\Generated_Source\PSoC4/CyFlash.c **** * Summary:
  50:.\Generated_Source\PSoC4/CyFlash.c **** *  Erases a row of Flash and programs it with the new data.
  51:.\Generated_Source\PSoC4/CyFlash.c **** *
  52:.\Generated_Source\PSoC4/CyFlash.c **** * Parameters:
  53:.\Generated_Source\PSoC4/CyFlash.c **** *  uint16 rowNum:
  54:.\Generated_Source\PSoC4/CyFlash.c **** *   The flash row number. The number of the flash rows is defined by the
  55:.\Generated_Source\PSoC4/CyFlash.c **** *   CY_FLASH_NUMBER_ROWS macro for the selected device. Refer to the device
  56:.\Generated_Source\PSoC4/CyFlash.c **** *   datasheet for the details.
  57:.\Generated_Source\PSoC4/CyFlash.c **** *
  58:.\Generated_Source\PSoC4/CyFlash.c **** *  uint8* rowData:
  59:.\Generated_Source\PSoC4/CyFlash.c **** *   Array of bytes to write. The size of the array must be equal to the flash
  60:.\Generated_Source\PSoC4/CyFlash.c **** *   row size. The flash row size for the selected device is defined by
  61:.\Generated_Source\PSoC4/CyFlash.c **** *   the CY_FLASH_SIZEOF_ROW macro. Refer to the device datasheet for the
  62:.\Generated_Source\PSoC4/CyFlash.c **** *   details.
  63:.\Generated_Source\PSoC4/CyFlash.c **** *
  64:.\Generated_Source\PSoC4/CyFlash.c **** * Return:
  65:.\Generated_Source\PSoC4/CyFlash.c **** *  Status
  66:.\Generated_Source\PSoC4/CyFlash.c **** *     Value                     Description
  67:.\Generated_Source\PSoC4/CyFlash.c **** *    CY_SYS_FLASH_SUCCESS           Successful
  68:.\Generated_Source\PSoC4/CyFlash.c **** *    CY_SYS_FLASH_INVALID_ADDR      Specified flash row address is invalid
  69:.\Generated_Source\PSoC4/CyFlash.c **** *    CY_SYS_FLASH_PROTECTED         Specified flash row is protected
  70:.\Generated_Source\PSoC4/CyFlash.c **** *    Other non-zero                 Failure
  71:.\Generated_Source\PSoC4/CyFlash.c **** *
  72:.\Generated_Source\PSoC4/CyFlash.c **** * Side Effects:
  73:.\Generated_Source\PSoC4/CyFlash.c **** *   The IMO must be enabled before calling this function. The operation of the
  74:.\Generated_Source\PSoC4/CyFlash.c **** *   flash writing hardware is dependent on the IMO.
  75:.\Generated_Source\PSoC4/CyFlash.c **** *
  76:.\Generated_Source\PSoC4/CyFlash.c **** *   For PSoC 4000, PSoC 4100 BLE and PSoC 4200 BLE devices (PSoC 4100 BLE and
  77:.\Generated_Source\PSoC4/CyFlash.c **** *   PSoC 4200 BLE devices with 256K of Flash memory are not affected), this API
  78:.\Generated_Source\PSoC4/CyFlash.c **** *   will automatically modify the clock settings for the device. Writing to
  79:.\Generated_Source\PSoC4/CyFlash.c **** *   flash requires that changes be made to the IMO and HFCLK settings. The
  80:.\Generated_Source\PSoC4/CyFlash.c **** *   configuration is restored before returning. This will impact the operation
  81:.\Generated_Source\PSoC4/CyFlash.c **** *   of most of the hardware in the device.
  82:.\Generated_Source\PSoC4/CyFlash.c **** *
  83:.\Generated_Source\PSoC4/CyFlash.c **** *   For PSoC 4000 devices this API will automatically modify the clock settings
  84:.\Generated_Source\PSoC4/CyFlash.c **** *   for the device. Writing to flash requires that changes be made to the IMO
  85:.\Generated_Source\PSoC4/CyFlash.c **** *   and HFCLK settings. The configuration is restored before returning. HFCLK
  86:.\Generated_Source\PSoC4/CyFlash.c **** *   will have several frequency changes during the operation of this API between
  87:.\Generated_Source\PSoC4/CyFlash.c **** *   a minimum frequency of the current IMO frequency divided by 8 and a maximum
  88:.\Generated_Source\PSoC4/CyFlash.c **** *   frequency of 12 MHz. This will impact the operation of most of the hardware
  89:.\Generated_Source\PSoC4/CyFlash.c **** *   in the device.
  90:.\Generated_Source\PSoC4/CyFlash.c **** *
ARM GAS  C:\Users\ddemidov\AppData\Local\Temp\ccf2WIYM.s 			page 3


  91:.\Generated_Source\PSoC4/CyFlash.c **** *******************************************************************************/
  92:.\Generated_Source\PSoC4/CyFlash.c **** uint32 CySysFlashWriteRow(uint32 rowNum, const uint8 rowData[])
  93:.\Generated_Source\PSoC4/CyFlash.c **** {
  94:.\Generated_Source\PSoC4/CyFlash.c ****     volatile uint32 retValue = CY_SYS_FLASH_SUCCESS;
  95:.\Generated_Source\PSoC4/CyFlash.c ****     volatile uint32 clkCnfRetValue = CY_SYS_FLASH_SUCCESS;
  96:.\Generated_Source\PSoC4/CyFlash.c ****     volatile uint32 parameters[(CY_FLASH_SIZEOF_ROW + CY_FLASH_SRAM_ROM_DATA) / sizeof(uint32)];
  97:.\Generated_Source\PSoC4/CyFlash.c ****     uint8  interruptState;
  98:.\Generated_Source\PSoC4/CyFlash.c **** 
  99:.\Generated_Source\PSoC4/CyFlash.c ****     #if (CY_FLASH_CHECKSUM_WORKAROUND)
 100:.\Generated_Source\PSoC4/CyFlash.c ****         uint32 needChecksumWorkaround = 0u;
 101:.\Generated_Source\PSoC4/CyFlash.c ****         uint32 savedIndex = 0u;
 102:.\Generated_Source\PSoC4/CyFlash.c ****         uint32 savedValue = 0u;
 103:.\Generated_Source\PSoC4/CyFlash.c ****         uint32 checksum = 0u;
 104:.\Generated_Source\PSoC4/CyFlash.c ****         uint32 bits = 0u;
 105:.\Generated_Source\PSoC4/CyFlash.c ****         uint32 i;
 106:.\Generated_Source\PSoC4/CyFlash.c ****     #endif  /* (CY_FLASH_CHECKSUM_WORKAROUND) */
 107:.\Generated_Source\PSoC4/CyFlash.c **** 
 108:.\Generated_Source\PSoC4/CyFlash.c ****     if ((rowNum < CY_FLASH_NUMBER_ROWS) && (rowData != 0u))
 109:.\Generated_Source\PSoC4/CyFlash.c ****     {
 110:.\Generated_Source\PSoC4/CyFlash.c ****         /* Copy data to be written into internal variable */
 111:.\Generated_Source\PSoC4/CyFlash.c ****         (void)memcpy((void *)&parameters[2u], rowData, CY_FLASH_SIZEOF_ROW);
 112:.\Generated_Source\PSoC4/CyFlash.c **** 
 113:.\Generated_Source\PSoC4/CyFlash.c ****         #if (CY_FLASH_CHECKSUM_WORKAROUND)
 114:.\Generated_Source\PSoC4/CyFlash.c **** 
 115:.\Generated_Source\PSoC4/CyFlash.c ****             for (i = 2u; i < ((CY_FLASH_SIZEOF_ROW / sizeof(uint32)) + 2u); i++)
 116:.\Generated_Source\PSoC4/CyFlash.c ****             {
 117:.\Generated_Source\PSoC4/CyFlash.c ****                 uint32 tmp = parameters[i];
 118:.\Generated_Source\PSoC4/CyFlash.c ****                 if (tmp != 0u)
 119:.\Generated_Source\PSoC4/CyFlash.c ****                 {
 120:.\Generated_Source\PSoC4/CyFlash.c ****                     checksum += tmp;
 121:.\Generated_Source\PSoC4/CyFlash.c ****                     bits |= tmp;
 122:.\Generated_Source\PSoC4/CyFlash.c ****                     savedIndex = i;
 123:.\Generated_Source\PSoC4/CyFlash.c ****                 }
 124:.\Generated_Source\PSoC4/CyFlash.c ****             }
 125:.\Generated_Source\PSoC4/CyFlash.c **** 
 126:.\Generated_Source\PSoC4/CyFlash.c ****             needChecksumWorkaround = ((checksum == 0u) && (bits != 0u)) ? 1u : 0u;
 127:.\Generated_Source\PSoC4/CyFlash.c ****             if (needChecksumWorkaround != 0u)
 128:.\Generated_Source\PSoC4/CyFlash.c ****             {
 129:.\Generated_Source\PSoC4/CyFlash.c ****                 savedValue = parameters[savedIndex];
 130:.\Generated_Source\PSoC4/CyFlash.c ****                 parameters[savedIndex] = 0u;
 131:.\Generated_Source\PSoC4/CyFlash.c ****             }
 132:.\Generated_Source\PSoC4/CyFlash.c ****         #endif  /* (CY_FLASH_CHECKSUM_WORKAROUND) */
 133:.\Generated_Source\PSoC4/CyFlash.c **** 
 134:.\Generated_Source\PSoC4/CyFlash.c ****         /* Load Flash Bytes */
 135:.\Generated_Source\PSoC4/CyFlash.c ****         parameters[0u] = (uint32) (CY_FLASH_GET_MACRO_FROM_ROW(rowNum)        << CY_FLASH_PARAM_MAC
 136:.\Generated_Source\PSoC4/CyFlash.c ****                          (uint32) (CY_FLASH_PAGE_LATCH_START_ADDR             << CY_FLASH_PARAM_ADD
 137:.\Generated_Source\PSoC4/CyFlash.c ****                          (uint32) (CY_FLASH_KEY_TWO(CY_FLASH_API_OPCODE_LOAD) << CY_FLASH_PARAM_KEY
 138:.\Generated_Source\PSoC4/CyFlash.c ****                          CY_FLASH_KEY_ONE;
 139:.\Generated_Source\PSoC4/CyFlash.c ****         parameters[1u] = CY_FLASH_SIZEOF_ROW - 1u;
 140:.\Generated_Source\PSoC4/CyFlash.c **** 
 141:.\Generated_Source\PSoC4/CyFlash.c ****         CY_FLASH_CPUSS_SYSARG_REG = (uint32) &parameters[0u];
 142:.\Generated_Source\PSoC4/CyFlash.c ****         CY_FLASH_CPUSS_SYSREQ_REG = CY_FLASH_CPUSS_REQ_START | CY_FLASH_API_OPCODE_LOAD;
 143:.\Generated_Source\PSoC4/CyFlash.c ****         retValue = CY_FLASH_API_RETURN;
 144:.\Generated_Source\PSoC4/CyFlash.c **** 
 145:.\Generated_Source\PSoC4/CyFlash.c ****         if(retValue == CY_SYS_FLASH_SUCCESS)
 146:.\Generated_Source\PSoC4/CyFlash.c ****         {
 147:.\Generated_Source\PSoC4/CyFlash.c ****             /***************************************************************
ARM GAS  C:\Users\ddemidov\AppData\Local\Temp\ccf2WIYM.s 			page 4


 148:.\Generated_Source\PSoC4/CyFlash.c ****             * Mask all the exceptions to guarantee that Flash write will
 149:.\Generated_Source\PSoC4/CyFlash.c ****             * occur in the atomic way. It will not affect system call
 150:.\Generated_Source\PSoC4/CyFlash.c ****             * execution (flash row write) since it is executed in the NMI
 151:.\Generated_Source\PSoC4/CyFlash.c ****             * context.
 152:.\Generated_Source\PSoC4/CyFlash.c ****             ***************************************************************/
 153:.\Generated_Source\PSoC4/CyFlash.c ****             interruptState = CyEnterCriticalSection();
 154:.\Generated_Source\PSoC4/CyFlash.c **** 
 155:.\Generated_Source\PSoC4/CyFlash.c ****             clkCnfRetValue = CySysFlashClockBackup();
 156:.\Generated_Source\PSoC4/CyFlash.c **** 
 157:.\Generated_Source\PSoC4/CyFlash.c ****         #if(CY_IP_SPCIF_SYNCHRONOUS)
 158:.\Generated_Source\PSoC4/CyFlash.c ****             if(clkCnfRetValue == CY_SYS_FLASH_SUCCESS)
 159:.\Generated_Source\PSoC4/CyFlash.c ****             {
 160:.\Generated_Source\PSoC4/CyFlash.c ****                 retValue = CySysFlashClockConfig();
 161:.\Generated_Source\PSoC4/CyFlash.c ****             }
 162:.\Generated_Source\PSoC4/CyFlash.c ****         #endif  /* (CY_IP_SPCIF_SYNCHRONOUS) */
 163:.\Generated_Source\PSoC4/CyFlash.c **** 
 164:.\Generated_Source\PSoC4/CyFlash.c ****             if(retValue == CY_SYS_FLASH_SUCCESS)
 165:.\Generated_Source\PSoC4/CyFlash.c ****             {
 166:.\Generated_Source\PSoC4/CyFlash.c ****                 /* Write Row */
 167:.\Generated_Source\PSoC4/CyFlash.c ****                 parameters[0u]  = (uint32) (((uint32) CY_FLASH_KEY_TWO(CY_FLASH_API_OPCODE_WRITE_RO
 168:.\Generated_Source\PSoC4/CyFlash.c ****                 parameters[0u] |= (uint32)(rowNum << 16u);
 169:.\Generated_Source\PSoC4/CyFlash.c **** 
 170:.\Generated_Source\PSoC4/CyFlash.c ****                 CY_FLASH_CPUSS_SYSARG_REG = (uint32) &parameters[0u];
 171:.\Generated_Source\PSoC4/CyFlash.c ****                 CY_FLASH_CPUSS_SYSREQ_REG = CY_FLASH_CPUSS_REQ_START | CY_FLASH_API_OPCODE_WRITE_RO
 172:.\Generated_Source\PSoC4/CyFlash.c ****                 retValue = CY_FLASH_API_RETURN;
 173:.\Generated_Source\PSoC4/CyFlash.c ****             }
 174:.\Generated_Source\PSoC4/CyFlash.c **** 
 175:.\Generated_Source\PSoC4/CyFlash.c ****             #if (CY_FLASH_CHECKSUM_WORKAROUND)
 176:.\Generated_Source\PSoC4/CyFlash.c **** 
 177:.\Generated_Source\PSoC4/CyFlash.c ****                 if ((retValue == CYRET_SUCCESS) && (needChecksumWorkaround != 0u))
 178:.\Generated_Source\PSoC4/CyFlash.c ****                 {
 179:.\Generated_Source\PSoC4/CyFlash.c ****                     (void)memset((void *)&parameters[2u], 0, CY_FLASH_SIZEOF_ROW);
 180:.\Generated_Source\PSoC4/CyFlash.c ****                     parameters[savedIndex] = savedValue;
 181:.\Generated_Source\PSoC4/CyFlash.c **** 
 182:.\Generated_Source\PSoC4/CyFlash.c ****                     /* Load Flash Bytes */
 183:.\Generated_Source\PSoC4/CyFlash.c ****                     parameters[0u] = (uint32) (CY_FLASH_GET_MACRO_FROM_ROW(rowNum)        << CY_FLA
 184:.\Generated_Source\PSoC4/CyFlash.c ****                                      (uint32) (CY_FLASH_PAGE_LATCH_START_ADDR             << CY_FLA
 185:.\Generated_Source\PSoC4/CyFlash.c ****                                      (uint32) (CY_FLASH_KEY_TWO(CY_FLASH_API_OPCODE_LOAD) << CY_FLA
 186:.\Generated_Source\PSoC4/CyFlash.c ****                                      CY_FLASH_KEY_ONE;
 187:.\Generated_Source\PSoC4/CyFlash.c ****                     parameters[1u] = CY_FLASH_SIZEOF_ROW - 1u;
 188:.\Generated_Source\PSoC4/CyFlash.c **** 
 189:.\Generated_Source\PSoC4/CyFlash.c ****                     CY_FLASH_CPUSS_SYSARG_REG = (uint32) &parameters[0u];
 190:.\Generated_Source\PSoC4/CyFlash.c ****                     CY_FLASH_CPUSS_SYSREQ_REG = CY_FLASH_CPUSS_REQ_START | CY_FLASH_API_OPCODE_LOAD
 191:.\Generated_Source\PSoC4/CyFlash.c ****                     retValue = CY_FLASH_API_RETURN;
 192:.\Generated_Source\PSoC4/CyFlash.c **** 
 193:.\Generated_Source\PSoC4/CyFlash.c **** 
 194:.\Generated_Source\PSoC4/CyFlash.c ****                     if(retValue == CY_SYS_FLASH_SUCCESS)
 195:.\Generated_Source\PSoC4/CyFlash.c ****                     {
 196:.\Generated_Source\PSoC4/CyFlash.c ****                         /* Program Row */
 197:.\Generated_Source\PSoC4/CyFlash.c ****                         parameters[0u]  =
 198:.\Generated_Source\PSoC4/CyFlash.c ****                             (uint32) (((uint32) CY_FLASH_KEY_TWO(CY_FLASH_API_OPCODE_PROGRAM_ROW) <
 199:.\Generated_Source\PSoC4/CyFlash.c ****                                                     CY_FLASH_PARAM_KEY_TWO_OFFSET) | CY_FLASH_KEY_O
 200:.\Generated_Source\PSoC4/CyFlash.c ****                         parameters[0u] |= (uint32)(rowNum << 16u);
 201:.\Generated_Source\PSoC4/CyFlash.c **** 
 202:.\Generated_Source\PSoC4/CyFlash.c ****                         CY_FLASH_CPUSS_SYSARG_REG = (uint32) &parameters[0u];
 203:.\Generated_Source\PSoC4/CyFlash.c ****                         CY_FLASH_CPUSS_SYSREQ_REG = CY_FLASH_CPUSS_REQ_START | CY_FLASH_API_OPCODE_
 204:.\Generated_Source\PSoC4/CyFlash.c ****                         retValue = CY_FLASH_API_RETURN;
ARM GAS  C:\Users\ddemidov\AppData\Local\Temp\ccf2WIYM.s 			page 5


 205:.\Generated_Source\PSoC4/CyFlash.c ****                     }
 206:.\Generated_Source\PSoC4/CyFlash.c ****                 }
 207:.\Generated_Source\PSoC4/CyFlash.c ****             #endif  /* (CY_FLASH_CHECKSUM_WORKAROUND) */
 208:.\Generated_Source\PSoC4/CyFlash.c **** 
 209:.\Generated_Source\PSoC4/CyFlash.c ****             if(clkCnfRetValue == CY_SYS_FLASH_SUCCESS)
 210:.\Generated_Source\PSoC4/CyFlash.c ****             {
 211:.\Generated_Source\PSoC4/CyFlash.c ****                 clkCnfRetValue = CySysFlashClockRestore();
 212:.\Generated_Source\PSoC4/CyFlash.c ****             }
 213:.\Generated_Source\PSoC4/CyFlash.c **** 
 214:.\Generated_Source\PSoC4/CyFlash.c ****             CyExitCriticalSection(interruptState);
 215:.\Generated_Source\PSoC4/CyFlash.c ****         }
 216:.\Generated_Source\PSoC4/CyFlash.c ****     }
 217:.\Generated_Source\PSoC4/CyFlash.c ****     else
 218:.\Generated_Source\PSoC4/CyFlash.c ****     {
 219:.\Generated_Source\PSoC4/CyFlash.c ****         retValue = CY_SYS_FLASH_INVALID_ADDR;
 220:.\Generated_Source\PSoC4/CyFlash.c ****     }
 221:.\Generated_Source\PSoC4/CyFlash.c **** 
 222:.\Generated_Source\PSoC4/CyFlash.c ****     return (retValue);
 223:.\Generated_Source\PSoC4/CyFlash.c **** }
 224:.\Generated_Source\PSoC4/CyFlash.c **** 
 225:.\Generated_Source\PSoC4/CyFlash.c **** 
 226:.\Generated_Source\PSoC4/CyFlash.c **** /*******************************************************************************
 227:.\Generated_Source\PSoC4/CyFlash.c **** * Function Name: CySysFlashSetWaitCycles
 228:.\Generated_Source\PSoC4/CyFlash.c **** ********************************************************************************
 229:.\Generated_Source\PSoC4/CyFlash.c **** *
 230:.\Generated_Source\PSoC4/CyFlash.c **** * Summary:
 231:.\Generated_Source\PSoC4/CyFlash.c **** *  Sets the number of clock cycles the cache will wait before it samples data
 232:.\Generated_Source\PSoC4/CyFlash.c **** *  coming back from Flash. This function must be called before increasing the
 233:.\Generated_Source\PSoC4/CyFlash.c **** *  SYSCLK clock frequency. It can optionally be called after lowering SYSCLK
 234:.\Generated_Source\PSoC4/CyFlash.c **** *  clock frequency in order to improve the CPU performance.
 235:.\Generated_Source\PSoC4/CyFlash.c **** *
 236:.\Generated_Source\PSoC4/CyFlash.c **** * Parameters:
 237:.\Generated_Source\PSoC4/CyFlash.c **** *  freq: The System clock frequency in MHz. Note: Invalid frequency will be
 238:.\Generated_Source\PSoC4/CyFlash.c **** *  ignored in Release mode and the CPU will be halted if project is compiled in
 239:.\Generated_Source\PSoC4/CyFlash.c **** *  Debug mode.
 240:.\Generated_Source\PSoC4/CyFlash.c **** *
 241:.\Generated_Source\PSoC4/CyFlash.c **** * Return:
 242:.\Generated_Source\PSoC4/CyFlash.c **** *  None
 243:.\Generated_Source\PSoC4/CyFlash.c **** *
 244:.\Generated_Source\PSoC4/CyFlash.c **** *******************************************************************************/
 245:.\Generated_Source\PSoC4/CyFlash.c **** void CySysFlashSetWaitCycles(uint32 freq)
 246:.\Generated_Source\PSoC4/CyFlash.c **** {
 247:.\Generated_Source\PSoC4/CyFlash.c ****     uint8  interruptState;
 248:.\Generated_Source\PSoC4/CyFlash.c **** 
 249:.\Generated_Source\PSoC4/CyFlash.c ****     interruptState = CyEnterCriticalSection();
 250:.\Generated_Source\PSoC4/CyFlash.c **** 
 251:.\Generated_Source\PSoC4/CyFlash.c ****     #if (CY_IP_CPUSS)
 252:.\Generated_Source\PSoC4/CyFlash.c **** 
 253:.\Generated_Source\PSoC4/CyFlash.c ****         if ( freq <= CY_FLASH_SYSCLK_BOUNDARY_MHZ )
 254:.\Generated_Source\PSoC4/CyFlash.c ****         {
 255:.\Generated_Source\PSoC4/CyFlash.c ****             CY_SYS_CLK_SELECT_REG &= (uint32)(~CY_FLASH_WAIT_STATE_EN);
 256:.\Generated_Source\PSoC4/CyFlash.c ****         }
 257:.\Generated_Source\PSoC4/CyFlash.c ****         else
 258:.\Generated_Source\PSoC4/CyFlash.c ****         {
 259:.\Generated_Source\PSoC4/CyFlash.c ****             CY_SYS_CLK_SELECT_REG |= CY_FLASH_WAIT_STATE_EN;
 260:.\Generated_Source\PSoC4/CyFlash.c ****         }
 261:.\Generated_Source\PSoC4/CyFlash.c ****     #else /* CY_IP_CPUSSV2 */
ARM GAS  C:\Users\ddemidov\AppData\Local\Temp\ccf2WIYM.s 			page 6


 262:.\Generated_Source\PSoC4/CyFlash.c **** 
 263:.\Generated_Source\PSoC4/CyFlash.c ****         /* CY_IP_FM and CY_IP_FS */
 264:.\Generated_Source\PSoC4/CyFlash.c ****         if (freq <= CY_FLASH_CTL_WS_0_FREQ_MAX)
 265:.\Generated_Source\PSoC4/CyFlash.c ****         {
 266:.\Generated_Source\PSoC4/CyFlash.c ****             CY_FLASH_CTL_REG = (CY_FLASH_CTL_REG & ~CY_FLASH_CTL_WS_MASK) | CY_FLASH_CTL_WS_0_VALUE
 267:.\Generated_Source\PSoC4/CyFlash.c ****         } else
 268:.\Generated_Source\PSoC4/CyFlash.c ****         if (freq <= CY_FLASH_CTL_WS_1_FREQ_MAX)
 269:.\Generated_Source\PSoC4/CyFlash.c ****         {
 270:.\Generated_Source\PSoC4/CyFlash.c ****             CY_FLASH_CTL_REG = (CY_FLASH_CTL_REG & ~CY_FLASH_CTL_WS_MASK) | CY_FLASH_CTL_WS_1_VALUE
 271:.\Generated_Source\PSoC4/CyFlash.c ****         } else
 272:.\Generated_Source\PSoC4/CyFlash.c ****     #if (CY_IP_FMLT || CY_IP_FSLT)
 273:.\Generated_Source\PSoC4/CyFlash.c ****         if (freq <= CY_FLASH_CTL_WS_2_FREQ_MAX)
 274:.\Generated_Source\PSoC4/CyFlash.c ****         {
 275:.\Generated_Source\PSoC4/CyFlash.c ****             CY_FLASH_CTL_REG = (CY_FLASH_CTL_REG & ~CY_FLASH_CTL_WS_MASK) | CY_FLASH_CTL_WS_2_VALUE
 276:.\Generated_Source\PSoC4/CyFlash.c ****         }
 277:.\Generated_Source\PSoC4/CyFlash.c ****         else
 278:.\Generated_Source\PSoC4/CyFlash.c ****     #endif  /* (CY_IP_FMLT || CY_IP_FSLT) */
 279:.\Generated_Source\PSoC4/CyFlash.c ****         {
 280:.\Generated_Source\PSoC4/CyFlash.c ****             /* Halt CPU in debug mode if frequency is invalid */
 281:.\Generated_Source\PSoC4/CyFlash.c ****             CYASSERT(0u != 0u);
 282:.\Generated_Source\PSoC4/CyFlash.c ****         }
 283:.\Generated_Source\PSoC4/CyFlash.c **** 
 284:.\Generated_Source\PSoC4/CyFlash.c ****     #endif  /* (CY_IP_CPUSS) */
 285:.\Generated_Source\PSoC4/CyFlash.c **** 
 286:.\Generated_Source\PSoC4/CyFlash.c ****     CyExitCriticalSection(interruptState);
 287:.\Generated_Source\PSoC4/CyFlash.c **** }
 288:.\Generated_Source\PSoC4/CyFlash.c **** 
 289:.\Generated_Source\PSoC4/CyFlash.c **** #if (CY_SFLASH_XTRA_ROWS)
 290:.\Generated_Source\PSoC4/CyFlash.c **** /*******************************************************************************
 291:.\Generated_Source\PSoC4/CyFlash.c **** * Function Name: CySysSFlashWriteUserRow
 292:.\Generated_Source\PSoC4/CyFlash.c **** ********************************************************************************
 293:.\Generated_Source\PSoC4/CyFlash.c **** *
 294:.\Generated_Source\PSoC4/CyFlash.c **** * Summary:
 295:.\Generated_Source\PSoC4/CyFlash.c **** *  Writes data to a row of SFlash user configurable area.
 296:.\Generated_Source\PSoC4/CyFlash.c **** *
 297:.\Generated_Source\PSoC4/CyFlash.c **** *  This API is applicable for PSoC 4100 BLE, PSoC 4200 BLE, PSoC 4100M,
 298:.\Generated_Source\PSoC4/CyFlash.c **** *  PSoC 4200M, and PSoC 4200L family of devices.
 299:.\Generated_Source\PSoC4/CyFlash.c **** *
 300:.\Generated_Source\PSoC4/CyFlash.c **** * Parameters:
 301:.\Generated_Source\PSoC4/CyFlash.c **** *  uint16 rowNum:
 302:.\Generated_Source\PSoC4/CyFlash.c **** *   The flash row number. The flash row number. The number of the flash rows is
 303:.\Generated_Source\PSoC4/CyFlash.c **** *   defined by the CY_SFLASH_NUMBER_USERROWS macro for the selected device.
 304:.\Generated_Source\PSoC4/CyFlash.c **** *   Valid range is 0-3. Refer to the device TRM for details.
 305:.\Generated_Source\PSoC4/CyFlash.c **** *
 306:.\Generated_Source\PSoC4/CyFlash.c **** *  uint8* rowData:
 307:.\Generated_Source\PSoC4/CyFlash.c **** *   Array of bytes to write. The size of the array must be equal to the flash
 308:.\Generated_Source\PSoC4/CyFlash.c **** *   row size. The flash row size for the selected device is defined by the
 309:.\Generated_Source\PSoC4/CyFlash.c **** *   CY_SFLASH_SIZEOF_USERROW macro. Refer to the device TRM for the details.
 310:.\Generated_Source\PSoC4/CyFlash.c **** *
 311:.\Generated_Source\PSoC4/CyFlash.c **** * Return:
 312:.\Generated_Source\PSoC4/CyFlash.c **** *  Status
 313:.\Generated_Source\PSoC4/CyFlash.c **** *     Value                     Description
 314:.\Generated_Source\PSoC4/CyFlash.c **** *    CY_SYS_SFLASH_SUCCESS          Successful
 315:.\Generated_Source\PSoC4/CyFlash.c **** *    CY_SYS_SFLASH_INVALID_ADDR     Specified flash row address is invalid
 316:.\Generated_Source\PSoC4/CyFlash.c **** *    CY_SYS_SFLASH_PROTECTED        Specified flash row is protected
 317:.\Generated_Source\PSoC4/CyFlash.c **** *    Other non-zero                 Failure
 318:.\Generated_Source\PSoC4/CyFlash.c **** *
ARM GAS  C:\Users\ddemidov\AppData\Local\Temp\ccf2WIYM.s 			page 7


 319:.\Generated_Source\PSoC4/CyFlash.c **** *******************************************************************************/
 320:.\Generated_Source\PSoC4/CyFlash.c **** uint32 CySysSFlashWriteUserRow(uint32 rowNum, const uint8 rowData[])
 321:.\Generated_Source\PSoC4/CyFlash.c **** {
 322:.\Generated_Source\PSoC4/CyFlash.c ****     volatile uint32 retValue = CY_SYS_FLASH_SUCCESS;
 323:.\Generated_Source\PSoC4/CyFlash.c ****     volatile uint32 clkCnfRetValue = CY_SYS_FLASH_SUCCESS;
 324:.\Generated_Source\PSoC4/CyFlash.c ****     volatile uint32 parameters[(CY_FLASH_SIZEOF_ROW + CY_FLASH_SRAM_ROM_DATA)/4u];
 325:.\Generated_Source\PSoC4/CyFlash.c ****     uint8  interruptState;
 326:.\Generated_Source\PSoC4/CyFlash.c **** 
 327:.\Generated_Source\PSoC4/CyFlash.c **** 
 328:.\Generated_Source\PSoC4/CyFlash.c ****     if ((rowNum < CY_SFLASH_NUMBER_USERROWS) && (rowData != 0u))
 329:.\Generated_Source\PSoC4/CyFlash.c ****     {
 330:.\Generated_Source\PSoC4/CyFlash.c ****         /* Load Flash Bytes */
 331:.\Generated_Source\PSoC4/CyFlash.c ****         parameters[0u] = (uint32) (CY_FLASH_GET_MACRO_FROM_ROW(rowNum)        << CY_FLASH_PARAM_MAC
 332:.\Generated_Source\PSoC4/CyFlash.c ****                          (uint32) (CY_FLASH_PAGE_LATCH_START_ADDR             << CY_FLASH_PARAM_ADD
 333:.\Generated_Source\PSoC4/CyFlash.c ****                          (uint32) (CY_FLASH_KEY_TWO(CY_FLASH_API_OPCODE_LOAD) << CY_FLASH_PARAM_KEY
 334:.\Generated_Source\PSoC4/CyFlash.c ****                          CY_FLASH_KEY_ONE;
 335:.\Generated_Source\PSoC4/CyFlash.c ****         parameters[1u] = CY_FLASH_SIZEOF_ROW - 1u;
 336:.\Generated_Source\PSoC4/CyFlash.c **** 
 337:.\Generated_Source\PSoC4/CyFlash.c ****         (void)memcpy((void *)&parameters[2u], rowData, CY_FLASH_SIZEOF_ROW);
 338:.\Generated_Source\PSoC4/CyFlash.c ****         CY_FLASH_CPUSS_SYSARG_REG = (uint32) &parameters[0u];
 339:.\Generated_Source\PSoC4/CyFlash.c ****         CY_FLASH_CPUSS_SYSREQ_REG = CY_FLASH_CPUSS_REQ_START | CY_FLASH_API_OPCODE_LOAD;
 340:.\Generated_Source\PSoC4/CyFlash.c ****         retValue = CY_FLASH_API_RETURN;
 341:.\Generated_Source\PSoC4/CyFlash.c **** 
 342:.\Generated_Source\PSoC4/CyFlash.c ****         if(retValue == CY_SYS_FLASH_SUCCESS)
 343:.\Generated_Source\PSoC4/CyFlash.c ****         {
 344:.\Generated_Source\PSoC4/CyFlash.c ****             /***************************************************************
 345:.\Generated_Source\PSoC4/CyFlash.c ****             * Mask all the exceptions to guarantee that Flash write will
 346:.\Generated_Source\PSoC4/CyFlash.c ****             * occur in the atomic way. It will not affect system call
 347:.\Generated_Source\PSoC4/CyFlash.c ****             * execution (flash row write) since it is executed in the NMI
 348:.\Generated_Source\PSoC4/CyFlash.c ****             * context.
 349:.\Generated_Source\PSoC4/CyFlash.c ****             ***************************************************************/
 350:.\Generated_Source\PSoC4/CyFlash.c ****             interruptState = CyEnterCriticalSection();
 351:.\Generated_Source\PSoC4/CyFlash.c **** 
 352:.\Generated_Source\PSoC4/CyFlash.c ****             clkCnfRetValue = CySysFlashClockBackup();
 353:.\Generated_Source\PSoC4/CyFlash.c **** 
 354:.\Generated_Source\PSoC4/CyFlash.c ****         #if(CY_IP_SPCIF_SYNCHRONOUS)
 355:.\Generated_Source\PSoC4/CyFlash.c ****             if(clkCnfRetValue == CY_SYS_FLASH_SUCCESS)
 356:.\Generated_Source\PSoC4/CyFlash.c ****             {
 357:.\Generated_Source\PSoC4/CyFlash.c ****                 retValue = CySysFlashClockConfig();
 358:.\Generated_Source\PSoC4/CyFlash.c ****             }
 359:.\Generated_Source\PSoC4/CyFlash.c ****         #endif  /* (CY_IP_SPCIF_SYNCHRONOUS) */
 360:.\Generated_Source\PSoC4/CyFlash.c **** 
 361:.\Generated_Source\PSoC4/CyFlash.c ****             if(retValue == CY_SYS_FLASH_SUCCESS)
 362:.\Generated_Source\PSoC4/CyFlash.c ****             {
 363:.\Generated_Source\PSoC4/CyFlash.c ****                 /* Write User Sflash Row */
 364:.\Generated_Source\PSoC4/CyFlash.c ****                 parameters[0u]  = (uint32) (((uint32) CY_FLASH_KEY_TWO(CY_FLASH_API_OPCODE_WRITE_SF
 365:.\Generated_Source\PSoC4/CyFlash.c ****                 parameters[1u] = (uint32) rowNum;
 366:.\Generated_Source\PSoC4/CyFlash.c **** 
 367:.\Generated_Source\PSoC4/CyFlash.c ****                 CY_FLASH_CPUSS_SYSARG_REG = (uint32) &parameters[0u];
 368:.\Generated_Source\PSoC4/CyFlash.c ****                 CY_FLASH_CPUSS_SYSREQ_REG = CY_FLASH_CPUSS_REQ_START | CY_FLASH_API_OPCODE_WRITE_SF
 369:.\Generated_Source\PSoC4/CyFlash.c ****                 retValue = CY_FLASH_API_RETURN;
 370:.\Generated_Source\PSoC4/CyFlash.c ****             }
 371:.\Generated_Source\PSoC4/CyFlash.c **** 
 372:.\Generated_Source\PSoC4/CyFlash.c ****             if(clkCnfRetValue == CY_SYS_FLASH_SUCCESS)
 373:.\Generated_Source\PSoC4/CyFlash.c ****             {
 374:.\Generated_Source\PSoC4/CyFlash.c ****                 clkCnfRetValue = CySysFlashClockRestore();
 375:.\Generated_Source\PSoC4/CyFlash.c ****             }
ARM GAS  C:\Users\ddemidov\AppData\Local\Temp\ccf2WIYM.s 			page 8


 376:.\Generated_Source\PSoC4/CyFlash.c ****             CyExitCriticalSection(interruptState);
 377:.\Generated_Source\PSoC4/CyFlash.c ****         }
 378:.\Generated_Source\PSoC4/CyFlash.c ****     }
 379:.\Generated_Source\PSoC4/CyFlash.c ****     else
 380:.\Generated_Source\PSoC4/CyFlash.c ****     {
 381:.\Generated_Source\PSoC4/CyFlash.c ****         retValue = CY_SYS_FLASH_INVALID_ADDR;
 382:.\Generated_Source\PSoC4/CyFlash.c ****     }
 383:.\Generated_Source\PSoC4/CyFlash.c **** 
 384:.\Generated_Source\PSoC4/CyFlash.c ****     return (retValue);
 385:.\Generated_Source\PSoC4/CyFlash.c **** }
 386:.\Generated_Source\PSoC4/CyFlash.c **** #endif /* (CY_SFLASH_XTRA_ROWS) */
 387:.\Generated_Source\PSoC4/CyFlash.c **** 
 388:.\Generated_Source\PSoC4/CyFlash.c **** 
 389:.\Generated_Source\PSoC4/CyFlash.c **** /*******************************************************************************
 390:.\Generated_Source\PSoC4/CyFlash.c **** * Function Name: CySysFlashClockBackup
 391:.\Generated_Source\PSoC4/CyFlash.c **** ********************************************************************************
 392:.\Generated_Source\PSoC4/CyFlash.c **** *
 393:.\Generated_Source\PSoC4/CyFlash.c **** * Summary:
 394:.\Generated_Source\PSoC4/CyFlash.c **** *  Backups the device clock configuration.
 395:.\Generated_Source\PSoC4/CyFlash.c **** *
 396:.\Generated_Source\PSoC4/CyFlash.c **** * Parameters:
 397:.\Generated_Source\PSoC4/CyFlash.c **** *  None
 398:.\Generated_Source\PSoC4/CyFlash.c **** *
 399:.\Generated_Source\PSoC4/CyFlash.c **** * Return:
 400:.\Generated_Source\PSoC4/CyFlash.c **** *  The same as CySysFlashWriteRow().
 401:.\Generated_Source\PSoC4/CyFlash.c **** *
 402:.\Generated_Source\PSoC4/CyFlash.c **** *******************************************************************************/
 403:.\Generated_Source\PSoC4/CyFlash.c **** static cystatus CySysFlashClockBackup(void)
 404:.\Generated_Source\PSoC4/CyFlash.c **** {
  25              		.loc 1 404 0
  26              		.cfi_startproc
  27              	.LVL0:
  28 0000 82B0     		sub	sp, sp, #8
  29              		.cfi_def_cfa_offset 8
 405:.\Generated_Source\PSoC4/CyFlash.c ****     cystatus retValue = CY_SYS_FLASH_SUCCESS;
 406:.\Generated_Source\PSoC4/CyFlash.c **** #if(!CY_IP_FM)
 407:.\Generated_Source\PSoC4/CyFlash.c ****     #if !(CY_PSOC4_4000)
 408:.\Generated_Source\PSoC4/CyFlash.c ****         #if (CY_IP_SPCIF_SYNCHRONOUS)
 409:.\Generated_Source\PSoC4/CyFlash.c ****             volatile uint32   parameters[2u];
 410:.\Generated_Source\PSoC4/CyFlash.c ****         #endif /* (CY_IP_SPCIF_SYNCHRONOUS) */
 411:.\Generated_Source\PSoC4/CyFlash.c ****     #endif  /* !(CY_PSOC4_4000) */
 412:.\Generated_Source\PSoC4/CyFlash.c **** #endif  /* (!CY_IP_FM) */
 413:.\Generated_Source\PSoC4/CyFlash.c **** 
 414:.\Generated_Source\PSoC4/CyFlash.c **** #if(CY_IP_FM)
 415:.\Generated_Source\PSoC4/CyFlash.c **** 
 416:.\Generated_Source\PSoC4/CyFlash.c ****     /***************************************************************
 417:.\Generated_Source\PSoC4/CyFlash.c ****     * Preserve IMO configuration that could be changed during
 418:.\Generated_Source\PSoC4/CyFlash.c ****     * system call execution (Cypress ID #150448).
 419:.\Generated_Source\PSoC4/CyFlash.c ****     ***************************************************************/
 420:.\Generated_Source\PSoC4/CyFlash.c ****     cySysFlashBackup.imoConfigReg = CY_SYS_CLK_IMO_CONFIG_REG;
 421:.\Generated_Source\PSoC4/CyFlash.c **** 
 422:.\Generated_Source\PSoC4/CyFlash.c **** #else   /* (CY_IP_FMLT) */
 423:.\Generated_Source\PSoC4/CyFlash.c **** 
 424:.\Generated_Source\PSoC4/CyFlash.c ****     #if (CY_PSOC4_4000)
 425:.\Generated_Source\PSoC4/CyFlash.c **** 
 426:.\Generated_Source\PSoC4/CyFlash.c ****         /***************************************************************************
 427:.\Generated_Source\PSoC4/CyFlash.c ****         * Perform firmware clock settings backup for the PSOC4 4000 devices (the
ARM GAS  C:\Users\ddemidov\AppData\Local\Temp\ccf2WIYM.s 			page 9


 428:.\Generated_Source\PSoC4/CyFlash.c ****         * corresponding system call is not available).
 429:.\Generated_Source\PSoC4/CyFlash.c ****         ***************************************************************************/
 430:.\Generated_Source\PSoC4/CyFlash.c **** 
 431:.\Generated_Source\PSoC4/CyFlash.c ****         /***************************************************************************
 432:.\Generated_Source\PSoC4/CyFlash.c ****         * The registers listed below are modified by CySysFlashClockConfig().
 433:.\Generated_Source\PSoC4/CyFlash.c ****         *
 434:.\Generated_Source\PSoC4/CyFlash.c ****         * The registers to be saved:
 435:.\Generated_Source\PSoC4/CyFlash.c ****         * - CY_SYS_CLK_IMO_CONFIG_REG - IMO enable state.
 436:.\Generated_Source\PSoC4/CyFlash.c ****         * - CY_SYS_CLK_SELECT_REG     - HFCLK source, divider, pump source. Save
 437:.\Generated_Source\PSoC4/CyFlash.c ****         *                               entire register as it can be directly
 438:.\Generated_Source\PSoC4/CyFlash.c ****         *                               written on restore (no special
 439:.\Generated_Source\PSoC4/CyFlash.c ****         *                               requirements).
 440:.\Generated_Source\PSoC4/CyFlash.c ****         * - CY_SYS_CLK_IMO_SELECT_REG - Save IMO frequency.
 441:.\Generated_Source\PSoC4/CyFlash.c ****         *
 442:.\Generated_Source\PSoC4/CyFlash.c ****         * The registers not to be saved:
 443:.\Generated_Source\PSoC4/CyFlash.c ****         * - CY_SYS_CLK_IMO_TRIM1_REG  - No need to save. Function of frequency.
 444:.\Generated_Source\PSoC4/CyFlash.c ****         *                               Restored by CySysClkWriteImoFreq().
 445:.\Generated_Source\PSoC4/CyFlash.c ****         * - CY_SYS_CLK_IMO_TRIM3_REG  - No need to save. Function of frequency.
 446:.\Generated_Source\PSoC4/CyFlash.c ****         *                               Restored by CySysClkWriteImoFreq().
 447:.\Generated_Source\PSoC4/CyFlash.c ****         * - REG_CPUSS_FLASH_CTL       - Flash wait cycles. Unmodified due to system
 448:.\Generated_Source\PSoC4/CyFlash.c ****         *                               clock 16 MHz limit.
 449:.\Generated_Source\PSoC4/CyFlash.c ****         ***************************************************************************/
 450:.\Generated_Source\PSoC4/CyFlash.c **** 
 451:.\Generated_Source\PSoC4/CyFlash.c ****         cySysFlashBackup.clkSelectReg = CY_SYS_CLK_SELECT_REG;
 452:.\Generated_Source\PSoC4/CyFlash.c ****         cySysFlashBackup.clkImoEna    = CY_SYS_CLK_IMO_CONFIG_REG & CY_SYS_CLK_IMO_CONFIG_ENABLE;
 453:.\Generated_Source\PSoC4/CyFlash.c ****         cySysFlashBackup.clkImoFreq   = CY_SYS_CLK_IMO_MIN_FREQ_MHZ + (CY_SYS_CLK_IMO_SELECT_REG <<
 454:.\Generated_Source\PSoC4/CyFlash.c **** 
 455:.\Generated_Source\PSoC4/CyFlash.c ****     #else
 456:.\Generated_Source\PSoC4/CyFlash.c **** 
 457:.\Generated_Source\PSoC4/CyFlash.c ****         #if (CY_IP_SPCIF_SYNCHRONOUS)
 458:.\Generated_Source\PSoC4/CyFlash.c ****             /* FM-Lite Clock Backup System Call */
 459:.\Generated_Source\PSoC4/CyFlash.c ****             parameters[0u] =
 460:.\Generated_Source\PSoC4/CyFlash.c ****                 (uint32) ((CY_FLASH_KEY_TWO(CY_FLASH_API_OPCODE_CLK_BACKUP) <<  CY_FLASH_PARAM_KEY_
 461:.\Generated_Source\PSoC4/CyFlash.c ****                             CY_FLASH_KEY_ONE);
 462:.\Generated_Source\PSoC4/CyFlash.c ****             parameters[1u] = (uint32) &cySysFlashBackup.clockSettings[0u];
 463:.\Generated_Source\PSoC4/CyFlash.c ****             CY_FLASH_CPUSS_SYSARG_REG = (uint32) &parameters[0u];
  30              		.loc 1 463 0
  31 0002 6A46     		mov	r2, sp
 459:.\Generated_Source\PSoC4/CyFlash.c ****                 (uint32) ((CY_FLASH_KEY_TWO(CY_FLASH_API_OPCODE_CLK_BACKUP) <<  CY_FLASH_PARAM_KEY_
  32              		.loc 1 459 0
  33 0004 094B     		ldr	r3, .L5
 464:.\Generated_Source\PSoC4/CyFlash.c ****             CY_FLASH_CPUSS_SYSREQ_REG = CY_FLASH_CPUSS_REQ_START | CY_FLASH_API_OPCODE_CLK_BACKUP;
  34              		.loc 1 464 0
  35 0006 0A49     		ldr	r1, .L5+4
 459:.\Generated_Source\PSoC4/CyFlash.c ****                 (uint32) ((CY_FLASH_KEY_TWO(CY_FLASH_API_OPCODE_CLK_BACKUP) <<  CY_FLASH_PARAM_KEY_
  36              		.loc 1 459 0
  37 0008 0093     		str	r3, [sp]
 462:.\Generated_Source\PSoC4/CyFlash.c ****             CY_FLASH_CPUSS_SYSARG_REG = (uint32) &parameters[0u];
  38              		.loc 1 462 0
  39 000a 0A4B     		ldr	r3, .L5+8
 465:.\Generated_Source\PSoC4/CyFlash.c ****             retValue = CY_FLASH_API_RETURN;
  40              		.loc 1 465 0
  41 000c 0020     		mov	r0, #0
 462:.\Generated_Source\PSoC4/CyFlash.c ****             CY_FLASH_CPUSS_SYSARG_REG = (uint32) &parameters[0u];
  42              		.loc 1 462 0
  43 000e 0433     		add	r3, r3, #4
  44 0010 0193     		str	r3, [sp, #4]
ARM GAS  C:\Users\ddemidov\AppData\Local\Temp\ccf2WIYM.s 			page 10


 463:.\Generated_Source\PSoC4/CyFlash.c ****             CY_FLASH_CPUSS_SYSREQ_REG = CY_FLASH_CPUSS_REQ_START | CY_FLASH_API_OPCODE_CLK_BACKUP;
  45              		.loc 1 463 0
  46 0012 094B     		ldr	r3, .L5+12
  47 0014 1A60     		str	r2, [r3]
 464:.\Generated_Source\PSoC4/CyFlash.c ****             retValue = CY_FLASH_API_RETURN;
  48              		.loc 1 464 0
  49 0016 094A     		ldr	r2, .L5+16
  50 0018 1160     		str	r1, [r2]
  51              		.loc 1 465 0
  52 001a 1A68     		ldr	r2, [r3]
  53 001c 120F     		lsr	r2, r2, #28
  54 001e 0A2A     		cmp	r2, #10
  55 0020 02D0     		beq	.L2
  56              		.loc 1 465 0 is_stmt 0 discriminator 1
  57 0022 1868     		ldr	r0, [r3]
  58 0024 0F23     		mov	r3, #15
  59 0026 1840     		and	r0, r3
  60              	.L2:
  61              	.LVL1:
 466:.\Generated_Source\PSoC4/CyFlash.c ****         #endif /* (CY_IP_SPCIF_SYNCHRONOUS) */
 467:.\Generated_Source\PSoC4/CyFlash.c **** 
 468:.\Generated_Source\PSoC4/CyFlash.c ****     #endif  /* (CY_PSOC4_4000) */
 469:.\Generated_Source\PSoC4/CyFlash.c **** 
 470:.\Generated_Source\PSoC4/CyFlash.c **** #endif  /* (CY_IP_FM) */
 471:.\Generated_Source\PSoC4/CyFlash.c **** 
 472:.\Generated_Source\PSoC4/CyFlash.c ****     return (retValue);
 473:.\Generated_Source\PSoC4/CyFlash.c **** }
  62              		.loc 1 473 0 is_stmt 1 discriminator 4
  63 0028 02B0     		add	sp, sp, #8
  64              		@ sp needed
  65 002a 7047     		bx	lr
  66              	.L6:
  67              		.align	2
  68              	.L5:
  69 002c B6E90000 		.word	59830
  70 0030 16000080 		.word	-2147483626
  71 0034 00000000 		.word	.LANCHOR0
  72 0038 08001040 		.word	1074790408
  73 003c 04001040 		.word	1074790404
  74              		.cfi_endproc
  75              	.LFE5:
  76              		.size	CySysFlashClockBackup, .-CySysFlashClockBackup
  77              		.section	.text.CySysFlashClockConfig,"ax",%progbits
  78              		.align	1
  79              		.code	16
  80              		.thumb_func
  81              		.type	CySysFlashClockConfig, %function
  82              	CySysFlashClockConfig:
  83              	.LFB6:
 474:.\Generated_Source\PSoC4/CyFlash.c **** 
 475:.\Generated_Source\PSoC4/CyFlash.c **** 
 476:.\Generated_Source\PSoC4/CyFlash.c **** #if(CY_IP_SPCIF_SYNCHRONOUS)
 477:.\Generated_Source\PSoC4/CyFlash.c **** /*******************************************************************************
 478:.\Generated_Source\PSoC4/CyFlash.c **** * Function Name: CySysFlashClockConfig
 479:.\Generated_Source\PSoC4/CyFlash.c **** ********************************************************************************
 480:.\Generated_Source\PSoC4/CyFlash.c **** *
 481:.\Generated_Source\PSoC4/CyFlash.c **** * Summary:
ARM GAS  C:\Users\ddemidov\AppData\Local\Temp\ccf2WIYM.s 			page 11


 482:.\Generated_Source\PSoC4/CyFlash.c **** *  Configures the device clocks for the flash writing.
 483:.\Generated_Source\PSoC4/CyFlash.c **** *
 484:.\Generated_Source\PSoC4/CyFlash.c **** * Parameters:
 485:.\Generated_Source\PSoC4/CyFlash.c **** *  None
 486:.\Generated_Source\PSoC4/CyFlash.c **** *
 487:.\Generated_Source\PSoC4/CyFlash.c **** * Return:
 488:.\Generated_Source\PSoC4/CyFlash.c **** *  The same as CySysFlashWriteRow().
 489:.\Generated_Source\PSoC4/CyFlash.c **** *
 490:.\Generated_Source\PSoC4/CyFlash.c **** *******************************************************************************/
 491:.\Generated_Source\PSoC4/CyFlash.c **** static cystatus CySysFlashClockConfig(void)
 492:.\Generated_Source\PSoC4/CyFlash.c **** {
  84              		.loc 1 492 0
  85              		.cfi_startproc
  86              	.LVL2:
 493:.\Generated_Source\PSoC4/CyFlash.c ****     cystatus retValue = CY_SYS_FLASH_SUCCESS;
 494:.\Generated_Source\PSoC4/CyFlash.c **** 
 495:.\Generated_Source\PSoC4/CyFlash.c ****     /***************************************************************************
 496:.\Generated_Source\PSoC4/CyFlash.c ****     * The FM-Lite IP uses the IMO at 48MHz for the pump clock and SPC timer
 497:.\Generated_Source\PSoC4/CyFlash.c ****     * clock. The PUMP_SEL and HF clock must be set to IMO before calling Flash
 498:.\Generated_Source\PSoC4/CyFlash.c ****     * write or erase operation.
 499:.\Generated_Source\PSoC4/CyFlash.c ****     ***************************************************************************/
 500:.\Generated_Source\PSoC4/CyFlash.c **** #if (CY_PSOC4_4000)
 501:.\Generated_Source\PSoC4/CyFlash.c **** 
 502:.\Generated_Source\PSoC4/CyFlash.c ****     /***************************************************************************
 503:.\Generated_Source\PSoC4/CyFlash.c ****     * Perform firmware clock settings setup for the PSOC4 4000 devices (the
 504:.\Generated_Source\PSoC4/CyFlash.c ****     * corresponding system call is not reliable):
 505:.\Generated_Source\PSoC4/CyFlash.c ****     * - The IMO frequency should be 48 MHz
 506:.\Generated_Source\PSoC4/CyFlash.c ****     * - The IMO should be source for the HFCLK
 507:.\Generated_Source\PSoC4/CyFlash.c ****     * - The IMO should be the source for the charge pump clock
 508:.\Generated_Source\PSoC4/CyFlash.c ****     *
 509:.\Generated_Source\PSoC4/CyFlash.c ****     * Note The structure members used below are initialized by
 510:.\Generated_Source\PSoC4/CyFlash.c ****     * the CySysFlashClockBackup() function.
 511:.\Generated_Source\PSoC4/CyFlash.c ****     ***************************************************************************/
 512:.\Generated_Source\PSoC4/CyFlash.c ****     if ((cySysFlashBackup.clkImoFreq != 48u) ||
 513:.\Generated_Source\PSoC4/CyFlash.c ****         ((cySysFlashBackup.clkSelectReg & CY_SYS_CLK_SELECT_DIRECT_SEL_MASK) != CY_SYS_CLK_HFCLK_IM
 514:.\Generated_Source\PSoC4/CyFlash.c ****         (((cySysFlashBackup.clkSelectReg >> CY_SYS_CLK_SELECT_PUMP_SEL_SHIFT) & CY_SYS_CLK_SELECT_P
 515:.\Generated_Source\PSoC4/CyFlash.c ****             CY_SYS_CLK_SELECT_PUMP_SEL_IMO))
 516:.\Generated_Source\PSoC4/CyFlash.c ****     {
 517:.\Generated_Source\PSoC4/CyFlash.c ****         /***********************************************************************
 518:.\Generated_Source\PSoC4/CyFlash.c ****          Set HFCLK divider to divide-by-4 to ensure that System clock frequency
 519:.\Generated_Source\PSoC4/CyFlash.c ****         * is within the valid limit (16 MHz for the PSoC4 4000).
 520:.\Generated_Source\PSoC4/CyFlash.c ****         ***********************************************************************/
 521:.\Generated_Source\PSoC4/CyFlash.c ****         CySysClkWriteHfclkDiv(CY_SYS_CLK_HFCLK_DIV_4);
 522:.\Generated_Source\PSoC4/CyFlash.c **** 
 523:.\Generated_Source\PSoC4/CyFlash.c ****         /* The IMO frequency should be 48 MHz */
 524:.\Generated_Source\PSoC4/CyFlash.c ****         if (cySysFlashBackup.clkImoFreq != 48u)
 525:.\Generated_Source\PSoC4/CyFlash.c ****         {
 526:.\Generated_Source\PSoC4/CyFlash.c ****             CySysClkWriteImoFreq(48u);
 527:.\Generated_Source\PSoC4/CyFlash.c ****         }
 528:.\Generated_Source\PSoC4/CyFlash.c ****         CySysClkImoStart();
 529:.\Generated_Source\PSoC4/CyFlash.c **** 
 530:.\Generated_Source\PSoC4/CyFlash.c ****         /* The IMO should be source for the HFCLK */
 531:.\Generated_Source\PSoC4/CyFlash.c ****         CySysClkWriteHfclkDirect(CY_SYS_CLK_HFCLK_IMO);
 532:.\Generated_Source\PSoC4/CyFlash.c **** 
 533:.\Generated_Source\PSoC4/CyFlash.c ****         /* The IMO should be the source for the charge pump clock */
 534:.\Generated_Source\PSoC4/CyFlash.c ****         CY_SYS_CLK_SELECT_REG =  (CY_SYS_CLK_SELECT_REG &
 535:.\Generated_Source\PSoC4/CyFlash.c ****             ((uint32)~(uint32)(CY_SYS_CLK_SELECT_PUMP_SEL_MASK << CY_SYS_CLK_SELECT_PUMP_SEL_SHIFT)
ARM GAS  C:\Users\ddemidov\AppData\Local\Temp\ccf2WIYM.s 			page 12


 536:.\Generated_Source\PSoC4/CyFlash.c ****             ((uint32)((uint32)1u << CY_SYS_CLK_SELECT_PUMP_SEL_SHIFT));
 537:.\Generated_Source\PSoC4/CyFlash.c ****     }
 538:.\Generated_Source\PSoC4/CyFlash.c **** 
 539:.\Generated_Source\PSoC4/CyFlash.c **** #else
 540:.\Generated_Source\PSoC4/CyFlash.c **** 
 541:.\Generated_Source\PSoC4/CyFlash.c ****     /* FM-Lite Clock Configuration */
 542:.\Generated_Source\PSoC4/CyFlash.c ****     CY_FLASH_CPUSS_SYSARG_REG =
  87              		.loc 1 542 0
  88 0000 074B     		ldr	r3, .L10
  89 0002 084A     		ldr	r2, .L10+4
 543:.\Generated_Source\PSoC4/CyFlash.c ****         (uint32) ((CY_FLASH_KEY_TWO(CY_FLASH_API_OPCODE_CLK_CONFIG) <<  CY_FLASH_PARAM_KEY_TWO_OFFS
 544:.\Generated_Source\PSoC4/CyFlash.c ****                     CY_FLASH_KEY_ONE);
 545:.\Generated_Source\PSoC4/CyFlash.c ****     CY_FLASH_CPUSS_SYSREQ_REG = CY_FLASH_CPUSS_REQ_START | CY_FLASH_API_OPCODE_CLK_CONFIG;
  90              		.loc 1 545 0
  91 0004 0849     		ldr	r1, .L10+8
 542:.\Generated_Source\PSoC4/CyFlash.c ****         (uint32) ((CY_FLASH_KEY_TWO(CY_FLASH_API_OPCODE_CLK_CONFIG) <<  CY_FLASH_PARAM_KEY_TWO_OFFS
  92              		.loc 1 542 0
  93 0006 1A60     		str	r2, [r3]
  94              		.loc 1 545 0
  95 0008 084A     		ldr	r2, .L10+12
 546:.\Generated_Source\PSoC4/CyFlash.c ****     retValue = CY_FLASH_API_RETURN;
  96              		.loc 1 546 0
  97 000a 0020     		mov	r0, #0
 545:.\Generated_Source\PSoC4/CyFlash.c ****     retValue = CY_FLASH_API_RETURN;
  98              		.loc 1 545 0
  99 000c 1160     		str	r1, [r2]
 100              		.loc 1 546 0
 101 000e 1A68     		ldr	r2, [r3]
 102 0010 120F     		lsr	r2, r2, #28
 103 0012 0A2A     		cmp	r2, #10
 104 0014 02D0     		beq	.L8
 105              		.loc 1 546 0 is_stmt 0 discriminator 1
 106 0016 1868     		ldr	r0, [r3]
 107 0018 0F23     		mov	r3, #15
 108 001a 1840     		and	r0, r3
 109              	.L8:
 110              	.LVL3:
 547:.\Generated_Source\PSoC4/CyFlash.c **** 
 548:.\Generated_Source\PSoC4/CyFlash.c **** #endif  /* (CY_PSOC4_4000) */
 549:.\Generated_Source\PSoC4/CyFlash.c **** 
 550:.\Generated_Source\PSoC4/CyFlash.c ****     return (retValue);
 551:.\Generated_Source\PSoC4/CyFlash.c **** }
 111              		.loc 1 551 0 is_stmt 1 discriminator 4
 112              		@ sp needed
 113 001c 7047     		bx	lr
 114              	.L11:
 115 001e C046     		.align	2
 116              	.L10:
 117 0020 08001040 		.word	1074790408
 118 0024 B6E80000 		.word	59574
 119 0028 15000080 		.word	-2147483627
 120 002c 04001040 		.word	1074790404
 121              		.cfi_endproc
 122              	.LFE6:
 123              		.size	CySysFlashClockConfig, .-CySysFlashClockConfig
 124              		.section	.text.CySysFlashClockRestore,"ax",%progbits
 125              		.align	1
ARM GAS  C:\Users\ddemidov\AppData\Local\Temp\ccf2WIYM.s 			page 13


 126              		.code	16
 127              		.thumb_func
 128              		.type	CySysFlashClockRestore, %function
 129              	CySysFlashClockRestore:
 130              	.LFB7:
 552:.\Generated_Source\PSoC4/CyFlash.c **** #endif  /* (CY_IP_SPCIF_SYNCHRONOUS) */
 553:.\Generated_Source\PSoC4/CyFlash.c **** 
 554:.\Generated_Source\PSoC4/CyFlash.c **** 
 555:.\Generated_Source\PSoC4/CyFlash.c **** /*******************************************************************************
 556:.\Generated_Source\PSoC4/CyFlash.c **** * Function Name: CySysFlashClockRestore
 557:.\Generated_Source\PSoC4/CyFlash.c **** ********************************************************************************
 558:.\Generated_Source\PSoC4/CyFlash.c **** *
 559:.\Generated_Source\PSoC4/CyFlash.c **** * Summary:
 560:.\Generated_Source\PSoC4/CyFlash.c **** *  Restores the device clock configuration.
 561:.\Generated_Source\PSoC4/CyFlash.c **** *
 562:.\Generated_Source\PSoC4/CyFlash.c **** * Parameters:
 563:.\Generated_Source\PSoC4/CyFlash.c **** *  None
 564:.\Generated_Source\PSoC4/CyFlash.c **** *
 565:.\Generated_Source\PSoC4/CyFlash.c **** * Return:
 566:.\Generated_Source\PSoC4/CyFlash.c **** *  The same as CySysFlashWriteRow().
 567:.\Generated_Source\PSoC4/CyFlash.c **** *
 568:.\Generated_Source\PSoC4/CyFlash.c **** *******************************************************************************/
 569:.\Generated_Source\PSoC4/CyFlash.c **** static cystatus CySysFlashClockRestore(void)
 570:.\Generated_Source\PSoC4/CyFlash.c **** {
 131              		.loc 1 570 0
 132              		.cfi_startproc
 133              	.LVL4:
 134 0000 82B0     		sub	sp, sp, #8
 135              		.cfi_def_cfa_offset 8
 571:.\Generated_Source\PSoC4/CyFlash.c ****     cystatus retValue = CY_SYS_FLASH_SUCCESS;
 572:.\Generated_Source\PSoC4/CyFlash.c **** #if(!CY_IP_FM)
 573:.\Generated_Source\PSoC4/CyFlash.c ****     #if !(CY_PSOC4_4000)
 574:.\Generated_Source\PSoC4/CyFlash.c ****         #if (CY_IP_SPCIF_SYNCHRONOUS)
 575:.\Generated_Source\PSoC4/CyFlash.c ****             volatile uint32   parameters[2u];
 576:.\Generated_Source\PSoC4/CyFlash.c ****         #endif /* (CY_IP_SPCIF_SYNCHRONOUS) */
 577:.\Generated_Source\PSoC4/CyFlash.c ****     #endif  /* !(CY_PSOC4_4000) */
 578:.\Generated_Source\PSoC4/CyFlash.c **** #endif  /* (!CY_IP_FM) */
 579:.\Generated_Source\PSoC4/CyFlash.c **** 
 580:.\Generated_Source\PSoC4/CyFlash.c **** #if(CY_IP_FM)
 581:.\Generated_Source\PSoC4/CyFlash.c **** 
 582:.\Generated_Source\PSoC4/CyFlash.c ****     /***************************************************************
 583:.\Generated_Source\PSoC4/CyFlash.c ****     * Restore IMO configuration that could be changed during
 584:.\Generated_Source\PSoC4/CyFlash.c ****     * system call execution (Cypress ID #150448).
 585:.\Generated_Source\PSoC4/CyFlash.c ****     ***************************************************************/
 586:.\Generated_Source\PSoC4/CyFlash.c ****     CY_SYS_CLK_IMO_CONFIG_REG = cySysFlashBackup.imoConfigReg;
 587:.\Generated_Source\PSoC4/CyFlash.c **** 
 588:.\Generated_Source\PSoC4/CyFlash.c **** #else
 589:.\Generated_Source\PSoC4/CyFlash.c **** 
 590:.\Generated_Source\PSoC4/CyFlash.c ****     #if (CY_PSOC4_4000)
 591:.\Generated_Source\PSoC4/CyFlash.c **** 
 592:.\Generated_Source\PSoC4/CyFlash.c ****         /***************************************************************************
 593:.\Generated_Source\PSoC4/CyFlash.c ****         * Perform firmware clock settings restore for the PSOC4 4000 devices (the
 594:.\Generated_Source\PSoC4/CyFlash.c ****         * corresponding system call is not available).
 595:.\Generated_Source\PSoC4/CyFlash.c ****         ***************************************************************************/
 596:.\Generated_Source\PSoC4/CyFlash.c **** 
 597:.\Generated_Source\PSoC4/CyFlash.c ****         /* Restore clock settings */
 598:.\Generated_Source\PSoC4/CyFlash.c ****         if ((cySysFlashBackup.clkImoFreq != 48u) ||
ARM GAS  C:\Users\ddemidov\AppData\Local\Temp\ccf2WIYM.s 			page 14


 599:.\Generated_Source\PSoC4/CyFlash.c ****             ((cySysFlashBackup.clkSelectReg & CY_SYS_CLK_SELECT_DIRECT_SEL_MASK) != CY_SYS_CLK_HFCL
 600:.\Generated_Source\PSoC4/CyFlash.c ****             (((cySysFlashBackup.clkSelectReg >> CY_SYS_CLK_SELECT_PUMP_SEL_SHIFT) & CY_SYS_CLK_SELE
 601:.\Generated_Source\PSoC4/CyFlash.c ****                 CY_SYS_CLK_SELECT_PUMP_SEL_IMO))
 602:.\Generated_Source\PSoC4/CyFlash.c ****         {
 603:.\Generated_Source\PSoC4/CyFlash.c ****             /* Restore IMO frequency if needed */
 604:.\Generated_Source\PSoC4/CyFlash.c ****             if (cySysFlashBackup.clkImoFreq != 48u)
 605:.\Generated_Source\PSoC4/CyFlash.c ****             {
 606:.\Generated_Source\PSoC4/CyFlash.c ****                 CySysClkWriteImoFreq(cySysFlashBackup.clkImoFreq);
 607:.\Generated_Source\PSoC4/CyFlash.c ****             }
 608:.\Generated_Source\PSoC4/CyFlash.c **** 
 609:.\Generated_Source\PSoC4/CyFlash.c ****             /* Restore HFCLK clock source */
 610:.\Generated_Source\PSoC4/CyFlash.c ****             CySysClkWriteHfclkDirect(cySysFlashBackup.clkSelectReg & CY_SYS_CLK_SELECT_DIRECT_SEL_M
 611:.\Generated_Source\PSoC4/CyFlash.c **** 
 612:.\Generated_Source\PSoC4/CyFlash.c ****             /* Restore HFCLK divider and source for pump  */
 613:.\Generated_Source\PSoC4/CyFlash.c ****             CY_SYS_CLK_SELECT_REG = cySysFlashBackup.clkSelectReg;
 614:.\Generated_Source\PSoC4/CyFlash.c **** 
 615:.\Generated_Source\PSoC4/CyFlash.c ****             /* Stop IMO if needed */
 616:.\Generated_Source\PSoC4/CyFlash.c ****             if (0u == cySysFlashBackup.clkImoEna)
 617:.\Generated_Source\PSoC4/CyFlash.c ****             {
 618:.\Generated_Source\PSoC4/CyFlash.c ****                 CySysClkImoStop();
 619:.\Generated_Source\PSoC4/CyFlash.c ****             }
 620:.\Generated_Source\PSoC4/CyFlash.c ****         }
 621:.\Generated_Source\PSoC4/CyFlash.c **** 
 622:.\Generated_Source\PSoC4/CyFlash.c ****     #else
 623:.\Generated_Source\PSoC4/CyFlash.c **** 
 624:.\Generated_Source\PSoC4/CyFlash.c ****         #if (CY_IP_SPCIF_SYNCHRONOUS)
 625:.\Generated_Source\PSoC4/CyFlash.c ****             /* FM-Lite Clock Restore */
 626:.\Generated_Source\PSoC4/CyFlash.c ****             parameters[0u] =
 627:.\Generated_Source\PSoC4/CyFlash.c ****                 (uint32) ((CY_FLASH_KEY_TWO(CY_FLASH_API_OPCODE_CLK_RESTORE) <<  CY_FLASH_PARAM_KEY
 628:.\Generated_Source\PSoC4/CyFlash.c ****                             CY_FLASH_KEY_ONE);
 629:.\Generated_Source\PSoC4/CyFlash.c ****             parameters[1u] = (uint32) &cySysFlashBackup.clockSettings[0u];
 630:.\Generated_Source\PSoC4/CyFlash.c ****             CY_FLASH_CPUSS_SYSARG_REG = (uint32) &parameters[0u];
 136              		.loc 1 630 0
 137 0002 6A46     		mov	r2, sp
 626:.\Generated_Source\PSoC4/CyFlash.c ****                 (uint32) ((CY_FLASH_KEY_TWO(CY_FLASH_API_OPCODE_CLK_RESTORE) <<  CY_FLASH_PARAM_KEY
 138              		.loc 1 626 0
 139 0004 094B     		ldr	r3, .L15
 631:.\Generated_Source\PSoC4/CyFlash.c ****             CY_FLASH_CPUSS_SYSREQ_REG = CY_FLASH_CPUSS_REQ_START | CY_FLASH_API_OPCODE_CLK_RESTORE;
 140              		.loc 1 631 0
 141 0006 0A49     		ldr	r1, .L15+4
 626:.\Generated_Source\PSoC4/CyFlash.c ****                 (uint32) ((CY_FLASH_KEY_TWO(CY_FLASH_API_OPCODE_CLK_RESTORE) <<  CY_FLASH_PARAM_KEY
 142              		.loc 1 626 0
 143 0008 0093     		str	r3, [sp]
 629:.\Generated_Source\PSoC4/CyFlash.c ****             CY_FLASH_CPUSS_SYSARG_REG = (uint32) &parameters[0u];
 144              		.loc 1 629 0
 145 000a 0A4B     		ldr	r3, .L15+8
 632:.\Generated_Source\PSoC4/CyFlash.c ****             retValue = CY_FLASH_API_RETURN;
 146              		.loc 1 632 0
 147 000c 0020     		mov	r0, #0
 629:.\Generated_Source\PSoC4/CyFlash.c ****             CY_FLASH_CPUSS_SYSARG_REG = (uint32) &parameters[0u];
 148              		.loc 1 629 0
 149 000e 0433     		add	r3, r3, #4
 150 0010 0193     		str	r3, [sp, #4]
 630:.\Generated_Source\PSoC4/CyFlash.c ****             CY_FLASH_CPUSS_SYSREQ_REG = CY_FLASH_CPUSS_REQ_START | CY_FLASH_API_OPCODE_CLK_RESTORE;
 151              		.loc 1 630 0
 152 0012 094B     		ldr	r3, .L15+12
 153 0014 1A60     		str	r2, [r3]
ARM GAS  C:\Users\ddemidov\AppData\Local\Temp\ccf2WIYM.s 			page 15


 631:.\Generated_Source\PSoC4/CyFlash.c ****             retValue = CY_FLASH_API_RETURN;
 154              		.loc 1 631 0
 155 0016 094A     		ldr	r2, .L15+16
 156 0018 1160     		str	r1, [r2]
 157              		.loc 1 632 0
 158 001a 1A68     		ldr	r2, [r3]
 159 001c 120F     		lsr	r2, r2, #28
 160 001e 0A2A     		cmp	r2, #10
 161 0020 02D0     		beq	.L13
 162              		.loc 1 632 0 is_stmt 0 discriminator 1
 163 0022 1868     		ldr	r0, [r3]
 164 0024 0F23     		mov	r3, #15
 165 0026 1840     		and	r0, r3
 166              	.L13:
 167              	.LVL5:
 633:.\Generated_Source\PSoC4/CyFlash.c ****         #endif /* (CY_IP_SPCIF_SYNCHRONOUS) */
 634:.\Generated_Source\PSoC4/CyFlash.c **** 
 635:.\Generated_Source\PSoC4/CyFlash.c ****     #endif  /* (CY_PSOC4_4000) */
 636:.\Generated_Source\PSoC4/CyFlash.c **** 
 637:.\Generated_Source\PSoC4/CyFlash.c **** #endif  /* (CY_IP_FM) */
 638:.\Generated_Source\PSoC4/CyFlash.c **** 
 639:.\Generated_Source\PSoC4/CyFlash.c ****     return (retValue);
 640:.\Generated_Source\PSoC4/CyFlash.c **** }
 168              		.loc 1 640 0 is_stmt 1 discriminator 4
 169 0028 02B0     		add	sp, sp, #8
 170              		@ sp needed
 171 002a 7047     		bx	lr
 172              	.L16:
 173              		.align	2
 174              	.L15:
 175 002c B6EA0000 		.word	60086
 176 0030 17000080 		.word	-2147483625
 177 0034 00000000 		.word	.LANCHOR0
 178 0038 08001040 		.word	1074790408
 179 003c 04001040 		.word	1074790404
 180              		.cfi_endproc
 181              	.LFE7:
 182              		.size	CySysFlashClockRestore, .-CySysFlashClockRestore
 183              		.section	.text.CySysFlashWriteRow,"ax",%progbits
 184              		.align	1
 185              		.global	CySysFlashWriteRow
 186              		.code	16
 187              		.thumb_func
 188              		.type	CySysFlashWriteRow, %function
 189              	CySysFlashWriteRow:
 190              	.LFB2:
  93:.\Generated_Source\PSoC4/CyFlash.c ****     volatile uint32 retValue = CY_SYS_FLASH_SUCCESS;
 191              		.loc 1 93 0
 192              		.cfi_startproc
 193              	.LVL6:
  94:.\Generated_Source\PSoC4/CyFlash.c ****     volatile uint32 clkCnfRetValue = CY_SYS_FLASH_SUCCESS;
 194              		.loc 1 94 0
 195 0000 0023     		mov	r3, #0
  93:.\Generated_Source\PSoC4/CyFlash.c ****     volatile uint32 retValue = CY_SYS_FLASH_SUCCESS;
 196              		.loc 1 93 0
 197 0002 F0B5     		push	{r4, r5, r6, r7, lr}
 198              		.cfi_def_cfa_offset 20
ARM GAS  C:\Users\ddemidov\AppData\Local\Temp\ccf2WIYM.s 			page 16


 199              		.cfi_offset 4, -20
 200              		.cfi_offset 5, -16
 201              		.cfi_offset 6, -12
 202              		.cfi_offset 7, -8
 203              		.cfi_offset 14, -4
 204 0004 A7B0     		sub	sp, sp, #156
 205              		.cfi_def_cfa_offset 176
  94:.\Generated_Source\PSoC4/CyFlash.c ****     volatile uint32 clkCnfRetValue = CY_SYS_FLASH_SUCCESS;
 206              		.loc 1 94 0
 207 0006 0293     		str	r3, [sp, #8]
  95:.\Generated_Source\PSoC4/CyFlash.c ****     volatile uint32 parameters[(CY_FLASH_SIZEOF_ROW + CY_FLASH_SRAM_ROM_DATA) / sizeof(uint32)];
 208              		.loc 1 95 0
 209 0008 0393     		str	r3, [sp, #12]
 108:.\Generated_Source\PSoC4/CyFlash.c ****     {
 210              		.loc 1 108 0
 211 000a 2B4B     		ldr	r3, .L31
 212 000c 9842     		cmp	r0, r3
 213 000e 4DD8     		bhi	.L18
 108:.\Generated_Source\PSoC4/CyFlash.c ****     {
 214              		.loc 1 108 0 is_stmt 0 discriminator 1
 215 0010 0029     		cmp	r1, #0
 216 0012 4BD0     		beq	.L18
 217 0014 051C     		mov	r5, r0
 111:.\Generated_Source\PSoC4/CyFlash.c **** 
 218              		.loc 1 111 0 is_stmt 1
 219 0016 8022     		mov	r2, #128
 220 0018 06A8     		add	r0, sp, #24
 221              	.LVL7:
 222 001a FFF7FEFF 		bl	memcpy
 223              	.LVL8:
 137:.\Generated_Source\PSoC4/CyFlash.c ****                          CY_FLASH_KEY_ONE;
 224              		.loc 1 137 0
 225 001e 274B     		ldr	r3, .L31+4
 226 0020 9D42     		cmp	r5, r3
 227 0022 01D8     		bhi	.L26
 228 0024 264B     		ldr	r3, .L31+8
 229 0026 00E0     		b	.L19
 230              	.L26:
 231 0028 264B     		ldr	r3, .L31+12
 232              	.L19:
 135:.\Generated_Source\PSoC4/CyFlash.c ****                          (uint32) (CY_FLASH_PAGE_LATCH_START_ADDR             << CY_FLASH_PARAM_ADD
 233              		.loc 1 135 0
 234 002a 0493     		str	r3, [sp, #16]
 139:.\Generated_Source\PSoC4/CyFlash.c **** 
 235              		.loc 1 139 0
 236 002c 7F23     		mov	r3, #127
 135:.\Generated_Source\PSoC4/CyFlash.c ****                          (uint32) (CY_FLASH_PAGE_LATCH_START_ADDR             << CY_FLASH_PARAM_ADD
 237              		.loc 1 135 0
 238 002e 04AE     		add	r6, sp, #16
 139:.\Generated_Source\PSoC4/CyFlash.c **** 
 239              		.loc 1 139 0
 240 0030 7360     		str	r3, [r6, #4]
 141:.\Generated_Source\PSoC4/CyFlash.c ****         CY_FLASH_CPUSS_SYSREQ_REG = CY_FLASH_CPUSS_REQ_START | CY_FLASH_API_OPCODE_LOAD;
 241              		.loc 1 141 0
 242 0032 254C     		ldr	r4, .L31+16
 142:.\Generated_Source\PSoC4/CyFlash.c ****         retValue = CY_FLASH_API_RETURN;
 243              		.loc 1 142 0
ARM GAS  C:\Users\ddemidov\AppData\Local\Temp\ccf2WIYM.s 			page 17


 244 0034 254B     		ldr	r3, .L31+20
 245 0036 264A     		ldr	r2, .L31+24
 141:.\Generated_Source\PSoC4/CyFlash.c ****         CY_FLASH_CPUSS_SYSREQ_REG = CY_FLASH_CPUSS_REQ_START | CY_FLASH_API_OPCODE_LOAD;
 246              		.loc 1 141 0
 247 0038 2660     		str	r6, [r4]
 142:.\Generated_Source\PSoC4/CyFlash.c ****         retValue = CY_FLASH_API_RETURN;
 248              		.loc 1 142 0
 249 003a 1A60     		str	r2, [r3]
 143:.\Generated_Source\PSoC4/CyFlash.c **** 
 250              		.loc 1 143 0
 251 003c 2268     		ldr	r2, [r4]
 252 003e 1F1C     		mov	r7, r3
 253 0040 120F     		lsr	r2, r2, #28
 254 0042 0023     		mov	r3, #0
 255 0044 0A2A     		cmp	r2, #10
 256 0046 02D0     		beq	.L20
 143:.\Generated_Source\PSoC4/CyFlash.c **** 
 257              		.loc 1 143 0 is_stmt 0 discriminator 1
 258 0048 2268     		ldr	r2, [r4]
 259 004a 0F33     		add	r3, r3, #15
 260 004c 1340     		and	r3, r2
 261              	.L20:
 143:.\Generated_Source\PSoC4/CyFlash.c **** 
 262              		.loc 1 143 0 discriminator 4
 263 004e 0293     		str	r3, [sp, #8]
 145:.\Generated_Source\PSoC4/CyFlash.c ****         {
 264              		.loc 1 145 0 is_stmt 1 discriminator 4
 265 0050 029B     		ldr	r3, [sp, #8]
 266 0052 002B     		cmp	r3, #0
 267 0054 2CD1     		bne	.L21
 153:.\Generated_Source\PSoC4/CyFlash.c **** 
 268              		.loc 1 153 0
 269 0056 FFF7FEFF 		bl	CyEnterCriticalSection
 270              	.LVL9:
 271 005a 0190     		str	r0, [sp, #4]
 272              	.LVL10:
 155:.\Generated_Source\PSoC4/CyFlash.c **** 
 273              		.loc 1 155 0
 274 005c FFF7FEFF 		bl	CySysFlashClockBackup
 275              	.LVL11:
 276 0060 0390     		str	r0, [sp, #12]
 158:.\Generated_Source\PSoC4/CyFlash.c ****             {
 277              		.loc 1 158 0
 278 0062 039B     		ldr	r3, [sp, #12]
 279 0064 002B     		cmp	r3, #0
 280 0066 02D1     		bne	.L22
 160:.\Generated_Source\PSoC4/CyFlash.c ****             }
 281              		.loc 1 160 0
 282 0068 FFF7FEFF 		bl	CySysFlashClockConfig
 283              	.LVL12:
 284 006c 0290     		str	r0, [sp, #8]
 285              	.L22:
 164:.\Generated_Source\PSoC4/CyFlash.c ****             {
 286              		.loc 1 164 0
 287 006e 029B     		ldr	r3, [sp, #8]
 288 0070 002B     		cmp	r3, #0
 289 0072 11D1     		bne	.L23
ARM GAS  C:\Users\ddemidov\AppData\Local\Temp\ccf2WIYM.s 			page 18


 167:.\Generated_Source\PSoC4/CyFlash.c ****                 parameters[0u] |= (uint32)(rowNum << 16u);
 290              		.loc 1 167 0
 291 0074 174A     		ldr	r2, .L31+28
 168:.\Generated_Source\PSoC4/CyFlash.c **** 
 292              		.loc 1 168 0
 293 0076 2D04     		lsl	r5, r5, #16
 294              	.LVL13:
 167:.\Generated_Source\PSoC4/CyFlash.c ****                 parameters[0u] |= (uint32)(rowNum << 16u);
 295              		.loc 1 167 0
 296 0078 0492     		str	r2, [sp, #16]
 168:.\Generated_Source\PSoC4/CyFlash.c **** 
 297              		.loc 1 168 0
 298 007a 0498     		ldr	r0, [sp, #16]
 171:.\Generated_Source\PSoC4/CyFlash.c ****                 retValue = CY_FLASH_API_RETURN;
 299              		.loc 1 171 0
 300 007c 164A     		ldr	r2, .L31+32
 168:.\Generated_Source\PSoC4/CyFlash.c **** 
 301              		.loc 1 168 0
 302 007e 0543     		orr	r5, r0
 303 0080 0495     		str	r5, [sp, #16]
 170:.\Generated_Source\PSoC4/CyFlash.c ****                 CY_FLASH_CPUSS_SYSREQ_REG = CY_FLASH_CPUSS_REQ_START | CY_FLASH_API_OPCODE_WRITE_RO
 304              		.loc 1 170 0
 305 0082 2660     		str	r6, [r4]
 171:.\Generated_Source\PSoC4/CyFlash.c ****                 retValue = CY_FLASH_API_RETURN;
 306              		.loc 1 171 0
 307 0084 3A60     		str	r2, [r7]
 172:.\Generated_Source\PSoC4/CyFlash.c ****             }
 308              		.loc 1 172 0
 309 0086 2268     		ldr	r2, [r4]
 310 0088 120F     		lsr	r2, r2, #28
 311 008a 0A2A     		cmp	r2, #10
 312 008c 03D0     		beq	.L24
 172:.\Generated_Source\PSoC4/CyFlash.c ****             }
 313              		.loc 1 172 0 is_stmt 0 discriminator 1
 314 008e 0E4B     		ldr	r3, .L31+16
 315 0090 1A68     		ldr	r2, [r3]
 316 0092 0F23     		mov	r3, #15
 317 0094 1340     		and	r3, r2
 318              	.L24:
 172:.\Generated_Source\PSoC4/CyFlash.c ****             }
 319              		.loc 1 172 0 discriminator 4
 320 0096 0293     		str	r3, [sp, #8]
 321              	.L23:
 209:.\Generated_Source\PSoC4/CyFlash.c ****             {
 322              		.loc 1 209 0 is_stmt 1
 323 0098 039B     		ldr	r3, [sp, #12]
 324 009a 002B     		cmp	r3, #0
 325 009c 02D1     		bne	.L25
 211:.\Generated_Source\PSoC4/CyFlash.c ****             }
 326              		.loc 1 211 0
 327 009e FFF7FEFF 		bl	CySysFlashClockRestore
 328              	.LVL14:
 329 00a2 0390     		str	r0, [sp, #12]
 330              	.L25:
 214:.\Generated_Source\PSoC4/CyFlash.c ****         }
 331              		.loc 1 214 0
 332 00a4 0198     		ldr	r0, [sp, #4]
ARM GAS  C:\Users\ddemidov\AppData\Local\Temp\ccf2WIYM.s 			page 19


 333 00a6 FFF7FEFF 		bl	CyExitCriticalSection
 334              	.LVL15:
 335 00aa 01E0     		b	.L21
 336              	.LVL16:
 337              	.L18:
 219:.\Generated_Source\PSoC4/CyFlash.c ****     }
 338              		.loc 1 219 0
 339 00ac 0423     		mov	r3, #4
 340 00ae 0293     		str	r3, [sp, #8]
 341              	.LVL17:
 342              	.L21:
 222:.\Generated_Source\PSoC4/CyFlash.c **** }
 343              		.loc 1 222 0
 344 00b0 0298     		ldr	r0, [sp, #8]
 223:.\Generated_Source\PSoC4/CyFlash.c **** 
 345              		.loc 1 223 0
 346 00b2 27B0     		add	sp, sp, #156
 347              		@ sp needed
 348 00b4 F0BD     		pop	{r4, r5, r6, r7, pc}
 349              	.L32:
 350 00b6 C046     		.align	2
 351              	.L31:
 352 00b8 FF030000 		.word	1023
 353 00bc FF010000 		.word	511
 354 00c0 B6D70000 		.word	55222
 355 00c4 B6D70001 		.word	16832438
 356 00c8 08001040 		.word	1074790408
 357 00cc 04001040 		.word	1074790404
 358 00d0 04000080 		.word	-2147483644
 359 00d4 B6D80000 		.word	55478
 360 00d8 05000080 		.word	-2147483643
 361              		.cfi_endproc
 362              	.LFE2:
 363              		.size	CySysFlashWriteRow, .-CySysFlashWriteRow
 364              		.section	.text.CySysFlashSetWaitCycles,"ax",%progbits
 365              		.align	1
 366              		.global	CySysFlashSetWaitCycles
 367              		.code	16
 368              		.thumb_func
 369              		.type	CySysFlashSetWaitCycles, %function
 370              	CySysFlashSetWaitCycles:
 371              	.LFB3:
 246:.\Generated_Source\PSoC4/CyFlash.c ****     uint8  interruptState;
 372              		.loc 1 246 0
 373              		.cfi_startproc
 374              	.LVL18:
 375 0000 38B5     		push	{r3, r4, r5, lr}
 376              		.cfi_def_cfa_offset 16
 377              		.cfi_offset 3, -16
 378              		.cfi_offset 4, -12
 379              		.cfi_offset 5, -8
 380              		.cfi_offset 14, -4
 246:.\Generated_Source\PSoC4/CyFlash.c ****     uint8  interruptState;
 381              		.loc 1 246 0
 382 0002 051C     		mov	r5, r0
 249:.\Generated_Source\PSoC4/CyFlash.c **** 
 383              		.loc 1 249 0
ARM GAS  C:\Users\ddemidov\AppData\Local\Temp\ccf2WIYM.s 			page 20


 384 0004 FFF7FEFF 		bl	CyEnterCriticalSection
 385              	.LVL19:
 386 0008 041C     		mov	r4, r0
 387              	.LVL20:
 264:.\Generated_Source\PSoC4/CyFlash.c ****         {
 388              		.loc 1 264 0
 389 000a 102D     		cmp	r5, #16
 390 000c 04D8     		bhi	.L34
 266:.\Generated_Source\PSoC4/CyFlash.c ****         } else
 391              		.loc 1 266 0
 392 000e 0321     		mov	r1, #3
 393 0010 0E4A     		ldr	r2, .L40
 394 0012 1368     		ldr	r3, [r2]
 395 0014 8B43     		bic	r3, r1
 396 0016 07E0     		b	.L38
 397              	.L34:
 268:.\Generated_Source\PSoC4/CyFlash.c ****         {
 398              		.loc 1 268 0
 399 0018 202D     		cmp	r5, #32
 400 001a 07D8     		bhi	.L36
 270:.\Generated_Source\PSoC4/CyFlash.c ****         } else
 401              		.loc 1 270 0
 402 001c 0321     		mov	r1, #3
 403 001e 0B4A     		ldr	r2, .L40
 404 0020 1368     		ldr	r3, [r2]
 405 0022 8B43     		bic	r3, r1
 406 0024 0239     		sub	r1, r1, #2
 407              	.L39:
 408 0026 0B43     		orr	r3, r1
 409              	.L38:
 410 0028 1360     		str	r3, [r2]
 411 002a 0AE0     		b	.L35
 412              	.L36:
 273:.\Generated_Source\PSoC4/CyFlash.c ****         {
 413              		.loc 1 273 0
 414 002c 302D     		cmp	r5, #48
 415 002e 05D8     		bhi	.L37
 275:.\Generated_Source\PSoC4/CyFlash.c ****         }
 416              		.loc 1 275 0
 417 0030 0321     		mov	r1, #3
 418 0032 064A     		ldr	r2, .L40
 419 0034 1368     		ldr	r3, [r2]
 420 0036 8B43     		bic	r3, r1
 421 0038 0139     		sub	r1, r1, #1
 422 003a F4E7     		b	.L39
 423              	.L37:
 281:.\Generated_Source\PSoC4/CyFlash.c ****         }
 424              		.loc 1 281 0 discriminator 1
 425 003c 0020     		mov	r0, #0
 426 003e FFF7FEFF 		bl	CyHalt
 427              	.LVL21:
 428              	.L35:
 286:.\Generated_Source\PSoC4/CyFlash.c **** }
 429              		.loc 1 286 0
 430 0042 201C     		mov	r0, r4
 431 0044 FFF7FEFF 		bl	CyExitCriticalSection
 432              	.LVL22:
ARM GAS  C:\Users\ddemidov\AppData\Local\Temp\ccf2WIYM.s 			page 21


 287:.\Generated_Source\PSoC4/CyFlash.c **** 
 433              		.loc 1 287 0
 434              		@ sp needed
 435              	.LVL23:
 436              	.LVL24:
 437 0048 38BD     		pop	{r3, r4, r5, pc}
 438              	.L41:
 439 004a C046     		.align	2
 440              	.L40:
 441 004c 30001040 		.word	1074790448
 442              		.cfi_endproc
 443              	.LFE3:
 444              		.size	CySysFlashSetWaitCycles, .-CySysFlashSetWaitCycles
 445              		.section	.text.CySysSFlashWriteUserRow,"ax",%progbits
 446              		.align	1
 447              		.global	CySysSFlashWriteUserRow
 448              		.code	16
 449              		.thumb_func
 450              		.type	CySysSFlashWriteUserRow, %function
 451              	CySysSFlashWriteUserRow:
 452              	.LFB4:
 321:.\Generated_Source\PSoC4/CyFlash.c ****     volatile uint32 retValue = CY_SYS_FLASH_SUCCESS;
 453              		.loc 1 321 0
 454              		.cfi_startproc
 455              	.LVL25:
 456 0000 F0B5     		push	{r4, r5, r6, r7, lr}
 457              		.cfi_def_cfa_offset 20
 458              		.cfi_offset 4, -20
 459              		.cfi_offset 5, -16
 460              		.cfi_offset 6, -12
 461              		.cfi_offset 7, -8
 462              		.cfi_offset 14, -4
 322:.\Generated_Source\PSoC4/CyFlash.c ****     volatile uint32 clkCnfRetValue = CY_SYS_FLASH_SUCCESS;
 463              		.loc 1 322 0
 464 0002 0024     		mov	r4, #0
 321:.\Generated_Source\PSoC4/CyFlash.c ****     volatile uint32 retValue = CY_SYS_FLASH_SUCCESS;
 465              		.loc 1 321 0
 466 0004 A7B0     		sub	sp, sp, #156
 467              		.cfi_def_cfa_offset 176
 322:.\Generated_Source\PSoC4/CyFlash.c ****     volatile uint32 clkCnfRetValue = CY_SYS_FLASH_SUCCESS;
 468              		.loc 1 322 0
 469 0006 0294     		str	r4, [sp, #8]
 323:.\Generated_Source\PSoC4/CyFlash.c ****     volatile uint32 parameters[(CY_FLASH_SIZEOF_ROW + CY_FLASH_SRAM_ROM_DATA)/4u];
 470              		.loc 1 323 0
 471 0008 0394     		str	r4, [sp, #12]
 328:.\Generated_Source\PSoC4/CyFlash.c ****     {
 472              		.loc 1 328 0
 473 000a 0328     		cmp	r0, #3
 474 000c 44D8     		bhi	.L43
 328:.\Generated_Source\PSoC4/CyFlash.c ****     {
 475              		.loc 1 328 0 is_stmt 0 discriminator 1
 476 000e A142     		cmp	r1, r4
 477 0010 42D0     		beq	.L43
 331:.\Generated_Source\PSoC4/CyFlash.c ****                          (uint32) (CY_FLASH_PAGE_LATCH_START_ADDR             << CY_FLASH_PARAM_ADD
 478              		.loc 1 331 0 is_stmt 1
 479 0012 244B     		ldr	r3, .L54
 480 0014 0190     		str	r0, [sp, #4]
ARM GAS  C:\Users\ddemidov\AppData\Local\Temp\ccf2WIYM.s 			page 22


 481 0016 0493     		str	r3, [sp, #16]
 335:.\Generated_Source\PSoC4/CyFlash.c **** 
 482              		.loc 1 335 0
 483 0018 7F23     		mov	r3, #127
 331:.\Generated_Source\PSoC4/CyFlash.c ****                          (uint32) (CY_FLASH_PAGE_LATCH_START_ADDR             << CY_FLASH_PARAM_ADD
 484              		.loc 1 331 0
 485 001a 04AF     		add	r7, sp, #16
 337:.\Generated_Source\PSoC4/CyFlash.c ****         CY_FLASH_CPUSS_SYSARG_REG = (uint32) &parameters[0u];
 486              		.loc 1 337 0
 487 001c 06A8     		add	r0, sp, #24
 488              	.LVL26:
 489 001e 8022     		mov	r2, #128
 335:.\Generated_Source\PSoC4/CyFlash.c **** 
 490              		.loc 1 335 0
 491 0020 7B60     		str	r3, [r7, #4]
 338:.\Generated_Source\PSoC4/CyFlash.c ****         CY_FLASH_CPUSS_SYSREQ_REG = CY_FLASH_CPUSS_REQ_START | CY_FLASH_API_OPCODE_LOAD;
 492              		.loc 1 338 0
 493 0022 214D     		ldr	r5, .L54+4
 337:.\Generated_Source\PSoC4/CyFlash.c ****         CY_FLASH_CPUSS_SYSARG_REG = (uint32) &parameters[0u];
 494              		.loc 1 337 0
 495 0024 FFF7FEFF 		bl	memcpy
 496              	.LVL27:
 339:.\Generated_Source\PSoC4/CyFlash.c ****         retValue = CY_FLASH_API_RETURN;
 497              		.loc 1 339 0
 498 0028 204E     		ldr	r6, .L54+8
 499 002a 214B     		ldr	r3, .L54+12
 338:.\Generated_Source\PSoC4/CyFlash.c ****         CY_FLASH_CPUSS_SYSREQ_REG = CY_FLASH_CPUSS_REQ_START | CY_FLASH_API_OPCODE_LOAD;
 500              		.loc 1 338 0
 501 002c 2F60     		str	r7, [r5]
 339:.\Generated_Source\PSoC4/CyFlash.c ****         retValue = CY_FLASH_API_RETURN;
 502              		.loc 1 339 0
 503 002e 3360     		str	r3, [r6]
 340:.\Generated_Source\PSoC4/CyFlash.c **** 
 504              		.loc 1 340 0
 505 0030 2B68     		ldr	r3, [r5]
 506 0032 1B0F     		lsr	r3, r3, #28
 507 0034 0A2B     		cmp	r3, #10
 508 0036 02D0     		beq	.L44
 340:.\Generated_Source\PSoC4/CyFlash.c **** 
 509              		.loc 1 340 0 is_stmt 0 discriminator 1
 510 0038 0F23     		mov	r3, #15
 511 003a 2C68     		ldr	r4, [r5]
 512 003c 1C40     		and	r4, r3
 513              	.L44:
 340:.\Generated_Source\PSoC4/CyFlash.c **** 
 514              		.loc 1 340 0 discriminator 4
 515 003e 0294     		str	r4, [sp, #8]
 342:.\Generated_Source\PSoC4/CyFlash.c ****         {
 516              		.loc 1 342 0 is_stmt 1 discriminator 4
 517 0040 029B     		ldr	r3, [sp, #8]
 518 0042 002B     		cmp	r3, #0
 519 0044 2AD1     		bne	.L45
 350:.\Generated_Source\PSoC4/CyFlash.c **** 
 520              		.loc 1 350 0
 521 0046 FFF7FEFF 		bl	CyEnterCriticalSection
 522              	.LVL28:
 523 004a 041C     		mov	r4, r0
ARM GAS  C:\Users\ddemidov\AppData\Local\Temp\ccf2WIYM.s 			page 23


 524              	.LVL29:
 352:.\Generated_Source\PSoC4/CyFlash.c **** 
 525              		.loc 1 352 0
 526 004c FFF7FEFF 		bl	CySysFlashClockBackup
 527              	.LVL30:
 528 0050 0390     		str	r0, [sp, #12]
 355:.\Generated_Source\PSoC4/CyFlash.c ****             {
 529              		.loc 1 355 0
 530 0052 039B     		ldr	r3, [sp, #12]
 531 0054 002B     		cmp	r3, #0
 532 0056 02D1     		bne	.L46
 357:.\Generated_Source\PSoC4/CyFlash.c ****             }
 533              		.loc 1 357 0
 534 0058 FFF7FEFF 		bl	CySysFlashClockConfig
 535              	.LVL31:
 536 005c 0290     		str	r0, [sp, #8]
 537              	.L46:
 361:.\Generated_Source\PSoC4/CyFlash.c ****             {
 538              		.loc 1 361 0
 539 005e 029B     		ldr	r3, [sp, #8]
 540 0060 002B     		cmp	r3, #0
 541 0062 0FD1     		bne	.L47
 364:.\Generated_Source\PSoC4/CyFlash.c ****                 parameters[1u] = (uint32) rowNum;
 542              		.loc 1 364 0
 543 0064 134A     		ldr	r2, .L54+16
 544 0066 0492     		str	r2, [sp, #16]
 365:.\Generated_Source\PSoC4/CyFlash.c **** 
 545              		.loc 1 365 0
 546 0068 019A     		ldr	r2, [sp, #4]
 547 006a 7A60     		str	r2, [r7, #4]
 368:.\Generated_Source\PSoC4/CyFlash.c ****                 retValue = CY_FLASH_API_RETURN;
 548              		.loc 1 368 0
 549 006c 124A     		ldr	r2, .L54+20
 367:.\Generated_Source\PSoC4/CyFlash.c ****                 CY_FLASH_CPUSS_SYSREQ_REG = CY_FLASH_CPUSS_REQ_START | CY_FLASH_API_OPCODE_WRITE_SF
 550              		.loc 1 367 0
 551 006e 2F60     		str	r7, [r5]
 368:.\Generated_Source\PSoC4/CyFlash.c ****                 retValue = CY_FLASH_API_RETURN;
 552              		.loc 1 368 0
 553 0070 3260     		str	r2, [r6]
 369:.\Generated_Source\PSoC4/CyFlash.c ****             }
 554              		.loc 1 369 0
 555 0072 2A68     		ldr	r2, [r5]
 556 0074 120F     		lsr	r2, r2, #28
 557 0076 0A2A     		cmp	r2, #10
 558 0078 03D0     		beq	.L48
 369:.\Generated_Source\PSoC4/CyFlash.c ****             }
 559              		.loc 1 369 0 is_stmt 0 discriminator 1
 560 007a 0B4B     		ldr	r3, .L54+4
 561 007c 1A68     		ldr	r2, [r3]
 562 007e 0F23     		mov	r3, #15
 563 0080 1340     		and	r3, r2
 564              	.L48:
 369:.\Generated_Source\PSoC4/CyFlash.c ****             }
 565              		.loc 1 369 0 discriminator 4
 566 0082 0293     		str	r3, [sp, #8]
 567              	.L47:
 372:.\Generated_Source\PSoC4/CyFlash.c ****             {
ARM GAS  C:\Users\ddemidov\AppData\Local\Temp\ccf2WIYM.s 			page 24


 568              		.loc 1 372 0 is_stmt 1
 569 0084 039B     		ldr	r3, [sp, #12]
 570 0086 002B     		cmp	r3, #0
 571 0088 02D1     		bne	.L49
 374:.\Generated_Source\PSoC4/CyFlash.c ****             }
 572              		.loc 1 374 0
 573 008a FFF7FEFF 		bl	CySysFlashClockRestore
 574              	.LVL32:
 575 008e 0390     		str	r0, [sp, #12]
 576              	.L49:
 376:.\Generated_Source\PSoC4/CyFlash.c ****         }
 577              		.loc 1 376 0
 578 0090 201C     		mov	r0, r4
 579 0092 FFF7FEFF 		bl	CyExitCriticalSection
 580              	.LVL33:
 581 0096 01E0     		b	.L45
 582              	.LVL34:
 583              	.L43:
 381:.\Generated_Source\PSoC4/CyFlash.c ****     }
 584              		.loc 1 381 0
 585 0098 0423     		mov	r3, #4
 586 009a 0293     		str	r3, [sp, #8]
 587              	.LVL35:
 588              	.L45:
 384:.\Generated_Source\PSoC4/CyFlash.c **** }
 589              		.loc 1 384 0
 590 009c 0298     		ldr	r0, [sp, #8]
 385:.\Generated_Source\PSoC4/CyFlash.c **** #endif /* (CY_SFLASH_XTRA_ROWS) */
 591              		.loc 1 385 0
 592 009e 27B0     		add	sp, sp, #156
 593              		@ sp needed
 594 00a0 F0BD     		pop	{r4, r5, r6, r7, pc}
 595              	.L55:
 596 00a2 C046     		.align	2
 597              	.L54:
 598 00a4 B6D70000 		.word	55222
 599 00a8 08001040 		.word	1074790408
 600 00ac 04001040 		.word	1074790404
 601 00b0 04000080 		.word	-2147483644
 602 00b4 B6EB0000 		.word	60342
 603 00b8 18000080 		.word	-2147483624
 604              		.cfi_endproc
 605              	.LFE4:
 606              		.size	CySysSFlashWriteUserRow, .-CySysSFlashWriteUserRow
 607              		.bss
 608              		.align	2
 609              		.set	.LANCHOR0,. + 0
 610              		.type	cySysFlashBackup, %object
 611              		.size	cySysFlashBackup, 20
 612              	cySysFlashBackup:
 613 0000 00000000 		.space	20
 613      00000000 
 613      00000000 
 613      00000000 
 613      00000000 
 614              		.text
 615              	.Letext0:
ARM GAS  C:\Users\ddemidov\AppData\Local\Temp\ccf2WIYM.s 			page 25


 616              		.file 2 ".\\Generated_Source\\PSoC4\\cytypes.h"
 617              		.file 3 ".\\Generated_Source\\PSoC4\\CyFlash.h"
 618              		.file 4 ".\\Generated_Source\\PSoC4\\CyLib.h"