ARM GAS  C:\Users\ddemidov\AppData\Local\Temp\ccvWfYq9.s 			page 1


   1              		.cpu cortex-m0
   2              		.fpu softvfp
   3              		.eabi_attribute 20, 1
   4              		.eabi_attribute 21, 1
   5              		.eabi_attribute 23, 3
   6              		.eabi_attribute 24, 1
   7              		.eabi_attribute 25, 1
   8              		.eabi_attribute 26, 1
   9              		.eabi_attribute 30, 4
  10              		.eabi_attribute 34, 0
  11              		.eabi_attribute 18, 4
  12              		.code	16
  13              		.file	"CyLib.c"
  14              		.text
  15              	.Ltext0:
  16              		.cfi_sections	.debug_frame
  17              		.section	.text.CySysClkImoStart,"ax",%progbits
  18              		.align	1
  19              		.global	CySysClkImoStart
  20              		.code	16
  21              		.thumb_func
  22              		.type	CySysClkImoStart, %function
  23              	CySysClkImoStart:
  24              	.LFB2:
  25              		.file 1 ".\\Generated_Source\\PSoC4\\CyLib.c"
   1:.\Generated_Source\PSoC4/CyLib.c **** /*******************************************************************************
   2:.\Generated_Source\PSoC4/CyLib.c **** * File Name: CyLib.c
   3:.\Generated_Source\PSoC4/CyLib.c **** * Version 5.30
   4:.\Generated_Source\PSoC4/CyLib.c **** *
   5:.\Generated_Source\PSoC4/CyLib.c **** *  Description:
   6:.\Generated_Source\PSoC4/CyLib.c **** *   Provides a system API for the Clocking, Interrupts, SysTick, and Voltage
   7:.\Generated_Source\PSoC4/CyLib.c **** *   Detect.
   8:.\Generated_Source\PSoC4/CyLib.c **** *
   9:.\Generated_Source\PSoC4/CyLib.c **** *  Note:
  10:.\Generated_Source\PSoC4/CyLib.c **** *   Documentation of the API's in this file is located in the PSoC 4 System
  11:.\Generated_Source\PSoC4/CyLib.c **** *   Reference Guide provided with PSoC Creator.
  12:.\Generated_Source\PSoC4/CyLib.c **** *
  13:.\Generated_Source\PSoC4/CyLib.c **** ********************************************************************************
  14:.\Generated_Source\PSoC4/CyLib.c **** * Copyright 2010-2015, Cypress Semiconductor Corporation.  All rights reserved.
  15:.\Generated_Source\PSoC4/CyLib.c **** * You may use this file only in accordance with the license, terms, conditions,
  16:.\Generated_Source\PSoC4/CyLib.c **** * disclaimers, and limitations in the end user license agreement accompanying
  17:.\Generated_Source\PSoC4/CyLib.c **** * the software package with which this file was provided.
  18:.\Generated_Source\PSoC4/CyLib.c **** *******************************************************************************/
  19:.\Generated_Source\PSoC4/CyLib.c **** 
  20:.\Generated_Source\PSoC4/CyLib.c **** #include "CyLib.h"
  21:.\Generated_Source\PSoC4/CyLib.c **** 
  22:.\Generated_Source\PSoC4/CyLib.c **** /* CySysClkWriteImoFreq() || CySysClkImoEnableWcoLock() */
  23:.\Generated_Source\PSoC4/CyLib.c **** #if ((CY_IP_SRSSV2 && CY_IP_FMLT) || CY_IP_IMO_TRIMMABLE_BY_WCO)
  24:.\Generated_Source\PSoC4/CyLib.c ****     #include "CyFlash.h"
  25:.\Generated_Source\PSoC4/CyLib.c **** #endif /* (CY_IP_SRSSV2 && CY_IP_FMLT) */
  26:.\Generated_Source\PSoC4/CyLib.c **** 
  27:.\Generated_Source\PSoC4/CyLib.c **** /* Do not use these definitions directly in your application */
  28:.\Generated_Source\PSoC4/CyLib.c **** uint32 cydelayFreqHz  = CYDEV_BCLK__SYSCLK__HZ;
  29:.\Generated_Source\PSoC4/CyLib.c **** uint32 cydelayFreqKhz = (CYDEV_BCLK__SYSCLK__HZ + CY_DELAY_1K_MINUS_1_THRESHOLD) / CY_DELAY_1K_THRE
  30:.\Generated_Source\PSoC4/CyLib.c **** uint8  cydelayFreqMhz = (uint8)((CYDEV_BCLK__SYSCLK__HZ + CY_DELAY_1M_MINUS_1_THRESHOLD) / CY_DELAY
  31:.\Generated_Source\PSoC4/CyLib.c **** uint32 cydelay32kMs   = CY_DELAY_MS_OVERFLOW * ((CYDEV_BCLK__SYSCLK__HZ + CY_DELAY_1K_MINUS_1_THRES
  32:.\Generated_Source\PSoC4/CyLib.c ****                         CY_DELAY_1K_THRESHOLD);
ARM GAS  C:\Users\ddemidov\AppData\Local\Temp\ccvWfYq9.s 			page 2


  33:.\Generated_Source\PSoC4/CyLib.c **** 
  34:.\Generated_Source\PSoC4/CyLib.c **** 
  35:.\Generated_Source\PSoC4/CyLib.c **** static cySysTickCallback CySysTickCallbacks[CY_SYS_SYST_NUM_OF_CALLBACKS];
  36:.\Generated_Source\PSoC4/CyLib.c **** static void CySysTickServiceCallbacks(void);
  37:.\Generated_Source\PSoC4/CyLib.c **** #if (CY_IP_SRSSV2 && CY_IP_PLL)
  38:.\Generated_Source\PSoC4/CyLib.c ****     static uint32 CySysClkPllGetBypassMode(uint32 pll);
  39:.\Generated_Source\PSoC4/CyLib.c ****     static cystatus CySysClkPllConfigChangeAllowed(uint32 pll);
  40:.\Generated_Source\PSoC4/CyLib.c **** #endif /* #if (CY_IP_SRSSV2 && CY_IP_PLL) */
  41:.\Generated_Source\PSoC4/CyLib.c **** 
  42:.\Generated_Source\PSoC4/CyLib.c **** 
  43:.\Generated_Source\PSoC4/CyLib.c **** /*******************************************************************************
  44:.\Generated_Source\PSoC4/CyLib.c **** * Indicates whether or not the SysTick has been initialized. The variable is
  45:.\Generated_Source\PSoC4/CyLib.c **** * initialized to 0 and set to 1 the first time CySysTickStart() is called.
  46:.\Generated_Source\PSoC4/CyLib.c **** *
  47:.\Generated_Source\PSoC4/CyLib.c **** * This allows the component to restart without reinitialization after the first
  48:.\Generated_Source\PSoC4/CyLib.c **** * call to the CySysTickStart() routine.
  49:.\Generated_Source\PSoC4/CyLib.c **** *
  50:.\Generated_Source\PSoC4/CyLib.c **** * If reinitialization of the SysTick is required, call CySysTickInit() before
  51:.\Generated_Source\PSoC4/CyLib.c **** * calling CySysTickStart(). Alternatively, the SysTick can be reinitialized by
  52:.\Generated_Source\PSoC4/CyLib.c **** * calling the CySysTickInit() and CySysTickEnable() functions.
  53:.\Generated_Source\PSoC4/CyLib.c **** *******************************************************************************/
  54:.\Generated_Source\PSoC4/CyLib.c **** uint32 CySysTickInitVar = 0u;
  55:.\Generated_Source\PSoC4/CyLib.c **** 
  56:.\Generated_Source\PSoC4/CyLib.c **** 
  57:.\Generated_Source\PSoC4/CyLib.c **** #if(CY_IP_SRSSV2)
  58:.\Generated_Source\PSoC4/CyLib.c ****         /* Conversion between CySysClkWriteImoFreq() parameter and register's value */
  59:.\Generated_Source\PSoC4/CyLib.c ****         const uint8 cyImoFreqMhz2Reg[CY_SYS_CLK_IMO_FREQ_TABLE_SIZE] = {
  60:.\Generated_Source\PSoC4/CyLib.c ****             /*  3 MHz */ 0x03u,  /*  4 MHz */ 0x04u,  /*  5 MHz */ 0x05u,  /*  6 MHz */ 0x06u,
  61:.\Generated_Source\PSoC4/CyLib.c ****             /*  7 MHz */ 0x07u,  /*  8 MHz */ 0x08u,  /*  9 MHz */ 0x09u,  /* 10 MHz */ 0x0Au,
  62:.\Generated_Source\PSoC4/CyLib.c ****             /* 11 MHz */ 0x0Bu,  /* 12 MHz */ 0x0Cu,  /* 13 MHz */ 0x0Eu,  /* 14 MHz */ 0x0Fu,
  63:.\Generated_Source\PSoC4/CyLib.c ****             /* 15 MHz */ 0x10u,  /* 16 MHz */ 0x11u,  /* 17 MHz */ 0x12u,  /* 18 MHz */ 0x13u,
  64:.\Generated_Source\PSoC4/CyLib.c ****             /* 19 MHz */ 0x14u,  /* 20 MHz */ 0x15u,  /* 21 MHz */ 0x16u,  /* 22 MHz */ 0x17u,
  65:.\Generated_Source\PSoC4/CyLib.c ****             /* 23 MHz */ 0x18u,  /* 24 MHz */ 0x19u,  /* 25 MHz */ 0x1Bu,  /* 26 MHz */ 0x1Cu,
  66:.\Generated_Source\PSoC4/CyLib.c ****             /* 27 MHz */ 0x1Du,  /* 28 MHz */ 0x1Eu,  /* 29 MHz */ 0x1Fu,  /* 30 MHz */ 0x20u,
  67:.\Generated_Source\PSoC4/CyLib.c ****             /* 31 MHz */ 0x21u,  /* 32 MHz */ 0x22u,  /* 33 MHz */ 0x23u,  /* 34 MHz */ 0x25u,
  68:.\Generated_Source\PSoC4/CyLib.c ****             /* 35 MHz */ 0x26u,  /* 36 MHz */ 0x27u,  /* 37 MHz */ 0x28u,  /* 38 MHz */ 0x29u,
  69:.\Generated_Source\PSoC4/CyLib.c ****             /* 39 MHz */ 0x2Au,  /* 40 MHz */ 0x2Bu,  /* 41 MHz */ 0x2Eu,  /* 42 MHz */ 0x2Fu,
  70:.\Generated_Source\PSoC4/CyLib.c ****             /* 43 MHz */ 0x30u,  /* 44 MHz */ 0x31u,  /* 45 MHz */ 0x32u,  /* 46 MHz */ 0x33u,
  71:.\Generated_Source\PSoC4/CyLib.c ****             /* 47 MHz */ 0x34u,  /* 48 MHz */ 0x35u };
  72:.\Generated_Source\PSoC4/CyLib.c **** #endif /* (CY_IP_SRSSV2) */
  73:.\Generated_Source\PSoC4/CyLib.c **** 
  74:.\Generated_Source\PSoC4/CyLib.c **** #if (CY_IP_IMO_TRIMMABLE_BY_WCO)
  75:.\Generated_Source\PSoC4/CyLib.c ****         /* Conversion between IMO frequency and WCO DPLL max offset steps */
  76:.\Generated_Source\PSoC4/CyLib.c ****         const uint8 cyImoFreqMhz2DpllOffset[CY_SYS_CLK_IMO_FREQ_WCO_DPLL_TABLE_SIZE] = {
  77:.\Generated_Source\PSoC4/CyLib.c ****             /* 26 MHz */  238u, /* 27 MHz */  219u, /* 28 MHz */  201u, /* 29 MHz */  185u,
  78:.\Generated_Source\PSoC4/CyLib.c ****             /* 30 MHz */  170u, /* 31 MHz */  155u, /* 32 MHz */  142u, /* 33 MHz */  130u,
  79:.\Generated_Source\PSoC4/CyLib.c ****             /* 34 MHz */  118u, /* 35 MHz */  107u, /* 36 MHz */   96u, /* 37 MHz */  86u,
  80:.\Generated_Source\PSoC4/CyLib.c ****             /* 38 MHz */   77u, /* 39 MHz */   68u, /* 40 MHz */   59u, /* 41 MHz */  51u,
  81:.\Generated_Source\PSoC4/CyLib.c ****             /* 42 MHz */   44u, /* 43 MHz */   36u, /* 44 MHz */   29u, /* 45 MHz */  23u,
  82:.\Generated_Source\PSoC4/CyLib.c ****             /* 46 MHz */   16u, /* 47 MHz */   10u, /* 48 MHz */   4u };
  83:.\Generated_Source\PSoC4/CyLib.c **** #endif /* (CY_IP_IMO_TRIMMABLE_BY_WCO) */
  84:.\Generated_Source\PSoC4/CyLib.c **** 
  85:.\Generated_Source\PSoC4/CyLib.c **** /* Stored CY_SYS_CLK_IMO_TRIM4_REG when modified for USB lock */
  86:.\Generated_Source\PSoC4/CyLib.c **** #if (CY_IP_IMO_TRIMMABLE_BY_USB)
  87:.\Generated_Source\PSoC4/CyLib.c ****         uint32 CySysClkImoTrim4 = 0u;
  88:.\Generated_Source\PSoC4/CyLib.c **** #endif /* (CY_IP_IMO_TRIMMABLE_BY_USB) */
  89:.\Generated_Source\PSoC4/CyLib.c **** 
ARM GAS  C:\Users\ddemidov\AppData\Local\Temp\ccvWfYq9.s 			page 3


  90:.\Generated_Source\PSoC4/CyLib.c **** 
  91:.\Generated_Source\PSoC4/CyLib.c **** /*******************************************************************************
  92:.\Generated_Source\PSoC4/CyLib.c **** * Function Name: CySysClkImoStart
  93:.\Generated_Source\PSoC4/CyLib.c **** ********************************************************************************
  94:.\Generated_Source\PSoC4/CyLib.c **** *
  95:.\Generated_Source\PSoC4/CyLib.c **** * Summary:
  96:.\Generated_Source\PSoC4/CyLib.c **** *  Enables the IMO.
  97:.\Generated_Source\PSoC4/CyLib.c **** *
  98:.\Generated_Source\PSoC4/CyLib.c **** *  For PSoC 4100M / PSoC 4200M devices, this function will also enable WCO lock
  99:.\Generated_Source\PSoC4/CyLib.c **** *  if selected in the Design Wide Resources tab.
 100:.\Generated_Source\PSoC4/CyLib.c **** *
 101:.\Generated_Source\PSoC4/CyLib.c **** *  For PSoC 4200L devices, this function will also enable USB lock if selected
 102:.\Generated_Source\PSoC4/CyLib.c **** *  in the Design Wide Resources tab.
 103:.\Generated_Source\PSoC4/CyLib.c **** *
 104:.\Generated_Source\PSoC4/CyLib.c **** * Parameters:
 105:.\Generated_Source\PSoC4/CyLib.c **** *  None
 106:.\Generated_Source\PSoC4/CyLib.c **** *
 107:.\Generated_Source\PSoC4/CyLib.c **** * Return:
 108:.\Generated_Source\PSoC4/CyLib.c **** *  None
 109:.\Generated_Source\PSoC4/CyLib.c **** *
 110:.\Generated_Source\PSoC4/CyLib.c **** *******************************************************************************/
 111:.\Generated_Source\PSoC4/CyLib.c **** void CySysClkImoStart(void)
 112:.\Generated_Source\PSoC4/CyLib.c **** {
  26              		.loc 1 112 0
  27              		.cfi_startproc
 113:.\Generated_Source\PSoC4/CyLib.c ****     CY_SYS_CLK_IMO_CONFIG_REG |= CY_SYS_CLK_IMO_CONFIG_ENABLE;
  28              		.loc 1 113 0
  29 0000 8021     		mov	r1, #128
  30 0002 034A     		ldr	r2, .L2
  31 0004 0906     		lsl	r1, r1, #24
  32 0006 1368     		ldr	r3, [r2]
 114:.\Generated_Source\PSoC4/CyLib.c **** 
 115:.\Generated_Source\PSoC4/CyLib.c ****     #if (CY_IP_IMO_TRIMMABLE_BY_WCO)
 116:.\Generated_Source\PSoC4/CyLib.c ****         #if (CYDEV_IMO_TRIMMED_BY_WCO == 1u)
 117:.\Generated_Source\PSoC4/CyLib.c ****             CySysClkImoEnableWcoLock();
 118:.\Generated_Source\PSoC4/CyLib.c ****         #endif  /* (CYDEV_IMO_TRIMMED_BY_WCO == 1u) */
 119:.\Generated_Source\PSoC4/CyLib.c ****     #endif  /* (CY_IP_IMO_TRIMMABLE_BY_WCO) */
 120:.\Generated_Source\PSoC4/CyLib.c **** 
 121:.\Generated_Source\PSoC4/CyLib.c **** 
 122:.\Generated_Source\PSoC4/CyLib.c ****     #if (CY_IP_IMO_TRIMMABLE_BY_USB)
 123:.\Generated_Source\PSoC4/CyLib.c ****         #if (CYDEV_IMO_TRIMMED_BY_USB == 1u)
 124:.\Generated_Source\PSoC4/CyLib.c ****             CySysClkImoEnableUsbLock();
 125:.\Generated_Source\PSoC4/CyLib.c ****         #endif  /* (CYDEV_IMO_TRIMMED_BY_USB == 1u) */
 126:.\Generated_Source\PSoC4/CyLib.c ****     #endif  /* (CY_IP_IMO_TRIMMABLE_BY_USB) */
 127:.\Generated_Source\PSoC4/CyLib.c **** 
 128:.\Generated_Source\PSoC4/CyLib.c **** }
  33              		.loc 1 128 0
  34              		@ sp needed
 113:.\Generated_Source\PSoC4/CyLib.c ****     CY_SYS_CLK_IMO_CONFIG_REG |= CY_SYS_CLK_IMO_CONFIG_ENABLE;
  35              		.loc 1 113 0
  36 0008 0B43     		orr	r3, r1
  37 000a 1360     		str	r3, [r2]
  38              		.loc 1 128 0
  39 000c 7047     		bx	lr
  40              	.L3:
  41 000e C046     		.align	2
  42              	.L2:
ARM GAS  C:\Users\ddemidov\AppData\Local\Temp\ccvWfYq9.s 			page 4


  43 0010 08010B40 		.word	1074462984
  44              		.cfi_endproc
  45              	.LFE2:
  46              		.size	CySysClkImoStart, .-CySysClkImoStart
  47              		.section	.text.CySysClkImoStop,"ax",%progbits
  48              		.align	1
  49              		.global	CySysClkImoStop
  50              		.code	16
  51              		.thumb_func
  52              		.type	CySysClkImoStop, %function
  53              	CySysClkImoStop:
  54              	.LFB3:
 129:.\Generated_Source\PSoC4/CyLib.c **** 
 130:.\Generated_Source\PSoC4/CyLib.c **** 
 131:.\Generated_Source\PSoC4/CyLib.c **** /*******************************************************************************
 132:.\Generated_Source\PSoC4/CyLib.c **** * Function Name: CySysClkImoStop
 133:.\Generated_Source\PSoC4/CyLib.c **** ********************************************************************************
 134:.\Generated_Source\PSoC4/CyLib.c **** *
 135:.\Generated_Source\PSoC4/CyLib.c **** * Summary:
 136:.\Generated_Source\PSoC4/CyLib.c **** *  Disables the IMO.
 137:.\Generated_Source\PSoC4/CyLib.c **** *
 138:.\Generated_Source\PSoC4/CyLib.c **** *  For PSoC 4100M/PSoC 4200M devices, this function will also disable WCO lock.
 139:.\Generated_Source\PSoC4/CyLib.c **** *
 140:.\Generated_Source\PSoC4/CyLib.c **** *  For PSoC PSoC 4200L devices, this function will also disable USB lock.
 141:.\Generated_Source\PSoC4/CyLib.c **** *
 142:.\Generated_Source\PSoC4/CyLib.c **** * Parameters:
 143:.\Generated_Source\PSoC4/CyLib.c **** *  None
 144:.\Generated_Source\PSoC4/CyLib.c **** *
 145:.\Generated_Source\PSoC4/CyLib.c **** * Return:
 146:.\Generated_Source\PSoC4/CyLib.c **** *  None
 147:.\Generated_Source\PSoC4/CyLib.c **** *
 148:.\Generated_Source\PSoC4/CyLib.c **** *******************************************************************************/
 149:.\Generated_Source\PSoC4/CyLib.c **** void CySysClkImoStop(void)
 150:.\Generated_Source\PSoC4/CyLib.c **** {
  55              		.loc 1 150 0
  56              		.cfi_startproc
 151:.\Generated_Source\PSoC4/CyLib.c ****     #if (CY_IP_IMO_TRIMMABLE_BY_WCO)
 152:.\Generated_Source\PSoC4/CyLib.c ****         CySysClkImoDisableWcoLock();
 153:.\Generated_Source\PSoC4/CyLib.c ****     #endif  /* (CY_IP_IMO_TRIMMABLE_BY_WCO) */
 154:.\Generated_Source\PSoC4/CyLib.c **** 
 155:.\Generated_Source\PSoC4/CyLib.c ****     #if (CY_IP_IMO_TRIMMABLE_BY_USB)
 156:.\Generated_Source\PSoC4/CyLib.c ****         CySysClkImoDisableUsbLock();
 157:.\Generated_Source\PSoC4/CyLib.c ****     #endif  /* (CY_IP_IMO_TRIMMABLE_BY_USB) */
 158:.\Generated_Source\PSoC4/CyLib.c **** 
 159:.\Generated_Source\PSoC4/CyLib.c ****     CY_SYS_CLK_IMO_CONFIG_REG &= ( uint32 ) ( ~( uint32 )CY_SYS_CLK_IMO_CONFIG_ENABLE);
  57              		.loc 1 159 0
  58 0000 024A     		ldr	r2, .L5
 160:.\Generated_Source\PSoC4/CyLib.c **** }
  59              		.loc 1 160 0
  60              		@ sp needed
 159:.\Generated_Source\PSoC4/CyLib.c **** }
  61              		.loc 1 159 0
  62 0002 1368     		ldr	r3, [r2]
  63 0004 5B00     		lsl	r3, r3, #1
  64 0006 5B08     		lsr	r3, r3, #1
  65 0008 1360     		str	r3, [r2]
  66              		.loc 1 160 0
ARM GAS  C:\Users\ddemidov\AppData\Local\Temp\ccvWfYq9.s 			page 5


  67 000a 7047     		bx	lr
  68              	.L6:
  69              		.align	2
  70              	.L5:
  71 000c 08010B40 		.word	1074462984
  72              		.cfi_endproc
  73              	.LFE3:
  74              		.size	CySysClkImoStop, .-CySysClkImoStop
  75              		.section	.text.CySysClkWriteHfclkDirect,"ax",%progbits
  76              		.align	1
  77              		.global	CySysClkWriteHfclkDirect
  78              		.code	16
  79              		.thumb_func
  80              		.type	CySysClkWriteHfclkDirect, %function
  81              	CySysClkWriteHfclkDirect:
  82              	.LFB4:
 161:.\Generated_Source\PSoC4/CyLib.c **** 
 162:.\Generated_Source\PSoC4/CyLib.c **** #if (CY_IP_IMO_TRIMMABLE_BY_WCO)
 163:.\Generated_Source\PSoC4/CyLib.c **** 
 164:.\Generated_Source\PSoC4/CyLib.c ****     /*******************************************************************************
 165:.\Generated_Source\PSoC4/CyLib.c ****     * Function Name: CySysClkImoEnableWcoLock
 166:.\Generated_Source\PSoC4/CyLib.c ****     ********************************************************************************
 167:.\Generated_Source\PSoC4/CyLib.c ****     *
 168:.\Generated_Source\PSoC4/CyLib.c ****     * Summary:
 169:.\Generated_Source\PSoC4/CyLib.c ****     *  Enables the IMO to WCO lock feature. This function works only if the WCO is
 170:.\Generated_Source\PSoC4/CyLib.c ****     *  already enabled. If the WCO is not enabled then this function returns
 171:.\Generated_Source\PSoC4/CyLib.c ****     *  without enabling the lock feature.
 172:.\Generated_Source\PSoC4/CyLib.c ****     *
 173:.\Generated_Source\PSoC4/CyLib.c ****     *  It takes up to 20 ms for the IMO to stabilize. The delay is implemented with
 174:.\Generated_Source\PSoC4/CyLib.c ****     *  CyDelay() function. The delay interval is measured based on the system
 175:.\Generated_Source\PSoC4/CyLib.c ****     *  frequency defined by PSoC Creator at build time. If System clock frequency
 176:.\Generated_Source\PSoC4/CyLib.c ****     *  is changed in runtime, the CyDelayFreq() with the appropriate parameter
 177:.\Generated_Source\PSoC4/CyLib.c ****     *  should be called.
 178:.\Generated_Source\PSoC4/CyLib.c ****     *
 179:.\Generated_Source\PSoC4/CyLib.c ****     *  For PSoC 4200L devices, note that the IMO can lock to either WCO or USB
 180:.\Generated_Source\PSoC4/CyLib.c ****     *  but not both.
 181:.\Generated_Source\PSoC4/CyLib.c ****     *
 182:.\Generated_Source\PSoC4/CyLib.c ****     *  This function is applicable for PSoC 4100M, PSoC 4200M and  PSoC 4200L.
 183:.\Generated_Source\PSoC4/CyLib.c ****     *
 184:.\Generated_Source\PSoC4/CyLib.c ****     * Parameters:
 185:.\Generated_Source\PSoC4/CyLib.c ****     *  None
 186:.\Generated_Source\PSoC4/CyLib.c ****     *
 187:.\Generated_Source\PSoC4/CyLib.c ****     * Return:
 188:.\Generated_Source\PSoC4/CyLib.c ****     *  None
 189:.\Generated_Source\PSoC4/CyLib.c ****     *
 190:.\Generated_Source\PSoC4/CyLib.c ****     *******************************************************************************/
 191:.\Generated_Source\PSoC4/CyLib.c ****     void CySysClkImoEnableWcoLock(void)
 192:.\Generated_Source\PSoC4/CyLib.c ****     {
 193:.\Generated_Source\PSoC4/CyLib.c ****         uint32 i;
 194:.\Generated_Source\PSoC4/CyLib.c ****         uint32 freq = CY_SYS_CLK_IMO_MIN_FREQ_MHZ;
 195:.\Generated_Source\PSoC4/CyLib.c ****         uint8  interruptState;
 196:.\Generated_Source\PSoC4/CyLib.c ****         uint32 regTmp;
 197:.\Generated_Source\PSoC4/CyLib.c ****         uint32 lfLimit = 0u;
 198:.\Generated_Source\PSoC4/CyLib.c ****         volatile uint32 flashCtlReg;
 199:.\Generated_Source\PSoC4/CyLib.c **** 
 200:.\Generated_Source\PSoC4/CyLib.c ****         if (0u != CySysClkWcoEnabled())
 201:.\Generated_Source\PSoC4/CyLib.c ****         {
ARM GAS  C:\Users\ddemidov\AppData\Local\Temp\ccvWfYq9.s 			page 6


 202:.\Generated_Source\PSoC4/CyLib.c ****             interruptState = CyEnterCriticalSection();
 203:.\Generated_Source\PSoC4/CyLib.c **** 
 204:.\Generated_Source\PSoC4/CyLib.c ****             /* Set oscillator interface control port to WCO */
 205:.\Generated_Source\PSoC4/CyLib.c ****             #if (CY_IP_IMO_TRIMMABLE_BY_WCO && CY_IP_IMO_TRIMMABLE_BY_USB)
 206:.\Generated_Source\PSoC4/CyLib.c ****                 CY_SYS_CLK_OSCINTF_CTL_REG =
 207:.\Generated_Source\PSoC4/CyLib.c ****                     (CY_SYS_CLK_OSCINTF_CTL_REG & (uint32) ~CY_SYS_CLK_OSCINTF_CTL_PORT_SEL_MASK) |
 208:.\Generated_Source\PSoC4/CyLib.c ****                     CY_SYS_CLK_OSCINTF_CTL_PORT_SEL_WCO;
 209:.\Generated_Source\PSoC4/CyLib.c ****             #endif /* (CY_IP_IMO_TRIMMABLE_BY_WCO && CY_IP_IMO_TRIMMABLE_BY_USB) */
 210:.\Generated_Source\PSoC4/CyLib.c **** 
 211:.\Generated_Source\PSoC4/CyLib.c ****             /* Get current IMO frequency based on the register value */
 212:.\Generated_Source\PSoC4/CyLib.c ****             for(i = 0u; i < CY_SYS_CLK_IMO_FREQ_TABLE_SIZE; i++)
 213:.\Generated_Source\PSoC4/CyLib.c ****             {
 214:.\Generated_Source\PSoC4/CyLib.c ****                 if ((uint8) (CY_SYS_CLK_IMO_TRIM2_REG & CY_SYS_CLK_IMO_FREQ_BITS_MASK) == cyImoFreq
 215:.\Generated_Source\PSoC4/CyLib.c ****                 {
 216:.\Generated_Source\PSoC4/CyLib.c ****                     freq = i + CY_SYS_CLK_IMO_FREQ_TABLE_OFFSET;
 217:.\Generated_Source\PSoC4/CyLib.c ****                     break;
 218:.\Generated_Source\PSoC4/CyLib.c ****                 }
 219:.\Generated_Source\PSoC4/CyLib.c ****             }
 220:.\Generated_Source\PSoC4/CyLib.c **** 
 221:.\Generated_Source\PSoC4/CyLib.c ****             /* For the WCO locking mode, the IMO gain needs to be CY_SYS_CLK_IMO_TRIM4_GAIN */
 222:.\Generated_Source\PSoC4/CyLib.c ****             if ((CY_SYS_CLK_IMO_TRIM4_REG & CY_SYS_CLK_IMO_TRIM4_GAIN_MASK) == 0u)
 223:.\Generated_Source\PSoC4/CyLib.c ****             {
 224:.\Generated_Source\PSoC4/CyLib.c **** 			    CY_SYS_CLK_IMO_TRIM4_REG = (CY_SYS_CLK_IMO_TRIM4_REG & (uint32) ~CY_SYS_CLK_IMO_TRIM4_GAIN_M
 225:.\Generated_Source\PSoC4/CyLib.c **** 			             				    CY_SYS_CLK_IMO_TRIM4_WCO_GAIN;
 226:.\Generated_Source\PSoC4/CyLib.c ****             }
 227:.\Generated_Source\PSoC4/CyLib.c **** 
 228:.\Generated_Source\PSoC4/CyLib.c ****             regTmp  = CY_SYS_CLK_WCO_DPLL_REG & ~(CY_SYS_CLK_WCO_DPLL_MULT_MASK |
 229:.\Generated_Source\PSoC4/CyLib.c ****                                                   CY_SYS_CLK_WCO_CONFIG_DPLL_LF_IGAIN_MASK |
 230:.\Generated_Source\PSoC4/CyLib.c ****                                                   CY_SYS_CLK_WCO_CONFIG_DPLL_LF_PGAIN_MASK |
 231:.\Generated_Source\PSoC4/CyLib.c ****                                                   CY_SYS_CLK_WCO_CONFIG_DPLL_LF_LIMIT_MASK);
 232:.\Generated_Source\PSoC4/CyLib.c **** 
 233:.\Generated_Source\PSoC4/CyLib.c ****             /* Set multiplier to determine IMO frequency in multiples of the WCO frequency */
 234:.\Generated_Source\PSoC4/CyLib.c ****             regTmp |= (CY_SYS_CLK_WCO_DPLL_MULT_VALUE(freq) & CY_SYS_CLK_WCO_DPLL_MULT_MASK);
 235:.\Generated_Source\PSoC4/CyLib.c **** 
 236:.\Generated_Source\PSoC4/CyLib.c ****             /* Set DPLL Loop Filter Integral and Proportional Gains Setting */
 237:.\Generated_Source\PSoC4/CyLib.c ****             regTmp |= (CY_SYS_CLK_WCO_CONFIG_DPLL_LF_IGAIN | CY_SYS_CLK_WCO_CONFIG_DPLL_LF_PGAIN);
 238:.\Generated_Source\PSoC4/CyLib.c **** 
 239:.\Generated_Source\PSoC4/CyLib.c ****             /* Set maximum allowed IMO offset */
 240:.\Generated_Source\PSoC4/CyLib.c ****             if (freq < CY_SYS_CLK_IMO_FREQ_WCO_DPLL_SAFE_POINT)
 241:.\Generated_Source\PSoC4/CyLib.c ****             {
 242:.\Generated_Source\PSoC4/CyLib.c ****                 regTmp |= (CY_SYS_CLK_WCO_CONFIG_DPLL_LF_LIMIT_MAX << CY_SYS_CLK_WCO_CONFIG_DPLL_LF
 243:.\Generated_Source\PSoC4/CyLib.c ****             }
 244:.\Generated_Source\PSoC4/CyLib.c ****             else
 245:.\Generated_Source\PSoC4/CyLib.c ****             {
 246:.\Generated_Source\PSoC4/CyLib.c ****                 lfLimit = CY_SFLASH_IMO_TRIM_REG(freq - CY_SYS_CLK_IMO_MIN_FREQ_MHZ) +
 247:.\Generated_Source\PSoC4/CyLib.c ****                     cyImoFreqMhz2DpllOffset[freq - CY_SYS_CLK_IMO_FREQ_WCO_DPLL_TABLE_OFFSET];
 248:.\Generated_Source\PSoC4/CyLib.c **** 
 249:.\Generated_Source\PSoC4/CyLib.c ****                 lfLimit = (lfLimit > CY_SYS_CLK_WCO_CONFIG_DPLL_LF_LIMIT_MAX) ?
 250:.\Generated_Source\PSoC4/CyLib.c ****                     CY_SYS_CLK_WCO_CONFIG_DPLL_LF_LIMIT_MAX : lfLimit;
 251:.\Generated_Source\PSoC4/CyLib.c **** 
 252:.\Generated_Source\PSoC4/CyLib.c ****                 regTmp |= (lfLimit << CY_SYS_CLK_WCO_CONFIG_DPLL_LF_LIMIT_SHIFT);
 253:.\Generated_Source\PSoC4/CyLib.c ****             }
 254:.\Generated_Source\PSoC4/CyLib.c **** 
 255:.\Generated_Source\PSoC4/CyLib.c ****             CY_SYS_CLK_WCO_DPLL_REG = regTmp;
 256:.\Generated_Source\PSoC4/CyLib.c **** 
 257:.\Generated_Source\PSoC4/CyLib.c ****             flashCtlReg = CY_FLASH_CTL_REG;
 258:.\Generated_Source\PSoC4/CyLib.c ****             CySysFlashSetWaitCycles(CY_SYS_CLK_IMO_MAX_FREQ_MHZ);
ARM GAS  C:\Users\ddemidov\AppData\Local\Temp\ccvWfYq9.s 			page 7


 259:.\Generated_Source\PSoC4/CyLib.c ****             CY_SYS_CLK_WCO_CONFIG_REG |= CY_SYS_CLK_WCO_CONFIG_DPLL_ENABLE;
 260:.\Generated_Source\PSoC4/CyLib.c ****             CyDelay(CY_SYS_CLK_WCO_IMO_TIMEOUT_MS);
 261:.\Generated_Source\PSoC4/CyLib.c ****             CY_FLASH_CTL_REG = flashCtlReg;
 262:.\Generated_Source\PSoC4/CyLib.c **** 
 263:.\Generated_Source\PSoC4/CyLib.c ****             CyExitCriticalSection(interruptState);
 264:.\Generated_Source\PSoC4/CyLib.c ****         }
 265:.\Generated_Source\PSoC4/CyLib.c ****     }
 266:.\Generated_Source\PSoC4/CyLib.c **** 
 267:.\Generated_Source\PSoC4/CyLib.c **** 
 268:.\Generated_Source\PSoC4/CyLib.c ****     /*******************************************************************************
 269:.\Generated_Source\PSoC4/CyLib.c ****     * Function Name: CySysClkImoDisableWcoLock
 270:.\Generated_Source\PSoC4/CyLib.c ****     ********************************************************************************
 271:.\Generated_Source\PSoC4/CyLib.c ****     *
 272:.\Generated_Source\PSoC4/CyLib.c ****     * Summary:
 273:.\Generated_Source\PSoC4/CyLib.c ****     *  Disables the IMO to WCO lock feature.
 274:.\Generated_Source\PSoC4/CyLib.c ****     *
 275:.\Generated_Source\PSoC4/CyLib.c ****     *  This function is applicable for PSoC 4100M, PSoC 4200M and  PSoC 4200L.
 276:.\Generated_Source\PSoC4/CyLib.c ****     *
 277:.\Generated_Source\PSoC4/CyLib.c ****     * Parameters:
 278:.\Generated_Source\PSoC4/CyLib.c ****     *  None
 279:.\Generated_Source\PSoC4/CyLib.c ****     *
 280:.\Generated_Source\PSoC4/CyLib.c ****     * Return:
 281:.\Generated_Source\PSoC4/CyLib.c ****     *  None
 282:.\Generated_Source\PSoC4/CyLib.c ****     *
 283:.\Generated_Source\PSoC4/CyLib.c ****     *******************************************************************************/
 284:.\Generated_Source\PSoC4/CyLib.c ****     void CySysClkImoDisableWcoLock(void)
 285:.\Generated_Source\PSoC4/CyLib.c ****     {
 286:.\Generated_Source\PSoC4/CyLib.c ****         CY_SYS_CLK_WCO_CONFIG_REG &= (uint32) ~CY_SYS_CLK_WCO_CONFIG_DPLL_ENABLE;
 287:.\Generated_Source\PSoC4/CyLib.c ****     }
 288:.\Generated_Source\PSoC4/CyLib.c **** 
 289:.\Generated_Source\PSoC4/CyLib.c **** 
 290:.\Generated_Source\PSoC4/CyLib.c ****     /*******************************************************************************
 291:.\Generated_Source\PSoC4/CyLib.c ****     * Function Name: CySysClkImoGetWcoLock
 292:.\Generated_Source\PSoC4/CyLib.c ****     ********************************************************************************
 293:.\Generated_Source\PSoC4/CyLib.c ****     *
 294:.\Generated_Source\PSoC4/CyLib.c ****     * Summary:
 295:.\Generated_Source\PSoC4/CyLib.c ****     *  Reports the IMO to WCO lock enable state.
 296:.\Generated_Source\PSoC4/CyLib.c ****     *
 297:.\Generated_Source\PSoC4/CyLib.c ****     *  This function is applicable for PSoC 4100M, PSoC 4200M and  PSoC 4200L.
 298:.\Generated_Source\PSoC4/CyLib.c ****     *
 299:.\Generated_Source\PSoC4/CyLib.c ****     * Parameters:
 300:.\Generated_Source\PSoC4/CyLib.c ****     *  None
 301:.\Generated_Source\PSoC4/CyLib.c ****     *
 302:.\Generated_Source\PSoC4/CyLib.c ****     * Return:
 303:.\Generated_Source\PSoC4/CyLib.c ****     *  1 if IMO to WCO lock is enabled, and 0 if IMO to WCO lock is disabled.
 304:.\Generated_Source\PSoC4/CyLib.c ****     *
 305:.\Generated_Source\PSoC4/CyLib.c ****     *******************************************************************************/
 306:.\Generated_Source\PSoC4/CyLib.c ****     uint32 CySysClkImoGetWcoLock(void)
 307:.\Generated_Source\PSoC4/CyLib.c ****     {
 308:.\Generated_Source\PSoC4/CyLib.c ****         return ((0u != (CY_SYS_CLK_WCO_CONFIG_REG & CY_SYS_CLK_WCO_CONFIG_DPLL_ENABLE)) ?
 309:.\Generated_Source\PSoC4/CyLib.c ****                 (uint32) 1u :
 310:.\Generated_Source\PSoC4/CyLib.c ****                 (uint32) 0u);
 311:.\Generated_Source\PSoC4/CyLib.c ****     }
 312:.\Generated_Source\PSoC4/CyLib.c **** 
 313:.\Generated_Source\PSoC4/CyLib.c **** #endif /* (CY_IP_IMO_TRIMMABLE_BY_WCO) */
 314:.\Generated_Source\PSoC4/CyLib.c **** 
 315:.\Generated_Source\PSoC4/CyLib.c **** 
ARM GAS  C:\Users\ddemidov\AppData\Local\Temp\ccvWfYq9.s 			page 8


 316:.\Generated_Source\PSoC4/CyLib.c **** #if (CY_IP_IMO_TRIMMABLE_BY_USB)
 317:.\Generated_Source\PSoC4/CyLib.c **** 
 318:.\Generated_Source\PSoC4/CyLib.c ****     /*******************************************************************************
 319:.\Generated_Source\PSoC4/CyLib.c ****     * Function Name: CySysClkImoEnableUsbLock
 320:.\Generated_Source\PSoC4/CyLib.c ****     ********************************************************************************
 321:.\Generated_Source\PSoC4/CyLib.c ****     *
 322:.\Generated_Source\PSoC4/CyLib.c ****     * Summary:
 323:.\Generated_Source\PSoC4/CyLib.c ****     *  Enables the IMO to USB lock feature.
 324:.\Generated_Source\PSoC4/CyLib.c ****     *
 325:.\Generated_Source\PSoC4/CyLib.c ****     *  This function must be called before CySysClkWriteImoFreq().
 326:.\Generated_Source\PSoC4/CyLib.c ****     *
 327:.\Generated_Source\PSoC4/CyLib.c ****     *  This function is called from CySysClkImoStart() function if USB lock
 328:.\Generated_Source\PSoC4/CyLib.c ****     *  selected in the Design Wide Resources tab.
 329:.\Generated_Source\PSoC4/CyLib.c ****     *
 330:.\Generated_Source\PSoC4/CyLib.c ****     *  This is applicable for PSoC 4200L family of devices only. For PSoC 4200L
 331:.\Generated_Source\PSoC4/CyLib.c ****     *  devices, the IMO can lock to either WCO or USB, but not both.
 332:.\Generated_Source\PSoC4/CyLib.c ****     *
 333:.\Generated_Source\PSoC4/CyLib.c ****     * Parameters:
 334:.\Generated_Source\PSoC4/CyLib.c ****     *  None
 335:.\Generated_Source\PSoC4/CyLib.c ****     *
 336:.\Generated_Source\PSoC4/CyLib.c ****     * Return:
 337:.\Generated_Source\PSoC4/CyLib.c ****     *  None
 338:.\Generated_Source\PSoC4/CyLib.c ****     *
 339:.\Generated_Source\PSoC4/CyLib.c ****     *******************************************************************************/
 340:.\Generated_Source\PSoC4/CyLib.c ****     void CySysClkImoEnableUsbLock(void)
 341:.\Generated_Source\PSoC4/CyLib.c ****     {
 342:.\Generated_Source\PSoC4/CyLib.c ****         /* Set oscillator interface control port to USB */
 343:.\Generated_Source\PSoC4/CyLib.c ****         #if (CY_IP_IMO_TRIMMABLE_BY_WCO && CY_IP_IMO_TRIMMABLE_BY_USB)
 344:.\Generated_Source\PSoC4/CyLib.c ****             CY_SYS_CLK_OSCINTF_CTL_REG = (CY_SYS_CLK_OSCINTF_CTL_REG & (uint32) ~CY_SYS_CLK_OSCINTF
 345:.\Generated_Source\PSoC4/CyLib.c ****                                           CY_SYS_CLK_OSCINTF_CTL_PORT_SEL_USB;
 346:.\Generated_Source\PSoC4/CyLib.c ****         #endif /* (CY_IP_IMO_TRIMMABLE_BY_WCO && CY_IP_IMO_TRIMMABLE_BY_USB) */
 347:.\Generated_Source\PSoC4/CyLib.c **** 
 348:.\Generated_Source\PSoC4/CyLib.c ****         /* Save CY_SYS_CLK_IMO_TRIM4_REG and set IMO gain for USB lock */
 349:.\Generated_Source\PSoC4/CyLib.c ****         CySysClkImoTrim4 = CY_SYS_CLK_IMO_TRIM4_REG & (uint32) ~CY_SYS_CLK_IMO_TRIM4_GAIN_MASK;
 350:.\Generated_Source\PSoC4/CyLib.c ****         CY_SYS_CLK_IMO_TRIM4_REG = (CY_SYS_CLK_IMO_TRIM4_REG & (uint32) ~CY_SYS_CLK_IMO_TRIM4_GAIN_
 351:.\Generated_Source\PSoC4/CyLib.c ****                                     CY_SYS_CLK_IMO_TRIM4_USB_GAIN;
 352:.\Generated_Source\PSoC4/CyLib.c **** 
 353:.\Generated_Source\PSoC4/CyLib.c ****         CY_SYS_CLK_USBDEVv2_CR1_REG |= CY_SYS_CLK_USBDEVv2_CR1_ENABLE_LOCK;
 354:.\Generated_Source\PSoC4/CyLib.c ****     }
 355:.\Generated_Source\PSoC4/CyLib.c **** 
 356:.\Generated_Source\PSoC4/CyLib.c **** 
 357:.\Generated_Source\PSoC4/CyLib.c ****     /*******************************************************************************
 358:.\Generated_Source\PSoC4/CyLib.c ****     * Function Name: CySysClkImoDisableUsbLock
 359:.\Generated_Source\PSoC4/CyLib.c ****     ********************************************************************************
 360:.\Generated_Source\PSoC4/CyLib.c ****     *
 361:.\Generated_Source\PSoC4/CyLib.c ****     * Summary:
 362:.\Generated_Source\PSoC4/CyLib.c ****     *  Disables the IMO to USB lock feature.
 363:.\Generated_Source\PSoC4/CyLib.c ****     *
 364:.\Generated_Source\PSoC4/CyLib.c ****     *  This function is called from CySysClkImoStop() function if USB lock selected
 365:.\Generated_Source\PSoC4/CyLib.c ****     *  in the Design Wide Resources tab.
 366:.\Generated_Source\PSoC4/CyLib.c ****     *
 367:.\Generated_Source\PSoC4/CyLib.c ****     *  This is applicable for PSoC 4200L family of devices only.
 368:.\Generated_Source\PSoC4/CyLib.c ****     *
 369:.\Generated_Source\PSoC4/CyLib.c ****     * Parameters:
 370:.\Generated_Source\PSoC4/CyLib.c ****     *  None
 371:.\Generated_Source\PSoC4/CyLib.c ****     *
 372:.\Generated_Source\PSoC4/CyLib.c ****     * Return:
ARM GAS  C:\Users\ddemidov\AppData\Local\Temp\ccvWfYq9.s 			page 9


 373:.\Generated_Source\PSoC4/CyLib.c ****     *  None
 374:.\Generated_Source\PSoC4/CyLib.c ****     *
 375:.\Generated_Source\PSoC4/CyLib.c ****     *******************************************************************************/
 376:.\Generated_Source\PSoC4/CyLib.c ****     void CySysClkImoDisableUsbLock(void)
 377:.\Generated_Source\PSoC4/CyLib.c ****     {
 378:.\Generated_Source\PSoC4/CyLib.c ****         CY_SYS_CLK_USBDEVv2_CR1_REG &= (uint32) ~CY_SYS_CLK_USBDEVv2_CR1_ENABLE_LOCK;
 379:.\Generated_Source\PSoC4/CyLib.c **** 
 380:.\Generated_Source\PSoC4/CyLib.c ****         /* Restore CY_SYS_CLK_IMO_TRIM4_REG */
 381:.\Generated_Source\PSoC4/CyLib.c ****         CY_SYS_CLK_IMO_TRIM4_REG = (CY_SYS_CLK_IMO_TRIM4_REG & (uint32) ~CY_SYS_CLK_IMO_TRIM4_GAIN_
 382:.\Generated_Source\PSoC4/CyLib.c ****                                     CySysClkImoTrim4;
 383:.\Generated_Source\PSoC4/CyLib.c ****     }
 384:.\Generated_Source\PSoC4/CyLib.c **** 
 385:.\Generated_Source\PSoC4/CyLib.c **** 
 386:.\Generated_Source\PSoC4/CyLib.c ****     /*******************************************************************************
 387:.\Generated_Source\PSoC4/CyLib.c ****     * Function Name: CySysClkImoGetUsbLock
 388:.\Generated_Source\PSoC4/CyLib.c ****     ********************************************************************************
 389:.\Generated_Source\PSoC4/CyLib.c ****     *
 390:.\Generated_Source\PSoC4/CyLib.c ****     * Summary:
 391:.\Generated_Source\PSoC4/CyLib.c ****     *  Reports the IMO to USB lock enable state.
 392:.\Generated_Source\PSoC4/CyLib.c ****     *
 393:.\Generated_Source\PSoC4/CyLib.c ****     *  This function is applicable for PSoC 4200L devices only.
 394:.\Generated_Source\PSoC4/CyLib.c ****     *
 395:.\Generated_Source\PSoC4/CyLib.c ****     * Parameters:
 396:.\Generated_Source\PSoC4/CyLib.c ****     *  None
 397:.\Generated_Source\PSoC4/CyLib.c ****     *
 398:.\Generated_Source\PSoC4/CyLib.c ****     * Return:
 399:.\Generated_Source\PSoC4/CyLib.c ****     *  1 if IMO to USB lock is enabled, and 0 if IMO to USB lock is disabled.
 400:.\Generated_Source\PSoC4/CyLib.c ****     *
 401:.\Generated_Source\PSoC4/CyLib.c ****     *******************************************************************************/
 402:.\Generated_Source\PSoC4/CyLib.c ****     uint32 CySysClkImoGetUsbLock(void)
 403:.\Generated_Source\PSoC4/CyLib.c ****     {
 404:.\Generated_Source\PSoC4/CyLib.c ****         return ((0u != (CY_SYS_CLK_USBDEVv2_CR1_REG & CY_SYS_CLK_USBDEVv2_CR1_ENABLE_LOCK)) ?
 405:.\Generated_Source\PSoC4/CyLib.c ****                 (uint32) 1u :
 406:.\Generated_Source\PSoC4/CyLib.c ****                 (uint32) 0u);
 407:.\Generated_Source\PSoC4/CyLib.c ****     }
 408:.\Generated_Source\PSoC4/CyLib.c **** #endif  /* (CY_IP_IMO_TRIMMABLE_BY_USB) */
 409:.\Generated_Source\PSoC4/CyLib.c **** 
 410:.\Generated_Source\PSoC4/CyLib.c **** 
 411:.\Generated_Source\PSoC4/CyLib.c **** 
 412:.\Generated_Source\PSoC4/CyLib.c **** /*******************************************************************************
 413:.\Generated_Source\PSoC4/CyLib.c **** * Function Name: CySysClkWriteHfclkDirect
 414:.\Generated_Source\PSoC4/CyLib.c **** ********************************************************************************
 415:.\Generated_Source\PSoC4/CyLib.c **** *
 416:.\Generated_Source\PSoC4/CyLib.c **** * Summary:
 417:.\Generated_Source\PSoC4/CyLib.c **** *  Selects the direct source for the HFCLK.
 418:.\Generated_Source\PSoC4/CyLib.c **** *
 419:.\Generated_Source\PSoC4/CyLib.c **** * Parameters:
 420:.\Generated_Source\PSoC4/CyLib.c **** *  clkSelect: One of the available HFCLK direct sources:
 421:.\Generated_Source\PSoC4/CyLib.c **** *   Define                    Source
 422:.\Generated_Source\PSoC4/CyLib.c **** *    CY_SYS_CLK_HFCLK_IMO     IMO
 423:.\Generated_Source\PSoC4/CyLib.c **** *    CY_SYS_CLK_HFCLK_EXTCLK  External clock pin
 424:.\Generated_Source\PSoC4/CyLib.c **** *    CY_SYS_CLK_HFCLK_ECO     External crystal oscillator
 425:.\Generated_Source\PSoC4/CyLib.c **** *                             (applicable only for PSoC 4100-BL / PSoC 4200-BL)
 426:.\Generated_Source\PSoC4/CyLib.c **** *    CY_SYS_CLK_HFCLK_PLL0    PLL#0
 427:.\Generated_Source\PSoC4/CyLib.c **** *                             (applicable only for PSoC 4200L)
 428:.\Generated_Source\PSoC4/CyLib.c **** *    CY_SYS_CLK_HFCLK_PLL1    PLL#1
 429:.\Generated_Source\PSoC4/CyLib.c **** *                             (applicable only for PSoC 4200L)
ARM GAS  C:\Users\ddemidov\AppData\Local\Temp\ccvWfYq9.s 			page 10


 430:.\Generated_Source\PSoC4/CyLib.c **** *
 431:.\Generated_Source\PSoC4/CyLib.c **** * Return:
 432:.\Generated_Source\PSoC4/CyLib.c **** *  None
 433:.\Generated_Source\PSoC4/CyLib.c **** *
 434:.\Generated_Source\PSoC4/CyLib.c **** * Side Effects:
 435:.\Generated_Source\PSoC4/CyLib.c **** *  The new source must be running and stable before calling this function.
 436:.\Generated_Source\PSoC4/CyLib.c **** *
 437:.\Generated_Source\PSoC4/CyLib.c **** *  PSoC 4000:
 438:.\Generated_Source\PSoC4/CyLib.c **** *  The SYSCLK has a maximum speed of 16 MHz, so HFCLK and SYSCLK dividers should
 439:.\Generated_Source\PSoC4/CyLib.c **** *  be selected in a way to not to exceed 16 MHz for the System clock.
 440:.\Generated_Source\PSoC4/CyLib.c **** *
 441:.\Generated_Source\PSoC4/CyLib.c **** *  If the SYSCLK clock frequency increases during device operation, call
 442:.\Generated_Source\PSoC4/CyLib.c **** *  CySysFlashSetWaitCycles() with the appropriate parameter to adjust the number
 443:.\Generated_Source\PSoC4/CyLib.c **** *  of clock cycles the cache will wait before sampling data comes back from
 444:.\Generated_Source\PSoC4/CyLib.c **** *  Flash. If the SYSCLK clock frequency decreases, you can call
 445:.\Generated_Source\PSoC4/CyLib.c **** *  CySysFlashSetWaitCycles() to improve the CPU performance. See
 446:.\Generated_Source\PSoC4/CyLib.c **** *  CySysFlashSetWaitCycles() description for more information.
 447:.\Generated_Source\PSoC4/CyLib.c **** *
 448:.\Generated_Source\PSoC4/CyLib.c **** *  Do not select PLL as the source for HFCLK if PLL output frequency exceeds
 449:.\Generated_Source\PSoC4/CyLib.c **** *  maximum permissible value for HFCLK.
 450:.\Generated_Source\PSoC4/CyLib.c **** *
 451:.\Generated_Source\PSoC4/CyLib.c **** *******************************************************************************/
 452:.\Generated_Source\PSoC4/CyLib.c **** void CySysClkWriteHfclkDirect(uint32 clkSelect)
 453:.\Generated_Source\PSoC4/CyLib.c **** {
  83              		.loc 1 453 0
  84              		.cfi_startproc
  85              	.LVL0:
  86 0000 10B5     		push	{r4, lr}
  87              		.cfi_def_cfa_offset 8
  88              		.cfi_offset 4, -8
  89              		.cfi_offset 14, -4
  90              		.loc 1 453 0
  91 0002 041C     		mov	r4, r0
 454:.\Generated_Source\PSoC4/CyLib.c ****     uint8  interruptState;
 455:.\Generated_Source\PSoC4/CyLib.c ****     uint32 tmpReg;
 456:.\Generated_Source\PSoC4/CyLib.c **** 
 457:.\Generated_Source\PSoC4/CyLib.c ****     interruptState = CyEnterCriticalSection();
  92              		.loc 1 457 0
  93 0004 FFF7FEFF 		bl	CyEnterCriticalSection
  94              	.LVL1:
 458:.\Generated_Source\PSoC4/CyLib.c **** 
 459:.\Generated_Source\PSoC4/CyLib.c **** 
 460:.\Generated_Source\PSoC4/CyLib.c ****     tmpReg = CY_SYS_CLK_SELECT_REG & ~(CY_SYS_CLK_SELECT_DIRECT_SEL_MASK |
  95              		.loc 1 460 0
  96 0008 0723     		mov	r3, #7
  97 000a 0449     		ldr	r1, .L8
 461:.\Generated_Source\PSoC4/CyLib.c ****                                        CY_SYS_CLK_SELECT_HFCLK_SEL_MASK);
 462:.\Generated_Source\PSoC4/CyLib.c **** 
 463:.\Generated_Source\PSoC4/CyLib.c **** #if (CY_IP_SRSSV2 && CY_IP_PLL)
 464:.\Generated_Source\PSoC4/CyLib.c ****     if ((CY_SYS_CLK_HFCLK_PLL0 == clkSelect) || (CY_SYS_CLK_HFCLK_PLL1 == clkSelect))
 465:.\Generated_Source\PSoC4/CyLib.c ****     {
 466:.\Generated_Source\PSoC4/CyLib.c ****         tmpReg |= (clkSelect & CY_SYS_CLK_SELECT_HFCLK_SEL_MASK);
 467:.\Generated_Source\PSoC4/CyLib.c ****     }
 468:.\Generated_Source\PSoC4/CyLib.c ****     else
 469:.\Generated_Source\PSoC4/CyLib.c **** #endif /* (CY_IP_SRSSV2 && CY_IP_PLL) */
 470:.\Generated_Source\PSoC4/CyLib.c ****     {
 471:.\Generated_Source\PSoC4/CyLib.c ****         tmpReg |= (clkSelect & CY_SYS_CLK_SELECT_DIRECT_SEL_MASK);
ARM GAS  C:\Users\ddemidov\AppData\Local\Temp\ccvWfYq9.s 			page 11


 472:.\Generated_Source\PSoC4/CyLib.c ****     }
 473:.\Generated_Source\PSoC4/CyLib.c **** 
 474:.\Generated_Source\PSoC4/CyLib.c ****     CY_SYS_CLK_SELECT_REG = tmpReg;
 475:.\Generated_Source\PSoC4/CyLib.c **** 
 476:.\Generated_Source\PSoC4/CyLib.c ****     CyExitCriticalSection(interruptState);
 477:.\Generated_Source\PSoC4/CyLib.c **** }
  98              		.loc 1 477 0
  99              		@ sp needed
 460:.\Generated_Source\PSoC4/CyLib.c ****                                        CY_SYS_CLK_SELECT_HFCLK_SEL_MASK);
 100              		.loc 1 460 0
 101 000c 0A68     		ldr	r2, [r1]
 102 000e 9A43     		bic	r2, r3
 103              	.LVL2:
 471:.\Generated_Source\PSoC4/CyLib.c ****     }
 104              		.loc 1 471 0
 105 0010 2340     		and	r3, r4
 106 0012 1343     		orr	r3, r2
 107              	.LVL3:
 474:.\Generated_Source\PSoC4/CyLib.c **** 
 108              		.loc 1 474 0
 109 0014 0B60     		str	r3, [r1]
 476:.\Generated_Source\PSoC4/CyLib.c **** }
 110              		.loc 1 476 0
 111 0016 FFF7FEFF 		bl	CyExitCriticalSection
 112              	.LVL4:
 113              	.LVL5:
 114              		.loc 1 477 0
 115 001a 10BD     		pop	{r4, pc}
 116              	.L9:
 117              		.align	2
 118              	.L8:
 119 001c 00010B40 		.word	1074462976
 120              		.cfi_endproc
 121              	.LFE4:
 122              		.size	CySysClkWriteHfclkDirect, .-CySysClkWriteHfclkDirect
 123              		.section	.text.CySysClkGetSysclkSource,"ax",%progbits
 124              		.align	1
 125              		.global	CySysClkGetSysclkSource
 126              		.code	16
 127              		.thumb_func
 128              		.type	CySysClkGetSysclkSource, %function
 129              	CySysClkGetSysclkSource:
 130              	.LFB5:
 478:.\Generated_Source\PSoC4/CyLib.c **** 
 479:.\Generated_Source\PSoC4/CyLib.c **** 
 480:.\Generated_Source\PSoC4/CyLib.c **** /*******************************************************************************
 481:.\Generated_Source\PSoC4/CyLib.c **** * Function Name: CySysClkGetSysclkSource
 482:.\Generated_Source\PSoC4/CyLib.c **** ********************************************************************************
 483:.\Generated_Source\PSoC4/CyLib.c **** *
 484:.\Generated_Source\PSoC4/CyLib.c **** * Summary:
 485:.\Generated_Source\PSoC4/CyLib.c **** *  Returns the source of the System clock.
 486:.\Generated_Source\PSoC4/CyLib.c **** *
 487:.\Generated_Source\PSoC4/CyLib.c **** * Parameters:
 488:.\Generated_Source\PSoC4/CyLib.c **** *  None
 489:.\Generated_Source\PSoC4/CyLib.c **** *
 490:.\Generated_Source\PSoC4/CyLib.c **** * Return:
 491:.\Generated_Source\PSoC4/CyLib.c **** *  The same as CySysClkWriteHfclkDirect() function parameters.
ARM GAS  C:\Users\ddemidov\AppData\Local\Temp\ccvWfYq9.s 			page 12


 492:.\Generated_Source\PSoC4/CyLib.c **** *
 493:.\Generated_Source\PSoC4/CyLib.c **** *******************************************************************************/
 494:.\Generated_Source\PSoC4/CyLib.c **** uint32 CySysClkGetSysclkSource(void)
 495:.\Generated_Source\PSoC4/CyLib.c **** {
 131              		.loc 1 495 0
 132              		.cfi_startproc
 133 0000 10B5     		push	{r4, lr}
 134              		.cfi_def_cfa_offset 8
 135              		.cfi_offset 4, -8
 136              		.cfi_offset 14, -4
 496:.\Generated_Source\PSoC4/CyLib.c ****     uint8  interruptState;
 497:.\Generated_Source\PSoC4/CyLib.c ****     uint32 sysclkSource;
 498:.\Generated_Source\PSoC4/CyLib.c **** 
 499:.\Generated_Source\PSoC4/CyLib.c ****     interruptState = CyEnterCriticalSection();
 137              		.loc 1 499 0
 138 0002 FFF7FEFF 		bl	CyEnterCriticalSection
 139              	.LVL6:
 500:.\Generated_Source\PSoC4/CyLib.c **** 
 501:.\Generated_Source\PSoC4/CyLib.c **** #if (CY_IP_SRSSV2 && CY_IP_PLL)
 502:.\Generated_Source\PSoC4/CyLib.c ****     if ((CY_SYS_CLK_SELECT_REG & CY_SYS_CLK_SELECT_HFCLK_SEL_MASK) != 0u)
 503:.\Generated_Source\PSoC4/CyLib.c ****     {
 504:.\Generated_Source\PSoC4/CyLib.c ****         sysclkSource = (CY_SYS_CLK_SELECT_REG & CY_SYS_CLK_SELECT_HFCLK_SEL_MASK);
 505:.\Generated_Source\PSoC4/CyLib.c ****     }
 506:.\Generated_Source\PSoC4/CyLib.c ****     else
 507:.\Generated_Source\PSoC4/CyLib.c **** #endif /* (CY_IP_SRSSV2 && CY_IP_PLL) */
 508:.\Generated_Source\PSoC4/CyLib.c ****     {
 509:.\Generated_Source\PSoC4/CyLib.c ****         sysclkSource = (CY_SYS_CLK_SELECT_REG & CY_SYS_CLK_SELECT_DIRECT_SEL_MASK);
 140              		.loc 1 509 0
 141 0006 034B     		ldr	r3, .L11
 510:.\Generated_Source\PSoC4/CyLib.c ****     }
 511:.\Generated_Source\PSoC4/CyLib.c **** 
 512:.\Generated_Source\PSoC4/CyLib.c ****     CyExitCriticalSection(interruptState);
 513:.\Generated_Source\PSoC4/CyLib.c **** 
 514:.\Generated_Source\PSoC4/CyLib.c ****     return (sysclkSource);
 515:.\Generated_Source\PSoC4/CyLib.c **** }
 142              		.loc 1 515 0
 143              		@ sp needed
 509:.\Generated_Source\PSoC4/CyLib.c ****     }
 144              		.loc 1 509 0
 145 0008 1C68     		ldr	r4, [r3]
 146              	.LVL7:
 512:.\Generated_Source\PSoC4/CyLib.c **** 
 147              		.loc 1 512 0
 148 000a FFF7FEFF 		bl	CyExitCriticalSection
 149              	.LVL8:
 509:.\Generated_Source\PSoC4/CyLib.c ****     }
 150              		.loc 1 509 0
 151 000e 0720     		mov	r0, #7
 152 0010 2040     		and	r0, r4
 153              	.LVL9:
 154              		.loc 1 515 0
 155 0012 10BD     		pop	{r4, pc}
 156              	.L12:
 157              		.align	2
 158              	.L11:
 159 0014 00010B40 		.word	1074462976
 160              		.cfi_endproc
ARM GAS  C:\Users\ddemidov\AppData\Local\Temp\ccvWfYq9.s 			page 13


 161              	.LFE5:
 162              		.size	CySysClkGetSysclkSource, .-CySysClkGetSysclkSource
 163              		.section	.text.CySysClkWriteSysclkDiv,"ax",%progbits
 164              		.align	1
 165              		.global	CySysClkWriteSysclkDiv
 166              		.code	16
 167              		.thumb_func
 168              		.type	CySysClkWriteSysclkDiv, %function
 169              	CySysClkWriteSysclkDiv:
 170              	.LFB6:
 516:.\Generated_Source\PSoC4/CyLib.c **** 
 517:.\Generated_Source\PSoC4/CyLib.c **** 
 518:.\Generated_Source\PSoC4/CyLib.c **** /*******************************************************************************
 519:.\Generated_Source\PSoC4/CyLib.c **** * Function Name: CySysClkWriteSysclkDiv
 520:.\Generated_Source\PSoC4/CyLib.c **** ********************************************************************************
 521:.\Generated_Source\PSoC4/CyLib.c **** *
 522:.\Generated_Source\PSoC4/CyLib.c **** * Summary:
 523:.\Generated_Source\PSoC4/CyLib.c **** *  Selects the prescaler divide amount for SYSCLK from HFCLK.
 524:.\Generated_Source\PSoC4/CyLib.c **** *
 525:.\Generated_Source\PSoC4/CyLib.c **** * Parameters:
 526:.\Generated_Source\PSoC4/CyLib.c **** *  divider: Power of 2 prescaler selection
 527:.\Generated_Source\PSoC4/CyLib.c **** *
 528:.\Generated_Source\PSoC4/CyLib.c **** *   Define                        Description
 529:.\Generated_Source\PSoC4/CyLib.c **** *   CY_SYS_CLK_SYSCLK_DIV1        SYSCLK = HFCLK / 1
 530:.\Generated_Source\PSoC4/CyLib.c **** *   CY_SYS_CLK_SYSCLK_DIV2        SYSCLK = HFCLK / 2
 531:.\Generated_Source\PSoC4/CyLib.c **** *   CY_SYS_CLK_SYSCLK_DIV4        SYSCLK = HFCLK / 4
 532:.\Generated_Source\PSoC4/CyLib.c **** *   CY_SYS_CLK_SYSCLK_DIV8        SYSCLK = HFCLK / 8
 533:.\Generated_Source\PSoC4/CyLib.c **** *   CY_SYS_CLK_SYSCLK_DIV16       SYSCLK = HFCLK / 16  (N/A for 4000 Family)
 534:.\Generated_Source\PSoC4/CyLib.c **** *   CY_SYS_CLK_SYSCLK_DIV32       SYSCLK = HFCLK / 32  (N/A for 4000 Family)
 535:.\Generated_Source\PSoC4/CyLib.c **** *   CY_SYS_CLK_SYSCLK_DIV64       SYSCLK = HFCLK / 64  (N/A for 4000 Family)
 536:.\Generated_Source\PSoC4/CyLib.c **** *   CY_SYS_CLK_SYSCLK_DIV128      SYSCLK = HFCLK / 128 (N/A for 4000 Family)
 537:.\Generated_Source\PSoC4/CyLib.c **** *
 538:.\Generated_Source\PSoC4/CyLib.c **** * Return:
 539:.\Generated_Source\PSoC4/CyLib.c **** *  None
 540:.\Generated_Source\PSoC4/CyLib.c **** *
 541:.\Generated_Source\PSoC4/CyLib.c **** * Side Effects:
 542:.\Generated_Source\PSoC4/CyLib.c **** *  4000 Family:
 543:.\Generated_Source\PSoC4/CyLib.c **** *  The SYS_CLK has the speed of 16 MHz, so dividers HF_CLK and SYS_CLK
 544:.\Generated_Source\PSoC4/CyLib.c **** *  dividers should be selected in a way, not to exceed 16 MHz for SYS_CLK.
 545:.\Generated_Source\PSoC4/CyLib.c **** *
 546:.\Generated_Source\PSoC4/CyLib.c **** *  If the SYSCLK clock frequency increases during the device operation, call
 547:.\Generated_Source\PSoC4/CyLib.c **** *  CySysFlashSetWaitCycles() with the appropriate parameter to adjust the number
 548:.\Generated_Source\PSoC4/CyLib.c **** *  of clock cycles the cache will wait before sampling data comes back from
 549:.\Generated_Source\PSoC4/CyLib.c **** *  Flash. If the SYSCLK clock frequency decreases, you can call
 550:.\Generated_Source\PSoC4/CyLib.c **** *  CySysFlashSetWaitCycles() to improve the CPU performance. See
 551:.\Generated_Source\PSoC4/CyLib.c **** *  CySysFlashSetWaitCycles() description for more information.
 552:.\Generated_Source\PSoC4/CyLib.c **** *
 553:.\Generated_Source\PSoC4/CyLib.c **** *******************************************************************************/
 554:.\Generated_Source\PSoC4/CyLib.c **** void CySysClkWriteSysclkDiv(uint32 divider)
 555:.\Generated_Source\PSoC4/CyLib.c **** {
 171              		.loc 1 555 0
 172              		.cfi_startproc
 173              	.LVL10:
 174 0000 38B5     		push	{r3, r4, r5, lr}
 175              		.cfi_def_cfa_offset 16
 176              		.cfi_offset 3, -16
 177              		.cfi_offset 4, -12
ARM GAS  C:\Users\ddemidov\AppData\Local\Temp\ccvWfYq9.s 			page 14


 178              		.cfi_offset 5, -8
 179              		.cfi_offset 14, -4
 180              		.loc 1 555 0
 181 0002 051C     		mov	r5, r0
 556:.\Generated_Source\PSoC4/CyLib.c ****     uint8  interruptState;
 557:.\Generated_Source\PSoC4/CyLib.c **** 
 558:.\Generated_Source\PSoC4/CyLib.c ****     interruptState = CyEnterCriticalSection();
 182              		.loc 1 558 0
 183 0004 FFF7FEFF 		bl	CyEnterCriticalSection
 184              	.LVL11:
 559:.\Generated_Source\PSoC4/CyLib.c **** 
 560:.\Generated_Source\PSoC4/CyLib.c ****     CY_SYS_CLK_SELECT_REG = ((uint32)(((uint32)divider & CY_SYS_CLK_SELECT_SYSCLK_DIV_MASK) <<
 185              		.loc 1 560 0
 186 0008 0721     		mov	r1, #7
 561:.\Generated_Source\PSoC4/CyLib.c ****                                     CY_SYS_CLK_SELECT_SYSCLK_DIV_SHIFT)) |
 562:.\Generated_Source\PSoC4/CyLib.c ****                             (CY_SYS_CLK_SELECT_REG & ((uint32)(~(uint32)(CY_SYS_CLK_SELECT_SYSCLK_D
 187              		.loc 1 562 0
 188 000a 054C     		ldr	r4, .L14
 189 000c 054A     		ldr	r2, .L14+4
 190 000e 2368     		ldr	r3, [r4]
 560:.\Generated_Source\PSoC4/CyLib.c ****                                     CY_SYS_CLK_SELECT_SYSCLK_DIV_SHIFT)) |
 191              		.loc 1 560 0
 192 0010 2940     		and	r1, r5
 193 0012 C904     		lsl	r1, r1, #19
 194              		.loc 1 562 0
 195 0014 1340     		and	r3, r2
 561:.\Generated_Source\PSoC4/CyLib.c ****                                     CY_SYS_CLK_SELECT_SYSCLK_DIV_SHIFT)) |
 196              		.loc 1 561 0
 197 0016 0B43     		orr	r3, r1
 560:.\Generated_Source\PSoC4/CyLib.c ****                                     CY_SYS_CLK_SELECT_SYSCLK_DIV_SHIFT)) |
 198              		.loc 1 560 0
 199 0018 2360     		str	r3, [r4]
 563:.\Generated_Source\PSoC4/CyLib.c ****                                     CY_SYS_CLK_SELECT_SYSCLK_DIV_SHIFT))));
 564:.\Generated_Source\PSoC4/CyLib.c **** 
 565:.\Generated_Source\PSoC4/CyLib.c ****     CyExitCriticalSection(interruptState);
 200              		.loc 1 565 0
 201 001a FFF7FEFF 		bl	CyExitCriticalSection
 202              	.LVL12:
 566:.\Generated_Source\PSoC4/CyLib.c **** }
 203              		.loc 1 566 0
 204              		@ sp needed
 205              	.LVL13:
 206 001e 38BD     		pop	{r3, r4, r5, pc}
 207              	.L15:
 208              		.align	2
 209              	.L14:
 210 0020 00010B40 		.word	1074462976
 211 0024 FFFFC7FF 		.word	-3670017
 212              		.cfi_endproc
 213              	.LFE6:
 214              		.size	CySysClkWriteSysclkDiv, .-CySysClkWriteSysclkDiv
 215              		.section	.text.CySysClkWriteImoFreq,"ax",%progbits
 216              		.align	1
 217              		.global	CySysClkWriteImoFreq
 218              		.code	16
 219              		.thumb_func
 220              		.type	CySysClkWriteImoFreq, %function
ARM GAS  C:\Users\ddemidov\AppData\Local\Temp\ccvWfYq9.s 			page 15


 221              	CySysClkWriteImoFreq:
 222              	.LFB7:
 567:.\Generated_Source\PSoC4/CyLib.c **** 
 568:.\Generated_Source\PSoC4/CyLib.c **** 
 569:.\Generated_Source\PSoC4/CyLib.c **** /*******************************************************************************
 570:.\Generated_Source\PSoC4/CyLib.c **** * Function Name: CySysClkWriteImoFreq
 571:.\Generated_Source\PSoC4/CyLib.c **** ********************************************************************************
 572:.\Generated_Source\PSoC4/CyLib.c **** *
 573:.\Generated_Source\PSoC4/CyLib.c **** * Summary:
 574:.\Generated_Source\PSoC4/CyLib.c **** *  Sets the frequency of the IMO.
 575:.\Generated_Source\PSoC4/CyLib.c **** *
 576:.\Generated_Source\PSoC4/CyLib.c **** *  If IMO is currently driving the HFCLK, and if the HFCLK frequency decreases,
 577:.\Generated_Source\PSoC4/CyLib.c **** *  you can call CySysFlashSetWaitCycles () to improve CPU performance. See
 578:.\Generated_Source\PSoC4/CyLib.c **** *  CySysFlashSetWaitCycles () for more information.
 579:.\Generated_Source\PSoC4/CyLib.c **** *
 580:.\Generated_Source\PSoC4/CyLib.c **** *  For PSoC 4000 family of devices, maximum HFCLK frequency is 16 MHz. If IMO is
 581:.\Generated_Source\PSoC4/CyLib.c **** *  configured to frequencies above 16 MHz, ensure to set the appropriate HFCLK
 582:.\Generated_Source\PSoC4/CyLib.c **** *  predivider value first.
 583:.\Generated_Source\PSoC4/CyLib.c **** *
 584:.\Generated_Source\PSoC4/CyLib.c **** *  For PSoC 4200M and PSoC 4200L device families, if WCO lock feature is enabled
 585:.\Generated_Source\PSoC4/CyLib.c **** *  then this API will disable the lock, write the new IMO frequency and then
 586:.\Generated_Source\PSoC4/CyLib.c **** *  re-enable the lock.
 587:.\Generated_Source\PSoC4/CyLib.c **** *
 588:.\Generated_Source\PSoC4/CyLib.c **** *  For PSoC 4200L device families, this function enables the USB lock when 24 or
 589:.\Generated_Source\PSoC4/CyLib.c **** *  48 MHz passed as a parameter if the USB lock option is enabled in Design Wide
 590:.\Generated_Source\PSoC4/CyLib.c **** *  Resources tab or CySysClkImoEnableUsbLock() was called before. Note the USB
 591:.\Generated_Source\PSoC4/CyLib.c **** *  lock is disabled during IMO frequency change.
 592:.\Generated_Source\PSoC4/CyLib.c **** *
 593:.\Generated_Source\PSoC4/CyLib.c **** *  Note: The CPU is halted if new frequency is invalid and project is compiled
 594:.\Generated_Source\PSoC4/CyLib.c **** *  in debug mode.
 595:.\Generated_Source\PSoC4/CyLib.c **** *
 596:.\Generated_Source\PSoC4/CyLib.c **** * Parameters:
 597:.\Generated_Source\PSoC4/CyLib.c **** *  All PSoC 4 families excluding PSoC 4000: Valid range [3-48] with step size
 598:.\Generated_Source\PSoC4/CyLib.c **** *  equals 1.
 599:.\Generated_Source\PSoC4/CyLib.c **** *
 600:.\Generated_Source\PSoC4/CyLib.c **** *  PSoC 4000: Valid range [24-48] with step size equals 4.
 601:.\Generated_Source\PSoC4/CyLib.c **** *
 602:.\Generated_Source\PSoC4/CyLib.c **** *  Note: The CPU is halted if new frequency is invalid and project is
 603:.\Generated_Source\PSoC4/CyLib.c **** *  compiled in debug mode.
 604:.\Generated_Source\PSoC4/CyLib.c **** *
 605:.\Generated_Source\PSoC4/CyLib.c **** * Return:
 606:.\Generated_Source\PSoC4/CyLib.c **** *  None
 607:.\Generated_Source\PSoC4/CyLib.c **** *
 608:.\Generated_Source\PSoC4/CyLib.c **** * Side Effects:
 609:.\Generated_Source\PSoC4/CyLib.c **** *  If the SYSCLK clock frequency increases during the device operation, call
 610:.\Generated_Source\PSoC4/CyLib.c **** *  CySysFlashSetWaitCycles() with the appropriate parameter to adjust the number
 611:.\Generated_Source\PSoC4/CyLib.c **** *  of clock cycles the cache will wait before sampling data comes back from
 612:.\Generated_Source\PSoC4/CyLib.c **** *  Flash. If the SYSCLK clock frequency decreases, you can call
 613:.\Generated_Source\PSoC4/CyLib.c **** *  CySysFlashSetWaitCycles() to improve the CPU performance. See
 614:.\Generated_Source\PSoC4/CyLib.c **** *  CySysFlashSetWaitCycles() description for more information.
 615:.\Generated_Source\PSoC4/CyLib.c **** *
 616:.\Generated_Source\PSoC4/CyLib.c **** *  PSoC 4000: The System Clock (SYSCLK) has maximum speed of 16 MHz, so HFCLK
 617:.\Generated_Source\PSoC4/CyLib.c **** *  and SYSCLK dividers should be selected in a way, to not to exceed 16 MHz for
 618:.\Generated_Source\PSoC4/CyLib.c **** *  the System clock.
 619:.\Generated_Source\PSoC4/CyLib.c **** *
 620:.\Generated_Source\PSoC4/CyLib.c **** *******************************************************************************/
 621:.\Generated_Source\PSoC4/CyLib.c **** #if(CY_IP_SRSSV2)
ARM GAS  C:\Users\ddemidov\AppData\Local\Temp\ccvWfYq9.s 			page 16


 622:.\Generated_Source\PSoC4/CyLib.c ****     void CySysClkWriteImoFreq(uint32 freq)
 623:.\Generated_Source\PSoC4/CyLib.c ****     {
 223              		.loc 1 623 0
 224              		.cfi_startproc
 225              	.LVL14:
 226 0000 10B5     		push	{r4, lr}
 227              		.cfi_def_cfa_offset 8
 228              		.cfi_offset 4, -8
 229              		.cfi_offset 14, -4
 230 0002 041C     		mov	r4, r0
 231 0004 86B0     		sub	sp, sp, #24
 232              		.cfi_def_cfa_offset 32
 624:.\Generated_Source\PSoC4/CyLib.c ****         #if (CY_IP_FMLT)
 625:.\Generated_Source\PSoC4/CyLib.c ****             volatile uint32   parameters[2u];
 626:.\Generated_Source\PSoC4/CyLib.c ****             volatile uint32   regValues[4u];
 627:.\Generated_Source\PSoC4/CyLib.c ****         #else
 628:.\Generated_Source\PSoC4/CyLib.c ****             uint8  bgTrim4;
 629:.\Generated_Source\PSoC4/CyLib.c ****             uint8  bgTrim5;
 630:.\Generated_Source\PSoC4/CyLib.c ****             uint8  newImoTrim2Value;
 631:.\Generated_Source\PSoC4/CyLib.c ****             uint8  currentImoTrim2Value;
 632:.\Generated_Source\PSoC4/CyLib.c ****             uint8  imoTrim1Value;
 633:.\Generated_Source\PSoC4/CyLib.c ****         #endif /* (CY_IP_FM) */
 634:.\Generated_Source\PSoC4/CyLib.c **** 
 635:.\Generated_Source\PSoC4/CyLib.c ****         #if (CY_IP_IMO_TRIMMABLE_BY_WCO)
 636:.\Generated_Source\PSoC4/CyLib.c ****             uint32 wcoLock = 0u;
 637:.\Generated_Source\PSoC4/CyLib.c ****         #endif  /* (CY_IP_IMO_TRIMMABLE_BY_WCO) */
 638:.\Generated_Source\PSoC4/CyLib.c **** 
 639:.\Generated_Source\PSoC4/CyLib.c ****         #if (CY_IP_IMO_TRIMMABLE_BY_USB)
 640:.\Generated_Source\PSoC4/CyLib.c ****             uint32 usbLock = 0u;
 641:.\Generated_Source\PSoC4/CyLib.c ****         #endif  /* (CY_IP_IMO_TRIMMABLE_BY_USB) */
 642:.\Generated_Source\PSoC4/CyLib.c **** 
 643:.\Generated_Source\PSoC4/CyLib.c ****         uint8  interruptState;
 644:.\Generated_Source\PSoC4/CyLib.c **** 
 645:.\Generated_Source\PSoC4/CyLib.c **** 
 646:.\Generated_Source\PSoC4/CyLib.c ****         interruptState = CyEnterCriticalSection();
 233              		.loc 1 646 0
 234 0006 FFF7FEFF 		bl	CyEnterCriticalSection
 235              	.LVL15:
 647:.\Generated_Source\PSoC4/CyLib.c **** 
 648:.\Generated_Source\PSoC4/CyLib.c ****         #if (CY_IP_IMO_TRIMMABLE_BY_WCO)
 649:.\Generated_Source\PSoC4/CyLib.c ****             if(0u != CySysClkImoGetWcoLock())
 650:.\Generated_Source\PSoC4/CyLib.c ****             {
 651:.\Generated_Source\PSoC4/CyLib.c ****                 wcoLock = 1u;
 652:.\Generated_Source\PSoC4/CyLib.c ****                 CySysClkImoDisableWcoLock();
 653:.\Generated_Source\PSoC4/CyLib.c ****             }
 654:.\Generated_Source\PSoC4/CyLib.c ****         #endif  /* (CY_IP_IMO_TRIMMABLE_BY_WCO) */
 655:.\Generated_Source\PSoC4/CyLib.c **** 
 656:.\Generated_Source\PSoC4/CyLib.c **** 
 657:.\Generated_Source\PSoC4/CyLib.c ****         #if (CY_IP_IMO_TRIMMABLE_BY_USB)
 658:.\Generated_Source\PSoC4/CyLib.c **** 
 659:.\Generated_Source\PSoC4/CyLib.c ****             #if (CYDEV_IMO_TRIMMED_BY_USB == 0u)
 660:.\Generated_Source\PSoC4/CyLib.c ****                 if(0u != CySysClkImoGetUsbLock())
 661:.\Generated_Source\PSoC4/CyLib.c ****                 {
 662:.\Generated_Source\PSoC4/CyLib.c ****             #endif  /* (CYDEV_IMO_TRIMMED_BY_USB == 0u) */
 663:.\Generated_Source\PSoC4/CyLib.c **** 
 664:.\Generated_Source\PSoC4/CyLib.c ****                 if ((24u == freq) || (48u == freq))
 665:.\Generated_Source\PSoC4/CyLib.c ****                 {
ARM GAS  C:\Users\ddemidov\AppData\Local\Temp\ccvWfYq9.s 			page 17


 666:.\Generated_Source\PSoC4/CyLib.c ****                     usbLock = 1u;
 667:.\Generated_Source\PSoC4/CyLib.c ****                     CySysClkImoDisableUsbLock();
 668:.\Generated_Source\PSoC4/CyLib.c ****                 }
 669:.\Generated_Source\PSoC4/CyLib.c **** 
 670:.\Generated_Source\PSoC4/CyLib.c ****             #if (CYDEV_IMO_TRIMMED_BY_USB == 0u)
 671:.\Generated_Source\PSoC4/CyLib.c ****                 }
 672:.\Generated_Source\PSoC4/CyLib.c ****             #endif  /* (CYDEV_IMO_TRIMMED_BY_USB == 0u) */
 673:.\Generated_Source\PSoC4/CyLib.c **** 
 674:.\Generated_Source\PSoC4/CyLib.c ****         #endif  /* (CYDEV_IMO_TRIMMED_BY_USB == 0u) */
 675:.\Generated_Source\PSoC4/CyLib.c **** 
 676:.\Generated_Source\PSoC4/CyLib.c **** 
 677:.\Generated_Source\PSoC4/CyLib.c ****         #if (CY_IP_FMLT)
 678:.\Generated_Source\PSoC4/CyLib.c **** 
 679:.\Generated_Source\PSoC4/CyLib.c ****             /* FM-Lite Clock Restore */
 680:.\Generated_Source\PSoC4/CyLib.c ****             regValues[0u] = CY_SYS_CLK_IMO_CONFIG_REG;
 236              		.loc 1 680 0
 237 000a 0E4B     		ldr	r3, .L17
 681:.\Generated_Source\PSoC4/CyLib.c ****             regValues[1u] = CY_SYS_CLK_SELECT_REG;
 682:.\Generated_Source\PSoC4/CyLib.c ****             regValues[2u] = cyImoFreqMhz2Reg[freq - CY_SYS_CLK_IMO_FREQ_TABLE_OFFSET];
 683:.\Generated_Source\PSoC4/CyLib.c ****             regValues[3u] = CY_FLASH_CTL_REG;
 684:.\Generated_Source\PSoC4/CyLib.c **** 
 685:.\Generated_Source\PSoC4/CyLib.c ****             parameters[0u] =
 686:.\Generated_Source\PSoC4/CyLib.c ****                 (uint32) ((CY_FLASH_KEY_TWO(CY_FLASH_API_OPCODE_CLK_RESTORE) <<  CY_FLASH_PARAM_KEY
 687:.\Generated_Source\PSoC4/CyLib.c ****                             CY_FLASH_KEY_ONE);
 688:.\Generated_Source\PSoC4/CyLib.c ****             parameters[1u] = (uint32) &regValues[0u];
 689:.\Generated_Source\PSoC4/CyLib.c **** 
 690:.\Generated_Source\PSoC4/CyLib.c ****             CY_FLASH_CPUSS_SYSARG_REG = (uint32) &parameters[0u];
 691:.\Generated_Source\PSoC4/CyLib.c ****             CY_FLASH_CPUSS_SYSREQ_REG = CY_FLASH_CPUSS_REQ_START | CY_FLASH_API_OPCODE_CLK_RESTORE;
 238              		.loc 1 691 0
 239 000c 0E49     		ldr	r1, .L17+4
 680:.\Generated_Source\PSoC4/CyLib.c ****             regValues[1u] = CY_SYS_CLK_SELECT_REG;
 240              		.loc 1 680 0
 241 000e 1A68     		ldr	r2, [r3]
 242 0010 02AB     		add	r3, sp, #8
 243 0012 0292     		str	r2, [sp, #8]
 681:.\Generated_Source\PSoC4/CyLib.c ****             regValues[1u] = CY_SYS_CLK_SELECT_REG;
 244              		.loc 1 681 0
 245 0014 0D4A     		ldr	r2, .L17+8
 246 0016 1268     		ldr	r2, [r2]
 247 0018 0392     		str	r2, [sp, #12]
 682:.\Generated_Source\PSoC4/CyLib.c ****             regValues[3u] = CY_FLASH_CTL_REG;
 248              		.loc 1 682 0
 249 001a 0D4A     		ldr	r2, .L17+12
 250 001c 1419     		add	r4, r2, r4
 251              	.LVL16:
 252 001e 033C     		sub	r4, r4, #3
 253 0020 2278     		ldrb	r2, [r4]
 254 0022 0492     		str	r2, [sp, #16]
 683:.\Generated_Source\PSoC4/CyLib.c **** 
 255              		.loc 1 683 0
 256 0024 0B4A     		ldr	r2, .L17+16
 257 0026 1268     		ldr	r2, [r2]
 258 0028 0592     		str	r2, [sp, #20]
 685:.\Generated_Source\PSoC4/CyLib.c ****                 (uint32) ((CY_FLASH_KEY_TWO(CY_FLASH_API_OPCODE_CLK_RESTORE) <<  CY_FLASH_PARAM_KEY
 259              		.loc 1 685 0
 260 002a 0B4A     		ldr	r2, .L17+20
 261 002c 0092     		str	r2, [sp]
ARM GAS  C:\Users\ddemidov\AppData\Local\Temp\ccvWfYq9.s 			page 18


 690:.\Generated_Source\PSoC4/CyLib.c ****             CY_FLASH_CPUSS_SYSREQ_REG = CY_FLASH_CPUSS_REQ_START | CY_FLASH_API_OPCODE_CLK_RESTORE;
 262              		.loc 1 690 0
 263 002e 6A46     		mov	r2, sp
 688:.\Generated_Source\PSoC4/CyLib.c **** 
 264              		.loc 1 688 0
 265 0030 0193     		str	r3, [sp, #4]
 690:.\Generated_Source\PSoC4/CyLib.c ****             CY_FLASH_CPUSS_SYSREQ_REG = CY_FLASH_CPUSS_REQ_START | CY_FLASH_API_OPCODE_CLK_RESTORE;
 266              		.loc 1 690 0
 267 0032 0A4B     		ldr	r3, .L17+24
 268 0034 1A60     		str	r2, [r3]
 269              		.loc 1 691 0
 270 0036 0A4A     		ldr	r2, .L17+28
 271 0038 1160     		str	r1, [r2]
 692:.\Generated_Source\PSoC4/CyLib.c ****             (void) CY_FLASH_CPUSS_SYSARG_REG;
 272              		.loc 1 692 0
 273 003a 1B68     		ldr	r3, [r3]
 693:.\Generated_Source\PSoC4/CyLib.c **** 
 694:.\Generated_Source\PSoC4/CyLib.c ****         #else /* (CY_IP_FM) */
 695:.\Generated_Source\PSoC4/CyLib.c **** 
 696:.\Generated_Source\PSoC4/CyLib.c ****         if ((freq >= CY_SYS_CLK_IMO_MIN_FREQ_MHZ) && (freq <= CY_SYS_CLK_IMO_MAX_FREQ_MHZ))
 697:.\Generated_Source\PSoC4/CyLib.c ****         {
 698:.\Generated_Source\PSoC4/CyLib.c ****             if(freq <= CY_SFLASH_IMO_MAXF0_REG)
 699:.\Generated_Source\PSoC4/CyLib.c ****             {
 700:.\Generated_Source\PSoC4/CyLib.c ****                 bgTrim4 = CY_SFLASH_IMO_ABS0_REG;
 701:.\Generated_Source\PSoC4/CyLib.c ****                 bgTrim5 = CY_SFLASH_IMO_TMPCO0_REG;
 702:.\Generated_Source\PSoC4/CyLib.c ****             }
 703:.\Generated_Source\PSoC4/CyLib.c ****             else if(freq <= CY_SFLASH_IMO_MAXF1_REG)
 704:.\Generated_Source\PSoC4/CyLib.c ****             {
 705:.\Generated_Source\PSoC4/CyLib.c ****                 bgTrim4 = CY_SFLASH_IMO_ABS1_REG;
 706:.\Generated_Source\PSoC4/CyLib.c ****                 bgTrim5 = CY_SFLASH_IMO_TMPCO1_REG;
 707:.\Generated_Source\PSoC4/CyLib.c ****             }
 708:.\Generated_Source\PSoC4/CyLib.c ****             else if(freq <= CY_SFLASH_IMO_MAXF2_REG)
 709:.\Generated_Source\PSoC4/CyLib.c ****             {
 710:.\Generated_Source\PSoC4/CyLib.c ****                 bgTrim4 = CY_SFLASH_IMO_ABS2_REG;
 711:.\Generated_Source\PSoC4/CyLib.c ****                 bgTrim5 = CY_SFLASH_IMO_TMPCO2_REG;
 712:.\Generated_Source\PSoC4/CyLib.c ****             }
 713:.\Generated_Source\PSoC4/CyLib.c ****             else if(freq <= CY_SFLASH_IMO_MAXF3_REG)
 714:.\Generated_Source\PSoC4/CyLib.c ****             {
 715:.\Generated_Source\PSoC4/CyLib.c ****                 bgTrim4 = CY_SFLASH_IMO_ABS3_REG;
 716:.\Generated_Source\PSoC4/CyLib.c ****                 bgTrim5 = CY_SFLASH_IMO_TMPCO3_REG;
 717:.\Generated_Source\PSoC4/CyLib.c ****             }
 718:.\Generated_Source\PSoC4/CyLib.c ****             else
 719:.\Generated_Source\PSoC4/CyLib.c ****             {
 720:.\Generated_Source\PSoC4/CyLib.c ****                 bgTrim4 = CY_SFLASH_IMO_ABS4_REG;
 721:.\Generated_Source\PSoC4/CyLib.c ****                 bgTrim5 = CY_SFLASH_IMO_TMPCO4_REG;
 722:.\Generated_Source\PSoC4/CyLib.c ****             }
 723:.\Generated_Source\PSoC4/CyLib.c **** 
 724:.\Generated_Source\PSoC4/CyLib.c ****             /* Get IMO_TRIM2 value for the new frequency */
 725:.\Generated_Source\PSoC4/CyLib.c ****             newImoTrim2Value = cyImoFreqMhz2Reg[freq - CY_SYS_CLK_IMO_FREQ_TABLE_OFFSET];
 726:.\Generated_Source\PSoC4/CyLib.c **** 
 727:.\Generated_Source\PSoC4/CyLib.c **** 
 728:.\Generated_Source\PSoC4/CyLib.c ****             /****************************************************************************
 729:.\Generated_Source\PSoC4/CyLib.c ****             * The IMO can have a different trim per frequency. To avoid possible corner
 730:.\Generated_Source\PSoC4/CyLib.c ****             * cases where a trim change can exceed the maximum frequency, the trim must
 731:.\Generated_Source\PSoC4/CyLib.c ****             * be applied at a frequency that is low enough.
 732:.\Generated_Source\PSoC4/CyLib.c ****             *
 733:.\Generated_Source\PSoC4/CyLib.c ****             * Comparing IMO_TRIM2 values for the current and new frequencies, since
ARM GAS  C:\Users\ddemidov\AppData\Local\Temp\ccvWfYq9.s 			page 19


 734:.\Generated_Source\PSoC4/CyLib.c ****             * IMO_TRIM2 value as a function of IMO frequency is a strictly increasing
 735:.\Generated_Source\PSoC4/CyLib.c ****             * function and is time-invariant.
 736:.\Generated_Source\PSoC4/CyLib.c ****             ***************************************************************************/
 737:.\Generated_Source\PSoC4/CyLib.c ****             if ((newImoTrim2Value >= CY_SYS_CLK_IMO_BOUNDARY_FREQ_TRIM2) && (freq >= CY_SYS_CLK_IMO
 738:.\Generated_Source\PSoC4/CyLib.c ****             {
 739:.\Generated_Source\PSoC4/CyLib.c ****                 /* Set boundary IMO frequency: safe for IMO above 48 MHZ trimming */
 740:.\Generated_Source\PSoC4/CyLib.c ****                 CY_SYS_CLK_IMO_TRIM2_REG = (uint32) cyImoFreqMhz2Reg[CY_SYS_CLK_IMO_TEMP_FREQ_MHZ -
 741:.\Generated_Source\PSoC4/CyLib.c ****                                                                      CY_SYS_CLK_IMO_FREQ_TABLE_OFFS
 742:.\Generated_Source\PSoC4/CyLib.c **** 
 743:.\Generated_Source\PSoC4/CyLib.c ****                 CyDelayCycles(CY_SYS_CLK_IMO_FREQ_TIMEOUT_CYCLES);
 744:.\Generated_Source\PSoC4/CyLib.c **** 
 745:.\Generated_Source\PSoC4/CyLib.c ****                 currentImoTrim2Value = CY_SYS_CLK_IMO_TEMP_FREQ_TRIM2;
 746:.\Generated_Source\PSoC4/CyLib.c ****             }
 747:.\Generated_Source\PSoC4/CyLib.c ****             else
 748:.\Generated_Source\PSoC4/CyLib.c ****             {
 749:.\Generated_Source\PSoC4/CyLib.c ****                 currentImoTrim2Value = (uint8) (CY_SYS_CLK_IMO_TRIM2_REG & CY_SYS_CLK_IMO_FREQ_BITS
 750:.\Generated_Source\PSoC4/CyLib.c ****             }
 751:.\Generated_Source\PSoC4/CyLib.c **** 
 752:.\Generated_Source\PSoC4/CyLib.c **** 
 753:.\Generated_Source\PSoC4/CyLib.c ****             /***************************************************************************
 754:.\Generated_Source\PSoC4/CyLib.c ****             * A trim change needs to be allowed to settle (within 5us) before the Freq
 755:.\Generated_Source\PSoC4/CyLib.c ****             * can be changed to a new frequency.
 756:.\Generated_Source\PSoC4/CyLib.c ****             *
 757:.\Generated_Source\PSoC4/CyLib.c ****             * Comparing IMO_TRIM2 values for the current and new frequencies, since
 758:.\Generated_Source\PSoC4/CyLib.c ****             * IMO_TRIM2 value as a function of IMO frequency is a strictly increasing
 759:.\Generated_Source\PSoC4/CyLib.c ****             * function and is time-invariant.
 760:.\Generated_Source\PSoC4/CyLib.c ****             ***************************************************************************/
 761:.\Generated_Source\PSoC4/CyLib.c ****             if (newImoTrim2Value < currentImoTrim2Value)
 762:.\Generated_Source\PSoC4/CyLib.c ****             {
 763:.\Generated_Source\PSoC4/CyLib.c ****                 /* Set new IMO frequency */
 764:.\Generated_Source\PSoC4/CyLib.c ****                 CY_SYS_CLK_IMO_TRIM2_REG = cyImoFreqMhz2Reg[freq - CY_SYS_CLK_IMO_FREQ_TABLE_OFFSET
 765:.\Generated_Source\PSoC4/CyLib.c ****                 CyDelayCycles(CY_SYS_CLK_IMO_FREQ_TIMEOUT_CYCLES);
 766:.\Generated_Source\PSoC4/CyLib.c ****             }
 767:.\Generated_Source\PSoC4/CyLib.c **** 
 768:.\Generated_Source\PSoC4/CyLib.c ****             /* Set trims for the new IMO frequency */
 769:.\Generated_Source\PSoC4/CyLib.c **** 
 770:.\Generated_Source\PSoC4/CyLib.c ****             #if (CY_IP_IMO_TRIMMABLE_BY_USB)
 771:.\Generated_Source\PSoC4/CyLib.c ****                 if ((1u == usbLock) && (48u == freq))
 772:.\Generated_Source\PSoC4/CyLib.c ****                 {
 773:.\Generated_Source\PSoC4/CyLib.c ****                     imoTrim1Value = CY_SFLASH_IMO_TRIM_USBMODE_48_REG;
 774:.\Generated_Source\PSoC4/CyLib.c ****                 }
 775:.\Generated_Source\PSoC4/CyLib.c ****                 else if ((1u == usbLock) && (24u == freq))
 776:.\Generated_Source\PSoC4/CyLib.c ****                 {
 777:.\Generated_Source\PSoC4/CyLib.c ****                     imoTrim1Value = CY_SFLASH_IMO_TRIM_USBMODE_24_REG;
 778:.\Generated_Source\PSoC4/CyLib.c ****                 }
 779:.\Generated_Source\PSoC4/CyLib.c ****                 else
 780:.\Generated_Source\PSoC4/CyLib.c ****                 {
 781:.\Generated_Source\PSoC4/CyLib.c ****                     imoTrim1Value = (uint8) CY_SFLASH_IMO_TRIM_REG(freq - CY_SYS_CLK_IMO_FREQ_TABLE
 782:.\Generated_Source\PSoC4/CyLib.c ****                 }
 783:.\Generated_Source\PSoC4/CyLib.c ****             #else
 784:.\Generated_Source\PSoC4/CyLib.c ****                 imoTrim1Value = (uint8) CY_SFLASH_IMO_TRIM_REG(freq - CY_SYS_CLK_IMO_FREQ_TABLE_OFF
 785:.\Generated_Source\PSoC4/CyLib.c ****             #endif  /* (CY_IP_IMO_TRIMMABLE_BY_USB) */
 786:.\Generated_Source\PSoC4/CyLib.c **** 
 787:.\Generated_Source\PSoC4/CyLib.c **** 
 788:.\Generated_Source\PSoC4/CyLib.c ****             CY_SYS_CLK_IMO_TRIM1_REG = (uint32) imoTrim1Value;
 789:.\Generated_Source\PSoC4/CyLib.c ****             CY_PWR_BG_TRIM4_REG  = bgTrim4;
 790:.\Generated_Source\PSoC4/CyLib.c ****             CY_PWR_BG_TRIM5_REG  = bgTrim5;
ARM GAS  C:\Users\ddemidov\AppData\Local\Temp\ccvWfYq9.s 			page 20


 791:.\Generated_Source\PSoC4/CyLib.c ****             CyDelayUs(CY_SYS_CLK_IMO_TRIM_TIMEOUT_US);
 792:.\Generated_Source\PSoC4/CyLib.c **** 
 793:.\Generated_Source\PSoC4/CyLib.c ****             if (newImoTrim2Value > currentImoTrim2Value)
 794:.\Generated_Source\PSoC4/CyLib.c ****             {
 795:.\Generated_Source\PSoC4/CyLib.c ****                 /* Set new IMO frequency */
 796:.\Generated_Source\PSoC4/CyLib.c ****                 CY_SYS_CLK_IMO_TRIM2_REG = cyImoFreqMhz2Reg[freq - CY_SYS_CLK_IMO_FREQ_TABLE_OFFSET
 797:.\Generated_Source\PSoC4/CyLib.c ****                 CyDelayCycles(CY_SYS_CLK_IMO_FREQ_TIMEOUT_CYCLES);
 798:.\Generated_Source\PSoC4/CyLib.c ****             }
 799:.\Generated_Source\PSoC4/CyLib.c ****         }
 800:.\Generated_Source\PSoC4/CyLib.c ****         else
 801:.\Generated_Source\PSoC4/CyLib.c ****         {
 802:.\Generated_Source\PSoC4/CyLib.c ****             /* Halt CPU in debug mode if new frequency is invalid */
 803:.\Generated_Source\PSoC4/CyLib.c ****             CYASSERT(0u != 0u);
 804:.\Generated_Source\PSoC4/CyLib.c ****         }
 805:.\Generated_Source\PSoC4/CyLib.c **** 
 806:.\Generated_Source\PSoC4/CyLib.c ****         #endif /* (CY_IP_FMLT) */
 807:.\Generated_Source\PSoC4/CyLib.c **** 
 808:.\Generated_Source\PSoC4/CyLib.c ****         #if (CY_IP_IMO_TRIMMABLE_BY_WCO)
 809:.\Generated_Source\PSoC4/CyLib.c ****             if (1u == wcoLock)
 810:.\Generated_Source\PSoC4/CyLib.c ****             {
 811:.\Generated_Source\PSoC4/CyLib.c ****                 CySysClkImoEnableWcoLock();
 812:.\Generated_Source\PSoC4/CyLib.c ****             }
 813:.\Generated_Source\PSoC4/CyLib.c ****         #endif  /* (CY_IP_IMO_TRIMMABLE_BY_WCO) */
 814:.\Generated_Source\PSoC4/CyLib.c **** 
 815:.\Generated_Source\PSoC4/CyLib.c ****         #if (CY_IP_IMO_TRIMMABLE_BY_USB)
 816:.\Generated_Source\PSoC4/CyLib.c ****             if (1u == usbLock)
 817:.\Generated_Source\PSoC4/CyLib.c ****             {
 818:.\Generated_Source\PSoC4/CyLib.c ****                 CySysClkImoEnableUsbLock();
 819:.\Generated_Source\PSoC4/CyLib.c ****             }
 820:.\Generated_Source\PSoC4/CyLib.c ****         #endif  /* (CY_IP_IMO_TRIMMABLE_BY_USB) */
 821:.\Generated_Source\PSoC4/CyLib.c **** 
 822:.\Generated_Source\PSoC4/CyLib.c ****         CyExitCriticalSection(interruptState);
 274              		.loc 1 822 0
 275 003c FFF7FEFF 		bl	CyExitCriticalSection
 276              	.LVL17:
 823:.\Generated_Source\PSoC4/CyLib.c ****     }
 277              		.loc 1 823 0
 278 0040 06B0     		add	sp, sp, #24
 279              		@ sp needed
 280 0042 10BD     		pop	{r4, pc}
 281              	.L18:
 282              		.align	2
 283              	.L17:
 284 0044 08010B40 		.word	1074462984
 285 0048 17000080 		.word	-2147483625
 286 004c 00010B40 		.word	1074462976
 287 0050 00000000 		.word	.LANCHOR0
 288 0054 30001040 		.word	1074790448
 289 0058 B6EA0000 		.word	60086
 290 005c 08001040 		.word	1074790408
 291 0060 04001040 		.word	1074790404
 292              		.cfi_endproc
 293              	.LFE7:
 294              		.size	CySysClkWriteImoFreq, .-CySysClkWriteImoFreq
 295              		.section	.text.CySysClkEcoStop,"ax",%progbits
 296              		.align	1
 297              		.global	CySysClkEcoStop
ARM GAS  C:\Users\ddemidov\AppData\Local\Temp\ccvWfYq9.s 			page 21


 298              		.code	16
 299              		.thumb_func
 300              		.type	CySysClkEcoStop, %function
 301              	CySysClkEcoStop:
 302              	.LFB9:
 824:.\Generated_Source\PSoC4/CyLib.c **** 
 825:.\Generated_Source\PSoC4/CyLib.c **** #else
 826:.\Generated_Source\PSoC4/CyLib.c **** 
 827:.\Generated_Source\PSoC4/CyLib.c ****     void CySysClkWriteImoFreq(uint32 freq)
 828:.\Generated_Source\PSoC4/CyLib.c ****     {
 829:.\Generated_Source\PSoC4/CyLib.c ****         uint8  interruptState;
 830:.\Generated_Source\PSoC4/CyLib.c **** 
 831:.\Generated_Source\PSoC4/CyLib.c ****         if ((freq == 24u) || (freq == 32u) || (freq == 48u))
 832:.\Generated_Source\PSoC4/CyLib.c ****         {
 833:.\Generated_Source\PSoC4/CyLib.c ****             interruptState = CyEnterCriticalSection();
 834:.\Generated_Source\PSoC4/CyLib.c **** 
 835:.\Generated_Source\PSoC4/CyLib.c ****             /* Set IMO to 24 MHz - CLK_IMO_SELECT.FREQ = 0 */
 836:.\Generated_Source\PSoC4/CyLib.c ****             CY_SYS_CLK_IMO_SELECT_REG &= ((uint32) ~CY_SYS_CLK_IMO_SELECT_FREQ_MASK);
 837:.\Generated_Source\PSoC4/CyLib.c **** 
 838:.\Generated_Source\PSoC4/CyLib.c ****             /* Apply coarse trim */
 839:.\Generated_Source\PSoC4/CyLib.c ****             CY_SYS_CLK_IMO_TRIM1_REG = (CY_SYS_CLK_IMO_TRIM1_REG & ((uint32) ~CY_SYS_CLK_IMO_TRIM1_
 840:.\Generated_Source\PSoC4/CyLib.c ****                 (CY_SFLASH_IMO_TRIM_REG(freq - CY_SYS_CLK_IMO_MIN_FREQ_MHZ) & CY_SYS_CLK_IMO_TRIM1_
 841:.\Generated_Source\PSoC4/CyLib.c **** 
 842:.\Generated_Source\PSoC4/CyLib.c ****             /* Zero out fine trim */
 843:.\Generated_Source\PSoC4/CyLib.c ****             CY_SYS_CLK_IMO_TRIM2_REG = CY_SYS_CLK_IMO_TRIM2_REG & ((uint32) ~CY_SYS_CLK_IMO_TRIM2_F
 844:.\Generated_Source\PSoC4/CyLib.c **** 
 845:.\Generated_Source\PSoC4/CyLib.c ****             /* Apply TC trim */
 846:.\Generated_Source\PSoC4/CyLib.c ****             CY_SYS_CLK_IMO_TRIM3_REG = (CY_SYS_CLK_IMO_TRIM3_REG & ((uint32) ~CY_SYS_CLK_IMO_TRIM3_
 847:.\Generated_Source\PSoC4/CyLib.c ****                 (CY_SFLASH_IMO_TCTRIM_REG(freq - CY_SYS_CLK_IMO_MIN_FREQ_MHZ) & CY_SYS_CLK_IMO_TRIM
 848:.\Generated_Source\PSoC4/CyLib.c **** 
 849:.\Generated_Source\PSoC4/CyLib.c ****             CyDelayCycles(CY_SYS_CLK_IMO_TRIM_DELAY_US);
 850:.\Generated_Source\PSoC4/CyLib.c **** 
 851:.\Generated_Source\PSoC4/CyLib.c ****             if (freq > CY_SYS_CLK_IMO_MIN_FREQ_MHZ)
 852:.\Generated_Source\PSoC4/CyLib.c ****             {
 853:.\Generated_Source\PSoC4/CyLib.c ****                 /* Select nearby intermediate frequency */
 854:.\Generated_Source\PSoC4/CyLib.c ****                 CY_SYS_CLK_IMO_SELECT_REG = (CY_SYS_CLK_IMO_SELECT_REG & ((uint32) ~CY_SYS_CLK_IMO_
 855:.\Generated_Source\PSoC4/CyLib.c ****                     (((freq - 4u - CY_SYS_CLK_IMO_MIN_FREQ_MHZ) >> 2u) & CY_SYS_CLK_IMO_SELECT_FREQ
 856:.\Generated_Source\PSoC4/CyLib.c **** 
 857:.\Generated_Source\PSoC4/CyLib.c ****                 CyDelayCycles(CY_SYS_CLK_IMO_TRIM_DELAY_US);
 858:.\Generated_Source\PSoC4/CyLib.c **** 
 859:.\Generated_Source\PSoC4/CyLib.c ****                 /* Make small step to final frequency */
 860:.\Generated_Source\PSoC4/CyLib.c ****                 /* Select nearby intermediate frequency */
 861:.\Generated_Source\PSoC4/CyLib.c ****                 CY_SYS_CLK_IMO_SELECT_REG = (CY_SYS_CLK_IMO_SELECT_REG & ((uint32) ~CY_SYS_CLK_IMO_
 862:.\Generated_Source\PSoC4/CyLib.c ****                     (((freq - CY_SYS_CLK_IMO_MIN_FREQ_MHZ) >> 2u) & CY_SYS_CLK_IMO_SELECT_FREQ_MASK
 863:.\Generated_Source\PSoC4/CyLib.c ****             }
 864:.\Generated_Source\PSoC4/CyLib.c **** 
 865:.\Generated_Source\PSoC4/CyLib.c ****             CyExitCriticalSection(interruptState);
 866:.\Generated_Source\PSoC4/CyLib.c ****         }
 867:.\Generated_Source\PSoC4/CyLib.c ****         else
 868:.\Generated_Source\PSoC4/CyLib.c ****         {
 869:.\Generated_Source\PSoC4/CyLib.c ****             /* Halt CPU in debug mode if new frequency is invalid */
 870:.\Generated_Source\PSoC4/CyLib.c ****             CYASSERT(0u != 0u);
 871:.\Generated_Source\PSoC4/CyLib.c ****         }
 872:.\Generated_Source\PSoC4/CyLib.c ****     }
 873:.\Generated_Source\PSoC4/CyLib.c **** 
 874:.\Generated_Source\PSoC4/CyLib.c **** #endif /* (CY_IP_SRSSV2) */
 875:.\Generated_Source\PSoC4/CyLib.c **** 
ARM GAS  C:\Users\ddemidov\AppData\Local\Temp\ccvWfYq9.s 			page 22


 876:.\Generated_Source\PSoC4/CyLib.c **** 
 877:.\Generated_Source\PSoC4/CyLib.c **** #if(CY_IP_SRSSLT)
 878:.\Generated_Source\PSoC4/CyLib.c ****     /*******************************************************************************
 879:.\Generated_Source\PSoC4/CyLib.c ****     * Function Name: CySysClkWriteHfclkDiv
 880:.\Generated_Source\PSoC4/CyLib.c ****     ********************************************************************************
 881:.\Generated_Source\PSoC4/CyLib.c ****     *
 882:.\Generated_Source\PSoC4/CyLib.c ****     * Summary:
 883:.\Generated_Source\PSoC4/CyLib.c ****     *  Selects the pre-scaler divider value for HFCLK from IMO.
 884:.\Generated_Source\PSoC4/CyLib.c ****     *
 885:.\Generated_Source\PSoC4/CyLib.c ****     *  The HFCLK predivider allows the device to divide the HFCLK selection mux
 886:.\Generated_Source\PSoC4/CyLib.c ****     *  input before use as HFCLK. The predivider is capable of dividing the HFCLK by
 887:.\Generated_Source\PSoC4/CyLib.c ****     *  powers of 2 between 1 and 8.
 888:.\Generated_Source\PSoC4/CyLib.c ****     *
 889:.\Generated_Source\PSoC4/CyLib.c ****     *  Note HFCLK's frequency cannot exceed 16 MHz. This API is applicable for
 890:.\Generated_Source\PSoC4/CyLib.c ****     *  PSoC 4000 family of devices only.
 891:.\Generated_Source\PSoC4/CyLib.c ****     *
 892:.\Generated_Source\PSoC4/CyLib.c ****     *
 893:.\Generated_Source\PSoC4/CyLib.c ****     * Parameters:
 894:.\Generated_Source\PSoC4/CyLib.c ****     *  divider: HF clock divider value
 895:.\Generated_Source\PSoC4/CyLib.c ****     *   Define                        Description
 896:.\Generated_Source\PSoC4/CyLib.c ****     *   CY_SYS_CLK_HFCLK_DIV_NODIV    Transparent mode (w/o dividing)
 897:.\Generated_Source\PSoC4/CyLib.c ****     *   CY_SYS_CLK_HFCLK_DIV_2        Divide selected clock source by 2
 898:.\Generated_Source\PSoC4/CyLib.c ****     *   CY_SYS_CLK_HFCLK_DIV_4        Divide selected clock source by 4
 899:.\Generated_Source\PSoC4/CyLib.c ****     *   CY_SYS_CLK_HFCLK_DIV_8        Divide selected clock source by 8
 900:.\Generated_Source\PSoC4/CyLib.c ****     *
 901:.\Generated_Source\PSoC4/CyLib.c ****     * Return:
 902:.\Generated_Source\PSoC4/CyLib.c ****     *  None
 903:.\Generated_Source\PSoC4/CyLib.c ****     *
 904:.\Generated_Source\PSoC4/CyLib.c ****     * Side Effects:
 905:.\Generated_Source\PSoC4/CyLib.c ****     *  If the SYSCLK clock frequency increases during the device operation, call
 906:.\Generated_Source\PSoC4/CyLib.c ****     *  CySysFlashSetWaitCycles() with the appropriate parameter to adjust the number
 907:.\Generated_Source\PSoC4/CyLib.c ****     *  of clock cycles the cache will wait before sampling data comes back from
 908:.\Generated_Source\PSoC4/CyLib.c ****     *  Flash. If the SYSCLK clock frequency decreases, you can call
 909:.\Generated_Source\PSoC4/CyLib.c ****     *  CySysFlashSetWaitCycles() to improve the CPU performance. See
 910:.\Generated_Source\PSoC4/CyLib.c ****     *  CySysFlashSetWaitCycles() description for more information.
 911:.\Generated_Source\PSoC4/CyLib.c ****     *
 912:.\Generated_Source\PSoC4/CyLib.c ****     *******************************************************************************/
 913:.\Generated_Source\PSoC4/CyLib.c ****     void CySysClkWriteHfclkDiv(uint32 divider)
 914:.\Generated_Source\PSoC4/CyLib.c ****     {
 915:.\Generated_Source\PSoC4/CyLib.c ****         uint8  interruptState;
 916:.\Generated_Source\PSoC4/CyLib.c **** 
 917:.\Generated_Source\PSoC4/CyLib.c ****         interruptState = CyEnterCriticalSection();
 918:.\Generated_Source\PSoC4/CyLib.c **** 
 919:.\Generated_Source\PSoC4/CyLib.c ****         CY_SYS_CLK_SELECT_REG = ((CY_SYS_CLK_SELECT_REG & ((uint32) (~(CY_SYS_CLK_SELECT_HFCLK_DIV_
 920:.\Generated_Source\PSoC4/CyLib.c ****                                         CY_SYS_CLK_SELECT_HFCLK_DIV_SHIFT)))) |
 921:.\Generated_Source\PSoC4/CyLib.c ****                     ((uint32)((divider & CY_SYS_CLK_SELECT_HFCLK_DIV_MASK) << CY_SYS_CLK_SELECT_HFC
 922:.\Generated_Source\PSoC4/CyLib.c **** 
 923:.\Generated_Source\PSoC4/CyLib.c ****         CyExitCriticalSection(interruptState);
 924:.\Generated_Source\PSoC4/CyLib.c ****     }
 925:.\Generated_Source\PSoC4/CyLib.c **** #endif /* (CY_IP_SRSSLT) */
 926:.\Generated_Source\PSoC4/CyLib.c **** 
 927:.\Generated_Source\PSoC4/CyLib.c **** 
 928:.\Generated_Source\PSoC4/CyLib.c **** #if (CY_IP_ECO)
 929:.\Generated_Source\PSoC4/CyLib.c **** 
 930:.\Generated_Source\PSoC4/CyLib.c ****     /*******************************************************************************
 931:.\Generated_Source\PSoC4/CyLib.c ****     * Function Name: CySysClkEcoStart
 932:.\Generated_Source\PSoC4/CyLib.c ****     ********************************************************************************
ARM GAS  C:\Users\ddemidov\AppData\Local\Temp\ccvWfYq9.s 			page 23


 933:.\Generated_Source\PSoC4/CyLib.c ****     *
 934:.\Generated_Source\PSoC4/CyLib.c ****     * Summary:
 935:.\Generated_Source\PSoC4/CyLib.c ****     *  Starts the External Crystal Oscillator (ECO). Refer to the device datasheet
 936:.\Generated_Source\PSoC4/CyLib.c ****     *  for the ECO startup time.
 937:.\Generated_Source\PSoC4/CyLib.c ****     *
 938:.\Generated_Source\PSoC4/CyLib.c ****     *  The timeout interval is measured based on the system frequency defined by
 939:.\Generated_Source\PSoC4/CyLib.c ****     *  PSoC Creator at build time. If System clock frequency is changed in
 940:.\Generated_Source\PSoC4/CyLib.c ****     *  runtime, the CyDelayFreq() with the appropriate parameter should be called.
 941:.\Generated_Source\PSoC4/CyLib.c ****     *
 942:.\Generated_Source\PSoC4/CyLib.c ****     * Parameters:
 943:.\Generated_Source\PSoC4/CyLib.c ****     *  timeoutUs: Timeout in microseconds. If zero is specified, the function
 944:.\Generated_Source\PSoC4/CyLib.c ****     *             starts the crystal and returns CYRET_SUCCESS. If non-zero
 945:.\Generated_Source\PSoC4/CyLib.c ****     *             value is passed, the CYRET_SUCCESS is returned once crystal
 946:.\Generated_Source\PSoC4/CyLib.c ****     *             is oscillating and amplitude reached 60% and it does not mean
 947:.\Generated_Source\PSoC4/CyLib.c ****     *             24 MHz crystal is within 50 ppm. If it is not oscillating or
 948:.\Generated_Source\PSoC4/CyLib.c ****     *             amplitude didn't reach 60% after specified amount of time, the
 949:.\Generated_Source\PSoC4/CyLib.c ****     *             CYRET_TIMEOUT is returned.
 950:.\Generated_Source\PSoC4/CyLib.c ****     *
 951:.\Generated_Source\PSoC4/CyLib.c ****     * Return:
 952:.\Generated_Source\PSoC4/CyLib.c ****     *   CYRET_SUCCESS - Completed successfully. The ECO is oscillating and amplitude
 953:.\Generated_Source\PSoC4/CyLib.c ****     *                   reached 60% and it does not mean 24 MHz crystal is within
 954:.\Generated_Source\PSoC4/CyLib.c ****     *                   50 ppm.
 955:.\Generated_Source\PSoC4/CyLib.c ****     *   CYRET_TIMEOUT - Timeout occurred.
 956:.\Generated_Source\PSoC4/CyLib.c ****     *
 957:.\Generated_Source\PSoC4/CyLib.c ****     *******************************************************************************/
 958:.\Generated_Source\PSoC4/CyLib.c ****     cystatus CySysClkEcoStart(uint32 timeoutUs)
 959:.\Generated_Source\PSoC4/CyLib.c ****     {
 960:.\Generated_Source\PSoC4/CyLib.c ****         cystatus returnStatus = CYRET_SUCCESS;
 961:.\Generated_Source\PSoC4/CyLib.c **** 
 962:.\Generated_Source\PSoC4/CyLib.c ****         #if (CY_IP_WCO_BLESS)
 963:.\Generated_Source\PSoC4/CyLib.c ****             /* Enable the RF oscillator band gap */
 964:.\Generated_Source\PSoC4/CyLib.c ****             CY_SYS_XTAL_BLESS_RF_CONFIG_REG |= CY_SYS_XTAL_BLESS_RF_CONFIG_RF_ENABLE;
 965:.\Generated_Source\PSoC4/CyLib.c **** 
 966:.\Generated_Source\PSoC4/CyLib.c ****             /* Update trimming register */
 967:.\Generated_Source\PSoC4/CyLib.c ****             CY_SYS_XTAL_BLERD_BB_XO_REG = CY_SYS_XTAL_BLERD_BB_XO_TRIM;
 968:.\Generated_Source\PSoC4/CyLib.c **** 
 969:.\Generated_Source\PSoC4/CyLib.c ****             /* Enable the Crystal */
 970:.\Generated_Source\PSoC4/CyLib.c ****             CY_SYS_XTAL_BLERD_DBUS_REG |= CY_SYS_XTAL_BLERD_DBUS_XTAL_ENABLE;
 971:.\Generated_Source\PSoC4/CyLib.c ****         #else /* CY_IP_WCO_SRSSV2 */
 972:.\Generated_Source\PSoC4/CyLib.c ****             CY_SYS_CLK_ECO_CONFIG_REG |= CY_SYS_CLK_ECO_CONFIG_ENABLE;
 973:.\Generated_Source\PSoC4/CyLib.c ****             CyDelayUs(CY_SYS_CLK_ECO_CONFIG_CLK_EN_TIMEOUT_US);
 974:.\Generated_Source\PSoC4/CyLib.c ****             CY_SYS_CLK_ECO_CONFIG_REG |= CY_SYS_CLK_ECO_CONFIG_CLK_EN;
 975:.\Generated_Source\PSoC4/CyLib.c ****         #endif /* (CY_IP_WCO_BLESS) */
 976:.\Generated_Source\PSoC4/CyLib.c **** 
 977:.\Generated_Source\PSoC4/CyLib.c ****         if(timeoutUs > 0u)
 978:.\Generated_Source\PSoC4/CyLib.c ****         {
 979:.\Generated_Source\PSoC4/CyLib.c ****             returnStatus = CYRET_TIMEOUT;
 980:.\Generated_Source\PSoC4/CyLib.c **** 
 981:.\Generated_Source\PSoC4/CyLib.c ****             for( ; timeoutUs > 0u; timeoutUs--)
 982:.\Generated_Source\PSoC4/CyLib.c ****             {
 983:.\Generated_Source\PSoC4/CyLib.c ****                 CyDelayUs(1u);
 984:.\Generated_Source\PSoC4/CyLib.c **** 
 985:.\Generated_Source\PSoC4/CyLib.c ****                 if(0u != CySysClkEcoReadStatus())
 986:.\Generated_Source\PSoC4/CyLib.c ****                 {
 987:.\Generated_Source\PSoC4/CyLib.c ****                     returnStatus = CYRET_SUCCESS;
 988:.\Generated_Source\PSoC4/CyLib.c ****                     break;
 989:.\Generated_Source\PSoC4/CyLib.c ****                 }
ARM GAS  C:\Users\ddemidov\AppData\Local\Temp\ccvWfYq9.s 			page 24


 990:.\Generated_Source\PSoC4/CyLib.c ****             }
 991:.\Generated_Source\PSoC4/CyLib.c **** 
 992:.\Generated_Source\PSoC4/CyLib.c ****         }
 993:.\Generated_Source\PSoC4/CyLib.c **** 
 994:.\Generated_Source\PSoC4/CyLib.c ****         return(returnStatus);
 995:.\Generated_Source\PSoC4/CyLib.c ****     }
 996:.\Generated_Source\PSoC4/CyLib.c **** 
 997:.\Generated_Source\PSoC4/CyLib.c **** 
 998:.\Generated_Source\PSoC4/CyLib.c ****     /*******************************************************************************
 999:.\Generated_Source\PSoC4/CyLib.c ****     * Function Name: CySysClkEcoStop
1000:.\Generated_Source\PSoC4/CyLib.c ****     ********************************************************************************
1001:.\Generated_Source\PSoC4/CyLib.c ****     *
1002:.\Generated_Source\PSoC4/CyLib.c ****     * Summary:
1003:.\Generated_Source\PSoC4/CyLib.c ****     *  Stops the megahertz crystal.
1004:.\Generated_Source\PSoC4/CyLib.c ****     *
1005:.\Generated_Source\PSoC4/CyLib.c ****     * Parameters:
1006:.\Generated_Source\PSoC4/CyLib.c ****     *  None
1007:.\Generated_Source\PSoC4/CyLib.c ****     *
1008:.\Generated_Source\PSoC4/CyLib.c ****     * Return:
1009:.\Generated_Source\PSoC4/CyLib.c ****     *  None
1010:.\Generated_Source\PSoC4/CyLib.c ****     *
1011:.\Generated_Source\PSoC4/CyLib.c ****     *******************************************************************************/
1012:.\Generated_Source\PSoC4/CyLib.c ****     void CySysClkEcoStop(void)
1013:.\Generated_Source\PSoC4/CyLib.c ****     {
 303              		.loc 1 1013 0
 304              		.cfi_startproc
1014:.\Generated_Source\PSoC4/CyLib.c ****         #if (CY_IP_WCO_BLESS)
1015:.\Generated_Source\PSoC4/CyLib.c ****             /* Disable the RF oscillator band gap */
1016:.\Generated_Source\PSoC4/CyLib.c ****             CY_SYS_XTAL_BLESS_RF_CONFIG_REG &= (uint32) ~CY_SYS_XTAL_BLESS_RF_CONFIG_RF_ENABLE;
 305              		.loc 1 1016 0
 306 0000 0121     		mov	r1, #1
 307 0002 054A     		ldr	r2, .L20
1017:.\Generated_Source\PSoC4/CyLib.c **** 
1018:.\Generated_Source\PSoC4/CyLib.c ****             /* Disable the Crystal */
1019:.\Generated_Source\PSoC4/CyLib.c ****             CY_SYS_XTAL_BLERD_DBUS_REG &= (uint32) ~CY_SYS_XTAL_BLERD_DBUS_XTAL_ENABLE;
1020:.\Generated_Source\PSoC4/CyLib.c ****         #else
1021:.\Generated_Source\PSoC4/CyLib.c ****             CY_SYS_CLK_ECO_CONFIG_REG &= (uint32) ~(CY_SYS_CLK_ECO_CONFIG_ENABLE | CY_SYS_CLK_ECO_C
1022:.\Generated_Source\PSoC4/CyLib.c ****         #endif /* (CY_IP_WCO_BLESS) */
1023:.\Generated_Source\PSoC4/CyLib.c ****     }
 308              		.loc 1 1023 0
 309              		@ sp needed
1016:.\Generated_Source\PSoC4/CyLib.c **** 
 310              		.loc 1 1016 0
 311 0004 1368     		ldr	r3, [r2]
 312 0006 8B43     		bic	r3, r1
 313 0008 1360     		str	r3, [r2]
1019:.\Generated_Source\PSoC4/CyLib.c ****         #else
 314              		.loc 1 1019 0
 315 000a 044A     		ldr	r2, .L20+4
 316 000c 044B     		ldr	r3, .L20+8
 317 000e 1168     		ldr	r1, [r2]
 318 0010 0B40     		and	r3, r1
 319 0012 1360     		str	r3, [r2]
 320              		.loc 1 1023 0
 321 0014 7047     		bx	lr
 322              	.L21:
 323 0016 C046     		.align	2
ARM GAS  C:\Users\ddemidov\AppData\Local\Temp\ccvWfYq9.s 			page 25


 324              	.L20:
 325 0018 60F02E40 		.word	1076818016
 326 001c 10002E40 		.word	1076756496
 327 0020 FF7FFFFF 		.word	-32769
 328              		.cfi_endproc
 329              	.LFE9:
 330              		.size	CySysClkEcoStop, .-CySysClkEcoStop
 331              		.section	.text.CySysClkEcoReadStatus,"ax",%progbits
 332              		.align	1
 333              		.global	CySysClkEcoReadStatus
 334              		.code	16
 335              		.thumb_func
 336              		.type	CySysClkEcoReadStatus, %function
 337              	CySysClkEcoReadStatus:
 338              	.LFB10:
1024:.\Generated_Source\PSoC4/CyLib.c **** 
1025:.\Generated_Source\PSoC4/CyLib.c **** 
1026:.\Generated_Source\PSoC4/CyLib.c ****     /*******************************************************************************
1027:.\Generated_Source\PSoC4/CyLib.c ****     * Function Name: CySysClkEcoReadStatus
1028:.\Generated_Source\PSoC4/CyLib.c ****     ********************************************************************************
1029:.\Generated_Source\PSoC4/CyLib.c ****     *
1030:.\Generated_Source\PSoC4/CyLib.c ****     * Summary:
1031:.\Generated_Source\PSoC4/CyLib.c ****     *  Reads the status bit for the megahertz crystal.
1032:.\Generated_Source\PSoC4/CyLib.c ****     *
1033:.\Generated_Source\PSoC4/CyLib.c ****     *  For PSoC 4100 BLE/PSoC 4200 BLE devices, the status bit is the XO_AMP_DETECT
1034:.\Generated_Source\PSoC4/CyLib.c ****     *  bit in FSM register.
1035:.\Generated_Source\PSoC4/CyLib.c ****     *
1036:.\Generated_Source\PSoC4/CyLib.c ****     *  For PSoC 4200L devices, the error status bit is the WATCHDOG_ERROR bit in
1037:.\Generated_Source\PSoC4/CyLib.c ****     *  ECO_STATUS register.
1038:.\Generated_Source\PSoC4/CyLib.c ****     *
1039:.\Generated_Source\PSoC4/CyLib.c ****     * Parameters:
1040:.\Generated_Source\PSoC4/CyLib.c ****     *  None
1041:.\Generated_Source\PSoC4/CyLib.c ****     *
1042:.\Generated_Source\PSoC4/CyLib.c ****     * Return:
1043:.\Generated_Source\PSoC4/CyLib.c ****     *  PSoC 4100 BLE/PSoC 4200 BLE:
1044:.\Generated_Source\PSoC4/CyLib.c ****     *  Non-zero indicates that ECO output reached 50 ppm and is oscillating in valid
1045:.\Generated_Source\PSoC4/CyLib.c ****     *  range.
1046:.\Generated_Source\PSoC4/CyLib.c ****     *
1047:.\Generated_Source\PSoC4/CyLib.c ****     *  PSoC 4200L:
1048:.\Generated_Source\PSoC4/CyLib.c ****     *  Non-zero indicates that ECO is running.
1049:.\Generated_Source\PSoC4/CyLib.c ****     *
1050:.\Generated_Source\PSoC4/CyLib.c ****     *******************************************************************************/
1051:.\Generated_Source\PSoC4/CyLib.c ****     uint32 CySysClkEcoReadStatus(void)
1052:.\Generated_Source\PSoC4/CyLib.c ****     {
 339              		.loc 1 1052 0
 340              		.cfi_startproc
1053:.\Generated_Source\PSoC4/CyLib.c ****         uint32 returnValue;
1054:.\Generated_Source\PSoC4/CyLib.c **** 
1055:.\Generated_Source\PSoC4/CyLib.c ****         #if (CY_IP_WCO_BLESS)
1056:.\Generated_Source\PSoC4/CyLib.c ****             returnValue = CY_SYS_XTAL_BLERD_FSM_REG & CY_SYS_XTAL_BLERD_FSM_XO_AMP_DETECT;
 341              		.loc 1 1056 0
 342 0000 024B     		ldr	r3, .L23
1057:.\Generated_Source\PSoC4/CyLib.c ****         #else
1058:.\Generated_Source\PSoC4/CyLib.c ****             returnValue = (0u != (CY_SYS_CLK_ECO_STATUS_REG & CY_SYS_CLK_ECO_STATUS_WATCHDOG_ERROR)
1059:.\Generated_Source\PSoC4/CyLib.c ****         #endif /* (CY_IP_WCO_BLESS) */
1060:.\Generated_Source\PSoC4/CyLib.c **** 
1061:.\Generated_Source\PSoC4/CyLib.c ****         return (returnValue);
ARM GAS  C:\Users\ddemidov\AppData\Local\Temp\ccvWfYq9.s 			page 26


1062:.\Generated_Source\PSoC4/CyLib.c ****     }
 343              		.loc 1 1062 0
 344              		@ sp needed
1056:.\Generated_Source\PSoC4/CyLib.c ****         #else
 345              		.loc 1 1056 0
 346 0002 1868     		ldr	r0, [r3]
 347              	.LVL18:
 348 0004 0123     		mov	r3, #1
 349 0006 1840     		and	r0, r3
 350              	.LVL19:
 351              		.loc 1 1062 0
 352 0008 7047     		bx	lr
 353              	.L24:
 354 000a C046     		.align	2
 355              	.L23:
 356 000c 0C002E40 		.word	1076756492
 357              		.cfi_endproc
 358              	.LFE10:
 359              		.size	CySysClkEcoReadStatus, .-CySysClkEcoReadStatus
 360              		.section	.text.CySysClkWriteEcoDiv,"ax",%progbits
 361              		.align	1
 362              		.global	CySysClkWriteEcoDiv
 363              		.code	16
 364              		.thumb_func
 365              		.type	CySysClkWriteEcoDiv, %function
 366              	CySysClkWriteEcoDiv:
 367              	.LFB11:
1063:.\Generated_Source\PSoC4/CyLib.c **** 
1064:.\Generated_Source\PSoC4/CyLib.c ****     #if (CY_IP_ECO_BLESS)
1065:.\Generated_Source\PSoC4/CyLib.c ****         /*******************************************************************************
1066:.\Generated_Source\PSoC4/CyLib.c ****         * Function Name: CySysClkWriteEcoDiv
1067:.\Generated_Source\PSoC4/CyLib.c ****         ********************************************************************************
1068:.\Generated_Source\PSoC4/CyLib.c ****         *
1069:.\Generated_Source\PSoC4/CyLib.c ****         * Summary:
1070:.\Generated_Source\PSoC4/CyLib.c ****         *  Selects value for the ECO divider.
1071:.\Generated_Source\PSoC4/CyLib.c ****         *
1072:.\Generated_Source\PSoC4/CyLib.c ****         *  The ECO must not be the HFCLK clock source when this function is called.
1073:.\Generated_Source\PSoC4/CyLib.c ****         *  The HFCLK source can be changed to the other clock source by call to the
1074:.\Generated_Source\PSoC4/CyLib.c ****         *  CySysClkWriteHfclkDirect() function. If the ECO sources the HFCLK this
1075:.\Generated_Source\PSoC4/CyLib.c ****         *  function will not have any effect if compiler in release mode, and halt the
1076:.\Generated_Source\PSoC4/CyLib.c ****         *  CPU when compiler in debug mode.
1077:.\Generated_Source\PSoC4/CyLib.c ****         *
1078:.\Generated_Source\PSoC4/CyLib.c ****         * Parameters:
1079:.\Generated_Source\PSoC4/CyLib.c ****         *  divider: Power of 2 divider selection.
1080:.\Generated_Source\PSoC4/CyLib.c ****         *
1081:.\Generated_Source\PSoC4/CyLib.c ****         *   Define                        Description
1082:.\Generated_Source\PSoC4/CyLib.c ****         *   CY_SYS_CLK_ECO_DIV1             HFCLK = ECO / 1
1083:.\Generated_Source\PSoC4/CyLib.c ****         *   CY_SYS_CLK_ECO_DIV2             HFCLK = ECO / 2
1084:.\Generated_Source\PSoC4/CyLib.c ****         *   CY_SYS_CLK_ECO_DIV4             HFCLK = ECO / 4
1085:.\Generated_Source\PSoC4/CyLib.c ****         *   CY_SYS_CLK_ECO_DIV8             HFCLK = ECO / 8
1086:.\Generated_Source\PSoC4/CyLib.c ****         *
1087:.\Generated_Source\PSoC4/CyLib.c ****         * Return:
1088:.\Generated_Source\PSoC4/CyLib.c ****         *  None
1089:.\Generated_Source\PSoC4/CyLib.c ****         *
1090:.\Generated_Source\PSoC4/CyLib.c ****         * Side Effects:
1091:.\Generated_Source\PSoC4/CyLib.c ****         *  If the SYSCLK clock frequency increases during the device operation, call
1092:.\Generated_Source\PSoC4/CyLib.c ****         *  CySysFlashSetWaitCycles() with the appropriate parameter to adjust the number
ARM GAS  C:\Users\ddemidov\AppData\Local\Temp\ccvWfYq9.s 			page 27


1093:.\Generated_Source\PSoC4/CyLib.c ****         *  of clock cycles the cache will wait before sampling data comes back from
1094:.\Generated_Source\PSoC4/CyLib.c ****         *  Flash. If the SYSCLK clock frequency decreases, you can call
1095:.\Generated_Source\PSoC4/CyLib.c ****         *  CySysFlashSetWaitCycles() to improve the CPU performance. See
1096:.\Generated_Source\PSoC4/CyLib.c ****         *  CySysFlashSetWaitCycles() description for more information.
1097:.\Generated_Source\PSoC4/CyLib.c ****         *
1098:.\Generated_Source\PSoC4/CyLib.c ****         *******************************************************************************/
1099:.\Generated_Source\PSoC4/CyLib.c ****         void CySysClkWriteEcoDiv(uint32 divider)
1100:.\Generated_Source\PSoC4/CyLib.c ****         {
 368              		.loc 1 1100 0
 369              		.cfi_startproc
 370              	.LVL20:
1101:.\Generated_Source\PSoC4/CyLib.c ****             uint8  interruptState;
1102:.\Generated_Source\PSoC4/CyLib.c **** 
1103:.\Generated_Source\PSoC4/CyLib.c ****             if (CY_SYS_CLK_HFCLK_ECO != (CY_SYS_CLK_SELECT_REG & CY_SYS_CLK_SELECT_DIRECT_SEL_MASK)
 371              		.loc 1 1103 0
 372 0000 0722     		mov	r2, #7
1100:.\Generated_Source\PSoC4/CyLib.c ****             uint8  interruptState;
 373              		.loc 1 1100 0
 374 0002 38B5     		push	{r3, r4, r5, lr}
 375              		.cfi_def_cfa_offset 16
 376              		.cfi_offset 3, -16
 377              		.cfi_offset 4, -12
 378              		.cfi_offset 5, -8
 379              		.cfi_offset 14, -4
 380              		.loc 1 1103 0
 381 0004 0A4B     		ldr	r3, .L29
 382 0006 1B68     		ldr	r3, [r3]
 383 0008 1A40     		and	r2, r3
 384 000a 022A     		cmp	r2, #2
 385 000c 0DD0     		beq	.L26
 386 000e 041C     		mov	r4, r0
1104:.\Generated_Source\PSoC4/CyLib.c ****             {
1105:.\Generated_Source\PSoC4/CyLib.c ****                 interruptState = CyEnterCriticalSection();
1106:.\Generated_Source\PSoC4/CyLib.c **** 
1107:.\Generated_Source\PSoC4/CyLib.c ****                 CY_SYS_CLK_XTAL_CLK_DIV_CONFIG_REG =  (divider & CY_SYS_CLK_XTAL_CLK_DIV_MASK) |
 387              		.loc 1 1107 0
 388 0010 0325     		mov	r5, #3
1105:.\Generated_Source\PSoC4/CyLib.c **** 
 389              		.loc 1 1105 0
 390 0012 FFF7FEFF 		bl	CyEnterCriticalSection
 391              	.LVL21:
 392              		.loc 1 1107 0
 393 0016 231C     		mov	r3, r4
1108:.\Generated_Source\PSoC4/CyLib.c ****                                                       (CY_SYS_CLK_XTAL_CLK_DIV_CONFIG_REG & ((uint3
 394              		.loc 1 1108 0
 395 0018 0649     		ldr	r1, .L29+4
1107:.\Generated_Source\PSoC4/CyLib.c ****                                                       (CY_SYS_CLK_XTAL_CLK_DIV_CONFIG_REG & ((uint3
 396              		.loc 1 1107 0
 397 001a 2B40     		and	r3, r5
 398              		.loc 1 1108 0
 399 001c 0A68     		ldr	r2, [r1]
 400 001e AA43     		bic	r2, r5
1107:.\Generated_Source\PSoC4/CyLib.c ****                                                       (CY_SYS_CLK_XTAL_CLK_DIV_CONFIG_REG & ((uint3
 401              		.loc 1 1107 0
 402 0020 1343     		orr	r3, r2
 403 0022 0B60     		str	r3, [r1]
1109:.\Generated_Source\PSoC4/CyLib.c **** 
ARM GAS  C:\Users\ddemidov\AppData\Local\Temp\ccvWfYq9.s 			page 28


1110:.\Generated_Source\PSoC4/CyLib.c ****                 CyExitCriticalSection(interruptState);
 404              		.loc 1 1110 0
 405 0024 FFF7FEFF 		bl	CyExitCriticalSection
 406              	.LVL22:
 407 0028 00E0     		b	.L25
 408              	.LVL23:
 409              	.L26:
 410              	.LBB26:
 411              	.LBB27:
1111:.\Generated_Source\PSoC4/CyLib.c ****             }
1112:.\Generated_Source\PSoC4/CyLib.c ****             else
1113:.\Generated_Source\PSoC4/CyLib.c ****             {
1114:.\Generated_Source\PSoC4/CyLib.c ****                 /* Halt CPU in debug mode if ECO sources HFCLK */
1115:.\Generated_Source\PSoC4/CyLib.c ****                 CYASSERT(0u != 0u);
1116:.\Generated_Source\PSoC4/CyLib.c ****             }
1117:.\Generated_Source\PSoC4/CyLib.c ****         }
1118:.\Generated_Source\PSoC4/CyLib.c **** 
1119:.\Generated_Source\PSoC4/CyLib.c ****     #else
1120:.\Generated_Source\PSoC4/CyLib.c **** 
1121:.\Generated_Source\PSoC4/CyLib.c ****         /*******************************************************************************
1122:.\Generated_Source\PSoC4/CyLib.c ****         * Function Name: CySysClkConfigureEcoTrim
1123:.\Generated_Source\PSoC4/CyLib.c ****         ********************************************************************************
1124:.\Generated_Source\PSoC4/CyLib.c ****         *
1125:.\Generated_Source\PSoC4/CyLib.c ****         * Summary:
1126:.\Generated_Source\PSoC4/CyLib.c ****         *  Selects trim setting values for ECO. This API is available only for PSoC
1127:.\Generated_Source\PSoC4/CyLib.c ****         *  4200L devices only.
1128:.\Generated_Source\PSoC4/CyLib.c ****         *
1129:.\Generated_Source\PSoC4/CyLib.c ****         *  The following parameters can be trimmed for ECO. The affected registers are
1130:.\Generated_Source\PSoC4/CyLib.c ****         *  ECO_TRIM0 and ECO_TRIM1.
1131:.\Generated_Source\PSoC4/CyLib.c ****         *
1132:.\Generated_Source\PSoC4/CyLib.c ****         *  Watchdog trim - This bit field sets the error threshold below the steady
1133:.\Generated_Source\PSoC4/CyLib.c ****         *  state amplitude level.
1134:.\Generated_Source\PSoC4/CyLib.c ****         *
1135:.\Generated_Source\PSoC4/CyLib.c ****         *  Amplitude trim - This bit field is to set the crystal drive level when
1136:.\Generated_Source\PSoC4/CyLib.c ****         *  ECO_CONFIG.AGC_EN = 1. WARNING: use care when setting this field because
1137:.\Generated_Source\PSoC4/CyLib.c ****         *  driving a crystal beyond its rated limit can permanently damage the crystal.
1138:.\Generated_Source\PSoC4/CyLib.c ****         *
1139:.\Generated_Source\PSoC4/CyLib.c ****         *  Filter frequency trim - This bit field sets LPF frequency trim and affects
1140:.\Generated_Source\PSoC4/CyLib.c ****         *  the 3rd harmonic content.
1141:.\Generated_Source\PSoC4/CyLib.c ****         *
1142:.\Generated_Source\PSoC4/CyLib.c ****         *  Feedback resistor trim - This bit field sets the feedback resistor trim and
1143:.\Generated_Source\PSoC4/CyLib.c ****         *  impacts the oscillation amplitude.
1144:.\Generated_Source\PSoC4/CyLib.c ****         *
1145:.\Generated_Source\PSoC4/CyLib.c ****         *  Amplifier gain trim - This bit field sets the amplifier gain trim and affects
1146:.\Generated_Source\PSoC4/CyLib.c ****         *  the startup time of the crystal.
1147:.\Generated_Source\PSoC4/CyLib.c ****         *
1148:.\Generated_Source\PSoC4/CyLib.c ****         * Parameters:
1149:.\Generated_Source\PSoC4/CyLib.c ****         *  wDTrim: Watchdog trim
1150:.\Generated_Source\PSoC4/CyLib.c ****         *       Parameter                   Value Description
1151:.\Generated_Source\PSoC4/CyLib.c ****         *   CY_SYS_CLK_ECO_WDTRIM0      Error threshold is 0.05 V
1152:.\Generated_Source\PSoC4/CyLib.c ****         *   CY_SYS_CLK_ECO_WDTRIM1      Error threshold is 0.10 V
1153:.\Generated_Source\PSoC4/CyLib.c ****         *   CY_SYS_CLK_ECO_WDTRIM2      Error threshold is 0.15 V
1154:.\Generated_Source\PSoC4/CyLib.c ****         *   CY_SYS_CLK_ECO_WDTRIM3      Error threshold is 0.20 V
1155:.\Generated_Source\PSoC4/CyLib.c ****         *
1156:.\Generated_Source\PSoC4/CyLib.c ****         *  aTrim: Amplitude trim
1157:.\Generated_Source\PSoC4/CyLib.c ****         *       Parameter                   Value Description
1158:.\Generated_Source\PSoC4/CyLib.c ****         *   CY_SYS_CLK_ECO_ATRIM0       Amplitude is 0.3 Vpp
ARM GAS  C:\Users\ddemidov\AppData\Local\Temp\ccvWfYq9.s 			page 29


1159:.\Generated_Source\PSoC4/CyLib.c ****         *   CY_SYS_CLK_ECO_ATRIM1       Amplitude is 0.4 Vpp
1160:.\Generated_Source\PSoC4/CyLib.c ****         *   CY_SYS_CLK_ECO_ATRIM2       Amplitude is 0.5 Vpp
1161:.\Generated_Source\PSoC4/CyLib.c ****         *   CY_SYS_CLK_ECO_ATRIM3       Amplitude is 0.6 Vpp
1162:.\Generated_Source\PSoC4/CyLib.c ****         *   CY_SYS_CLK_ECO_ATRIM4       Amplitude is 0.7 Vpp
1163:.\Generated_Source\PSoC4/CyLib.c ****         *   CY_SYS_CLK_ECO_ATRIM5       Amplitude is 0.8 Vpp
1164:.\Generated_Source\PSoC4/CyLib.c ****         *   CY_SYS_CLK_ECO_ATRIM6       Amplitude is 0.9 Vpp
1165:.\Generated_Source\PSoC4/CyLib.c ****         *   CY_SYS_CLK_ECO_ATRIM7       Amplitude is 1.0 Vpp
1166:.\Generated_Source\PSoC4/CyLib.c ****         *
1167:.\Generated_Source\PSoC4/CyLib.c ****         *  fTrim: Filter frequency trim
1168:.\Generated_Source\PSoC4/CyLib.c ****         *       Parameter                   Value Description
1169:.\Generated_Source\PSoC4/CyLib.c ****         *   CY_SYS_CLK_ECO_FTRIM0       Crystal frequency > 30 MHz
1170:.\Generated_Source\PSoC4/CyLib.c ****         *   CY_SYS_CLK_ECO_FTRIM1       24 MHz < Crystal frequency <= 30 MHz
1171:.\Generated_Source\PSoC4/CyLib.c ****         *   CY_SYS_CLK_ECO_FTRIM2       17 MHz < Crystal frequency <= 24 MHz
1172:.\Generated_Source\PSoC4/CyLib.c ****         *   CY_SYS_CLK_ECO_FTRIM3       Crystal frequency <= 17 MHz
1173:.\Generated_Source\PSoC4/CyLib.c ****         *
1174:.\Generated_Source\PSoC4/CyLib.c ****         *  rTrim: Feedback resistor trim
1175:.\Generated_Source\PSoC4/CyLib.c ****         *       Parameter                   Value Description
1176:.\Generated_Source\PSoC4/CyLib.c ****         *   CY_SYS_CLK_ECO_RTRIM0       Crystal frequency > 30 MHz
1177:.\Generated_Source\PSoC4/CyLib.c ****         *   CY_SYS_CLK_ECO_RTRIM1       24 MHz < Crystal frequency <= 30 MHz
1178:.\Generated_Source\PSoC4/CyLib.c ****         *   CY_SYS_CLK_ECO_RTRIM2       17 MHz < Crystal frequency <= 24 MHz
1179:.\Generated_Source\PSoC4/CyLib.c ****         *   CY_SYS_CLK_ECO_RTRIM3       Crystal frequency <= 17 MHz        *
1180:.\Generated_Source\PSoC4/CyLib.c ****         *
1181:.\Generated_Source\PSoC4/CyLib.c ****         *  gTrim: Amplifier gain trim. Calculate the minimum required gm
1182:.\Generated_Source\PSoC4/CyLib.c ****         *         (trans-conductance value). Divide the calculated gm value by
1183:.\Generated_Source\PSoC4/CyLib.c ****         *         4.5 to obtain an integer value 'result'. For more information
1184:.\Generated_Source\PSoC4/CyLib.c ****         *         please refer to the device TRM.
1185:.\Generated_Source\PSoC4/CyLib.c ****         *       Parameter                   Value Description
1186:.\Generated_Source\PSoC4/CyLib.c ****         *   CY_SYS_CLK_ECO_GTRIM0       If result = 1
1187:.\Generated_Source\PSoC4/CyLib.c ****         *   CY_SYS_CLK_ECO_GTRIM1       If result = 0
1188:.\Generated_Source\PSoC4/CyLib.c ****         *   CY_SYS_CLK_ECO_GTRIM2       If result = 2
1189:.\Generated_Source\PSoC4/CyLib.c ****         *   CY_SYS_CLK_ECO_GTRIM2       If result = 3
1190:.\Generated_Source\PSoC4/CyLib.c **** 
1191:.\Generated_Source\PSoC4/CyLib.c ****         * Return:
1192:.\Generated_Source\PSoC4/CyLib.c ****         *  None
1193:.\Generated_Source\PSoC4/CyLib.c ****         *
1194:.\Generated_Source\PSoC4/CyLib.c ****         * Side Effects:
1195:.\Generated_Source\PSoC4/CyLib.c ****         *  Use care when setting the amplitude trim field because driving a crystal
1196:.\Generated_Source\PSoC4/CyLib.c ****         *  beyond its rated limit can permanently damage the crystal.
1197:.\Generated_Source\PSoC4/CyLib.c ****         *******************************************************************************/
1198:.\Generated_Source\PSoC4/CyLib.c ****         void CySysClkConfigureEcoTrim(uint32 wDTrim, uint32 aTrim, uint32 fTrim, uint32 rTrim, uint
1199:.\Generated_Source\PSoC4/CyLib.c ****         {
1200:.\Generated_Source\PSoC4/CyLib.c ****             uint8  interruptState;
1201:.\Generated_Source\PSoC4/CyLib.c ****             uint32 regTmp;
1202:.\Generated_Source\PSoC4/CyLib.c **** 
1203:.\Generated_Source\PSoC4/CyLib.c ****             interruptState = CyEnterCriticalSection();
1204:.\Generated_Source\PSoC4/CyLib.c **** 
1205:.\Generated_Source\PSoC4/CyLib.c ****             regTmp  = CY_SYS_CLK_ECO_TRIM0_REG & ~(CY_SYS_CLK_ECO_TRIM0_WDTRIM_MASK | CY_SYS_CLK_EC
1206:.\Generated_Source\PSoC4/CyLib.c ****             regTmp |= ((uint32) (wDTrim << CY_SYS_CLK_ECO_TRIM0_WDTRIM_SHIFT) & CY_SYS_CLK_ECO_TRIM
1207:.\Generated_Source\PSoC4/CyLib.c ****             regTmp |= ((uint32) (aTrim << CY_SYS_CLK_ECO_TRIM0_ATRIM_SHIFT) & CY_SYS_CLK_ECO_TRIM0_
1208:.\Generated_Source\PSoC4/CyLib.c ****             CY_SYS_CLK_ECO_TRIM0_REG = regTmp;
1209:.\Generated_Source\PSoC4/CyLib.c **** 
1210:.\Generated_Source\PSoC4/CyLib.c ****             regTmp  = CY_SYS_CLK_ECO_TRIM1_REG & ~(CY_SYS_CLK_ECO_TRIM1_FTRIM_MASK |
1211:.\Generated_Source\PSoC4/CyLib.c ****                                                    CY_SYS_CLK_ECO_TRIM1_RTRIM_MASK |
1212:.\Generated_Source\PSoC4/CyLib.c ****                                                    CY_SYS_CLK_ECO_TRIM1_GTRIM_MASK);
1213:.\Generated_Source\PSoC4/CyLib.c ****             regTmp |= ((uint32) (fTrim << CY_SYS_CLK_ECO_TRIM1_FTRIM_SHIFT) & CY_SYS_CLK_ECO_TRIM1_
1214:.\Generated_Source\PSoC4/CyLib.c ****             regTmp |= ((uint32) (rTrim << CY_SYS_CLK_ECO_TRIM1_RTRIM_SHIFT) & CY_SYS_CLK_ECO_TRIM1_
1215:.\Generated_Source\PSoC4/CyLib.c ****             regTmp |= ((uint32) (gTrim << CY_SYS_CLK_ECO_TRIM1_GTRIM_SHIFT) & CY_SYS_CLK_ECO_TRIM1_
ARM GAS  C:\Users\ddemidov\AppData\Local\Temp\ccvWfYq9.s 			page 30


1216:.\Generated_Source\PSoC4/CyLib.c **** 
1217:.\Generated_Source\PSoC4/CyLib.c ****             CY_SYS_CLK_ECO_TRIM1_REG = regTmp;
1218:.\Generated_Source\PSoC4/CyLib.c **** 
1219:.\Generated_Source\PSoC4/CyLib.c ****             CyExitCriticalSection(interruptState);
1220:.\Generated_Source\PSoC4/CyLib.c ****         }
1221:.\Generated_Source\PSoC4/CyLib.c **** 
1222:.\Generated_Source\PSoC4/CyLib.c **** 
1223:.\Generated_Source\PSoC4/CyLib.c ****         /*******************************************************************************
1224:.\Generated_Source\PSoC4/CyLib.c ****         * Function Name: CySysClkConfigureEcoDrive
1225:.\Generated_Source\PSoC4/CyLib.c ****         ********************************************************************************
1226:.\Generated_Source\PSoC4/CyLib.c ****         *
1227:.\Generated_Source\PSoC4/CyLib.c ****         * Summary:
1228:.\Generated_Source\PSoC4/CyLib.c ****         *  Selects trim setting values for ECO based on crystal parameters. Use care
1229:.\Generated_Source\PSoC4/CyLib.c ****         *  when setting the driveLevel parameter because driving a crystal beyond its
1230:.\Generated_Source\PSoC4/CyLib.c ****         *  rated limit can permanently damage the crystal.
1231:.\Generated_Source\PSoC4/CyLib.c ****         *
1232:.\Generated_Source\PSoC4/CyLib.c ****         *  This API is available only for PSoC 4200L devices only.
1233:.\Generated_Source\PSoC4/CyLib.c ****         *
1234:.\Generated_Source\PSoC4/CyLib.c ****         * Parameters:
1235:.\Generated_Source\PSoC4/CyLib.c ****         *  freq: frequency of the crystal in kHz.
1236:.\Generated_Source\PSoC4/CyLib.c ****         *  cLoad: crystal load capacitance in pF.
1237:.\Generated_Source\PSoC4/CyLib.c ****         *  esr: equivalent series resistance of the crystal in ohm.
1238:.\Generated_Source\PSoC4/CyLib.c ****         *  maxAmplitude: maximum amplitude level in mV. Calculate as
1239:.\Generated_Source\PSoC4/CyLib.c ****         *  ((sqrt(driveLevel in uW / 2 / esr))/(3.14 * freq * cLoad)) * 10^9.
1240:.\Generated_Source\PSoC4/CyLib.c ****         *
1241:.\Generated_Source\PSoC4/CyLib.c ****         *  The Automatic Gain Control (AGC) is disabled when the specified maximum
1242:.\Generated_Source\PSoC4/CyLib.c ****         *  amplitude level equals or above 2. In this case the amplitude is not
1243:.\Generated_Source\PSoC4/CyLib.c ****         *  explicitly controlled and will grow until it saturates to the supply rail
1244:.\Generated_Source\PSoC4/CyLib.c ****         *  (1.8V nom). WARNING: use care when disabling AGC because driving a crystal
1245:.\Generated_Source\PSoC4/CyLib.c ****         *  beyond its rated limit can permanently damage the crystal.
1246:.\Generated_Source\PSoC4/CyLib.c ****         *
1247:.\Generated_Source\PSoC4/CyLib.c ****         * Return:
1248:.\Generated_Source\PSoC4/CyLib.c ****         *  status:
1249:.\Generated_Source\PSoC4/CyLib.c ****         *  CYRET_SUCCESS - ECO configuration completed successfully.
1250:.\Generated_Source\PSoC4/CyLib.c ****         *  CYRET_BAD_PARAM - One or more invalid parameters
1251:.\Generated_Source\PSoC4/CyLib.c ****         *
1252:.\Generated_Source\PSoC4/CyLib.c ****         *******************************************************************************/
1253:.\Generated_Source\PSoC4/CyLib.c ****         cystatus CySysClkConfigureEcoDrive(uint32 freq, uint32 cLoad, uint32 esr, uint32 maxAmplitu
1254:.\Generated_Source\PSoC4/CyLib.c ****         {
1255:.\Generated_Source\PSoC4/CyLib.c ****             cystatus returnStatus = CYRET_SUCCESS;
1256:.\Generated_Source\PSoC4/CyLib.c **** 
1257:.\Generated_Source\PSoC4/CyLib.c ****             uint32 wDTrim;
1258:.\Generated_Source\PSoC4/CyLib.c ****             uint32 aTrim;
1259:.\Generated_Source\PSoC4/CyLib.c ****             uint32 fTrim;
1260:.\Generated_Source\PSoC4/CyLib.c ****             uint32 rTrim;
1261:.\Generated_Source\PSoC4/CyLib.c ****             uint32 gTrim;
1262:.\Generated_Source\PSoC4/CyLib.c **** 
1263:.\Generated_Source\PSoC4/CyLib.c ****             uint32 gmMin;
1264:.\Generated_Source\PSoC4/CyLib.c **** 
1265:.\Generated_Source\PSoC4/CyLib.c **** 
1266:.\Generated_Source\PSoC4/CyLib.c ****             if ((maxAmplitude < CY_SYS_CLK_ECO_MAX_AMPL_MIN_mV) ||
1267:.\Generated_Source\PSoC4/CyLib.c ****                 (freq < CY_SYS_CLK_ECO_FREQ_KHZ_MIN) || (freq > CY_SYS_CLK_ECO_FREQ_KHZ_MAX))
1268:.\Generated_Source\PSoC4/CyLib.c ****             {
1269:.\Generated_Source\PSoC4/CyLib.c ****                 returnStatus = CYRET_BAD_PARAM;
1270:.\Generated_Source\PSoC4/CyLib.c ****             }
1271:.\Generated_Source\PSoC4/CyLib.c ****             else
1272:.\Generated_Source\PSoC4/CyLib.c ****             {
ARM GAS  C:\Users\ddemidov\AppData\Local\Temp\ccvWfYq9.s 			page 31


1273:.\Generated_Source\PSoC4/CyLib.c ****                 /* Calculate amplitude trim */
1274:.\Generated_Source\PSoC4/CyLib.c ****                 aTrim = (maxAmplitude < CY_SYS_CLK_ECO_TRIM_BOUNDARY) ? ((maxAmplitude/100u) - 4u) 
1275:.\Generated_Source\PSoC4/CyLib.c **** 
1276:.\Generated_Source\PSoC4/CyLib.c ****                 if (maxAmplitude < CY_SYS_CLK_ECO_AMPL_FOR_ATRIM0)
1277:.\Generated_Source\PSoC4/CyLib.c ****                 {
1278:.\Generated_Source\PSoC4/CyLib.c ****                     aTrim = CY_SYS_CLK_ECO_ATRIM0;
1279:.\Generated_Source\PSoC4/CyLib.c ****                 }
1280:.\Generated_Source\PSoC4/CyLib.c ****                 else if (maxAmplitude < CY_SYS_CLK_ECO_AMPL_FOR_ATRIM1)
1281:.\Generated_Source\PSoC4/CyLib.c ****                 {
1282:.\Generated_Source\PSoC4/CyLib.c ****                     aTrim = CY_SYS_CLK_ECO_ATRIM1;
1283:.\Generated_Source\PSoC4/CyLib.c ****                 }
1284:.\Generated_Source\PSoC4/CyLib.c ****                 else if (maxAmplitude < CY_SYS_CLK_ECO_AMPL_FOR_ATRIM2)
1285:.\Generated_Source\PSoC4/CyLib.c ****                 {
1286:.\Generated_Source\PSoC4/CyLib.c ****                     aTrim = CY_SYS_CLK_ECO_ATRIM2;
1287:.\Generated_Source\PSoC4/CyLib.c ****                 }
1288:.\Generated_Source\PSoC4/CyLib.c ****                 else if (maxAmplitude < CY_SYS_CLK_ECO_AMPL_FOR_ATRIM3)
1289:.\Generated_Source\PSoC4/CyLib.c ****                 {
1290:.\Generated_Source\PSoC4/CyLib.c ****                     aTrim = CY_SYS_CLK_ECO_ATRIM3;
1291:.\Generated_Source\PSoC4/CyLib.c ****                 }
1292:.\Generated_Source\PSoC4/CyLib.c ****                 else if (maxAmplitude < CY_SYS_CLK_ECO_AMPL_FOR_ATRIM4)
1293:.\Generated_Source\PSoC4/CyLib.c ****                 {
1294:.\Generated_Source\PSoC4/CyLib.c ****                     aTrim = CY_SYS_CLK_ECO_ATRIM4;
1295:.\Generated_Source\PSoC4/CyLib.c ****                 }
1296:.\Generated_Source\PSoC4/CyLib.c ****                 else if (maxAmplitude < CY_SYS_CLK_ECO_AMPL_FOR_ATRIM5)
1297:.\Generated_Source\PSoC4/CyLib.c ****                 {
1298:.\Generated_Source\PSoC4/CyLib.c ****                     aTrim = CY_SYS_CLK_ECO_ATRIM5;
1299:.\Generated_Source\PSoC4/CyLib.c ****                 }
1300:.\Generated_Source\PSoC4/CyLib.c ****                 else if (maxAmplitude < CY_SYS_CLK_ECO_AMPL_FOR_ATRIM6)
1301:.\Generated_Source\PSoC4/CyLib.c ****                 {
1302:.\Generated_Source\PSoC4/CyLib.c ****                     aTrim = CY_SYS_CLK_ECO_ATRIM6;
1303:.\Generated_Source\PSoC4/CyLib.c ****                 }
1304:.\Generated_Source\PSoC4/CyLib.c ****                 else
1305:.\Generated_Source\PSoC4/CyLib.c ****                 {
1306:.\Generated_Source\PSoC4/CyLib.c ****                     aTrim = CY_SYS_CLK_ECO_ATRIM7;
1307:.\Generated_Source\PSoC4/CyLib.c ****                 }
1308:.\Generated_Source\PSoC4/CyLib.c **** 
1309:.\Generated_Source\PSoC4/CyLib.c ****                 /* Calculate Watchdog trim. */
1310:.\Generated_Source\PSoC4/CyLib.c ****                 wDTrim = (maxAmplitude < CY_SYS_CLK_ECO_TRIM_BOUNDARY) ? ((maxAmplitude/200u) - 2u)
1311:.\Generated_Source\PSoC4/CyLib.c **** 
1312:.\Generated_Source\PSoC4/CyLib.c ****                 /* Calculate amplifier gain trim. */
1313:.\Generated_Source\PSoC4/CyLib.c ****                 gmMin = (uint32) (((((CY_SYS_CLK_ECO_GMMIN_COEFFICIENT * freq * cLoad) / 1000) * ((
1314:.\Generated_Source\PSoC4/CyLib.c ****                 if (gmMin > 3u)
1315:.\Generated_Source\PSoC4/CyLib.c ****                 {
1316:.\Generated_Source\PSoC4/CyLib.c ****                     returnStatus = CYRET_BAD_PARAM;
1317:.\Generated_Source\PSoC4/CyLib.c ****                     gTrim = 0u;
1318:.\Generated_Source\PSoC4/CyLib.c ****                 }
1319:.\Generated_Source\PSoC4/CyLib.c ****                 else if (gmMin > 1u)
1320:.\Generated_Source\PSoC4/CyLib.c ****                 {
1321:.\Generated_Source\PSoC4/CyLib.c ****                     gTrim = gmMin;
1322:.\Generated_Source\PSoC4/CyLib.c ****                 }
1323:.\Generated_Source\PSoC4/CyLib.c ****                 else
1324:.\Generated_Source\PSoC4/CyLib.c ****                 {
1325:.\Generated_Source\PSoC4/CyLib.c ****                     gTrim = (gmMin == 1u) ? 0u : 1u;
1326:.\Generated_Source\PSoC4/CyLib.c ****                 }
1327:.\Generated_Source\PSoC4/CyLib.c **** 
1328:.\Generated_Source\PSoC4/CyLib.c ****                 /* Calculate feedback resistor trim */
1329:.\Generated_Source\PSoC4/CyLib.c ****                 if (freq > CY_SYS_CLK_ECO_FREQ_FOR_FTRIM0)
ARM GAS  C:\Users\ddemidov\AppData\Local\Temp\ccvWfYq9.s 			page 32


1330:.\Generated_Source\PSoC4/CyLib.c ****                 {
1331:.\Generated_Source\PSoC4/CyLib.c ****                     rTrim = CY_SYS_CLK_ECO_FTRIM0;
1332:.\Generated_Source\PSoC4/CyLib.c ****                 }
1333:.\Generated_Source\PSoC4/CyLib.c ****                 else if (freq > CY_SYS_CLK_ECO_FREQ_FOR_FTRIM1)
1334:.\Generated_Source\PSoC4/CyLib.c ****                 {
1335:.\Generated_Source\PSoC4/CyLib.c ****                     rTrim = CY_SYS_CLK_ECO_FTRIM1;
1336:.\Generated_Source\PSoC4/CyLib.c ****                 }
1337:.\Generated_Source\PSoC4/CyLib.c ****                 else if (freq > CY_SYS_CLK_ECO_FREQ_FOR_FTRIM2)
1338:.\Generated_Source\PSoC4/CyLib.c ****                 {
1339:.\Generated_Source\PSoC4/CyLib.c ****                     rTrim = CY_SYS_CLK_ECO_FTRIM2;
1340:.\Generated_Source\PSoC4/CyLib.c ****                 }
1341:.\Generated_Source\PSoC4/CyLib.c ****                 else
1342:.\Generated_Source\PSoC4/CyLib.c ****                 {
1343:.\Generated_Source\PSoC4/CyLib.c ****                     rTrim = CY_SYS_CLK_ECO_FTRIM3;
1344:.\Generated_Source\PSoC4/CyLib.c ****                 }
1345:.\Generated_Source\PSoC4/CyLib.c **** 
1346:.\Generated_Source\PSoC4/CyLib.c ****                 /* Calculate filter frequency trim */
1347:.\Generated_Source\PSoC4/CyLib.c ****                 fTrim = rTrim;
1348:.\Generated_Source\PSoC4/CyLib.c **** 
1349:.\Generated_Source\PSoC4/CyLib.c ****                 CySysClkConfigureEcoTrim(wDTrim, aTrim, fTrim, rTrim, gTrim);
1350:.\Generated_Source\PSoC4/CyLib.c **** 
1351:.\Generated_Source\PSoC4/CyLib.c ****                 /* Automatic Gain Control (AGC) enable */
1352:.\Generated_Source\PSoC4/CyLib.c ****                 if (maxAmplitude < 2u)
1353:.\Generated_Source\PSoC4/CyLib.c ****                 {
1354:.\Generated_Source\PSoC4/CyLib.c ****                     /* The oscillation amplitude is controlled to the level selected by amplitude t
1355:.\Generated_Source\PSoC4/CyLib.c ****                     CY_SYS_CLK_ECO_CONFIG_REG |= CY_SYS_CLK_ECO_CONFIG_AGC_EN;
1356:.\Generated_Source\PSoC4/CyLib.c ****                 }
1357:.\Generated_Source\PSoC4/CyLib.c ****                 else
1358:.\Generated_Source\PSoC4/CyLib.c ****                 {
1359:.\Generated_Source\PSoC4/CyLib.c ****                     /* The amplitude is not explicitly controlled and will grow until it saturates 
1360:.\Generated_Source\PSoC4/CyLib.c ****                     * supply rail (1.8V nom).
1361:.\Generated_Source\PSoC4/CyLib.c ****                     */
1362:.\Generated_Source\PSoC4/CyLib.c ****                     CY_SYS_CLK_ECO_CONFIG_REG &= (uint32) ~CY_SYS_CLK_ECO_CONFIG_AGC_EN;
1363:.\Generated_Source\PSoC4/CyLib.c ****                 }
1364:.\Generated_Source\PSoC4/CyLib.c ****             }
1365:.\Generated_Source\PSoC4/CyLib.c **** 
1366:.\Generated_Source\PSoC4/CyLib.c ****             return (returnStatus);
1367:.\Generated_Source\PSoC4/CyLib.c ****         }
1368:.\Generated_Source\PSoC4/CyLib.c **** 
1369:.\Generated_Source\PSoC4/CyLib.c ****     #endif /* CY_IP_ECO_BLESS */
1370:.\Generated_Source\PSoC4/CyLib.c **** 
1371:.\Generated_Source\PSoC4/CyLib.c **** #endif /* (CY_IP_ECO) */
1372:.\Generated_Source\PSoC4/CyLib.c **** 
1373:.\Generated_Source\PSoC4/CyLib.c **** 
1374:.\Generated_Source\PSoC4/CyLib.c **** #if (CY_IP_SRSSV2 && CY_IP_PLL)
1375:.\Generated_Source\PSoC4/CyLib.c ****     /*******************************************************************************
1376:.\Generated_Source\PSoC4/CyLib.c ****     * Function Name: CySysClkPllStart
1377:.\Generated_Source\PSoC4/CyLib.c ****     ********************************************************************************
1378:.\Generated_Source\PSoC4/CyLib.c ****     *
1379:.\Generated_Source\PSoC4/CyLib.c ****     * Summary:
1380:.\Generated_Source\PSoC4/CyLib.c ****     *  Enables the PLL. Optionally waits for it to become stable. Waits at least
1381:.\Generated_Source\PSoC4/CyLib.c ****     *  250 us or until it is detected that the PLL is stable.
1382:.\Generated_Source\PSoC4/CyLib.c ****     *
1383:.\Generated_Source\PSoC4/CyLib.c ****     *  Clears the unlock occurred status bit by calling CySysClkPllGetUnlockStatus(),
1384:.\Generated_Source\PSoC4/CyLib.c ****     *  once the PLL is locked if the wait parameter is 1).
1385:.\Generated_Source\PSoC4/CyLib.c ****     *
1386:.\Generated_Source\PSoC4/CyLib.c ****     *  This API is available only for PSoC 4200L devices.
ARM GAS  C:\Users\ddemidov\AppData\Local\Temp\ccvWfYq9.s 			page 33


1387:.\Generated_Source\PSoC4/CyLib.c ****     *
1388:.\Generated_Source\PSoC4/CyLib.c ****     * Parameters:
1389:.\Generated_Source\PSoC4/CyLib.c ****     *  PLL:
1390:.\Generated_Source\PSoC4/CyLib.c ****     *  0   PLL#0
1391:.\Generated_Source\PSoC4/CyLib.c ****     *  1   PLL#1
1392:.\Generated_Source\PSoC4/CyLib.c ****     *
1393:.\Generated_Source\PSoC4/CyLib.c ****     *  wait:
1394:.\Generated_Source\PSoC4/CyLib.c ****     *  0 - Return immediately after configuration.
1395:.\Generated_Source\PSoC4/CyLib.c ****     *  1 - Wait for PLL lock or timeout. This API shall use the CyDelayUs() to
1396:.\Generated_Source\PSoC4/CyLib.c ****     *  implement the timeout feature.
1397:.\Generated_Source\PSoC4/CyLib.c ****     *
1398:.\Generated_Source\PSoC4/CyLib.c ****     * Return:
1399:.\Generated_Source\PSoC4/CyLib.c ****     *  CYRET_SUCCESS - Completed successfully.
1400:.\Generated_Source\PSoC4/CyLib.c ****     *
1401:.\Generated_Source\PSoC4/CyLib.c ****     *  CYRET_TIMEOUT - The timeout occurred without detecting a stable clock.  If the
1402:.\Generated_Source\PSoC4/CyLib.c ****     *  input source of the clock is jittery, then the lock indication may not occur.
1403:.\Generated_Source\PSoC4/CyLib.c ****     *  However, after the timeout has expired, the generated PLL clock can still be
1404:.\Generated_Source\PSoC4/CyLib.c ****     *  used.
1405:.\Generated_Source\PSoC4/CyLib.c ****     *
1406:.\Generated_Source\PSoC4/CyLib.c ****     *  CYRET_BAD_PARAM - Either the PLL or wait parameter is invalid.
1407:.\Generated_Source\PSoC4/CyLib.c ****     *
1408:.\Generated_Source\PSoC4/CyLib.c ****     *******************************************************************************/
1409:.\Generated_Source\PSoC4/CyLib.c ****     cystatus CySysClkPllStart(uint32 pll, uint32 wait)
1410:.\Generated_Source\PSoC4/CyLib.c ****     {
1411:.\Generated_Source\PSoC4/CyLib.c ****         uint32 counts = CY_SYS_CLK_PLL_MAX_STARTUP_US;
1412:.\Generated_Source\PSoC4/CyLib.c ****         uint8  interruptState;
1413:.\Generated_Source\PSoC4/CyLib.c ****         cystatus returnStatus = CYRET_SUCCESS;
1414:.\Generated_Source\PSoC4/CyLib.c **** 
1415:.\Generated_Source\PSoC4/CyLib.c ****         if((pll < CY_IP_PLL_NR) && (wait <= 1u))
1416:.\Generated_Source\PSoC4/CyLib.c ****         {
1417:.\Generated_Source\PSoC4/CyLib.c ****             interruptState = CyEnterCriticalSection();
1418:.\Generated_Source\PSoC4/CyLib.c **** 
1419:.\Generated_Source\PSoC4/CyLib.c ****             /* Isolate PLL outputs */
1420:.\Generated_Source\PSoC4/CyLib.c ****             CY_SYS_CLK_PLL_BASE.pll[pll].config &= (uint32) ~CY_SYS_CLK_PLL_CONFIG_ISOLATE;
1421:.\Generated_Source\PSoC4/CyLib.c **** 
1422:.\Generated_Source\PSoC4/CyLib.c ****             /* Enable PLL */
1423:.\Generated_Source\PSoC4/CyLib.c ****             CY_SYS_CLK_PLL_BASE.pll[pll].config |= CY_SYS_CLK_PLL_CONFIG_ENABLE;
1424:.\Generated_Source\PSoC4/CyLib.c **** 
1425:.\Generated_Source\PSoC4/CyLib.c ****             CyExitCriticalSection(interruptState);
1426:.\Generated_Source\PSoC4/CyLib.c **** 
1427:.\Generated_Source\PSoC4/CyLib.c ****             /* De-isolate >= CY_SYS_CLK_PLL_MIN_STARTUP_US after PLL enabled */
1428:.\Generated_Source\PSoC4/CyLib.c ****             CyDelayUs(CY_SYS_CLK_PLL_MIN_STARTUP_US);
1429:.\Generated_Source\PSoC4/CyLib.c ****             interruptState = CyEnterCriticalSection();
1430:.\Generated_Source\PSoC4/CyLib.c ****             CY_SYS_CLK_PLL_BASE.pll[pll].config |= CY_SYS_CLK_PLL_CONFIG_ISOLATE;
1431:.\Generated_Source\PSoC4/CyLib.c ****             CyExitCriticalSection(interruptState);
1432:.\Generated_Source\PSoC4/CyLib.c **** 
1433:.\Generated_Source\PSoC4/CyLib.c ****             if(wait != 0u)
1434:.\Generated_Source\PSoC4/CyLib.c ****             {
1435:.\Generated_Source\PSoC4/CyLib.c ****                 returnStatus = CYRET_TIMEOUT;
1436:.\Generated_Source\PSoC4/CyLib.c **** 
1437:.\Generated_Source\PSoC4/CyLib.c ****                 while(0u != counts)
1438:.\Generated_Source\PSoC4/CyLib.c ****                 {
1439:.\Generated_Source\PSoC4/CyLib.c **** 
1440:.\Generated_Source\PSoC4/CyLib.c ****                     if(0u != CySysClkPllGetLockStatus(pll))
1441:.\Generated_Source\PSoC4/CyLib.c ****                     {
1442:.\Generated_Source\PSoC4/CyLib.c ****                         returnStatus = CYRET_SUCCESS;
1443:.\Generated_Source\PSoC4/CyLib.c ****                         (void) CySysClkPllGetUnlockStatus(pll);
ARM GAS  C:\Users\ddemidov\AppData\Local\Temp\ccvWfYq9.s 			page 34


1444:.\Generated_Source\PSoC4/CyLib.c ****                         break;
1445:.\Generated_Source\PSoC4/CyLib.c ****                     }
1446:.\Generated_Source\PSoC4/CyLib.c **** 
1447:.\Generated_Source\PSoC4/CyLib.c ****                     CyDelayUs(1u);
1448:.\Generated_Source\PSoC4/CyLib.c ****                     counts--;
1449:.\Generated_Source\PSoC4/CyLib.c ****                 }
1450:.\Generated_Source\PSoC4/CyLib.c ****             }
1451:.\Generated_Source\PSoC4/CyLib.c ****         }
1452:.\Generated_Source\PSoC4/CyLib.c ****         else
1453:.\Generated_Source\PSoC4/CyLib.c ****         {
1454:.\Generated_Source\PSoC4/CyLib.c ****             returnStatus = CYRET_BAD_PARAM;
1455:.\Generated_Source\PSoC4/CyLib.c ****         }
1456:.\Generated_Source\PSoC4/CyLib.c **** 
1457:.\Generated_Source\PSoC4/CyLib.c ****         return (returnStatus);
1458:.\Generated_Source\PSoC4/CyLib.c ****     }
1459:.\Generated_Source\PSoC4/CyLib.c **** 
1460:.\Generated_Source\PSoC4/CyLib.c **** 
1461:.\Generated_Source\PSoC4/CyLib.c ****     /*******************************************************************************
1462:.\Generated_Source\PSoC4/CyLib.c ****     * Function Name: CySysClkPllGetLockStatus
1463:.\Generated_Source\PSoC4/CyLib.c ****     ********************************************************************************
1464:.\Generated_Source\PSoC4/CyLib.c ****     *
1465:.\Generated_Source\PSoC4/CyLib.c ****     * Summary:
1466:.\Generated_Source\PSoC4/CyLib.c ****     *  Returns non-zero if the output of the specified PLL output is locked.
1467:.\Generated_Source\PSoC4/CyLib.c ****     *
1468:.\Generated_Source\PSoC4/CyLib.c ****     *  This API is available only for PSoC 4200L devices.
1469:.\Generated_Source\PSoC4/CyLib.c ****     *
1470:.\Generated_Source\PSoC4/CyLib.c ****     * Parameters: PLL:
1471:.\Generated_Source\PSoC4/CyLib.c ****     *  0   PLL#0
1472:.\Generated_Source\PSoC4/CyLib.c ****     *  1   PLL#1
1473:.\Generated_Source\PSoC4/CyLib.c ****     *
1474:.\Generated_Source\PSoC4/CyLib.c ****     * Return:
1475:.\Generated_Source\PSoC4/CyLib.c ****     *  A non-zero value when the specified PLL is locked.
1476:.\Generated_Source\PSoC4/CyLib.c ****     *
1477:.\Generated_Source\PSoC4/CyLib.c ****     *******************************************************************************/
1478:.\Generated_Source\PSoC4/CyLib.c ****     uint32 CySysClkPllGetLockStatus(uint32 pll)
1479:.\Generated_Source\PSoC4/CyLib.c ****     {
1480:.\Generated_Source\PSoC4/CyLib.c ****         uint8  interruptState;
1481:.\Generated_Source\PSoC4/CyLib.c ****         uint32 returnStatus;
1482:.\Generated_Source\PSoC4/CyLib.c **** 
1483:.\Generated_Source\PSoC4/CyLib.c ****         CYASSERT(pll < CY_IP_PLL_NR);
1484:.\Generated_Source\PSoC4/CyLib.c **** 
1485:.\Generated_Source\PSoC4/CyLib.c ****         interruptState = CyEnterCriticalSection();
1486:.\Generated_Source\PSoC4/CyLib.c **** 
1487:.\Generated_Source\PSoC4/CyLib.c ****         /* PLL is locked if reported so for two consecutive read. */
1488:.\Generated_Source\PSoC4/CyLib.c ****         returnStatus = CY_SYS_CLK_PLL_BASE.pll[pll].status & CY_SYS_CLK_PLL_STATUS_LOCKED;
1489:.\Generated_Source\PSoC4/CyLib.c ****         if(0u != returnStatus)
1490:.\Generated_Source\PSoC4/CyLib.c ****         {
1491:.\Generated_Source\PSoC4/CyLib.c ****             returnStatus = CY_SYS_CLK_PLL_BASE.pll[pll].status & CY_SYS_CLK_PLL_STATUS_LOCKED;
1492:.\Generated_Source\PSoC4/CyLib.c ****         }
1493:.\Generated_Source\PSoC4/CyLib.c **** 
1494:.\Generated_Source\PSoC4/CyLib.c ****         CyExitCriticalSection(interruptState);
1495:.\Generated_Source\PSoC4/CyLib.c **** 
1496:.\Generated_Source\PSoC4/CyLib.c ****         return (returnStatus);
1497:.\Generated_Source\PSoC4/CyLib.c ****     }
1498:.\Generated_Source\PSoC4/CyLib.c **** 
1499:.\Generated_Source\PSoC4/CyLib.c ****     /*******************************************************************************
1500:.\Generated_Source\PSoC4/CyLib.c ****     * Function Name: CySysClkPllStop
ARM GAS  C:\Users\ddemidov\AppData\Local\Temp\ccvWfYq9.s 			page 35


1501:.\Generated_Source\PSoC4/CyLib.c ****     ********************************************************************************
1502:.\Generated_Source\PSoC4/CyLib.c ****     *
1503:.\Generated_Source\PSoC4/CyLib.c ****     * Summary:
1504:.\Generated_Source\PSoC4/CyLib.c ****     *  Disables the PLL and isolates its outputs.
1505:.\Generated_Source\PSoC4/CyLib.c ****     *
1506:.\Generated_Source\PSoC4/CyLib.c ****     *  Ensures that either PLL is not the source of HFCLK before it is disabled,
1507:.\Generated_Source\PSoC4/CyLib.c ****     *  otherwise, the CPU will halt.
1508:.\Generated_Source\PSoC4/CyLib.c ****     *
1509:.\Generated_Source\PSoC4/CyLib.c ****     *  This API is available only for PSoC 4200L devices.
1510:.\Generated_Source\PSoC4/CyLib.c ****     *
1511:.\Generated_Source\PSoC4/CyLib.c ****     * Parameters: PLL:
1512:.\Generated_Source\PSoC4/CyLib.c ****     *  0   PLL#0
1513:.\Generated_Source\PSoC4/CyLib.c ****     *  1   PLL#1
1514:.\Generated_Source\PSoC4/CyLib.c ****     *
1515:.\Generated_Source\PSoC4/CyLib.c ****     * Return:
1516:.\Generated_Source\PSoC4/CyLib.c ****     *  None
1517:.\Generated_Source\PSoC4/CyLib.c ****     *
1518:.\Generated_Source\PSoC4/CyLib.c ****     *******************************************************************************/
1519:.\Generated_Source\PSoC4/CyLib.c ****     void CySysClkPllStop(uint32 pll)
1520:.\Generated_Source\PSoC4/CyLib.c ****     {
1521:.\Generated_Source\PSoC4/CyLib.c ****         uint8  interruptState;
1522:.\Generated_Source\PSoC4/CyLib.c **** 
1523:.\Generated_Source\PSoC4/CyLib.c ****         if (pll < CY_IP_PLL_NR)
1524:.\Generated_Source\PSoC4/CyLib.c ****         {
1525:.\Generated_Source\PSoC4/CyLib.c ****             interruptState = CyEnterCriticalSection();
1526:.\Generated_Source\PSoC4/CyLib.c ****             CY_SYS_CLK_PLL_BASE.pll[pll].config &= (uint32) ~(CY_SYS_CLK_PLL_CONFIG_ISOLATE | CY_SY
1527:.\Generated_Source\PSoC4/CyLib.c ****             CyExitCriticalSection(interruptState);
1528:.\Generated_Source\PSoC4/CyLib.c ****         }
1529:.\Generated_Source\PSoC4/CyLib.c ****     }
1530:.\Generated_Source\PSoC4/CyLib.c **** 
1531:.\Generated_Source\PSoC4/CyLib.c **** 
1532:.\Generated_Source\PSoC4/CyLib.c ****     /*******************************************************************************
1533:.\Generated_Source\PSoC4/CyLib.c ****     * Function Name: CySysClkPllSetPQ
1534:.\Generated_Source\PSoC4/CyLib.c ****     ********************************************************************************
1535:.\Generated_Source\PSoC4/CyLib.c ****     *
1536:.\Generated_Source\PSoC4/CyLib.c ****     * Summary:
1537:.\Generated_Source\PSoC4/CyLib.c ****     *  Sets feedback (P) and reference the (Q) divider value. This API also sets the
1538:.\Generated_Source\PSoC4/CyLib.c ****     *  programmable charge pump current value. Note that the PLL has to be disabled
1539:.\Generated_Source\PSoC4/CyLib.c ****     *  before calling this API. If this function is called while any PLL is sourcing,
1540:.\Generated_Source\PSoC4/CyLib.c ****     *  the SYSCLK will return an error.
1541:.\Generated_Source\PSoC4/CyLib.c ****     *
1542:.\Generated_Source\PSoC4/CyLib.c ****     *  The PLL must not be the system clock source when calling this function. The
1543:.\Generated_Source\PSoC4/CyLib.c ****     *  PLL output will glitch during this function call.
1544:.\Generated_Source\PSoC4/CyLib.c ****     *
1545:.\Generated_Source\PSoC4/CyLib.c ****     *  This API is available only for PSoC 4200L devices.
1546:.\Generated_Source\PSoC4/CyLib.c ****     *
1547:.\Generated_Source\PSoC4/CyLib.c ****     * Parameters:
1548:.\Generated_Source\PSoC4/CyLib.c ****     *  PLL:
1549:.\Generated_Source\PSoC4/CyLib.c ****     *   0   PLL#0
1550:.\Generated_Source\PSoC4/CyLib.c ****     *   1   PLL#1
1551:.\Generated_Source\PSoC4/CyLib.c ****     *
1552:.\Generated_Source\PSoC4/CyLib.c ****     *  feedback: P divider
1553:.\Generated_Source\PSoC4/CyLib.c ****     *   Range 4 - 259. Control bits for the feedback divider
1554:.\Generated_Source\PSoC4/CyLib.c ****     *
1555:.\Generated_Source\PSoC4/CyLib.c ****     *  reference: The Q divider.
1556:.\Generated_Source\PSoC4/CyLib.c ****     *   Range 1 - 64. Divide by the reference.
1557:.\Generated_Source\PSoC4/CyLib.c ****     *
ARM GAS  C:\Users\ddemidov\AppData\Local\Temp\ccvWfYq9.s 			page 36


1558:.\Generated_Source\PSoC4/CyLib.c ****     *  current: Charge the pump current in uA. The 2 uA for output frequencies
1559:.\Generated_Source\PSoC4/CyLib.c ****     *  of 67 MHz or less, and 3 uA for higher output frequencies. The default
1560:.\Generated_Source\PSoC4/CyLib.c ****     *  value is 2 uA.
1561:.\Generated_Source\PSoC4/CyLib.c ****     *
1562:.\Generated_Source\PSoC4/CyLib.c ****     * Return:
1563:.\Generated_Source\PSoC4/CyLib.c ****     *  CYRET_SUCCESS - Completed successfully.
1564:.\Generated_Source\PSoC4/CyLib.c ****     *  CYRET_BAD_PARAM - The parameters are out of range or the specified PLL sources
1565:.\Generated_Source\PSoC4/CyLib.c ****     *  the system clock.
1566:.\Generated_Source\PSoC4/CyLib.c ****     *
1567:.\Generated_Source\PSoC4/CyLib.c ****     *******************************************************************************/
1568:.\Generated_Source\PSoC4/CyLib.c ****     cystatus CySysClkPllSetPQ(uint32 pll, uint32 feedback, uint32 reference, uint32 current)
1569:.\Generated_Source\PSoC4/CyLib.c ****     {
1570:.\Generated_Source\PSoC4/CyLib.c ****         uint32   regTmp;
1571:.\Generated_Source\PSoC4/CyLib.c ****         cystatus tmp;
1572:.\Generated_Source\PSoC4/CyLib.c ****         uint8    interruptState;
1573:.\Generated_Source\PSoC4/CyLib.c ****         cystatus returnStatus = CYRET_BAD_PARAM;
1574:.\Generated_Source\PSoC4/CyLib.c **** 
1575:.\Generated_Source\PSoC4/CyLib.c ****         interruptState = CyEnterCriticalSection();
1576:.\Generated_Source\PSoC4/CyLib.c **** 
1577:.\Generated_Source\PSoC4/CyLib.c ****         tmp = CySysClkPllConfigChangeAllowed(pll);
1578:.\Generated_Source\PSoC4/CyLib.c **** 
1579:.\Generated_Source\PSoC4/CyLib.c ****         if ((pll < CY_IP_PLL_NR) &&
1580:.\Generated_Source\PSoC4/CyLib.c ****             (feedback  >= CY_SYS_CLK_PLL_CONFIG_FEEDBACK_DIV_MIN)  && (feedback  <= CY_SYS_CLK_PLL_
1581:.\Generated_Source\PSoC4/CyLib.c ****             (reference >= CY_SYS_CLK_PLL_CONFIG_REFERENCE_DIV_MIN) && (reference <= CY_SYS_CLK_PLL_
1582:.\Generated_Source\PSoC4/CyLib.c ****             (current   >= CY_SYS_CLK_PLL_CONFIG_ICP_SEL_MIN )      && (current   <= CY_SYS_CLK_PLL_
1583:.\Generated_Source\PSoC4/CyLib.c ****             (CYRET_SUCCESS == tmp))
1584:.\Generated_Source\PSoC4/CyLib.c ****         {
1585:.\Generated_Source\PSoC4/CyLib.c ****             /* Set new feedback, reference and current values */
1586:.\Generated_Source\PSoC4/CyLib.c ****             regTmp  = CY_SYS_CLK_PLL_BASE.pll[pll].config & (uint32) ~(CY_SYS_CLK_PLL_CONFIG_FEEDBA
1587:.\Generated_Source\PSoC4/CyLib.c ****                                                                        CY_SYS_CLK_PLL_CONFIG_REFERE
1588:.\Generated_Source\PSoC4/CyLib.c ****                                                                        CY_SYS_CLK_PLL_CONFIG_ICP_SE
1589:.\Generated_Source\PSoC4/CyLib.c **** 
1590:.\Generated_Source\PSoC4/CyLib.c ****             regTmp |= ((feedback << CY_SYS_CLK_PLL_CONFIG_FEEDBACK_DIV_SHIFT) & CY_SYS_CLK_PLL_CONF
1591:.\Generated_Source\PSoC4/CyLib.c ****             regTmp |= (((reference - 1u) << CY_SYS_CLK_PLL_CONFIG_REFERENCE_DIV_SHIFT) & CY_SYS_CLK
1592:.\Generated_Source\PSoC4/CyLib.c ****             regTmp |= ((current << CY_SYS_CLK_PLL_CONFIG_ICP_SEL_SHIFT) & CY_SYS_CLK_PLL_CONFIG_ICP
1593:.\Generated_Source\PSoC4/CyLib.c **** 
1594:.\Generated_Source\PSoC4/CyLib.c ****             CY_SYS_CLK_PLL_BASE.pll[pll].config = regTmp;
1595:.\Generated_Source\PSoC4/CyLib.c **** 
1596:.\Generated_Source\PSoC4/CyLib.c ****             returnStatus = CYRET_SUCCESS;
1597:.\Generated_Source\PSoC4/CyLib.c ****         }
1598:.\Generated_Source\PSoC4/CyLib.c **** 
1599:.\Generated_Source\PSoC4/CyLib.c ****         CyExitCriticalSection(interruptState);
1600:.\Generated_Source\PSoC4/CyLib.c **** 
1601:.\Generated_Source\PSoC4/CyLib.c ****         return (returnStatus);
1602:.\Generated_Source\PSoC4/CyLib.c ****     }
1603:.\Generated_Source\PSoC4/CyLib.c **** 
1604:.\Generated_Source\PSoC4/CyLib.c **** 
1605:.\Generated_Source\PSoC4/CyLib.c ****     /*******************************************************************************
1606:.\Generated_Source\PSoC4/CyLib.c ****     * Function Name: CySysClkPllSetBypassMode
1607:.\Generated_Source\PSoC4/CyLib.c ****     ********************************************************************************
1608:.\Generated_Source\PSoC4/CyLib.c ****     *
1609:.\Generated_Source\PSoC4/CyLib.c ****     * Summary:
1610:.\Generated_Source\PSoC4/CyLib.c ****     *  Sets the bypass mode for the specified PLL.
1611:.\Generated_Source\PSoC4/CyLib.c ****     *
1612:.\Generated_Source\PSoC4/CyLib.c ****     *  The PLL must not be the system clock source when calling this function.
1613:.\Generated_Source\PSoC4/CyLib.c ****     *  The PLL output will glitch during this function call.
1614:.\Generated_Source\PSoC4/CyLib.c ****     *
ARM GAS  C:\Users\ddemidov\AppData\Local\Temp\ccvWfYq9.s 			page 37


1615:.\Generated_Source\PSoC4/CyLib.c ****     *  This API is available only for PSoC 4200L devices.
1616:.\Generated_Source\PSoC4/CyLib.c ****     *
1617:.\Generated_Source\PSoC4/CyLib.c ****     * Parameters:
1618:.\Generated_Source\PSoC4/CyLib.c ****     *  PLL:
1619:.\Generated_Source\PSoC4/CyLib.c ****     *   0   PLL#0
1620:.\Generated_Source\PSoC4/CyLib.c ****     *   1   PLL#1
1621:.\Generated_Source\PSoC4/CyLib.c ****     *
1622:.\Generated_Source\PSoC4/CyLib.c ****     *  bypass: The bypass mode.
1623:.\Generated_Source\PSoC4/CyLib.c ****     *   CY_SYS_PLL_BYPASS_AUTO - Automatic usage of the lock indicator. When unlocked,
1624:.\Generated_Source\PSoC4/CyLib.c ****     *   automatically selects PLL the reference input (bypass mode). When locked,
1625:.\Generated_Source\PSoC4/CyLib.c ****     *   automatically selects the PLL output.
1626:.\Generated_Source\PSoC4/CyLib.c ****     *
1627:.\Generated_Source\PSoC4/CyLib.c ****     *   CY_SYS_PLL_BYPASS_PLL_REF - Selects the PLL reference input (bypass mode).
1628:.\Generated_Source\PSoC4/CyLib.c ****     *   Ignores the lock indicator.
1629:.\Generated_Source\PSoC4/CyLib.c ****     *
1630:.\Generated_Source\PSoC4/CyLib.c ****     *   CY_SYS_PLL_BYPASS_PLL_OUT - Selects the PLL output.  Ignores the lock indicator.
1631:.\Generated_Source\PSoC4/CyLib.c ****     *
1632:.\Generated_Source\PSoC4/CyLib.c ****     * Return:
1633:.\Generated_Source\PSoC4/CyLib.c ****     *  None
1634:.\Generated_Source\PSoC4/CyLib.c ****     *
1635:.\Generated_Source\PSoC4/CyLib.c ****     *******************************************************************************/
1636:.\Generated_Source\PSoC4/CyLib.c ****     void CySysClkPllSetBypassMode(uint32 pll, uint32 bypass)
1637:.\Generated_Source\PSoC4/CyLib.c ****     {
1638:.\Generated_Source\PSoC4/CyLib.c ****         uint32 regTmp;
1639:.\Generated_Source\PSoC4/CyLib.c ****         uint8  interruptState;
1640:.\Generated_Source\PSoC4/CyLib.c **** 
1641:.\Generated_Source\PSoC4/CyLib.c ****         interruptState = CyEnterCriticalSection();
1642:.\Generated_Source\PSoC4/CyLib.c **** 
1643:.\Generated_Source\PSoC4/CyLib.c ****         if ((pll < CY_IP_PLL_NR) && (bypass <= CY_SYS_PLL_BYPASS_PLL_OUT))
1644:.\Generated_Source\PSoC4/CyLib.c ****         {
1645:.\Generated_Source\PSoC4/CyLib.c ****             regTmp  = CY_SYS_CLK_PLL_BASE.pll[pll].config & (uint32) ~CY_SYS_CLK_PLL_CONFIG_BYPASS_
1646:.\Generated_Source\PSoC4/CyLib.c ****             regTmp |=  (uint32)(bypass << CY_SYS_CLK_PLL_CONFIG_BYPASS_SEL_SHIFT);
1647:.\Generated_Source\PSoC4/CyLib.c ****             CY_SYS_CLK_PLL_BASE.pll[pll].config = regTmp;
1648:.\Generated_Source\PSoC4/CyLib.c ****         }
1649:.\Generated_Source\PSoC4/CyLib.c **** 
1650:.\Generated_Source\PSoC4/CyLib.c ****         CyExitCriticalSection(interruptState);
1651:.\Generated_Source\PSoC4/CyLib.c ****     }
1652:.\Generated_Source\PSoC4/CyLib.c **** 
1653:.\Generated_Source\PSoC4/CyLib.c **** 
1654:.\Generated_Source\PSoC4/CyLib.c ****     /*******************************************************************************
1655:.\Generated_Source\PSoC4/CyLib.c ****     * Function Name: CySysClkPllGetBypassMode
1656:.\Generated_Source\PSoC4/CyLib.c ****     ********************************************************************************
1657:.\Generated_Source\PSoC4/CyLib.c ****     *
1658:.\Generated_Source\PSoC4/CyLib.c ****     * Summary:
1659:.\Generated_Source\PSoC4/CyLib.c ****     *  Gets the bypass mode for the specified PLL.
1660:.\Generated_Source\PSoC4/CyLib.c ****     *  This API is available only for PSoC 4200L devices.
1661:.\Generated_Source\PSoC4/CyLib.c ****     *
1662:.\Generated_Source\PSoC4/CyLib.c ****     * Parameters:
1663:.\Generated_Source\PSoC4/CyLib.c ****     *  PLL:
1664:.\Generated_Source\PSoC4/CyLib.c ****     *   0   PLL#0
1665:.\Generated_Source\PSoC4/CyLib.c ****     *   1   PLL#1
1666:.\Generated_Source\PSoC4/CyLib.c ****     *
1667:.\Generated_Source\PSoC4/CyLib.c ****     *  Return
1668:.\Generated_Source\PSoC4/CyLib.c ****     *  bypass: Bypass mode.
1669:.\Generated_Source\PSoC4/CyLib.c ****     *   The same as the parameter of the CySysClkPllSetBypassMode().
1670:.\Generated_Source\PSoC4/CyLib.c ****     *
1671:.\Generated_Source\PSoC4/CyLib.c ****     *******************************************************************************/
ARM GAS  C:\Users\ddemidov\AppData\Local\Temp\ccvWfYq9.s 			page 38


1672:.\Generated_Source\PSoC4/CyLib.c ****     static uint32 CySysClkPllGetBypassMode(uint32 pll)
1673:.\Generated_Source\PSoC4/CyLib.c ****     {
1674:.\Generated_Source\PSoC4/CyLib.c ****         uint32 returnValue;
1675:.\Generated_Source\PSoC4/CyLib.c ****         uint8  interruptState;
1676:.\Generated_Source\PSoC4/CyLib.c **** 
1677:.\Generated_Source\PSoC4/CyLib.c ****         CYASSERT(pll < CY_IP_PLL_NR);
1678:.\Generated_Source\PSoC4/CyLib.c **** 
1679:.\Generated_Source\PSoC4/CyLib.c ****         interruptState = CyEnterCriticalSection();
1680:.\Generated_Source\PSoC4/CyLib.c **** 
1681:.\Generated_Source\PSoC4/CyLib.c ****         returnValue = CY_SYS_CLK_PLL_BASE.pll[pll].config & CY_SYS_CLK_PLL_CONFIG_BYPASS_SEL_MASK;
1682:.\Generated_Source\PSoC4/CyLib.c ****         returnValue =  returnValue >> CY_SYS_CLK_PLL_CONFIG_BYPASS_SEL_SHIFT;
1683:.\Generated_Source\PSoC4/CyLib.c **** 
1684:.\Generated_Source\PSoC4/CyLib.c ****         CyExitCriticalSection(interruptState);
1685:.\Generated_Source\PSoC4/CyLib.c **** 
1686:.\Generated_Source\PSoC4/CyLib.c ****         return (returnValue);
1687:.\Generated_Source\PSoC4/CyLib.c ****     }
1688:.\Generated_Source\PSoC4/CyLib.c **** 
1689:.\Generated_Source\PSoC4/CyLib.c **** 
1690:.\Generated_Source\PSoC4/CyLib.c ****     /*******************************************************************************
1691:.\Generated_Source\PSoC4/CyLib.c ****     * Function Name: CySysClkPllConfigChangeAllowed
1692:.\Generated_Source\PSoC4/CyLib.c ****     ********************************************************************************
1693:.\Generated_Source\PSoC4/CyLib.c ****     *
1694:.\Generated_Source\PSoC4/CyLib.c ****     * Summary:
1695:.\Generated_Source\PSoC4/CyLib.c ****     *  The function returns non-zero value if the specified PLL sources the System
1696:.\Generated_Source\PSoC4/CyLib.c ****     *  clock and the PLL is not in the bypass mode.
1697:.\Generated_Source\PSoC4/CyLib.c ****     *
1698:.\Generated_Source\PSoC4/CyLib.c ****     *  This API is available only for PSoC 4200L devices.
1699:.\Generated_Source\PSoC4/CyLib.c ****     *
1700:.\Generated_Source\PSoC4/CyLib.c ****     * Parameters:
1701:.\Generated_Source\PSoC4/CyLib.c ****     *  PLL:
1702:.\Generated_Source\PSoC4/CyLib.c ****     *   0   PLL#0
1703:.\Generated_Source\PSoC4/CyLib.c ****     *   1   PLL#1
1704:.\Generated_Source\PSoC4/CyLib.c ****     *
1705:.\Generated_Source\PSoC4/CyLib.c ****     * Return:
1706:.\Generated_Source\PSoC4/CyLib.c ****     *  Non-zero value when the specified PLL sources the System clock and the PLL
1707:.\Generated_Source\PSoC4/CyLib.c ****     *  is not in the bypass mode.
1708:.\Generated_Source\PSoC4/CyLib.c ****     *
1709:.\Generated_Source\PSoC4/CyLib.c ****     *******************************************************************************/
1710:.\Generated_Source\PSoC4/CyLib.c ****     static cystatus CySysClkPllConfigChangeAllowed(uint32 pll)
1711:.\Generated_Source\PSoC4/CyLib.c ****     {
1712:.\Generated_Source\PSoC4/CyLib.c ****         uint32   pllBypassMode;
1713:.\Generated_Source\PSoC4/CyLib.c ****         uint32   sysclkSource;
1714:.\Generated_Source\PSoC4/CyLib.c ****         cystatus returnValue = CYRET_LOCKED;
1715:.\Generated_Source\PSoC4/CyLib.c **** 
1716:.\Generated_Source\PSoC4/CyLib.c ****         sysclkSource  = CySysClkGetSysclkSource();
1717:.\Generated_Source\PSoC4/CyLib.c ****         pllBypassMode = CySysClkPllGetBypassMode(pll);
1718:.\Generated_Source\PSoC4/CyLib.c **** 
1719:.\Generated_Source\PSoC4/CyLib.c ****         if ((CY_SYS_PLL_BYPASS_PLL_REF == pllBypassMode)             ||
1720:.\Generated_Source\PSoC4/CyLib.c ****             ((CY_SYS_CLK_HFCLK_PLL0 != sysclkSource) && (0u == pll)) ||
1721:.\Generated_Source\PSoC4/CyLib.c ****             ((CY_SYS_CLK_HFCLK_PLL1 != sysclkSource) && (1u == pll)))
1722:.\Generated_Source\PSoC4/CyLib.c ****         {
1723:.\Generated_Source\PSoC4/CyLib.c ****             returnValue = CYRET_SUCCESS;
1724:.\Generated_Source\PSoC4/CyLib.c ****         }
1725:.\Generated_Source\PSoC4/CyLib.c **** 
1726:.\Generated_Source\PSoC4/CyLib.c ****         return (returnValue);
1727:.\Generated_Source\PSoC4/CyLib.c ****     }
1728:.\Generated_Source\PSoC4/CyLib.c **** 
ARM GAS  C:\Users\ddemidov\AppData\Local\Temp\ccvWfYq9.s 			page 39


1729:.\Generated_Source\PSoC4/CyLib.c **** 
1730:.\Generated_Source\PSoC4/CyLib.c ****     /*******************************************************************************
1731:.\Generated_Source\PSoC4/CyLib.c ****     * Function Name: CySysClkPllGetUnlockStatus
1732:.\Generated_Source\PSoC4/CyLib.c ****     ********************************************************************************
1733:.\Generated_Source\PSoC4/CyLib.c ****     *
1734:.\Generated_Source\PSoC4/CyLib.c ****     * Summary:
1735:.\Generated_Source\PSoC4/CyLib.c ****     *  Returns a non-zero value if the specified PLL output was unlocked.
1736:.\Generated_Source\PSoC4/CyLib.c ****     *  The unlock status is an indicator that the PLL has lost a lock at least once
1737:.\Generated_Source\PSoC4/CyLib.c ****     *  during its operation. The unlock status is cleared once it is read using
1738:.\Generated_Source\PSoC4/CyLib.c ****     *  this API.
1739:.\Generated_Source\PSoC4/CyLib.c ****     *
1740:.\Generated_Source\PSoC4/CyLib.c ****     *  This API is available only for PSoC 4200L devices.
1741:.\Generated_Source\PSoC4/CyLib.c ****     *
1742:.\Generated_Source\PSoC4/CyLib.c ****     * Parameters:
1743:.\Generated_Source\PSoC4/CyLib.c ****     *  PLL:
1744:.\Generated_Source\PSoC4/CyLib.c ****     *   0   PLL#0
1745:.\Generated_Source\PSoC4/CyLib.c ****     *   1   PLL#1
1746:.\Generated_Source\PSoC4/CyLib.c ****     *
1747:.\Generated_Source\PSoC4/CyLib.c ****     * Return:
1748:.\Generated_Source\PSoC4/CyLib.c ****     *  Non-zero value when the specified PLL was unlocked.
1749:.\Generated_Source\PSoC4/CyLib.c ****     *
1750:.\Generated_Source\PSoC4/CyLib.c ****     *******************************************************************************/
1751:.\Generated_Source\PSoC4/CyLib.c ****     uint32 CySysClkPllGetUnlockStatus(uint32 pll)
1752:.\Generated_Source\PSoC4/CyLib.c ****     {
1753:.\Generated_Source\PSoC4/CyLib.c ****         uint32 returnStatus = 0u;
1754:.\Generated_Source\PSoC4/CyLib.c ****         uint8  interruptState;
1755:.\Generated_Source\PSoC4/CyLib.c **** 
1756:.\Generated_Source\PSoC4/CyLib.c ****         interruptState = CyEnterCriticalSection();
1757:.\Generated_Source\PSoC4/CyLib.c **** 
1758:.\Generated_Source\PSoC4/CyLib.c ****         returnStatus = CY_SYS_CLK_PLL_BASE.pll[pll].test & CY_SYS_CLK_PLL_TEST_UNLOCK_OCCURRED_MASK
1759:.\Generated_Source\PSoC4/CyLib.c ****         CY_SYS_CLK_PLL_BASE.pll[pll].test |= CY_SYS_CLK_PLL_TEST_UNLOCK_OCCURRED_MASK;
1760:.\Generated_Source\PSoC4/CyLib.c **** 
1761:.\Generated_Source\PSoC4/CyLib.c ****         CyExitCriticalSection(interruptState);
1762:.\Generated_Source\PSoC4/CyLib.c **** 
1763:.\Generated_Source\PSoC4/CyLib.c ****         return (returnStatus);
1764:.\Generated_Source\PSoC4/CyLib.c ****     }
1765:.\Generated_Source\PSoC4/CyLib.c **** 
1766:.\Generated_Source\PSoC4/CyLib.c **** 
1767:.\Generated_Source\PSoC4/CyLib.c ****     /*******************************************************************************
1768:.\Generated_Source\PSoC4/CyLib.c ****     * Function Name: CySysClkPllSetFrequency
1769:.\Generated_Source\PSoC4/CyLib.c ****     ********************************************************************************
1770:.\Generated_Source\PSoC4/CyLib.c ****     *
1771:.\Generated_Source\PSoC4/CyLib.c ****     * Summary:
1772:.\Generated_Source\PSoC4/CyLib.c ****     *  Configures either PLL#0 or PLL#1 for the requested input/output frequencies.
1773:.\Generated_Source\PSoC4/CyLib.c ****     *  The input frequency is the frequency of the source to the PLL. The source is
1774:.\Generated_Source\PSoC4/CyLib.c ****     *  set using the CySysClkPllSetSource() function.
1775:.\Generated_Source\PSoC4/CyLib.c ****     *
1776:.\Generated_Source\PSoC4/CyLib.c ****     *  The PLL must not be the system clock source when calling this function. The
1777:.\Generated_Source\PSoC4/CyLib.c ****     *  PLL output will glitch during this function call.
1778:.\Generated_Source\PSoC4/CyLib.c ****     *
1779:.\Generated_Source\PSoC4/CyLib.c ****     *  This API is available only for PSoC 4200L devices.
1780:.\Generated_Source\PSoC4/CyLib.c ****     *
1781:.\Generated_Source\PSoC4/CyLib.c ****     * Parameters:
1782:.\Generated_Source\PSoC4/CyLib.c ****     *  PLL:
1783:.\Generated_Source\PSoC4/CyLib.c ****     *   0   PLL#0
1784:.\Generated_Source\PSoC4/CyLib.c ****     *   1   PLL#1
1785:.\Generated_Source\PSoC4/CyLib.c ****     *
ARM GAS  C:\Users\ddemidov\AppData\Local\Temp\ccvWfYq9.s 			page 40


1786:.\Generated_Source\PSoC4/CyLib.c ****     *  inputFreq:
1787:.\Generated_Source\PSoC4/CyLib.c ****     *   The reference frequency in KHz. The valid range is from 1000 to 49152 KHz.
1788:.\Generated_Source\PSoC4/CyLib.c ****     *
1789:.\Generated_Source\PSoC4/CyLib.c ****     *  pllFreq:
1790:.\Generated_Source\PSoC4/CyLib.c ****     *   The target frequency in KHz. The valid range is from 22500 to 49152 KHz.
1791:.\Generated_Source\PSoC4/CyLib.c ****     *
1792:.\Generated_Source\PSoC4/CyLib.c ****     * divider:
1793:.\Generated_Source\PSoC4/CyLib.c ****     *  The output clock divider for the PLL:
1794:.\Generated_Source\PSoC4/CyLib.c ****     *  CY_SYS_PLL_OUTPUT_DIVPASS    Pass Through
1795:.\Generated_Source\PSoC4/CyLib.c ****     *  CY_SYS_PLL_OUTPUT_DIV2       Divide by 2
1796:.\Generated_Source\PSoC4/CyLib.c ****     *  CY_SYS_PLL_OUTPUT_DIV4       Divide by 4
1797:.\Generated_Source\PSoC4/CyLib.c ****     *  CY_SYS_PLL_OUTPUT_DIV8       Divide by 8
1798:.\Generated_Source\PSoC4/CyLib.c ****     *
1799:.\Generated_Source\PSoC4/CyLib.c ****     * freqTol:
1800:.\Generated_Source\PSoC4/CyLib.c ****     *  The tolerance in ppm, 10 ppm is equal to 0.001%.
1801:.\Generated_Source\PSoC4/CyLib.c ****     *
1802:.\Generated_Source\PSoC4/CyLib.c ****     * Return:
1803:.\Generated_Source\PSoC4/CyLib.c ****     *  CYRET_SUCCESS - The PLL was successfully configured for the requested
1804:.\Generated_Source\PSoC4/CyLib.c ****     *  frequency.
1805:.\Generated_Source\PSoC4/CyLib.c ****     *
1806:.\Generated_Source\PSoC4/CyLib.c ****     *  CYRET_BAD_PARAM - The PLL was not able to successfully configure for the
1807:.\Generated_Source\PSoC4/CyLib.c ****     *  requested frequency.
1808:.\Generated_Source\PSoC4/CyLib.c ****     *
1809:.\Generated_Source\PSoC4/CyLib.c ****     *******************************************************************************/
1810:.\Generated_Source\PSoC4/CyLib.c ****     cystatus CySysClkPllSetFrequency(uint32 pll, uint32 inputFreq, uint32 pllFreq, uint32 divider, 
1811:.\Generated_Source\PSoC4/CyLib.c ****     {
1812:.\Generated_Source\PSoC4/CyLib.c ****         uint32 qMin;
1813:.\Generated_Source\PSoC4/CyLib.c ****         uint32 qMax;
1814:.\Generated_Source\PSoC4/CyLib.c **** 
1815:.\Generated_Source\PSoC4/CyLib.c ****         uint32 qVal = CY_SYS_CLK_PLL_INVALID;
1816:.\Generated_Source\PSoC4/CyLib.c ****         uint32 pVal = CY_SYS_CLK_PLL_INVALID;
1817:.\Generated_Source\PSoC4/CyLib.c **** 
1818:.\Generated_Source\PSoC4/CyLib.c ****         uint32 q;
1819:.\Generated_Source\PSoC4/CyLib.c ****         uint32 p;
1820:.\Generated_Source\PSoC4/CyLib.c **** 
1821:.\Generated_Source\PSoC4/CyLib.c ****         uint32 fvco;
1822:.\Generated_Source\PSoC4/CyLib.c ****         int32 ferr;
1823:.\Generated_Source\PSoC4/CyLib.c **** 
1824:.\Generated_Source\PSoC4/CyLib.c ****         cystatus tmp;
1825:.\Generated_Source\PSoC4/CyLib.c ****         cystatus returnStatus = CYRET_BAD_PARAM;
1826:.\Generated_Source\PSoC4/CyLib.c **** 
1827:.\Generated_Source\PSoC4/CyLib.c **** 
1828:.\Generated_Source\PSoC4/CyLib.c ****         tmp = CySysClkPllConfigChangeAllowed(pll);
1829:.\Generated_Source\PSoC4/CyLib.c **** 
1830:.\Generated_Source\PSoC4/CyLib.c ****         if ((pll < CY_IP_PLL_NR) &&
1831:.\Generated_Source\PSoC4/CyLib.c ****             (inputFreq  >= CY_SYS_CLK_PLL_INPUT_FREQ_MIN )  && (inputFreq  <= CY_SYS_CLK_PLL_INPUT_
1832:.\Generated_Source\PSoC4/CyLib.c ****             (pllFreq >= CY_SYS_CLK_PLL_OUTPUT_FREQ_MIN ) && (pllFreq <= CY_SYS_CLK_PLL_OUTPUT_FREQ_
1833:.\Generated_Source\PSoC4/CyLib.c ****             (divider <= CY_SYS_PLL_OUTPUT_DIV8) &&
1834:.\Generated_Source\PSoC4/CyLib.c ****             (CYRET_SUCCESS == tmp))
1835:.\Generated_Source\PSoC4/CyLib.c ****         {
1836:.\Generated_Source\PSoC4/CyLib.c **** 
1837:.\Generated_Source\PSoC4/CyLib.c ****             /* Minimum feed forward loop divisor */
1838:.\Generated_Source\PSoC4/CyLib.c ****             qMin = (inputFreq + (CY_SYS_CLK_PLL_FPFDMAX - 1u)) / CY_SYS_CLK_PLL_FPFDMAX;
1839:.\Generated_Source\PSoC4/CyLib.c ****             qMin = (qMin < CY_SYS_CLK_PLL_QMINIP) ? CY_SYS_CLK_PLL_QMINIP : qMin;
1840:.\Generated_Source\PSoC4/CyLib.c **** 
1841:.\Generated_Source\PSoC4/CyLib.c ****             /* Maximum feed forward loop divisor */
1842:.\Generated_Source\PSoC4/CyLib.c ****             qMax = inputFreq / CY_SYS_CLK_PLL_FPFDMIN;
ARM GAS  C:\Users\ddemidov\AppData\Local\Temp\ccvWfYq9.s 			page 41


1843:.\Generated_Source\PSoC4/CyLib.c ****             qMax = (qMax > CY_SYS_CLK_PLL_QMAXIP) ? CY_SYS_CLK_PLL_QMAXIP : qMax;
1844:.\Generated_Source\PSoC4/CyLib.c **** 
1845:.\Generated_Source\PSoC4/CyLib.c ****             if (qMin <= qMax)
1846:.\Generated_Source\PSoC4/CyLib.c ****             {
1847:.\Generated_Source\PSoC4/CyLib.c ****                 for(q = qMin; q <= qMax; q++)
1848:.\Generated_Source\PSoC4/CyLib.c ****                 {
1849:.\Generated_Source\PSoC4/CyLib.c ****                     /* Solve for the feedback divisor value */
1850:.\Generated_Source\PSoC4/CyLib.c **** 
1851:.\Generated_Source\PSoC4/CyLib.c ****                     /* INT((pllFreq * q ) / inputFreq), where INT is normal rounding  */
1852:.\Generated_Source\PSoC4/CyLib.c ****                     p = ((pllFreq * q) + (inputFreq / 2u)) / inputFreq;
1853:.\Generated_Source\PSoC4/CyLib.c **** 
1854:.\Generated_Source\PSoC4/CyLib.c ****                     /* Calculate the actual VCO frequency (FVCO) */
1855:.\Generated_Source\PSoC4/CyLib.c ****                     fvco = ((inputFreq * p) / q);
1856:.\Generated_Source\PSoC4/CyLib.c **** 
1857:.\Generated_Source\PSoC4/CyLib.c ****                     /* Calculate the frequency error (FERR) */
1858:.\Generated_Source\PSoC4/CyLib.c ****                     ferr = ((1000000 * ((int32) fvco - (int32) pllFreq))/ (int32) pllFreq);
1859:.\Generated_Source\PSoC4/CyLib.c **** 
1860:.\Generated_Source\PSoC4/CyLib.c ****                     /* Bound check the frequency error and decide next action */
1861:.\Generated_Source\PSoC4/CyLib.c ****                     if ((( -1 * (int32) freqTol) <= ferr) && (ferr <= (int32) freqTol))
1862:.\Generated_Source\PSoC4/CyLib.c ****                     {
1863:.\Generated_Source\PSoC4/CyLib.c ****                         qVal = q;
1864:.\Generated_Source\PSoC4/CyLib.c ****                         pVal = p;
1865:.\Generated_Source\PSoC4/CyLib.c ****                         break;
1866:.\Generated_Source\PSoC4/CyLib.c ****                     }
1867:.\Generated_Source\PSoC4/CyLib.c ****                 }
1868:.\Generated_Source\PSoC4/CyLib.c **** 
1869:.\Generated_Source\PSoC4/CyLib.c **** 
1870:.\Generated_Source\PSoC4/CyLib.c ****                 if ((pVal != CY_SYS_CLK_PLL_INVALID) && (qVal != CY_SYS_CLK_PLL_INVALID))
1871:.\Generated_Source\PSoC4/CyLib.c ****                 {
1872:.\Generated_Source\PSoC4/CyLib.c ****                     if (CySysClkPllSetPQ(pll, pVal, qVal, CY_SYS_CLK_PLL_CURRENT_DEFAULT) == CYRET_
1873:.\Generated_Source\PSoC4/CyLib.c ****                     {
1874:.\Generated_Source\PSoC4/CyLib.c ****                         returnStatus = CySysClkPllSetOutputDivider(pll, divider);
1875:.\Generated_Source\PSoC4/CyLib.c ****                     }
1876:.\Generated_Source\PSoC4/CyLib.c ****                 }
1877:.\Generated_Source\PSoC4/CyLib.c ****             }
1878:.\Generated_Source\PSoC4/CyLib.c **** 
1879:.\Generated_Source\PSoC4/CyLib.c ****         }
1880:.\Generated_Source\PSoC4/CyLib.c **** 
1881:.\Generated_Source\PSoC4/CyLib.c ****         return (returnStatus);
1882:.\Generated_Source\PSoC4/CyLib.c ****     }
1883:.\Generated_Source\PSoC4/CyLib.c **** 
1884:.\Generated_Source\PSoC4/CyLib.c **** 
1885:.\Generated_Source\PSoC4/CyLib.c ****     /*******************************************************************************
1886:.\Generated_Source\PSoC4/CyLib.c ****     * Function Name: CySysClkPllSetSource
1887:.\Generated_Source\PSoC4/CyLib.c ****     ********************************************************************************
1888:.\Generated_Source\PSoC4/CyLib.c ****     *
1889:.\Generated_Source\PSoC4/CyLib.c ****     * Summary:
1890:.\Generated_Source\PSoC4/CyLib.c ****     *  Sets the input clock source to the PLL. The PLL must not be the system clock
1891:.\Generated_Source\PSoC4/CyLib.c ****     *  source when calling this function. The PLL output will glitch during this
1892:.\Generated_Source\PSoC4/CyLib.c ****     *  function call.
1893:.\Generated_Source\PSoC4/CyLib.c ****     *
1894:.\Generated_Source\PSoC4/CyLib.c ****     *  This API is available only for PSoC 4200L devices.
1895:.\Generated_Source\PSoC4/CyLib.c ****     *
1896:.\Generated_Source\PSoC4/CyLib.c ****     * Parameters:
1897:.\Generated_Source\PSoC4/CyLib.c ****     *  PLL:
1898:.\Generated_Source\PSoC4/CyLib.c ****     *  0   PLL#0
1899:.\Generated_Source\PSoC4/CyLib.c ****     *  1   PLL#1
ARM GAS  C:\Users\ddemidov\AppData\Local\Temp\ccvWfYq9.s 			page 42


1900:.\Generated_Source\PSoC4/CyLib.c ****     *
1901:.\Generated_Source\PSoC4/CyLib.c ****     * source:
1902:.\Generated_Source\PSoC4/CyLib.c ****     *  CY_SYS_PLL_SOURCE_IMO        IMO
1903:.\Generated_Source\PSoC4/CyLib.c ****     *  CY_SYS_PLL_SOURCE_EXTCLK     External Clock
1904:.\Generated_Source\PSoC4/CyLib.c ****     *  CY_SYS_PLL_SOURCE_ECO        ECO
1905:.\Generated_Source\PSoC4/CyLib.c ****     *  CY_SYS_PLL_SOURCE_DSI0       DSI_OUT[0]
1906:.\Generated_Source\PSoC4/CyLib.c ****     *  CY_SYS_PLL_SOURCE_DSI1       DSI_OUT[1]
1907:.\Generated_Source\PSoC4/CyLib.c ****     *  CY_SYS_PLL_SOURCE_DSI2       DSI_OUT[2]
1908:.\Generated_Source\PSoC4/CyLib.c ****     *  CY_SYS_PLL_SOURCE_DSI3       DSI_OUT[3]
1909:.\Generated_Source\PSoC4/CyLib.c ****     *
1910:.\Generated_Source\PSoC4/CyLib.c ****     * Return:
1911:.\Generated_Source\PSoC4/CyLib.c ****     *  None
1912:.\Generated_Source\PSoC4/CyLib.c ****     *
1913:.\Generated_Source\PSoC4/CyLib.c ****     *******************************************************************************/
1914:.\Generated_Source\PSoC4/CyLib.c ****     void CySysClkPllSetSource(uint32 pll, uint32 source)
1915:.\Generated_Source\PSoC4/CyLib.c ****     {
1916:.\Generated_Source\PSoC4/CyLib.c ****         uint32 regTmp;
1917:.\Generated_Source\PSoC4/CyLib.c ****         uint8  interruptState;
1918:.\Generated_Source\PSoC4/CyLib.c **** 
1919:.\Generated_Source\PSoC4/CyLib.c ****         interruptState = CyEnterCriticalSection();
1920:.\Generated_Source\PSoC4/CyLib.c **** 
1921:.\Generated_Source\PSoC4/CyLib.c ****         if (pll < CY_IP_PLL_NR)
1922:.\Generated_Source\PSoC4/CyLib.c ****         {
1923:.\Generated_Source\PSoC4/CyLib.c ****             regTmp = CY_SYS_CLK_SELECT_REG & (uint32) ~CY_SYS_CLK_SELECT_PLL_MASK(pll);
1924:.\Generated_Source\PSoC4/CyLib.c ****             regTmp |= ((source << CY_SYS_CLK_SELECT_PLL_SHIFT(pll)) & CY_SYS_CLK_SELECT_PLL_MASK(pl
1925:.\Generated_Source\PSoC4/CyLib.c ****             CY_SYS_CLK_SELECT_REG = regTmp;
1926:.\Generated_Source\PSoC4/CyLib.c ****         }
1927:.\Generated_Source\PSoC4/CyLib.c **** 
1928:.\Generated_Source\PSoC4/CyLib.c ****         CyExitCriticalSection(interruptState);
1929:.\Generated_Source\PSoC4/CyLib.c ****     }
1930:.\Generated_Source\PSoC4/CyLib.c **** 
1931:.\Generated_Source\PSoC4/CyLib.c **** 
1932:.\Generated_Source\PSoC4/CyLib.c ****     /*******************************************************************************
1933:.\Generated_Source\PSoC4/CyLib.c ****     * Function Name: CySysClkPllSetOutputDivider
1934:.\Generated_Source\PSoC4/CyLib.c ****     ********************************************************************************
1935:.\Generated_Source\PSoC4/CyLib.c ****     *
1936:.\Generated_Source\PSoC4/CyLib.c ****     * Summary:
1937:.\Generated_Source\PSoC4/CyLib.c ****     *  Sets the output clock divider for the PLL.
1938:.\Generated_Source\PSoC4/CyLib.c ****     *
1939:.\Generated_Source\PSoC4/CyLib.c ****     *  The PLL must not be the System Clock source when calling this function. The
1940:.\Generated_Source\PSoC4/CyLib.c ****     *  PLL output will glitch during this function call.
1941:.\Generated_Source\PSoC4/CyLib.c ****     *
1942:.\Generated_Source\PSoC4/CyLib.c ****     *  This API is available only for PSoC 4200L devices.
1943:.\Generated_Source\PSoC4/CyLib.c ****     *
1944:.\Generated_Source\PSoC4/CyLib.c ****     * Parameters:
1945:.\Generated_Source\PSoC4/CyLib.c ****     *  PLL:
1946:.\Generated_Source\PSoC4/CyLib.c ****     *   0   PLL#0
1947:.\Generated_Source\PSoC4/CyLib.c ****     *   1   PLL#1
1948:.\Generated_Source\PSoC4/CyLib.c ****     *
1949:.\Generated_Source\PSoC4/CyLib.c ****     * divider:
1950:.\Generated_Source\PSoC4/CyLib.c ****     *  CY_SYS_PLL_OUTPUT_DIVPASS    Pass through
1951:.\Generated_Source\PSoC4/CyLib.c ****     *  CY_SYS_PLL_OUTPUT_DIV2       Divide by 2
1952:.\Generated_Source\PSoC4/CyLib.c ****     *  CY_SYS_PLL_OUTPUT_DIV4       Divide by 4
1953:.\Generated_Source\PSoC4/CyLib.c ****     *  CY_SYS_PLL_OUTPUT_DIV8       Divide by 8
1954:.\Generated_Source\PSoC4/CyLib.c ****     *
1955:.\Generated_Source\PSoC4/CyLib.c ****     * Return:
1956:.\Generated_Source\PSoC4/CyLib.c ****     *  CYRET_SUCCESS   - Completed successfully.
ARM GAS  C:\Users\ddemidov\AppData\Local\Temp\ccvWfYq9.s 			page 43


1957:.\Generated_Source\PSoC4/CyLib.c ****     *  CYRET_BAD_PARAM - The parameters are out of range or the specified PLL
1958:.\Generated_Source\PSoC4/CyLib.c ****     *                    sources the System clock.
1959:.\Generated_Source\PSoC4/CyLib.c ****     *
1960:.\Generated_Source\PSoC4/CyLib.c ****     *******************************************************************************/
1961:.\Generated_Source\PSoC4/CyLib.c ****     cystatus CySysClkPllSetOutputDivider(uint32 pll, uint32 divider)
1962:.\Generated_Source\PSoC4/CyLib.c ****     {
1963:.\Generated_Source\PSoC4/CyLib.c ****         uint32   tmpReg;
1964:.\Generated_Source\PSoC4/CyLib.c ****         uint8    interruptState;
1965:.\Generated_Source\PSoC4/CyLib.c ****         cystatus returnStatus = CYRET_BAD_PARAM;
1966:.\Generated_Source\PSoC4/CyLib.c ****         cystatus tmp;
1967:.\Generated_Source\PSoC4/CyLib.c **** 
1968:.\Generated_Source\PSoC4/CyLib.c **** 
1969:.\Generated_Source\PSoC4/CyLib.c ****         interruptState = CyEnterCriticalSection();
1970:.\Generated_Source\PSoC4/CyLib.c **** 
1971:.\Generated_Source\PSoC4/CyLib.c ****         tmp = CySysClkPllConfigChangeAllowed(pll);
1972:.\Generated_Source\PSoC4/CyLib.c **** 
1973:.\Generated_Source\PSoC4/CyLib.c ****         if ((pll < CY_IP_PLL_NR) && (CYRET_SUCCESS == tmp) && (divider <= CY_SYS_PLL_OUTPUT_DIV8))
1974:.\Generated_Source\PSoC4/CyLib.c ****         {
1975:.\Generated_Source\PSoC4/CyLib.c ****             tmpReg  = CY_SYS_CLK_PLL_BASE.pll[pll].config & (uint32) ~(CY_SYS_CLK_PLL_CONFIG_OUTPUT
1976:.\Generated_Source\PSoC4/CyLib.c ****             tmpReg |= ((divider << CY_SYS_CLK_PLL_CONFIG_OUTPUT_DIV_SHIFT) & CY_SYS_CLK_PLL_CONFIG_
1977:.\Generated_Source\PSoC4/CyLib.c **** 
1978:.\Generated_Source\PSoC4/CyLib.c ****             CY_SYS_CLK_PLL_BASE.pll[pll].config = tmpReg;
1979:.\Generated_Source\PSoC4/CyLib.c **** 
1980:.\Generated_Source\PSoC4/CyLib.c ****             returnStatus = CYRET_SUCCESS;
1981:.\Generated_Source\PSoC4/CyLib.c ****         }
1982:.\Generated_Source\PSoC4/CyLib.c **** 
1983:.\Generated_Source\PSoC4/CyLib.c ****         CyExitCriticalSection(interruptState);
1984:.\Generated_Source\PSoC4/CyLib.c **** 
1985:.\Generated_Source\PSoC4/CyLib.c ****         return (returnStatus);
1986:.\Generated_Source\PSoC4/CyLib.c ****     }
1987:.\Generated_Source\PSoC4/CyLib.c **** #endif /* (CY_IP_SRSSV2 && CY_IP_PLL) */
1988:.\Generated_Source\PSoC4/CyLib.c **** 
1989:.\Generated_Source\PSoC4/CyLib.c **** 
1990:.\Generated_Source\PSoC4/CyLib.c **** #if(CY_IP_SRSSV2)
1991:.\Generated_Source\PSoC4/CyLib.c **** 
1992:.\Generated_Source\PSoC4/CyLib.c ****     /*******************************************************************************
1993:.\Generated_Source\PSoC4/CyLib.c ****     * Function Name: CySysLvdEnable
1994:.\Generated_Source\PSoC4/CyLib.c ****     ********************************************************************************
1995:.\Generated_Source\PSoC4/CyLib.c ****     *
1996:.\Generated_Source\PSoC4/CyLib.c ****     * Summary:
1997:.\Generated_Source\PSoC4/CyLib.c ****     *  Enables the output of the low-voltage monitor when Vddd is at or below the
1998:.\Generated_Source\PSoC4/CyLib.c ****     *  trip point, configures the device to generate an interrupt, and sets the
1999:.\Generated_Source\PSoC4/CyLib.c ****     *  voltage trip level.
2000:.\Generated_Source\PSoC4/CyLib.c ****     *
2001:.\Generated_Source\PSoC4/CyLib.c ****     * Parameters:
2002:.\Generated_Source\PSoC4/CyLib.c ****     *  threshold: Threshold selection for Low Voltage Detect circuit.
2003:.\Generated_Source\PSoC4/CyLib.c ****     *  Threshold variation is +/- 2.5% from these typical voltage choices.
2004:.\Generated_Source\PSoC4/CyLib.c ****     *         Define                     Voltage threshold
2005:.\Generated_Source\PSoC4/CyLib.c ****     *    CY_LVD_THRESHOLD_1_75_V       1.7500 V
2006:.\Generated_Source\PSoC4/CyLib.c ****     *    CY_LVD_THRESHOLD_1_80_V       1.8000 V
2007:.\Generated_Source\PSoC4/CyLib.c ****     *    CY_LVD_THRESHOLD_1_90_V       1.9000 V
2008:.\Generated_Source\PSoC4/CyLib.c ****     *    CY_LVD_THRESHOLD_2_00_V       2.0000 V
2009:.\Generated_Source\PSoC4/CyLib.c ****     *    CY_LVD_THRESHOLD_2_10_V       2.1000 V
2010:.\Generated_Source\PSoC4/CyLib.c ****     *    CY_LVD_THRESHOLD_2_20_V       2.2000 V
2011:.\Generated_Source\PSoC4/CyLib.c ****     *    CY_LVD_THRESHOLD_2_30_V       2.3000 V
2012:.\Generated_Source\PSoC4/CyLib.c ****     *    CY_LVD_THRESHOLD_2_40_V       2.4000 V
2013:.\Generated_Source\PSoC4/CyLib.c ****     *    CY_LVD_THRESHOLD_2_50_V       2.5000 V
ARM GAS  C:\Users\ddemidov\AppData\Local\Temp\ccvWfYq9.s 			page 44


2014:.\Generated_Source\PSoC4/CyLib.c ****     *    CY_LVD_THRESHOLD_2_60_V       2.6000 V
2015:.\Generated_Source\PSoC4/CyLib.c ****     *    CY_LVD_THRESHOLD_2_70_V       2.7000 V
2016:.\Generated_Source\PSoC4/CyLib.c ****     *    CY_LVD_THRESHOLD_2_80_V       2.8000 V
2017:.\Generated_Source\PSoC4/CyLib.c ****     *    CY_LVD_THRESHOLD_2_90_V       2.9000 V
2018:.\Generated_Source\PSoC4/CyLib.c ****     *    CY_LVD_THRESHOLD_3_00_V       3.0000 V
2019:.\Generated_Source\PSoC4/CyLib.c ****     *    CY_LVD_THRESHOLD_3_20_V       3.2000 V
2020:.\Generated_Source\PSoC4/CyLib.c ****     *    CY_LVD_THRESHOLD_4_50_V       4.5000 V
2021:.\Generated_Source\PSoC4/CyLib.c ****     *
2022:.\Generated_Source\PSoC4/CyLib.c ****     * Return:
2023:.\Generated_Source\PSoC4/CyLib.c ****     *  None
2024:.\Generated_Source\PSoC4/CyLib.c ****     *
2025:.\Generated_Source\PSoC4/CyLib.c ****     *******************************************************************************/
2026:.\Generated_Source\PSoC4/CyLib.c ****     void CySysLvdEnable(uint32 threshold)
2027:.\Generated_Source\PSoC4/CyLib.c ****     {
2028:.\Generated_Source\PSoC4/CyLib.c ****         /* Prevent propagating a false interrupt */
2029:.\Generated_Source\PSoC4/CyLib.c ****         CY_LVD_PWR_INTR_MASK_REG   &= (uint32) ~CY_LVD_PROPAGATE_INT_TO_CPU;
2030:.\Generated_Source\PSoC4/CyLib.c **** 
2031:.\Generated_Source\PSoC4/CyLib.c ****         /* Set specified threshold */
2032:.\Generated_Source\PSoC4/CyLib.c ****         CY_LVD_PWR_VMON_CONFIG_REG = (CY_LVD_PWR_VMON_CONFIG_REG & ~CY_LVD_PWR_VMON_CONFIG_LVD_SEL_
2033:.\Generated_Source\PSoC4/CyLib.c ****                 ((threshold << CY_LVD_PWR_VMON_CONFIG_LVD_SEL_SHIFT) & CY_LVD_PWR_VMON_CONFIG_LVD_S
2034:.\Generated_Source\PSoC4/CyLib.c **** 
2035:.\Generated_Source\PSoC4/CyLib.c ****         /* Enable the LVD. This may cause a false LVD event. */
2036:.\Generated_Source\PSoC4/CyLib.c ****         CY_LVD_PWR_VMON_CONFIG_REG |= CY_LVD_PWR_VMON_CONFIG_LVD_EN;
2037:.\Generated_Source\PSoC4/CyLib.c **** 
2038:.\Generated_Source\PSoC4/CyLib.c ****         /* Wait for the circuit to stabilize */
2039:.\Generated_Source\PSoC4/CyLib.c ****         CyDelayUs(CY_LVD_STABILIZE_TIMEOUT_US);
2040:.\Generated_Source\PSoC4/CyLib.c **** 
2041:.\Generated_Source\PSoC4/CyLib.c ****         /* Clear the false event */
2042:.\Generated_Source\PSoC4/CyLib.c ****         CySysLvdClearInterrupt();
2043:.\Generated_Source\PSoC4/CyLib.c **** 
2044:.\Generated_Source\PSoC4/CyLib.c ****         /* Unmask the interrupt */
2045:.\Generated_Source\PSoC4/CyLib.c ****         CY_LVD_PWR_INTR_MASK_REG   |= CY_LVD_PROPAGATE_INT_TO_CPU;
2046:.\Generated_Source\PSoC4/CyLib.c ****     }
2047:.\Generated_Source\PSoC4/CyLib.c **** 
2048:.\Generated_Source\PSoC4/CyLib.c **** 
2049:.\Generated_Source\PSoC4/CyLib.c ****     /*******************************************************************************
2050:.\Generated_Source\PSoC4/CyLib.c ****     * Function Name: CySysLvdDisable
2051:.\Generated_Source\PSoC4/CyLib.c ****     ********************************************************************************
2052:.\Generated_Source\PSoC4/CyLib.c ****     *
2053:.\Generated_Source\PSoC4/CyLib.c ****     * Summary:
2054:.\Generated_Source\PSoC4/CyLib.c ****     *  Disables the low voltage detection. A low voltage interrupt is disabled.
2055:.\Generated_Source\PSoC4/CyLib.c ****     *
2056:.\Generated_Source\PSoC4/CyLib.c ****     * Parameters:
2057:.\Generated_Source\PSoC4/CyLib.c ****     *  None
2058:.\Generated_Source\PSoC4/CyLib.c ****     *
2059:.\Generated_Source\PSoC4/CyLib.c ****     * Return:
2060:.\Generated_Source\PSoC4/CyLib.c ****     *  None
2061:.\Generated_Source\PSoC4/CyLib.c ****     *
2062:.\Generated_Source\PSoC4/CyLib.c ****     *******************************************************************************/
2063:.\Generated_Source\PSoC4/CyLib.c ****     void CySysLvdDisable(void)
2064:.\Generated_Source\PSoC4/CyLib.c ****     {
2065:.\Generated_Source\PSoC4/CyLib.c ****         CY_LVD_PWR_INTR_MASK_REG   &= ~CY_LVD_PROPAGATE_INT_TO_CPU;
2066:.\Generated_Source\PSoC4/CyLib.c ****         CY_LVD_PWR_VMON_CONFIG_REG &= ~CY_LVD_PWR_VMON_CONFIG_LVD_EN;
2067:.\Generated_Source\PSoC4/CyLib.c ****     }
2068:.\Generated_Source\PSoC4/CyLib.c **** 
2069:.\Generated_Source\PSoC4/CyLib.c **** 
2070:.\Generated_Source\PSoC4/CyLib.c ****     /*******************************************************************************
ARM GAS  C:\Users\ddemidov\AppData\Local\Temp\ccvWfYq9.s 			page 45


2071:.\Generated_Source\PSoC4/CyLib.c ****     * Function Name: CySysLvdGetInterruptSource
2072:.\Generated_Source\PSoC4/CyLib.c ****     ********************************************************************************
2073:.\Generated_Source\PSoC4/CyLib.c ****     *
2074:.\Generated_Source\PSoC4/CyLib.c ****     * Summary:
2075:.\Generated_Source\PSoC4/CyLib.c ****     *  Gets the low voltage detection interrupt status (without clearing).
2076:.\Generated_Source\PSoC4/CyLib.c ****     *
2077:.\Generated_Source\PSoC4/CyLib.c ****     * Parameters:
2078:.\Generated_Source\PSoC4/CyLib.c ****     *  None
2079:.\Generated_Source\PSoC4/CyLib.c ****     *
2080:.\Generated_Source\PSoC4/CyLib.c ****     * Return:
2081:.\Generated_Source\PSoC4/CyLib.c ****     *  Interrupt request value:
2082:.\Generated_Source\PSoC4/CyLib.c ****     *    CY_SYS_LVD_INT - Indicates an Low Voltage Detect interrupt
2083:.\Generated_Source\PSoC4/CyLib.c ****     *
2084:.\Generated_Source\PSoC4/CyLib.c ****     *******************************************************************************/
2085:.\Generated_Source\PSoC4/CyLib.c ****     uint32 CySysLvdGetInterruptSource(void)
2086:.\Generated_Source\PSoC4/CyLib.c ****     {
2087:.\Generated_Source\PSoC4/CyLib.c ****         return (CY_LVD_PWR_INTR_REG & CY_SYS_LVD_INT);
2088:.\Generated_Source\PSoC4/CyLib.c ****     }
2089:.\Generated_Source\PSoC4/CyLib.c **** 
2090:.\Generated_Source\PSoC4/CyLib.c **** 
2091:.\Generated_Source\PSoC4/CyLib.c ****     /*******************************************************************************
2092:.\Generated_Source\PSoC4/CyLib.c ****     * Function Name: CySysLvdClearInterrupt
2093:.\Generated_Source\PSoC4/CyLib.c ****     ********************************************************************************
2094:.\Generated_Source\PSoC4/CyLib.c ****     *
2095:.\Generated_Source\PSoC4/CyLib.c ****     * Summary:
2096:.\Generated_Source\PSoC4/CyLib.c ****     *  Clears the low voltage detection interrupt status.
2097:.\Generated_Source\PSoC4/CyLib.c ****     *
2098:.\Generated_Source\PSoC4/CyLib.c ****     * Parameters:
2099:.\Generated_Source\PSoC4/CyLib.c ****     *  None
2100:.\Generated_Source\PSoC4/CyLib.c ****     *
2101:.\Generated_Source\PSoC4/CyLib.c ****     * Return:
2102:.\Generated_Source\PSoC4/CyLib.c ****     *  None
2103:.\Generated_Source\PSoC4/CyLib.c ****     *
2104:.\Generated_Source\PSoC4/CyLib.c ****     *******************************************************************************/
2105:.\Generated_Source\PSoC4/CyLib.c ****     void CySysLvdClearInterrupt(void)
2106:.\Generated_Source\PSoC4/CyLib.c ****     {
2107:.\Generated_Source\PSoC4/CyLib.c ****         CY_LVD_PWR_INTR_REG = CY_SYS_LVD_INT;
2108:.\Generated_Source\PSoC4/CyLib.c ****     }
2109:.\Generated_Source\PSoC4/CyLib.c **** 
2110:.\Generated_Source\PSoC4/CyLib.c **** #endif /* (CY_IP_SRSSV2) */
2111:.\Generated_Source\PSoC4/CyLib.c **** 
2112:.\Generated_Source\PSoC4/CyLib.c **** 
2113:.\Generated_Source\PSoC4/CyLib.c **** /*******************************************************************************
2114:.\Generated_Source\PSoC4/CyLib.c **** * Function Name: CySysGetResetReason
2115:.\Generated_Source\PSoC4/CyLib.c **** ********************************************************************************
2116:.\Generated_Source\PSoC4/CyLib.c **** *
2117:.\Generated_Source\PSoC4/CyLib.c **** * Summary:
2118:.\Generated_Source\PSoC4/CyLib.c **** *  Reports the cause for the latest reset(s) that occurred in the system. All
2119:.\Generated_Source\PSoC4/CyLib.c **** *  the bits in the RES_CAUSE register assert when the corresponding reset cause
2120:.\Generated_Source\PSoC4/CyLib.c **** *  occurs and must be cleared by the firmware. These bits are cleared by the
2121:.\Generated_Source\PSoC4/CyLib.c **** *  hardware only during XRES, POR, or a detected brown-out.
2122:.\Generated_Source\PSoC4/CyLib.c **** *
2123:.\Generated_Source\PSoC4/CyLib.c **** * Parameters:
2124:.\Generated_Source\PSoC4/CyLib.c **** *  reason: bits in the RES_CAUSE register to clear.
2125:.\Generated_Source\PSoC4/CyLib.c **** *   CY_SYS_RESET_WDT       - WDT caused a reset
2126:.\Generated_Source\PSoC4/CyLib.c **** *   CY_SYS_RESET_PROTFAULT - Occured protection violation that requires reset
2127:.\Generated_Source\PSoC4/CyLib.c **** *   CY_SYS_RESET_SW        - Cortex-M0 requested a system reset.
ARM GAS  C:\Users\ddemidov\AppData\Local\Temp\ccvWfYq9.s 			page 46


2128:.\Generated_Source\PSoC4/CyLib.c **** *
2129:.\Generated_Source\PSoC4/CyLib.c **** * Return:
2130:.\Generated_Source\PSoC4/CyLib.c **** *  Status. Same enumerated bit values as used for the reason parameter.
2131:.\Generated_Source\PSoC4/CyLib.c **** *
2132:.\Generated_Source\PSoC4/CyLib.c **** *******************************************************************************/
2133:.\Generated_Source\PSoC4/CyLib.c **** uint32 CySysGetResetReason(uint32 reason)
2134:.\Generated_Source\PSoC4/CyLib.c **** {
2135:.\Generated_Source\PSoC4/CyLib.c ****     uint32 returnStatus;
2136:.\Generated_Source\PSoC4/CyLib.c **** 
2137:.\Generated_Source\PSoC4/CyLib.c ****     reason &= (CY_SYS_RESET_WDT | CY_SYS_RESET_PROTFAULT | CY_SYS_RESET_SW);
2138:.\Generated_Source\PSoC4/CyLib.c ****     returnStatus = CY_SYS_RES_CAUSE_REG &
2139:.\Generated_Source\PSoC4/CyLib.c ****                   (CY_SYS_RESET_WDT | CY_SYS_RESET_PROTFAULT | CY_SYS_RESET_SW);
2140:.\Generated_Source\PSoC4/CyLib.c ****     CY_SYS_RES_CAUSE_REG = reason;
2141:.\Generated_Source\PSoC4/CyLib.c **** 
2142:.\Generated_Source\PSoC4/CyLib.c ****     return (returnStatus);
2143:.\Generated_Source\PSoC4/CyLib.c **** }
2144:.\Generated_Source\PSoC4/CyLib.c **** 
2145:.\Generated_Source\PSoC4/CyLib.c **** 
2146:.\Generated_Source\PSoC4/CyLib.c **** /*******************************************************************************
2147:.\Generated_Source\PSoC4/CyLib.c **** * Function Name: CyDisableInts
2148:.\Generated_Source\PSoC4/CyLib.c **** ********************************************************************************
2149:.\Generated_Source\PSoC4/CyLib.c **** *
2150:.\Generated_Source\PSoC4/CyLib.c **** * Summary:
2151:.\Generated_Source\PSoC4/CyLib.c **** *  Disables all interrupts.
2152:.\Generated_Source\PSoC4/CyLib.c **** *
2153:.\Generated_Source\PSoC4/CyLib.c **** * Parameters:
2154:.\Generated_Source\PSoC4/CyLib.c **** *  None
2155:.\Generated_Source\PSoC4/CyLib.c **** *
2156:.\Generated_Source\PSoC4/CyLib.c **** * Return:
2157:.\Generated_Source\PSoC4/CyLib.c **** *  32 bit mask of previously enabled interrupts.
2158:.\Generated_Source\PSoC4/CyLib.c **** *
2159:.\Generated_Source\PSoC4/CyLib.c **** *******************************************************************************/
2160:.\Generated_Source\PSoC4/CyLib.c **** uint32 CyDisableInts(void)
2161:.\Generated_Source\PSoC4/CyLib.c **** {
2162:.\Generated_Source\PSoC4/CyLib.c ****     uint32 intState;
2163:.\Generated_Source\PSoC4/CyLib.c **** 
2164:.\Generated_Source\PSoC4/CyLib.c ****     /* Get current interrupt state. */
2165:.\Generated_Source\PSoC4/CyLib.c ****     intState = CY_INT_CLEAR_REG;
2166:.\Generated_Source\PSoC4/CyLib.c **** 
2167:.\Generated_Source\PSoC4/CyLib.c ****     /* Disable all interrupts. */
2168:.\Generated_Source\PSoC4/CyLib.c ****     CY_INT_CLEAR_REG = CY_INT_CLEAR_DISABLE_ALL;
2169:.\Generated_Source\PSoC4/CyLib.c **** 
2170:.\Generated_Source\PSoC4/CyLib.c ****     return (intState);
2171:.\Generated_Source\PSoC4/CyLib.c **** }
2172:.\Generated_Source\PSoC4/CyLib.c **** 
2173:.\Generated_Source\PSoC4/CyLib.c **** 
2174:.\Generated_Source\PSoC4/CyLib.c **** /*******************************************************************************
2175:.\Generated_Source\PSoC4/CyLib.c **** * Function Name: CyEnableInts
2176:.\Generated_Source\PSoC4/CyLib.c **** ********************************************************************************
2177:.\Generated_Source\PSoC4/CyLib.c **** *
2178:.\Generated_Source\PSoC4/CyLib.c **** * Summary:
2179:.\Generated_Source\PSoC4/CyLib.c **** *  Enables interrupts to a given state.
2180:.\Generated_Source\PSoC4/CyLib.c **** *
2181:.\Generated_Source\PSoC4/CyLib.c **** * Parameters:
2182:.\Generated_Source\PSoC4/CyLib.c **** *   mask, 32 bit mask of interrupts to enable.
2183:.\Generated_Source\PSoC4/CyLib.c **** *
2184:.\Generated_Source\PSoC4/CyLib.c **** * Return:
ARM GAS  C:\Users\ddemidov\AppData\Local\Temp\ccvWfYq9.s 			page 47


2185:.\Generated_Source\PSoC4/CyLib.c **** *  None
2186:.\Generated_Source\PSoC4/CyLib.c **** *
2187:.\Generated_Source\PSoC4/CyLib.c **** *******************************************************************************/
2188:.\Generated_Source\PSoC4/CyLib.c **** void CyEnableInts(uint32 mask)
2189:.\Generated_Source\PSoC4/CyLib.c **** {
2190:.\Generated_Source\PSoC4/CyLib.c ****     CY_INT_ENABLE_REG = mask;
2191:.\Generated_Source\PSoC4/CyLib.c **** }
2192:.\Generated_Source\PSoC4/CyLib.c **** 
2193:.\Generated_Source\PSoC4/CyLib.c **** 
2194:.\Generated_Source\PSoC4/CyLib.c **** /*******************************************************************************
2195:.\Generated_Source\PSoC4/CyLib.c **** * Function Name: CyIntSetSysVector
2196:.\Generated_Source\PSoC4/CyLib.c **** ********************************************************************************
2197:.\Generated_Source\PSoC4/CyLib.c **** *
2198:.\Generated_Source\PSoC4/CyLib.c **** * Summary:
2199:.\Generated_Source\PSoC4/CyLib.c **** *  Sets the interrupt vector of the specified system interrupt number. These
2200:.\Generated_Source\PSoC4/CyLib.c **** *  interrupts are for SysTick, PendSV and others.
2201:.\Generated_Source\PSoC4/CyLib.c **** *
2202:.\Generated_Source\PSoC4/CyLib.c **** * Parameters:
2203:.\Generated_Source\PSoC4/CyLib.c **** *  number: System interrupt number:
2204:.\Generated_Source\PSoC4/CyLib.c **** *    CY_INT_NMI_IRQN        - Non Maskable Interrupt
2205:.\Generated_Source\PSoC4/CyLib.c **** *    CY_INT_HARD_FAULT_IRQN - Hard Fault Interrupt
2206:.\Generated_Source\PSoC4/CyLib.c **** *    CY_INT_SVCALL_IRQN     - SV Call Interrupt
2207:.\Generated_Source\PSoC4/CyLib.c **** *    CY_INT_PEND_SV_IRQN    - Pend SV Interrupt
2208:.\Generated_Source\PSoC4/CyLib.c **** *    CY_INT_SYSTICK_IRQN    - System Tick Interrupt
2209:.\Generated_Source\PSoC4/CyLib.c **** *
2210:.\Generated_Source\PSoC4/CyLib.c **** *  address: Pointer to an interrupt service routine.
2211:.\Generated_Source\PSoC4/CyLib.c **** *
2212:.\Generated_Source\PSoC4/CyLib.c **** * Return:
2213:.\Generated_Source\PSoC4/CyLib.c **** *  The old ISR vector at this location.
2214:.\Generated_Source\PSoC4/CyLib.c **** *
2215:.\Generated_Source\PSoC4/CyLib.c **** *******************************************************************************/
2216:.\Generated_Source\PSoC4/CyLib.c **** cyisraddress CyIntSetSysVector(uint8 number, cyisraddress address)
2217:.\Generated_Source\PSoC4/CyLib.c **** {
2218:.\Generated_Source\PSoC4/CyLib.c ****     cyisraddress oldIsr;
2219:.\Generated_Source\PSoC4/CyLib.c ****     cyisraddress *ramVectorTable = (cyisraddress *) CY_INT_VECT_TABLE;
2220:.\Generated_Source\PSoC4/CyLib.c **** 
2221:.\Generated_Source\PSoC4/CyLib.c ****     CYASSERT(number < CY_INT_IRQ_BASE);
2222:.\Generated_Source\PSoC4/CyLib.c **** 
2223:.\Generated_Source\PSoC4/CyLib.c ****     /* Save old Interrupt service routine. */
2224:.\Generated_Source\PSoC4/CyLib.c ****     oldIsr = ramVectorTable[number];
2225:.\Generated_Source\PSoC4/CyLib.c **** 
2226:.\Generated_Source\PSoC4/CyLib.c ****     /* Set new Interrupt service routine. */
2227:.\Generated_Source\PSoC4/CyLib.c ****     ramVectorTable[number] = address;
2228:.\Generated_Source\PSoC4/CyLib.c **** 
2229:.\Generated_Source\PSoC4/CyLib.c ****     return(oldIsr);
2230:.\Generated_Source\PSoC4/CyLib.c **** }
2231:.\Generated_Source\PSoC4/CyLib.c **** 
2232:.\Generated_Source\PSoC4/CyLib.c **** 
2233:.\Generated_Source\PSoC4/CyLib.c **** /*******************************************************************************
2234:.\Generated_Source\PSoC4/CyLib.c **** * Function Name: CyIntGetSysVector
2235:.\Generated_Source\PSoC4/CyLib.c **** ********************************************************************************
2236:.\Generated_Source\PSoC4/CyLib.c **** *
2237:.\Generated_Source\PSoC4/CyLib.c **** * Summary:
2238:.\Generated_Source\PSoC4/CyLib.c **** *   Gets the interrupt vector of the specified system interrupt number. These
2239:.\Generated_Source\PSoC4/CyLib.c **** *   interrupts are for SysTick, PendSV and others.
2240:.\Generated_Source\PSoC4/CyLib.c **** *
2241:.\Generated_Source\PSoC4/CyLib.c **** * Parameters:
ARM GAS  C:\Users\ddemidov\AppData\Local\Temp\ccvWfYq9.s 			page 48


2242:.\Generated_Source\PSoC4/CyLib.c **** *  number: System interrupt number:
2243:.\Generated_Source\PSoC4/CyLib.c **** *    CY_INT_NMI_IRQN        - Non Maskable Interrupt
2244:.\Generated_Source\PSoC4/CyLib.c **** *    CY_INT_HARD_FAULT_IRQN - Hard Fault Interrupt
2245:.\Generated_Source\PSoC4/CyLib.c **** *    CY_INT_SVCALL_IRQN     - SV Call Interrupt
2246:.\Generated_Source\PSoC4/CyLib.c **** *    CY_INT_PEND_SV_IRQN    - Pend SV Interrupt
2247:.\Generated_Source\PSoC4/CyLib.c **** *    CY_INT_SYSTICK_IRQN    - System Tick Interrupt
2248:.\Generated_Source\PSoC4/CyLib.c **** *
2249:.\Generated_Source\PSoC4/CyLib.c **** * Return:
2250:.\Generated_Source\PSoC4/CyLib.c **** *   Address of the ISR in the interrupt vector table.
2251:.\Generated_Source\PSoC4/CyLib.c **** *
2252:.\Generated_Source\PSoC4/CyLib.c **** *******************************************************************************/
2253:.\Generated_Source\PSoC4/CyLib.c **** cyisraddress CyIntGetSysVector(uint8 number)
2254:.\Generated_Source\PSoC4/CyLib.c **** {
2255:.\Generated_Source\PSoC4/CyLib.c ****     cyisraddress *ramVectorTable = (cyisraddress *) CY_INT_VECT_TABLE;
2256:.\Generated_Source\PSoC4/CyLib.c **** 
2257:.\Generated_Source\PSoC4/CyLib.c ****     CYASSERT(number < CY_INT_IRQ_BASE);
2258:.\Generated_Source\PSoC4/CyLib.c **** 
2259:.\Generated_Source\PSoC4/CyLib.c ****     return(ramVectorTable[number]);
2260:.\Generated_Source\PSoC4/CyLib.c **** }
2261:.\Generated_Source\PSoC4/CyLib.c **** 
2262:.\Generated_Source\PSoC4/CyLib.c **** 
2263:.\Generated_Source\PSoC4/CyLib.c **** /*******************************************************************************
2264:.\Generated_Source\PSoC4/CyLib.c **** * Function Name: CyIntSetVector
2265:.\Generated_Source\PSoC4/CyLib.c **** ********************************************************************************
2266:.\Generated_Source\PSoC4/CyLib.c **** *
2267:.\Generated_Source\PSoC4/CyLib.c **** * Summary:
2268:.\Generated_Source\PSoC4/CyLib.c **** *  Sets the interrupt vector of the specified interrupt number.
2269:.\Generated_Source\PSoC4/CyLib.c **** *
2270:.\Generated_Source\PSoC4/CyLib.c **** * Parameters:
2271:.\Generated_Source\PSoC4/CyLib.c **** *  number: Valid range [0-31].  Interrupt number
2272:.\Generated_Source\PSoC4/CyLib.c **** *  address: Pointer to an interrupt service routine
2273:.\Generated_Source\PSoC4/CyLib.c **** *
2274:.\Generated_Source\PSoC4/CyLib.c **** * Return:
2275:.\Generated_Source\PSoC4/CyLib.c **** *   Previous interrupt vector value.
2276:.\Generated_Source\PSoC4/CyLib.c **** *
2277:.\Generated_Source\PSoC4/CyLib.c **** *******************************************************************************/
2278:.\Generated_Source\PSoC4/CyLib.c **** cyisraddress CyIntSetVector(uint8 number, cyisraddress address)
2279:.\Generated_Source\PSoC4/CyLib.c **** {
2280:.\Generated_Source\PSoC4/CyLib.c ****     cyisraddress oldIsr;
2281:.\Generated_Source\PSoC4/CyLib.c ****     cyisraddress *ramVectorTable = (cyisraddress *) CY_INT_VECT_TABLE;
2282:.\Generated_Source\PSoC4/CyLib.c **** 
2283:.\Generated_Source\PSoC4/CyLib.c ****     CYASSERT(number < CY_NUM_INTERRUPTS);
2284:.\Generated_Source\PSoC4/CyLib.c **** 
2285:.\Generated_Source\PSoC4/CyLib.c ****     /* Save old Interrupt service routine. */
2286:.\Generated_Source\PSoC4/CyLib.c ****     oldIsr = ramVectorTable[CY_INT_IRQ_BASE + number];
2287:.\Generated_Source\PSoC4/CyLib.c **** 
2288:.\Generated_Source\PSoC4/CyLib.c ****     /* Set new Interrupt service routine. */
2289:.\Generated_Source\PSoC4/CyLib.c ****     ramVectorTable[CY_INT_IRQ_BASE + number] = address;
2290:.\Generated_Source\PSoC4/CyLib.c **** 
2291:.\Generated_Source\PSoC4/CyLib.c ****     return(oldIsr);
2292:.\Generated_Source\PSoC4/CyLib.c **** }
2293:.\Generated_Source\PSoC4/CyLib.c **** 
2294:.\Generated_Source\PSoC4/CyLib.c **** 
2295:.\Generated_Source\PSoC4/CyLib.c **** /*******************************************************************************
2296:.\Generated_Source\PSoC4/CyLib.c **** * Function Name: CyIntGetVector
2297:.\Generated_Source\PSoC4/CyLib.c **** ********************************************************************************
2298:.\Generated_Source\PSoC4/CyLib.c **** *
ARM GAS  C:\Users\ddemidov\AppData\Local\Temp\ccvWfYq9.s 			page 49


2299:.\Generated_Source\PSoC4/CyLib.c **** * Summary:
2300:.\Generated_Source\PSoC4/CyLib.c **** *  Gets the interrupt vector of the specified interrupt number.
2301:.\Generated_Source\PSoC4/CyLib.c **** *
2302:.\Generated_Source\PSoC4/CyLib.c **** * Parameters:
2303:.\Generated_Source\PSoC4/CyLib.c **** *  number: Valid range [0-31].  Interrupt number
2304:.\Generated_Source\PSoC4/CyLib.c **** *
2305:.\Generated_Source\PSoC4/CyLib.c **** * Return:
2306:.\Generated_Source\PSoC4/CyLib.c **** *  Address of the ISR in the interrupt vector table.
2307:.\Generated_Source\PSoC4/CyLib.c **** *
2308:.\Generated_Source\PSoC4/CyLib.c **** *******************************************************************************/
2309:.\Generated_Source\PSoC4/CyLib.c **** cyisraddress CyIntGetVector(uint8 number)
2310:.\Generated_Source\PSoC4/CyLib.c **** {
2311:.\Generated_Source\PSoC4/CyLib.c ****     cyisraddress *ramVectorTable = (cyisraddress *) CY_INT_VECT_TABLE;
2312:.\Generated_Source\PSoC4/CyLib.c **** 
2313:.\Generated_Source\PSoC4/CyLib.c ****     CYASSERT(number < CY_NUM_INTERRUPTS);
2314:.\Generated_Source\PSoC4/CyLib.c **** 
2315:.\Generated_Source\PSoC4/CyLib.c ****     return (ramVectorTable[CY_INT_IRQ_BASE + number]);
2316:.\Generated_Source\PSoC4/CyLib.c **** }
2317:.\Generated_Source\PSoC4/CyLib.c **** 
2318:.\Generated_Source\PSoC4/CyLib.c **** /*******************************************************************************
2319:.\Generated_Source\PSoC4/CyLib.c **** * Function Name: CyIntSetPriority
2320:.\Generated_Source\PSoC4/CyLib.c **** ********************************************************************************
2321:.\Generated_Source\PSoC4/CyLib.c **** *
2322:.\Generated_Source\PSoC4/CyLib.c **** * Summary:
2323:.\Generated_Source\PSoC4/CyLib.c **** *  Sets the priority of the interrupt.
2324:.\Generated_Source\PSoC4/CyLib.c **** *
2325:.\Generated_Source\PSoC4/CyLib.c **** * Parameters:
2326:.\Generated_Source\PSoC4/CyLib.c **** *  priority: Priority of the interrupt. 0 - 3, 0 being the highest.
2327:.\Generated_Source\PSoC4/CyLib.c **** *  number: The number of the interrupt, 0 - 31.
2328:.\Generated_Source\PSoC4/CyLib.c **** *
2329:.\Generated_Source\PSoC4/CyLib.c **** * Return:
2330:.\Generated_Source\PSoC4/CyLib.c **** *  None
2331:.\Generated_Source\PSoC4/CyLib.c **** *
2332:.\Generated_Source\PSoC4/CyLib.c **** *******************************************************************************/
2333:.\Generated_Source\PSoC4/CyLib.c **** void CyIntSetPriority(uint8 number, uint8 priority)
2334:.\Generated_Source\PSoC4/CyLib.c **** {
2335:.\Generated_Source\PSoC4/CyLib.c ****     uint8 interruptState;
2336:.\Generated_Source\PSoC4/CyLib.c ****     uint32 shift;
2337:.\Generated_Source\PSoC4/CyLib.c ****     uint32 value;
2338:.\Generated_Source\PSoC4/CyLib.c **** 
2339:.\Generated_Source\PSoC4/CyLib.c ****     CYASSERT(priority <= CY_MIN_PRIORITY);
2340:.\Generated_Source\PSoC4/CyLib.c ****     CYASSERT(number < CY_NUM_INTERRUPTS);
2341:.\Generated_Source\PSoC4/CyLib.c **** 
2342:.\Generated_Source\PSoC4/CyLib.c ****     shift = CY_INT_PRIORITY_SHIFT(number);
2343:.\Generated_Source\PSoC4/CyLib.c **** 
2344:.\Generated_Source\PSoC4/CyLib.c ****     interruptState = CyEnterCriticalSection();
2345:.\Generated_Source\PSoC4/CyLib.c **** 
2346:.\Generated_Source\PSoC4/CyLib.c ****     value = CY_INT_PRIORITY_REG(number);
2347:.\Generated_Source\PSoC4/CyLib.c ****     value &= (uint32)(~((uint32)(CY_INT_PRIORITY_MASK << shift)));
2348:.\Generated_Source\PSoC4/CyLib.c ****     value |= ((uint32)priority << shift);
2349:.\Generated_Source\PSoC4/CyLib.c ****     CY_INT_PRIORITY_REG(number) = value;
2350:.\Generated_Source\PSoC4/CyLib.c **** 
2351:.\Generated_Source\PSoC4/CyLib.c ****     CyExitCriticalSection(interruptState);
2352:.\Generated_Source\PSoC4/CyLib.c **** }
2353:.\Generated_Source\PSoC4/CyLib.c **** 
2354:.\Generated_Source\PSoC4/CyLib.c **** 
2355:.\Generated_Source\PSoC4/CyLib.c **** /*******************************************************************************
ARM GAS  C:\Users\ddemidov\AppData\Local\Temp\ccvWfYq9.s 			page 50


2356:.\Generated_Source\PSoC4/CyLib.c **** * Function Name: CyIntGetPriority
2357:.\Generated_Source\PSoC4/CyLib.c **** ********************************************************************************
2358:.\Generated_Source\PSoC4/CyLib.c **** *
2359:.\Generated_Source\PSoC4/CyLib.c **** * Summary:
2360:.\Generated_Source\PSoC4/CyLib.c **** *  Gets the priority of the interrupt.
2361:.\Generated_Source\PSoC4/CyLib.c **** *
2362:.\Generated_Source\PSoC4/CyLib.c **** * Parameters:
2363:.\Generated_Source\PSoC4/CyLib.c **** *  number: The number of the interrupt, 0 - 31.
2364:.\Generated_Source\PSoC4/CyLib.c **** *
2365:.\Generated_Source\PSoC4/CyLib.c **** * Return:
2366:.\Generated_Source\PSoC4/CyLib.c **** *  Priority of the interrupt. 0 - 3, 0 being the highest.
2367:.\Generated_Source\PSoC4/CyLib.c **** *
2368:.\Generated_Source\PSoC4/CyLib.c **** *******************************************************************************/
2369:.\Generated_Source\PSoC4/CyLib.c **** uint8 CyIntGetPriority(uint8 number)
2370:.\Generated_Source\PSoC4/CyLib.c **** {
2371:.\Generated_Source\PSoC4/CyLib.c ****     uint8 priority;
2372:.\Generated_Source\PSoC4/CyLib.c **** 
2373:.\Generated_Source\PSoC4/CyLib.c ****     CYASSERT(number < CY_NUM_INTERRUPTS);
2374:.\Generated_Source\PSoC4/CyLib.c **** 
2375:.\Generated_Source\PSoC4/CyLib.c ****     priority = (uint8) (CY_INT_PRIORITY_REG(number) >> CY_INT_PRIORITY_SHIFT(number));
2376:.\Generated_Source\PSoC4/CyLib.c **** 
2377:.\Generated_Source\PSoC4/CyLib.c ****     return (priority & (uint8) CY_INT_PRIORITY_MASK);
2378:.\Generated_Source\PSoC4/CyLib.c **** }
2379:.\Generated_Source\PSoC4/CyLib.c **** 
2380:.\Generated_Source\PSoC4/CyLib.c **** 
2381:.\Generated_Source\PSoC4/CyLib.c **** /*******************************************************************************
2382:.\Generated_Source\PSoC4/CyLib.c **** * Function Name: CyIntEnable
2383:.\Generated_Source\PSoC4/CyLib.c **** ********************************************************************************
2384:.\Generated_Source\PSoC4/CyLib.c **** *
2385:.\Generated_Source\PSoC4/CyLib.c **** * Summary:
2386:.\Generated_Source\PSoC4/CyLib.c **** *  Enables the specified interrupt number.
2387:.\Generated_Source\PSoC4/CyLib.c **** *
2388:.\Generated_Source\PSoC4/CyLib.c **** * Parameters:
2389:.\Generated_Source\PSoC4/CyLib.c **** *  number: Valid range [0-31].  Interrupt number
2390:.\Generated_Source\PSoC4/CyLib.c **** *
2391:.\Generated_Source\PSoC4/CyLib.c **** * Return:
2392:.\Generated_Source\PSoC4/CyLib.c **** *  None
2393:.\Generated_Source\PSoC4/CyLib.c **** *
2394:.\Generated_Source\PSoC4/CyLib.c **** *******************************************************************************/
2395:.\Generated_Source\PSoC4/CyLib.c **** void CyIntEnable(uint8 number)
2396:.\Generated_Source\PSoC4/CyLib.c **** {
2397:.\Generated_Source\PSoC4/CyLib.c ****     CY_INT_ENABLE_REG = ((uint32) 0x01u << (CY_INT_ENABLE_RANGE_MASK & number));
2398:.\Generated_Source\PSoC4/CyLib.c **** }
2399:.\Generated_Source\PSoC4/CyLib.c **** 
2400:.\Generated_Source\PSoC4/CyLib.c **** 
2401:.\Generated_Source\PSoC4/CyLib.c **** /*******************************************************************************
2402:.\Generated_Source\PSoC4/CyLib.c **** * Function Name: CyIntGetState
2403:.\Generated_Source\PSoC4/CyLib.c **** ********************************************************************************
2404:.\Generated_Source\PSoC4/CyLib.c **** *
2405:.\Generated_Source\PSoC4/CyLib.c **** * Summary:
2406:.\Generated_Source\PSoC4/CyLib.c **** *  Gets the enable state of the specified interrupt number.
2407:.\Generated_Source\PSoC4/CyLib.c **** *
2408:.\Generated_Source\PSoC4/CyLib.c **** * Parameters:
2409:.\Generated_Source\PSoC4/CyLib.c **** *  number: Valid range [0-31].  Interrupt number.
2410:.\Generated_Source\PSoC4/CyLib.c **** *
2411:.\Generated_Source\PSoC4/CyLib.c **** * Return:
2412:.\Generated_Source\PSoC4/CyLib.c **** *  Enable status: 1 if enabled, 0 if disabled
ARM GAS  C:\Users\ddemidov\AppData\Local\Temp\ccvWfYq9.s 			page 51


2413:.\Generated_Source\PSoC4/CyLib.c **** *
2414:.\Generated_Source\PSoC4/CyLib.c **** *******************************************************************************/
2415:.\Generated_Source\PSoC4/CyLib.c **** uint8 CyIntGetState(uint8 number)
2416:.\Generated_Source\PSoC4/CyLib.c **** {
2417:.\Generated_Source\PSoC4/CyLib.c ****     /* Get state of interrupt. */
2418:.\Generated_Source\PSoC4/CyLib.c ****     return ((0u != (CY_INT_ENABLE_REG & ((uint32) 0x01u << (CY_INT_ENABLE_RANGE_MASK & number)))) ?
2419:.\Generated_Source\PSoC4/CyLib.c **** }
2420:.\Generated_Source\PSoC4/CyLib.c **** 
2421:.\Generated_Source\PSoC4/CyLib.c **** 
2422:.\Generated_Source\PSoC4/CyLib.c **** /*******************************************************************************
2423:.\Generated_Source\PSoC4/CyLib.c **** * Function Name: CyIntDisable
2424:.\Generated_Source\PSoC4/CyLib.c **** ********************************************************************************
2425:.\Generated_Source\PSoC4/CyLib.c **** *
2426:.\Generated_Source\PSoC4/CyLib.c **** * Summary:
2427:.\Generated_Source\PSoC4/CyLib.c **** *   Disables the specified interrupt number.
2428:.\Generated_Source\PSoC4/CyLib.c **** *
2429:.\Generated_Source\PSoC4/CyLib.c **** * Parameters:
2430:.\Generated_Source\PSoC4/CyLib.c **** *   number: Valid range [0-31].  Interrupt number.
2431:.\Generated_Source\PSoC4/CyLib.c **** *
2432:.\Generated_Source\PSoC4/CyLib.c **** * Return:
2433:.\Generated_Source\PSoC4/CyLib.c **** *  None
2434:.\Generated_Source\PSoC4/CyLib.c **** *
2435:.\Generated_Source\PSoC4/CyLib.c **** *******************************************************************************/
2436:.\Generated_Source\PSoC4/CyLib.c **** void CyIntDisable(uint8 number)
2437:.\Generated_Source\PSoC4/CyLib.c **** {
2438:.\Generated_Source\PSoC4/CyLib.c ****     CY_INT_CLEAR_REG = ((uint32) 0x01u << (CY_INT_ENABLE_RANGE_MASK & number));
2439:.\Generated_Source\PSoC4/CyLib.c **** }
2440:.\Generated_Source\PSoC4/CyLib.c **** 
2441:.\Generated_Source\PSoC4/CyLib.c **** /*******************************************************************************
2442:.\Generated_Source\PSoC4/CyLib.c **** * Function Name: CyIntSetPending
2443:.\Generated_Source\PSoC4/CyLib.c **** ********************************************************************************
2444:.\Generated_Source\PSoC4/CyLib.c **** *
2445:.\Generated_Source\PSoC4/CyLib.c **** * Summary:
2446:.\Generated_Source\PSoC4/CyLib.c **** *  Forces the specified interrupt number to be pending.
2447:.\Generated_Source\PSoC4/CyLib.c **** *
2448:.\Generated_Source\PSoC4/CyLib.c **** * Parameters:
2449:.\Generated_Source\PSoC4/CyLib.c **** *  number: Valid range [0-31].  Interrupt number.
2450:.\Generated_Source\PSoC4/CyLib.c **** *
2451:.\Generated_Source\PSoC4/CyLib.c **** * Return:
2452:.\Generated_Source\PSoC4/CyLib.c **** *  None
2453:.\Generated_Source\PSoC4/CyLib.c **** *
2454:.\Generated_Source\PSoC4/CyLib.c **** *******************************************************************************/
2455:.\Generated_Source\PSoC4/CyLib.c **** void CyIntSetPending(uint8 number)
2456:.\Generated_Source\PSoC4/CyLib.c **** {
2457:.\Generated_Source\PSoC4/CyLib.c ****     CY_INT_SET_PEND_REG = ((uint32) 0x01u << (CY_INT_ENABLE_RANGE_MASK & number));
2458:.\Generated_Source\PSoC4/CyLib.c **** }
2459:.\Generated_Source\PSoC4/CyLib.c **** 
2460:.\Generated_Source\PSoC4/CyLib.c **** 
2461:.\Generated_Source\PSoC4/CyLib.c **** /*******************************************************************************
2462:.\Generated_Source\PSoC4/CyLib.c **** * Function Name: CyIntClearPending
2463:.\Generated_Source\PSoC4/CyLib.c **** ********************************************************************************
2464:.\Generated_Source\PSoC4/CyLib.c **** *
2465:.\Generated_Source\PSoC4/CyLib.c **** * Summary:
2466:.\Generated_Source\PSoC4/CyLib.c **** *  Clears any pending interrupt for the specified interrupt number.
2467:.\Generated_Source\PSoC4/CyLib.c **** *
2468:.\Generated_Source\PSoC4/CyLib.c **** * Parameters:
2469:.\Generated_Source\PSoC4/CyLib.c **** *  number: Valid range [0-31].  Interrupt number.
ARM GAS  C:\Users\ddemidov\AppData\Local\Temp\ccvWfYq9.s 			page 52


2470:.\Generated_Source\PSoC4/CyLib.c **** *
2471:.\Generated_Source\PSoC4/CyLib.c **** * Return:
2472:.\Generated_Source\PSoC4/CyLib.c **** *  None
2473:.\Generated_Source\PSoC4/CyLib.c **** *
2474:.\Generated_Source\PSoC4/CyLib.c **** *******************************************************************************/
2475:.\Generated_Source\PSoC4/CyLib.c **** void CyIntClearPending(uint8 number)
2476:.\Generated_Source\PSoC4/CyLib.c **** {
2477:.\Generated_Source\PSoC4/CyLib.c ****     CY_INT_CLR_PEND_REG = ((uint32) 0x01u << (CY_INT_ENABLE_RANGE_MASK & number));
2478:.\Generated_Source\PSoC4/CyLib.c **** }
2479:.\Generated_Source\PSoC4/CyLib.c **** 
2480:.\Generated_Source\PSoC4/CyLib.c **** 
2481:.\Generated_Source\PSoC4/CyLib.c **** /*******************************************************************************
2482:.\Generated_Source\PSoC4/CyLib.c **** * Function Name: CyHalt
2483:.\Generated_Source\PSoC4/CyLib.c **** ********************************************************************************
2484:.\Generated_Source\PSoC4/CyLib.c **** *
2485:.\Generated_Source\PSoC4/CyLib.c **** * Summary:
2486:.\Generated_Source\PSoC4/CyLib.c **** *  Halts the CPU.
2487:.\Generated_Source\PSoC4/CyLib.c **** *
2488:.\Generated_Source\PSoC4/CyLib.c **** * Parameters:
2489:.\Generated_Source\PSoC4/CyLib.c **** *  reason: Value to be used during debugging.
2490:.\Generated_Source\PSoC4/CyLib.c **** *
2491:.\Generated_Source\PSoC4/CyLib.c **** * Return:
2492:.\Generated_Source\PSoC4/CyLib.c **** *  None
2493:.\Generated_Source\PSoC4/CyLib.c **** *
2494:.\Generated_Source\PSoC4/CyLib.c **** *******************************************************************************/
2495:.\Generated_Source\PSoC4/CyLib.c **** void CyHalt(uint8 reason)
2496:.\Generated_Source\PSoC4/CyLib.c **** {
2497:.\Generated_Source\PSoC4/CyLib.c ****     if(0u != reason)
2498:.\Generated_Source\PSoC4/CyLib.c ****     {
2499:.\Generated_Source\PSoC4/CyLib.c ****         /* To remove unreferenced local variable warning */
2500:.\Generated_Source\PSoC4/CyLib.c ****     }
2501:.\Generated_Source\PSoC4/CyLib.c **** 
2502:.\Generated_Source\PSoC4/CyLib.c ****     #if defined (__ARMCC_VERSION)
2503:.\Generated_Source\PSoC4/CyLib.c ****         __breakpoint(0x0);
2504:.\Generated_Source\PSoC4/CyLib.c ****     #elif defined(__GNUC__) || defined (__ICCARM__)
2505:.\Generated_Source\PSoC4/CyLib.c ****         __asm("    bkpt    1");
 412              		.loc 1 2505 0
 413              	@ 2505 ".\Generated_Source\PSoC4\CyLib.c" 1
 414 002a 01BE     		    bkpt    1
 415              	@ 0 "" 2
 416              	.LVL24:
 417              		.code	16
 418              	.L25:
 419              	.LBE27:
 420              	.LBE26:
1117:.\Generated_Source\PSoC4/CyLib.c **** 
 421              		.loc 1 1117 0
 422              		@ sp needed
 423 002c 38BD     		pop	{r3, r4, r5, pc}
 424              	.L30:
 425 002e C046     		.align	2
 426              	.L29:
 427 0030 00010B40 		.word	1074462976
 428 0034 64F02E40 		.word	1076818020
 429              		.cfi_endproc
 430              	.LFE11:
 431              		.size	CySysClkWriteEcoDiv, .-CySysClkWriteEcoDiv
ARM GAS  C:\Users\ddemidov\AppData\Local\Temp\ccvWfYq9.s 			page 53


 432              		.section	.text.CySysLvdDisable,"ax",%progbits
 433              		.align	1
 434              		.global	CySysLvdDisable
 435              		.code	16
 436              		.thumb_func
 437              		.type	CySysLvdDisable, %function
 438              	CySysLvdDisable:
 439              	.LFB13:
2064:.\Generated_Source\PSoC4/CyLib.c ****         CY_LVD_PWR_INTR_MASK_REG   &= ~CY_LVD_PROPAGATE_INT_TO_CPU;
 440              		.loc 1 2064 0
 441              		.cfi_startproc
2065:.\Generated_Source\PSoC4/CyLib.c ****         CY_LVD_PWR_VMON_CONFIG_REG &= ~CY_LVD_PWR_VMON_CONFIG_LVD_EN;
 442              		.loc 1 2065 0
 443 0000 0221     		mov	r1, #2
 444 0002 054A     		ldr	r2, .L32
2067:.\Generated_Source\PSoC4/CyLib.c **** 
 445              		.loc 1 2067 0
 446              		@ sp needed
2065:.\Generated_Source\PSoC4/CyLib.c ****         CY_LVD_PWR_VMON_CONFIG_REG &= ~CY_LVD_PWR_VMON_CONFIG_LVD_EN;
 447              		.loc 1 2065 0
 448 0004 1368     		ldr	r3, [r2]
 449 0006 8B43     		bic	r3, r1
 450 0008 1360     		str	r3, [r2]
2066:.\Generated_Source\PSoC4/CyLib.c ****     }
 451              		.loc 1 2066 0
 452 000a 044A     		ldr	r2, .L32+4
 453 000c 0139     		sub	r1, r1, #1
 454 000e 1368     		ldr	r3, [r2]
 455 0010 8B43     		bic	r3, r1
 456 0012 1360     		str	r3, [r2]
2067:.\Generated_Source\PSoC4/CyLib.c **** 
 457              		.loc 1 2067 0
 458 0014 7047     		bx	lr
 459              	.L33:
 460 0016 C046     		.align	2
 461              	.L32:
 462 0018 08000B40 		.word	1074462728
 463 001c 18000B40 		.word	1074462744
 464              		.cfi_endproc
 465              	.LFE13:
 466              		.size	CySysLvdDisable, .-CySysLvdDisable
 467              		.section	.text.CySysLvdGetInterruptSource,"ax",%progbits
 468              		.align	1
 469              		.global	CySysLvdGetInterruptSource
 470              		.code	16
 471              		.thumb_func
 472              		.type	CySysLvdGetInterruptSource, %function
 473              	CySysLvdGetInterruptSource:
 474              	.LFB14:
2086:.\Generated_Source\PSoC4/CyLib.c ****         return (CY_LVD_PWR_INTR_REG & CY_SYS_LVD_INT);
 475              		.loc 1 2086 0
 476              		.cfi_startproc
2087:.\Generated_Source\PSoC4/CyLib.c ****     }
 477              		.loc 1 2087 0
 478 0000 024B     		ldr	r3, .L35
2088:.\Generated_Source\PSoC4/CyLib.c **** 
 479              		.loc 1 2088 0
ARM GAS  C:\Users\ddemidov\AppData\Local\Temp\ccvWfYq9.s 			page 54


 480              		@ sp needed
2087:.\Generated_Source\PSoC4/CyLib.c ****     }
 481              		.loc 1 2087 0
 482 0002 1868     		ldr	r0, [r3]
 483 0004 0223     		mov	r3, #2
 484 0006 1840     		and	r0, r3
2088:.\Generated_Source\PSoC4/CyLib.c **** 
 485              		.loc 1 2088 0
 486 0008 7047     		bx	lr
 487              	.L36:
 488 000a C046     		.align	2
 489              	.L35:
 490 000c 04000B40 		.word	1074462724
 491              		.cfi_endproc
 492              	.LFE14:
 493              		.size	CySysLvdGetInterruptSource, .-CySysLvdGetInterruptSource
 494              		.section	.text.CySysLvdClearInterrupt,"ax",%progbits
 495              		.align	1
 496              		.global	CySysLvdClearInterrupt
 497              		.code	16
 498              		.thumb_func
 499              		.type	CySysLvdClearInterrupt, %function
 500              	CySysLvdClearInterrupt:
 501              	.LFB15:
2106:.\Generated_Source\PSoC4/CyLib.c ****         CY_LVD_PWR_INTR_REG = CY_SYS_LVD_INT;
 502              		.loc 1 2106 0
 503              		.cfi_startproc
2107:.\Generated_Source\PSoC4/CyLib.c ****     }
 504              		.loc 1 2107 0
 505 0000 0222     		mov	r2, #2
 506 0002 014B     		ldr	r3, .L38
2108:.\Generated_Source\PSoC4/CyLib.c **** 
 507              		.loc 1 2108 0
 508              		@ sp needed
2107:.\Generated_Source\PSoC4/CyLib.c ****     }
 509              		.loc 1 2107 0
 510 0004 1A60     		str	r2, [r3]
2108:.\Generated_Source\PSoC4/CyLib.c **** 
 511              		.loc 1 2108 0
 512 0006 7047     		bx	lr
 513              	.L39:
 514              		.align	2
 515              	.L38:
 516 0008 04000B40 		.word	1074462724
 517              		.cfi_endproc
 518              	.LFE15:
 519              		.size	CySysLvdClearInterrupt, .-CySysLvdClearInterrupt
 520              		.section	.text.CySysGetResetReason,"ax",%progbits
 521              		.align	1
 522              		.global	CySysGetResetReason
 523              		.code	16
 524              		.thumb_func
 525              		.type	CySysGetResetReason, %function
 526              	CySysGetResetReason:
 527              	.LFB16:
2134:.\Generated_Source\PSoC4/CyLib.c ****     uint32 returnStatus;
 528              		.loc 1 2134 0
ARM GAS  C:\Users\ddemidov\AppData\Local\Temp\ccvWfYq9.s 			page 55


 529              		.cfi_startproc
 530              	.LVL25:
2137:.\Generated_Source\PSoC4/CyLib.c ****     returnStatus = CY_SYS_RES_CAUSE_REG &
 531              		.loc 1 2137 0
 532 0000 1923     		mov	r3, #25
 533 0002 021C     		mov	r2, r0
2138:.\Generated_Source\PSoC4/CyLib.c ****                   (CY_SYS_RESET_WDT | CY_SYS_RESET_PROTFAULT | CY_SYS_RESET_SW);
 534              		.loc 1 2138 0
 535 0004 0249     		ldr	r1, .L41
2137:.\Generated_Source\PSoC4/CyLib.c ****     returnStatus = CY_SYS_RES_CAUSE_REG &
 536              		.loc 1 2137 0
 537 0006 1A40     		and	r2, r3
 538              	.LVL26:
2138:.\Generated_Source\PSoC4/CyLib.c ****                   (CY_SYS_RESET_WDT | CY_SYS_RESET_PROTFAULT | CY_SYS_RESET_SW);
 539              		.loc 1 2138 0
 540 0008 0868     		ldr	r0, [r1]
 541              	.LVL27:
2143:.\Generated_Source\PSoC4/CyLib.c **** 
 542              		.loc 1 2143 0
 543              		@ sp needed
2138:.\Generated_Source\PSoC4/CyLib.c ****                   (CY_SYS_RESET_WDT | CY_SYS_RESET_PROTFAULT | CY_SYS_RESET_SW);
 544              		.loc 1 2138 0
 545 000a 1840     		and	r0, r3
 546              	.LVL28:
2140:.\Generated_Source\PSoC4/CyLib.c **** 
 547              		.loc 1 2140 0
 548 000c 0A60     		str	r2, [r1]
2143:.\Generated_Source\PSoC4/CyLib.c **** 
 549              		.loc 1 2143 0
 550 000e 7047     		bx	lr
 551              	.L42:
 552              		.align	2
 553              	.L41:
 554 0010 00030B40 		.word	1074463488
 555              		.cfi_endproc
 556              	.LFE16:
 557              		.size	CySysGetResetReason, .-CySysGetResetReason
 558              		.section	.text.CyDisableInts,"ax",%progbits
 559              		.align	1
 560              		.global	CyDisableInts
 561              		.code	16
 562              		.thumb_func
 563              		.type	CyDisableInts, %function
 564              	CyDisableInts:
 565              	.LFB17:
2161:.\Generated_Source\PSoC4/CyLib.c ****     uint32 intState;
 566              		.loc 1 2161 0
 567              		.cfi_startproc
2168:.\Generated_Source\PSoC4/CyLib.c **** 
 568              		.loc 1 2168 0
 569 0000 0122     		mov	r2, #1
2165:.\Generated_Source\PSoC4/CyLib.c **** 
 570              		.loc 1 2165 0
 571 0002 024B     		ldr	r3, .L44
2168:.\Generated_Source\PSoC4/CyLib.c **** 
 572              		.loc 1 2168 0
 573 0004 5242     		neg	r2, r2
ARM GAS  C:\Users\ddemidov\AppData\Local\Temp\ccvWfYq9.s 			page 56


2165:.\Generated_Source\PSoC4/CyLib.c **** 
 574              		.loc 1 2165 0
 575 0006 1868     		ldr	r0, [r3]
 576              	.LVL29:
2171:.\Generated_Source\PSoC4/CyLib.c **** 
 577              		.loc 1 2171 0
 578              		@ sp needed
2168:.\Generated_Source\PSoC4/CyLib.c **** 
 579              		.loc 1 2168 0
 580 0008 1A60     		str	r2, [r3]
2171:.\Generated_Source\PSoC4/CyLib.c **** 
 581              		.loc 1 2171 0
 582 000a 7047     		bx	lr
 583              	.L45:
 584              		.align	2
 585              	.L44:
 586 000c 80E100E0 		.word	-536813184
 587              		.cfi_endproc
 588              	.LFE17:
 589              		.size	CyDisableInts, .-CyDisableInts
 590              		.section	.text.CyEnableInts,"ax",%progbits
 591              		.align	1
 592              		.global	CyEnableInts
 593              		.code	16
 594              		.thumb_func
 595              		.type	CyEnableInts, %function
 596              	CyEnableInts:
 597              	.LFB18:
2189:.\Generated_Source\PSoC4/CyLib.c ****     CY_INT_ENABLE_REG = mask;
 598              		.loc 1 2189 0
 599              		.cfi_startproc
 600              	.LVL30:
2190:.\Generated_Source\PSoC4/CyLib.c **** }
 601              		.loc 1 2190 0
 602 0000 014B     		ldr	r3, .L47
2191:.\Generated_Source\PSoC4/CyLib.c **** 
 603              		.loc 1 2191 0
 604              		@ sp needed
2190:.\Generated_Source\PSoC4/CyLib.c **** }
 605              		.loc 1 2190 0
 606 0002 1860     		str	r0, [r3]
2191:.\Generated_Source\PSoC4/CyLib.c **** 
 607              		.loc 1 2191 0
 608 0004 7047     		bx	lr
 609              	.L48:
 610 0006 C046     		.align	2
 611              	.L47:
 612 0008 00E100E0 		.word	-536813312
 613              		.cfi_endproc
 614              	.LFE18:
 615              		.size	CyEnableInts, .-CyEnableInts
 616              		.section	.text.CyIntSetSysVector,"ax",%progbits
 617              		.align	1
 618              		.global	CyIntSetSysVector
 619              		.code	16
 620              		.thumb_func
 621              		.type	CyIntSetSysVector, %function
ARM GAS  C:\Users\ddemidov\AppData\Local\Temp\ccvWfYq9.s 			page 57


 622              	CyIntSetSysVector:
 623              	.LFB19:
2217:.\Generated_Source\PSoC4/CyLib.c ****     cyisraddress oldIsr;
 624              		.loc 1 2217 0
 625              		.cfi_startproc
 626              	.LVL31:
2221:.\Generated_Source\PSoC4/CyLib.c **** 
 627              		.loc 1 2221 0
 628 0000 0F28     		cmp	r0, #15
 629 0002 00D9     		bls	.L50
 630              	.LVL32:
 631              	.LBB30:
 632              	.LBB31:
 633              		.loc 1 2505 0
 634              	@ 2505 ".\Generated_Source\PSoC4\CyLib.c" 1
 635 0004 01BE     		    bkpt    1
 636              	@ 0 "" 2
 637              	.LVL33:
 638              		.code	16
 639              	.L50:
 640              	.LBE31:
 641              	.LBE30:
2224:.\Generated_Source\PSoC4/CyLib.c **** 
 642              		.loc 1 2224 0
 643 0006 8023     		mov	r3, #128
 644 0008 8000     		lsl	r0, r0, #2
 645              	.LVL34:
 646 000a 9B05     		lsl	r3, r3, #22
 647 000c C318     		add	r3, r0, r3
 648 000e 1868     		ldr	r0, [r3]
 649              	.LVL35:
2230:.\Generated_Source\PSoC4/CyLib.c **** 
 650              		.loc 1 2230 0
 651              		@ sp needed
2227:.\Generated_Source\PSoC4/CyLib.c **** 
 652              		.loc 1 2227 0
 653 0010 1960     		str	r1, [r3]
2230:.\Generated_Source\PSoC4/CyLib.c **** 
 654              		.loc 1 2230 0
 655 0012 7047     		bx	lr
 656              		.cfi_endproc
 657              	.LFE19:
 658              		.size	CyIntSetSysVector, .-CyIntSetSysVector
 659              		.section	.text.CyIntGetSysVector,"ax",%progbits
 660              		.align	1
 661              		.global	CyIntGetSysVector
 662              		.code	16
 663              		.thumb_func
 664              		.type	CyIntGetSysVector, %function
 665              	CyIntGetSysVector:
 666              	.LFB20:
2254:.\Generated_Source\PSoC4/CyLib.c ****     cyisraddress *ramVectorTable = (cyisraddress *) CY_INT_VECT_TABLE;
 667              		.loc 1 2254 0
 668              		.cfi_startproc
 669              	.LVL36:
2257:.\Generated_Source\PSoC4/CyLib.c **** 
 670              		.loc 1 2257 0
ARM GAS  C:\Users\ddemidov\AppData\Local\Temp\ccvWfYq9.s 			page 58


 671 0000 0F28     		cmp	r0, #15
 672 0002 00D9     		bls	.L52
 673              	.LVL37:
 674              	.LBB32:
 675              	.LBB33:
 676              		.loc 1 2505 0
 677              	@ 2505 ".\Generated_Source\PSoC4\CyLib.c" 1
 678 0004 01BE     		    bkpt    1
 679              	@ 0 "" 2
 680              	.LVL38:
 681              		.code	16
 682              	.L52:
 683              	.LBE33:
 684              	.LBE32:
2259:.\Generated_Source\PSoC4/CyLib.c **** }
 685              		.loc 1 2259 0
 686 0006 8023     		mov	r3, #128
 687 0008 8000     		lsl	r0, r0, #2
 688              	.LVL39:
 689 000a 9B05     		lsl	r3, r3, #22
 690 000c C018     		add	r0, r0, r3
 691 000e 0068     		ldr	r0, [r0]
2260:.\Generated_Source\PSoC4/CyLib.c **** 
 692              		.loc 1 2260 0
 693              		@ sp needed
 694 0010 7047     		bx	lr
 695              		.cfi_endproc
 696              	.LFE20:
 697              		.size	CyIntGetSysVector, .-CyIntGetSysVector
 698              		.section	.text.CyIntSetVector,"ax",%progbits
 699              		.align	1
 700              		.global	CyIntSetVector
 701              		.code	16
 702              		.thumb_func
 703              		.type	CyIntSetVector, %function
 704              	CyIntSetVector:
 705              	.LFB21:
2279:.\Generated_Source\PSoC4/CyLib.c ****     cyisraddress oldIsr;
 706              		.loc 1 2279 0
 707              		.cfi_startproc
 708              	.LVL40:
2283:.\Generated_Source\PSoC4/CyLib.c **** 
 709              		.loc 1 2283 0
 710 0000 1F28     		cmp	r0, #31
 711 0002 00D9     		bls	.L54
 712              	.LVL41:
 713              	.LBB34:
 714              	.LBB35:
 715              		.loc 1 2505 0
 716              	@ 2505 ".\Generated_Source\PSoC4\CyLib.c" 1
 717 0004 01BE     		    bkpt    1
 718              	@ 0 "" 2
 719              	.LVL42:
 720              		.code	16
 721              	.L54:
 722              	.LBE35:
 723              	.LBE34:
ARM GAS  C:\Users\ddemidov\AppData\Local\Temp\ccvWfYq9.s 			page 59


2286:.\Generated_Source\PSoC4/CyLib.c **** 
 724              		.loc 1 2286 0
 725 0006 034B     		ldr	r3, .L55
 726 0008 8000     		lsl	r0, r0, #2
 727              	.LVL43:
 728 000a C318     		add	r3, r0, r3
 729 000c 1868     		ldr	r0, [r3]
 730              	.LVL44:
2292:.\Generated_Source\PSoC4/CyLib.c **** 
 731              		.loc 1 2292 0
 732              		@ sp needed
2289:.\Generated_Source\PSoC4/CyLib.c **** 
 733              		.loc 1 2289 0
 734 000e 1960     		str	r1, [r3]
2292:.\Generated_Source\PSoC4/CyLib.c **** 
 735              		.loc 1 2292 0
 736 0010 7047     		bx	lr
 737              	.L56:
 738 0012 C046     		.align	2
 739              	.L55:
 740 0014 40000020 		.word	536870976
 741              		.cfi_endproc
 742              	.LFE21:
 743              		.size	CyIntSetVector, .-CyIntSetVector
 744              		.section	.text.CyIntGetVector,"ax",%progbits
 745              		.align	1
 746              		.global	CyIntGetVector
 747              		.code	16
 748              		.thumb_func
 749              		.type	CyIntGetVector, %function
 750              	CyIntGetVector:
 751              	.LFB22:
2310:.\Generated_Source\PSoC4/CyLib.c ****     cyisraddress *ramVectorTable = (cyisraddress *) CY_INT_VECT_TABLE;
 752              		.loc 1 2310 0
 753              		.cfi_startproc
 754              	.LVL45:
2313:.\Generated_Source\PSoC4/CyLib.c **** 
 755              		.loc 1 2313 0
 756 0000 1F28     		cmp	r0, #31
 757 0002 00D9     		bls	.L58
 758              	.LVL46:
 759              	.LBB36:
 760              	.LBB37:
 761              		.loc 1 2505 0
 762              	@ 2505 ".\Generated_Source\PSoC4\CyLib.c" 1
 763 0004 01BE     		    bkpt    1
 764              	@ 0 "" 2
 765              	.LVL47:
 766              		.code	16
 767              	.L58:
 768              	.LBE37:
 769              	.LBE36:
2315:.\Generated_Source\PSoC4/CyLib.c **** }
 770              		.loc 1 2315 0
 771 0006 024B     		ldr	r3, .L59
 772 0008 8000     		lsl	r0, r0, #2
 773              	.LVL48:
ARM GAS  C:\Users\ddemidov\AppData\Local\Temp\ccvWfYq9.s 			page 60


 774 000a C018     		add	r0, r0, r3
 775 000c 0068     		ldr	r0, [r0]
2316:.\Generated_Source\PSoC4/CyLib.c **** 
 776              		.loc 1 2316 0
 777              		@ sp needed
 778 000e 7047     		bx	lr
 779              	.L60:
 780              		.align	2
 781              	.L59:
 782 0010 40000020 		.word	536870976
 783              		.cfi_endproc
 784              	.LFE22:
 785              		.size	CyIntGetVector, .-CyIntGetVector
 786              		.section	.text.CyIntSetPriority,"ax",%progbits
 787              		.align	1
 788              		.global	CyIntSetPriority
 789              		.code	16
 790              		.thumb_func
 791              		.type	CyIntSetPriority, %function
 792              	CyIntSetPriority:
 793              	.LFB23:
2334:.\Generated_Source\PSoC4/CyLib.c ****     uint8 interruptState;
 794              		.loc 1 2334 0
 795              		.cfi_startproc
 796              	.LVL49:
 797 0000 38B5     		push	{r3, r4, r5, lr}
 798              		.cfi_def_cfa_offset 16
 799              		.cfi_offset 3, -16
 800              		.cfi_offset 4, -12
 801              		.cfi_offset 5, -8
 802              		.cfi_offset 14, -4
2334:.\Generated_Source\PSoC4/CyLib.c ****     uint8 interruptState;
 803              		.loc 1 2334 0
 804 0002 041C     		mov	r4, r0
 805 0004 0D1E     		sub	r5, r1, #0
2339:.\Generated_Source\PSoC4/CyLib.c ****     CYASSERT(number < CY_NUM_INTERRUPTS);
 806              		.loc 1 2339 0
 807 0006 032D     		cmp	r5, #3
 808 0008 00D9     		bls	.L62
 809              	.LVL50:
 810              	.LBB38:
 811              	.LBB39:
 812              		.loc 1 2505 0
 813              	@ 2505 ".\Generated_Source\PSoC4\CyLib.c" 1
 814 000a 01BE     		    bkpt    1
 815              	@ 0 "" 2
 816              	.LVL51:
 817              		.code	16
 818              	.L62:
 819              	.LBE39:
 820              	.LBE38:
2340:.\Generated_Source\PSoC4/CyLib.c **** 
 821              		.loc 1 2340 0
 822 000c 1F2C     		cmp	r4, #31
 823 000e 00D9     		bls	.L63
 824              	.LVL52:
 825              	.LBB40:
ARM GAS  C:\Users\ddemidov\AppData\Local\Temp\ccvWfYq9.s 			page 61


 826              	.LBB41:
 827              		.loc 1 2505 0
 828              	@ 2505 ".\Generated_Source\PSoC4\CyLib.c" 1
 829 0010 01BE     		    bkpt    1
 830              	@ 0 "" 2
 831              	.LVL53:
 832              		.code	16
 833              	.L63:
 834              	.LBE41:
 835              	.LBE40:
2344:.\Generated_Source\PSoC4/CyLib.c **** 
 836              		.loc 1 2344 0
 837 0012 FFF7FEFF 		bl	CyEnterCriticalSection
 838              	.LVL54:
2346:.\Generated_Source\PSoC4/CyLib.c ****     value &= (uint32)(~((uint32)(CY_INT_PRIORITY_MASK << shift)));
 839              		.loc 1 2346 0
 840 0016 A308     		lsr	r3, r4, #2
 841 0018 074A     		ldr	r2, .L64
 842 001a 9B00     		lsl	r3, r3, #2
 843 001c 9B18     		add	r3, r3, r2
2342:.\Generated_Source\PSoC4/CyLib.c **** 
 844              		.loc 1 2342 0
 845 001e 0322     		mov	r2, #3
 846 0020 1440     		and	r4, r2
 847              	.LVL55:
 848 0022 9440     		lsl	r4, r4, r2
 849 0024 0634     		add	r4, r4, #6
2347:.\Generated_Source\PSoC4/CyLib.c ****     value |= ((uint32)priority << shift);
 850              		.loc 1 2347 0
 851 0026 A240     		lsl	r2, r2, r4
2348:.\Generated_Source\PSoC4/CyLib.c ****     CY_INT_PRIORITY_REG(number) = value;
 852              		.loc 1 2348 0
 853 0028 A540     		lsl	r5, r5, r4
2346:.\Generated_Source\PSoC4/CyLib.c ****     value &= (uint32)(~((uint32)(CY_INT_PRIORITY_MASK << shift)));
 854              		.loc 1 2346 0
 855 002a 1968     		ldr	r1, [r3]
 856              	.LVL56:
2352:.\Generated_Source\PSoC4/CyLib.c **** 
 857              		.loc 1 2352 0
 858              		@ sp needed
2347:.\Generated_Source\PSoC4/CyLib.c ****     value |= ((uint32)priority << shift);
 859              		.loc 1 2347 0
 860 002c 9143     		bic	r1, r2
 861              	.LVL57:
2348:.\Generated_Source\PSoC4/CyLib.c ****     CY_INT_PRIORITY_REG(number) = value;
 862              		.loc 1 2348 0
 863 002e 2943     		orr	r1, r5
 864              	.LVL58:
2349:.\Generated_Source\PSoC4/CyLib.c **** 
 865              		.loc 1 2349 0
 866 0030 1960     		str	r1, [r3]
2351:.\Generated_Source\PSoC4/CyLib.c **** }
 867              		.loc 1 2351 0
 868 0032 FFF7FEFF 		bl	CyExitCriticalSection
 869              	.LVL59:
2352:.\Generated_Source\PSoC4/CyLib.c **** 
 870              		.loc 1 2352 0
ARM GAS  C:\Users\ddemidov\AppData\Local\Temp\ccvWfYq9.s 			page 62


 871 0036 38BD     		pop	{r3, r4, r5, pc}
 872              	.L65:
 873              		.align	2
 874              	.L64:
 875 0038 00E400E0 		.word	-536812544
 876              		.cfi_endproc
 877              	.LFE23:
 878              		.size	CyIntSetPriority, .-CyIntSetPriority
 879              		.section	.text.CyIntGetPriority,"ax",%progbits
 880              		.align	1
 881              		.global	CyIntGetPriority
 882              		.code	16
 883              		.thumb_func
 884              		.type	CyIntGetPriority, %function
 885              	CyIntGetPriority:
 886              	.LFB24:
2370:.\Generated_Source\PSoC4/CyLib.c ****     uint8 priority;
 887              		.loc 1 2370 0
 888              		.cfi_startproc
 889              	.LVL60:
2373:.\Generated_Source\PSoC4/CyLib.c **** 
 890              		.loc 1 2373 0
 891 0000 1F28     		cmp	r0, #31
 892 0002 00D9     		bls	.L67
 893              	.LVL61:
 894              	.LBB42:
 895              	.LBB43:
 896              		.loc 1 2505 0
 897              	@ 2505 ".\Generated_Source\PSoC4\CyLib.c" 1
 898 0004 01BE     		    bkpt    1
 899              	@ 0 "" 2
 900              	.LVL62:
 901              		.code	16
 902              	.L67:
 903              	.LBE43:
 904              	.LBE42:
2375:.\Generated_Source\PSoC4/CyLib.c **** 
 905              		.loc 1 2375 0
 906 0006 8308     		lsr	r3, r0, #2
 907 0008 064A     		ldr	r2, .L68
 908 000a 9B00     		lsl	r3, r3, #2
 909 000c 9B18     		add	r3, r3, r2
 910 000e 1968     		ldr	r1, [r3]
 911              	.LVL63:
 912 0010 0322     		mov	r2, #3
 913 0012 031C     		mov	r3, r0
 914 0014 1340     		and	r3, r2
 915 0016 9340     		lsl	r3, r3, r2
 916 0018 0633     		add	r3, r3, #6
 917 001a D940     		lsr	r1, r1, r3
 918              	.LVL64:
 919 001c 081C     		mov	r0, r1
 920              	.LVL65:
2378:.\Generated_Source\PSoC4/CyLib.c **** 
 921              		.loc 1 2378 0
 922              		@ sp needed
2377:.\Generated_Source\PSoC4/CyLib.c **** }
ARM GAS  C:\Users\ddemidov\AppData\Local\Temp\ccvWfYq9.s 			page 63


 923              		.loc 1 2377 0
 924 001e 1040     		and	r0, r2
2378:.\Generated_Source\PSoC4/CyLib.c **** 
 925              		.loc 1 2378 0
 926 0020 7047     		bx	lr
 927              	.L69:
 928 0022 C046     		.align	2
 929              	.L68:
 930 0024 00E400E0 		.word	-536812544
 931              		.cfi_endproc
 932              	.LFE24:
 933              		.size	CyIntGetPriority, .-CyIntGetPriority
 934              		.section	.text.CyIntEnable,"ax",%progbits
 935              		.align	1
 936              		.global	CyIntEnable
 937              		.code	16
 938              		.thumb_func
 939              		.type	CyIntEnable, %function
 940              	CyIntEnable:
 941              	.LFB25:
2396:.\Generated_Source\PSoC4/CyLib.c ****     CY_INT_ENABLE_REG = ((uint32) 0x01u << (CY_INT_ENABLE_RANGE_MASK & number));
 942              		.loc 1 2396 0
 943              		.cfi_startproc
 944              	.LVL66:
2397:.\Generated_Source\PSoC4/CyLib.c **** }
 945              		.loc 1 2397 0
 946 0000 1F23     		mov	r3, #31
 947 0002 1840     		and	r0, r3
 948              	.LVL67:
 949 0004 1E3B     		sub	r3, r3, #30
 950 0006 8340     		lsl	r3, r3, r0
 951 0008 181C     		mov	r0, r3
 952 000a 014B     		ldr	r3, .L71
2398:.\Generated_Source\PSoC4/CyLib.c **** 
 953              		.loc 1 2398 0
 954              		@ sp needed
2397:.\Generated_Source\PSoC4/CyLib.c **** }
 955              		.loc 1 2397 0
 956 000c 1860     		str	r0, [r3]
2398:.\Generated_Source\PSoC4/CyLib.c **** 
 957              		.loc 1 2398 0
 958 000e 7047     		bx	lr
 959              	.L72:
 960              		.align	2
 961              	.L71:
 962 0010 00E100E0 		.word	-536813312
 963              		.cfi_endproc
 964              	.LFE25:
 965              		.size	CyIntEnable, .-CyIntEnable
 966              		.section	.text.CyIntGetState,"ax",%progbits
 967              		.align	1
 968              		.global	CyIntGetState
 969              		.code	16
 970              		.thumb_func
 971              		.type	CyIntGetState, %function
 972              	CyIntGetState:
 973              	.LFB26:
ARM GAS  C:\Users\ddemidov\AppData\Local\Temp\ccvWfYq9.s 			page 64


2416:.\Generated_Source\PSoC4/CyLib.c ****     /* Get state of interrupt. */
 974              		.loc 1 2416 0
 975              		.cfi_startproc
 976              	.LVL68:
2418:.\Generated_Source\PSoC4/CyLib.c **** }
 977              		.loc 1 2418 0
 978 0000 1F22     		mov	r2, #31
 979 0002 044B     		ldr	r3, .L74
 980 0004 1040     		and	r0, r2
 981              	.LVL69:
 982 0006 1B68     		ldr	r3, [r3]
2419:.\Generated_Source\PSoC4/CyLib.c **** 
 983              		.loc 1 2419 0
 984              		@ sp needed
2418:.\Generated_Source\PSoC4/CyLib.c **** }
 985              		.loc 1 2418 0
 986 0008 C340     		lsr	r3, r3, r0
 987 000a 181C     		mov	r0, r3
 988 000c 0123     		mov	r3, #1
 989 000e 1840     		and	r0, r3
2419:.\Generated_Source\PSoC4/CyLib.c **** 
 990              		.loc 1 2419 0
 991 0010 7047     		bx	lr
 992              	.L75:
 993 0012 C046     		.align	2
 994              	.L74:
 995 0014 00E100E0 		.word	-536813312
 996              		.cfi_endproc
 997              	.LFE26:
 998              		.size	CyIntGetState, .-CyIntGetState
 999              		.section	.text.CyIntDisable,"ax",%progbits
 1000              		.align	1
 1001              		.global	CyIntDisable
 1002              		.code	16
 1003              		.thumb_func
 1004              		.type	CyIntDisable, %function
 1005              	CyIntDisable:
 1006              	.LFB27:
2437:.\Generated_Source\PSoC4/CyLib.c ****     CY_INT_CLEAR_REG = ((uint32) 0x01u << (CY_INT_ENABLE_RANGE_MASK & number));
 1007              		.loc 1 2437 0
 1008              		.cfi_startproc
 1009              	.LVL70:
2438:.\Generated_Source\PSoC4/CyLib.c **** }
 1010              		.loc 1 2438 0
 1011 0000 1F23     		mov	r3, #31
 1012 0002 1840     		and	r0, r3
 1013              	.LVL71:
 1014 0004 1E3B     		sub	r3, r3, #30
 1015 0006 8340     		lsl	r3, r3, r0
 1016 0008 181C     		mov	r0, r3
 1017 000a 014B     		ldr	r3, .L77
2439:.\Generated_Source\PSoC4/CyLib.c **** 
 1018              		.loc 1 2439 0
 1019              		@ sp needed
2438:.\Generated_Source\PSoC4/CyLib.c **** }
 1020              		.loc 1 2438 0
 1021 000c 1860     		str	r0, [r3]
ARM GAS  C:\Users\ddemidov\AppData\Local\Temp\ccvWfYq9.s 			page 65


2439:.\Generated_Source\PSoC4/CyLib.c **** 
 1022              		.loc 1 2439 0
 1023 000e 7047     		bx	lr
 1024              	.L78:
 1025              		.align	2
 1026              	.L77:
 1027 0010 80E100E0 		.word	-536813184
 1028              		.cfi_endproc
 1029              	.LFE27:
 1030              		.size	CyIntDisable, .-CyIntDisable
 1031              		.section	.text.CyIntSetPending,"ax",%progbits
 1032              		.align	1
 1033              		.global	CyIntSetPending
 1034              		.code	16
 1035              		.thumb_func
 1036              		.type	CyIntSetPending, %function
 1037              	CyIntSetPending:
 1038              	.LFB28:
2456:.\Generated_Source\PSoC4/CyLib.c ****     CY_INT_SET_PEND_REG = ((uint32) 0x01u << (CY_INT_ENABLE_RANGE_MASK & number));
 1039              		.loc 1 2456 0
 1040              		.cfi_startproc
 1041              	.LVL72:
2457:.\Generated_Source\PSoC4/CyLib.c **** }
 1042              		.loc 1 2457 0
 1043 0000 1F23     		mov	r3, #31
 1044 0002 1840     		and	r0, r3
 1045              	.LVL73:
 1046 0004 1E3B     		sub	r3, r3, #30
 1047 0006 8340     		lsl	r3, r3, r0
 1048 0008 181C     		mov	r0, r3
 1049 000a 014B     		ldr	r3, .L80
2458:.\Generated_Source\PSoC4/CyLib.c **** 
 1050              		.loc 1 2458 0
 1051              		@ sp needed
2457:.\Generated_Source\PSoC4/CyLib.c **** }
 1052              		.loc 1 2457 0
 1053 000c 1860     		str	r0, [r3]
2458:.\Generated_Source\PSoC4/CyLib.c **** 
 1054              		.loc 1 2458 0
 1055 000e 7047     		bx	lr
 1056              	.L81:
 1057              		.align	2
 1058              	.L80:
 1059 0010 00E200E0 		.word	-536813056
 1060              		.cfi_endproc
 1061              	.LFE28:
 1062              		.size	CyIntSetPending, .-CyIntSetPending
 1063              		.section	.text.CyIntClearPending,"ax",%progbits
 1064              		.align	1
 1065              		.global	CyIntClearPending
 1066              		.code	16
 1067              		.thumb_func
 1068              		.type	CyIntClearPending, %function
 1069              	CyIntClearPending:
 1070              	.LFB29:
2476:.\Generated_Source\PSoC4/CyLib.c ****     CY_INT_CLR_PEND_REG = ((uint32) 0x01u << (CY_INT_ENABLE_RANGE_MASK & number));
 1071              		.loc 1 2476 0
ARM GAS  C:\Users\ddemidov\AppData\Local\Temp\ccvWfYq9.s 			page 66


 1072              		.cfi_startproc
 1073              	.LVL74:
2477:.\Generated_Source\PSoC4/CyLib.c **** }
 1074              		.loc 1 2477 0
 1075 0000 1F23     		mov	r3, #31
 1076 0002 1840     		and	r0, r3
 1077              	.LVL75:
 1078 0004 1E3B     		sub	r3, r3, #30
 1079 0006 8340     		lsl	r3, r3, r0
 1080 0008 181C     		mov	r0, r3
 1081 000a 014B     		ldr	r3, .L83
2478:.\Generated_Source\PSoC4/CyLib.c **** 
 1082              		.loc 1 2478 0
 1083              		@ sp needed
2477:.\Generated_Source\PSoC4/CyLib.c **** }
 1084              		.loc 1 2477 0
