ARM GAS  C:\Users\ddemidov\AppData\Local\Temp\ccCaUaIz.s 			page 1


   1              		.cpu cortex-m0
   2              		.fpu softvfp
   3              		.eabi_attribute 20, 1
   4              		.eabi_attribute 21, 1
   5              		.eabi_attribute 23, 3
   6              		.eabi_attribute 24, 1
   7              		.eabi_attribute 25, 1
   8              		.eabi_attribute 26, 1
   9              		.eabi_attribute 30, 4
  10              		.eabi_attribute 34, 0
  11              		.eabi_attribute 18, 4
  12              		.code	16
  13              		.file	"device.c"
  14              		.text
  15              	.Ltext0:
  16              		.cfi_sections	.debug_frame
  17              		.section	.text.arrow_device_init,"ax",%progbits
  18              		.align	1
  19              		.global	arrow_device_init
  20              		.code	16
  21              		.thumb_func
  22              		.type	arrow_device_init, %function
  23              	arrow_device_init:
  24              	.LFB0:
  25              		.file 1 "..\\acn-sdk-c\\src\\arrow\\device.c"
   1:..\acn-sdk-c\src\arrow/device.c **** /* Copyright (c) 2017 Arrow Electronics, Inc.
   2:..\acn-sdk-c\src\arrow/device.c ****  * All rights reserved. This program and the accompanying materials
   3:..\acn-sdk-c\src\arrow/device.c ****  * are made available under the terms of the Apache License 2.0
   4:..\acn-sdk-c\src\arrow/device.c ****  * which accompanies this distribution, and is available at
   5:..\acn-sdk-c\src\arrow/device.c ****  * http://apache.org/licenses/LICENSE-2.0
   6:..\acn-sdk-c\src\arrow/device.c ****  * Contributors: Arrow Electronics, Inc.
   7:..\acn-sdk-c\src\arrow/device.c ****  */
   8:..\acn-sdk-c\src\arrow/device.c **** 
   9:..\acn-sdk-c\src\arrow/device.c **** #include "arrow/device.h"
  10:..\acn-sdk-c\src\arrow/device.c **** #include <arrow/mem.h>
  11:..\acn-sdk-c\src\arrow/device.c **** #include <config.h>
  12:..\acn-sdk-c\src\arrow/device.c **** #if defined(__USE_STD__)
  13:..\acn-sdk-c\src\arrow/device.c **** # include <stdlib.h>
  14:..\acn-sdk-c\src\arrow/device.c **** #endif
  15:..\acn-sdk-c\src\arrow/device.c **** 
  16:..\acn-sdk-c\src\arrow/device.c **** void arrow_device_init(arrow_device_t *dev) {
  26              		.loc 1 16 0
  27              		.cfi_startproc
  28              	.LVL0:
  29 0000 10B5     		push	{r4, lr}
  30              		.cfi_def_cfa_offset 8
  31              		.cfi_offset 4, -8
  32              		.cfi_offset 14, -4
  33              		.loc 1 16 0
  34 0002 041C     		mov	r4, r0
  17:..\acn-sdk-c\src\arrow/device.c ****     dev->main = json_mkobject();
  35              		.loc 1 17 0
  36 0004 FFF7FEFF 		bl	json_mkobject
  37              	.LVL1:
  38 0008 2060     		str	r0, [r4]
  18:..\acn-sdk-c\src\arrow/device.c ****     dev->info = json_mkobject();
  39              		.loc 1 18 0
ARM GAS  C:\Users\ddemidov\AppData\Local\Temp\ccCaUaIz.s 			page 2


  40 000a FFF7FEFF 		bl	json_mkobject
  41              	.LVL2:
  19:..\acn-sdk-c\src\arrow/device.c ****     json_append_member(dev->main, "info", dev->info);
  42              		.loc 1 19 0
  43 000e 0949     		ldr	r1, .L2
  18:..\acn-sdk-c\src\arrow/device.c ****     dev->info = json_mkobject();
  44              		.loc 1 18 0
  45 0010 021C     		mov	r2, r0
  46 0012 6060     		str	r0, [r4, #4]
  47              		.loc 1 19 0
  48 0014 2068     		ldr	r0, [r4]
  49 0016 FFF7FEFF 		bl	json_append_member
  50              	.LVL3:
  20:..\acn-sdk-c\src\arrow/device.c ****     dev->prop = json_mkobject();
  51              		.loc 1 20 0
  52 001a FFF7FEFF 		bl	json_mkobject
  53              	.LVL4:
  21:..\acn-sdk-c\src\arrow/device.c ****     json_append_member(dev->main, "properties", dev->prop);
  54              		.loc 1 21 0
  55 001e 0649     		ldr	r1, .L2+4
  20:..\acn-sdk-c\src\arrow/device.c ****     dev->prop = json_mkobject();
  56              		.loc 1 20 0
  57 0020 021C     		mov	r2, r0
  58 0022 A060     		str	r0, [r4, #8]
  59              		.loc 1 21 0
  60 0024 2068     		ldr	r0, [r4]
  61 0026 FFF7FEFF 		bl	json_append_member
  62              	.LVL5:
  22:..\acn-sdk-c\src\arrow/device.c ****     dev->hid = NULL;
  63              		.loc 1 22 0
  64 002a 0023     		mov	r3, #0
  23:..\acn-sdk-c\src\arrow/device.c ****     dev->eid = NULL;
  24:..\acn-sdk-c\src\arrow/device.c **** }
  65              		.loc 1 24 0
  66              		@ sp needed
  22:..\acn-sdk-c\src\arrow/device.c ****     dev->hid = NULL;
  67              		.loc 1 22 0
  68 002c E360     		str	r3, [r4, #12]
  23:..\acn-sdk-c\src\arrow/device.c ****     dev->eid = NULL;
  69              		.loc 1 23 0
  70 002e 2361     		str	r3, [r4, #16]
  71              	.LVL6:
  72              		.loc 1 24 0
  73 0030 10BD     		pop	{r4, pc}
  74              	.L3:
  75 0032 C046     		.align	2
  76              	.L2:
  77 0034 00000000 		.word	.LC0
  78 0038 05000000 		.word	.LC2
  79              		.cfi_endproc
  80              	.LFE0:
  81              		.size	arrow_device_init, .-arrow_device_init
  82              		.section	.text.arrow_device_free,"ax",%progbits
  83              		.align	1
  84              		.global	arrow_device_free
  85              		.code	16
  86              		.thumb_func
ARM GAS  C:\Users\ddemidov\AppData\Local\Temp\ccCaUaIz.s 			page 3


  87              		.type	arrow_device_free, %function
  88              	arrow_device_free:
  89              	.LFB1:
  25:..\acn-sdk-c\src\arrow/device.c **** 
  26:..\acn-sdk-c\src\arrow/device.c **** void arrow_device_free(arrow_device_t *dev) {
  90              		.loc 1 26 0
  91              		.cfi_startproc
  92              	.LVL7:
  93 0000 08B5     		push	{r3, lr}
  94              		.cfi_def_cfa_offset 8
  95              		.cfi_offset 3, -8
  96              		.cfi_offset 14, -4
  27:..\acn-sdk-c\src\arrow/device.c ****     json_delete(dev->main);
  97              		.loc 1 27 0
  98 0002 0068     		ldr	r0, [r0]
  99              	.LVL8:
 100 0004 FFF7FEFF 		bl	json_delete
 101              	.LVL9:
  28:..\acn-sdk-c\src\arrow/device.c **** }
 102              		.loc 1 28 0
 103              		@ sp needed
 104 0008 08BD     		pop	{r3, pc}
 105              		.cfi_endproc
 106              	.LFE1:
 107              		.size	arrow_device_free, .-arrow_device_free
 108              		.section	.text.arrow_device_add_name,"ax",%progbits
 109              		.align	1
 110              		.global	arrow_device_add_name
 111              		.code	16
 112              		.thumb_func
 113              		.type	arrow_device_add_name, %function
 114              	arrow_device_add_name:
 115              	.LFB2:
  29:..\acn-sdk-c\src\arrow/device.c **** 
  30:..\acn-sdk-c\src\arrow/device.c **** #define DEVICE_ADD_PROPERTY(key, name) \
  31:..\acn-sdk-c\src\arrow/device.c ****     void arrow_device_add_##name(arrow_device_t *dev, const char *name) { \
  32:..\acn-sdk-c\src\arrow/device.c **** 	    json_append_member(dev->main, key, json_mkstring(name)); \
  33:..\acn-sdk-c\src\arrow/device.c ****   } \
  34:..\acn-sdk-c\src\arrow/device.c ****   char *arrow_device_get_##name(arrow_device_t *dev) { \
  35:..\acn-sdk-c\src\arrow/device.c ****     JsonNode *_node = json_find_member(dev->main, key); \
  36:..\acn-sdk-c\src\arrow/device.c ****     if ( _node ) { \
  37:..\acn-sdk-c\src\arrow/device.c ****       return _node->string_; \
  38:..\acn-sdk-c\src\arrow/device.c ****     } \
  39:..\acn-sdk-c\src\arrow/device.c ****     return NULL; \
  40:..\acn-sdk-c\src\arrow/device.c ****   }
  41:..\acn-sdk-c\src\arrow/device.c **** 
  42:..\acn-sdk-c\src\arrow/device.c **** #define DEVICE_EXT_PROPERTY(name) \
  43:..\acn-sdk-c\src\arrow/device.c ****   void arrow_device_set_##name(arrow_device_t *dev, const char *name) { \
  44:..\acn-sdk-c\src\arrow/device.c ****       if ( dev->name ) \
  45:..\acn-sdk-c\src\arrow/device.c ****           dev->name = (char*)realloc(dev->name, strlen(name)+1); \
  46:..\acn-sdk-c\src\arrow/device.c ****         else \
  47:..\acn-sdk-c\src\arrow/device.c ****           dev->name = (char*)malloc(strlen(name)+1); \
  48:..\acn-sdk-c\src\arrow/device.c ****         strcpy(dev->name, name); \
  49:..\acn-sdk-c\src\arrow/device.c ****   }
  50:..\acn-sdk-c\src\arrow/device.c **** 
  51:..\acn-sdk-c\src\arrow/device.c **** 
  52:..\acn-sdk-c\src\arrow/device.c **** DEVICE_ADD_PROPERTY("name", name);
ARM GAS  C:\Users\ddemidov\AppData\Local\Temp\ccCaUaIz.s 			page 4


 116              		.loc 1 52 0
 117              		.cfi_startproc
 118              	.LVL10:
 119 0000 10B5     		push	{r4, lr}
 120              		.cfi_def_cfa_offset 8
 121              		.cfi_offset 4, -8
 122              		.cfi_offset 14, -4
 123              		.loc 1 52 0
 124 0002 0468     		ldr	r4, [r0]
 125 0004 081C     		mov	r0, r1
 126              	.LVL11:
 127 0006 FFF7FEFF 		bl	json_mkstring
 128              	.LVL12:
 129 000a 0349     		ldr	r1, .L6
 130 000c 021C     		mov	r2, r0
 131 000e 201C     		mov	r0, r4
 132 0010 FFF7FEFF 		bl	json_append_member
 133              	.LVL13:
 134              		@ sp needed
 135 0014 10BD     		pop	{r4, pc}
 136              	.L7:
 137 0016 C046     		.align	2
 138              	.L6:
 139 0018 10000000 		.word	.LC4
 140              		.cfi_endproc
 141              	.LFE2:
 142              		.size	arrow_device_add_name, .-arrow_device_add_name
 143              		.section	.text.arrow_device_get_name,"ax",%progbits
 144              		.align	1
 145              		.global	arrow_device_get_name
 146              		.code	16
 147              		.thumb_func
 148              		.type	arrow_device_get_name, %function
 149              	arrow_device_get_name:
 150              	.LFB3:
 151              		.loc 1 52 0
 152              		.cfi_startproc
 153              	.LVL14:
 154 0000 08B5     		push	{r3, lr}
 155              		.cfi_def_cfa_offset 8
 156              		.cfi_offset 3, -8
 157              		.cfi_offset 14, -4
 158              		.loc 1 52 0
 159 0002 0068     		ldr	r0, [r0]
 160              	.LVL15:
 161 0004 0349     		ldr	r1, .L12
 162 0006 FFF7FEFF 		bl	json_find_member
 163              	.LVL16:
 164 000a 031E     		sub	r3, r0, #0
 165              	.LVL17:
 166 000c 00D0     		beq	.L9
 167              		.loc 1 52 0 is_stmt 0 discriminator 1
 168 000e 9869     		ldr	r0, [r3, #24]
 169              	.LVL18:
 170              	.L9:
 171              		.loc 1 52 0
 172              		@ sp needed
ARM GAS  C:\Users\ddemidov\AppData\Local\Temp\ccCaUaIz.s 			page 5


 173 0010 08BD     		pop	{r3, pc}
 174              	.L13:
 175 0012 C046     		.align	2
 176              	.L12:
 177 0014 10000000 		.word	.LC4
 178              		.cfi_endproc
 179              	.LFE3:
 180              		.size	arrow_device_get_name, .-arrow_device_get_name
 181              		.section	.text.arrow_device_add_gateway_hid,"ax",%progbits
 182              		.align	1
 183              		.global	arrow_device_add_gateway_hid
 184              		.code	16
 185              		.thumb_func
 186              		.type	arrow_device_add_gateway_hid, %function
 187              	arrow_device_add_gateway_hid:
 188              	.LFB4:
  53:..\acn-sdk-c\src\arrow/device.c **** DEVICE_ADD_PROPERTY("gatewayHid", gateway_hid);
 189              		.loc 1 53 0 is_stmt 1
 190              		.cfi_startproc
 191              	.LVL19:
 192 0000 10B5     		push	{r4, lr}
 193              		.cfi_def_cfa_offset 8
 194              		.cfi_offset 4, -8
 195              		.cfi_offset 14, -4
 196              		.loc 1 53 0
 197 0002 0468     		ldr	r4, [r0]
 198 0004 081C     		mov	r0, r1
 199              	.LVL20:
 200 0006 FFF7FEFF 		bl	json_mkstring
 201              	.LVL21:
 202 000a 0349     		ldr	r1, .L15
 203 000c 021C     		mov	r2, r0
 204 000e 201C     		mov	r0, r4
 205 0010 FFF7FEFF 		bl	json_append_member
 206              	.LVL22:
 207              		@ sp needed
 208 0014 10BD     		pop	{r4, pc}
 209              	.L16:
 210 0016 C046     		.align	2
 211              	.L15:
 212 0018 15000000 		.word	.LC7
 213              		.cfi_endproc
 214              	.LFE4:
 215              		.size	arrow_device_add_gateway_hid, .-arrow_device_add_gateway_hid
 216              		.section	.text.arrow_device_get_gateway_hid,"ax",%progbits
 217              		.align	1
 218              		.global	arrow_device_get_gateway_hid
 219              		.code	16
 220              		.thumb_func
 221              		.type	arrow_device_get_gateway_hid, %function
 222              	arrow_device_get_gateway_hid:
 223              	.LFB5:
 224              		.loc 1 53 0
 225              		.cfi_startproc
 226              	.LVL23:
 227 0000 08B5     		push	{r3, lr}
 228              		.cfi_def_cfa_offset 8
ARM GAS  C:\Users\ddemidov\AppData\Local\Temp\ccCaUaIz.s 			page 6


 229              		.cfi_offset 3, -8
 230              		.cfi_offset 14, -4
 231              		.loc 1 53 0
 232 0002 0068     		ldr	r0, [r0]
 233              	.LVL24:
 234 0004 0349     		ldr	r1, .L20
 235 0006 FFF7FEFF 		bl	json_find_member
 236              	.LVL25:
 237 000a 031E     		sub	r3, r0, #0
 238              	.LVL26:
 239 000c 00D0     		beq	.L18
 240              		.loc 1 53 0 is_stmt 0 discriminator 1
 241 000e 9869     		ldr	r0, [r3, #24]
 242              	.LVL27:
 243              	.L18:
 244              		.loc 1 53 0
 245              		@ sp needed
 246 0010 08BD     		pop	{r3, pc}
 247              	.L21:
 248 0012 C046     		.align	2
 249              	.L20:
 250 0014 15000000 		.word	.LC7
 251              		.cfi_endproc
 252              	.LFE5:
 253              		.size	arrow_device_get_gateway_hid, .-arrow_device_get_gateway_hid
 254              		.section	.text.arrow_device_add_type,"ax",%progbits
 255              		.align	1
 256              		.global	arrow_device_add_type
 257              		.code	16
 258              		.thumb_func
 259              		.type	arrow_device_add_type, %function
 260              	arrow_device_add_type:
 261              	.LFB6:
  54:..\acn-sdk-c\src\arrow/device.c **** DEVICE_ADD_PROPERTY("type", type);
 262              		.loc 1 54 0 is_stmt 1
 263              		.cfi_startproc
 264              	.LVL28:
 265 0000 10B5     		push	{r4, lr}
 266              		.cfi_def_cfa_offset 8
 267              		.cfi_offset 4, -8
 268              		.cfi_offset 14, -4
 269              		.loc 1 54 0
 270 0002 0468     		ldr	r4, [r0]
 271 0004 081C     		mov	r0, r1
 272              	.LVL29:
 273 0006 FFF7FEFF 		bl	json_mkstring
 274              	.LVL30:
 275 000a 0349     		ldr	r1, .L23
 276 000c 021C     		mov	r2, r0
 277 000e 201C     		mov	r0, r4
 278 0010 FFF7FEFF 		bl	json_append_member
 279              	.LVL31:
 280              		@ sp needed
 281 0014 10BD     		pop	{r4, pc}
 282              	.L24:
 283 0016 C046     		.align	2
 284              	.L23:
ARM GAS  C:\Users\ddemidov\AppData\Local\Temp\ccCaUaIz.s 			page 7


 285 0018 20000000 		.word	.LC10
 286              		.cfi_endproc
 287              	.LFE6:
 288              		.size	arrow_device_add_type, .-arrow_device_add_type
 289              		.section	.text.arrow_device_get_type,"ax",%progbits
 290              		.align	1
 291              		.global	arrow_device_get_type
 292              		.code	16
 293              		.thumb_func
 294              		.type	arrow_device_get_type, %function
 295              	arrow_device_get_type:
 296              	.LFB7:
 297              		.loc 1 54 0
 298              		.cfi_startproc
 299              	.LVL32:
 300 0000 08B5     		push	{r3, lr}
 301              		.cfi_def_cfa_offset 8
 302              		.cfi_offset 3, -8
 303              		.cfi_offset 14, -4
 304              		.loc 1 54 0
 305 0002 0068     		ldr	r0, [r0]
 306              	.LVL33:
 307 0004 0349     		ldr	r1, .L28
 308 0006 FFF7FEFF 		bl	json_find_member
 309              	.LVL34:
 310 000a 031E     		sub	r3, r0, #0
 311              	.LVL35:
 312 000c 00D0     		beq	.L26
 313              		.loc 1 54 0 is_stmt 0 discriminator 1
 314 000e 9869     		ldr	r0, [r3, #24]
 315              	.LVL36:
 316              	.L26:
 317              		.loc 1 54 0
 318              		@ sp needed
 319 0010 08BD     		pop	{r3, pc}
 320              	.L29:
 321 0012 C046     		.align	2
 322              	.L28:
 323 0014 20000000 		.word	.LC10
 324              		.cfi_endproc
 325              	.LFE7:
 326              		.size	arrow_device_get_type, .-arrow_device_get_type
 327              		.section	.text.arrow_device_add_uid,"ax",%progbits
 328              		.align	1
 329              		.global	arrow_device_add_uid
 330              		.code	16
 331              		.thumb_func
 332              		.type	arrow_device_add_uid, %function
 333              	arrow_device_add_uid:
 334              	.LFB8:
  55:..\acn-sdk-c\src\arrow/device.c **** DEVICE_ADD_PROPERTY("uid", uid);
 335              		.loc 1 55 0 is_stmt 1
 336              		.cfi_startproc
 337              	.LVL37:
 338 0000 10B5     		push	{r4, lr}
 339              		.cfi_def_cfa_offset 8
 340              		.cfi_offset 4, -8
ARM GAS  C:\Users\ddemidov\AppData\Local\Temp\ccCaUaIz.s 			page 8


 341              		.cfi_offset 14, -4
 342              		.loc 1 55 0
 343 0002 0468     		ldr	r4, [r0]
 344 0004 081C     		mov	r0, r1
 345              	.LVL38:
 346 0006 FFF7FEFF 		bl	json_mkstring
 347              	.LVL39:
 348 000a 0349     		ldr	r1, .L31
 349 000c 021C     		mov	r2, r0
 350 000e 201C     		mov	r0, r4
 351 0010 FFF7FEFF 		bl	json_append_member
 352              	.LVL40:
 353              		@ sp needed
 354 0014 10BD     		pop	{r4, pc}
 355              	.L32:
 356 0016 C046     		.align	2
 357              	.L31:
 358 0018 25000000 		.word	.LC13
 359              		.cfi_endproc
 360              	.LFE8:
 361              		.size	arrow_device_add_uid, .-arrow_device_add_uid
 362              		.section	.text.arrow_device_get_uid,"ax",%progbits
 363              		.align	1
 364              		.global	arrow_device_get_uid
 365              		.code	16
 366              		.thumb_func
 367              		.type	arrow_device_get_uid, %function
 368              	arrow_device_get_uid:
 369              	.LFB9:
 370              		.loc 1 55 0
 371              		.cfi_startproc
 372              	.LVL41:
 373 0000 08B5     		push	{r3, lr}
 374              		.cfi_def_cfa_offset 8
 375              		.cfi_offset 3, -8
 376              		.cfi_offset 14, -4
 377              		.loc 1 55 0
 378 0002 0068     		ldr	r0, [r0]
 379              	.LVL42:
 380 0004 0349     		ldr	r1, .L36
 381 0006 FFF7FEFF 		bl	json_find_member
 382              	.LVL43:
 383 000a 031E     		sub	r3, r0, #0
 384              	.LVL44:
 385 000c 00D0     		beq	.L34
 386              		.loc 1 55 0 is_stmt 0 discriminator 1
 387 000e 9869     		ldr	r0, [r3, #24]
 388              	.LVL45:
 389              	.L34:
 390              		.loc 1 55 0
 391              		@ sp needed
 392 0010 08BD     		pop	{r3, pc}
 393              	.L37:
 394 0012 C046     		.align	2
 395              	.L36:
 396 0014 25000000 		.word	.LC13
 397              		.cfi_endproc
ARM GAS  C:\Users\ddemidov\AppData\Local\Temp\ccCaUaIz.s 			page 9


 398              	.LFE9:
 399              		.size	arrow_device_get_uid, .-arrow_device_get_uid
 400              		.section	.text.arrow_device_set_hid,"ax",%progbits
 401              		.align	1
 402              		.global	arrow_device_set_hid
 403              		.code	16
 404              		.thumb_func
 405              		.type	arrow_device_set_hid, %function
 406              	arrow_device_set_hid:
 407              	.LFB10:
  56:..\acn-sdk-c\src\arrow/device.c **** 
  57:..\acn-sdk-c\src\arrow/device.c **** DEVICE_EXT_PROPERTY(hid);
 408              		.loc 1 57 0 is_stmt 1
 409              		.cfi_startproc
 410              	.LVL46:
 411 0000 70B5     		push	{r4, r5, r6, lr}
 412              		.cfi_def_cfa_offset 16
 413              		.cfi_offset 4, -16
 414              		.cfi_offset 5, -12
 415              		.cfi_offset 6, -8
 416              		.cfi_offset 14, -4
 417              		.loc 1 57 0
 418 0002 C668     		ldr	r6, [r0, #12]
 419 0004 041C     		mov	r4, r0
 420 0006 0D1C     		mov	r5, r1
 421 0008 081C     		mov	r0, r1
 422              	.LVL47:
 423 000a 002E     		cmp	r6, #0
 424 000c 06D0     		beq	.L39
 425              		.loc 1 57 0 is_stmt 0 discriminator 1
 426 000e FFF7FEFF 		bl	strlen
 427              	.LVL48:
 428 0012 411C     		add	r1, r0, #1
 429 0014 301C     		mov	r0, r6
 430 0016 FFF7FEFF 		bl	realloc
 431              	.LVL49:
 432 001a 04E0     		b	.L41
 433              	.LVL50:
 434              	.L39:
 435              		.loc 1 57 0 discriminator 2
 436 001c FFF7FEFF 		bl	strlen
 437              	.LVL51:
 438 0020 0130     		add	r0, r0, #1
 439 0022 FFF7FEFF 		bl	malloc
 440              	.LVL52:
 441              	.L41:
 442 0026 E060     		str	r0, [r4, #12]
 443 0028 291C     		mov	r1, r5
 444 002a E068     		ldr	r0, [r4, #12]
 445 002c FFF7FEFF 		bl	strcpy
 446              	.LVL53:
 447              		@ sp needed
 448              	.LVL54:
 449              	.LVL55:
 450 0030 70BD     		pop	{r4, r5, r6, pc}
 451              		.cfi_endproc
 452              	.LFE10:
ARM GAS  C:\Users\ddemidov\AppData\Local\Temp\ccCaUaIz.s 			page 10


 453              		.size	arrow_device_set_hid, .-arrow_device_set_hid
 454              		.section	.text.arrow_device_set_eid,"ax",%progbits
 455              		.align	1
 456              		.global	arrow_device_set_eid
 457              		.code	16
 458              		.thumb_func
 459              		.type	arrow_device_set_eid, %function
 460              	arrow_device_set_eid:
 461              	.LFB11:
  58:..\acn-sdk-c\src\arrow/device.c **** DEVICE_EXT_PROPERTY(eid);
 462              		.loc 1 58 0 is_stmt 1
 463              		.cfi_startproc
 464              	.LVL56:
 465 0000 70B5     		push	{r4, r5, r6, lr}
 466              		.cfi_def_cfa_offset 16
 467              		.cfi_offset 4, -16
 468              		.cfi_offset 5, -12
 469              		.cfi_offset 6, -8
 470              		.cfi_offset 14, -4
 471              		.loc 1 58 0
 472 0002 0669     		ldr	r6, [r0, #16]
 473 0004 041C     		mov	r4, r0
 474 0006 0D1C     		mov	r5, r1
 475 0008 081C     		mov	r0, r1
 476              	.LVL57:
 477 000a 002E     		cmp	r6, #0
 478 000c 06D0     		beq	.L43
 479              		.loc 1 58 0 is_stmt 0 discriminator 1
 480 000e FFF7FEFF 		bl	strlen
 481              	.LVL58:
 482 0012 411C     		add	r1, r0, #1
 483 0014 301C     		mov	r0, r6
 484 0016 FFF7FEFF 		bl	realloc
 485              	.LVL59:
 486 001a 04E0     		b	.L45
 487              	.LVL60:
 488              	.L43:
 489              		.loc 1 58 0 discriminator 2
 490 001c FFF7FEFF 		bl	strlen
 491              	.LVL61:
 492 0020 0130     		add	r0, r0, #1
 493 0022 FFF7FEFF 		bl	malloc
 494              	.LVL62:
 495              	.L45:
 496 0026 2061     		str	r0, [r4, #16]
 497 0028 291C     		mov	r1, r5
 498 002a 2069     		ldr	r0, [r4, #16]
 499 002c FFF7FEFF 		bl	strcpy
 500              	.LVL63:
 501              		@ sp needed
 502              	.LVL64:
 503              	.LVL65:
 504 0030 70BD     		pop	{r4, r5, r6, pc}
 505              		.cfi_endproc
 506              	.LFE11:
 507              		.size	arrow_device_set_eid, .-arrow_device_set_eid
 508              		.section	.text.arrow_device_add_info,"ax",%progbits
ARM GAS  C:\Users\ddemidov\AppData\Local\Temp\ccCaUaIz.s 			page 11


 509              		.align	1
 510              		.global	arrow_device_add_info
 511              		.code	16
 512              		.thumb_func
 513              		.type	arrow_device_add_info, %function
 514              	arrow_device_add_info:
 515              	.LFB12:
  59:..\acn-sdk-c\src\arrow/device.c **** 
  60:..\acn-sdk-c\src\arrow/device.c **** void arrow_device_add_info(arrow_device_t *dev, const char *key, const char *value) {
 516              		.loc 1 60 0 is_stmt 1
 517              		.cfi_startproc
 518              	.LVL66:
 519 0000 38B5     		push	{r3, r4, r5, lr}
 520              		.cfi_def_cfa_offset 16
 521              		.cfi_offset 3, -16
 522              		.cfi_offset 4, -12
 523              		.cfi_offset 5, -8
 524              		.cfi_offset 14, -4
  61:..\acn-sdk-c\src\arrow/device.c ****     json_append_member(dev->info, key, json_mkstring(value));
 525              		.loc 1 61 0
 526 0002 4568     		ldr	r5, [r0, #4]
 527 0004 101C     		mov	r0, r2
 528              	.LVL67:
  60:..\acn-sdk-c\src\arrow/device.c ****     json_append_member(dev->info, key, json_mkstring(value));
 529              		.loc 1 60 0
 530 0006 0C1C     		mov	r4, r1
 531              		.loc 1 61 0
 532 0008 FFF7FEFF 		bl	json_mkstring
 533              	.LVL68:
 534 000c 211C     		mov	r1, r4
 535 000e 021C     		mov	r2, r0
 536 0010 281C     		mov	r0, r5
 537 0012 FFF7FEFF 		bl	json_append_member
 538              	.LVL69:
  62:..\acn-sdk-c\src\arrow/device.c **** }
 539              		.loc 1 62 0
 540              		@ sp needed
 541              	.LVL70:
 542 0016 38BD     		pop	{r3, r4, r5, pc}
 543              		.cfi_endproc
 544              	.LFE12:
 545              		.size	arrow_device_add_info, .-arrow_device_add_info
 546              		.section	.text.arrow_device_add_property,"ax",%progbits
 547              		.align	1
 548              		.global	arrow_device_add_property
 549              		.code	16
 550              		.thumb_func
 551              		.type	arrow_device_add_property, %function
 552              	arrow_device_add_property:
 553              	.LFB13:
  63:..\acn-sdk-c\src\arrow/device.c **** 
  64:..\acn-sdk-c\src\arrow/device.c **** void arrow_device_add_property(arrow_device_t *dev, const char *key, const char *value) {
 554              		.loc 1 64 0
 555              		.cfi_startproc
 556              	.LVL71:
 557 0000 38B5     		push	{r3, r4, r5, lr}
 558              		.cfi_def_cfa_offset 16
ARM GAS  C:\Users\ddemidov\AppData\Local\Temp\ccCaUaIz.s 			page 12


 559              		.cfi_offset 3, -16
 560              		.cfi_offset 4, -12
 561              		.cfi_offset 5, -8
 562              		.cfi_offset 14, -4
  65:..\acn-sdk-c\src\arrow/device.c ****     json_append_member(dev->prop, key, json_mkstring(value));
 563              		.loc 1 65 0
 564 0002 8568     		ldr	r5, [r0, #8]
 565 0004 101C     		mov	r0, r2
 566              	.LVL72:
  64:..\acn-sdk-c\src\arrow/device.c ****     json_append_member(dev->prop, key, json_mkstring(value));
 567              		.loc 1 64 0
 568 0006 0C1C     		mov	r4, r1
 569              		.loc 1 65 0
 570 0008 FFF7FEFF 		bl	json_mkstring
 571              	.LVL73:
 572 000c 211C     		mov	r1, r4
 573 000e 021C     		mov	r2, r0
 574 0010 281C     		mov	r0, r5
 575 0012 FFF7FEFF 		bl	json_append_member
 576              	.LVL74:
  66:..\acn-sdk-c\src\arrow/device.c **** }
 577              		.loc 1 66 0
 578              		@ sp needed
 579              	.LVL75:
 580 0016 38BD     		pop	{r3, r4, r5, pc}
 581              		.cfi_endproc
 582              	.LFE13:
 583              		.size	arrow_device_add_property, .-arrow_device_add_property
 584              		.section	.text.arrow_device_serialize,"ax",%progbits
 585              		.align	1
 586              		.global	arrow_device_serialize
 587              		.code	16
 588              		.thumb_func
 589              		.type	arrow_device_serialize, %function
 590              	arrow_device_serialize:
 591              	.LFB14:
  67:..\acn-sdk-c\src\arrow/device.c **** 
  68:..\acn-sdk-c\src\arrow/device.c **** char *arrow_device_serialize(arrow_device_t *dev) {
 592              		.loc 1 68 0
 593              		.cfi_startproc
 594              	.LVL76:
 595 0000 08B5     		push	{r3, lr}
 596              		.cfi_def_cfa_offset 8
 597              		.cfi_offset 3, -8
 598              		.cfi_offset 14, -4
  69:..\acn-sdk-c\src\arrow/device.c ****     char *dev_str = json_encode(dev->main);
 599              		.loc 1 69 0
 600 0002 0068     		ldr	r0, [r0]
 601              	.LVL77:
 602 0004 FFF7FEFF 		bl	json_encode
 603              	.LVL78:
  70:..\acn-sdk-c\src\arrow/device.c ****     json_minify(dev_str);
  71:..\acn-sdk-c\src\arrow/device.c ****     return dev_str;
  72:..\acn-sdk-c\src\arrow/device.c **** }
 604              		.loc 1 72 0
 605              		@ sp needed
 606 0008 08BD     		pop	{r3, pc}
ARM GAS  C:\Users\ddemidov\AppData\Local\Temp\ccCaUaIz.s 			page 13


 607              		.cfi_endproc
 608              	.LFE14:
 609              		.size	arrow_device_serialize, .-arrow_device_serialize
 610              		.section	.text.arrow_device_parse,"ax",%progbits
 611              		.align	1
 612              		.global	arrow_device_parse
 613              		.code	16
 614              		.thumb_func
 615              		.type	arrow_device_parse, %function
 616              	arrow_device_parse:
 617              	.LFB15:
  73:..\acn-sdk-c\src\arrow/device.c **** 
  74:..\acn-sdk-c\src\arrow/device.c **** int arrow_device_parse(arrow_device_t *dev, const char *str) {
 618              		.loc 1 74 0
 619              		.cfi_startproc
 620              	.LVL79:
 621 0000 38B5     		push	{r3, r4, r5, lr}
 622              		.cfi_def_cfa_offset 16
 623              		.cfi_offset 3, -16
 624              		.cfi_offset 4, -12
 625              		.cfi_offset 5, -8
 626              		.cfi_offset 14, -4
 627              		.loc 1 74 0
 628 0002 051C     		mov	r5, r0
  75:..\acn-sdk-c\src\arrow/device.c ****     JsonNode *_main = json_decode(str);
 629              		.loc 1 75 0
 630 0004 081C     		mov	r0, r1
 631              	.LVL80:
 632 0006 FFF7FEFF 		bl	json_decode
 633              	.LVL81:
 634 000a 041E     		sub	r4, r0, #0
 635              	.LVL82:
  76:..\acn-sdk-c\src\arrow/device.c ****     if ( !_main ) return -1;
 636              		.loc 1 76 0
 637 000c 02D1     		bne	.L50
 638              	.LVL83:
 639              	.L52:
 640 000e 0120     		mov	r0, #1
 641 0010 4042     		neg	r0, r0
 642 0012 0FE0     		b	.L51
 643              	.LVL84:
 644              	.L50:
  77:..\acn-sdk-c\src\arrow/device.c ****     JsonNode *hid = json_find_member(_main, "hid");
 645              		.loc 1 77 0
 646 0014 0849     		ldr	r1, .L56
 647 0016 FFF7FEFF 		bl	json_find_member
 648              	.LVL85:
 649 001a 031E     		sub	r3, r0, #0
 650              	.LVL86:
  78:..\acn-sdk-c\src\arrow/device.c ****     if ( !hid || hid->tag != JSON_STRING ) return -1;
 651              		.loc 1 78 0
 652 001c F7D0     		beq	.L52
 653              		.loc 1 78 0 is_stmt 0 discriminator 2
 654 001e 027C     		ldrb	r2, [r0, #16]
 655 0020 022A     		cmp	r2, #2
 656 0022 F4D1     		bne	.L52
  79:..\acn-sdk-c\src\arrow/device.c ****     arrow_device_set_hid(dev, hid->string_);
ARM GAS  C:\Users\ddemidov\AppData\Local\Temp\ccCaUaIz.s 			page 14


 657              		.loc 1 79 0 is_stmt 1
 658 0024 281C     		mov	r0, r5
 659              	.LVL87:
 660 0026 9969     		ldr	r1, [r3, #24]
 661 0028 FFF7FEFF 		bl	arrow_device_set_hid
 662              	.LVL88:
  80:..\acn-sdk-c\src\arrow/device.c **** #if defined(__IBM__)
  81:..\acn-sdk-c\src\arrow/device.c ****     JsonNode *eid = json_find_member(_main, "externalId");
  82:..\acn-sdk-c\src\arrow/device.c ****     if ( !eid || eid->tag != JSON_STRING ) return -1;
  83:..\acn-sdk-c\src\arrow/device.c ****     arrow_device_set_eid(dev, eid->string_);
  84:..\acn-sdk-c\src\arrow/device.c **** #endif
  85:..\acn-sdk-c\src\arrow/device.c ****     json_delete(_main);
 663              		.loc 1 85 0
 664 002c 201C     		mov	r0, r4
 665 002e FFF7FEFF 		bl	json_delete
 666              	.LVL89:
  86:..\acn-sdk-c\src\arrow/device.c ****     return 0;
 667              		.loc 1 86 0
 668 0032 0020     		mov	r0, #0
 669              	.L51:
  87:..\acn-sdk-c\src\arrow/device.c **** }
 670              		.loc 1 87 0
 671              		@ sp needed
 672              	.LVL90:
 673              	.LVL91:
 674 0034 38BD     		pop	{r3, r4, r5, pc}
 675              	.L57:
 676 0036 C046     		.align	2
 677              	.L56:
 678 0038 29000000 		.word	.LC16
 679              		.cfi_endproc
 680              	.LFE15:
 681              		.size	arrow_device_parse, .-arrow_device_parse
 682              		.section	.rodata.str1.1,"aMS",%progbits,1
 683              	.LC0:
 684 0000 696E666F 		.ascii	"info\000"
 684      00
 685              	.LC2:
 686 0005 70726F70 		.ascii	"properties\000"
 686      65727469 
 686      657300
 687              	.LC4:
 688 0010 6E616D65 		.ascii	"name\000"
 688      00
 689              	.LC7:
 690 0015 67617465 		.ascii	"gatewayHid\000"
 690      77617948 
 690      696400
 691              	.LC10:
 692 0020 74797065 		.ascii	"type\000"
 692      00
 693              	.LC13:
 694 0025 75696400 		.ascii	"uid\000"
 695              	.LC16:
 696 0029 68696400 		.ascii	"hid\000"
 697              		.text
 698              	.Letext0:
ARM GAS  C:\Users\ddemidov\AppData\Local\Temp\ccCaUaIz.s 			page 15


 699              		.file 2 "c:\\program files (x86)\\cypress\\psoc creator\\3.3\\psoc creator\\import\\gnu\\arm\\4.9.
 700              		.file 3 "..\\acn-sdk-c\\include/json/json.h"
 701              		.file 4 "..\\acn-sdk-c\\include/arrow/device.h"
 702              		.file 5 "c:\\program files (x86)\\cypress\\psoc creator\\3.3\\psoc creator\\import\\gnu\\arm\\4.9.
 703              		.file 6 "c:\\program files (x86)\\cypress\\psoc creator\\3.3\\psoc creator\\import\\gnu\\arm\\4.9.