ARM GAS  C:\Users\ddemidov\AppData\Local\Temp\ccuAn5BX.s 			page 1


   1              		.cpu cortex-m0
   2              		.fpu softvfp
   3              		.eabi_attribute 20, 1
   4              		.eabi_attribute 21, 1
   5              		.eabi_attribute 23, 3
   6              		.eabi_attribute 24, 1
   7              		.eabi_attribute 25, 1
   8              		.eabi_attribute 26, 1
   9              		.eabi_attribute 30, 4
  10              		.eabi_attribute 34, 0
  11              		.eabi_attribute 18, 4
  12              		.code	16
  13              		.file	"gateway.c"
  14              		.text
  15              	.Ltext0:
  16              		.cfi_sections	.debug_frame
  17              		.section	.text.arrow_gateway_add_name,"ax",%progbits
  18              		.align	1
  19              		.global	arrow_gateway_add_name
  20              		.code	16
  21              		.thumb_func
  22              		.type	arrow_gateway_add_name, %function
  23              	arrow_gateway_add_name:
  24              	.LFB0:
  25              		.file 1 "..\\acn-sdk-c\\src\\arrow\\gateway.c"
   1:..\acn-sdk-c\src\arrow/gateway.c **** /* Copyright (c) 2017 Arrow Electronics, Inc.
   2:..\acn-sdk-c\src\arrow/gateway.c ****  * All rights reserved. This program and the accompanying materials
   3:..\acn-sdk-c\src\arrow/gateway.c ****  * are made available under the terms of the Apache License 2.0
   4:..\acn-sdk-c\src\arrow/gateway.c ****  * which accompanies this distribution, and is available at
   5:..\acn-sdk-c\src\arrow/gateway.c ****  * http://apache.org/licenses/LICENSE-2.0
   6:..\acn-sdk-c\src\arrow/gateway.c ****  * Contributors: Arrow Electronics, Inc.
   7:..\acn-sdk-c\src\arrow/gateway.c ****  */
   8:..\acn-sdk-c\src\arrow/gateway.c **** 
   9:..\acn-sdk-c\src\arrow/gateway.c **** #include "arrow/gateway.h"
  10:..\acn-sdk-c\src\arrow/gateway.c **** #if defined(__USE_STD__)
  11:..\acn-sdk-c\src\arrow/gateway.c **** #include <stdlib.h>
  12:..\acn-sdk-c\src\arrow/gateway.c **** #endif
  13:..\acn-sdk-c\src\arrow/gateway.c **** #include <debug.h>
  14:..\acn-sdk-c\src\arrow/gateway.c **** 
  15:..\acn-sdk-c\src\arrow/gateway.c **** #define GATEWAY_ADD_PROPERTY(type, name) \
  16:..\acn-sdk-c\src\arrow/gateway.c **** void type##_add_##name(type##_t *gate, const char *name) { \
  17:..\acn-sdk-c\src\arrow/gateway.c ****   if ( gate->name ) { \
  18:..\acn-sdk-c\src\arrow/gateway.c ****     gate->name = (char*)realloc(gate->name, strlen(name)+1); \
  19:..\acn-sdk-c\src\arrow/gateway.c ****   } else { \
  20:..\acn-sdk-c\src\arrow/gateway.c ****     int f = strlen(name)+1; \
  21:..\acn-sdk-c\src\arrow/gateway.c ****     gate->name = (char*)malloc(f); \
  22:..\acn-sdk-c\src\arrow/gateway.c ****   } \
  23:..\acn-sdk-c\src\arrow/gateway.c ****   strcpy(gate->name, name); \
  24:..\acn-sdk-c\src\arrow/gateway.c **** }
  25:..\acn-sdk-c\src\arrow/gateway.c **** 
  26:..\acn-sdk-c\src\arrow/gateway.c **** GATEWAY_ADD_PROPERTY(arrow_gateway, name);
  26              		.loc 1 26 0
  27              		.cfi_startproc
  28              	.LVL0:
  29 0000 70B5     		push	{r4, r5, r6, lr}
  30              		.cfi_def_cfa_offset 16
  31              		.cfi_offset 4, -16
ARM GAS  C:\Users\ddemidov\AppData\Local\Temp\ccuAn5BX.s 			page 2


  32              		.cfi_offset 5, -12
  33              		.cfi_offset 6, -8
  34              		.cfi_offset 14, -4
  35              		.loc 1 26 0
  36 0002 0668     		ldr	r6, [r0]
  37 0004 041C     		mov	r4, r0
  38 0006 0D1C     		mov	r5, r1
  39 0008 081C     		mov	r0, r1
  40              	.LVL1:
  41 000a 002E     		cmp	r6, #0
  42 000c 06D0     		beq	.L2
  43              		.loc 1 26 0 is_stmt 0 discriminator 1
  44 000e FFF7FEFF 		bl	strlen
  45              	.LVL2:
  46 0012 411C     		add	r1, r0, #1
  47 0014 301C     		mov	r0, r6
  48 0016 FFF7FEFF 		bl	realloc
  49              	.LVL3:
  50 001a 04E0     		b	.L4
  51              	.LVL4:
  52              	.L2:
  53              	.LBB2:
  54              		.loc 1 26 0 discriminator 2
  55 001c FFF7FEFF 		bl	strlen
  56              	.LVL5:
  57 0020 0130     		add	r0, r0, #1
  58              	.LVL6:
  59 0022 FFF7FEFF 		bl	malloc
  60              	.LVL7:
  61              	.L4:
  62 0026 2060     		str	r0, [r4]
  63              	.LBE2:
  64 0028 291C     		mov	r1, r5
  65 002a 2068     		ldr	r0, [r4]
  66 002c FFF7FEFF 		bl	strcpy
  67              	.LVL8:
  68              		@ sp needed
  69              	.LVL9:
  70              	.LVL10:
  71 0030 70BD     		pop	{r4, r5, r6, pc}
  72              		.cfi_endproc
  73              	.LFE0:
  74              		.size	arrow_gateway_add_name, .-arrow_gateway_add_name
  75              		.section	.text.arrow_gateway_add_uid,"ax",%progbits
  76              		.align	1
  77              		.global	arrow_gateway_add_uid
  78              		.code	16
  79              		.thumb_func
  80              		.type	arrow_gateway_add_uid, %function
  81              	arrow_gateway_add_uid:
  82              	.LFB1:
  27:..\acn-sdk-c\src\arrow/gateway.c **** GATEWAY_ADD_PROPERTY(arrow_gateway, uid);
  83              		.loc 1 27 0 is_stmt 1
  84              		.cfi_startproc
  85              	.LVL11:
  86 0000 70B5     		push	{r4, r5, r6, lr}
  87              		.cfi_def_cfa_offset 16
ARM GAS  C:\Users\ddemidov\AppData\Local\Temp\ccuAn5BX.s 			page 3


  88              		.cfi_offset 4, -16
  89              		.cfi_offset 5, -12
  90              		.cfi_offset 6, -8
  91              		.cfi_offset 14, -4
  92              		.loc 1 27 0
  93 0002 4668     		ldr	r6, [r0, #4]
  94 0004 041C     		mov	r4, r0
  95 0006 0D1C     		mov	r5, r1
  96 0008 081C     		mov	r0, r1
  97              	.LVL12:
  98 000a 002E     		cmp	r6, #0
  99 000c 06D0     		beq	.L7
 100              		.loc 1 27 0 is_stmt 0 discriminator 1
 101 000e FFF7FEFF 		bl	strlen
 102              	.LVL13:
 103 0012 411C     		add	r1, r0, #1
 104 0014 301C     		mov	r0, r6
 105 0016 FFF7FEFF 		bl	realloc
 106              	.LVL14:
 107 001a 04E0     		b	.L9
 108              	.LVL15:
 109              	.L7:
 110              	.LBB3:
 111              		.loc 1 27 0 discriminator 2
 112 001c FFF7FEFF 		bl	strlen
 113              	.LVL16:
 114 0020 0130     		add	r0, r0, #1
 115              	.LVL17:
 116 0022 FFF7FEFF 		bl	malloc
 117              	.LVL18:
 118              	.L9:
 119 0026 6060     		str	r0, [r4, #4]
 120              	.LBE3:
 121 0028 291C     		mov	r1, r5
 122 002a 6068     		ldr	r0, [r4, #4]
 123 002c FFF7FEFF 		bl	strcpy
 124              	.LVL19:
 125              		@ sp needed
 126              	.LVL20:
 127              	.LVL21:
 128 0030 70BD     		pop	{r4, r5, r6, pc}
 129              		.cfi_endproc
 130              	.LFE1:
 131              		.size	arrow_gateway_add_uid, .-arrow_gateway_add_uid
 132              		.section	.text.arrow_gateway_add_os,"ax",%progbits
 133              		.align	1
 134              		.global	arrow_gateway_add_os
 135              		.code	16
 136              		.thumb_func
 137              		.type	arrow_gateway_add_os, %function
 138              	arrow_gateway_add_os:
 139              	.LFB2:
  28:..\acn-sdk-c\src\arrow/gateway.c **** GATEWAY_ADD_PROPERTY(arrow_gateway, os);
 140              		.loc 1 28 0 is_stmt 1
 141              		.cfi_startproc
 142              	.LVL22:
 143 0000 70B5     		push	{r4, r5, r6, lr}
ARM GAS  C:\Users\ddemidov\AppData\Local\Temp\ccuAn5BX.s 			page 4


 144              		.cfi_def_cfa_offset 16
 145              		.cfi_offset 4, -16
 146              		.cfi_offset 5, -12
 147              		.cfi_offset 6, -8
 148              		.cfi_offset 14, -4
 149              		.loc 1 28 0
 150 0002 8668     		ldr	r6, [r0, #8]
 151 0004 041C     		mov	r4, r0
 152 0006 0D1C     		mov	r5, r1
 153 0008 081C     		mov	r0, r1
 154              	.LVL23:
 155 000a 002E     		cmp	r6, #0
 156 000c 06D0     		beq	.L11
 157              		.loc 1 28 0 is_stmt 0 discriminator 1
 158 000e FFF7FEFF 		bl	strlen
 159              	.LVL24:
 160 0012 411C     		add	r1, r0, #1
 161 0014 301C     		mov	r0, r6
 162 0016 FFF7FEFF 		bl	realloc
 163              	.LVL25:
 164 001a 04E0     		b	.L13
 165              	.LVL26:
 166              	.L11:
 167              	.LBB4:
 168              		.loc 1 28 0 discriminator 2
 169 001c FFF7FEFF 		bl	strlen
 170              	.LVL27:
 171 0020 0130     		add	r0, r0, #1
 172              	.LVL28:
 173 0022 FFF7FEFF 		bl	malloc
 174              	.LVL29:
 175              	.L13:
 176 0026 A060     		str	r0, [r4, #8]
 177              	.LBE4:
 178 0028 291C     		mov	r1, r5
 179 002a A068     		ldr	r0, [r4, #8]
 180 002c FFF7FEFF 		bl	strcpy
 181              	.LVL30:
 182              		@ sp needed
 183              	.LVL31:
 184              	.LVL32:
 185 0030 70BD     		pop	{r4, r5, r6, pc}
 186              		.cfi_endproc
 187              	.LFE2:
 188              		.size	arrow_gateway_add_os, .-arrow_gateway_add_os
 189              		.section	.text.arrow_gateway_add_type,"ax",%progbits
 190              		.align	1
 191              		.global	arrow_gateway_add_type
 192              		.code	16
 193              		.thumb_func
 194              		.type	arrow_gateway_add_type, %function
 195              	arrow_gateway_add_type:
 196              	.LFB3:
  29:..\acn-sdk-c\src\arrow/gateway.c **** GATEWAY_ADD_PROPERTY(arrow_gateway, type);
 197              		.loc 1 29 0 is_stmt 1
 198              		.cfi_startproc
 199              	.LVL33:
ARM GAS  C:\Users\ddemidov\AppData\Local\Temp\ccuAn5BX.s 			page 5


 200 0000 70B5     		push	{r4, r5, r6, lr}
 201              		.cfi_def_cfa_offset 16
 202              		.cfi_offset 4, -16
 203              		.cfi_offset 5, -12
 204              		.cfi_offset 6, -8
 205              		.cfi_offset 14, -4
 206              		.loc 1 29 0
 207 0002 C668     		ldr	r6, [r0, #12]
 208 0004 041C     		mov	r4, r0
 209 0006 0D1C     		mov	r5, r1
 210 0008 081C     		mov	r0, r1
 211              	.LVL34:
 212 000a 002E     		cmp	r6, #0
 213 000c 06D0     		beq	.L15
 214              		.loc 1 29 0 is_stmt 0 discriminator 1
 215 000e FFF7FEFF 		bl	strlen
 216              	.LVL35:
 217 0012 411C     		add	r1, r0, #1
 218 0014 301C     		mov	r0, r6
 219 0016 FFF7FEFF 		bl	realloc
 220              	.LVL36:
 221 001a 04E0     		b	.L17
 222              	.LVL37:
 223              	.L15:
 224              	.LBB5:
 225              		.loc 1 29 0 discriminator 2
 226 001c FFF7FEFF 		bl	strlen
 227              	.LVL38:
 228 0020 0130     		add	r0, r0, #1
 229              	.LVL39:
 230 0022 FFF7FEFF 		bl	malloc
 231              	.LVL40:
 232              	.L17:
 233 0026 E060     		str	r0, [r4, #12]
 234              	.LBE5:
 235 0028 291C     		mov	r1, r5
 236 002a E068     		ldr	r0, [r4, #12]
 237 002c FFF7FEFF 		bl	strcpy
 238              	.LVL41:
 239              		@ sp needed
 240              	.LVL42:
 241              	.LVL43:
 242 0030 70BD     		pop	{r4, r5, r6, pc}
 243              		.cfi_endproc
 244              	.LFE3:
 245              		.size	arrow_gateway_add_type, .-arrow_gateway_add_type
 246              		.section	.text.arrow_gateway_add_software_name,"ax",%progbits
 247              		.align	1
 248              		.global	arrow_gateway_add_software_name
 249              		.code	16
 250              		.thumb_func
 251              		.type	arrow_gateway_add_software_name, %function
 252              	arrow_gateway_add_software_name:
 253              	.LFB4:
  30:..\acn-sdk-c\src\arrow/gateway.c **** GATEWAY_ADD_PROPERTY(arrow_gateway, software_name);
 254              		.loc 1 30 0 is_stmt 1
 255              		.cfi_startproc
ARM GAS  C:\Users\ddemidov\AppData\Local\Temp\ccuAn5BX.s 			page 6


 256              	.LVL44:
 257 0000 70B5     		push	{r4, r5, r6, lr}
 258              		.cfi_def_cfa_offset 16
 259              		.cfi_offset 4, -16
 260              		.cfi_offset 5, -12
 261              		.cfi_offset 6, -8
 262              		.cfi_offset 14, -4
 263              		.loc 1 30 0
 264 0002 4669     		ldr	r6, [r0, #20]
 265 0004 041C     		mov	r4, r0
 266 0006 0D1C     		mov	r5, r1
 267 0008 081C     		mov	r0, r1
 268              	.LVL45:
 269 000a 002E     		cmp	r6, #0
 270 000c 06D0     		beq	.L19
 271              		.loc 1 30 0 is_stmt 0 discriminator 1
 272 000e FFF7FEFF 		bl	strlen
 273              	.LVL46:
 274 0012 411C     		add	r1, r0, #1
 275 0014 301C     		mov	r0, r6
 276 0016 FFF7FEFF 		bl	realloc
 277              	.LVL47:
 278 001a 04E0     		b	.L21
 279              	.LVL48:
 280              	.L19:
 281              	.LBB6:
 282              		.loc 1 30 0 discriminator 2
 283 001c FFF7FEFF 		bl	strlen
 284              	.LVL49:
 285 0020 0130     		add	r0, r0, #1
 286              	.LVL50:
 287 0022 FFF7FEFF 		bl	malloc
 288              	.LVL51:
 289              	.L21:
 290 0026 6061     		str	r0, [r4, #20]
 291              	.LBE6:
 292 0028 291C     		mov	r1, r5
 293 002a 6069     		ldr	r0, [r4, #20]
 294 002c FFF7FEFF 		bl	strcpy
 295              	.LVL52:
 296              		@ sp needed
 297              	.LVL53:
 298              	.LVL54:
 299 0030 70BD     		pop	{r4, r5, r6, pc}
 300              		.cfi_endproc
 301              	.LFE4:
 302              		.size	arrow_gateway_add_software_name, .-arrow_gateway_add_software_name
 303              		.section	.text.arrow_gateway_add_software_version,"ax",%progbits
 304              		.align	1
 305              		.global	arrow_gateway_add_software_version
 306              		.code	16
 307              		.thumb_func
 308              		.type	arrow_gateway_add_software_version, %function
 309              	arrow_gateway_add_software_version:
 310              	.LFB5:
  31:..\acn-sdk-c\src\arrow/gateway.c **** GATEWAY_ADD_PROPERTY(arrow_gateway, software_version);
 311              		.loc 1 31 0 is_stmt 1
ARM GAS  C:\Users\ddemidov\AppData\Local\Temp\ccuAn5BX.s 			page 7


 312              		.cfi_startproc
 313              	.LVL55:
 314 0000 70B5     		push	{r4, r5, r6, lr}
 315              		.cfi_def_cfa_offset 16
 316              		.cfi_offset 4, -16
 317              		.cfi_offset 5, -12
 318              		.cfi_offset 6, -8
 319              		.cfi_offset 14, -4
 320              		.loc 1 31 0
 321 0002 8669     		ldr	r6, [r0, #24]
 322 0004 041C     		mov	r4, r0
 323 0006 0D1C     		mov	r5, r1
 324 0008 081C     		mov	r0, r1
 325              	.LVL56:
 326 000a 002E     		cmp	r6, #0
 327 000c 06D0     		beq	.L23
 328              		.loc 1 31 0 is_stmt 0 discriminator 1
 329 000e FFF7FEFF 		bl	strlen
 330              	.LVL57:
 331 0012 411C     		add	r1, r0, #1
 332 0014 301C     		mov	r0, r6
 333 0016 FFF7FEFF 		bl	realloc
 334              	.LVL58:
 335 001a 04E0     		b	.L25
 336              	.LVL59:
 337              	.L23:
 338              	.LBB7:
 339              		.loc 1 31 0 discriminator 2
 340 001c FFF7FEFF 		bl	strlen
 341              	.LVL60:
 342 0020 0130     		add	r0, r0, #1
 343              	.LVL61:
 344 0022 FFF7FEFF 		bl	malloc
 345              	.LVL62:
 346              	.L25:
 347 0026 A061     		str	r0, [r4, #24]
 348              	.LBE7:
 349 0028 291C     		mov	r1, r5
 350 002a A069     		ldr	r0, [r4, #24]
 351 002c FFF7FEFF 		bl	strcpy
 352              	.LVL63:
 353              		@ sp needed
 354              	.LVL64:
 355              	.LVL65:
 356 0030 70BD     		pop	{r4, r5, r6, pc}
 357              		.cfi_endproc
 358              	.LFE5:
 359              		.size	arrow_gateway_add_software_version, .-arrow_gateway_add_software_version
 360              		.section	.text.arrow_gateway_add_sdkVersion,"ax",%progbits
 361              		.align	1
 362              		.global	arrow_gateway_add_sdkVersion
 363              		.code	16
 364              		.thumb_func
 365              		.type	arrow_gateway_add_sdkVersion, %function
 366              	arrow_gateway_add_sdkVersion:
 367              	.LFB6:
  32:..\acn-sdk-c\src\arrow/gateway.c **** GATEWAY_ADD_PROPERTY(arrow_gateway, sdkVersion);
ARM GAS  C:\Users\ddemidov\AppData\Local\Temp\ccuAn5BX.s 			page 8


 368              		.loc 1 32 0 is_stmt 1
 369              		.cfi_startproc
 370              	.LVL66:
 371 0000 70B5     		push	{r4, r5, r6, lr}
 372              		.cfi_def_cfa_offset 16
 373              		.cfi_offset 4, -16
 374              		.cfi_offset 5, -12
 375              		.cfi_offset 6, -8
 376              		.cfi_offset 14, -4
 377              		.loc 1 32 0
 378 0002 C669     		ldr	r6, [r0, #28]
 379 0004 041C     		mov	r4, r0
 380 0006 0D1C     		mov	r5, r1
 381 0008 081C     		mov	r0, r1
 382              	.LVL67:
 383 000a 002E     		cmp	r6, #0
 384 000c 06D0     		beq	.L27
 385              		.loc 1 32 0 is_stmt 0 discriminator 1
 386 000e FFF7FEFF 		bl	strlen
 387              	.LVL68:
 388 0012 411C     		add	r1, r0, #1
 389 0014 301C     		mov	r0, r6
 390 0016 FFF7FEFF 		bl	realloc
 391              	.LVL69:
 392 001a 04E0     		b	.L29
 393              	.LVL70:
 394              	.L27:
 395              	.LBB8:
 396              		.loc 1 32 0 discriminator 2
 397 001c FFF7FEFF 		bl	strlen
 398              	.LVL71:
 399 0020 0130     		add	r0, r0, #1
 400              	.LVL72:
 401 0022 FFF7FEFF 		bl	malloc
 402              	.LVL73:
 403              	.L29:
 404 0026 E061     		str	r0, [r4, #28]
 405              	.LBE8:
 406 0028 291C     		mov	r1, r5
 407 002a E069     		ldr	r0, [r4, #28]
 408 002c FFF7FEFF 		bl	strcpy
 409              	.LVL74:
 410              		@ sp needed
 411              	.LVL75:
 412              	.LVL76:
 413 0030 70BD     		pop	{r4, r5, r6, pc}
 414              		.cfi_endproc
 415              	.LFE6:
 416              		.size	arrow_gateway_add_sdkVersion, .-arrow_gateway_add_sdkVersion
 417              		.section	.text.arrow_gateway_add_hid,"ax",%progbits
 418              		.align	1
 419              		.global	arrow_gateway_add_hid
 420              		.code	16
 421              		.thumb_func
 422              		.type	arrow_gateway_add_hid, %function
 423              	arrow_gateway_add_hid:
 424              	.LFB7:
ARM GAS  C:\Users\ddemidov\AppData\Local\Temp\ccuAn5BX.s 			page 9


  33:..\acn-sdk-c\src\arrow/gateway.c **** GATEWAY_ADD_PROPERTY(arrow_gateway, hid);
 425              		.loc 1 33 0 is_stmt 1
 426              		.cfi_startproc
 427              	.LVL77:
 428 0000 70B5     		push	{r4, r5, r6, lr}
 429              		.cfi_def_cfa_offset 16
 430              		.cfi_offset 4, -16
 431              		.cfi_offset 5, -12
 432              		.cfi_offset 6, -8
 433              		.cfi_offset 14, -4
 434              		.loc 1 33 0
 435 0002 0669     		ldr	r6, [r0, #16]
 436 0004 041C     		mov	r4, r0
 437 0006 0D1C     		mov	r5, r1
 438 0008 081C     		mov	r0, r1
 439              	.LVL78:
 440 000a 002E     		cmp	r6, #0
 441 000c 06D0     		beq	.L31
 442              		.loc 1 33 0 is_stmt 0 discriminator 1
 443 000e FFF7FEFF 		bl	strlen
 444              	.LVL79:
 445 0012 411C     		add	r1, r0, #1
 446 0014 301C     		mov	r0, r6
 447 0016 FFF7FEFF 		bl	realloc
 448              	.LVL80:
 449 001a 04E0     		b	.L33
 450              	.LVL81:
 451              	.L31:
 452              	.LBB9:
 453              		.loc 1 33 0 discriminator 2
 454 001c FFF7FEFF 		bl	strlen
 455              	.LVL82:
 456 0020 0130     		add	r0, r0, #1
 457              	.LVL83:
 458 0022 FFF7FEFF 		bl	malloc
 459              	.LVL84:
 460              	.L33:
 461 0026 2061     		str	r0, [r4, #16]
 462              	.LBE9:
 463 0028 291C     		mov	r1, r5
 464 002a 2069     		ldr	r0, [r4, #16]
 465 002c FFF7FEFF 		bl	strcpy
 466              	.LVL85:
 467              		@ sp needed
 468              	.LVL86:
 469              	.LVL87:
 470 0030 70BD     		pop	{r4, r5, r6, pc}
 471              		.cfi_endproc
 472              	.LFE7:
 473              		.size	arrow_gateway_add_hid, .-arrow_gateway_add_hid
 474              		.section	.text.arrow_gateway_init,"ax",%progbits
 475              		.align	1
 476              		.global	arrow_gateway_init
 477              		.code	16
 478              		.thumb_func
 479              		.type	arrow_gateway_init, %function
 480              	arrow_gateway_init:
ARM GAS  C:\Users\ddemidov\AppData\Local\Temp\ccuAn5BX.s 			page 10


 481              	.LFB8:
  34:..\acn-sdk-c\src\arrow/gateway.c **** 
  35:..\acn-sdk-c\src\arrow/gateway.c **** #if defined(__IBM__)
  36:..\acn-sdk-c\src\arrow/gateway.c **** GATEWAY_ADD_PROPERTY(arrow_gateway_config, organizationId);
  37:..\acn-sdk-c\src\arrow/gateway.c **** GATEWAY_ADD_PROPERTY(arrow_gateway_config, authMethod);
  38:..\acn-sdk-c\src\arrow/gateway.c **** GATEWAY_ADD_PROPERTY(arrow_gateway_config, authToken);
  39:..\acn-sdk-c\src\arrow/gateway.c **** GATEWAY_ADD_PROPERTY(arrow_gateway_config, gatewayId);
  40:..\acn-sdk-c\src\arrow/gateway.c **** GATEWAY_ADD_PROPERTY(arrow_gateway_config, gatewayType);
  41:..\acn-sdk-c\src\arrow/gateway.c **** #elif defined(__AZURE__)
  42:..\acn-sdk-c\src\arrow/gateway.c **** GATEWAY_ADD_PROPERTY(arrow_gateway_config, host);
  43:..\acn-sdk-c\src\arrow/gateway.c **** GATEWAY_ADD_PROPERTY(arrow_gateway_config, accessKey);
  44:..\acn-sdk-c\src\arrow/gateway.c **** #endif
  45:..\acn-sdk-c\src\arrow/gateway.c **** 
  46:..\acn-sdk-c\src\arrow/gateway.c **** void arrow_gateway_init(arrow_gateway_t *gate) {
 482              		.loc 1 46 0 is_stmt 1
 483              		.cfi_startproc
 484              	.LVL88:
 485 0000 08B5     		push	{r3, lr}
 486              		.cfi_def_cfa_offset 8
 487              		.cfi_offset 3, -8
 488              		.cfi_offset 14, -4
  47:..\acn-sdk-c\src\arrow/gateway.c ****   memset(gate, 0, sizeof(arrow_gateway_t));
 489              		.loc 1 47 0
 490 0002 0021     		mov	r1, #0
 491 0004 2022     		mov	r2, #32
 492 0006 FFF7FEFF 		bl	memset
 493              	.LVL89:
  48:..\acn-sdk-c\src\arrow/gateway.c **** }
 494              		.loc 1 48 0
 495              		@ sp needed
 496 000a 08BD     		pop	{r3, pc}
 497              		.cfi_endproc
 498              	.LFE8:
 499              		.size	arrow_gateway_init, .-arrow_gateway_init
 500              		.section	.text.arrow_gateway_serialize,"ax",%progbits
 501              		.align	1
 502              		.global	arrow_gateway_serialize
 503              		.code	16
 504              		.thumb_func
 505              		.type	arrow_gateway_serialize, %function
 506              	arrow_gateway_serialize:
 507              	.LFB9:
  49:..\acn-sdk-c\src\arrow/gateway.c **** 
  50:..\acn-sdk-c\src\arrow/gateway.c **** char *arrow_gateway_serialize(arrow_gateway_t *gate) {
 508              		.loc 1 50 0
 509              		.cfi_startproc
 510              	.LVL90:
 511 0000 38B5     		push	{r3, r4, r5, lr}
 512              		.cfi_def_cfa_offset 16
 513              		.cfi_offset 3, -16
 514              		.cfi_offset 4, -12
 515              		.cfi_offset 5, -8
 516              		.cfi_offset 14, -4
 517              		.loc 1 50 0
 518 0002 051C     		mov	r5, r0
  51:..\acn-sdk-c\src\arrow/gateway.c ****   JsonNode *_main = json_mkobject();
 519              		.loc 1 51 0
ARM GAS  C:\Users\ddemidov\AppData\Local\Temp\ccuAn5BX.s 			page 11


 520 0004 FFF7FEFF 		bl	json_mkobject
 521              	.LVL91:
 522 0008 041C     		mov	r4, r0
 523              	.LVL92:
  52:..\acn-sdk-c\src\arrow/gateway.c ****   if ( gate->name )
 524              		.loc 1 52 0
 525 000a 2868     		ldr	r0, [r5]
 526              	.LVL93:
 527 000c 0028     		cmp	r0, #0
 528 000e 06D0     		beq	.L36
  53:..\acn-sdk-c\src\arrow/gateway.c ****     json_append_member(_main, "name", json_mkstring(gate->name));
 529              		.loc 1 53 0
 530 0010 FFF7FEFF 		bl	json_mkstring
 531              	.LVL94:
 532 0014 2449     		ldr	r1, .L64
 533 0016 021C     		mov	r2, r0
 534 0018 201C     		mov	r0, r4
 535 001a FFF7FEFF 		bl	json_append_member
 536              	.LVL95:
 537              	.L36:
  54:..\acn-sdk-c\src\arrow/gateway.c ****   if ( gate->uid )
 538              		.loc 1 54 0
 539 001e 6868     		ldr	r0, [r5, #4]
 540 0020 0028     		cmp	r0, #0
 541 0022 06D0     		beq	.L37
  55:..\acn-sdk-c\src\arrow/gateway.c ****     json_append_member(_main, "uid", json_mkstring(gate->uid));
 542              		.loc 1 55 0
 543 0024 FFF7FEFF 		bl	json_mkstring
 544              	.LVL96:
 545 0028 2049     		ldr	r1, .L64+4
 546 002a 021C     		mov	r2, r0
 547 002c 201C     		mov	r0, r4
 548 002e FFF7FEFF 		bl	json_append_member
 549              	.LVL97:
 550              	.L37:
  56:..\acn-sdk-c\src\arrow/gateway.c ****   if ( gate->os )
 551              		.loc 1 56 0
 552 0032 A868     		ldr	r0, [r5, #8]
 553 0034 0028     		cmp	r0, #0
 554 0036 06D0     		beq	.L38
  57:..\acn-sdk-c\src\arrow/gateway.c ****     json_append_member(_main, "osName", json_mkstring(gate->os));
 555              		.loc 1 57 0
 556 0038 FFF7FEFF 		bl	json_mkstring
 557              	.LVL98:
 558 003c 1C49     		ldr	r1, .L64+8
 559 003e 021C     		mov	r2, r0
 560 0040 201C     		mov	r0, r4
 561 0042 FFF7FEFF 		bl	json_append_member
 562              	.LVL99:
 563              	.L38:
  58:..\acn-sdk-c\src\arrow/gateway.c ****   if ( gate->type )
 564              		.loc 1 58 0
 565 0046 E868     		ldr	r0, [r5, #12]
 566 0048 0028     		cmp	r0, #0
 567 004a 06D0     		beq	.L39
  59:..\acn-sdk-c\src\arrow/gateway.c ****     json_append_member(_main, "type", json_mkstring(gate->type));
 568              		.loc 1 59 0
ARM GAS  C:\Users\ddemidov\AppData\Local\Temp\ccuAn5BX.s 			page 12


 569 004c FFF7FEFF 		bl	json_mkstring
 570              	.LVL100:
 571 0050 1849     		ldr	r1, .L64+12
 572 0052 021C     		mov	r2, r0
 573 0054 201C     		mov	r0, r4
 574 0056 FFF7FEFF 		bl	json_append_member
 575              	.LVL101:
 576              	.L39:
  60:..\acn-sdk-c\src\arrow/gateway.c ****   if ( gate->software_name )
 577              		.loc 1 60 0
 578 005a 6869     		ldr	r0, [r5, #20]
 579 005c 0028     		cmp	r0, #0
 580 005e 06D0     		beq	.L40
  61:..\acn-sdk-c\src\arrow/gateway.c ****     json_append_member(_main, "softwareName", json_mkstring(gate->software_name));
 581              		.loc 1 61 0
 582 0060 FFF7FEFF 		bl	json_mkstring
 583              	.LVL102:
 584 0064 1449     		ldr	r1, .L64+16
 585 0066 021C     		mov	r2, r0
 586 0068 201C     		mov	r0, r4
 587 006a FFF7FEFF 		bl	json_append_member
 588              	.LVL103:
 589              	.L40:
  62:..\acn-sdk-c\src\arrow/gateway.c ****   if ( gate->software_version )
 590              		.loc 1 62 0
 591 006e A869     		ldr	r0, [r5, #24]
 592 0070 0028     		cmp	r0, #0
 593 0072 06D0     		beq	.L41
  63:..\acn-sdk-c\src\arrow/gateway.c ****     json_append_member(_main, "softwareVersion", json_mkstring(gate->software_version));
 594              		.loc 1 63 0
 595 0074 FFF7FEFF 		bl	json_mkstring
 596              	.LVL104:
 597 0078 1049     		ldr	r1, .L64+20
 598 007a 021C     		mov	r2, r0
 599 007c 201C     		mov	r0, r4
 600 007e FFF7FEFF 		bl	json_append_member
 601              	.LVL105:
 602              	.L41:
  64:..\acn-sdk-c\src\arrow/gateway.c ****   if ( gate->sdkVersion )
 603              		.loc 1 64 0
 604 0082 E869     		ldr	r0, [r5, #28]
 605 0084 0028     		cmp	r0, #0
 606 0086 06D0     		beq	.L42
  65:..\acn-sdk-c\src\arrow/gateway.c ****     json_append_member(_main, "sdkVersion", json_mkstring(gate->sdkVersion));
 607              		.loc 1 65 0
 608 0088 FFF7FEFF 		bl	json_mkstring
 609              	.LVL106:
 610 008c 0C49     		ldr	r1, .L64+24
 611 008e 021C     		mov	r2, r0
 612 0090 201C     		mov	r0, r4
 613 0092 FFF7FEFF 		bl	json_append_member
 614              	.LVL107:
 615              	.L42:
  66:..\acn-sdk-c\src\arrow/gateway.c ****   char *str = json_encode(_main);
 616              		.loc 1 66 0
 617 0096 201C     		mov	r0, r4
 618 0098 FFF7FEFF 		bl	json_encode
ARM GAS  C:\Users\ddemidov\AppData\Local\Temp\ccuAn5BX.s 			page 13


 619              	.LVL108:
 620 009c 051C     		mov	r5, r0
 621              	.LVL109:
  67:..\acn-sdk-c\src\arrow/gateway.c ****   json_minify(str);
  68:..\acn-sdk-c\src\arrow/gateway.c ****   json_delete(_main);
 622              		.loc 1 68 0
 623 009e 201C     		mov	r0, r4
 624              	.LVL110:
 625 00a0 FFF7FEFF 		bl	json_delete
 626              	.LVL111:
  69:..\acn-sdk-c\src\arrow/gateway.c ****   return str;
  70:..\acn-sdk-c\src\arrow/gateway.c **** }
 627              		.loc 1 70 0
 628              		@ sp needed
 629 00a4 281C     		mov	r0, r5
 630              	.LVL112:
 631              	.LVL113:
 632 00a6 38BD     		pop	{r3, r4, r5, pc}
 633              	.L65:
 634              		.align	2
 635              	.L64:
 636 00a8 00000000 		.word	.LC0
 637 00ac 05000000 		.word	.LC2
 638 00b0 09000000 		.word	.LC4
 639 00b4 10000000 		.word	.LC6
 640 00b8 15000000 		.word	.LC8
 641 00bc 22000000 		.word	.LC10
 642 00c0 32000000 		.word	.LC12
 643              		.cfi_endproc
 644              	.LFE9:
 645              		.size	arrow_gateway_serialize, .-arrow_gateway_serialize
 646              		.section	.text.arrow_gateway_parse,"ax",%progbits
 647              		.align	1
 648              		.global	arrow_gateway_parse
 649              		.code	16
 650              		.thumb_func
 651              		.type	arrow_gateway_parse, %function
 652              	arrow_gateway_parse:
 653              	.LFB10:
  71:..\acn-sdk-c\src\arrow/gateway.c **** 
  72:..\acn-sdk-c\src\arrow/gateway.c **** int arrow_gateway_parse(arrow_gateway_t *gate, const char *str) {
 654              		.loc 1 72 0
 655              		.cfi_startproc
 656              	.LVL114:
 657 0000 38B5     		push	{r3, r4, r5, lr}
 658              		.cfi_def_cfa_offset 16
 659              		.cfi_offset 3, -16
 660              		.cfi_offset 4, -12
 661              		.cfi_offset 5, -8
 662              		.cfi_offset 14, -4
  73:..\acn-sdk-c\src\arrow/gateway.c ****   if (!str) return -1;
 663              		.loc 1 73 0
 664 0002 0029     		cmp	r1, #0
 665 0004 02D1     		bne	.L67
 666              	.LVL115:
 667              	.L69:
 668 0006 0120     		mov	r0, #1
ARM GAS  C:\Users\ddemidov\AppData\Local\Temp\ccuAn5BX.s 			page 14


 669 0008 4042     		neg	r0, r0
 670 000a 15E0     		b	.L68
 671              	.LVL116:
 672              	.L67:
 673 000c 051C     		mov	r5, r0
  74:..\acn-sdk-c\src\arrow/gateway.c ****   JsonNode *_main = json_decode(str);
 674              		.loc 1 74 0
 675 000e 081C     		mov	r0, r1
 676              	.LVL117:
 677 0010 FFF7FEFF 		bl	json_decode
 678              	.LVL118:
 679 0014 041E     		sub	r4, r0, #0
 680              	.LVL119:
  75:..\acn-sdk-c\src\arrow/gateway.c ****   if ( !_main ) return -1;
 681              		.loc 1 75 0
 682 0016 F6D0     		beq	.L69
  76:..\acn-sdk-c\src\arrow/gateway.c ****   JsonNode *hid = json_find_member(_main, "hid");
 683              		.loc 1 76 0
 684 0018 0849     		ldr	r1, .L76
 685 001a FFF7FEFF 		bl	json_find_member
 686              	.LVL120:
 687 001e 031E     		sub	r3, r0, #0
 688              	.LVL121:
  77:..\acn-sdk-c\src\arrow/gateway.c ****   if ( !hid ) return -1;
 689              		.loc 1 77 0
 690 0020 F1D0     		beq	.L69
  78:..\acn-sdk-c\src\arrow/gateway.c ****   if ( hid->tag != JSON_STRING ) return -1;
 691              		.loc 1 78 0
 692 0022 027C     		ldrb	r2, [r0, #16]
 693 0024 022A     		cmp	r2, #2
 694 0026 EED1     		bne	.L69
  79:..\acn-sdk-c\src\arrow/gateway.c ****   arrow_gateway_add_hid(gate, hid->string_);
 695              		.loc 1 79 0
 696 0028 281C     		mov	r0, r5
 697              	.LVL122:
 698 002a 9969     		ldr	r1, [r3, #24]
 699 002c FFF7FEFF 		bl	arrow_gateway_add_hid
 700              	.LVL123:
  80:..\acn-sdk-c\src\arrow/gateway.c ****   json_delete(_main);
 701              		.loc 1 80 0
 702 0030 201C     		mov	r0, r4
 703 0032 FFF7FEFF 		bl	json_delete
 704              	.LVL124:
  81:..\acn-sdk-c\src\arrow/gateway.c ****   return 0;
 705              		.loc 1 81 0
 706 0036 0020     		mov	r0, #0
 707              	.LVL125:
 708              	.L68:
  82:..\acn-sdk-c\src\arrow/gateway.c **** }
 709              		.loc 1 82 0
 710              		@ sp needed
 711 0038 38BD     		pop	{r3, r4, r5, pc}
 712              	.L77:
 713 003a C046     		.align	2
 714              	.L76:
 715 003c 3D000000 		.word	.LC14
 716              		.cfi_endproc
ARM GAS  C:\Users\ddemidov\AppData\Local\Temp\ccuAn5BX.s 			page 15


 717              	.LFE10:
 718              		.size	arrow_gateway_parse, .-arrow_gateway_parse
 719              		.section	.text.arrow_gateway_free,"ax",%progbits
 720              		.align	1
 721              		.global	arrow_gateway_free
 722              		.code	16
 723              		.thumb_func
 724              		.type	arrow_gateway_free, %function
 725              	arrow_gateway_free:
 726              	.LFB11:
  83:..\acn-sdk-c\src\arrow/gateway.c **** 
  84:..\acn-sdk-c\src\arrow/gateway.c **** #define FREE_PROP(prop) if (prop) free(prop)
  85:..\acn-sdk-c\src\arrow/gateway.c **** 
  86:..\acn-sdk-c\src\arrow/gateway.c **** void arrow_gateway_free(arrow_gateway_t *gate) {
 727              		.loc 1 86 0
 728              		.cfi_startproc
 729              	.LVL126:
 730 0000 10B5     		push	{r4, lr}
 731              		.cfi_def_cfa_offset 8
 732              		.cfi_offset 4, -8
 733              		.cfi_offset 14, -4
 734              		.loc 1 86 0
 735 0002 041C     		mov	r4, r0
  87:..\acn-sdk-c\src\arrow/gateway.c ****   FREE_PROP( gate->name );
 736              		.loc 1 87 0
 737 0004 0068     		ldr	r0, [r0]
 738              	.LVL127:
 739 0006 0028     		cmp	r0, #0
 740 0008 01D0     		beq	.L79
 741              		.loc 1 87 0 is_stmt 0 discriminator 1
 742 000a FFF7FEFF 		bl	free
 743              	.LVL128:
 744              	.L79:
  88:..\acn-sdk-c\src\arrow/gateway.c ****   FREE_PROP( gate->uid );
 745              		.loc 1 88 0 is_stmt 1
 746 000e 6068     		ldr	r0, [r4, #4]
 747 0010 0028     		cmp	r0, #0
 748 0012 01D0     		beq	.L80
 749              		.loc 1 88 0 is_stmt 0 discriminator 1
 750 0014 FFF7FEFF 		bl	free
 751              	.LVL129:
 752              	.L80:
  89:..\acn-sdk-c\src\arrow/gateway.c ****   FREE_PROP( gate->os );
 753              		.loc 1 89 0 is_stmt 1
 754 0018 A068     		ldr	r0, [r4, #8]
 755 001a 0028     		cmp	r0, #0
 756 001c 01D0     		beq	.L81
 757              		.loc 1 89 0 is_stmt 0 discriminator 1
 758 001e FFF7FEFF 		bl	free
 759              	.LVL130:
 760              	.L81:
  90:..\acn-sdk-c\src\arrow/gateway.c ****   FREE_PROP( gate->type );
 761              		.loc 1 90 0 is_stmt 1
 762 0022 E068     		ldr	r0, [r4, #12]
 763 0024 0028     		cmp	r0, #0
 764 0026 01D0     		beq	.L82
 765              		.loc 1 90 0 is_stmt 0 discriminator 1
ARM GAS  C:\Users\ddemidov\AppData\Local\Temp\ccuAn5BX.s 			page 16


 766 0028 FFF7FEFF 		bl	free
 767              	.LVL131:
 768              	.L82:
  91:..\acn-sdk-c\src\arrow/gateway.c ****   FREE_PROP( gate->hid );
 769              		.loc 1 91 0 is_stmt 1
 770 002c 2069     		ldr	r0, [r4, #16]
 771 002e 0028     		cmp	r0, #0
 772 0030 01D0     		beq	.L83
 773              		.loc 1 91 0 is_stmt 0 discriminator 1
 774 0032 FFF7FEFF 		bl	free
 775              	.LVL132:
 776              	.L83:
  92:..\acn-sdk-c\src\arrow/gateway.c ****   FREE_PROP( gate->software_name );
 777              		.loc 1 92 0 is_stmt 1
 778 0036 6069     		ldr	r0, [r4, #20]
 779 0038 0028     		cmp	r0, #0
 780 003a 01D0     		beq	.L84
 781              		.loc 1 92 0 is_stmt 0 discriminator 1
 782 003c FFF7FEFF 		bl	free
 783              	.LVL133:
 784              	.L84:
  93:..\acn-sdk-c\src\arrow/gateway.c ****   FREE_PROP( gate->software_version );
 785              		.loc 1 93 0 is_stmt 1
 786 0040 A069     		ldr	r0, [r4, #24]
 787 0042 0028     		cmp	r0, #0
 788 0044 01D0     		beq	.L85
 789              		.loc 1 93 0 is_stmt 0 discriminator 1
 790 0046 FFF7FEFF 		bl	free
 791              	.LVL134:
 792              	.L85:
  94:..\acn-sdk-c\src\arrow/gateway.c ****   FREE_PROP( gate->sdkVersion );
 793              		.loc 1 94 0 is_stmt 1
 794 004a E069     		ldr	r0, [r4, #28]
 795 004c 0028     		cmp	r0, #0
 796 004e 01D0     		beq	.L78
 797              		.loc 1 94 0 is_stmt 0 discriminator 1
 798 0050 FFF7FEFF 		bl	free
 799              	.LVL135:
 800              	.L78:
  95:..\acn-sdk-c\src\arrow/gateway.c **** }
 801              		.loc 1 95 0 is_stmt 1
 802              		@ sp needed
 803              	.LVL136:
 804 0054 10BD     		pop	{r4, pc}
 805              		.cfi_endproc
 806              	.LFE11:
 807              		.size	arrow_gateway_free, .-arrow_gateway_free
 808              		.section	.text.arrow_gateway_config_init,"ax",%progbits
 809              		.align	1
 810              		.global	arrow_gateway_config_init
 811              		.code	16
 812              		.thumb_func
 813              		.type	arrow_gateway_config_init, %function
 814              	arrow_gateway_config_init:
 815              	.LFB12:
  96:..\acn-sdk-c\src\arrow/gateway.c **** 
  97:..\acn-sdk-c\src\arrow/gateway.c **** 
ARM GAS  C:\Users\ddemidov\AppData\Local\Temp\ccuAn5BX.s 			page 17


  98:..\acn-sdk-c\src\arrow/gateway.c **** void arrow_gateway_config_init(arrow_gateway_config_t *config) {
 816              		.loc 1 98 0
 817              		.cfi_startproc
 818              	.LVL137:
 819 0000 08B5     		push	{r3, lr}
 820              		.cfi_def_cfa_offset 8
 821              		.cfi_offset 3, -8
 822              		.cfi_offset 14, -4
  99:..\acn-sdk-c\src\arrow/gateway.c ****   memset(config, 0x00, sizeof(arrow_gateway_config_t));
 823              		.loc 1 99 0
 824 0002 0021     		mov	r1, #0
 825 0004 0422     		mov	r2, #4
 826 0006 FFF7FEFF 		bl	memset
 827              	.LVL138:
 100:..\acn-sdk-c\src\arrow/gateway.c ****   config->type = unknown;
 101:..\acn-sdk-c\src\arrow/gateway.c **** }
 828              		.loc 1 101 0
 829              		@ sp needed
 830 000a 08BD     		pop	{r3, pc}
 831              		.cfi_endproc
 832              	.LFE12:
 833              		.size	arrow_gateway_config_init, .-arrow_gateway_config_init
 834              		.section	.text.arrow_gateway_config_free,"ax",%progbits
 835              		.align	1
 836              		.global	arrow_gateway_config_free
 837              		.code	16
 838              		.thumb_func
 839              		.type	arrow_gateway_config_free, %function
 840              	arrow_gateway_config_free:
 841              	.LFB13:
 102:..\acn-sdk-c\src\arrow/gateway.c **** 
 103:..\acn-sdk-c\src\arrow/gateway.c **** 
 104:..\acn-sdk-c\src\arrow/gateway.c **** void arrow_gateway_config_free(arrow_gateway_config_t *config) {
 842              		.loc 1 104 0
 843              		.cfi_startproc
 844              	.LVL139:
 105:..\acn-sdk-c\src\arrow/gateway.c **** #if defined(__IBM__)
 106:..\acn-sdk-c\src\arrow/gateway.c ****   FREE_PROP ( config->authMethod );
 107:..\acn-sdk-c\src\arrow/gateway.c ****   FREE_PROP ( config->authToken );
 108:..\acn-sdk-c\src\arrow/gateway.c ****   FREE_PROP ( config->gatewayId );
 109:..\acn-sdk-c\src\arrow/gateway.c ****   FREE_PROP ( config->gatewayType );
 110:..\acn-sdk-c\src\arrow/gateway.c ****   FREE_PROP ( config->organizationId );
 111:..\acn-sdk-c\src\arrow/gateway.c **** #else
 112:..\acn-sdk-c\src\arrow/gateway.c ****   SSP_PARAMETER_NOT_USED(config);
 113:..\acn-sdk-c\src\arrow/gateway.c **** #endif
 114:..\acn-sdk-c\src\arrow/gateway.c **** }
 845              		.loc 1 114 0
 846              		@ sp needed
 847 0000 7047     		bx	lr
 848              		.cfi_endproc
 849              	.LFE13:
 850              		.size	arrow_gateway_config_free, .-arrow_gateway_config_free
 851              		.section	.rodata.str1.1,"aMS",%progbits,1
 852              	.LC0:
 853 0000 6E616D65 		.ascii	"name\000"
 853      00
 854              	.LC2:
ARM GAS  C:\Users\ddemidov\AppData\Local\Temp\ccuAn5BX.s 			page 18


 855 0005 75696400 		.ascii	"uid\000"
 856              	.LC4:
 857 0009 6F734E61 		.ascii	"osName\000"
 857      6D6500
 858              	.LC6:
 859 0010 74797065 		.ascii	"type\000"
 859      00
 860              	.LC8:
 861 0015 736F6674 		.ascii	"softwareName\000"
 861      77617265 
 861      4E616D65 
 861      00
 862              	.LC10:
 863 0022 736F6674 		.ascii	"softwareVersion\000"
 863      77617265 
 863      56657273 
 863      696F6E00 
 864              	.LC12:
 865 0032 73646B56 		.ascii	"sdkVersion\000"
 865      65727369 
 865      6F6E00
 866              	.LC14:
 867 003d 68696400 		.ascii	"hid\000"
 868              		.text
 869              	.Letext0:
 870              		.file 2 "c:\\program files (x86)\\cypress\\psoc creator\\3.3\\psoc creator\\import\\gnu\\arm\\4.9.
 871              		.file 3 "..\\acn-sdk-c\\include/json/json.h"
 872              		.file 4 "..\\acn-sdk-c\\include/arrow/gateway.h"
 873              		.file 5 "c:\\program files (x86)\\cypress\\psoc creator\\3.3\\psoc creator\\import\\gnu\\arm\\4.9.
 874              		.file 6 "c:\\program files (x86)\\cypress\\psoc creator\\3.3\\psoc creator\\import\\gnu\\arm\\4.9.