ARM GAS  C:\Users\ddemidov\AppData\Local\Temp\ccSQ2E5b.s 			page 1


   1              		.cpu cortex-m0
   2              		.fpu softvfp
   3              		.eabi_attribute 20, 1
   4              		.eabi_attribute 21, 1
   5              		.eabi_attribute 23, 3
   6              		.eabi_attribute 24, 1
   7              		.eabi_attribute 25, 1
   8              		.eabi_attribute 26, 1
   9              		.eabi_attribute 30, 4
  10              		.eabi_attribute 34, 0
  11              		.eabi_attribute 18, 4
  12              		.code	16
  13              		.file	"hash.c"
  14              		.text
  15              	.Ltext0:
  16              		.cfi_sections	.debug_frame
  17              		.section	.text.wc_HashGetOID,"ax",%progbits
  18              		.align	1
  19              		.global	wc_HashGetOID
  20              		.code	16
  21              		.thumb_func
  22              		.type	wc_HashGetOID, %function
  23              	wc_HashGetOID:
  24              	.LFB0:
  25              		.file 1 "..\\acn-sdk-c\\src\\wolfSSL\\wolfcrypt\\src\\hash.c"
   1:..\acn-sdk-c\src\wolfSSL\wolfcrypt\src/hash.c **** /* hash.c
   2:..\acn-sdk-c\src\wolfSSL\wolfcrypt\src/hash.c ****  *
   3:..\acn-sdk-c\src\wolfSSL\wolfcrypt\src/hash.c ****  * Copyright (C) 2006-2016 wolfSSL Inc.
   4:..\acn-sdk-c\src\wolfSSL\wolfcrypt\src/hash.c ****  *
   5:..\acn-sdk-c\src\wolfSSL\wolfcrypt\src/hash.c ****  * This file is part of wolfSSL.
   6:..\acn-sdk-c\src\wolfSSL\wolfcrypt\src/hash.c ****  *
   7:..\acn-sdk-c\src\wolfSSL\wolfcrypt\src/hash.c ****  * wolfSSL is free software; you can redistribute it and/or modify
   8:..\acn-sdk-c\src\wolfSSL\wolfcrypt\src/hash.c ****  * it under the terms of the GNU General Public License as published by
   9:..\acn-sdk-c\src\wolfSSL\wolfcrypt\src/hash.c ****  * the Free Software Foundation; either version 2 of the License, or
  10:..\acn-sdk-c\src\wolfSSL\wolfcrypt\src/hash.c ****  * (at your option) any later version.
  11:..\acn-sdk-c\src\wolfSSL\wolfcrypt\src/hash.c ****  *
  12:..\acn-sdk-c\src\wolfSSL\wolfcrypt\src/hash.c ****  * wolfSSL is distributed in the hope that it will be useful,
  13:..\acn-sdk-c\src\wolfSSL\wolfcrypt\src/hash.c ****  * but WITHOUT ANY WARRANTY; without even the implied warranty of
  14:..\acn-sdk-c\src\wolfSSL\wolfcrypt\src/hash.c ****  * MERCHANTABILITY or FITNESS FOR A PARTICULAR PURPOSE.  See the
  15:..\acn-sdk-c\src\wolfSSL\wolfcrypt\src/hash.c ****  * GNU General Public License for more details.
  16:..\acn-sdk-c\src\wolfSSL\wolfcrypt\src/hash.c ****  *
  17:..\acn-sdk-c\src\wolfSSL\wolfcrypt\src/hash.c ****  * You should have received a copy of the GNU General Public License
  18:..\acn-sdk-c\src\wolfSSL\wolfcrypt\src/hash.c ****  * along with this program; if not, write to the Free Software
  19:..\acn-sdk-c\src\wolfSSL\wolfcrypt\src/hash.c ****  * Foundation, Inc., 51 Franklin Street, Fifth Floor, Boston, MA 02110-1335, USA
  20:..\acn-sdk-c\src\wolfSSL\wolfcrypt\src/hash.c ****  */
  21:..\acn-sdk-c\src\wolfSSL\wolfcrypt\src/hash.c **** 
  22:..\acn-sdk-c\src\wolfSSL\wolfcrypt\src/hash.c **** 
  23:..\acn-sdk-c\src\wolfSSL\wolfcrypt\src/hash.c **** #ifdef HAVE_CONFIG_H
  24:..\acn-sdk-c\src\wolfSSL\wolfcrypt\src/hash.c ****     #include <config.h>
  25:..\acn-sdk-c\src\wolfSSL\wolfcrypt\src/hash.c **** #endif
  26:..\acn-sdk-c\src\wolfSSL\wolfcrypt\src/hash.c **** 
  27:..\acn-sdk-c\src\wolfSSL\wolfcrypt\src/hash.c **** #include <wolfssl/wolfcrypt/settings.h>
  28:..\acn-sdk-c\src\wolfSSL\wolfcrypt\src/hash.c **** #include <wolfssl/wolfcrypt/logging.h>
  29:..\acn-sdk-c\src\wolfSSL\wolfcrypt\src/hash.c **** #include <wolfssl/wolfcrypt/error-crypt.h>
  30:..\acn-sdk-c\src\wolfSSL\wolfcrypt\src/hash.c **** #ifndef NO_ASN
  31:..\acn-sdk-c\src\wolfSSL\wolfcrypt\src/hash.c **** #include <wolfssl/wolfcrypt/asn.h>
  32:..\acn-sdk-c\src\wolfSSL\wolfcrypt\src/hash.c **** #endif
ARM GAS  C:\Users\ddemidov\AppData\Local\Temp\ccSQ2E5b.s 			page 2


  33:..\acn-sdk-c\src\wolfSSL\wolfcrypt\src/hash.c **** 
  34:..\acn-sdk-c\src\wolfSSL\wolfcrypt\src/hash.c **** #include <wolfssl/wolfcrypt/hash.h>
  35:..\acn-sdk-c\src\wolfSSL\wolfcrypt\src/hash.c **** 
  36:..\acn-sdk-c\src\wolfSSL\wolfcrypt\src/hash.c **** 
  37:..\acn-sdk-c\src\wolfSSL\wolfcrypt\src/hash.c **** #ifndef NO_ASN
  38:..\acn-sdk-c\src\wolfSSL\wolfcrypt\src/hash.c **** int wc_HashGetOID(enum wc_HashType hash_type)
  39:..\acn-sdk-c\src\wolfSSL\wolfcrypt\src/hash.c **** {
  26              		.loc 1 39 0
  27              		.cfi_startproc
  28              	.LVL0:
  29 0000 0138     		sub	r0, r0, #1
  30              	.LVL1:
  31 0002 C0B2     		uxtb	r0, r0
  32 0004 0628     		cmp	r0, #6
  33 0006 0CD8     		bhi	.L3
  34 0008 0123     		mov	r3, #1
  35 000a 6522     		mov	r2, #101
  36 000c 8340     		lsl	r3, r3, r0
  37 000e 1342     		tst	r3, r2
  38 0010 09D1     		bne	.L4
  39 0012 DA06     		lsl	r2, r3, #27
  40 0014 0AD4     		bmi	.L5
  40:..\acn-sdk-c\src\wolfSSL\wolfcrypt\src/hash.c ****     int oid = HASH_TYPE_E; /* Default to hash type error */
  41:..\acn-sdk-c\src\wolfSSL\wolfcrypt\src/hash.c ****     switch(hash_type)
  42:..\acn-sdk-c\src\wolfSSL\wolfcrypt\src/hash.c ****     {
  43:..\acn-sdk-c\src\wolfSSL\wolfcrypt\src/hash.c ****         case WC_HASH_TYPE_MD2:
  44:..\acn-sdk-c\src\wolfSSL\wolfcrypt\src/hash.c **** #ifdef WOLFSSL_MD2
  45:..\acn-sdk-c\src\wolfSSL\wolfcrypt\src/hash.c ****             oid = MD2h;
  46:..\acn-sdk-c\src\wolfSSL\wolfcrypt\src/hash.c **** #endif
  47:..\acn-sdk-c\src\wolfSSL\wolfcrypt\src/hash.c ****             break;
  48:..\acn-sdk-c\src\wolfSSL\wolfcrypt\src/hash.c ****         case WC_HASH_TYPE_MD5:
  49:..\acn-sdk-c\src\wolfSSL\wolfcrypt\src/hash.c **** #ifndef NO_MD5
  50:..\acn-sdk-c\src\wolfSSL\wolfcrypt\src/hash.c ****             oid = MD5h;
  51:..\acn-sdk-c\src\wolfSSL\wolfcrypt\src/hash.c **** #endif
  52:..\acn-sdk-c\src\wolfSSL\wolfcrypt\src/hash.c ****             break;
  53:..\acn-sdk-c\src\wolfSSL\wolfcrypt\src/hash.c ****         case WC_HASH_TYPE_SHA:
  54:..\acn-sdk-c\src\wolfSSL\wolfcrypt\src/hash.c **** #ifndef NO_SHA
  55:..\acn-sdk-c\src\wolfSSL\wolfcrypt\src/hash.c ****             oid = SHAh;
  41              		.loc 1 55 0
  42 0016 5820     		mov	r0, #88
  43 0018 1B07     		lsl	r3, r3, #28
  44 001a 09D4     		bmi	.L2
  56:..\acn-sdk-c\src\wolfSSL\wolfcrypt\src/hash.c **** #endif
  57:..\acn-sdk-c\src\wolfSSL\wolfcrypt\src/hash.c ****             break;
  58:..\acn-sdk-c\src\wolfSSL\wolfcrypt\src/hash.c ****         case WC_HASH_TYPE_SHA256:
  59:..\acn-sdk-c\src\wolfSSL\wolfcrypt\src/hash.c **** #ifndef NO_SHA256
  60:..\acn-sdk-c\src\wolfSSL\wolfcrypt\src/hash.c ****             oid = SHA256h;
  61:..\acn-sdk-c\src\wolfSSL\wolfcrypt\src/hash.c **** #endif
  62:..\acn-sdk-c\src\wolfSSL\wolfcrypt\src/hash.c ****             break;
  63:..\acn-sdk-c\src\wolfSSL\wolfcrypt\src/hash.c ****         case WC_HASH_TYPE_SHA384:
  64:..\acn-sdk-c\src\wolfSSL\wolfcrypt\src/hash.c **** #if defined(WOLFSSL_SHA512) && defined(WOLFSSL_SHA384)
  65:..\acn-sdk-c\src\wolfSSL\wolfcrypt\src/hash.c ****             oid = SHA384h;
  66:..\acn-sdk-c\src\wolfSSL\wolfcrypt\src/hash.c **** #endif
  67:..\acn-sdk-c\src\wolfSSL\wolfcrypt\src/hash.c ****             break;
  68:..\acn-sdk-c\src\wolfSSL\wolfcrypt\src/hash.c ****         case WC_HASH_TYPE_SHA512:
  69:..\acn-sdk-c\src\wolfSSL\wolfcrypt\src/hash.c **** #ifdef WOLFSSL_SHA512
  70:..\acn-sdk-c\src\wolfSSL\wolfcrypt\src/hash.c ****             oid = SHA512h;
ARM GAS  C:\Users\ddemidov\AppData\Local\Temp\ccSQ2E5b.s 			page 3


  71:..\acn-sdk-c\src\wolfSSL\wolfcrypt\src/hash.c **** #endif
  72:..\acn-sdk-c\src\wolfSSL\wolfcrypt\src/hash.c ****             break;
  73:..\acn-sdk-c\src\wolfSSL\wolfcrypt\src/hash.c **** 
  74:..\acn-sdk-c\src\wolfSSL\wolfcrypt\src/hash.c ****         /* Not Supported */
  75:..\acn-sdk-c\src\wolfSSL\wolfcrypt\src/hash.c ****         case WC_HASH_TYPE_MD4:
  76:..\acn-sdk-c\src\wolfSSL\wolfcrypt\src/hash.c ****         case WC_HASH_TYPE_NONE:
  77:..\acn-sdk-c\src\wolfSSL\wolfcrypt\src/hash.c ****         default:
  78:..\acn-sdk-c\src\wolfSSL\wolfcrypt\src/hash.c ****             oid = BAD_FUNC_ARG;
  45              		.loc 1 78 0
  46 001c 0638     		sub	r0, r0, #6
  47 001e FF38     		sub	r0, r0, #255
  48 0020 06E0     		b	.L2
  49              	.L3:
  50 0022 AD20     		mov	r0, #173
  51 0024 00E0     		b	.L7
  52              	.L4:
  40:..\acn-sdk-c\src\wolfSSL\wolfcrypt\src/hash.c ****     int oid = HASH_TYPE_E; /* Default to hash type error */
  53              		.loc 1 40 0
  54 0026 E820     		mov	r0, #232
  55              	.L7:
  56 0028 4042     		neg	r0, r0
  57 002a 01E0     		b	.L2
  58              	.L5:
  60:..\acn-sdk-c\src\wolfSSL\wolfcrypt\src/hash.c **** #endif
  59              		.loc 1 60 0
  60 002c CF20     		mov	r0, #207
  61 002e 4000     		lsl	r0, r0, #1
  62              	.L2:
  63              	.LVL2:
  79:..\acn-sdk-c\src\wolfSSL\wolfcrypt\src/hash.c ****             break;
  80:..\acn-sdk-c\src\wolfSSL\wolfcrypt\src/hash.c ****     }
  81:..\acn-sdk-c\src\wolfSSL\wolfcrypt\src/hash.c ****     return oid;
  82:..\acn-sdk-c\src\wolfSSL\wolfcrypt\src/hash.c **** }
  64              		.loc 1 82 0
  65              		@ sp needed
  66 0030 7047     		bx	lr
  67              		.cfi_endproc
  68              	.LFE0:
  69              		.size	wc_HashGetOID, .-wc_HashGetOID
  70              		.section	.text.wc_HashGetDigestSize,"ax",%progbits
  71              		.align	1
  72              		.global	wc_HashGetDigestSize
  73              		.code	16
  74              		.thumb_func
  75              		.type	wc_HashGetDigestSize, %function
  76              	wc_HashGetDigestSize:
  77              	.LFB1:
  83:..\acn-sdk-c\src\wolfSSL\wolfcrypt\src/hash.c **** #endif
  84:..\acn-sdk-c\src\wolfSSL\wolfcrypt\src/hash.c **** 
  85:..\acn-sdk-c\src\wolfSSL\wolfcrypt\src/hash.c **** /* Get Hash digest size */
  86:..\acn-sdk-c\src\wolfSSL\wolfcrypt\src/hash.c **** int wc_HashGetDigestSize(enum wc_HashType hash_type)
  87:..\acn-sdk-c\src\wolfSSL\wolfcrypt\src/hash.c **** {
  78              		.loc 1 87 0
  79              		.cfi_startproc
  80              	.LVL3:
  81 0000 0338     		sub	r0, r0, #3
  82              	.LVL4:
ARM GAS  C:\Users\ddemidov\AppData\Local\Temp\ccSQ2E5b.s 			page 4


  83 0002 C0B2     		uxtb	r0, r0
  84 0004 0428     		cmp	r0, #4
  85 0006 03D8     		bhi	.L11
  86 0008 034B     		ldr	r3, .L12
  87 000a 4000     		lsl	r0, r0, #1
  88 000c C05E     		ldrsh	r0, [r0, r3]
  89 000e 01E0     		b	.L10
  90              	.L11:
  91              		.loc 1 87 0
  92 0010 AD20     		mov	r0, #173
  93 0012 4042     		neg	r0, r0
  94              	.L10:
  95              	.LVL5:
  88:..\acn-sdk-c\src\wolfSSL\wolfcrypt\src/hash.c ****     int dig_size = HASH_TYPE_E; /* Default to hash type error */
  89:..\acn-sdk-c\src\wolfSSL\wolfcrypt\src/hash.c ****     switch(hash_type)
  90:..\acn-sdk-c\src\wolfSSL\wolfcrypt\src/hash.c ****     {
  91:..\acn-sdk-c\src\wolfSSL\wolfcrypt\src/hash.c ****         case WC_HASH_TYPE_MD5:
  92:..\acn-sdk-c\src\wolfSSL\wolfcrypt\src/hash.c **** #ifndef NO_MD5
  93:..\acn-sdk-c\src\wolfSSL\wolfcrypt\src/hash.c ****             dig_size = MD5_DIGEST_SIZE;
  94:..\acn-sdk-c\src\wolfSSL\wolfcrypt\src/hash.c **** #endif
  95:..\acn-sdk-c\src\wolfSSL\wolfcrypt\src/hash.c ****             break;
  96:..\acn-sdk-c\src\wolfSSL\wolfcrypt\src/hash.c ****         case WC_HASH_TYPE_SHA:
  97:..\acn-sdk-c\src\wolfSSL\wolfcrypt\src/hash.c **** #ifndef NO_SHA
  98:..\acn-sdk-c\src\wolfSSL\wolfcrypt\src/hash.c ****             dig_size = SHA_DIGEST_SIZE;
  99:..\acn-sdk-c\src\wolfSSL\wolfcrypt\src/hash.c **** #endif
 100:..\acn-sdk-c\src\wolfSSL\wolfcrypt\src/hash.c ****             break;
 101:..\acn-sdk-c\src\wolfSSL\wolfcrypt\src/hash.c ****         case WC_HASH_TYPE_SHA256:
 102:..\acn-sdk-c\src\wolfSSL\wolfcrypt\src/hash.c **** #ifndef NO_SHA256
 103:..\acn-sdk-c\src\wolfSSL\wolfcrypt\src/hash.c ****             dig_size = SHA256_DIGEST_SIZE;
 104:..\acn-sdk-c\src\wolfSSL\wolfcrypt\src/hash.c **** #endif
 105:..\acn-sdk-c\src\wolfSSL\wolfcrypt\src/hash.c ****             break;
 106:..\acn-sdk-c\src\wolfSSL\wolfcrypt\src/hash.c ****         case WC_HASH_TYPE_SHA384:
 107:..\acn-sdk-c\src\wolfSSL\wolfcrypt\src/hash.c **** #if defined(WOLFSSL_SHA512) && defined(WOLFSSL_SHA384)
 108:..\acn-sdk-c\src\wolfSSL\wolfcrypt\src/hash.c ****             dig_size = SHA384_DIGEST_SIZE;
 109:..\acn-sdk-c\src\wolfSSL\wolfcrypt\src/hash.c **** #endif
 110:..\acn-sdk-c\src\wolfSSL\wolfcrypt\src/hash.c ****             break;
 111:..\acn-sdk-c\src\wolfSSL\wolfcrypt\src/hash.c ****         case WC_HASH_TYPE_SHA512:
 112:..\acn-sdk-c\src\wolfSSL\wolfcrypt\src/hash.c **** #ifdef WOLFSSL_SHA512
 113:..\acn-sdk-c\src\wolfSSL\wolfcrypt\src/hash.c ****             dig_size = SHA512_DIGEST_SIZE;
 114:..\acn-sdk-c\src\wolfSSL\wolfcrypt\src/hash.c **** #endif
 115:..\acn-sdk-c\src\wolfSSL\wolfcrypt\src/hash.c ****             break;
 116:..\acn-sdk-c\src\wolfSSL\wolfcrypt\src/hash.c **** 
 117:..\acn-sdk-c\src\wolfSSL\wolfcrypt\src/hash.c ****         /* Not Supported */
 118:..\acn-sdk-c\src\wolfSSL\wolfcrypt\src/hash.c ****         case WC_HASH_TYPE_MD2:
 119:..\acn-sdk-c\src\wolfSSL\wolfcrypt\src/hash.c ****         case WC_HASH_TYPE_MD4:
 120:..\acn-sdk-c\src\wolfSSL\wolfcrypt\src/hash.c ****         case WC_HASH_TYPE_NONE:
 121:..\acn-sdk-c\src\wolfSSL\wolfcrypt\src/hash.c ****         default:
 122:..\acn-sdk-c\src\wolfSSL\wolfcrypt\src/hash.c ****             dig_size = BAD_FUNC_ARG;
 123:..\acn-sdk-c\src\wolfSSL\wolfcrypt\src/hash.c ****             break;
 124:..\acn-sdk-c\src\wolfSSL\wolfcrypt\src/hash.c ****     }
 125:..\acn-sdk-c\src\wolfSSL\wolfcrypt\src/hash.c ****     return dig_size;
 126:..\acn-sdk-c\src\wolfSSL\wolfcrypt\src/hash.c **** }
  96              		.loc 1 126 0
  97              		@ sp needed
  98 0014 7047     		bx	lr
  99              	.L13:
 100 0016 C046     		.align	2
ARM GAS  C:\Users\ddemidov\AppData\Local\Temp\ccSQ2E5b.s 			page 5


 101              	.L12:
 102 0018 00000000 		.word	.LANCHOR0
 103              		.cfi_endproc
 104              	.LFE1:
 105              		.size	wc_HashGetDigestSize, .-wc_HashGetDigestSize
 106              		.section	.text.wc_ShaGetHash,"ax",%progbits
 107              		.align	1
 108              		.global	wc_ShaGetHash
 109              		.code	16
 110              		.thumb_func
 111              		.type	wc_ShaGetHash, %function
 112              	wc_ShaGetHash:
 113              	.LFB3:
 127:..\acn-sdk-c\src\wolfSSL\wolfcrypt\src/hash.c **** 
 128:..\acn-sdk-c\src\wolfSSL\wolfcrypt\src/hash.c **** /* Generic Hashing Wrapper */
 129:..\acn-sdk-c\src\wolfSSL\wolfcrypt\src/hash.c **** int wc_Hash(enum wc_HashType hash_type, const byte* data,
 130:..\acn-sdk-c\src\wolfSSL\wolfcrypt\src/hash.c ****     word32 data_len, byte* hash, word32 hash_len)
 131:..\acn-sdk-c\src\wolfSSL\wolfcrypt\src/hash.c **** {
 132:..\acn-sdk-c\src\wolfSSL\wolfcrypt\src/hash.c ****     int ret = HASH_TYPE_E; /* Default to hash type error */
 133:..\acn-sdk-c\src\wolfSSL\wolfcrypt\src/hash.c ****     word32 dig_size;
 134:..\acn-sdk-c\src\wolfSSL\wolfcrypt\src/hash.c **** 
 135:..\acn-sdk-c\src\wolfSSL\wolfcrypt\src/hash.c ****     /* Validate hash buffer size */
 136:..\acn-sdk-c\src\wolfSSL\wolfcrypt\src/hash.c ****     dig_size = wc_HashGetDigestSize(hash_type);
 137:..\acn-sdk-c\src\wolfSSL\wolfcrypt\src/hash.c ****     if (hash_len < dig_size) {
 138:..\acn-sdk-c\src\wolfSSL\wolfcrypt\src/hash.c ****         return BUFFER_E;
 139:..\acn-sdk-c\src\wolfSSL\wolfcrypt\src/hash.c ****     }
 140:..\acn-sdk-c\src\wolfSSL\wolfcrypt\src/hash.c ****     
 141:..\acn-sdk-c\src\wolfSSL\wolfcrypt\src/hash.c ****     /* Suppress possible unused arg if all hashing is disabled */
 142:..\acn-sdk-c\src\wolfSSL\wolfcrypt\src/hash.c ****     (void)data;
 143:..\acn-sdk-c\src\wolfSSL\wolfcrypt\src/hash.c ****     (void)data_len;
 144:..\acn-sdk-c\src\wolfSSL\wolfcrypt\src/hash.c ****     (void)hash;
 145:..\acn-sdk-c\src\wolfSSL\wolfcrypt\src/hash.c ****     (void)hash_len;
 146:..\acn-sdk-c\src\wolfSSL\wolfcrypt\src/hash.c **** 
 147:..\acn-sdk-c\src\wolfSSL\wolfcrypt\src/hash.c ****     switch(hash_type)
 148:..\acn-sdk-c\src\wolfSSL\wolfcrypt\src/hash.c ****     {
 149:..\acn-sdk-c\src\wolfSSL\wolfcrypt\src/hash.c ****         case WC_HASH_TYPE_MD5:
 150:..\acn-sdk-c\src\wolfSSL\wolfcrypt\src/hash.c **** #ifndef NO_MD5
 151:..\acn-sdk-c\src\wolfSSL\wolfcrypt\src/hash.c ****             ret = wc_Md5Hash(data, data_len, hash);
 152:..\acn-sdk-c\src\wolfSSL\wolfcrypt\src/hash.c **** #endif
 153:..\acn-sdk-c\src\wolfSSL\wolfcrypt\src/hash.c ****             break;
 154:..\acn-sdk-c\src\wolfSSL\wolfcrypt\src/hash.c ****         case WC_HASH_TYPE_SHA:
 155:..\acn-sdk-c\src\wolfSSL\wolfcrypt\src/hash.c **** #ifndef NO_SHA
 156:..\acn-sdk-c\src\wolfSSL\wolfcrypt\src/hash.c ****             ret = wc_ShaHash(data, data_len, hash);
 157:..\acn-sdk-c\src\wolfSSL\wolfcrypt\src/hash.c **** #endif
 158:..\acn-sdk-c\src\wolfSSL\wolfcrypt\src/hash.c ****             break;
 159:..\acn-sdk-c\src\wolfSSL\wolfcrypt\src/hash.c ****         case WC_HASH_TYPE_SHA256:
 160:..\acn-sdk-c\src\wolfSSL\wolfcrypt\src/hash.c **** #ifndef NO_SHA256
 161:..\acn-sdk-c\src\wolfSSL\wolfcrypt\src/hash.c ****             ret = wc_Sha256Hash(data, data_len, hash);
 162:..\acn-sdk-c\src\wolfSSL\wolfcrypt\src/hash.c **** #endif
 163:..\acn-sdk-c\src\wolfSSL\wolfcrypt\src/hash.c ****             break;
 164:..\acn-sdk-c\src\wolfSSL\wolfcrypt\src/hash.c ****         case WC_HASH_TYPE_SHA384:
 165:..\acn-sdk-c\src\wolfSSL\wolfcrypt\src/hash.c **** #if defined(WOLFSSL_SHA512) && defined(WOLFSSL_SHA384)
 166:..\acn-sdk-c\src\wolfSSL\wolfcrypt\src/hash.c ****             ret = wc_Sha384Hash(data, data_len, hash);
 167:..\acn-sdk-c\src\wolfSSL\wolfcrypt\src/hash.c **** #endif
 168:..\acn-sdk-c\src\wolfSSL\wolfcrypt\src/hash.c ****             break;
 169:..\acn-sdk-c\src\wolfSSL\wolfcrypt\src/hash.c ****         case WC_HASH_TYPE_SHA512:
 170:..\acn-sdk-c\src\wolfSSL\wolfcrypt\src/hash.c **** #ifdef WOLFSSL_SHA512
ARM GAS  C:\Users\ddemidov\AppData\Local\Temp\ccSQ2E5b.s 			page 6


 171:..\acn-sdk-c\src\wolfSSL\wolfcrypt\src/hash.c ****             ret = wc_Sha512Hash(data, data_len, hash);
 172:..\acn-sdk-c\src\wolfSSL\wolfcrypt\src/hash.c **** #endif
 173:..\acn-sdk-c\src\wolfSSL\wolfcrypt\src/hash.c ****             break;
 174:..\acn-sdk-c\src\wolfSSL\wolfcrypt\src/hash.c **** 
 175:..\acn-sdk-c\src\wolfSSL\wolfcrypt\src/hash.c ****         /* Not Supported */
 176:..\acn-sdk-c\src\wolfSSL\wolfcrypt\src/hash.c ****         case WC_HASH_TYPE_MD2:
 177:..\acn-sdk-c\src\wolfSSL\wolfcrypt\src/hash.c ****         case WC_HASH_TYPE_MD4:
 178:..\acn-sdk-c\src\wolfSSL\wolfcrypt\src/hash.c ****         case WC_HASH_TYPE_NONE:
 179:..\acn-sdk-c\src\wolfSSL\wolfcrypt\src/hash.c ****         default:
 180:..\acn-sdk-c\src\wolfSSL\wolfcrypt\src/hash.c ****             ret = BAD_FUNC_ARG;
 181:..\acn-sdk-c\src\wolfSSL\wolfcrypt\src/hash.c ****             break;
 182:..\acn-sdk-c\src\wolfSSL\wolfcrypt\src/hash.c ****     }
 183:..\acn-sdk-c\src\wolfSSL\wolfcrypt\src/hash.c ****     return ret;
 184:..\acn-sdk-c\src\wolfSSL\wolfcrypt\src/hash.c **** }
 185:..\acn-sdk-c\src\wolfSSL\wolfcrypt\src/hash.c **** 
 186:..\acn-sdk-c\src\wolfSSL\wolfcrypt\src/hash.c **** 
 187:..\acn-sdk-c\src\wolfSSL\wolfcrypt\src/hash.c **** #if !defined(WOLFSSL_TI_HASH)
 188:..\acn-sdk-c\src\wolfSSL\wolfcrypt\src/hash.c **** 
 189:..\acn-sdk-c\src\wolfSSL\wolfcrypt\src/hash.c **** #if !defined(NO_MD5)
 190:..\acn-sdk-c\src\wolfSSL\wolfcrypt\src/hash.c **** void wc_Md5GetHash(Md5* md5, byte* hash)
 191:..\acn-sdk-c\src\wolfSSL\wolfcrypt\src/hash.c **** {
 192:..\acn-sdk-c\src\wolfSSL\wolfcrypt\src/hash.c ****     Md5 save = *md5 ;
 193:..\acn-sdk-c\src\wolfSSL\wolfcrypt\src/hash.c ****     wc_Md5Final(md5, hash) ;
 194:..\acn-sdk-c\src\wolfSSL\wolfcrypt\src/hash.c ****     *md5 = save ;
 195:..\acn-sdk-c\src\wolfSSL\wolfcrypt\src/hash.c **** }
 196:..\acn-sdk-c\src\wolfSSL\wolfcrypt\src/hash.c **** 
 197:..\acn-sdk-c\src\wolfSSL\wolfcrypt\src/hash.c **** WOLFSSL_API void wc_Md5RestorePos(Md5* m1, Md5* m2) {
 198:..\acn-sdk-c\src\wolfSSL\wolfcrypt\src/hash.c ****     *m1 = *m2 ;
 199:..\acn-sdk-c\src\wolfSSL\wolfcrypt\src/hash.c **** }
 200:..\acn-sdk-c\src\wolfSSL\wolfcrypt\src/hash.c **** 
 201:..\acn-sdk-c\src\wolfSSL\wolfcrypt\src/hash.c **** #endif
 202:..\acn-sdk-c\src\wolfSSL\wolfcrypt\src/hash.c **** 
 203:..\acn-sdk-c\src\wolfSSL\wolfcrypt\src/hash.c **** #if !defined(NO_SHA)
 204:..\acn-sdk-c\src\wolfSSL\wolfcrypt\src/hash.c **** int wc_ShaGetHash(Sha* sha, byte* hash)
 205:..\acn-sdk-c\src\wolfSSL\wolfcrypt\src/hash.c **** {
 114              		.loc 1 205 0
 115              		.cfi_startproc
 116              	.LVL6:
 117 0000 70B5     		push	{r4, r5, r6, lr}
 118              		.cfi_def_cfa_offset 16
 119              		.cfi_offset 4, -16
 120              		.cfi_offset 5, -12
 121              		.cfi_offset 6, -8
 122              		.cfi_offset 14, -4
 123 0002 041C     		mov	r4, r0
 206:..\acn-sdk-c\src\wolfSSL\wolfcrypt\src/hash.c ****     int ret ;
 207:..\acn-sdk-c\src\wolfSSL\wolfcrypt\src/hash.c ****     Sha save = *sha ;
 124              		.loc 1 207 0
 125 0004 6025     		mov	r5, #96
 205:..\acn-sdk-c\src\wolfSSL\wolfcrypt\src/hash.c ****     int ret ;
 126              		.loc 1 205 0
 127 0006 0E1C     		mov	r6, r1
 128 0008 98B0     		sub	sp, sp, #96
 129              		.cfi_def_cfa_offset 112
 130              		.loc 1 207 0
 131 000a 2A1C     		mov	r2, r5
 132 000c 211C     		mov	r1, r4
ARM GAS  C:\Users\ddemidov\AppData\Local\Temp\ccSQ2E5b.s 			page 7


 133              	.LVL7:
 134 000e 6846     		mov	r0, sp
 135              	.LVL8:
 136 0010 FFF7FEFF 		bl	memcpy
 137              	.LVL9:
 208:..\acn-sdk-c\src\wolfSSL\wolfcrypt\src/hash.c ****     ret = wc_ShaFinal(sha, hash) ;
 138              		.loc 1 208 0
 139 0014 311C     		mov	r1, r6
 140 0016 201C     		mov	r0, r4
 141 0018 FFF7FEFF 		bl	wc_ShaFinal
 142              	.LVL10:
 143 001c 061C     		mov	r6, r0
 144              	.LVL11:
 209:..\acn-sdk-c\src\wolfSSL\wolfcrypt\src/hash.c ****     *sha = save ;
 145              		.loc 1 209 0
 146 001e 6946     		mov	r1, sp
 147 0020 201C     		mov	r0, r4
 148              	.LVL12:
 149 0022 2A1C     		mov	r2, r5
 150 0024 FFF7FEFF 		bl	memcpy
 151              	.LVL13:
 210:..\acn-sdk-c\src\wolfSSL\wolfcrypt\src/hash.c ****     return ret ;
 211:..\acn-sdk-c\src\wolfSSL\wolfcrypt\src/hash.c **** }
 152              		.loc 1 211 0
 153 0028 301C     		mov	r0, r6
 154 002a 18B0     		add	sp, sp, #96
 155              		@ sp needed
 156              	.LVL14:
 157              	.LVL15:
 158 002c 70BD     		pop	{r4, r5, r6, pc}
 159              		.cfi_endproc
 160              	.LFE3:
 161              		.size	wc_ShaGetHash, .-wc_ShaGetHash
 162              		.section	.text.wc_ShaRestorePos,"ax",%progbits
 163              		.align	1
 164              		.global	wc_ShaRestorePos
 165              		.code	16
 166              		.thumb_func
 167              		.type	wc_ShaRestorePos, %function
 168              	wc_ShaRestorePos:
 169              	.LFB4:
 212:..\acn-sdk-c\src\wolfSSL\wolfcrypt\src/hash.c **** 
 213:..\acn-sdk-c\src\wolfSSL\wolfcrypt\src/hash.c **** void wc_ShaRestorePos(Sha* s1, Sha* s2) {
 170              		.loc 1 213 0
 171              		.cfi_startproc
 172              	.LVL16:
 173 0000 08B5     		push	{r3, lr}
 174              		.cfi_def_cfa_offset 8
 175              		.cfi_offset 3, -8
 176              		.cfi_offset 14, -4
 214:..\acn-sdk-c\src\wolfSSL\wolfcrypt\src/hash.c ****     *s1 = *s2 ;
 177              		.loc 1 214 0
 178 0002 6022     		mov	r2, #96
 179 0004 FFF7FEFF 		bl	memcpy
 180              	.LVL17:
 215:..\acn-sdk-c\src\wolfSSL\wolfcrypt\src/hash.c **** }
 181              		.loc 1 215 0
ARM GAS  C:\Users\ddemidov\AppData\Local\Temp\ccSQ2E5b.s 			page 8


 182              		@ sp needed
 183 0008 08BD     		pop	{r3, pc}
 184              		.cfi_endproc
 185              	.LFE4:
 186              		.size	wc_ShaRestorePos, .-wc_ShaRestorePos
 187              		.section	.text.wc_ShaHash,"ax",%progbits
 188              		.align	1
 189              		.global	wc_ShaHash
 190              		.code	16
 191              		.thumb_func
 192              		.type	wc_ShaHash, %function
 193              	wc_ShaHash:
 194              	.LFB5:
 216:..\acn-sdk-c\src\wolfSSL\wolfcrypt\src/hash.c **** 
 217:..\acn-sdk-c\src\wolfSSL\wolfcrypt\src/hash.c **** int wc_ShaHash(const byte* data, word32 len, byte* hash)
 218:..\acn-sdk-c\src\wolfSSL\wolfcrypt\src/hash.c **** {
 195              		.loc 1 218 0
 196              		.cfi_startproc
 197              	.LVL18:
 198 0000 F0B5     		push	{r4, r5, r6, r7, lr}
 199              		.cfi_def_cfa_offset 20
 200              		.cfi_offset 4, -20
 201              		.cfi_offset 5, -16
 202              		.cfi_offset 6, -12
 203              		.cfi_offset 7, -8
 204              		.cfi_offset 14, -4
 205 0002 99B0     		sub	sp, sp, #100
 206              		.cfi_def_cfa_offset 120
 207              		.loc 1 218 0
 208 0004 071C     		mov	r7, r0
 219:..\acn-sdk-c\src\wolfSSL\wolfcrypt\src/hash.c ****     int ret = 0;
 220:..\acn-sdk-c\src\wolfSSL\wolfcrypt\src/hash.c **** #ifdef WOLFSSL_SMALL_STACK
 221:..\acn-sdk-c\src\wolfSSL\wolfcrypt\src/hash.c ****     Sha* sha;
 222:..\acn-sdk-c\src\wolfSSL\wolfcrypt\src/hash.c **** #else
 223:..\acn-sdk-c\src\wolfSSL\wolfcrypt\src/hash.c ****     Sha sha[1];
 224:..\acn-sdk-c\src\wolfSSL\wolfcrypt\src/hash.c **** #endif
 225:..\acn-sdk-c\src\wolfSSL\wolfcrypt\src/hash.c **** 
 226:..\acn-sdk-c\src\wolfSSL\wolfcrypt\src/hash.c **** #ifdef WOLFSSL_SMALL_STACK
 227:..\acn-sdk-c\src\wolfSSL\wolfcrypt\src/hash.c ****     sha = (Sha*)XMALLOC(sizeof(Sha), NULL, DYNAMIC_TYPE_TMP_BUFFER);
 228:..\acn-sdk-c\src\wolfSSL\wolfcrypt\src/hash.c ****     if (sha == NULL)
 229:..\acn-sdk-c\src\wolfSSL\wolfcrypt\src/hash.c ****         return MEMORY_E;
 230:..\acn-sdk-c\src\wolfSSL\wolfcrypt\src/hash.c **** #endif
 231:..\acn-sdk-c\src\wolfSSL\wolfcrypt\src/hash.c **** 
 232:..\acn-sdk-c\src\wolfSSL\wolfcrypt\src/hash.c ****     if ((ret = wc_InitSha(sha)) != 0) {
 209              		.loc 1 232 0
 210 0006 6846     		mov	r0, sp
 211              	.LVL19:
 218:..\acn-sdk-c\src\wolfSSL\wolfcrypt\src/hash.c ****     int ret = 0;
 212              		.loc 1 218 0
 213 0008 0E1C     		mov	r6, r1
 214 000a 151C     		mov	r5, r2
 215              		.loc 1 232 0
 216 000c FFF7FEFF 		bl	wc_InitSha
 217              	.LVL20:
 218 0010 041E     		sub	r4, r0, #0
 219              	.LVL21:
 220 0012 08D1     		bne	.L17
ARM GAS  C:\Users\ddemidov\AppData\Local\Temp\ccSQ2E5b.s 			page 9


 233:..\acn-sdk-c\src\wolfSSL\wolfcrypt\src/hash.c ****         WOLFSSL_MSG("wc_InitSha failed");
 234:..\acn-sdk-c\src\wolfSSL\wolfcrypt\src/hash.c ****     }
 235:..\acn-sdk-c\src\wolfSSL\wolfcrypt\src/hash.c ****     else {
 236:..\acn-sdk-c\src\wolfSSL\wolfcrypt\src/hash.c ****         wc_ShaUpdate(sha, data, len);
 221              		.loc 1 236 0
 222 0014 391C     		mov	r1, r7
 223 0016 6846     		mov	r0, sp
 224              	.LVL22:
 225 0018 321C     		mov	r2, r6
 226 001a FFF7FEFF 		bl	wc_ShaUpdate
 227              	.LVL23:
 237:..\acn-sdk-c\src\wolfSSL\wolfcrypt\src/hash.c ****         wc_ShaFinal(sha, hash);
 228              		.loc 1 237 0
 229 001e 6846     		mov	r0, sp
 230 0020 291C     		mov	r1, r5
 231 0022 FFF7FEFF 		bl	wc_ShaFinal
 232              	.LVL24:
 233              	.L17:
 238:..\acn-sdk-c\src\wolfSSL\wolfcrypt\src/hash.c ****     }
 239:..\acn-sdk-c\src\wolfSSL\wolfcrypt\src/hash.c **** 
 240:..\acn-sdk-c\src\wolfSSL\wolfcrypt\src/hash.c **** #ifdef WOLFSSL_SMALL_STACK
 241:..\acn-sdk-c\src\wolfSSL\wolfcrypt\src/hash.c ****     XFREE(sha, NULL, DYNAMIC_TYPE_TMP_BUFFER);
 242:..\acn-sdk-c\src\wolfSSL\wolfcrypt\src/hash.c **** #endif
 243:..\acn-sdk-c\src\wolfSSL\wolfcrypt\src/hash.c **** 
 244:..\acn-sdk-c\src\wolfSSL\wolfcrypt\src/hash.c ****     return ret;
 245:..\acn-sdk-c\src\wolfSSL\wolfcrypt\src/hash.c **** 
 246:..\acn-sdk-c\src\wolfSSL\wolfcrypt\src/hash.c **** }
 234              		.loc 1 246 0
 235 0026 201C     		mov	r0, r4
 236 0028 19B0     		add	sp, sp, #100
 237              		@ sp needed
 238              	.LVL25:
 239              	.LVL26:
 240              	.LVL27:
 241              	.LVL28:
 242 002a F0BD     		pop	{r4, r5, r6, r7, pc}
 243              		.cfi_endproc
 244              	.LFE5:
 245              		.size	wc_ShaHash, .-wc_ShaHash
 246              		.section	.text.wc_Sha256GetHash,"ax",%progbits
 247              		.align	1
 248              		.global	wc_Sha256GetHash
 249              		.code	16
 250              		.thumb_func
 251              		.type	wc_Sha256GetHash, %function
 252              	wc_Sha256GetHash:
 253              	.LFB6:
 247:..\acn-sdk-c\src\wolfSSL\wolfcrypt\src/hash.c **** 
 248:..\acn-sdk-c\src\wolfSSL\wolfcrypt\src/hash.c **** #endif /* !defined(NO_SHA) */
 249:..\acn-sdk-c\src\wolfSSL\wolfcrypt\src/hash.c **** 
 250:..\acn-sdk-c\src\wolfSSL\wolfcrypt\src/hash.c **** #if !defined(NO_SHA256)
 251:..\acn-sdk-c\src\wolfSSL\wolfcrypt\src/hash.c **** int wc_Sha256GetHash(Sha256* sha256, byte* hash)
 252:..\acn-sdk-c\src\wolfSSL\wolfcrypt\src/hash.c **** {
 254              		.loc 1 252 0
 255              		.cfi_startproc
 256              	.LVL29:
 257 0000 70B5     		push	{r4, r5, r6, lr}
ARM GAS  C:\Users\ddemidov\AppData\Local\Temp\ccSQ2E5b.s 			page 10


 258              		.cfi_def_cfa_offset 16
 259              		.cfi_offset 4, -16
 260              		.cfi_offset 5, -12
 261              		.cfi_offset 6, -8
 262              		.cfi_offset 14, -4
 263 0002 041C     		mov	r4, r0
 253:..\acn-sdk-c\src\wolfSSL\wolfcrypt\src/hash.c ****     int ret ;
 254:..\acn-sdk-c\src\wolfSSL\wolfcrypt\src/hash.c ****     Sha256 save = *sha256 ;
 264              		.loc 1 254 0
 265 0004 6C25     		mov	r5, #108
 252:..\acn-sdk-c\src\wolfSSL\wolfcrypt\src/hash.c ****     int ret ;
 266              		.loc 1 252 0
 267 0006 0E1C     		mov	r6, r1
 268 0008 9CB0     		sub	sp, sp, #112
 269              		.cfi_def_cfa_offset 128
 270              		.loc 1 254 0
 271 000a 2A1C     		mov	r2, r5
 272 000c 211C     		mov	r1, r4
 273              	.LVL30:
 274 000e 01A8     		add	r0, sp, #4
 275              	.LVL31:
 276 0010 FFF7FEFF 		bl	memcpy
 277              	.LVL32:
 255:..\acn-sdk-c\src\wolfSSL\wolfcrypt\src/hash.c ****     ret = wc_Sha256Final(sha256, hash) ;
 278              		.loc 1 255 0
 279 0014 311C     		mov	r1, r6
 280 0016 201C     		mov	r0, r4
 281 0018 FFF7FEFF 		bl	wc_Sha256Final
 282              	.LVL33:
 283 001c 061C     		mov	r6, r0
 284              	.LVL34:
 256:..\acn-sdk-c\src\wolfSSL\wolfcrypt\src/hash.c ****     *sha256 = save ;
 285              		.loc 1 256 0
 286 001e 01A9     		add	r1, sp, #4
 287 0020 201C     		mov	r0, r4
 288              	.LVL35:
 289 0022 2A1C     		mov	r2, r5
 290 0024 FFF7FEFF 		bl	memcpy
 291              	.LVL36:
 257:..\acn-sdk-c\src\wolfSSL\wolfcrypt\src/hash.c ****     return ret ;
 258:..\acn-sdk-c\src\wolfSSL\wolfcrypt\src/hash.c **** }
 292              		.loc 1 258 0
 293 0028 301C     		mov	r0, r6
 294 002a 1CB0     		add	sp, sp, #112
 295              		@ sp needed
 296              	.LVL37:
 297              	.LVL38:
 298 002c 70BD     		pop	{r4, r5, r6, pc}
 299              		.cfi_endproc
 300              	.LFE6:
 301              		.size	wc_Sha256GetHash, .-wc_Sha256GetHash
 302              		.section	.text.wc_Sha256RestorePos,"ax",%progbits
 303              		.align	1
 304              		.global	wc_Sha256RestorePos
 305              		.code	16
 306              		.thumb_func
 307              		.type	wc_Sha256RestorePos, %function
ARM GAS  C:\Users\ddemidov\AppData\Local\Temp\ccSQ2E5b.s 			page 11


 308              	wc_Sha256RestorePos:
 309              	.LFB7:
 259:..\acn-sdk-c\src\wolfSSL\wolfcrypt\src/hash.c **** 
 260:..\acn-sdk-c\src\wolfSSL\wolfcrypt\src/hash.c **** void wc_Sha256RestorePos(Sha256* s1, Sha256* s2) {
 310              		.loc 1 260 0
 311              		.cfi_startproc
 312              	.LVL39:
 313 0000 08B5     		push	{r3, lr}
 314              		.cfi_def_cfa_offset 8
 315              		.cfi_offset 3, -8
 316              		.cfi_offset 14, -4
 261:..\acn-sdk-c\src\wolfSSL\wolfcrypt\src/hash.c ****     *s1 = *s2 ;
 317              		.loc 1 261 0
 318 0002 6C22     		mov	r2, #108
 319 0004 FFF7FEFF 		bl	memcpy
 320              	.LVL40:
 262:..\acn-sdk-c\src\wolfSSL\wolfcrypt\src/hash.c **** }
 321              		.loc 1 262 0
 322              		@ sp needed
 323 0008 08BD     		pop	{r3, pc}
 324              		.cfi_endproc
 325              	.LFE7:
 326              		.size	wc_Sha256RestorePos, .-wc_Sha256RestorePos
 327              		.section	.text.wc_Sha256Hash,"ax",%progbits
 328              		.align	1
 329              		.global	wc_Sha256Hash
 330              		.code	16
 331              		.thumb_func
 332              		.type	wc_Sha256Hash, %function
 333              	wc_Sha256Hash:
 334              	.LFB8:
 263:..\acn-sdk-c\src\wolfSSL\wolfcrypt\src/hash.c **** 
 264:..\acn-sdk-c\src\wolfSSL\wolfcrypt\src/hash.c **** int wc_Sha256Hash(const byte* data, word32 len, byte* hash)
 265:..\acn-sdk-c\src\wolfSSL\wolfcrypt\src/hash.c **** {
 335              		.loc 1 265 0
 336              		.cfi_startproc
 337              	.LVL41:
 338 0000 70B5     		push	{r4, r5, r6, lr}
 339              		.cfi_def_cfa_offset 16
 340              		.cfi_offset 4, -16
 341              		.cfi_offset 5, -12
 342              		.cfi_offset 6, -8
 343              		.cfi_offset 14, -4
 344 0002 9CB0     		sub	sp, sp, #112
 345              		.cfi_def_cfa_offset 128
 346              		.loc 1 265 0
 347 0004 061C     		mov	r6, r0
 266:..\acn-sdk-c\src\wolfSSL\wolfcrypt\src/hash.c ****     int ret = 0;
 267:..\acn-sdk-c\src\wolfSSL\wolfcrypt\src/hash.c **** #ifdef WOLFSSL_SMALL_STACK
 268:..\acn-sdk-c\src\wolfSSL\wolfcrypt\src/hash.c ****     Sha256* sha256;
 269:..\acn-sdk-c\src\wolfSSL\wolfcrypt\src/hash.c **** #else
 270:..\acn-sdk-c\src\wolfSSL\wolfcrypt\src/hash.c ****     Sha256 sha256[1];
 271:..\acn-sdk-c\src\wolfSSL\wolfcrypt\src/hash.c **** #endif
 272:..\acn-sdk-c\src\wolfSSL\wolfcrypt\src/hash.c **** 
 273:..\acn-sdk-c\src\wolfSSL\wolfcrypt\src/hash.c **** #ifdef WOLFSSL_SMALL_STACK
 274:..\acn-sdk-c\src\wolfSSL\wolfcrypt\src/hash.c ****     sha256 = (Sha256*)XMALLOC(sizeof(Sha256), NULL, DYNAMIC_TYPE_TMP_BUFFER);
 275:..\acn-sdk-c\src\wolfSSL\wolfcrypt\src/hash.c ****     if (sha256 == NULL)
ARM GAS  C:\Users\ddemidov\AppData\Local\Temp\ccSQ2E5b.s 			page 12


 276:..\acn-sdk-c\src\wolfSSL\wolfcrypt\src/hash.c ****         return MEMORY_E;
 277:..\acn-sdk-c\src\wolfSSL\wolfcrypt\src/hash.c **** #endif
 278:..\acn-sdk-c\src\wolfSSL\wolfcrypt\src/hash.c **** 
 279:..\acn-sdk-c\src\wolfSSL\wolfcrypt\src/hash.c ****     if ((ret = wc_InitSha256(sha256)) != 0) {
 348              		.loc 1 279 0
 349 0006 01A8     		add	r0, sp, #4
 350              	.LVL42:
 265:..\acn-sdk-c\src\wolfSSL\wolfcrypt\src/hash.c ****     int ret = 0;
 351              		.loc 1 265 0
 352 0008 0D1C     		mov	r5, r1
 353 000a 141C     		mov	r4, r2
 354              		.loc 1 279 0
 355 000c FFF7FEFF 		bl	wc_InitSha256
 356              	.LVL43:
 357 0010 0028     		cmp	r0, #0
 358 0012 0AD1     		bne	.L21
 280:..\acn-sdk-c\src\wolfSSL\wolfcrypt\src/hash.c ****         WOLFSSL_MSG("InitSha256 failed");
 281:..\acn-sdk-c\src\wolfSSL\wolfcrypt\src/hash.c ****     }
 282:..\acn-sdk-c\src\wolfSSL\wolfcrypt\src/hash.c ****     else if ((ret = wc_Sha256Update(sha256, data, len)) != 0) {
 359              		.loc 1 282 0
 360 0014 01A8     		add	r0, sp, #4
 361              	.LVL44:
 362 0016 311C     		mov	r1, r6
 363 0018 2A1C     		mov	r2, r5
 364 001a FFF7FEFF 		bl	wc_Sha256Update
 365              	.LVL45:
 366 001e 0028     		cmp	r0, #0
 367 0020 03D1     		bne	.L21
 283:..\acn-sdk-c\src\wolfSSL\wolfcrypt\src/hash.c ****         WOLFSSL_MSG("Sha256Update failed");
 284:..\acn-sdk-c\src\wolfSSL\wolfcrypt\src/hash.c ****     }
 285:..\acn-sdk-c\src\wolfSSL\wolfcrypt\src/hash.c ****     else if ((ret = wc_Sha256Final(sha256, hash)) != 0) {
 368              		.loc 1 285 0
 369 0022 01A8     		add	r0, sp, #4
 370              	.LVL46:
 371 0024 211C     		mov	r1, r4
 372 0026 FFF7FEFF 		bl	wc_Sha256Final
 373              	.LVL47:
 374              	.L21:
 286:..\acn-sdk-c\src\wolfSSL\wolfcrypt\src/hash.c ****         WOLFSSL_MSG("Sha256Final failed");
 287:..\acn-sdk-c\src\wolfSSL\wolfcrypt\src/hash.c ****     }
 288:..\acn-sdk-c\src\wolfSSL\wolfcrypt\src/hash.c **** 
 289:..\acn-sdk-c\src\wolfSSL\wolfcrypt\src/hash.c **** #ifdef WOLFSSL_SMALL_STACK
 290:..\acn-sdk-c\src\wolfSSL\wolfcrypt\src/hash.c ****     XFREE(sha256, NULL, DYNAMIC_TYPE_TMP_BUFFER);
 291:..\acn-sdk-c\src\wolfSSL\wolfcrypt\src/hash.c **** #endif
 292:..\acn-sdk-c\src\wolfSSL\wolfcrypt\src/hash.c **** 
 293:..\acn-sdk-c\src\wolfSSL\wolfcrypt\src/hash.c ****     return ret;
 294:..\acn-sdk-c\src\wolfSSL\wolfcrypt\src/hash.c **** }
 375              		.loc 1 294 0
 376 002a 1CB0     		add	sp, sp, #112
 377              		@ sp needed
 378              	.LVL48:
 379              	.LVL49:
 380              	.LVL50:
 381 002c 70BD     		pop	{r4, r5, r6, pc}
 382              		.cfi_endproc
 383              	.LFE8:
 384              		.size	wc_Sha256Hash, .-wc_Sha256Hash
ARM GAS  C:\Users\ddemidov\AppData\Local\Temp\ccSQ2E5b.s 			page 13


 385              		.section	.text.wc_Hash,"ax",%progbits
 386              		.align	1
 387              		.global	wc_Hash
 388              		.code	16
 389              		.thumb_func
 390              		.type	wc_Hash, %function
 391              	wc_Hash:
 392              	.LFB2:
 131:..\acn-sdk-c\src\wolfSSL\wolfcrypt\src/hash.c ****     int ret = HASH_TYPE_E; /* Default to hash type error */
 393              		.loc 1 131 0
 394              		.cfi_startproc
 395              	.LVL51:
 396 0000 F8B5     		push	{r3, r4, r5, r6, r7, lr}
 397              		.cfi_def_cfa_offset 24
 398              		.cfi_offset 3, -24
 399              		.cfi_offset 4, -20
 400              		.cfi_offset 5, -16
 401              		.cfi_offset 6, -12
 402              		.cfi_offset 7, -8
 403              		.cfi_offset 14, -4
 131:..\acn-sdk-c\src\wolfSSL\wolfcrypt\src/hash.c ****     int ret = HASH_TYPE_E; /* Default to hash type error */
 404              		.loc 1 131 0
 405 0002 1D1C     		mov	r5, r3
 406 0004 041C     		mov	r4, r0
 407 0006 0F1C     		mov	r7, r1
 408 0008 161C     		mov	r6, r2
 136:..\acn-sdk-c\src\wolfSSL\wolfcrypt\src/hash.c ****     if (hash_len < dig_size) {
 409              		.loc 1 136 0
 410 000a FFF7FEFF 		bl	wc_HashGetDigestSize
 411              	.LVL52:
 137:..\acn-sdk-c\src\wolfSSL\wolfcrypt\src/hash.c ****         return BUFFER_E;
 412              		.loc 1 137 0
 413 000e 069B     		ldr	r3, [sp, #24]
 414 0010 8342     		cmp	r3, r0
 415 0012 15D3     		bcc	.L28
 147:..\acn-sdk-c\src\wolfSSL\wolfcrypt\src/hash.c ****     {
 416              		.loc 1 147 0
 417 0014 E01E     		sub	r0, r4, #3
 418              	.LVL53:
 419 0016 0428     		cmp	r0, #4
 420 0018 04D8     		bhi	.L24
 421 001a FFF7FEFF 		bl	__gnu_thumb1_case_uqi
 422              	.L25:
 423 001e 13       		.byte	(.L29-.L25)/2
 424 001f 05       		.byte	(.L26-.L25)/2
 425 0020 0B       		.byte	(.L27-.L25)/2
 426 0021 13       		.byte	(.L29-.L25)/2
 427 0022 13       		.byte	(.L29-.L25)/2
 428 0023 00       		.p2align 1
 429              	.L24:
 180:..\acn-sdk-c\src\wolfSSL\wolfcrypt\src/hash.c ****             break;
 430              		.loc 1 180 0
 431 0024 AD20     		mov	r0, #173
 432 0026 0EE0     		b	.L30
 433              	.L26:
 156:..\acn-sdk-c\src\wolfSSL\wolfcrypt\src/hash.c **** #endif
 434              		.loc 1 156 0
ARM GAS  C:\Users\ddemidov\AppData\Local\Temp\ccSQ2E5b.s 			page 14


 435 0028 381C     		mov	r0, r7
 436 002a 311C     		mov	r1, r6
 437 002c 2A1C     		mov	r2, r5
 438 002e FFF7FEFF 		bl	wc_ShaHash
 439              	.LVL54:
 158:..\acn-sdk-c\src\wolfSSL\wolfcrypt\src/hash.c ****         case WC_HASH_TYPE_SHA256:
 440              		.loc 1 158 0
 441 0032 09E0     		b	.L23
 442              	.LVL55:
 443              	.L27:
 161:..\acn-sdk-c\src\wolfSSL\wolfcrypt\src/hash.c **** #endif
 444              		.loc 1 161 0
 445 0034 381C     		mov	r0, r7
 446 0036 311C     		mov	r1, r6
 447 0038 2A1C     		mov	r2, r5
 448 003a FFF7FEFF 		bl	wc_Sha256Hash
 449              	.LVL56:
 163:..\acn-sdk-c\src\wolfSSL\wolfcrypt\src/hash.c ****         case WC_HASH_TYPE_SHA384:
 450              		.loc 1 163 0
 451 003e 03E0     		b	.L23
 452              	.LVL57:
 453              	.L28:
 138:..\acn-sdk-c\src\wolfSSL\wolfcrypt\src/hash.c ****     }
 454              		.loc 1 138 0
 455 0040 8420     		mov	r0, #132
 456              	.LVL58:
 457 0042 00E0     		b	.L30
 458              	.L29:
 132:..\acn-sdk-c\src\wolfSSL\wolfcrypt\src/hash.c ****     word32 dig_size;
 459              		.loc 1 132 0
 460 0044 E820     		mov	r0, #232
 461              	.L30:
 462 0046 4042     		neg	r0, r0
 463              	.LVL59:
 464              	.L23:
 184:..\acn-sdk-c\src\wolfSSL\wolfcrypt\src/hash.c **** 
 465              		.loc 1 184 0
 466              		@ sp needed
 467              	.LVL60:
 468              	.LVL61:
 469              	.LVL62:
 470 0048 F8BD     		pop	{r3, r4, r5, r6, r7, pc}
 471              		.cfi_endproc
 472              	.LFE2:
 473              		.size	wc_Hash, .-wc_Hash
 474              		.section	.rodata
 475              		.align	1
 476              		.set	.LANCHOR0,. + 0
 477              		.type	CSWTCH.2, %object
 478              		.size	CSWTCH.2, 10
 479              	CSWTCH.2:
 480 0000 18FF     		.short	-232
 481 0002 1400     		.short	20
 482 0004 2000     		.short	32
 483 0006 18FF     		.short	-232
 484 0008 18FF     		.short	-232
 485              		.text
ARM GAS  C:\Users\ddemidov\AppData\Local\Temp\ccSQ2E5b.s 			page 15


 486              	.Letext0:
 487              		.file 2 "..\\acn-sdk-c\\src\\wolfSSL/wolfssl/wolfcrypt/types.h"
 488              		.file 3 "..\\acn-sdk-c\\src\\wolfSSL/wolfssl/wolfcrypt/error-crypt.h"
 489              		.file 4 "..\\acn-sdk-c\\src\\wolfSSL/wolfssl/wolfcrypt/sha256.h"
 490              		.file 5 "..\\acn-sdk-c\\src\\wolfSSL/wolfssl/wolfcrypt/sha.h"
 491              		.file 6 "..\\acn-sdk-c\\src\\wolfSSL/wolfssl/wolfcrypt/asn.h"
 492              		.file 7 "..\\acn-sdk-c\\src\\wolfSSL/wolfssl/wolfcrypt/hash.h"