ARM GAS  C:\Users\ddemidov\AppData\Local\Temp\cc7B0Nwh.s 			page 1


   1              		.cpu cortex-m0
   2              		.fpu softvfp
   3              		.eabi_attribute 20, 1
   4              		.eabi_attribute 21, 1
   5              		.eabi_attribute 23, 3
   6              		.eabi_attribute 24, 1
   7              		.eabi_attribute 25, 1
   8              		.eabi_attribute 26, 1
   9              		.eabi_attribute 30, 4
  10              		.eabi_attribute 34, 0
  11              		.eabi_attribute 18, 4
  12              		.code	16
  13              		.file	"hmac.c"
  14              		.text
  15              	.Ltext0:
  16              		.cfi_sections	.debug_frame
  17              		.section	.text.HmacKeyInnerHash,"ax",%progbits
  18              		.align	1
  19              		.code	16
  20              		.thumb_func
  21              		.type	HmacKeyInnerHash, %function
  22              	HmacKeyInnerHash:
  23              	.LFB2:
  24              		.file 1 "..\\acn-sdk-c\\src\\wolfSSL\\wolfcrypt\\src\\hmac.c"
   1:..\acn-sdk-c\src\wolfSSL\wolfcrypt\src/hmac.c **** /* hmac.h
   2:..\acn-sdk-c\src\wolfSSL\wolfcrypt\src/hmac.c ****  *
   3:..\acn-sdk-c\src\wolfSSL\wolfcrypt\src/hmac.c ****  * Copyright (C) 2006-2016 wolfSSL Inc.
   4:..\acn-sdk-c\src\wolfSSL\wolfcrypt\src/hmac.c ****  *
   5:..\acn-sdk-c\src\wolfSSL\wolfcrypt\src/hmac.c ****  * This file is part of wolfSSL.
   6:..\acn-sdk-c\src\wolfSSL\wolfcrypt\src/hmac.c ****  *
   7:..\acn-sdk-c\src\wolfSSL\wolfcrypt\src/hmac.c ****  * wolfSSL is free software; you can redistribute it and/or modify
   8:..\acn-sdk-c\src\wolfSSL\wolfcrypt\src/hmac.c ****  * it under the terms of the GNU General Public License as published by
   9:..\acn-sdk-c\src\wolfSSL\wolfcrypt\src/hmac.c ****  * the Free Software Foundation; either version 2 of the License, or
  10:..\acn-sdk-c\src\wolfSSL\wolfcrypt\src/hmac.c ****  * (at your option) any later version.
  11:..\acn-sdk-c\src\wolfSSL\wolfcrypt\src/hmac.c ****  *
  12:..\acn-sdk-c\src\wolfSSL\wolfcrypt\src/hmac.c ****  * wolfSSL is distributed in the hope that it will be useful,
  13:..\acn-sdk-c\src\wolfSSL\wolfcrypt\src/hmac.c ****  * but WITHOUT ANY WARRANTY; without even the implied warranty of
  14:..\acn-sdk-c\src\wolfSSL\wolfcrypt\src/hmac.c ****  * MERCHANTABILITY or FITNESS FOR A PARTICULAR PURPOSE.  See the
  15:..\acn-sdk-c\src\wolfSSL\wolfcrypt\src/hmac.c ****  * GNU General Public License for more details.
  16:..\acn-sdk-c\src\wolfSSL\wolfcrypt\src/hmac.c ****  *
  17:..\acn-sdk-c\src\wolfSSL\wolfcrypt\src/hmac.c ****  * You should have received a copy of the GNU General Public License
  18:..\acn-sdk-c\src\wolfSSL\wolfcrypt\src/hmac.c ****  * along with this program; if not, write to the Free Software
  19:..\acn-sdk-c\src\wolfSSL\wolfcrypt\src/hmac.c ****  * Foundation, Inc., 51 Franklin Street, Fifth Floor, Boston, MA 02110-1335, USA
  20:..\acn-sdk-c\src\wolfSSL\wolfcrypt\src/hmac.c ****  */
  21:..\acn-sdk-c\src\wolfSSL\wolfcrypt\src/hmac.c **** 
  22:..\acn-sdk-c\src\wolfSSL\wolfcrypt\src/hmac.c **** 
  23:..\acn-sdk-c\src\wolfSSL\wolfcrypt\src/hmac.c **** #ifdef HAVE_CONFIG_H
  24:..\acn-sdk-c\src\wolfSSL\wolfcrypt\src/hmac.c ****     #include <config.h>
  25:..\acn-sdk-c\src\wolfSSL\wolfcrypt\src/hmac.c **** #endif
  26:..\acn-sdk-c\src\wolfSSL\wolfcrypt\src/hmac.c **** 
  27:..\acn-sdk-c\src\wolfSSL\wolfcrypt\src/hmac.c **** #include <wolfssl/wolfcrypt/settings.h>
  28:..\acn-sdk-c\src\wolfSSL\wolfcrypt\src/hmac.c **** 
  29:..\acn-sdk-c\src\wolfSSL\wolfcrypt\src/hmac.c **** #ifndef NO_HMAC
  30:..\acn-sdk-c\src\wolfSSL\wolfcrypt\src/hmac.c **** 
  31:..\acn-sdk-c\src\wolfSSL\wolfcrypt\src/hmac.c **** #include <wolfssl/wolfcrypt/hmac.h>
  32:..\acn-sdk-c\src\wolfSSL\wolfcrypt\src/hmac.c **** 
  33:..\acn-sdk-c\src\wolfSSL\wolfcrypt\src/hmac.c **** #ifdef HAVE_FIPS
ARM GAS  C:\Users\ddemidov\AppData\Local\Temp\cc7B0Nwh.s 			page 2


  34:..\acn-sdk-c\src\wolfSSL\wolfcrypt\src/hmac.c **** /* does init */
  35:..\acn-sdk-c\src\wolfSSL\wolfcrypt\src/hmac.c **** int wc_HmacSetKey(Hmac* hmac, int type, const byte* key, word32 keySz)
  36:..\acn-sdk-c\src\wolfSSL\wolfcrypt\src/hmac.c **** {
  37:..\acn-sdk-c\src\wolfSSL\wolfcrypt\src/hmac.c ****     return HmacSetKey_fips(hmac, type, key, keySz);
  38:..\acn-sdk-c\src\wolfSSL\wolfcrypt\src/hmac.c **** }
  39:..\acn-sdk-c\src\wolfSSL\wolfcrypt\src/hmac.c **** 
  40:..\acn-sdk-c\src\wolfSSL\wolfcrypt\src/hmac.c **** 
  41:..\acn-sdk-c\src\wolfSSL\wolfcrypt\src/hmac.c **** int wc_HmacUpdate(Hmac* hmac, const byte* in, word32 sz)
  42:..\acn-sdk-c\src\wolfSSL\wolfcrypt\src/hmac.c **** {
  43:..\acn-sdk-c\src\wolfSSL\wolfcrypt\src/hmac.c ****     return HmacUpdate_fips(hmac, in, sz);
  44:..\acn-sdk-c\src\wolfSSL\wolfcrypt\src/hmac.c **** }
  45:..\acn-sdk-c\src\wolfSSL\wolfcrypt\src/hmac.c **** 
  46:..\acn-sdk-c\src\wolfSSL\wolfcrypt\src/hmac.c **** 
  47:..\acn-sdk-c\src\wolfSSL\wolfcrypt\src/hmac.c **** int wc_HmacFinal(Hmac* hmac, byte* out)
  48:..\acn-sdk-c\src\wolfSSL\wolfcrypt\src/hmac.c **** {
  49:..\acn-sdk-c\src\wolfSSL\wolfcrypt\src/hmac.c ****     return HmacFinal_fips(hmac, out);
  50:..\acn-sdk-c\src\wolfSSL\wolfcrypt\src/hmac.c **** }
  51:..\acn-sdk-c\src\wolfSSL\wolfcrypt\src/hmac.c **** 
  52:..\acn-sdk-c\src\wolfSSL\wolfcrypt\src/hmac.c **** 
  53:..\acn-sdk-c\src\wolfSSL\wolfcrypt\src/hmac.c **** #ifdef HAVE_CAVIUM
  54:..\acn-sdk-c\src\wolfSSL\wolfcrypt\src/hmac.c ****     int  wc_HmacInitCavium(Hmac* hmac, int i)
  55:..\acn-sdk-c\src\wolfSSL\wolfcrypt\src/hmac.c ****     {
  56:..\acn-sdk-c\src\wolfSSL\wolfcrypt\src/hmac.c ****         return HmacInitCavium(hmac, i);
  57:..\acn-sdk-c\src\wolfSSL\wolfcrypt\src/hmac.c ****     }
  58:..\acn-sdk-c\src\wolfSSL\wolfcrypt\src/hmac.c **** 
  59:..\acn-sdk-c\src\wolfSSL\wolfcrypt\src/hmac.c **** 
  60:..\acn-sdk-c\src\wolfSSL\wolfcrypt\src/hmac.c ****     void wc_HmacFreeCavium(Hmac* hmac)
  61:..\acn-sdk-c\src\wolfSSL\wolfcrypt\src/hmac.c ****     {
  62:..\acn-sdk-c\src\wolfSSL\wolfcrypt\src/hmac.c ****         HmacFreeCavium(hmac);
  63:..\acn-sdk-c\src\wolfSSL\wolfcrypt\src/hmac.c ****     }
  64:..\acn-sdk-c\src\wolfSSL\wolfcrypt\src/hmac.c **** #endif
  65:..\acn-sdk-c\src\wolfSSL\wolfcrypt\src/hmac.c **** 
  66:..\acn-sdk-c\src\wolfSSL\wolfcrypt\src/hmac.c **** int wolfSSL_GetHmacMaxSize(void)
  67:..\acn-sdk-c\src\wolfSSL\wolfcrypt\src/hmac.c **** {
  68:..\acn-sdk-c\src\wolfSSL\wolfcrypt\src/hmac.c ****     return CyaSSL_GetHmacMaxSize();
  69:..\acn-sdk-c\src\wolfSSL\wolfcrypt\src/hmac.c **** }
  70:..\acn-sdk-c\src\wolfSSL\wolfcrypt\src/hmac.c **** 
  71:..\acn-sdk-c\src\wolfSSL\wolfcrypt\src/hmac.c **** #ifdef HAVE_HKDF
  72:..\acn-sdk-c\src\wolfSSL\wolfcrypt\src/hmac.c **** 
  73:..\acn-sdk-c\src\wolfSSL\wolfcrypt\src/hmac.c **** int wc_HKDF(int type, const byte* inKey, word32 inKeySz,
  74:..\acn-sdk-c\src\wolfSSL\wolfcrypt\src/hmac.c ****                     const byte* salt, word32 saltSz,
  75:..\acn-sdk-c\src\wolfSSL\wolfcrypt\src/hmac.c ****                     const byte* info, word32 infoSz,
  76:..\acn-sdk-c\src\wolfSSL\wolfcrypt\src/hmac.c ****                     byte* out, word32 outSz)
  77:..\acn-sdk-c\src\wolfSSL\wolfcrypt\src/hmac.c **** {
  78:..\acn-sdk-c\src\wolfSSL\wolfcrypt\src/hmac.c ****     return HKDF(type, inKey, inKeySz, salt, saltSz, info, infoSz, out, outSz);
  79:..\acn-sdk-c\src\wolfSSL\wolfcrypt\src/hmac.c **** }
  80:..\acn-sdk-c\src\wolfSSL\wolfcrypt\src/hmac.c **** 
  81:..\acn-sdk-c\src\wolfSSL\wolfcrypt\src/hmac.c **** 
  82:..\acn-sdk-c\src\wolfSSL\wolfcrypt\src/hmac.c **** #endif /* HAVE_HKDF */
  83:..\acn-sdk-c\src\wolfSSL\wolfcrypt\src/hmac.c **** #else /* else build without fips */
  84:..\acn-sdk-c\src\wolfSSL\wolfcrypt\src/hmac.c **** #ifdef WOLFSSL_PIC32MZ_HASH
  85:..\acn-sdk-c\src\wolfSSL\wolfcrypt\src/hmac.c **** 
  86:..\acn-sdk-c\src\wolfSSL\wolfcrypt\src/hmac.c **** #define wc_InitMd5   wc_InitMd5_sw
  87:..\acn-sdk-c\src\wolfSSL\wolfcrypt\src/hmac.c **** #define wc_Md5Update wc_Md5Update_sw
  88:..\acn-sdk-c\src\wolfSSL\wolfcrypt\src/hmac.c **** #define wc_Md5Final  wc_Md5Final_sw
  89:..\acn-sdk-c\src\wolfSSL\wolfcrypt\src/hmac.c **** 
  90:..\acn-sdk-c\src\wolfSSL\wolfcrypt\src/hmac.c **** #define wc_InitSha   wc_InitSha_sw
ARM GAS  C:\Users\ddemidov\AppData\Local\Temp\cc7B0Nwh.s 			page 3


  91:..\acn-sdk-c\src\wolfSSL\wolfcrypt\src/hmac.c **** #define wc_ShaUpdate wc_ShaUpdate_sw
  92:..\acn-sdk-c\src\wolfSSL\wolfcrypt\src/hmac.c **** #define wc_ShaFinal  wc_ShaFinal_sw
  93:..\acn-sdk-c\src\wolfSSL\wolfcrypt\src/hmac.c **** 
  94:..\acn-sdk-c\src\wolfSSL\wolfcrypt\src/hmac.c **** #define wc_InitSha256   wc_InitSha256_sw
  95:..\acn-sdk-c\src\wolfSSL\wolfcrypt\src/hmac.c **** #define wc_Sha256Update wc_Sha256Update_sw
  96:..\acn-sdk-c\src\wolfSSL\wolfcrypt\src/hmac.c **** #define wc_Sha256Final  wc_Sha256Final_sw
  97:..\acn-sdk-c\src\wolfSSL\wolfcrypt\src/hmac.c **** 
  98:..\acn-sdk-c\src\wolfSSL\wolfcrypt\src/hmac.c **** #endif
  99:..\acn-sdk-c\src\wolfSSL\wolfcrypt\src/hmac.c **** 
 100:..\acn-sdk-c\src\wolfSSL\wolfcrypt\src/hmac.c **** #ifdef HAVE_FIPS
 101:..\acn-sdk-c\src\wolfSSL\wolfcrypt\src/hmac.c ****     /* set NO_WRAPPERS before headers, use direct internal f()s not wrappers */
 102:..\acn-sdk-c\src\wolfSSL\wolfcrypt\src/hmac.c ****     #define FIPS_NO_WRAPPERS
 103:..\acn-sdk-c\src\wolfSSL\wolfcrypt\src/hmac.c **** #endif
 104:..\acn-sdk-c\src\wolfSSL\wolfcrypt\src/hmac.c **** 
 105:..\acn-sdk-c\src\wolfSSL\wolfcrypt\src/hmac.c **** #include <wolfssl/wolfcrypt/error-crypt.h>
 106:..\acn-sdk-c\src\wolfSSL\wolfcrypt\src/hmac.c **** 
 107:..\acn-sdk-c\src\wolfSSL\wolfcrypt\src/hmac.c **** 
 108:..\acn-sdk-c\src\wolfSSL\wolfcrypt\src/hmac.c **** #ifdef HAVE_CAVIUM
 109:..\acn-sdk-c\src\wolfSSL\wolfcrypt\src/hmac.c ****     static int HmacCaviumFinal(Hmac* hmac, byte* hash);
 110:..\acn-sdk-c\src\wolfSSL\wolfcrypt\src/hmac.c ****     static int HmacCaviumUpdate(Hmac* hmac, const byte* msg, word32 length);
 111:..\acn-sdk-c\src\wolfSSL\wolfcrypt\src/hmac.c ****     static int HmacCaviumSetKey(Hmac* hmac, int type, const byte* key,
 112:..\acn-sdk-c\src\wolfSSL\wolfcrypt\src/hmac.c ****                                 word32 length);
 113:..\acn-sdk-c\src\wolfSSL\wolfcrypt\src/hmac.c **** #endif
 114:..\acn-sdk-c\src\wolfSSL\wolfcrypt\src/hmac.c **** 
 115:..\acn-sdk-c\src\wolfSSL\wolfcrypt\src/hmac.c **** static int InitHmac(Hmac* hmac, int type)
 116:..\acn-sdk-c\src\wolfSSL\wolfcrypt\src/hmac.c **** {
 117:..\acn-sdk-c\src\wolfSSL\wolfcrypt\src/hmac.c ****     int ret = 0;
 118:..\acn-sdk-c\src\wolfSSL\wolfcrypt\src/hmac.c **** 
 119:..\acn-sdk-c\src\wolfSSL\wolfcrypt\src/hmac.c ****     hmac->innerHashKeyed = 0;
 120:..\acn-sdk-c\src\wolfSSL\wolfcrypt\src/hmac.c ****     hmac->macType = (byte)type;
 121:..\acn-sdk-c\src\wolfSSL\wolfcrypt\src/hmac.c **** 
 122:..\acn-sdk-c\src\wolfSSL\wolfcrypt\src/hmac.c ****     if (!(type == MD5 || type == SHA    || type == SHA256 || type == SHA384
 123:..\acn-sdk-c\src\wolfSSL\wolfcrypt\src/hmac.c ****                       || type == SHA512 || type == BLAKE2B_ID))
 124:..\acn-sdk-c\src\wolfSSL\wolfcrypt\src/hmac.c ****         return BAD_FUNC_ARG;
 125:..\acn-sdk-c\src\wolfSSL\wolfcrypt\src/hmac.c **** 
 126:..\acn-sdk-c\src\wolfSSL\wolfcrypt\src/hmac.c ****     switch (type) {
 127:..\acn-sdk-c\src\wolfSSL\wolfcrypt\src/hmac.c ****         #ifndef NO_MD5
 128:..\acn-sdk-c\src\wolfSSL\wolfcrypt\src/hmac.c ****         case MD5:
 129:..\acn-sdk-c\src\wolfSSL\wolfcrypt\src/hmac.c ****             wc_InitMd5(&hmac->hash.md5);
 130:..\acn-sdk-c\src\wolfSSL\wolfcrypt\src/hmac.c ****         break;
 131:..\acn-sdk-c\src\wolfSSL\wolfcrypt\src/hmac.c ****         #endif
 132:..\acn-sdk-c\src\wolfSSL\wolfcrypt\src/hmac.c **** 
 133:..\acn-sdk-c\src\wolfSSL\wolfcrypt\src/hmac.c ****         #ifndef NO_SHA
 134:..\acn-sdk-c\src\wolfSSL\wolfcrypt\src/hmac.c ****         case SHA:
 135:..\acn-sdk-c\src\wolfSSL\wolfcrypt\src/hmac.c ****             ret = wc_InitSha(&hmac->hash.sha);
 136:..\acn-sdk-c\src\wolfSSL\wolfcrypt\src/hmac.c ****         break;
 137:..\acn-sdk-c\src\wolfSSL\wolfcrypt\src/hmac.c ****         #endif
 138:..\acn-sdk-c\src\wolfSSL\wolfcrypt\src/hmac.c **** 
 139:..\acn-sdk-c\src\wolfSSL\wolfcrypt\src/hmac.c ****         #ifndef NO_SHA256
 140:..\acn-sdk-c\src\wolfSSL\wolfcrypt\src/hmac.c ****         case SHA256:
 141:..\acn-sdk-c\src\wolfSSL\wolfcrypt\src/hmac.c ****             ret = wc_InitSha256(&hmac->hash.sha256);
 142:..\acn-sdk-c\src\wolfSSL\wolfcrypt\src/hmac.c ****         break;
 143:..\acn-sdk-c\src\wolfSSL\wolfcrypt\src/hmac.c ****         #endif
 144:..\acn-sdk-c\src\wolfSSL\wolfcrypt\src/hmac.c **** 
 145:..\acn-sdk-c\src\wolfSSL\wolfcrypt\src/hmac.c ****         #ifdef WOLFSSL_SHA384
 146:..\acn-sdk-c\src\wolfSSL\wolfcrypt\src/hmac.c ****         case SHA384:
 147:..\acn-sdk-c\src\wolfSSL\wolfcrypt\src/hmac.c ****             ret = wc_InitSha384(&hmac->hash.sha384);
ARM GAS  C:\Users\ddemidov\AppData\Local\Temp\cc7B0Nwh.s 			page 4


 148:..\acn-sdk-c\src\wolfSSL\wolfcrypt\src/hmac.c ****         break;
 149:..\acn-sdk-c\src\wolfSSL\wolfcrypt\src/hmac.c ****         #endif
 150:..\acn-sdk-c\src\wolfSSL\wolfcrypt\src/hmac.c **** 
 151:..\acn-sdk-c\src\wolfSSL\wolfcrypt\src/hmac.c ****         #ifdef WOLFSSL_SHA512
 152:..\acn-sdk-c\src\wolfSSL\wolfcrypt\src/hmac.c ****         case SHA512:
 153:..\acn-sdk-c\src\wolfSSL\wolfcrypt\src/hmac.c ****             ret = wc_InitSha512(&hmac->hash.sha512);
 154:..\acn-sdk-c\src\wolfSSL\wolfcrypt\src/hmac.c ****         break;
 155:..\acn-sdk-c\src\wolfSSL\wolfcrypt\src/hmac.c ****         #endif
 156:..\acn-sdk-c\src\wolfSSL\wolfcrypt\src/hmac.c **** 
 157:..\acn-sdk-c\src\wolfSSL\wolfcrypt\src/hmac.c ****         #ifdef HAVE_BLAKE2
 158:..\acn-sdk-c\src\wolfSSL\wolfcrypt\src/hmac.c ****         case BLAKE2B_ID:
 159:..\acn-sdk-c\src\wolfSSL\wolfcrypt\src/hmac.c ****             ret = wc_InitBlake2b(&hmac->hash.blake2b, BLAKE2B_256);
 160:..\acn-sdk-c\src\wolfSSL\wolfcrypt\src/hmac.c ****         break;
 161:..\acn-sdk-c\src\wolfSSL\wolfcrypt\src/hmac.c ****         #endif
 162:..\acn-sdk-c\src\wolfSSL\wolfcrypt\src/hmac.c **** 
 163:..\acn-sdk-c\src\wolfSSL\wolfcrypt\src/hmac.c ****         default:
 164:..\acn-sdk-c\src\wolfSSL\wolfcrypt\src/hmac.c ****             return BAD_FUNC_ARG;
 165:..\acn-sdk-c\src\wolfSSL\wolfcrypt\src/hmac.c ****     }
 166:..\acn-sdk-c\src\wolfSSL\wolfcrypt\src/hmac.c **** 
 167:..\acn-sdk-c\src\wolfSSL\wolfcrypt\src/hmac.c ****     return ret;
 168:..\acn-sdk-c\src\wolfSSL\wolfcrypt\src/hmac.c **** }
 169:..\acn-sdk-c\src\wolfSSL\wolfcrypt\src/hmac.c **** 
 170:..\acn-sdk-c\src\wolfSSL\wolfcrypt\src/hmac.c **** 
 171:..\acn-sdk-c\src\wolfSSL\wolfcrypt\src/hmac.c **** int wc_HmacSetKey(Hmac* hmac, int type, const byte* key, word32 length)
 172:..\acn-sdk-c\src\wolfSSL\wolfcrypt\src/hmac.c **** {
 173:..\acn-sdk-c\src\wolfSSL\wolfcrypt\src/hmac.c ****     byte*  ip = (byte*) hmac->ipad;
 174:..\acn-sdk-c\src\wolfSSL\wolfcrypt\src/hmac.c ****     byte*  op = (byte*) hmac->opad;
 175:..\acn-sdk-c\src\wolfSSL\wolfcrypt\src/hmac.c ****     word32 i, hmac_block_size = 0;
 176:..\acn-sdk-c\src\wolfSSL\wolfcrypt\src/hmac.c ****     int    ret;
 177:..\acn-sdk-c\src\wolfSSL\wolfcrypt\src/hmac.c **** 
 178:..\acn-sdk-c\src\wolfSSL\wolfcrypt\src/hmac.c **** #ifdef HAVE_CAVIUM
 179:..\acn-sdk-c\src\wolfSSL\wolfcrypt\src/hmac.c ****     if (hmac->magic == WOLFSSL_HMAC_CAVIUM_MAGIC)
 180:..\acn-sdk-c\src\wolfSSL\wolfcrypt\src/hmac.c ****         return HmacCaviumSetKey(hmac, type, key, length);
 181:..\acn-sdk-c\src\wolfSSL\wolfcrypt\src/hmac.c **** #endif
 182:..\acn-sdk-c\src\wolfSSL\wolfcrypt\src/hmac.c **** 
 183:..\acn-sdk-c\src\wolfSSL\wolfcrypt\src/hmac.c ****     ret = InitHmac(hmac, type);
 184:..\acn-sdk-c\src\wolfSSL\wolfcrypt\src/hmac.c ****     if (ret != 0)
 185:..\acn-sdk-c\src\wolfSSL\wolfcrypt\src/hmac.c ****         return ret;
 186:..\acn-sdk-c\src\wolfSSL\wolfcrypt\src/hmac.c **** 
 187:..\acn-sdk-c\src\wolfSSL\wolfcrypt\src/hmac.c **** #ifdef HAVE_FIPS
 188:..\acn-sdk-c\src\wolfSSL\wolfcrypt\src/hmac.c ****     if (length < HMAC_FIPS_MIN_KEY)
 189:..\acn-sdk-c\src\wolfSSL\wolfcrypt\src/hmac.c ****         return HMAC_MIN_KEYLEN_E;
 190:..\acn-sdk-c\src\wolfSSL\wolfcrypt\src/hmac.c **** #endif
 191:..\acn-sdk-c\src\wolfSSL\wolfcrypt\src/hmac.c **** 
 192:..\acn-sdk-c\src\wolfSSL\wolfcrypt\src/hmac.c ****     switch (hmac->macType) {
 193:..\acn-sdk-c\src\wolfSSL\wolfcrypt\src/hmac.c ****         #ifndef NO_MD5
 194:..\acn-sdk-c\src\wolfSSL\wolfcrypt\src/hmac.c ****         case MD5:
 195:..\acn-sdk-c\src\wolfSSL\wolfcrypt\src/hmac.c ****         {
 196:..\acn-sdk-c\src\wolfSSL\wolfcrypt\src/hmac.c ****             hmac_block_size = MD5_BLOCK_SIZE;
 197:..\acn-sdk-c\src\wolfSSL\wolfcrypt\src/hmac.c ****             if (length <= MD5_BLOCK_SIZE) {
 198:..\acn-sdk-c\src\wolfSSL\wolfcrypt\src/hmac.c ****                 XMEMCPY(ip, key, length);
 199:..\acn-sdk-c\src\wolfSSL\wolfcrypt\src/hmac.c ****             }
 200:..\acn-sdk-c\src\wolfSSL\wolfcrypt\src/hmac.c ****             else {
 201:..\acn-sdk-c\src\wolfSSL\wolfcrypt\src/hmac.c ****                 wc_Md5Update(&hmac->hash.md5, key, length);
 202:..\acn-sdk-c\src\wolfSSL\wolfcrypt\src/hmac.c ****                 wc_Md5Final(&hmac->hash.md5, ip);
 203:..\acn-sdk-c\src\wolfSSL\wolfcrypt\src/hmac.c ****                 length = MD5_DIGEST_SIZE;
 204:..\acn-sdk-c\src\wolfSSL\wolfcrypt\src/hmac.c ****             }
ARM GAS  C:\Users\ddemidov\AppData\Local\Temp\cc7B0Nwh.s 			page 5


 205:..\acn-sdk-c\src\wolfSSL\wolfcrypt\src/hmac.c ****         }
 206:..\acn-sdk-c\src\wolfSSL\wolfcrypt\src/hmac.c ****         break;
 207:..\acn-sdk-c\src\wolfSSL\wolfcrypt\src/hmac.c ****         #endif
 208:..\acn-sdk-c\src\wolfSSL\wolfcrypt\src/hmac.c **** 
 209:..\acn-sdk-c\src\wolfSSL\wolfcrypt\src/hmac.c ****         #ifndef NO_SHA
 210:..\acn-sdk-c\src\wolfSSL\wolfcrypt\src/hmac.c ****         case SHA:
 211:..\acn-sdk-c\src\wolfSSL\wolfcrypt\src/hmac.c ****         {
 212:..\acn-sdk-c\src\wolfSSL\wolfcrypt\src/hmac.c ****             hmac_block_size = SHA_BLOCK_SIZE;
 213:..\acn-sdk-c\src\wolfSSL\wolfcrypt\src/hmac.c ****             if (length <= SHA_BLOCK_SIZE) {
 214:..\acn-sdk-c\src\wolfSSL\wolfcrypt\src/hmac.c ****                 XMEMCPY(ip, key, length);
 215:..\acn-sdk-c\src\wolfSSL\wolfcrypt\src/hmac.c ****             }
 216:..\acn-sdk-c\src\wolfSSL\wolfcrypt\src/hmac.c ****             else {
 217:..\acn-sdk-c\src\wolfSSL\wolfcrypt\src/hmac.c ****                 wc_ShaUpdate(&hmac->hash.sha, key, length);
 218:..\acn-sdk-c\src\wolfSSL\wolfcrypt\src/hmac.c ****                 wc_ShaFinal(&hmac->hash.sha, ip);
 219:..\acn-sdk-c\src\wolfSSL\wolfcrypt\src/hmac.c ****                 length = SHA_DIGEST_SIZE;
 220:..\acn-sdk-c\src\wolfSSL\wolfcrypt\src/hmac.c ****             }
 221:..\acn-sdk-c\src\wolfSSL\wolfcrypt\src/hmac.c ****         }
 222:..\acn-sdk-c\src\wolfSSL\wolfcrypt\src/hmac.c ****         break;
 223:..\acn-sdk-c\src\wolfSSL\wolfcrypt\src/hmac.c ****         #endif
 224:..\acn-sdk-c\src\wolfSSL\wolfcrypt\src/hmac.c **** 
 225:..\acn-sdk-c\src\wolfSSL\wolfcrypt\src/hmac.c ****         #ifndef NO_SHA256
 226:..\acn-sdk-c\src\wolfSSL\wolfcrypt\src/hmac.c ****         case SHA256:
 227:..\acn-sdk-c\src\wolfSSL\wolfcrypt\src/hmac.c ****         {
 228:..\acn-sdk-c\src\wolfSSL\wolfcrypt\src/hmac.c ****     		hmac_block_size = SHA256_BLOCK_SIZE;
 229:..\acn-sdk-c\src\wolfSSL\wolfcrypt\src/hmac.c ****             if (length <= SHA256_BLOCK_SIZE) {
 230:..\acn-sdk-c\src\wolfSSL\wolfcrypt\src/hmac.c ****                 XMEMCPY(ip, key, length);
 231:..\acn-sdk-c\src\wolfSSL\wolfcrypt\src/hmac.c ****             }
 232:..\acn-sdk-c\src\wolfSSL\wolfcrypt\src/hmac.c ****             else {
 233:..\acn-sdk-c\src\wolfSSL\wolfcrypt\src/hmac.c ****                 ret = wc_Sha256Update(&hmac->hash.sha256, key, length);
 234:..\acn-sdk-c\src\wolfSSL\wolfcrypt\src/hmac.c ****                 if (ret != 0)
 235:..\acn-sdk-c\src\wolfSSL\wolfcrypt\src/hmac.c ****                     return ret;
 236:..\acn-sdk-c\src\wolfSSL\wolfcrypt\src/hmac.c **** 
 237:..\acn-sdk-c\src\wolfSSL\wolfcrypt\src/hmac.c ****                 ret = wc_Sha256Final(&hmac->hash.sha256, ip);
 238:..\acn-sdk-c\src\wolfSSL\wolfcrypt\src/hmac.c ****                 if (ret != 0)
 239:..\acn-sdk-c\src\wolfSSL\wolfcrypt\src/hmac.c ****                     return ret;
 240:..\acn-sdk-c\src\wolfSSL\wolfcrypt\src/hmac.c **** 
 241:..\acn-sdk-c\src\wolfSSL\wolfcrypt\src/hmac.c ****                 length = SHA256_DIGEST_SIZE;
 242:..\acn-sdk-c\src\wolfSSL\wolfcrypt\src/hmac.c ****             }
 243:..\acn-sdk-c\src\wolfSSL\wolfcrypt\src/hmac.c ****         }
 244:..\acn-sdk-c\src\wolfSSL\wolfcrypt\src/hmac.c ****         break;
 245:..\acn-sdk-c\src\wolfSSL\wolfcrypt\src/hmac.c ****         #endif
 246:..\acn-sdk-c\src\wolfSSL\wolfcrypt\src/hmac.c **** 
 247:..\acn-sdk-c\src\wolfSSL\wolfcrypt\src/hmac.c ****         #ifdef WOLFSSL_SHA384
 248:..\acn-sdk-c\src\wolfSSL\wolfcrypt\src/hmac.c ****         case SHA384:
 249:..\acn-sdk-c\src\wolfSSL\wolfcrypt\src/hmac.c ****         {
 250:..\acn-sdk-c\src\wolfSSL\wolfcrypt\src/hmac.c ****             hmac_block_size = SHA384_BLOCK_SIZE;
 251:..\acn-sdk-c\src\wolfSSL\wolfcrypt\src/hmac.c ****             if (length <= SHA384_BLOCK_SIZE) {
 252:..\acn-sdk-c\src\wolfSSL\wolfcrypt\src/hmac.c ****                 XMEMCPY(ip, key, length);
 253:..\acn-sdk-c\src\wolfSSL\wolfcrypt\src/hmac.c ****             }
 254:..\acn-sdk-c\src\wolfSSL\wolfcrypt\src/hmac.c ****             else {
 255:..\acn-sdk-c\src\wolfSSL\wolfcrypt\src/hmac.c ****                 ret = wc_Sha384Update(&hmac->hash.sha384, key, length);
 256:..\acn-sdk-c\src\wolfSSL\wolfcrypt\src/hmac.c ****                 if (ret != 0)
 257:..\acn-sdk-c\src\wolfSSL\wolfcrypt\src/hmac.c ****                     return ret;
 258:..\acn-sdk-c\src\wolfSSL\wolfcrypt\src/hmac.c **** 
 259:..\acn-sdk-c\src\wolfSSL\wolfcrypt\src/hmac.c ****                 ret = wc_Sha384Final(&hmac->hash.sha384, ip);
 260:..\acn-sdk-c\src\wolfSSL\wolfcrypt\src/hmac.c ****                 if (ret != 0)
 261:..\acn-sdk-c\src\wolfSSL\wolfcrypt\src/hmac.c ****                     return ret;
ARM GAS  C:\Users\ddemidov\AppData\Local\Temp\cc7B0Nwh.s 			page 6


 262:..\acn-sdk-c\src\wolfSSL\wolfcrypt\src/hmac.c **** 
 263:..\acn-sdk-c\src\wolfSSL\wolfcrypt\src/hmac.c ****                 length = SHA384_DIGEST_SIZE;
 264:..\acn-sdk-c\src\wolfSSL\wolfcrypt\src/hmac.c ****             }
 265:..\acn-sdk-c\src\wolfSSL\wolfcrypt\src/hmac.c ****         }
 266:..\acn-sdk-c\src\wolfSSL\wolfcrypt\src/hmac.c ****         break;
 267:..\acn-sdk-c\src\wolfSSL\wolfcrypt\src/hmac.c ****         #endif
 268:..\acn-sdk-c\src\wolfSSL\wolfcrypt\src/hmac.c **** 
 269:..\acn-sdk-c\src\wolfSSL\wolfcrypt\src/hmac.c ****         #ifdef WOLFSSL_SHA512
 270:..\acn-sdk-c\src\wolfSSL\wolfcrypt\src/hmac.c ****         case SHA512:
 271:..\acn-sdk-c\src\wolfSSL\wolfcrypt\src/hmac.c ****         {
 272:..\acn-sdk-c\src\wolfSSL\wolfcrypt\src/hmac.c ****             hmac_block_size = SHA512_BLOCK_SIZE;
 273:..\acn-sdk-c\src\wolfSSL\wolfcrypt\src/hmac.c ****             if (length <= SHA512_BLOCK_SIZE) {
 274:..\acn-sdk-c\src\wolfSSL\wolfcrypt\src/hmac.c ****                 XMEMCPY(ip, key, length);
 275:..\acn-sdk-c\src\wolfSSL\wolfcrypt\src/hmac.c ****             }
 276:..\acn-sdk-c\src\wolfSSL\wolfcrypt\src/hmac.c ****             else {
 277:..\acn-sdk-c\src\wolfSSL\wolfcrypt\src/hmac.c ****                 ret = wc_Sha512Update(&hmac->hash.sha512, key, length);
 278:..\acn-sdk-c\src\wolfSSL\wolfcrypt\src/hmac.c ****                 if (ret != 0)
 279:..\acn-sdk-c\src\wolfSSL\wolfcrypt\src/hmac.c ****                     return ret;
 280:..\acn-sdk-c\src\wolfSSL\wolfcrypt\src/hmac.c **** 
 281:..\acn-sdk-c\src\wolfSSL\wolfcrypt\src/hmac.c ****                 ret = wc_Sha512Final(&hmac->hash.sha512, ip);
 282:..\acn-sdk-c\src\wolfSSL\wolfcrypt\src/hmac.c ****                 if (ret != 0)
 283:..\acn-sdk-c\src\wolfSSL\wolfcrypt\src/hmac.c ****                     return ret;
 284:..\acn-sdk-c\src\wolfSSL\wolfcrypt\src/hmac.c **** 
 285:..\acn-sdk-c\src\wolfSSL\wolfcrypt\src/hmac.c ****                 length = SHA512_DIGEST_SIZE;
 286:..\acn-sdk-c\src\wolfSSL\wolfcrypt\src/hmac.c ****             }
 287:..\acn-sdk-c\src\wolfSSL\wolfcrypt\src/hmac.c ****         }
 288:..\acn-sdk-c\src\wolfSSL\wolfcrypt\src/hmac.c ****         break;
 289:..\acn-sdk-c\src\wolfSSL\wolfcrypt\src/hmac.c ****         #endif
 290:..\acn-sdk-c\src\wolfSSL\wolfcrypt\src/hmac.c **** 
 291:..\acn-sdk-c\src\wolfSSL\wolfcrypt\src/hmac.c ****         #ifdef HAVE_BLAKE2
 292:..\acn-sdk-c\src\wolfSSL\wolfcrypt\src/hmac.c ****         case BLAKE2B_ID:
 293:..\acn-sdk-c\src\wolfSSL\wolfcrypt\src/hmac.c ****         {
 294:..\acn-sdk-c\src\wolfSSL\wolfcrypt\src/hmac.c ****             hmac_block_size = BLAKE2B_BLOCKBYTES;
 295:..\acn-sdk-c\src\wolfSSL\wolfcrypt\src/hmac.c ****             if (length <= BLAKE2B_BLOCKBYTES) {
 296:..\acn-sdk-c\src\wolfSSL\wolfcrypt\src/hmac.c ****                 XMEMCPY(ip, key, length);
 297:..\acn-sdk-c\src\wolfSSL\wolfcrypt\src/hmac.c ****             }
 298:..\acn-sdk-c\src\wolfSSL\wolfcrypt\src/hmac.c ****             else {
 299:..\acn-sdk-c\src\wolfSSL\wolfcrypt\src/hmac.c ****                 ret = wc_Blake2bUpdate(&hmac->hash.blake2b, key, length);
 300:..\acn-sdk-c\src\wolfSSL\wolfcrypt\src/hmac.c ****                 if (ret != 0)
 301:..\acn-sdk-c\src\wolfSSL\wolfcrypt\src/hmac.c ****                     return ret;
 302:..\acn-sdk-c\src\wolfSSL\wolfcrypt\src/hmac.c **** 
 303:..\acn-sdk-c\src\wolfSSL\wolfcrypt\src/hmac.c ****                 ret = wc_Blake2bFinal(&hmac->hash.blake2b, ip, BLAKE2B_256);
 304:..\acn-sdk-c\src\wolfSSL\wolfcrypt\src/hmac.c ****                 if (ret != 0)
 305:..\acn-sdk-c\src\wolfSSL\wolfcrypt\src/hmac.c ****                     return ret;
 306:..\acn-sdk-c\src\wolfSSL\wolfcrypt\src/hmac.c **** 
 307:..\acn-sdk-c\src\wolfSSL\wolfcrypt\src/hmac.c ****                 length = BLAKE2B_256;
 308:..\acn-sdk-c\src\wolfSSL\wolfcrypt\src/hmac.c ****             }
 309:..\acn-sdk-c\src\wolfSSL\wolfcrypt\src/hmac.c ****         }
 310:..\acn-sdk-c\src\wolfSSL\wolfcrypt\src/hmac.c ****         break;
 311:..\acn-sdk-c\src\wolfSSL\wolfcrypt\src/hmac.c ****         #endif
 312:..\acn-sdk-c\src\wolfSSL\wolfcrypt\src/hmac.c **** 
 313:..\acn-sdk-c\src\wolfSSL\wolfcrypt\src/hmac.c ****         default:
 314:..\acn-sdk-c\src\wolfSSL\wolfcrypt\src/hmac.c ****             return BAD_FUNC_ARG;
 315:..\acn-sdk-c\src\wolfSSL\wolfcrypt\src/hmac.c ****     }
 316:..\acn-sdk-c\src\wolfSSL\wolfcrypt\src/hmac.c ****     if (length < hmac_block_size)
 317:..\acn-sdk-c\src\wolfSSL\wolfcrypt\src/hmac.c ****         XMEMSET(ip + length, 0, hmac_block_size - length);
 318:..\acn-sdk-c\src\wolfSSL\wolfcrypt\src/hmac.c **** 
ARM GAS  C:\Users\ddemidov\AppData\Local\Temp\cc7B0Nwh.s 			page 7


 319:..\acn-sdk-c\src\wolfSSL\wolfcrypt\src/hmac.c ****     for(i = 0; i < hmac_block_size; i++) {
 320:..\acn-sdk-c\src\wolfSSL\wolfcrypt\src/hmac.c ****         op[i] = ip[i] ^ OPAD;
 321:..\acn-sdk-c\src\wolfSSL\wolfcrypt\src/hmac.c ****         ip[i] ^= IPAD;
 322:..\acn-sdk-c\src\wolfSSL\wolfcrypt\src/hmac.c ****     }
 323:..\acn-sdk-c\src\wolfSSL\wolfcrypt\src/hmac.c ****     return 0;
 324:..\acn-sdk-c\src\wolfSSL\wolfcrypt\src/hmac.c **** }
 325:..\acn-sdk-c\src\wolfSSL\wolfcrypt\src/hmac.c **** 
 326:..\acn-sdk-c\src\wolfSSL\wolfcrypt\src/hmac.c **** 
 327:..\acn-sdk-c\src\wolfSSL\wolfcrypt\src/hmac.c **** static int HmacKeyInnerHash(Hmac* hmac)
 328:..\acn-sdk-c\src\wolfSSL\wolfcrypt\src/hmac.c **** {
  25              		.loc 1 328 0
  26              		.cfi_startproc
  27              	.LVL0:
  28 0000 10B5     		push	{r4, lr}
  29              		.cfi_def_cfa_offset 8
  30              		.cfi_offset 4, -8
  31              		.cfi_offset 14, -4
 329:..\acn-sdk-c\src\wolfSSL\wolfcrypt\src/hmac.c ****     int ret = 0;
 330:..\acn-sdk-c\src\wolfSSL\wolfcrypt\src/hmac.c **** 
 331:..\acn-sdk-c\src\wolfSSL\wolfcrypt\src/hmac.c ****     switch (hmac->macType) {
  32              		.loc 1 331 0
  33 0002 041C     		mov	r4, r0
  34 0004 FF34     		add	r4, r4, #255
  35 0006 637B     		ldrb	r3, [r4, #13]
  36 0008 012B     		cmp	r3, #1
  37 000a 02D0     		beq	.L3
  38 000c 022B     		cmp	r3, #2
  39 000e 06D0     		beq	.L4
  40 0010 0CE0     		b	.L2
  41              	.L3:
 332:..\acn-sdk-c\src\wolfSSL\wolfcrypt\src/hmac.c ****         #ifndef NO_MD5
 333:..\acn-sdk-c\src\wolfSSL\wolfcrypt\src/hmac.c ****         case MD5:
 334:..\acn-sdk-c\src\wolfSSL\wolfcrypt\src/hmac.c ****             wc_Md5Update(&hmac->hash.md5, (byte*) hmac->ipad, MD5_BLOCK_SIZE);
 335:..\acn-sdk-c\src\wolfSSL\wolfcrypt\src/hmac.c ****         break;
 336:..\acn-sdk-c\src\wolfSSL\wolfcrypt\src/hmac.c ****         #endif
 337:..\acn-sdk-c\src\wolfSSL\wolfcrypt\src/hmac.c **** 
 338:..\acn-sdk-c\src\wolfSSL\wolfcrypt\src/hmac.c ****         #ifndef NO_SHA
 339:..\acn-sdk-c\src\wolfSSL\wolfcrypt\src/hmac.c ****         case SHA:
 340:..\acn-sdk-c\src\wolfSSL\wolfcrypt\src/hmac.c ****             wc_ShaUpdate(&hmac->hash.sha, (byte*) hmac->ipad, SHA_BLOCK_SIZE);
  42              		.loc 1 340 0
  43 0012 011C     		mov	r1, r0
  44 0014 4022     		mov	r2, #64
  45 0016 6C31     		add	r1, r1, #108
  46 0018 FFF7FEFF 		bl	wc_ShaUpdate
  47              	.LVL1:
 341:..\acn-sdk-c\src\wolfSSL\wolfcrypt\src/hmac.c ****         break;
  48              		.loc 1 341 0
  49 001c 06E0     		b	.L2
  50              	.LVL2:
  51              	.L4:
 342:..\acn-sdk-c\src\wolfSSL\wolfcrypt\src/hmac.c ****         #endif
 343:..\acn-sdk-c\src\wolfSSL\wolfcrypt\src/hmac.c **** 
 344:..\acn-sdk-c\src\wolfSSL\wolfcrypt\src/hmac.c ****         #ifndef NO_SHA256
 345:..\acn-sdk-c\src\wolfSSL\wolfcrypt\src/hmac.c ****         case SHA256:
 346:..\acn-sdk-c\src\wolfSSL\wolfcrypt\src/hmac.c ****             ret = wc_Sha256Update(&hmac->hash.sha256,
 347:..\acn-sdk-c\src\wolfSSL\wolfcrypt\src/hmac.c ****                                          (byte*) hmac->ipad, SHA256_BLOCK_SIZE);
  52              		.loc 1 347 0
ARM GAS  C:\Users\ddemidov\AppData\Local\Temp\cc7B0Nwh.s 			page 8


  53 001e 011C     		mov	r1, r0
 346:..\acn-sdk-c\src\wolfSSL\wolfcrypt\src/hmac.c ****                                          (byte*) hmac->ipad, SHA256_BLOCK_SIZE);
  54              		.loc 1 346 0
  55 0020 4022     		mov	r2, #64
  56              		.loc 1 347 0
  57 0022 6C31     		add	r1, r1, #108
 346:..\acn-sdk-c\src\wolfSSL\wolfcrypt\src/hmac.c ****                                          (byte*) hmac->ipad, SHA256_BLOCK_SIZE);
  58              		.loc 1 346 0
  59 0024 FFF7FEFF 		bl	wc_Sha256Update
  60              	.LVL3:
 348:..\acn-sdk-c\src\wolfSSL\wolfcrypt\src/hmac.c ****             if (ret != 0)
  61              		.loc 1 348 0
  62 0028 0028     		cmp	r0, #0
  63 002a 02D1     		bne	.L5
  64              	.LVL4:
  65              	.L2:
 349:..\acn-sdk-c\src\wolfSSL\wolfcrypt\src/hmac.c ****                 return ret;
 350:..\acn-sdk-c\src\wolfSSL\wolfcrypt\src/hmac.c ****         break;
 351:..\acn-sdk-c\src\wolfSSL\wolfcrypt\src/hmac.c ****         #endif
 352:..\acn-sdk-c\src\wolfSSL\wolfcrypt\src/hmac.c **** 
 353:..\acn-sdk-c\src\wolfSSL\wolfcrypt\src/hmac.c ****         #ifdef WOLFSSL_SHA384
 354:..\acn-sdk-c\src\wolfSSL\wolfcrypt\src/hmac.c ****         case SHA384:
 355:..\acn-sdk-c\src\wolfSSL\wolfcrypt\src/hmac.c ****             ret = wc_Sha384Update(&hmac->hash.sha384,
 356:..\acn-sdk-c\src\wolfSSL\wolfcrypt\src/hmac.c ****                                          (byte*) hmac->ipad, SHA384_BLOCK_SIZE);
 357:..\acn-sdk-c\src\wolfSSL\wolfcrypt\src/hmac.c ****             if (ret != 0)
 358:..\acn-sdk-c\src\wolfSSL\wolfcrypt\src/hmac.c ****                 return ret;
 359:..\acn-sdk-c\src\wolfSSL\wolfcrypt\src/hmac.c ****         break;
 360:..\acn-sdk-c\src\wolfSSL\wolfcrypt\src/hmac.c ****         #endif
 361:..\acn-sdk-c\src\wolfSSL\wolfcrypt\src/hmac.c **** 
 362:..\acn-sdk-c\src\wolfSSL\wolfcrypt\src/hmac.c ****         #ifdef WOLFSSL_SHA512
 363:..\acn-sdk-c\src\wolfSSL\wolfcrypt\src/hmac.c ****         case SHA512:
 364:..\acn-sdk-c\src\wolfSSL\wolfcrypt\src/hmac.c ****             ret = wc_Sha512Update(&hmac->hash.sha512,
 365:..\acn-sdk-c\src\wolfSSL\wolfcrypt\src/hmac.c ****                                          (byte*) hmac->ipad, SHA512_BLOCK_SIZE);
 366:..\acn-sdk-c\src\wolfSSL\wolfcrypt\src/hmac.c ****             if (ret != 0)
 367:..\acn-sdk-c\src\wolfSSL\wolfcrypt\src/hmac.c ****                 return ret;
 368:..\acn-sdk-c\src\wolfSSL\wolfcrypt\src/hmac.c ****         break;
 369:..\acn-sdk-c\src\wolfSSL\wolfcrypt\src/hmac.c ****         #endif
 370:..\acn-sdk-c\src\wolfSSL\wolfcrypt\src/hmac.c **** 
 371:..\acn-sdk-c\src\wolfSSL\wolfcrypt\src/hmac.c ****         #ifdef HAVE_BLAKE2
 372:..\acn-sdk-c\src\wolfSSL\wolfcrypt\src/hmac.c ****         case BLAKE2B_ID:
 373:..\acn-sdk-c\src\wolfSSL\wolfcrypt\src/hmac.c ****             ret = wc_Blake2bUpdate(&hmac->hash.blake2b,
 374:..\acn-sdk-c\src\wolfSSL\wolfcrypt\src/hmac.c ****                                          (byte*) hmac->ipad,BLAKE2B_BLOCKBYTES);
 375:..\acn-sdk-c\src\wolfSSL\wolfcrypt\src/hmac.c ****             if (ret != 0)
 376:..\acn-sdk-c\src\wolfSSL\wolfcrypt\src/hmac.c ****                 return ret;
 377:..\acn-sdk-c\src\wolfSSL\wolfcrypt\src/hmac.c ****         break;
 378:..\acn-sdk-c\src\wolfSSL\wolfcrypt\src/hmac.c ****         #endif
 379:..\acn-sdk-c\src\wolfSSL\wolfcrypt\src/hmac.c **** 
 380:..\acn-sdk-c\src\wolfSSL\wolfcrypt\src/hmac.c ****         default:
 381:..\acn-sdk-c\src\wolfSSL\wolfcrypt\src/hmac.c ****         break;
 382:..\acn-sdk-c\src\wolfSSL\wolfcrypt\src/hmac.c ****     }
 383:..\acn-sdk-c\src\wolfSSL\wolfcrypt\src/hmac.c **** 
 384:..\acn-sdk-c\src\wolfSSL\wolfcrypt\src/hmac.c ****     hmac->innerHashKeyed = 1;
  66              		.loc 1 384 0
  67 002c 0123     		mov	r3, #1
 385:..\acn-sdk-c\src\wolfSSL\wolfcrypt\src/hmac.c **** 
 386:..\acn-sdk-c\src\wolfSSL\wolfcrypt\src/hmac.c ****     return ret;
  68              		.loc 1 386 0
ARM GAS  C:\Users\ddemidov\AppData\Local\Temp\cc7B0Nwh.s 			page 9


  69 002e 0020     		mov	r0, #0
 384:..\acn-sdk-c\src\wolfSSL\wolfcrypt\src/hmac.c **** 
  70              		.loc 1 384 0
  71 0030 A373     		strb	r3, [r4, #14]
  72              	.LVL5:
  73              	.L5:
 387:..\acn-sdk-c\src\wolfSSL\wolfcrypt\src/hmac.c **** }
  74              		.loc 1 387 0
  75              		@ sp needed
  76              	.LVL6:
  77 0032 10BD     		pop	{r4, pc}
  78              		.cfi_endproc
  79              	.LFE2:
  80              		.size	HmacKeyInnerHash, .-HmacKeyInnerHash
  81              		.section	.text.wc_HmacSetKey,"ax",%progbits
  82              		.align	1
  83              		.global	wc_HmacSetKey
  84              		.code	16
  85              		.thumb_func
  86              		.type	wc_HmacSetKey, %function
  87              	wc_HmacSetKey:
  88              	.LFB1:
 172:..\acn-sdk-c\src\wolfSSL\wolfcrypt\src/hmac.c ****     byte*  ip = (byte*) hmac->ipad;
  89              		.loc 1 172 0
  90              		.cfi_startproc
  91              	.LVL7:
  92 0000 F7B5     		push	{r0, r1, r2, r4, r5, r6, r7, lr}
  93              		.cfi_def_cfa_offset 32
  94              		.cfi_offset 0, -32
  95              		.cfi_offset 1, -28
  96              		.cfi_offset 2, -24
  97              		.cfi_offset 4, -20
  98              		.cfi_offset 5, -16
  99              		.cfi_offset 6, -12
 100              		.cfi_offset 7, -8
 101              		.cfi_offset 14, -4
 172:..\acn-sdk-c\src\wolfSSL\wolfcrypt\src/hmac.c ****     byte*  ip = (byte*) hmac->ipad;
 102              		.loc 1 172 0
 103 0002 1C1C     		mov	r4, r3
 104              	.LBB4:
 105              	.LBB5:
 119:..\acn-sdk-c\src\wolfSSL\wolfcrypt\src/hmac.c ****     hmac->macType = (byte)type;
 106              		.loc 1 119 0
 107 0004 031C     		mov	r3, r0
 108              	.LVL8:
 109 0006 FF33     		add	r3, r3, #255
 110 0008 0193     		str	r3, [sp, #4]
 111 000a 0023     		mov	r3, #0
 112              	.LBE5:
 113              	.LBE4:
 172:..\acn-sdk-c\src\wolfSSL\wolfcrypt\src/hmac.c ****     byte*  ip = (byte*) hmac->ipad;
 114              		.loc 1 172 0
 115 000c 0092     		str	r2, [sp]
 116              	.LBB9:
 117              	.LBB6:
 119:..\acn-sdk-c\src\wolfSSL\wolfcrypt\src/hmac.c ****     hmac->macType = (byte)type;
 118              		.loc 1 119 0
ARM GAS  C:\Users\ddemidov\AppData\Local\Temp\cc7B0Nwh.s 			page 10


 119 000e 019A     		ldr	r2, [sp, #4]
 120              	.LVL9:
 121              	.LBE6:
 122              	.LBE9:
 172:..\acn-sdk-c\src\wolfSSL\wolfcrypt\src/hmac.c ****     byte*  ip = (byte*) hmac->ipad;
 123              		.loc 1 172 0
 124 0010 051C     		mov	r5, r0
 125              	.LBB10:
 126              	.LBB7:
 119:..\acn-sdk-c\src\wolfSSL\wolfcrypt\src/hmac.c ****     hmac->macType = (byte)type;
 127              		.loc 1 119 0
 128 0012 9373     		strb	r3, [r2, #14]
 120:..\acn-sdk-c\src\wolfSSL\wolfcrypt\src/hmac.c **** 
 129              		.loc 1 120 0
 130 0014 5173     		strb	r1, [r2, #13]
 122:..\acn-sdk-c\src\wolfSSL\wolfcrypt\src/hmac.c ****                       || type == SHA512 || type == BLAKE2B_ID))
 131              		.loc 1 122 0
 132 0016 0229     		cmp	r1, #2
 133 0018 4DD8     		bhi	.L30
 126:..\acn-sdk-c\src\wolfSSL\wolfcrypt\src/hmac.c ****         #ifndef NO_MD5
 134              		.loc 1 126 0
 135 001a 0129     		cmp	r1, #1
 136 001c 04D0     		beq	.L9
 137 001e 0229     		cmp	r1, #2
 138 0020 49D1     		bne	.L30
 141:..\acn-sdk-c\src\wolfSSL\wolfcrypt\src/hmac.c ****         break;
 139              		.loc 1 141 0
 140 0022 FFF7FEFF 		bl	wc_InitSha256
 141              	.LVL10:
 142 0026 01E0     		b	.L31
 143              	.LVL11:
 144              	.L9:
 135:..\acn-sdk-c\src\wolfSSL\wolfcrypt\src/hmac.c ****         break;
 145              		.loc 1 135 0
 146 0028 FFF7FEFF 		bl	wc_InitSha
 147              	.LVL12:
 148              	.L31:
 141:..\acn-sdk-c\src\wolfSSL\wolfcrypt\src/hmac.c ****         break;
 149              		.loc 1 141 0
 150 002c 061E     		sub	r6, r0, #0
 151              	.LVL13:
 152              	.LBE7:
 153              	.LBE10:
 184:..\acn-sdk-c\src\wolfSSL\wolfcrypt\src/hmac.c ****         return ret;
 154              		.loc 1 184 0
 155 002e 46D1     		bne	.L8
 173:..\acn-sdk-c\src\wolfSSL\wolfcrypt\src/hmac.c ****     byte*  op = (byte*) hmac->opad;
 156              		.loc 1 173 0
 157 0030 2F1C     		mov	r7, r5
 192:..\acn-sdk-c\src\wolfSSL\wolfcrypt\src/hmac.c ****         #ifndef NO_MD5
 158              		.loc 1 192 0
 159 0032 019B     		ldr	r3, [sp, #4]
 173:..\acn-sdk-c\src\wolfSSL\wolfcrypt\src/hmac.c ****     byte*  op = (byte*) hmac->opad;
 160              		.loc 1 173 0
 161 0034 6C37     		add	r7, r7, #108
 192:..\acn-sdk-c\src\wolfSSL\wolfcrypt\src/hmac.c ****         #ifndef NO_MD5
 162              		.loc 1 192 0
ARM GAS  C:\Users\ddemidov\AppData\Local\Temp\cc7B0Nwh.s 			page 11


 163 0036 5B7B     		ldrb	r3, [r3, #13]
 164 0038 012B     		cmp	r3, #1
 165 003a 02D0     		beq	.L12
 166 003c 022B     		cmp	r3, #2
 167 003e 0DD0     		beq	.L13
 168 0040 39E0     		b	.L30
 169              	.L12:
 170              	.LVL14:
 213:..\acn-sdk-c\src\wolfSSL\wolfcrypt\src/hmac.c ****                 XMEMCPY(ip, key, length);
 171              		.loc 1 213 0
 172 0042 402C     		cmp	r4, #64
 173 0044 0CD9     		bls	.L32
 217:..\acn-sdk-c\src\wolfSSL\wolfcrypt\src/hmac.c ****                 wc_ShaFinal(&hmac->hash.sha, ip);
 174              		.loc 1 217 0
 175 0046 221C     		mov	r2, r4
 176 0048 0099     		ldr	r1, [sp]
 177 004a 281C     		mov	r0, r5
 178 004c FFF7FEFF 		bl	wc_ShaUpdate
 179              	.LVL15:
 218:..\acn-sdk-c\src\wolfSSL\wolfcrypt\src/hmac.c ****                 length = SHA_DIGEST_SIZE;
 180              		.loc 1 218 0
 181 0050 281C     		mov	r0, r5
 182 0052 391C     		mov	r1, r7
 183 0054 FFF7FEFF 		bl	wc_ShaFinal
 184              	.LVL16:
 219:..\acn-sdk-c\src\wolfSSL\wolfcrypt\src/hmac.c ****             }
 185              		.loc 1 219 0
 186 0058 1424     		mov	r4, #20
 187 005a 17E0     		b	.L20
 188              	.LVL17:
 189              	.L13:
 229:..\acn-sdk-c\src\wolfSSL\wolfcrypt\src/hmac.c ****                 XMEMCPY(ip, key, length);
 190              		.loc 1 229 0
 191 005c 402C     		cmp	r4, #64
 192 005e 07D8     		bhi	.L17
 193              	.L32:
 230:..\acn-sdk-c\src\wolfSSL\wolfcrypt\src/hmac.c ****             }
 194              		.loc 1 230 0
 195 0060 381C     		mov	r0, r7
 196 0062 0099     		ldr	r1, [sp]
 197 0064 221C     		mov	r2, r4
 198 0066 FFF7FEFF 		bl	memcpy
 199              	.LVL18:
 316:..\acn-sdk-c\src\wolfSSL\wolfcrypt\src/hmac.c ****         XMEMSET(ip + length, 0, hmac_block_size - length);
 200              		.loc 1 316 0
 201 006a 402C     		cmp	r4, #64
 202 006c 14D0     		beq	.L18
 203 006e 0DE0     		b	.L20
 204              	.L17:
 233:..\acn-sdk-c\src\wolfSSL\wolfcrypt\src/hmac.c ****                 if (ret != 0)
 205              		.loc 1 233 0
 206 0070 281C     		mov	r0, r5
 207 0072 0099     		ldr	r1, [sp]
 208 0074 221C     		mov	r2, r4
 209 0076 FFF7FEFF 		bl	wc_Sha256Update
 210              	.LVL19:
 234:..\acn-sdk-c\src\wolfSSL\wolfcrypt\src/hmac.c ****                     return ret;
ARM GAS  C:\Users\ddemidov\AppData\Local\Temp\cc7B0Nwh.s 			page 12


 211              		.loc 1 234 0
 212 007a 0028     		cmp	r0, #0
 213 007c 1ED1     		bne	.L25
 237:..\acn-sdk-c\src\wolfSSL\wolfcrypt\src/hmac.c ****                 if (ret != 0)
 214              		.loc 1 237 0
 215 007e 281C     		mov	r0, r5
 216              	.LVL20:
 217 0080 391C     		mov	r1, r7
 218 0082 FFF7FEFF 		bl	wc_Sha256Final
 219              	.LVL21:
 241:..\acn-sdk-c\src\wolfSSL\wolfcrypt\src/hmac.c ****             }
 220              		.loc 1 241 0
 221 0086 2024     		mov	r4, #32
 222              	.LVL22:
 238:..\acn-sdk-c\src\wolfSSL\wolfcrypt\src/hmac.c ****                     return ret;
 223              		.loc 1 238 0
 224 0088 0028     		cmp	r0, #0
 225 008a 17D1     		bne	.L25
 226              	.LVL23:
 227              	.L20:
 317:..\acn-sdk-c\src\wolfSSL\wolfcrypt\src/hmac.c **** 
 228              		.loc 1 317 0
 229 008c 4022     		mov	r2, #64
 230 008e 3819     		add	r0, r7, r4
 231 0090 121B     		sub	r2, r2, r4
 232 0092 0021     		mov	r1, #0
 233 0094 FFF7FEFF 		bl	memset
 234              	.LVL24:
 235              	.L18:
 236              	.LBB11:
 237              	.LBB8:
 135:..\acn-sdk-c\src\wolfSSL\wolfcrypt\src/hmac.c ****         break;
 238              		.loc 1 135 0 discriminator 1
 239 0098 0023     		mov	r3, #0
 240              	.LVL25:
 241              	.L19:
 242 009a 191C     		mov	r1, r3
 243              	.LBE8:
 244              	.LBE11:
 320:..\acn-sdk-c\src\wolfSSL\wolfcrypt\src/hmac.c ****         ip[i] ^= IPAD;
 245              		.loc 1 320 0 discriminator 3
 246 009c 5C20     		mov	r0, #92
 247 009e FA5C     		ldrb	r2, [r7, r3]
 248 00a0 AC31     		add	r1, r1, #172
 249 00a2 4240     		eor	r2, r0
 250 00a4 6A54     		strb	r2, [r5, r1]
 321:..\acn-sdk-c\src\wolfSSL\wolfcrypt\src/hmac.c ****     }
 251              		.loc 1 321 0 discriminator 3
 252 00a6 3621     		mov	r1, #54
 253 00a8 FA5C     		ldrb	r2, [r7, r3]
 254 00aa 4A40     		eor	r2, r1
 255 00ac FA54     		strb	r2, [r7, r3]
 319:..\acn-sdk-c\src\wolfSSL\wolfcrypt\src/hmac.c ****         op[i] = ip[i] ^ OPAD;
 256              		.loc 1 319 0 discriminator 3
 257 00ae 0133     		add	r3, r3, #1
 258              	.LVL26:
 259 00b0 402B     		cmp	r3, #64
ARM GAS  C:\Users\ddemidov\AppData\Local\Temp\cc7B0Nwh.s 			page 13


 260 00b2 F2D1     		bne	.L19
 261 00b4 03E0     		b	.L8
 262              	.LVL27:
 263              	.L30:
 314:..\acn-sdk-c\src\wolfSSL\wolfcrypt\src/hmac.c ****     }
 264              		.loc 1 314 0
 265 00b6 AD26     		mov	r6, #173
 266 00b8 7642     		neg	r6, r6
 267 00ba 00E0     		b	.L8
 268              	.LVL28:
 269              	.L25:
 270 00bc 061C     		mov	r6, r0
 271              	.LVL29:
 272              	.L8:
 324:..\acn-sdk-c\src\wolfSSL\wolfcrypt\src/hmac.c **** 
 273              		.loc 1 324 0
 274 00be 301C     		mov	r0, r6
 275              		@ sp needed
 276              	.LVL30:
 277 00c0 FEBD     		pop	{r1, r2, r3, r4, r5, r6, r7, pc}
 278              		.cfi_endproc
 279              	.LFE1:
 280              		.size	wc_HmacSetKey, .-wc_HmacSetKey
 281              		.section	.text.wc_HmacUpdate,"ax",%progbits
 282              		.align	1
 283              		.global	wc_HmacUpdate
 284              		.code	16
 285              		.thumb_func
 286              		.type	wc_HmacUpdate, %function
 287              	wc_HmacUpdate:
 288              	.LFB3:
 388:..\acn-sdk-c\src\wolfSSL\wolfcrypt\src/hmac.c **** 
 389:..\acn-sdk-c\src\wolfSSL\wolfcrypt\src/hmac.c **** 
 390:..\acn-sdk-c\src\wolfSSL\wolfcrypt\src/hmac.c **** int wc_HmacUpdate(Hmac* hmac, const byte* msg, word32 length)
 391:..\acn-sdk-c\src\wolfSSL\wolfcrypt\src/hmac.c **** {
 289              		.loc 1 391 0
 290              		.cfi_startproc
 291              	.LVL31:
 292 0000 F8B5     		push	{r3, r4, r5, r6, r7, lr}
 293              		.cfi_def_cfa_offset 24
 294              		.cfi_offset 3, -24
 295              		.cfi_offset 4, -20
 296              		.cfi_offset 5, -16
 297              		.cfi_offset 6, -12
 298              		.cfi_offset 7, -8
 299              		.cfi_offset 14, -4
 392:..\acn-sdk-c\src\wolfSSL\wolfcrypt\src/hmac.c ****     int ret;
 393:..\acn-sdk-c\src\wolfSSL\wolfcrypt\src/hmac.c **** 
 394:..\acn-sdk-c\src\wolfSSL\wolfcrypt\src/hmac.c **** #ifdef HAVE_CAVIUM
 395:..\acn-sdk-c\src\wolfSSL\wolfcrypt\src/hmac.c ****     if (hmac->magic == WOLFSSL_HMAC_CAVIUM_MAGIC)
 396:..\acn-sdk-c\src\wolfSSL\wolfcrypt\src/hmac.c ****         return HmacCaviumUpdate(hmac, msg, length);
 397:..\acn-sdk-c\src\wolfSSL\wolfcrypt\src/hmac.c **** #endif
 398:..\acn-sdk-c\src\wolfSSL\wolfcrypt\src/hmac.c **** 
 399:..\acn-sdk-c\src\wolfSSL\wolfcrypt\src/hmac.c ****     if (!hmac->innerHashKeyed) {
 300              		.loc 1 399 0
 301 0002 071C     		mov	r7, r0
 302 0004 FF37     		add	r7, r7, #255
ARM GAS  C:\Users\ddemidov\AppData\Local\Temp\cc7B0Nwh.s 			page 14


 303 0006 BB7B     		ldrb	r3, [r7, #14]
 391:..\acn-sdk-c\src\wolfSSL\wolfcrypt\src/hmac.c ****     int ret;
 304              		.loc 1 391 0
 305 0008 041C     		mov	r4, r0
 306 000a 0E1C     		mov	r6, r1
 307 000c 151C     		mov	r5, r2
 308              		.loc 1 399 0
 309 000e 002B     		cmp	r3, #0
 310 0010 0AD0     		beq	.L34
 311              	.LVL32:
 312              	.L38:
 400:..\acn-sdk-c\src\wolfSSL\wolfcrypt\src/hmac.c ****         ret = HmacKeyInnerHash(hmac);
 401:..\acn-sdk-c\src\wolfSSL\wolfcrypt\src/hmac.c ****         if (ret != 0)
 402:..\acn-sdk-c\src\wolfSSL\wolfcrypt\src/hmac.c ****             return ret;
 403:..\acn-sdk-c\src\wolfSSL\wolfcrypt\src/hmac.c ****     }
 404:..\acn-sdk-c\src\wolfSSL\wolfcrypt\src/hmac.c **** 
 405:..\acn-sdk-c\src\wolfSSL\wolfcrypt\src/hmac.c ****     switch (hmac->macType) {
 313              		.loc 1 405 0
 314 0012 7B7B     		ldrb	r3, [r7, #13]
 315 0014 012B     		cmp	r3, #1
 316 0016 0CD0     		beq	.L36
 317 0018 022B     		cmp	r3, #2
 318 001a 0FD1     		bne	.L41
 406:..\acn-sdk-c\src\wolfSSL\wolfcrypt\src/hmac.c ****         #ifndef NO_MD5
 407:..\acn-sdk-c\src\wolfSSL\wolfcrypt\src/hmac.c ****         case MD5:
 408:..\acn-sdk-c\src\wolfSSL\wolfcrypt\src/hmac.c ****             wc_Md5Update(&hmac->hash.md5, msg, length);
 409:..\acn-sdk-c\src\wolfSSL\wolfcrypt\src/hmac.c ****         break;
 410:..\acn-sdk-c\src\wolfSSL\wolfcrypt\src/hmac.c ****         #endif
 411:..\acn-sdk-c\src\wolfSSL\wolfcrypt\src/hmac.c **** 
 412:..\acn-sdk-c\src\wolfSSL\wolfcrypt\src/hmac.c ****         #ifndef NO_SHA
 413:..\acn-sdk-c\src\wolfSSL\wolfcrypt\src/hmac.c ****         case SHA:
 414:..\acn-sdk-c\src\wolfSSL\wolfcrypt\src/hmac.c ****             wc_ShaUpdate(&hmac->hash.sha, msg, length);
 415:..\acn-sdk-c\src\wolfSSL\wolfcrypt\src/hmac.c ****         break;
 416:..\acn-sdk-c\src\wolfSSL\wolfcrypt\src/hmac.c ****         #endif
 417:..\acn-sdk-c\src\wolfSSL\wolfcrypt\src/hmac.c **** 
 418:..\acn-sdk-c\src\wolfSSL\wolfcrypt\src/hmac.c ****         #ifndef NO_SHA256
 419:..\acn-sdk-c\src\wolfSSL\wolfcrypt\src/hmac.c ****         case SHA256:
 420:..\acn-sdk-c\src\wolfSSL\wolfcrypt\src/hmac.c ****             ret = wc_Sha256Update(&hmac->hash.sha256, msg, length);
 319              		.loc 1 420 0
 320 001c 201C     		mov	r0, r4
 321 001e 311C     		mov	r1, r6
 322 0020 2A1C     		mov	r2, r5
 323 0022 FFF7FEFF 		bl	wc_Sha256Update
 324              	.LVL33:
 325 0026 0AE0     		b	.L35
 326              	.LVL34:
 327              	.L34:
 400:..\acn-sdk-c\src\wolfSSL\wolfcrypt\src/hmac.c ****         ret = HmacKeyInnerHash(hmac);
 328              		.loc 1 400 0
 329 0028 FFF7FEFF 		bl	HmacKeyInnerHash
 330              	.LVL35:
 401:..\acn-sdk-c\src\wolfSSL\wolfcrypt\src/hmac.c ****             return ret;
 331              		.loc 1 401 0
 332 002c 0028     		cmp	r0, #0
 333 002e F0D0     		beq	.L38
 334 0030 05E0     		b	.L35
 335              	.LVL36:
ARM GAS  C:\Users\ddemidov\AppData\Local\Temp\cc7B0Nwh.s 			page 15


 336              	.L36:
 414:..\acn-sdk-c\src\wolfSSL\wolfcrypt\src/hmac.c ****         break;
 337              		.loc 1 414 0
 338 0032 201C     		mov	r0, r4
 339 0034 311C     		mov	r1, r6
 340 0036 2A1C     		mov	r2, r5
 341 0038 FFF7FEFF 		bl	wc_ShaUpdate
 342              	.LVL37:
 343              	.L41:
 421:..\acn-sdk-c\src\wolfSSL\wolfcrypt\src/hmac.c ****             if (ret != 0)
 422:..\acn-sdk-c\src\wolfSSL\wolfcrypt\src/hmac.c ****                 return ret;
 423:..\acn-sdk-c\src\wolfSSL\wolfcrypt\src/hmac.c ****         break;
 424:..\acn-sdk-c\src\wolfSSL\wolfcrypt\src/hmac.c ****         #endif
 425:..\acn-sdk-c\src\wolfSSL\wolfcrypt\src/hmac.c **** 
 426:..\acn-sdk-c\src\wolfSSL\wolfcrypt\src/hmac.c ****         #ifdef WOLFSSL_SHA384
 427:..\acn-sdk-c\src\wolfSSL\wolfcrypt\src/hmac.c ****         case SHA384:
 428:..\acn-sdk-c\src\wolfSSL\wolfcrypt\src/hmac.c ****             ret = wc_Sha384Update(&hmac->hash.sha384, msg, length);
 429:..\acn-sdk-c\src\wolfSSL\wolfcrypt\src/hmac.c ****             if (ret != 0)
 430:..\acn-sdk-c\src\wolfSSL\wolfcrypt\src/hmac.c ****                 return ret;
 431:..\acn-sdk-c\src\wolfSSL\wolfcrypt\src/hmac.c ****         break;
 432:..\acn-sdk-c\src\wolfSSL\wolfcrypt\src/hmac.c ****         #endif
 433:..\acn-sdk-c\src\wolfSSL\wolfcrypt\src/hmac.c **** 
 434:..\acn-sdk-c\src\wolfSSL\wolfcrypt\src/hmac.c ****         #ifdef WOLFSSL_SHA512
 435:..\acn-sdk-c\src\wolfSSL\wolfcrypt\src/hmac.c ****         case SHA512:
 436:..\acn-sdk-c\src\wolfSSL\wolfcrypt\src/hmac.c ****             ret = wc_Sha512Update(&hmac->hash.sha512, msg, length);
 437:..\acn-sdk-c\src\wolfSSL\wolfcrypt\src/hmac.c ****             if (ret != 0)
 438:..\acn-sdk-c\src\wolfSSL\wolfcrypt\src/hmac.c ****                 return ret;
 439:..\acn-sdk-c\src\wolfSSL\wolfcrypt\src/hmac.c ****         break;
 440:..\acn-sdk-c\src\wolfSSL\wolfcrypt\src/hmac.c ****         #endif
 441:..\acn-sdk-c\src\wolfSSL\wolfcrypt\src/hmac.c **** 
 442:..\acn-sdk-c\src\wolfSSL\wolfcrypt\src/hmac.c ****         #ifdef HAVE_BLAKE2
 443:..\acn-sdk-c\src\wolfSSL\wolfcrypt\src/hmac.c ****         case BLAKE2B_ID:
 444:..\acn-sdk-c\src\wolfSSL\wolfcrypt\src/hmac.c ****             ret = wc_Blake2bUpdate(&hmac->hash.blake2b, msg, length);
 445:..\acn-sdk-c\src\wolfSSL\wolfcrypt\src/hmac.c ****             if (ret != 0)
 446:..\acn-sdk-c\src\wolfSSL\wolfcrypt\src/hmac.c ****                 return ret;
 447:..\acn-sdk-c\src\wolfSSL\wolfcrypt\src/hmac.c ****         break;
 448:..\acn-sdk-c\src\wolfSSL\wolfcrypt\src/hmac.c ****         #endif
 449:..\acn-sdk-c\src\wolfSSL\wolfcrypt\src/hmac.c **** 
 450:..\acn-sdk-c\src\wolfSSL\wolfcrypt\src/hmac.c ****         default:
 451:..\acn-sdk-c\src\wolfSSL\wolfcrypt\src/hmac.c ****         break;
 452:..\acn-sdk-c\src\wolfSSL\wolfcrypt\src/hmac.c ****     }
 453:..\acn-sdk-c\src\wolfSSL\wolfcrypt\src/hmac.c **** 
 454:..\acn-sdk-c\src\wolfSSL\wolfcrypt\src/hmac.c ****     return 0;
 344              		.loc 1 454 0
 345 003c 0020     		mov	r0, #0
 346              	.L35:
 455:..\acn-sdk-c\src\wolfSSL\wolfcrypt\src/hmac.c **** }
 347              		.loc 1 455 0
 348              		@ sp needed
 349              	.LVL38:
 350              	.LVL39:
 351              	.LVL40:
 352              	.LVL41:
 353 003e F8BD     		pop	{r3, r4, r5, r6, r7, pc}
 354              		.cfi_endproc
 355              	.LFE3:
 356              		.size	wc_HmacUpdate, .-wc_HmacUpdate
ARM GAS  C:\Users\ddemidov\AppData\Local\Temp\cc7B0Nwh.s 			page 16


 357              		.section	.text.wc_HmacFinal,"ax",%progbits
 358              		.align	1
 359              		.global	wc_HmacFinal
 360              		.code	16
 361              		.thumb_func
 362              		.type	wc_HmacFinal, %function
 363              	wc_HmacFinal:
 364              	.LFB4:
 456:..\acn-sdk-c\src\wolfSSL\wolfcrypt\src/hmac.c **** 
 457:..\acn-sdk-c\src\wolfSSL\wolfcrypt\src/hmac.c **** 
 458:..\acn-sdk-c\src\wolfSSL\wolfcrypt\src/hmac.c **** int wc_HmacFinal(Hmac* hmac, byte* hash)
 459:..\acn-sdk-c\src\wolfSSL\wolfcrypt\src/hmac.c **** {
 365              		.loc 1 459 0
 366              		.cfi_startproc
 367              	.LVL42:
 368 0000 F8B5     		push	{r3, r4, r5, r6, r7, lr}
 369              		.cfi_def_cfa_offset 24
 370              		.cfi_offset 3, -24
 371              		.cfi_offset 4, -20
 372              		.cfi_offset 5, -16
 373              		.cfi_offset 6, -12
 374              		.cfi_offset 7, -8
 375              		.cfi_offset 14, -4
 460:..\acn-sdk-c\src\wolfSSL\wolfcrypt\src/hmac.c ****     int ret;
 461:..\acn-sdk-c\src\wolfSSL\wolfcrypt\src/hmac.c **** 
 462:..\acn-sdk-c\src\wolfSSL\wolfcrypt\src/hmac.c **** #ifdef HAVE_CAVIUM
 463:..\acn-sdk-c\src\wolfSSL\wolfcrypt\src/hmac.c ****     if (hmac->magic == WOLFSSL_HMAC_CAVIUM_MAGIC)
 464:..\acn-sdk-c\src\wolfSSL\wolfcrypt\src/hmac.c ****         return HmacCaviumFinal(hmac, hash);
 465:..\acn-sdk-c\src\wolfSSL\wolfcrypt\src/hmac.c **** #endif
 466:..\acn-sdk-c\src\wolfSSL\wolfcrypt\src/hmac.c **** 
 467:..\acn-sdk-c\src\wolfSSL\wolfcrypt\src/hmac.c ****     if (!hmac->innerHashKeyed) {
 376              		.loc 1 467 0
 377 0002 051C     		mov	r5, r0
 378 0004 FF35     		add	r5, r5, #255
 379 0006 AB7B     		ldrb	r3, [r5, #14]
 459:..\acn-sdk-c\src\wolfSSL\wolfcrypt\src/hmac.c ****     int ret;
 380              		.loc 1 459 0
 381 0008 041C     		mov	r4, r0
 382 000a 0E1C     		mov	r6, r1
 383              		.loc 1 467 0
 384 000c 002B     		cmp	r3, #0
 385 000e 05D0     		beq	.L43
 386              	.LVL43:
 387              	.L48:
 468:..\acn-sdk-c\src\wolfSSL\wolfcrypt\src/hmac.c ****         ret = HmacKeyInnerHash(hmac);
 469:..\acn-sdk-c\src\wolfSSL\wolfcrypt\src/hmac.c ****         if (ret != 0)
 470:..\acn-sdk-c\src\wolfSSL\wolfcrypt\src/hmac.c ****             return ret;
 471:..\acn-sdk-c\src\wolfSSL\wolfcrypt\src/hmac.c ****     }
 472:..\acn-sdk-c\src\wolfSSL\wolfcrypt\src/hmac.c **** 
 473:..\acn-sdk-c\src\wolfSSL\wolfcrypt\src/hmac.c ****     switch (hmac->macType) {
 388              		.loc 1 473 0
 389 0010 6B7B     		ldrb	r3, [r5, #13]
 390 0012 012B     		cmp	r3, #1
 391 0014 07D0     		beq	.L45
 392 0016 022B     		cmp	r3, #2
 393 0018 1BD0     		beq	.L46
 394 001a 37E0     		b	.L44
ARM GAS  C:\Users\ddemidov\AppData\Local\Temp\cc7B0Nwh.s 			page 17


 395              	.LVL44:
 396              	.L43:
 468:..\acn-sdk-c\src\wolfSSL\wolfcrypt\src/hmac.c ****         ret = HmacKeyInnerHash(hmac);
 397              		.loc 1 468 0
 398 001c FFF7FEFF 		bl	HmacKeyInnerHash
 399              	.LVL45:
 469:..\acn-sdk-c\src\wolfSSL\wolfcrypt\src/hmac.c ****             return ret;
 400              		.loc 1 469 0
 401 0020 0028     		cmp	r0, #0
 402 0022 F5D0     		beq	.L48
 403 0024 34E0     		b	.L47
 404              	.LVL46:
 405              	.L45:
 474:..\acn-sdk-c\src\wolfSSL\wolfcrypt\src/hmac.c ****         #ifndef NO_MD5
 475:..\acn-sdk-c\src\wolfSSL\wolfcrypt\src/hmac.c ****         case MD5:
 476:..\acn-sdk-c\src\wolfSSL\wolfcrypt\src/hmac.c ****         {
 477:..\acn-sdk-c\src\wolfSSL\wolfcrypt\src/hmac.c ****             wc_Md5Final(&hmac->hash.md5, (byte*) hmac->innerHash);
 478:..\acn-sdk-c\src\wolfSSL\wolfcrypt\src/hmac.c **** 
 479:..\acn-sdk-c\src\wolfSSL\wolfcrypt\src/hmac.c ****             wc_Md5Update(&hmac->hash.md5, (byte*) hmac->opad, MD5_BLOCK_SIZE);
 480:..\acn-sdk-c\src\wolfSSL\wolfcrypt\src/hmac.c ****             wc_Md5Update(&hmac->hash.md5,
 481:..\acn-sdk-c\src\wolfSSL\wolfcrypt\src/hmac.c ****                                      (byte*) hmac->innerHash, MD5_DIGEST_SIZE);
 482:..\acn-sdk-c\src\wolfSSL\wolfcrypt\src/hmac.c **** 
 483:..\acn-sdk-c\src\wolfSSL\wolfcrypt\src/hmac.c ****             wc_Md5Final(&hmac->hash.md5, hash);
 484:..\acn-sdk-c\src\wolfSSL\wolfcrypt\src/hmac.c ****         }
 485:..\acn-sdk-c\src\wolfSSL\wolfcrypt\src/hmac.c ****         break;
 486:..\acn-sdk-c\src\wolfSSL\wolfcrypt\src/hmac.c ****         #endif
 487:..\acn-sdk-c\src\wolfSSL\wolfcrypt\src/hmac.c **** 
 488:..\acn-sdk-c\src\wolfSSL\wolfcrypt\src/hmac.c ****         #ifndef NO_SHA
 489:..\acn-sdk-c\src\wolfSSL\wolfcrypt\src/hmac.c ****         case SHA:
 490:..\acn-sdk-c\src\wolfSSL\wolfcrypt\src/hmac.c ****         {
 491:..\acn-sdk-c\src\wolfSSL\wolfcrypt\src/hmac.c ****             wc_ShaFinal(&hmac->hash.sha, (byte*) hmac->innerHash);
 406              		.loc 1 491 0
 407 0026 271C     		mov	r7, r4
 408 0028 EC37     		add	r7, r7, #236
 409 002a 391C     		mov	r1, r7
 410 002c 201C     		mov	r0, r4
 411 002e FFF7FEFF 		bl	wc_ShaFinal
 412              	.LVL47:
 492:..\acn-sdk-c\src\wolfSSL\wolfcrypt\src/hmac.c **** 
 493:..\acn-sdk-c\src\wolfSSL\wolfcrypt\src/hmac.c ****             wc_ShaUpdate(&hmac->hash.sha, (byte*) hmac->opad, SHA_BLOCK_SIZE);
 413              		.loc 1 493 0
 414 0032 211C     		mov	r1, r4
 415 0034 201C     		mov	r0, r4
 416 0036 AC31     		add	r1, r1, #172
 417 0038 4022     		mov	r2, #64
 418 003a FFF7FEFF 		bl	wc_ShaUpdate
 419              	.LVL48:
 494:..\acn-sdk-c\src\wolfSSL\wolfcrypt\src/hmac.c ****             wc_ShaUpdate(&hmac->hash.sha,
 420              		.loc 1 494 0
 421 003e 391C     		mov	r1, r7
 422 0040 201C     		mov	r0, r4
 423 0042 1422     		mov	r2, #20
 424 0044 FFF7FEFF 		bl	wc_ShaUpdate
 425              	.LVL49:
 495:..\acn-sdk-c\src\wolfSSL\wolfcrypt\src/hmac.c ****                                      (byte*) hmac->innerHash, SHA_DIGEST_SIZE);
 496:..\acn-sdk-c\src\wolfSSL\wolfcrypt\src/hmac.c **** 
 497:..\acn-sdk-c\src\wolfSSL\wolfcrypt\src/hmac.c ****             wc_ShaFinal(&hmac->hash.sha, hash);
ARM GAS  C:\Users\ddemidov\AppData\Local\Temp\cc7B0Nwh.s 			page 18


 426              		.loc 1 497 0
 427 0048 201C     		mov	r0, r4
 428 004a 311C     		mov	r1, r6
 429 004c FFF7FEFF 		bl	wc_ShaFinal
 430              	.LVL50:
 498:..\acn-sdk-c\src\wolfSSL\wolfcrypt\src/hmac.c ****         }
 499:..\acn-sdk-c\src\wolfSSL\wolfcrypt\src/hmac.c ****         break;
 431              		.loc 1 499 0
 432 0050 1CE0     		b	.L44
 433              	.L46:
 500:..\acn-sdk-c\src\wolfSSL\wolfcrypt\src/hmac.c ****         #endif
 501:..\acn-sdk-c\src\wolfSSL\wolfcrypt\src/hmac.c **** 
 502:..\acn-sdk-c\src\wolfSSL\wolfcrypt\src/hmac.c ****         #ifndef NO_SHA256
 503:..\acn-sdk-c\src\wolfSSL\wolfcrypt\src/hmac.c ****         case SHA256:
 504:..\acn-sdk-c\src\wolfSSL\wolfcrypt\src/hmac.c ****         {
 505:..\acn-sdk-c\src\wolfSSL\wolfcrypt\src/hmac.c ****             ret = wc_Sha256Final(&hmac->hash.sha256, (byte*) hmac->innerHash);
 434              		.loc 1 505 0
 435 0052 271C     		mov	r7, r4
 436 0054 EC37     		add	r7, r7, #236
 437 0056 201C     		mov	r0, r4
 438 0058 391C     		mov	r1, r7
 439 005a FFF7FEFF 		bl	wc_Sha256Final
 440              	.LVL51:
 506:..\acn-sdk-c\src\wolfSSL\wolfcrypt\src/hmac.c ****             if (ret != 0)
 441              		.loc 1 506 0
 442 005e 0028     		cmp	r0, #0
 443 0060 16D1     		bne	.L47
 507:..\acn-sdk-c\src\wolfSSL\wolfcrypt\src/hmac.c ****                 return ret;
 508:..\acn-sdk-c\src\wolfSSL\wolfcrypt\src/hmac.c **** 
 509:..\acn-sdk-c\src\wolfSSL\wolfcrypt\src/hmac.c ****             ret = wc_Sha256Update(&hmac->hash.sha256,
 444              		.loc 1 509 0
 445 0062 211C     		mov	r1, r4
 446 0064 201C     		mov	r0, r4
 447              	.LVL52:
 448 0066 AC31     		add	r1, r1, #172
 449 0068 4022     		mov	r2, #64
 450 006a FFF7FEFF 		bl	wc_Sha256Update
 451              	.LVL53:
 510:..\acn-sdk-c\src\wolfSSL\wolfcrypt\src/hmac.c ****                                 (byte*) hmac->opad, SHA256_BLOCK_SIZE);
 511:..\acn-sdk-c\src\wolfSSL\wolfcrypt\src/hmac.c ****             if (ret != 0)
 452              		.loc 1 511 0
 453 006e 0028     		cmp	r0, #0
 454 0070 0ED1     		bne	.L47
 512:..\acn-sdk-c\src\wolfSSL\wolfcrypt\src/hmac.c ****                 return ret;
 513:..\acn-sdk-c\src\wolfSSL\wolfcrypt\src/hmac.c **** 
 514:..\acn-sdk-c\src\wolfSSL\wolfcrypt\src/hmac.c ****             ret = wc_Sha256Update(&hmac->hash.sha256,
 455              		.loc 1 514 0
 456 0072 201C     		mov	r0, r4
 457              	.LVL54:
 458 0074 391C     		mov	r1, r7
 459 0076 2022     		mov	r2, #32
 460 0078 FFF7FEFF 		bl	wc_Sha256Update
 461              	.LVL55:
 515:..\acn-sdk-c\src\wolfSSL\wolfcrypt\src/hmac.c ****                                 (byte*) hmac->innerHash, SHA256_DIGEST_SIZE);
 516:..\acn-sdk-c\src\wolfSSL\wolfcrypt\src/hmac.c ****             if (ret != 0)
 462              		.loc 1 516 0
 463 007c 0028     		cmp	r0, #0
ARM GAS  C:\Users\ddemidov\AppData\Local\Temp\cc7B0Nwh.s 			page 19


 464 007e 07D1     		bne	.L47
 517:..\acn-sdk-c\src\wolfSSL\wolfcrypt\src/hmac.c ****                 return ret;
 518:..\acn-sdk-c\src\wolfSSL\wolfcrypt\src/hmac.c **** 
 519:..\acn-sdk-c\src\wolfSSL\wolfcrypt\src/hmac.c ****             ret = wc_Sha256Final(&hmac->hash.sha256, hash);
 465              		.loc 1 519 0
 466 0080 201C     		mov	r0, r4
 467              	.LVL56:
 468 0082 311C     		mov	r1, r6
 469 0084 FFF7FEFF 		bl	wc_Sha256Final
 470              	.LVL57:
 520:..\acn-sdk-c\src\wolfSSL\wolfcrypt\src/hmac.c ****             if (ret != 0)
 471              		.loc 1 520 0
 472 0088 0028     		cmp	r0, #0
 473 008a 01D1     		bne	.L47
 474              	.LVL58:
 475              	.L44:
 521:..\acn-sdk-c\src\wolfSSL\wolfcrypt\src/hmac.c ****                 return ret;
 522:..\acn-sdk-c\src\wolfSSL\wolfcrypt\src/hmac.c ****         }
 523:..\acn-sdk-c\src\wolfSSL\wolfcrypt\src/hmac.c ****         break;
 524:..\acn-sdk-c\src\wolfSSL\wolfcrypt\src/hmac.c ****         #endif
 525:..\acn-sdk-c\src\wolfSSL\wolfcrypt\src/hmac.c **** 
 526:..\acn-sdk-c\src\wolfSSL\wolfcrypt\src/hmac.c ****         #ifdef WOLFSSL_SHA384
 527:..\acn-sdk-c\src\wolfSSL\wolfcrypt\src/hmac.c ****         case SHA384:
 528:..\acn-sdk-c\src\wolfSSL\wolfcrypt\src/hmac.c ****         {
 529:..\acn-sdk-c\src\wolfSSL\wolfcrypt\src/hmac.c ****             ret = wc_Sha384Final(&hmac->hash.sha384, (byte*) hmac->innerHash);
 530:..\acn-sdk-c\src\wolfSSL\wolfcrypt\src/hmac.c ****             if (ret != 0)
 531:..\acn-sdk-c\src\wolfSSL\wolfcrypt\src/hmac.c ****                 return ret;
 532:..\acn-sdk-c\src\wolfSSL\wolfcrypt\src/hmac.c **** 
 533:..\acn-sdk-c\src\wolfSSL\wolfcrypt\src/hmac.c ****             ret = wc_Sha384Update(&hmac->hash.sha384,
 534:..\acn-sdk-c\src\wolfSSL\wolfcrypt\src/hmac.c ****                                  (byte*) hmac->opad, SHA384_BLOCK_SIZE);
 535:..\acn-sdk-c\src\wolfSSL\wolfcrypt\src/hmac.c ****             if (ret != 0)
 536:..\acn-sdk-c\src\wolfSSL\wolfcrypt\src/hmac.c ****                 return ret;
 537:..\acn-sdk-c\src\wolfSSL\wolfcrypt\src/hmac.c **** 
 538:..\acn-sdk-c\src\wolfSSL\wolfcrypt\src/hmac.c ****             ret = wc_Sha384Update(&hmac->hash.sha384,
 539:..\acn-sdk-c\src\wolfSSL\wolfcrypt\src/hmac.c ****                                  (byte*) hmac->innerHash, SHA384_DIGEST_SIZE);
 540:..\acn-sdk-c\src\wolfSSL\wolfcrypt\src/hmac.c ****             if (ret != 0)
 541:..\acn-sdk-c\src\wolfSSL\wolfcrypt\src/hmac.c ****                 return ret;
 542:..\acn-sdk-c\src\wolfSSL\wolfcrypt\src/hmac.c **** 
 543:..\acn-sdk-c\src\wolfSSL\wolfcrypt\src/hmac.c ****             ret = wc_Sha384Final(&hmac->hash.sha384, hash);
 544:..\acn-sdk-c\src\wolfSSL\wolfcrypt\src/hmac.c ****             if (ret != 0)
 545:..\acn-sdk-c\src\wolfSSL\wolfcrypt\src/hmac.c ****                 return ret;
 546:..\acn-sdk-c\src\wolfSSL\wolfcrypt\src/hmac.c ****         }
 547:..\acn-sdk-c\src\wolfSSL\wolfcrypt\src/hmac.c ****         break;
 548:..\acn-sdk-c\src\wolfSSL\wolfcrypt\src/hmac.c ****         #endif
 549:..\acn-sdk-c\src\wolfSSL\wolfcrypt\src/hmac.c **** 
 550:..\acn-sdk-c\src\wolfSSL\wolfcrypt\src/hmac.c ****         #ifdef WOLFSSL_SHA512
 551:..\acn-sdk-c\src\wolfSSL\wolfcrypt\src/hmac.c ****         case SHA512:
 552:..\acn-sdk-c\src\wolfSSL\wolfcrypt\src/hmac.c ****         {
 553:..\acn-sdk-c\src\wolfSSL\wolfcrypt\src/hmac.c ****             ret = wc_Sha512Final(&hmac->hash.sha512, (byte*) hmac->innerHash);
 554:..\acn-sdk-c\src\wolfSSL\wolfcrypt\src/hmac.c ****             if (ret != 0)
 555:..\acn-sdk-c\src\wolfSSL\wolfcrypt\src/hmac.c ****                 return ret;
 556:..\acn-sdk-c\src\wolfSSL\wolfcrypt\src/hmac.c **** 
 557:..\acn-sdk-c\src\wolfSSL\wolfcrypt\src/hmac.c ****             ret = wc_Sha512Update(&hmac->hash.sha512,
 558:..\acn-sdk-c\src\wolfSSL\wolfcrypt\src/hmac.c ****                                  (byte*) hmac->opad, SHA512_BLOCK_SIZE);
 559:..\acn-sdk-c\src\wolfSSL\wolfcrypt\src/hmac.c ****             if (ret != 0)
 560:..\acn-sdk-c\src\wolfSSL\wolfcrypt\src/hmac.c ****                 return ret;
 561:..\acn-sdk-c\src\wolfSSL\wolfcrypt\src/hmac.c **** 
ARM GAS  C:\Users\ddemidov\AppData\Local\Temp\cc7B0Nwh.s 			page 20


 562:..\acn-sdk-c\src\wolfSSL\wolfcrypt\src/hmac.c ****             ret = wc_Sha512Update(&hmac->hash.sha512,
 563:..\acn-sdk-c\src\wolfSSL\wolfcrypt\src/hmac.c ****                                  (byte*) hmac->innerHash, SHA512_DIGEST_SIZE);
 564:..\acn-sdk-c\src\wolfSSL\wolfcrypt\src/hmac.c ****             if (ret != 0)
 565:..\acn-sdk-c\src\wolfSSL\wolfcrypt\src/hmac.c ****                 return ret;
 566:..\acn-sdk-c\src\wolfSSL\wolfcrypt\src/hmac.c **** 
 567:..\acn-sdk-c\src\wolfSSL\wolfcrypt\src/hmac.c ****             ret = wc_Sha512Final(&hmac->hash.sha512, hash);
 568:..\acn-sdk-c\src\wolfSSL\wolfcrypt\src/hmac.c ****             if (ret != 0)
 569:..\acn-sdk-c\src\wolfSSL\wolfcrypt\src/hmac.c ****                 return ret;
 570:..\acn-sdk-c\src\wolfSSL\wolfcrypt\src/hmac.c ****         }
 571:..\acn-sdk-c\src\wolfSSL\wolfcrypt\src/hmac.c ****         break;
 572:..\acn-sdk-c\src\wolfSSL\wolfcrypt\src/hmac.c ****         #endif
 573:..\acn-sdk-c\src\wolfSSL\wolfcrypt\src/hmac.c **** 
 574:..\acn-sdk-c\src\wolfSSL\wolfcrypt\src/hmac.c ****         #ifdef HAVE_BLAKE2
 575:..\acn-sdk-c\src\wolfSSL\wolfcrypt\src/hmac.c ****         case BLAKE2B_ID:
 576:..\acn-sdk-c\src\wolfSSL\wolfcrypt\src/hmac.c ****         {
 577:..\acn-sdk-c\src\wolfSSL\wolfcrypt\src/hmac.c ****             ret = wc_Blake2bFinal(&hmac->hash.blake2b, (byte*) hmac->innerHash,
 578:..\acn-sdk-c\src\wolfSSL\wolfcrypt\src/hmac.c ****                          BLAKE2B_256);
 579:..\acn-sdk-c\src\wolfSSL\wolfcrypt\src/hmac.c ****             if (ret != 0)
 580:..\acn-sdk-c\src\wolfSSL\wolfcrypt\src/hmac.c ****                 return ret;
 581:..\acn-sdk-c\src\wolfSSL\wolfcrypt\src/hmac.c **** 
 582:..\acn-sdk-c\src\wolfSSL\wolfcrypt\src/hmac.c ****             ret = wc_Blake2bUpdate(&hmac->hash.blake2b,
 583:..\acn-sdk-c\src\wolfSSL\wolfcrypt\src/hmac.c ****                                  (byte*) hmac->opad, BLAKE2B_BLOCKBYTES);
 584:..\acn-sdk-c\src\wolfSSL\wolfcrypt\src/hmac.c ****             if (ret != 0)
 585:..\acn-sdk-c\src\wolfSSL\wolfcrypt\src/hmac.c ****                 return ret;
 586:..\acn-sdk-c\src\wolfSSL\wolfcrypt\src/hmac.c **** 
 587:..\acn-sdk-c\src\wolfSSL\wolfcrypt\src/hmac.c ****             ret = wc_Blake2bUpdate(&hmac->hash.blake2b,
 588:..\acn-sdk-c\src\wolfSSL\wolfcrypt\src/hmac.c ****                                  (byte*) hmac->innerHash, BLAKE2B_256);
 589:..\acn-sdk-c\src\wolfSSL\wolfcrypt\src/hmac.c ****             if (ret != 0)
 590:..\acn-sdk-c\src\wolfSSL\wolfcrypt\src/hmac.c ****                 return ret;
 591:..\acn-sdk-c\src\wolfSSL\wolfcrypt\src/hmac.c **** 
 592:..\acn-sdk-c\src\wolfSSL\wolfcrypt\src/hmac.c ****             ret = wc_Blake2bFinal(&hmac->hash.blake2b, hash, BLAKE2B_256);
 593:..\acn-sdk-c\src\wolfSSL\wolfcrypt\src/hmac.c ****             if (ret != 0)
 594:..\acn-sdk-c\src\wolfSSL\wolfcrypt\src/hmac.c ****                 return ret;
 595:..\acn-sdk-c\src\wolfSSL\wolfcrypt\src/hmac.c ****         }
 596:..\acn-sdk-c\src\wolfSSL\wolfcrypt\src/hmac.c ****         break;
 597:..\acn-sdk-c\src\wolfSSL\wolfcrypt\src/hmac.c ****         #endif
 598:..\acn-sdk-c\src\wolfSSL\wolfcrypt\src/hmac.c **** 
 599:..\acn-sdk-c\src\wolfSSL\wolfcrypt\src/hmac.c ****         default:
 600:..\acn-sdk-c\src\wolfSSL\wolfcrypt\src/hmac.c ****         break;
 601:..\acn-sdk-c\src\wolfSSL\wolfcrypt\src/hmac.c ****     }
 602:..\acn-sdk-c\src\wolfSSL\wolfcrypt\src/hmac.c **** 
 603:..\acn-sdk-c\src\wolfSSL\wolfcrypt\src/hmac.c ****     hmac->innerHashKeyed = 0;
 476              		.loc 1 603 0
 477 008c 0020     		mov	r0, #0
 478 008e A873     		strb	r0, [r5, #14]
 479              	.L47:
 604:..\acn-sdk-c\src\wolfSSL\wolfcrypt\src/hmac.c **** 
 605:..\acn-sdk-c\src\wolfSSL\wolfcrypt\src/hmac.c ****     return 0;
 606:..\acn-sdk-c\src\wolfSSL\wolfcrypt\src/hmac.c **** }
 480              		.loc 1 606 0
 481              		@ sp needed
 482              	.LVL59:
 483              	.LVL60:
 484              	.LVL61:
 485 0090 F8BD     		pop	{r3, r4, r5, r6, r7, pc}
 486              		.cfi_endproc
 487              	.LFE4:
ARM GAS  C:\Users\ddemidov\AppData\Local\Temp\cc7B0Nwh.s 			page 21


 488              		.size	wc_HmacFinal, .-wc_HmacFinal
 489              		.section	.text.wolfSSL_GetHmacMaxSize,"ax",%progbits
 490              		.align	1
 491              		.global	wolfSSL_GetHmacMaxSize
 492              		.code	16
 493              		.thumb_func
 494              		.type	wolfSSL_GetHmacMaxSize, %function
 495              	wolfSSL_GetHmacMaxSize:
 496              	.LFB5:
 607:..\acn-sdk-c\src\wolfSSL\wolfcrypt\src/hmac.c **** 
 608:..\acn-sdk-c\src\wolfSSL\wolfcrypt\src/hmac.c **** 
 609:..\acn-sdk-c\src\wolfSSL\wolfcrypt\src/hmac.c **** #ifdef HAVE_CAVIUM
 610:..\acn-sdk-c\src\wolfSSL\wolfcrypt\src/hmac.c **** 
 611:..\acn-sdk-c\src\wolfSSL\wolfcrypt\src/hmac.c **** /* Initialize Hmac for use with Nitrox device */
 612:..\acn-sdk-c\src\wolfSSL\wolfcrypt\src/hmac.c **** int wc_HmacInitCavium(Hmac* hmac, int devId)
 613:..\acn-sdk-c\src\wolfSSL\wolfcrypt\src/hmac.c **** {
 614:..\acn-sdk-c\src\wolfSSL\wolfcrypt\src/hmac.c ****     if (hmac == NULL)
 615:..\acn-sdk-c\src\wolfSSL\wolfcrypt\src/hmac.c ****         return -1;
 616:..\acn-sdk-c\src\wolfSSL\wolfcrypt\src/hmac.c **** 
 617:..\acn-sdk-c\src\wolfSSL\wolfcrypt\src/hmac.c ****     if (CspAllocContext(CONTEXT_SSL, &hmac->contextHandle, devId) != 0)
 618:..\acn-sdk-c\src\wolfSSL\wolfcrypt\src/hmac.c ****         return -1;
 619:..\acn-sdk-c\src\wolfSSL\wolfcrypt\src/hmac.c **** 
 620:..\acn-sdk-c\src\wolfSSL\wolfcrypt\src/hmac.c ****     hmac->keyLen  = 0;
 621:..\acn-sdk-c\src\wolfSSL\wolfcrypt\src/hmac.c ****     hmac->dataLen = 0;
 622:..\acn-sdk-c\src\wolfSSL\wolfcrypt\src/hmac.c ****     hmac->type    = 0;
 623:..\acn-sdk-c\src\wolfSSL\wolfcrypt\src/hmac.c ****     hmac->devId   = devId;
 624:..\acn-sdk-c\src\wolfSSL\wolfcrypt\src/hmac.c ****     hmac->magic   = WOLFSSL_HMAC_CAVIUM_MAGIC;
 625:..\acn-sdk-c\src\wolfSSL\wolfcrypt\src/hmac.c ****     hmac->data    = NULL;        /* buffered input data */
 626:..\acn-sdk-c\src\wolfSSL\wolfcrypt\src/hmac.c **** 
 627:..\acn-sdk-c\src\wolfSSL\wolfcrypt\src/hmac.c ****     hmac->innerHashKeyed = 0;
 628:..\acn-sdk-c\src\wolfSSL\wolfcrypt\src/hmac.c **** 
 629:..\acn-sdk-c\src\wolfSSL\wolfcrypt\src/hmac.c ****     return 0;
 630:..\acn-sdk-c\src\wolfSSL\wolfcrypt\src/hmac.c **** }
 631:..\acn-sdk-c\src\wolfSSL\wolfcrypt\src/hmac.c **** 
 632:..\acn-sdk-c\src\wolfSSL\wolfcrypt\src/hmac.c **** 
 633:..\acn-sdk-c\src\wolfSSL\wolfcrypt\src/hmac.c **** /* Free Hmac from use with Nitrox device */
 634:..\acn-sdk-c\src\wolfSSL\wolfcrypt\src/hmac.c **** void wc_HmacFreeCavium(Hmac* hmac)
 635:..\acn-sdk-c\src\wolfSSL\wolfcrypt\src/hmac.c **** {
 636:..\acn-sdk-c\src\wolfSSL\wolfcrypt\src/hmac.c ****     if (hmac == NULL)
 637:..\acn-sdk-c\src\wolfSSL\wolfcrypt\src/hmac.c ****         return;
 638:..\acn-sdk-c\src\wolfSSL\wolfcrypt\src/hmac.c **** 
 639:..\acn-sdk-c\src\wolfSSL\wolfcrypt\src/hmac.c ****     CspFreeContext(CONTEXT_SSL, hmac->contextHandle, hmac->devId);
 640:..\acn-sdk-c\src\wolfSSL\wolfcrypt\src/hmac.c ****     hmac->magic = 0;
 641:..\acn-sdk-c\src\wolfSSL\wolfcrypt\src/hmac.c ****     XFREE(hmac->data, NULL, DYNAMIC_TYPE_CAVIUM_TMP);
 642:..\acn-sdk-c\src\wolfSSL\wolfcrypt\src/hmac.c ****     hmac->data = NULL;
 643:..\acn-sdk-c\src\wolfSSL\wolfcrypt\src/hmac.c **** }
 644:..\acn-sdk-c\src\wolfSSL\wolfcrypt\src/hmac.c **** 
 645:..\acn-sdk-c\src\wolfSSL\wolfcrypt\src/hmac.c **** 
 646:..\acn-sdk-c\src\wolfSSL\wolfcrypt\src/hmac.c **** static int HmacCaviumFinal(Hmac* hmac, byte* hash)
 647:..\acn-sdk-c\src\wolfSSL\wolfcrypt\src/hmac.c **** {
 648:..\acn-sdk-c\src\wolfSSL\wolfcrypt\src/hmac.c ****     word32 requestId;
 649:..\acn-sdk-c\src\wolfSSL\wolfcrypt\src/hmac.c **** 
 650:..\acn-sdk-c\src\wolfSSL\wolfcrypt\src/hmac.c ****     if (CspHmac(CAVIUM_BLOCKING, hmac->type, NULL, hmac->keyLen,
 651:..\acn-sdk-c\src\wolfSSL\wolfcrypt\src/hmac.c ****                 (byte*)hmac->ipad, hmac->dataLen, hmac->data, hash, &requestId,
 652:..\acn-sdk-c\src\wolfSSL\wolfcrypt\src/hmac.c ****                 hmac->devId) != 0) {
 653:..\acn-sdk-c\src\wolfSSL\wolfcrypt\src/hmac.c ****         WOLFSSL_MSG("Cavium Hmac failed");
 654:..\acn-sdk-c\src\wolfSSL\wolfcrypt\src/hmac.c ****         return -1;
ARM GAS  C:\Users\ddemidov\AppData\Local\Temp\cc7B0Nwh.s 			page 22


 655:..\acn-sdk-c\src\wolfSSL\wolfcrypt\src/hmac.c ****     }
 656:..\acn-sdk-c\src\wolfSSL\wolfcrypt\src/hmac.c ****     hmac->innerHashKeyed = 0;  /* tell update to start over if used again */
 657:..\acn-sdk-c\src\wolfSSL\wolfcrypt\src/hmac.c **** 
 658:..\acn-sdk-c\src\wolfSSL\wolfcrypt\src/hmac.c ****     return 0;
 659:..\acn-sdk-c\src\wolfSSL\wolfcrypt\src/hmac.c **** }
 660:..\acn-sdk-c\src\wolfSSL\wolfcrypt\src/hmac.c **** 
 661:..\acn-sdk-c\src\wolfSSL\wolfcrypt\src/hmac.c **** 
 662:..\acn-sdk-c\src\wolfSSL\wolfcrypt\src/hmac.c **** static int HmacCaviumUpdate(Hmac* hmac, const byte* msg, word32 length)
 663:..\acn-sdk-c\src\wolfSSL\wolfcrypt\src/hmac.c **** {
 664:..\acn-sdk-c\src\wolfSSL\wolfcrypt\src/hmac.c ****     word16 add = (word16)length;
 665:..\acn-sdk-c\src\wolfSSL\wolfcrypt\src/hmac.c ****     word32 total;
 666:..\acn-sdk-c\src\wolfSSL\wolfcrypt\src/hmac.c ****     byte*  tmp;
 667:..\acn-sdk-c\src\wolfSSL\wolfcrypt\src/hmac.c **** 
 668:..\acn-sdk-c\src\wolfSSL\wolfcrypt\src/hmac.c ****     if (length > WOLFSSL_MAX_16BIT) {
 669:..\acn-sdk-c\src\wolfSSL\wolfcrypt\src/hmac.c ****         WOLFSSL_MSG("Too big msg for cavium hmac");
 670:..\acn-sdk-c\src\wolfSSL\wolfcrypt\src/hmac.c ****         return -1;
 671:..\acn-sdk-c\src\wolfSSL\wolfcrypt\src/hmac.c ****     }
 672:..\acn-sdk-c\src\wolfSSL\wolfcrypt\src/hmac.c **** 
 673:..\acn-sdk-c\src\wolfSSL\wolfcrypt\src/hmac.c ****     if (hmac->innerHashKeyed == 0) {  /* starting new */
 674:..\acn-sdk-c\src\wolfSSL\wolfcrypt\src/hmac.c ****         hmac->dataLen        = 0;
 675:..\acn-sdk-c\src\wolfSSL\wolfcrypt\src/hmac.c ****         hmac->innerHashKeyed = 1;
 676:..\acn-sdk-c\src\wolfSSL\wolfcrypt\src/hmac.c ****     }
 677:..\acn-sdk-c\src\wolfSSL\wolfcrypt\src/hmac.c **** 
 678:..\acn-sdk-c\src\wolfSSL\wolfcrypt\src/hmac.c ****     total = add + hmac->dataLen;
 679:..\acn-sdk-c\src\wolfSSL\wolfcrypt\src/hmac.c ****     if (total > WOLFSSL_MAX_16BIT) {
 680:..\acn-sdk-c\src\wolfSSL\wolfcrypt\src/hmac.c ****         WOLFSSL_MSG("Too big msg for cavium hmac");
 681:..\acn-sdk-c\src\wolfSSL\wolfcrypt\src/hmac.c ****         return -1;
 682:..\acn-sdk-c\src\wolfSSL\wolfcrypt\src/hmac.c ****     }
 683:..\acn-sdk-c\src\wolfSSL\wolfcrypt\src/hmac.c **** 
 684:..\acn-sdk-c\src\wolfSSL\wolfcrypt\src/hmac.c ****     tmp = XMALLOC(hmac->dataLen + add, NULL,DYNAMIC_TYPE_CAVIUM_TMP);
 685:..\acn-sdk-c\src\wolfSSL\wolfcrypt\src/hmac.c ****     if (tmp == NULL) {
 686:..\acn-sdk-c\src\wolfSSL\wolfcrypt\src/hmac.c ****         WOLFSSL_MSG("Out of memory for cavium update");
 687:..\acn-sdk-c\src\wolfSSL\wolfcrypt\src/hmac.c ****         return -1;
 688:..\acn-sdk-c\src\wolfSSL\wolfcrypt\src/hmac.c ****     }
 689:..\acn-sdk-c\src\wolfSSL\wolfcrypt\src/hmac.c ****     if (hmac->dataLen)
 690:..\acn-sdk-c\src\wolfSSL\wolfcrypt\src/hmac.c ****         XMEMCPY(tmp, hmac->data,  hmac->dataLen);
 691:..\acn-sdk-c\src\wolfSSL\wolfcrypt\src/hmac.c ****     XMEMCPY(tmp + hmac->dataLen, msg, add);
 692:..\acn-sdk-c\src\wolfSSL\wolfcrypt\src/hmac.c **** 
 693:..\acn-sdk-c\src\wolfSSL\wolfcrypt\src/hmac.c ****     hmac->dataLen += add;
 694:..\acn-sdk-c\src\wolfSSL\wolfcrypt\src/hmac.c ****     XFREE(hmac->data, NULL, DYNAMIC_TYPE_CAVIUM_TMP);
 695:..\acn-sdk-c\src\wolfSSL\wolfcrypt\src/hmac.c ****     hmac->data = tmp;
 696:..\acn-sdk-c\src\wolfSSL\wolfcrypt\src/hmac.c **** 
 697:..\acn-sdk-c\src\wolfSSL\wolfcrypt\src/hmac.c ****     return 0;
 698:..\acn-sdk-c\src\wolfSSL\wolfcrypt\src/hmac.c **** }
 699:..\acn-sdk-c\src\wolfSSL\wolfcrypt\src/hmac.c **** 
 700:..\acn-sdk-c\src\wolfSSL\wolfcrypt\src/hmac.c **** 
 701:..\acn-sdk-c\src\wolfSSL\wolfcrypt\src/hmac.c **** static int HmacCaviumSetKey(Hmac* hmac, int type, const byte* key,
 702:..\acn-sdk-c\src\wolfSSL\wolfcrypt\src/hmac.c ****                             word32 length)
 703:..\acn-sdk-c\src\wolfSSL\wolfcrypt\src/hmac.c **** {
 704:..\acn-sdk-c\src\wolfSSL\wolfcrypt\src/hmac.c ****     hmac->macType = (byte)type;
 705:..\acn-sdk-c\src\wolfSSL\wolfcrypt\src/hmac.c ****     if (type == MD5)
 706:..\acn-sdk-c\src\wolfSSL\wolfcrypt\src/hmac.c ****         hmac->type = MD5_TYPE;
 707:..\acn-sdk-c\src\wolfSSL\wolfcrypt\src/hmac.c ****     else if (type == SHA)
 708:..\acn-sdk-c\src\wolfSSL\wolfcrypt\src/hmac.c ****         hmac->type = SHA1_TYPE;
 709:..\acn-sdk-c\src\wolfSSL\wolfcrypt\src/hmac.c ****     else if (type == SHA256)
 710:..\acn-sdk-c\src\wolfSSL\wolfcrypt\src/hmac.c ****         hmac->type = SHA256_TYPE;
 711:..\acn-sdk-c\src\wolfSSL\wolfcrypt\src/hmac.c ****     else  {
ARM GAS  C:\Users\ddemidov\AppData\Local\Temp\cc7B0Nwh.s 			page 23


 712:..\acn-sdk-c\src\wolfSSL\wolfcrypt\src/hmac.c ****         WOLFSSL_MSG("unsupported cavium hmac type");
 713:..\acn-sdk-c\src\wolfSSL\wolfcrypt\src/hmac.c ****     }
 714:..\acn-sdk-c\src\wolfSSL\wolfcrypt\src/hmac.c **** 
 715:..\acn-sdk-c\src\wolfSSL\wolfcrypt\src/hmac.c ****     hmac->innerHashKeyed = 0;  /* should we key Startup flag */
 716:..\acn-sdk-c\src\wolfSSL\wolfcrypt\src/hmac.c **** 
 717:..\acn-sdk-c\src\wolfSSL\wolfcrypt\src/hmac.c ****     hmac->keyLen = (word16)length;
 718:..\acn-sdk-c\src\wolfSSL\wolfcrypt\src/hmac.c ****     /* store key in ipad */
 719:..\acn-sdk-c\src\wolfSSL\wolfcrypt\src/hmac.c ****     XMEMCPY(hmac->ipad, key, length);
 720:..\acn-sdk-c\src\wolfSSL\wolfcrypt\src/hmac.c **** 
 721:..\acn-sdk-c\src\wolfSSL\wolfcrypt\src/hmac.c ****     return 0;
 722:..\acn-sdk-c\src\wolfSSL\wolfcrypt\src/hmac.c **** }
 723:..\acn-sdk-c\src\wolfSSL\wolfcrypt\src/hmac.c **** 
 724:..\acn-sdk-c\src\wolfSSL\wolfcrypt\src/hmac.c **** #endif /* HAVE_CAVIUM */
 725:..\acn-sdk-c\src\wolfSSL\wolfcrypt\src/hmac.c **** 
 726:..\acn-sdk-c\src\wolfSSL\wolfcrypt\src/hmac.c **** int wolfSSL_GetHmacMaxSize(void)
 727:..\acn-sdk-c\src\wolfSSL\wolfcrypt\src/hmac.c **** {
 497              		.loc 1 727 0
 498              		.cfi_startproc
 728:..\acn-sdk-c\src\wolfSSL\wolfcrypt\src/hmac.c ****     return MAX_DIGEST_SIZE;
 729:..\acn-sdk-c\src\wolfSSL\wolfcrypt\src/hmac.c **** }
 499              		.loc 1 729 0
 500 0000 2020     		mov	r0, #32
 501              		@ sp needed
 502 0002 7047     		bx	lr
 503              		.cfi_endproc
 504              	.LFE5:
 505              		.size	wolfSSL_GetHmacMaxSize, .-wolfSSL_GetHmacMaxSize
 506              		.text
 507              	.Letext0:
 508              		.file 2 "..\\acn-sdk-c\\src\\wolfSSL/wolfssl/wolfcrypt/types.h"
 509              		.file 3 "..\\acn-sdk-c\\src\\wolfSSL/wolfssl/wolfcrypt/sha.h"
 510              		.file 4 "..\\acn-sdk-c\\src\\wolfSSL/wolfssl/wolfcrypt/sha256.h"
 511              		.file 5 "..\\acn-sdk-c\\src\\wolfSSL/wolfssl/wolfcrypt/hmac.h"
 512              		.file 6 "..\\acn-sdk-c\\src\\wolfSSL/wolfssl/wolfcrypt/error-crypt.h"