ARM GAS  C:\Users\ddemidov\AppData\Local\Temp\ccN15mOb.s 			page 1


   1              		.cpu cortex-m0
   2              		.fpu softvfp
   3              		.eabi_attribute 20, 1
   4              		.eabi_attribute 21, 1
   5              		.eabi_attribute 23, 3
   6              		.eabi_attribute 24, 1
   7              		.eabi_attribute 25, 1
   8              		.eabi_attribute 26, 1
   9              		.eabi_attribute 30, 4
  10              		.eabi_attribute 34, 0
  11              		.eabi_attribute 18, 4
  12              		.code	16
  13              		.file	"http_request.c"
  14              		.text
  15              	.Ltext0:
  16              		.cfi_sections	.debug_frame
  17              		.section	.text.set_payload,"ax",%progbits
  18              		.align	1
  19              		.code	16
  20              		.thumb_func
  21              		.type	set_payload, %function
  22              	set_payload:
  23              	.LFB9:
  24              		.file 1 "..\\kronos-c-sdk\\src\\http\\http_request.c"
   1:..\kronos-c-sdk\src\http/http_request.c **** /*
   2:..\kronos-c-sdk\src\http/http_request.c ****  * request.cpp
   3:..\kronos-c-sdk\src\http/http_request.c ****  *
   4:..\kronos-c-sdk\src\http/http_request.c ****  *  Created on: 12 окт. 2016 г.
   5:..\kronos-c-sdk\src\http/http_request.c ****  *      Author: ddemidov
   6:..\kronos-c-sdk\src\http/http_request.c ****  */
   7:..\kronos-c-sdk\src\http/http_request.c **** 
   8:..\kronos-c-sdk\src\http/http_request.c **** #define MODULE_NAME "HTTP_Request"
   9:..\kronos-c-sdk\src\http/http_request.c **** 
  10:..\kronos-c-sdk\src\http/http_request.c **** #include "http/request.h"
  11:..\kronos-c-sdk\src\http/http_request.c **** #include <debug.h>
  12:..\kronos-c-sdk\src\http/http_request.c **** #include <config.h>
  13:..\kronos-c-sdk\src\http/http_request.c **** #if defined(__USE_STD__)
  14:..\kronos-c-sdk\src\http/http_request.c **** # include <string.h>
  15:..\kronos-c-sdk\src\http/http_request.c **** # include <stdio.h>
  16:..\kronos-c-sdk\src\http/http_request.c **** # include <stdlib.h>
  17:..\kronos-c-sdk\src\http/http_request.c **** #endif
  18:..\kronos-c-sdk\src\http/http_request.c **** #include <arrow/mem.h>
  19:..\kronos-c-sdk\src\http/http_request.c **** 
  20:..\kronos-c-sdk\src\http/http_request.c **** static const char *meth_str[5] = {"GET", "POST", "PUT", "DELETE", "HEAD"};
  21:..\kronos-c-sdk\src\http/http_request.c **** 
  22:..\kronos-c-sdk\src\http/http_request.c **** int cmp_meth(const char *str) {
  23:..\kronos-c-sdk\src\http/http_request.c ****   int i;
  24:..\kronos-c-sdk\src\http/http_request.c ****   for(i=0; i<5; i++) {
  25:..\kronos-c-sdk\src\http/http_request.c ****     if ( strcmp(str, meth_str[i]) == 0 ) return i;
  26:..\kronos-c-sdk\src\http/http_request.c ****   }
  27:..\kronos-c-sdk\src\http/http_request.c ****   return -1;
  28:..\kronos-c-sdk\src\http/http_request.c **** }
  29:..\kronos-c-sdk\src\http/http_request.c **** 
  30:..\kronos-c-sdk\src\http/http_request.c **** char *get_meth(int i) {
  31:..\kronos-c-sdk\src\http/http_request.c ****     if ( i>=0 && i<5 ) {
  32:..\kronos-c-sdk\src\http/http_request.c ****         return (char*)meth_str[i];
  33:..\kronos-c-sdk\src\http/http_request.c ****     }
ARM GAS  C:\Users\ddemidov\AppData\Local\Temp\ccN15mOb.s 			page 2


  34:..\kronos-c-sdk\src\http/http_request.c ****     return NULL;
  35:..\kronos-c-sdk\src\http/http_request.c **** }
  36:..\kronos-c-sdk\src\http/http_request.c **** 
  37:..\kronos-c-sdk\src\http/http_request.c **** void http_request_init(http_request_t *req, int meth, const char *url) {
  38:..\kronos-c-sdk\src\http/http_request.c ****     req->meth = (uint8_t*)meth_str[meth];
  39:..\kronos-c-sdk\src\http/http_request.c ****     char *sch_end = strstr((char*)url, "://");
  40:..\kronos-c-sdk\src\http/http_request.c ****     if ( !sch_end ) { req->is_corrupt = 1; return; }
  41:..\kronos-c-sdk\src\http/http_request.c ****     req->scheme = (uint8_t*)malloc((size_t)(sch_end - url) + 1);
  42:..\kronos-c-sdk\src\http/http_request.c ****     strncpy((char*)req->scheme, url, (size_t)(sch_end - url));
  43:..\kronos-c-sdk\src\http/http_request.c ****     req->scheme[sch_end - url] = '\0';
  44:..\kronos-c-sdk\src\http/http_request.c ****     char *host_start = sch_end + 3; //sch_end + strlen("://");
  45:..\kronos-c-sdk\src\http/http_request.c ****     char *host_end = strstr(host_start, ":");
  46:..\kronos-c-sdk\src\http/http_request.c ****     if ( !host_end ) { req->is_corrupt = 1; return; }
  47:..\kronos-c-sdk\src\http/http_request.c ****     strncpy((char*)req->host, host_start, (size_t)(host_end - host_start));
  48:..\kronos-c-sdk\src\http/http_request.c ****     req->host[host_end - host_start] = '\0';
  49:..\kronos-c-sdk\src\http/http_request.c ****     int res = sscanf(host_end+1, "%hu", &req->port);
  50:..\kronos-c-sdk\src\http/http_request.c ****     if ( res!=1 ) { req->is_corrupt = 1; return; }
  51:..\kronos-c-sdk\src\http/http_request.c ****     char *uri_start = strstr(host_end+1, "/");
  52:..\kronos-c-sdk\src\http/http_request.c ****     strncpy((char*)req->uri, uri_start, strlen(uri_start));
  53:..\kronos-c-sdk\src\http/http_request.c ****     req->uri[strlen(uri_start)] = '\0';
  54:..\kronos-c-sdk\src\http/http_request.c ****     if (strcmp((char*)req->scheme, "https")==0) req->is_cipher = 1;
  55:..\kronos-c-sdk\src\http/http_request.c ****     else req->is_cipher = 0;
  56:..\kronos-c-sdk\src\http/http_request.c ****     DBG("meth: %s", req->meth);
  57:..\kronos-c-sdk\src\http/http_request.c ****     DBG("scheme: %s", req->scheme);
  58:..\kronos-c-sdk\src\http/http_request.c ****     DBG("host: %s", req->host);
  59:..\kronos-c-sdk\src\http/http_request.c ****     DBG("port: %d", req->port);
  60:..\kronos-c-sdk\src\http/http_request.c ****     DBG("uri: %s", req->uri);
  61:..\kronos-c-sdk\src\http/http_request.c ****     DBG("res: %d", res);
  62:..\kronos-c-sdk\src\http/http_request.c **** 
  63:..\kronos-c-sdk\src\http/http_request.c ****     req->header = NULL;
  64:..\kronos-c-sdk\src\http/http_request.c ****     req->query = NULL;
  65:..\kronos-c-sdk\src\http/http_request.c **** 
  66:..\kronos-c-sdk\src\http/http_request.c ****     req->is_chunked = 0;
  67:..\kronos-c-sdk\src\http/http_request.c **** 
  68:..\kronos-c-sdk\src\http/http_request.c ****     req->payload.size = 0;
  69:..\kronos-c-sdk\src\http/http_request.c ****     req->payload.buf = NULL;
  70:..\kronos-c-sdk\src\http/http_request.c **** 
  71:..\kronos-c-sdk\src\http/http_request.c ****     req->content_type.key = NULL;
  72:..\kronos-c-sdk\src\http/http_request.c ****     req->content_type.value = NULL;
  73:..\kronos-c-sdk\src\http/http_request.c ****     req->content_type.next = NULL;
  74:..\kronos-c-sdk\src\http/http_request.c **** }
  75:..\kronos-c-sdk\src\http/http_request.c **** 
  76:..\kronos-c-sdk\src\http/http_request.c **** void http_request_close(http_request_t *req) {
  77:..\kronos-c-sdk\src\http/http_request.c ****     if (req->scheme) free(req->scheme);
  78:..\kronos-c-sdk\src\http/http_request.c ****     if (req->payload.buf) free(req->payload.buf);
  79:..\kronos-c-sdk\src\http/http_request.c ****     req->payload.size = 0;
  80:..\kronos-c-sdk\src\http/http_request.c ****     http_header_t *head = req->header;
  81:..\kronos-c-sdk\src\http/http_request.c ****     http_header_t *head_next = NULL;
  82:..\kronos-c-sdk\src\http/http_request.c ****     do {
  83:..\kronos-c-sdk\src\http/http_request.c ****         if (head) {
  84:..\kronos-c-sdk\src\http/http_request.c ****             head_next = head->next;
  85:..\kronos-c-sdk\src\http/http_request.c ****             if (head->key) free(head->key);
  86:..\kronos-c-sdk\src\http/http_request.c ****             if (head->value) free(head->value);
  87:..\kronos-c-sdk\src\http/http_request.c ****             free(head);
  88:..\kronos-c-sdk\src\http/http_request.c ****         }
  89:..\kronos-c-sdk\src\http/http_request.c ****         head = head_next;
  90:..\kronos-c-sdk\src\http/http_request.c ****     } while(head);
ARM GAS  C:\Users\ddemidov\AppData\Local\Temp\ccN15mOb.s 			page 3


  91:..\kronos-c-sdk\src\http/http_request.c ****     if (req->content_type.value) free(req->content_type.value);
  92:..\kronos-c-sdk\src\http/http_request.c **** }
  93:..\kronos-c-sdk\src\http/http_request.c **** 
  94:..\kronos-c-sdk\src\http/http_request.c **** void http_response_free(http_response_t *res) {
  95:..\kronos-c-sdk\src\http/http_request.c ****     if (res->payload.buf) free(res->payload.buf);
  96:..\kronos-c-sdk\src\http/http_request.c ****     res->payload.size = 0;
  97:..\kronos-c-sdk\src\http/http_request.c ****     http_header_t *head = res->header;
  98:..\kronos-c-sdk\src\http/http_request.c ****     http_header_t *head_next = NULL;
  99:..\kronos-c-sdk\src\http/http_request.c ****     do {
 100:..\kronos-c-sdk\src\http/http_request.c ****         if (head) {
 101:..\kronos-c-sdk\src\http/http_request.c ****             head_next = head->next;
 102:..\kronos-c-sdk\src\http/http_request.c ****             if (head->key) free(head->key);
 103:..\kronos-c-sdk\src\http/http_request.c ****             if (head->value) free(head->value);
 104:..\kronos-c-sdk\src\http/http_request.c ****             free(head);
 105:..\kronos-c-sdk\src\http/http_request.c ****         }
 106:..\kronos-c-sdk\src\http/http_request.c ****         head = head_next;
 107:..\kronos-c-sdk\src\http/http_request.c ****     } while(head);
 108:..\kronos-c-sdk\src\http/http_request.c ****     if (res->content_type.value) free(res->content_type.value);
 109:..\kronos-c-sdk\src\http/http_request.c **** }
 110:..\kronos-c-sdk\src\http/http_request.c **** 
 111:..\kronos-c-sdk\src\http/http_request.c **** void http_request_add_header(http_request_t *req, const char *key, const char *value) {
 112:..\kronos-c-sdk\src\http/http_request.c ****     http_header_t *head = req->header;
 113:..\kronos-c-sdk\src\http/http_request.c ****     while( head && head->next ) {
 114:..\kronos-c-sdk\src\http/http_request.c **** //        if ( head ) {
 115:..\kronos-c-sdk\src\http/http_request.c **** //            DBG("--:{%s}", head->value);
 116:..\kronos-c-sdk\src\http/http_request.c **** //        }
 117:..\kronos-c-sdk\src\http/http_request.c ****         head = head->next;
 118:..\kronos-c-sdk\src\http/http_request.c ****     }
 119:..\kronos-c-sdk\src\http/http_request.c ****     http_header_t *head_new = (http_header_t *)malloc(sizeof(http_header_t));
 120:..\kronos-c-sdk\src\http/http_request.c ****     head_new->key = (uint8_t*)malloc(strlen(key)+1);
 121:..\kronos-c-sdk\src\http/http_request.c ****     head_new->value = (uint8_t*)malloc(strlen(value)+1);
 122:..\kronos-c-sdk\src\http/http_request.c ****     strcpy((char*)head_new->key, key);
 123:..\kronos-c-sdk\src\http/http_request.c ****     strcpy((char*)head_new->value, value);
 124:..\kronos-c-sdk\src\http/http_request.c ****     head_new->next = NULL;
 125:..\kronos-c-sdk\src\http/http_request.c ****     if ( head ) head->next = head_new;
 126:..\kronos-c-sdk\src\http/http_request.c ****     else req->header = head_new;
 127:..\kronos-c-sdk\src\http/http_request.c **** }
 128:..\kronos-c-sdk\src\http/http_request.c **** 
 129:..\kronos-c-sdk\src\http/http_request.c **** void http_request_set_content_type(http_request_t *req, const char *value) {
 130:..\kronos-c-sdk\src\http/http_request.c ****     req->content_type.value = (uint8_t*)malloc(strlen(value)+1);
 131:..\kronos-c-sdk\src\http/http_request.c ****     strcpy((char*)req->content_type.value, value);
 132:..\kronos-c-sdk\src\http/http_request.c **** }
 133:..\kronos-c-sdk\src\http/http_request.c **** 
 134:..\kronos-c-sdk\src\http/http_request.c **** http_header_t *http_request_first_header(http_request_t *req) {
 135:..\kronos-c-sdk\src\http/http_request.c ****     return req->header;
 136:..\kronos-c-sdk\src\http/http_request.c **** }
 137:..\kronos-c-sdk\src\http/http_request.c **** 
 138:..\kronos-c-sdk\src\http/http_request.c **** http_header_t *http_request_next_header(http_request_t *req, http_header_t *head) {
 139:..\kronos-c-sdk\src\http/http_request.c ****     SSP_PARAMETER_NOT_USED(req);
 140:..\kronos-c-sdk\src\http/http_request.c ****     if ( ! head ) return NULL;
 141:..\kronos-c-sdk\src\http/http_request.c ****     return head->next;
 142:..\kronos-c-sdk\src\http/http_request.c **** }
 143:..\kronos-c-sdk\src\http/http_request.c **** 
 144:..\kronos-c-sdk\src\http/http_request.c **** static void set_payload(http_payload_t *pay, const char *buf, size_t size) {
  25              		.loc 1 144 0
  26              		.cfi_startproc
  27              	.LVL0:
ARM GAS  C:\Users\ddemidov\AppData\Local\Temp\ccN15mOb.s 			page 4


  28 0000 70B5     		push	{r4, r5, r6, lr}
  29              		.cfi_def_cfa_offset 16
  30              		.cfi_offset 4, -16
  31              		.cfi_offset 5, -12
  32              		.cfi_offset 6, -8
  33              		.cfi_offset 14, -4
  34              		.loc 1 144 0
  35 0002 041C     		mov	r4, r0
 145:..\kronos-c-sdk\src\http/http_request.c ****     pay->size = size;
 146:..\kronos-c-sdk\src\http/http_request.c ****     if ( pay->buf ) {
  36              		.loc 1 146 0
  37 0004 4068     		ldr	r0, [r0, #4]
  38              	.LVL1:
 144:..\kronos-c-sdk\src\http/http_request.c ****     pay->size = size;
  39              		.loc 1 144 0
  40 0006 0E1C     		mov	r6, r1
  41 0008 151C     		mov	r5, r2
 145:..\kronos-c-sdk\src\http/http_request.c ****     pay->size = size;
  42              		.loc 1 145 0
  43 000a 2260     		str	r2, [r4]
  44 000c 511C     		add	r1, r2, #1
  45              	.LVL2:
  46              		.loc 1 146 0
  47 000e 0028     		cmp	r0, #0
  48 0010 02D0     		beq	.L2
 147:..\kronos-c-sdk\src\http/http_request.c ****         pay->buf = (uint8_t*)realloc(pay->buf, size+1);
  49              		.loc 1 147 0
  50 0012 FFF7FEFF 		bl	realloc
  51              	.LVL3:
  52 0016 02E0     		b	.L4
  53              	.LVL4:
  54              	.L2:
 148:..\kronos-c-sdk\src\http/http_request.c ****     } else {
 149:..\kronos-c-sdk\src\http/http_request.c ****         pay->buf = (uint8_t*)malloc(size+1);
  55              		.loc 1 149 0
  56 0018 081C     		mov	r0, r1
  57 001a FFF7FEFF 		bl	malloc
  58              	.LVL5:
  59              	.L4:
  60 001e 6060     		str	r0, [r4, #4]
 150:..\kronos-c-sdk\src\http/http_request.c ****     }
 151:..\kronos-c-sdk\src\http/http_request.c ****     memcpy(pay->buf, buf, size);
  61              		.loc 1 151 0
  62 0020 311C     		mov	r1, r6
  63 0022 2A1C     		mov	r2, r5
  64 0024 6068     		ldr	r0, [r4, #4]
  65 0026 FFF7FEFF 		bl	memcpy
  66              	.LVL6:
 152:..\kronos-c-sdk\src\http/http_request.c ****     pay->buf[pay->size] = '\0';
  67              		.loc 1 152 0
  68 002a 0021     		mov	r1, #0
  69 002c 6268     		ldr	r2, [r4, #4]
  70 002e 2368     		ldr	r3, [r4]
 153:..\kronos-c-sdk\src\http/http_request.c **** }
  71              		.loc 1 153 0
  72              		@ sp needed
 152:..\kronos-c-sdk\src\http/http_request.c ****     pay->buf[pay->size] = '\0';
ARM GAS  C:\Users\ddemidov\AppData\Local\Temp\ccN15mOb.s 			page 5


  73              		.loc 1 152 0
  74 0030 D154     		strb	r1, [r2, r3]
  75              	.LVL7:
  76              	.LVL8:
  77              	.LVL9:
  78              		.loc 1 153 0
  79 0032 70BD     		pop	{r4, r5, r6, pc}
  80              		.cfi_endproc
  81              	.LFE9:
  82              		.size	set_payload, .-set_payload
  83              		.section	.text.cmp_meth,"ax",%progbits
  84              		.align	1
  85              		.global	cmp_meth
  86              		.code	16
  87              		.thumb_func
  88              		.type	cmp_meth, %function
  89              	cmp_meth:
  90              	.LFB0:
  22:..\kronos-c-sdk\src\http/http_request.c ****   int i;
  91              		.loc 1 22 0
  92              		.cfi_startproc
  93              	.LVL10:
  94 0000 38B5     		push	{r3, r4, r5, lr}
  95              		.cfi_def_cfa_offset 16
  96              		.cfi_offset 3, -16
  97              		.cfi_offset 4, -12
  98              		.cfi_offset 5, -8
  99              		.cfi_offset 14, -4
  22:..\kronos-c-sdk\src\http/http_request.c ****   int i;
 100              		.loc 1 22 0
 101 0002 051C     		mov	r5, r0
  24:..\kronos-c-sdk\src\http/http_request.c ****     if ( strcmp(str, meth_str[i]) == 0 ) return i;
 102              		.loc 1 24 0
 103 0004 0024     		mov	r4, #0
 104              	.LVL11:
 105              	.L8:
  25:..\kronos-c-sdk\src\http/http_request.c ****   }
 106              		.loc 1 25 0
 107 0006 084B     		ldr	r3, .L10
 108 0008 A200     		lsl	r2, r4, #2
 109 000a 281C     		mov	r0, r5
 110 000c D158     		ldr	r1, [r2, r3]
 111 000e FFF7FEFF 		bl	strcmp
 112              	.LVL12:
 113 0012 0028     		cmp	r0, #0
 114 0014 05D0     		beq	.L9
  24:..\kronos-c-sdk\src\http/http_request.c ****     if ( strcmp(str, meth_str[i]) == 0 ) return i;
 115              		.loc 1 24 0 discriminator 2
 116 0016 0134     		add	r4, r4, #1
 117              	.LVL13:
 118 0018 052C     		cmp	r4, #5
 119 001a F4D1     		bne	.L8
  27:..\kronos-c-sdk\src\http/http_request.c **** }
 120              		.loc 1 27 0
 121 001c 0120     		mov	r0, #1
 122 001e 4042     		neg	r0, r0
 123 0020 00E0     		b	.L7
ARM GAS  C:\Users\ddemidov\AppData\Local\Temp\ccN15mOb.s 			page 6


 124              	.L9:
  25:..\kronos-c-sdk\src\http/http_request.c ****   }
 125              		.loc 1 25 0
 126 0022 201C     		mov	r0, r4
 127              	.L7:
  28:..\kronos-c-sdk\src\http/http_request.c **** 
 128              		.loc 1 28 0
 129              		@ sp needed
 130              	.LVL14:
 131              	.LVL15:
 132 0024 38BD     		pop	{r3, r4, r5, pc}
 133              	.L11:
 134 0026 C046     		.align	2
 135              	.L10:
 136 0028 00000000 		.word	.LANCHOR0
 137              		.cfi_endproc
 138              	.LFE0:
 139              		.size	cmp_meth, .-cmp_meth
 140              		.section	.text.get_meth,"ax",%progbits
 141              		.align	1
 142              		.global	get_meth
 143              		.code	16
 144              		.thumb_func
 145              		.type	get_meth, %function
 146              	get_meth:
 147              	.LFB1:
  30:..\kronos-c-sdk\src\http/http_request.c ****     if ( i>=0 && i<5 ) {
 148              		.loc 1 30 0
 149              		.cfi_startproc
 150              	.LVL16:
  34:..\kronos-c-sdk\src\http/http_request.c **** }
 151              		.loc 1 34 0
 152 0000 0023     		mov	r3, #0
  31:..\kronos-c-sdk\src\http/http_request.c ****         return (char*)meth_str[i];
 153              		.loc 1 31 0
 154 0002 0428     		cmp	r0, #4
 155 0004 02D8     		bhi	.L13
  32:..\kronos-c-sdk\src\http/http_request.c ****     }
 156              		.loc 1 32 0
 157 0006 024B     		ldr	r3, .L15
 158 0008 8000     		lsl	r0, r0, #2
 159              	.LVL17:
 160 000a C358     		ldr	r3, [r0, r3]
 161              	.L13:
  35:..\kronos-c-sdk\src\http/http_request.c **** 
 162              		.loc 1 35 0
 163 000c 181C     		mov	r0, r3
 164              		@ sp needed
 165 000e 7047     		bx	lr
 166              	.L16:
 167              		.align	2
 168              	.L15:
 169 0010 00000000 		.word	.LANCHOR0
 170              		.cfi_endproc
 171              	.LFE1:
 172              		.size	get_meth, .-get_meth
 173              		.section	.text.http_request_init,"ax",%progbits
ARM GAS  C:\Users\ddemidov\AppData\Local\Temp\ccN15mOb.s 			page 7


 174              		.align	1
 175              		.global	http_request_init
 176              		.code	16
 177              		.thumb_func
 178              		.type	http_request_init, %function
 179              	http_request_init:
 180              	.LFB2:
  37:..\kronos-c-sdk\src\http/http_request.c ****     req->meth = (uint8_t*)meth_str[meth];
 181              		.loc 1 37 0
 182              		.cfi_startproc
 183              	.LVL18:
  38:..\kronos-c-sdk\src\http/http_request.c ****     char *sch_end = strstr((char*)url, "://");
 184              		.loc 1 38 0
 185 0000 424B     		ldr	r3, .L27
  37:..\kronos-c-sdk\src\http/http_request.c ****     req->meth = (uint8_t*)meth_str[meth];
 186              		.loc 1 37 0
 187 0002 F7B5     		push	{r0, r1, r2, r4, r5, r6, r7, lr}
 188              		.cfi_def_cfa_offset 32
 189              		.cfi_offset 0, -32
 190              		.cfi_offset 1, -28
 191              		.cfi_offset 2, -24
 192              		.cfi_offset 4, -20
 193              		.cfi_offset 5, -16
 194              		.cfi_offset 6, -12
 195              		.cfi_offset 7, -8
 196              		.cfi_offset 14, -4
  38:..\kronos-c-sdk\src\http/http_request.c ****     char *sch_end = strstr((char*)url, "://");
 197              		.loc 1 38 0
 198 0004 8900     		lsl	r1, r1, #2
 199              	.LVL19:
 200 0006 CB58     		ldr	r3, [r1, r3]
  37:..\kronos-c-sdk\src\http/http_request.c ****     req->meth = (uint8_t*)meth_str[meth];
 201              		.loc 1 37 0
 202 0008 041C     		mov	r4, r0
  38:..\kronos-c-sdk\src\http/http_request.c ****     char *sch_end = strstr((char*)url, "://");
 203              		.loc 1 38 0
 204 000a 0360     		str	r3, [r0]
  39:..\kronos-c-sdk\src\http/http_request.c ****     if ( !sch_end ) { req->is_corrupt = 1; return; }
 205              		.loc 1 39 0
 206 000c 4049     		ldr	r1, .L27+4
 207 000e 101C     		mov	r0, r2
 208              	.LVL20:
  37:..\kronos-c-sdk\src\http/http_request.c ****     req->meth = (uint8_t*)meth_str[meth];
 209              		.loc 1 37 0
 210 0010 171C     		mov	r7, r2
  39:..\kronos-c-sdk\src\http/http_request.c ****     if ( !sch_end ) { req->is_corrupt = 1; return; }
 211              		.loc 1 39 0
 212 0012 FFF7FEFF 		bl	strstr
 213              	.LVL21:
 214 0016 051E     		sub	r5, r0, #0
 215              	.LVL22:
  40:..\kronos-c-sdk\src\http/http_request.c ****     req->scheme = (uint8_t*)malloc((size_t)(sch_end - url) + 1);
 216              		.loc 1 40 0
 217 0018 02D1     		bne	.L18
 218              	.LVL23:
 219              	.L20:
  40:..\kronos-c-sdk\src\http/http_request.c ****     req->scheme = (uint8_t*)malloc((size_t)(sch_end - url) + 1);
ARM GAS  C:\Users\ddemidov\AppData\Local\Temp\ccN15mOb.s 			page 8


 220              		.loc 1 40 0 is_stmt 0 discriminator 1
 221 001a D434     		add	r4, r4, #212
 222              	.LVL24:
 223 001c 0123     		mov	r3, #1
 224 001e 73E0     		b	.L26
 225              	.LVL25:
 226              	.L18:
  41:..\kronos-c-sdk\src\http/http_request.c ****     strncpy((char*)req->scheme, url, (size_t)(sch_end - url));
 227              		.loc 1 41 0 is_stmt 1
 228 0020 C31B     		sub	r3, r0, r7
 229 0022 581C     		add	r0, r3, #1
 230              	.LVL26:
 231 0024 0093     		str	r3, [sp]
 232 0026 FFF7FEFF 		bl	malloc
 233              	.LVL27:
  42:..\kronos-c-sdk\src\http/http_request.c ****     req->scheme[sch_end - url] = '\0';
 234              		.loc 1 42 0
 235 002a 391C     		mov	r1, r7
 236 002c 009A     		ldr	r2, [sp]
  41:..\kronos-c-sdk\src\http/http_request.c ****     strncpy((char*)req->scheme, url, (size_t)(sch_end - url));
 237              		.loc 1 41 0
 238 002e 6060     		str	r0, [r4, #4]
 239 0030 061C     		mov	r6, r0
  42:..\kronos-c-sdk\src\http/http_request.c ****     req->scheme[sch_end - url] = '\0';
 240              		.loc 1 42 0
 241 0032 FFF7FEFF 		bl	strncpy
 242              	.LVL28:
  43:..\kronos-c-sdk\src\http/http_request.c ****     char *host_start = sch_end + 3; //sch_end + strlen("://");
 243              		.loc 1 43 0
 244 0036 0023     		mov	r3, #0
 245 0038 009A     		ldr	r2, [sp]
  44:..\kronos-c-sdk\src\http/http_request.c ****     char *host_end = strstr(host_start, ":");
 246              		.loc 1 44 0
 247 003a 0335     		add	r5, r5, #3
 248              	.LVL29:
  43:..\kronos-c-sdk\src\http/http_request.c ****     char *host_start = sch_end + 3; //sch_end + strlen("://");
 249              		.loc 1 43 0
 250 003c B354     		strb	r3, [r6, r2]
  45:..\kronos-c-sdk\src\http/http_request.c ****     if ( !host_end ) { req->is_corrupt = 1; return; }
 251              		.loc 1 45 0
 252 003e 281C     		mov	r0, r5
 253 0040 3A21     		mov	r1, #58
 254 0042 FFF7FEFF 		bl	strchr
 255              	.LVL30:
 256 0046 061E     		sub	r6, r0, #0
 257              	.LVL31:
  46:..\kronos-c-sdk\src\http/http_request.c ****     strncpy((char*)req->host, host_start, (size_t)(host_end - host_start));
 258              		.loc 1 46 0
 259 0048 E7D0     		beq	.L20
  47:..\kronos-c-sdk\src\http/http_request.c ****     req->host[host_end - host_start] = '\0';
 260              		.loc 1 47 0
 261 004a 231C     		mov	r3, r4
 262 004c 471B     		sub	r7, r0, r5
 263              	.LVL32:
 264 004e 0833     		add	r3, r3, #8
 265 0050 291C     		mov	r1, r5
 266 0052 3A1C     		mov	r2, r7
ARM GAS  C:\Users\ddemidov\AppData\Local\Temp\ccN15mOb.s 			page 9


 267 0054 181C     		mov	r0, r3
 268              	.LVL33:
 269 0056 0093     		str	r3, [sp]
 270 0058 FFF7FEFF 		bl	strncpy
 271              	.LVL34:
  48:..\kronos-c-sdk\src\http/http_request.c ****     int res = sscanf(host_end+1, "%hu", &req->port);
 272              		.loc 1 48 0
 273 005c 0023     		mov	r3, #0
 274 005e E719     		add	r7, r4, r7
 275 0060 3B72     		strb	r3, [r7, #8]
  49:..\kronos-c-sdk\src\http/http_request.c ****     if ( res!=1 ) { req->is_corrupt = 1; return; }
 276              		.loc 1 49 0
 277 0062 231C     		mov	r3, r4
 278 0064 0136     		add	r6, r6, #1
 279              	.LVL35:
 280 0066 D033     		add	r3, r3, #208
 281 0068 301C     		mov	r0, r6
 282 006a 2A49     		ldr	r1, .L27+8
 283 006c 1A1C     		mov	r2, r3
 284 006e 0193     		str	r3, [sp, #4]
 285 0070 FFF7FEFF 		bl	sscanf
 286              	.LVL36:
 287 0074 051E     		sub	r5, r0, #0
 288              	.LVL37:
  50:..\kronos-c-sdk\src\http/http_request.c ****     char *uri_start = strstr(host_end+1, "/");
 289              		.loc 1 50 0
 290 0076 012D     		cmp	r5, #1
 291 0078 CFD1     		bne	.L20
  51:..\kronos-c-sdk\src\http/http_request.c ****     strncpy((char*)req->uri, uri_start, strlen(uri_start));
 292              		.loc 1 51 0
 293 007a 2F21     		mov	r1, #47
 294 007c 301C     		mov	r0, r6
 295              	.LVL38:
 296 007e FFF7FEFF 		bl	strchr
 297              	.LVL39:
  52:..\kronos-c-sdk\src\http/http_request.c ****     req->uri[strlen(uri_start)] = '\0';
 298              		.loc 1 52 0
 299 0082 271C     		mov	r7, r4
  51:..\kronos-c-sdk\src\http/http_request.c ****     strncpy((char*)req->uri, uri_start, strlen(uri_start));
 300              		.loc 1 51 0
 301 0084 061C     		mov	r6, r0
 302              	.LVL40:
  52:..\kronos-c-sdk\src\http/http_request.c ****     req->uri[strlen(uri_start)] = '\0';
 303              		.loc 1 52 0
 304 0086 FFF7FEFF 		bl	strlen
 305              	.LVL41:
 306 008a 6C37     		add	r7, r7, #108
 307 008c 021C     		mov	r2, r0
 308 008e 311C     		mov	r1, r6
 309 0090 381C     		mov	r0, r7
 310 0092 FFF7FEFF 		bl	strncpy
 311              	.LVL42:
  53:..\kronos-c-sdk\src\http/http_request.c ****     if (strcmp((char*)req->scheme, "https")==0) req->is_cipher = 1;
 312              		.loc 1 53 0
 313 0096 301C     		mov	r0, r6
 314 0098 FFF7FEFF 		bl	strlen
 315              	.LVL43:
ARM GAS  C:\Users\ddemidov\AppData\Local\Temp\ccN15mOb.s 			page 10


 316 009c 0023     		mov	r3, #0
 317 009e 2018     		add	r0, r4, r0
 318 00a0 6830     		add	r0, r0, #104
 319 00a2 0371     		strb	r3, [r0, #4]
  54:..\kronos-c-sdk\src\http/http_request.c ****     else req->is_cipher = 0;
 320              		.loc 1 54 0
 321 00a4 6068     		ldr	r0, [r4, #4]
 322 00a6 1C49     		ldr	r1, .L27+12
 323 00a8 FFF7FEFF 		bl	strcmp
 324              	.LVL44:
 325 00ac 231C     		mov	r3, r4
 326 00ae D833     		add	r3, r3, #216
 327 00b0 0028     		cmp	r0, #0
 328 00b2 01D1     		bne	.L21
  54:..\kronos-c-sdk\src\http/http_request.c ****     else req->is_cipher = 0;
 329              		.loc 1 54 0 is_stmt 0 discriminator 1
 330 00b4 1D60     		str	r5, [r3]
 331 00b6 01E0     		b	.L22
 332              	.L21:
  55:..\kronos-c-sdk\src\http/http_request.c ****     DBG("meth: %s", req->meth);
 333              		.loc 1 55 0 is_stmt 1
 334 00b8 0022     		mov	r2, #0
 335 00ba 1A60     		str	r2, [r3]
 336              	.L22:
  56:..\kronos-c-sdk\src\http/http_request.c ****     DBG("scheme: %s", req->scheme);
 337              		.loc 1 56 0
 338 00bc 2168     		ldr	r1, [r4]
 339 00be 1748     		ldr	r0, .L27+16
 340 00c0 FFF7FEFF 		bl	dbg_line
 341              	.LVL45:
  57:..\kronos-c-sdk\src\http/http_request.c ****     DBG("host: %s", req->host);
 342              		.loc 1 57 0
 343 00c4 6168     		ldr	r1, [r4, #4]
 344 00c6 1648     		ldr	r0, .L27+20
 345 00c8 FFF7FEFF 		bl	dbg_line
 346              	.LVL46:
  58:..\kronos-c-sdk\src\http/http_request.c ****     DBG("port: %d", req->port);
 347              		.loc 1 58 0
 348 00cc 1548     		ldr	r0, .L27+24
 349 00ce 0099     		ldr	r1, [sp]
 350 00d0 FFF7FEFF 		bl	dbg_line
 351              	.LVL47:
  59:..\kronos-c-sdk\src\http/http_request.c ****     DBG("uri: %s", req->uri);
 352              		.loc 1 59 0
 353 00d4 019B     		ldr	r3, [sp, #4]
 354 00d6 1448     		ldr	r0, .L27+28
 355 00d8 1988     		ldrh	r1, [r3]
 356 00da FFF7FEFF 		bl	dbg_line
 357              	.LVL48:
  60:..\kronos-c-sdk\src\http/http_request.c ****     DBG("res: %d", res);
 358              		.loc 1 60 0
 359 00de 1348     		ldr	r0, .L27+32
 360 00e0 391C     		mov	r1, r7
 361 00e2 FFF7FEFF 		bl	dbg_line
 362              	.LVL49:
  61:..\kronos-c-sdk\src\http/http_request.c **** 
 363              		.loc 1 61 0
ARM GAS  C:\Users\ddemidov\AppData\Local\Temp\ccN15mOb.s 			page 11


 364 00e6 1248     		ldr	r0, .L27+36
 365 00e8 0121     		mov	r1, #1
 366 00ea FFF7FEFF 		bl	dbg_line
 367              	.LVL50:
  63:..\kronos-c-sdk\src\http/http_request.c ****     req->query = NULL;
 368              		.loc 1 63 0
 369 00ee 221C     		mov	r2, r4
 370 00f0 0023     		mov	r3, #0
 371 00f2 E032     		add	r2, r2, #224
 372 00f4 1360     		str	r3, [r2]
  64:..\kronos-c-sdk\src\http/http_request.c **** 
 373              		.loc 1 64 0
 374 00f6 1361     		str	r3, [r2, #16]
  66:..\kronos-c-sdk\src\http/http_request.c **** 
 375              		.loc 1 66 0
 376 00f8 043A     		sub	r2, r2, #4
 377 00fa 1360     		str	r3, [r2]
  68:..\kronos-c-sdk\src\http/http_request.c ****     req->payload.buf = NULL;
 378              		.loc 1 68 0
 379 00fc 9361     		str	r3, [r2, #24]
  69:..\kronos-c-sdk\src\http/http_request.c **** 
 380              		.loc 1 69 0
 381 00fe D361     		str	r3, [r2, #28]
  71:..\kronos-c-sdk\src\http/http_request.c ****     req->content_type.value = NULL;
 382              		.loc 1 71 0
 383 0100 0832     		add	r2, r2, #8
 384 0102 1360     		str	r3, [r2]
  72:..\kronos-c-sdk\src\http/http_request.c ****     req->content_type.next = NULL;
 385              		.loc 1 72 0
 386 0104 5360     		str	r3, [r2, #4]
  73:..\kronos-c-sdk\src\http/http_request.c **** }
 387              		.loc 1 73 0
 388 0106 EC34     		add	r4, r4, #236
 389              	.LVL51:
 390              	.L26:
 391 0108 2360     		str	r3, [r4]
  74:..\kronos-c-sdk\src\http/http_request.c **** 
 392              		.loc 1 74 0
 393              		@ sp needed
 394 010a F7BD     		pop	{r0, r1, r2, r4, r5, r6, r7, pc}
 395              	.L28:
 396              		.align	2
 397              	.L27:
 398 010c 00000000 		.word	.LANCHOR0
 399 0110 00000000 		.word	.LC5
 400 0114 04000000 		.word	.LC7
 401 0118 08000000 		.word	.LC9
 402 011c 0E000000 		.word	.LC11
 403 0120 17000000 		.word	.LC13
 404 0124 22000000 		.word	.LC15
 405 0128 2B000000 		.word	.LC17
 406 012c 34000000 		.word	.LC19
 407 0130 3C000000 		.word	.LC21
 408              		.cfi_endproc
 409              	.LFE2:
 410              		.size	http_request_init, .-http_request_init
 411              		.section	.text.http_request_close,"ax",%progbits
ARM GAS  C:\Users\ddemidov\AppData\Local\Temp\ccN15mOb.s 			page 12


 412              		.align	1
 413              		.global	http_request_close
 414              		.code	16
 415              		.thumb_func
 416              		.type	http_request_close, %function
 417              	http_request_close:
 418              	.LFB3:
  76:..\kronos-c-sdk\src\http/http_request.c ****     if (req->scheme) free(req->scheme);
 419              		.loc 1 76 0
 420              		.cfi_startproc
 421              	.LVL52:
 422 0000 70B5     		push	{r4, r5, r6, lr}
 423              		.cfi_def_cfa_offset 16
 424              		.cfi_offset 4, -16
 425              		.cfi_offset 5, -12
 426              		.cfi_offset 6, -8
 427              		.cfi_offset 14, -4
  76:..\kronos-c-sdk\src\http/http_request.c ****     if (req->scheme) free(req->scheme);
 428              		.loc 1 76 0
 429 0002 041C     		mov	r4, r0
  77:..\kronos-c-sdk\src\http/http_request.c ****     if (req->payload.buf) free(req->payload.buf);
 430              		.loc 1 77 0
 431 0004 4068     		ldr	r0, [r0, #4]
 432              	.LVL53:
 433 0006 0028     		cmp	r0, #0
 434 0008 01D0     		beq	.L30
  77:..\kronos-c-sdk\src\http/http_request.c ****     if (req->payload.buf) free(req->payload.buf);
 435              		.loc 1 77 0 is_stmt 0 discriminator 1
 436 000a FFF7FEFF 		bl	free
 437              	.LVL54:
 438              	.L30:
  78:..\kronos-c-sdk\src\http/http_request.c ****     req->payload.size = 0;
 439              		.loc 1 78 0 is_stmt 1
 440 000e 231C     		mov	r3, r4
 441 0010 F833     		add	r3, r3, #248
 442 0012 1868     		ldr	r0, [r3]
 443 0014 0028     		cmp	r0, #0
 444 0016 01D0     		beq	.L31
  78:..\kronos-c-sdk\src\http/http_request.c ****     req->payload.size = 0;
 445              		.loc 1 78 0 is_stmt 0 discriminator 1
 446 0018 FFF7FEFF 		bl	free
 447              	.LVL55:
 448              	.L31:
  79:..\kronos-c-sdk\src\http/http_request.c ****     http_header_t *head = req->header;
 449              		.loc 1 79 0 is_stmt 1
 450 001c 231C     		mov	r3, r4
 451 001e 0025     		mov	r5, #0
 452 0020 F433     		add	r3, r3, #244
 453 0022 1D60     		str	r5, [r3]
  80:..\kronos-c-sdk\src\http/http_request.c ****     http_header_t *head_next = NULL;
 454              		.loc 1 80 0
 455 0024 143B     		sub	r3, r3, #20
 456 0026 1E68     		ldr	r6, [r3]
 457              	.LVL56:
 458              	.L35:
  83:..\kronos-c-sdk\src\http/http_request.c ****             head_next = head->next;
 459              		.loc 1 83 0
ARM GAS  C:\Users\ddemidov\AppData\Local\Temp\ccN15mOb.s 			page 13


 460 0028 002E     		cmp	r6, #0
 461 002a 0DD0     		beq	.L32
  85:..\kronos-c-sdk\src\http/http_request.c ****             if (head->value) free(head->value);
 462              		.loc 1 85 0
 463 002c 3068     		ldr	r0, [r6]
  84:..\kronos-c-sdk\src\http/http_request.c ****             if (head->key) free(head->key);
 464              		.loc 1 84 0
 465 002e B568     		ldr	r5, [r6, #8]
 466              	.LVL57:
  85:..\kronos-c-sdk\src\http/http_request.c ****             if (head->value) free(head->value);
 467              		.loc 1 85 0
 468 0030 0028     		cmp	r0, #0
 469 0032 01D0     		beq	.L33
  85:..\kronos-c-sdk\src\http/http_request.c ****             if (head->value) free(head->value);
 470              		.loc 1 85 0 is_stmt 0 discriminator 1
 471 0034 FFF7FEFF 		bl	free
 472              	.LVL58:
 473              	.L33:
  86:..\kronos-c-sdk\src\http/http_request.c ****             free(head);
 474              		.loc 1 86 0 is_stmt 1
 475 0038 7068     		ldr	r0, [r6, #4]
 476 003a 0028     		cmp	r0, #0
 477 003c 01D0     		beq	.L34
  86:..\kronos-c-sdk\src\http/http_request.c ****             free(head);
 478              		.loc 1 86 0 is_stmt 0 discriminator 1
 479 003e FFF7FEFF 		bl	free
 480              	.LVL59:
 481              	.L34:
  87:..\kronos-c-sdk\src\http/http_request.c ****         }
 482              		.loc 1 87 0 is_stmt 1
 483 0042 301C     		mov	r0, r6
 484 0044 FFF7FEFF 		bl	free
 485              	.LVL60:
 486              	.L32:
  90:..\kronos-c-sdk\src\http/http_request.c ****     if (req->content_type.value) free(req->content_type.value);
 487              		.loc 1 90 0
 488 0048 002D     		cmp	r5, #0
 489 004a 01D0     		beq	.L56
 490 004c 2E1C     		mov	r6, r5
 491 004e EBE7     		b	.L35
 492              	.L56:
 493              	.LVL61:
  91:..\kronos-c-sdk\src\http/http_request.c **** }
 494              		.loc 1 91 0
 495 0050 E834     		add	r4, r4, #232
 496              	.LVL62:
 497 0052 2068     		ldr	r0, [r4]
 498 0054 0028     		cmp	r0, #0
 499 0056 01D0     		beq	.L29
  91:..\kronos-c-sdk\src\http/http_request.c **** }
 500              		.loc 1 91 0 is_stmt 0 discriminator 1
 501 0058 FFF7FEFF 		bl	free
 502              	.LVL63:
 503              	.L29:
  92:..\kronos-c-sdk\src\http/http_request.c **** 
 504              		.loc 1 92 0 is_stmt 1
 505              		@ sp needed
ARM GAS  C:\Users\ddemidov\AppData\Local\Temp\ccN15mOb.s 			page 14


 506              	.LVL64:
 507 005c 70BD     		pop	{r4, r5, r6, pc}
 508              		.cfi_endproc
 509              	.LFE3:
 510              		.size	http_request_close, .-http_request_close
 511              		.section	.text.http_response_free,"ax",%progbits
 512              		.align	1
 513              		.global	http_response_free
 514              		.code	16
 515              		.thumb_func
 516              		.type	http_response_free, %function
 517              	http_response_free:
 518              	.LFB4:
  94:..\kronos-c-sdk\src\http/http_request.c ****     if (res->payload.buf) free(res->payload.buf);
 519              		.loc 1 94 0
 520              		.cfi_startproc
 521              	.LVL65:
 522 0000 70B5     		push	{r4, r5, r6, lr}
 523              		.cfi_def_cfa_offset 16
 524              		.cfi_offset 4, -16
 525              		.cfi_offset 5, -12
 526              		.cfi_offset 6, -8
 527              		.cfi_offset 14, -4
  94:..\kronos-c-sdk\src\http/http_request.c ****     if (res->payload.buf) free(res->payload.buf);
 528              		.loc 1 94 0
 529 0002 061C     		mov	r6, r0
  95:..\kronos-c-sdk\src\http/http_request.c ****     res->payload.size = 0;
 530              		.loc 1 95 0
 531 0004 C069     		ldr	r0, [r0, #28]
 532              	.LVL66:
 533 0006 0028     		cmp	r0, #0
 534 0008 01D0     		beq	.L58
  95:..\kronos-c-sdk\src\http/http_request.c ****     res->payload.size = 0;
 535              		.loc 1 95 0 is_stmt 0 discriminator 1
 536 000a FFF7FEFF 		bl	free
 537              	.LVL67:
 538              	.L58:
  96:..\kronos-c-sdk\src\http/http_request.c ****     http_header_t *head = res->header;
 539              		.loc 1 96 0 is_stmt 1
 540 000e 0024     		mov	r4, #0
  97:..\kronos-c-sdk\src\http/http_request.c ****     http_header_t *head_next = NULL;
 541              		.loc 1 97 0
 542 0010 B568     		ldr	r5, [r6, #8]
 543              	.LVL68:
  96:..\kronos-c-sdk\src\http/http_request.c ****     http_header_t *head = res->header;
 544              		.loc 1 96 0
 545 0012 B461     		str	r4, [r6, #24]
 546              	.LVL69:
 547              	.L62:
 100:..\kronos-c-sdk\src\http/http_request.c ****             head_next = head->next;
 548              		.loc 1 100 0
 549 0014 002D     		cmp	r5, #0
 550 0016 0DD0     		beq	.L59
 102:..\kronos-c-sdk\src\http/http_request.c ****             if (head->value) free(head->value);
 551              		.loc 1 102 0
 552 0018 2868     		ldr	r0, [r5]
 101:..\kronos-c-sdk\src\http/http_request.c ****             if (head->key) free(head->key);
ARM GAS  C:\Users\ddemidov\AppData\Local\Temp\ccN15mOb.s 			page 15


 553              		.loc 1 101 0
 554 001a AC68     		ldr	r4, [r5, #8]
 555              	.LVL70:
 102:..\kronos-c-sdk\src\http/http_request.c ****             if (head->value) free(head->value);
 556              		.loc 1 102 0
 557 001c 0028     		cmp	r0, #0
 558 001e 01D0     		beq	.L60
 102:..\kronos-c-sdk\src\http/http_request.c ****             if (head->value) free(head->value);
 559              		.loc 1 102 0 is_stmt 0 discriminator 1
 560 0020 FFF7FEFF 		bl	free
 561              	.LVL71:
 562              	.L60:
 103:..\kronos-c-sdk\src\http/http_request.c ****             free(head);
 563              		.loc 1 103 0 is_stmt 1
 564 0024 6868     		ldr	r0, [r5, #4]
 565 0026 0028     		cmp	r0, #0
 566 0028 01D0     		beq	.L61
 103:..\kronos-c-sdk\src\http/http_request.c ****             free(head);
 567              		.loc 1 103 0 is_stmt 0 discriminator 1
 568 002a FFF7FEFF 		bl	free
 569              	.LVL72:
 570              	.L61:
 104:..\kronos-c-sdk\src\http/http_request.c ****         }
 571              		.loc 1 104 0 is_stmt 1
 572 002e 281C     		mov	r0, r5
 573 0030 FFF7FEFF 		bl	free
 574              	.LVL73:
 575              	.L59:
 107:..\kronos-c-sdk\src\http/http_request.c ****     if (res->content_type.value) free(res->content_type.value);
 576              		.loc 1 107 0
 577 0034 002C     		cmp	r4, #0
 578 0036 01D0     		beq	.L80
 579 0038 251C     		mov	r5, r4
 580 003a EBE7     		b	.L62
 581              	.L80:
 582              	.LVL74:
 108:..\kronos-c-sdk\src\http/http_request.c **** }
 583              		.loc 1 108 0
 584 003c 3069     		ldr	r0, [r6, #16]
 585 003e 0028     		cmp	r0, #0
 586 0040 01D0     		beq	.L57
 108:..\kronos-c-sdk\src\http/http_request.c **** }
 587              		.loc 1 108 0 is_stmt 0 discriminator 1
 588 0042 FFF7FEFF 		bl	free
 589              	.LVL75:
 590              	.L57:
 109:..\kronos-c-sdk\src\http/http_request.c **** 
 591              		.loc 1 109 0 is_stmt 1
 592              		@ sp needed
 593              	.LVL76:
 594 0046 70BD     		pop	{r4, r5, r6, pc}
 595              		.cfi_endproc
 596              	.LFE4:
 597              		.size	http_response_free, .-http_response_free
 598              		.section	.text.http_request_add_header,"ax",%progbits
 599              		.align	1
 600              		.global	http_request_add_header
ARM GAS  C:\Users\ddemidov\AppData\Local\Temp\ccN15mOb.s 			page 16


 601              		.code	16
 602              		.thumb_func
 603              		.type	http_request_add_header, %function
 604              	http_request_add_header:
 605              	.LFB5:
 111:..\kronos-c-sdk\src\http/http_request.c ****     http_header_t *head = req->header;
 606              		.loc 1 111 0
 607              		.cfi_startproc
 608              	.LVL77:
 112:..\kronos-c-sdk\src\http/http_request.c ****     while( head && head->next ) {
 609              		.loc 1 112 0
 610 0000 E030     		add	r0, r0, #224
 611              	.LVL78:
 111:..\kronos-c-sdk\src\http/http_request.c ****     http_header_t *head = req->header;
 612              		.loc 1 111 0
 613 0002 F0B5     		push	{r4, r5, r6, r7, lr}
 614              		.cfi_def_cfa_offset 20
 615              		.cfi_offset 4, -20
 616              		.cfi_offset 5, -16
 617              		.cfi_offset 6, -12
 618              		.cfi_offset 7, -8
 619              		.cfi_offset 14, -4
 112:..\kronos-c-sdk\src\http/http_request.c ****     while( head && head->next ) {
 620              		.loc 1 112 0
 621 0004 061C     		mov	r6, r0
 111:..\kronos-c-sdk\src\http/http_request.c ****     http_header_t *head = req->header;
 622              		.loc 1 111 0
 623 0006 85B0     		sub	sp, sp, #20
 624              		.cfi_def_cfa_offset 40
 112:..\kronos-c-sdk\src\http/http_request.c ****     while( head && head->next ) {
 625              		.loc 1 112 0
 626 0008 0568     		ldr	r5, [r0]
 627              	.LVL79:
 111:..\kronos-c-sdk\src\http/http_request.c ****     http_header_t *head = req->header;
 628              		.loc 1 111 0
 629 000a 0191     		str	r1, [sp, #4]
 630 000c 0292     		str	r2, [sp, #8]
 631              	.LVL80:
 632              	.L83:
 113:..\kronos-c-sdk\src\http/http_request.c **** //        if ( head ) {
 633              		.loc 1 113 0
 634 000e 002D     		cmp	r5, #0
 635 0010 04D0     		beq	.L82
 113:..\kronos-c-sdk\src\http/http_request.c **** //        if ( head ) {
 636              		.loc 1 113 0 is_stmt 0 discriminator 1
 637 0012 AB68     		ldr	r3, [r5, #8]
 638 0014 002B     		cmp	r3, #0
 639 0016 01D0     		beq	.L82
 640 0018 1D1C     		mov	r5, r3
 641              	.LVL81:
 642 001a F8E7     		b	.L83
 643              	.LVL82:
 644              	.L82:
 119:..\kronos-c-sdk\src\http/http_request.c ****     head_new->key = (uint8_t*)malloc(strlen(key)+1);
 645              		.loc 1 119 0 is_stmt 1
 646 001c 0C20     		mov	r0, #12
 647              	.LVL83:
ARM GAS  C:\Users\ddemidov\AppData\Local\Temp\ccN15mOb.s 			page 17


 648 001e FFF7FEFF 		bl	malloc
 649              	.LVL84:
 650 0022 041C     		mov	r4, r0
 651              	.LVL85:
 120:..\kronos-c-sdk\src\http/http_request.c ****     head_new->value = (uint8_t*)malloc(strlen(value)+1);
 652              		.loc 1 120 0
 653 0024 0198     		ldr	r0, [sp, #4]
 654              	.LVL86:
 655 0026 FFF7FEFF 		bl	strlen
 656              	.LVL87:
 657 002a 0130     		add	r0, r0, #1
 658 002c FFF7FEFF 		bl	malloc
 659              	.LVL88:
 660 0030 071C     		mov	r7, r0
 661 0032 2060     		str	r0, [r4]
 121:..\kronos-c-sdk\src\http/http_request.c ****     strcpy((char*)head_new->key, key);
 662              		.loc 1 121 0
 663 0034 0298     		ldr	r0, [sp, #8]
 664 0036 FFF7FEFF 		bl	strlen
 665              	.LVL89:
 666 003a 0130     		add	r0, r0, #1
 667 003c FFF7FEFF 		bl	malloc
 668              	.LVL90:
 122:..\kronos-c-sdk\src\http/http_request.c ****     strcpy((char*)head_new->value, value);
 669              		.loc 1 122 0
 670 0040 0199     		ldr	r1, [sp, #4]
 121:..\kronos-c-sdk\src\http/http_request.c ****     strcpy((char*)head_new->key, key);
 671              		.loc 1 121 0
 672 0042 0390     		str	r0, [sp, #12]
 673 0044 6060     		str	r0, [r4, #4]
 122:..\kronos-c-sdk\src\http/http_request.c ****     strcpy((char*)head_new->value, value);
 674              		.loc 1 122 0
 675 0046 381C     		mov	r0, r7
 676 0048 FFF7FEFF 		bl	strcpy
 677              	.LVL91:
 123:..\kronos-c-sdk\src\http/http_request.c ****     head_new->next = NULL;
 678              		.loc 1 123 0
 679 004c 0398     		ldr	r0, [sp, #12]
 680 004e 0299     		ldr	r1, [sp, #8]
 681 0050 FFF7FEFF 		bl	strcpy
 682              	.LVL92:
 124:..\kronos-c-sdk\src\http/http_request.c ****     if ( head ) head->next = head_new;
 683              		.loc 1 124 0
 684 0054 0023     		mov	r3, #0
 685 0056 A360     		str	r3, [r4, #8]
 125:..\kronos-c-sdk\src\http/http_request.c ****     else req->header = head_new;
 686              		.loc 1 125 0
 687 0058 9D42     		cmp	r5, r3
 688 005a 01D0     		beq	.L84
 125:..\kronos-c-sdk\src\http/http_request.c ****     else req->header = head_new;
 689              		.loc 1 125 0 is_stmt 0 discriminator 1
 690 005c AC60     		str	r4, [r5, #8]
 691 005e 00E0     		b	.L81
 692              	.L84:
 126:..\kronos-c-sdk\src\http/http_request.c **** }
 693              		.loc 1 126 0 is_stmt 1
 694 0060 3460     		str	r4, [r6]
ARM GAS  C:\Users\ddemidov\AppData\Local\Temp\ccN15mOb.s 			page 18


 695              	.L81:
 127:..\kronos-c-sdk\src\http/http_request.c **** 
 696              		.loc 1 127 0
 697 0062 05B0     		add	sp, sp, #20
 698              		@ sp needed
 699              	.LVL93:
 700              	.LVL94:
 701              	.LVL95:
 702 0064 F0BD     		pop	{r4, r5, r6, r7, pc}
 703              		.cfi_endproc
 704              	.LFE5:
 705              		.size	http_request_add_header, .-http_request_add_header
 706              		.section	.text.http_request_set_content_type,"ax",%progbits
 707              		.align	1
 708              		.global	http_request_set_content_type
 709              		.code	16
 710              		.thumb_func
 711              		.type	http_request_set_content_type, %function
 712              	http_request_set_content_type:
 713              	.LFB6:
 129:..\kronos-c-sdk\src\http/http_request.c ****     req->content_type.value = (uint8_t*)malloc(strlen(value)+1);
 714              		.loc 1 129 0
 715              		.cfi_startproc
 716              	.LVL96:
 717 0000 38B5     		push	{r3, r4, r5, lr}
 718              		.cfi_def_cfa_offset 16
 719              		.cfi_offset 3, -16
 720              		.cfi_offset 4, -12
 721              		.cfi_offset 5, -8
 722              		.cfi_offset 14, -4
 129:..\kronos-c-sdk\src\http/http_request.c ****     req->content_type.value = (uint8_t*)malloc(strlen(value)+1);
 723              		.loc 1 129 0
 724 0002 041C     		mov	r4, r0
 130:..\kronos-c-sdk\src\http/http_request.c ****     strcpy((char*)req->content_type.value, value);
 725              		.loc 1 130 0
 726 0004 081C     		mov	r0, r1
 727              	.LVL97:
 129:..\kronos-c-sdk\src\http/http_request.c ****     req->content_type.value = (uint8_t*)malloc(strlen(value)+1);
 728              		.loc 1 129 0
 729 0006 0D1C     		mov	r5, r1
 130:..\kronos-c-sdk\src\http/http_request.c ****     strcpy((char*)req->content_type.value, value);
 730              		.loc 1 130 0
 731 0008 FFF7FEFF 		bl	strlen
 732              	.LVL98:
 733 000c 0130     		add	r0, r0, #1
 734 000e FFF7FEFF 		bl	malloc
 735              	.LVL99:
 736 0012 E834     		add	r4, r4, #232
 737              	.LVL100:
 131:..\kronos-c-sdk\src\http/http_request.c **** }
 738              		.loc 1 131 0
 739 0014 291C     		mov	r1, r5
 130:..\kronos-c-sdk\src\http/http_request.c ****     strcpy((char*)req->content_type.value, value);
 740              		.loc 1 130 0
 741 0016 2060     		str	r0, [r4]
 131:..\kronos-c-sdk\src\http/http_request.c **** }
 742              		.loc 1 131 0
ARM GAS  C:\Users\ddemidov\AppData\Local\Temp\ccN15mOb.s 			page 19


 743 0018 FFF7FEFF 		bl	strcpy
 744              	.LVL101:
 132:..\kronos-c-sdk\src\http/http_request.c **** 
 745              		.loc 1 132 0
 746              		@ sp needed
 747              	.LVL102:
 748              	.LVL103:
 749 001c 38BD     		pop	{r3, r4, r5, pc}
 750              		.cfi_endproc
 751              	.LFE6:
 752              		.size	http_request_set_content_type, .-http_request_set_content_type
 753              		.section	.text.http_request_first_header,"ax",%progbits
 754              		.align	1
 755              		.global	http_request_first_header
 756              		.code	16
 757              		.thumb_func
 758              		.type	http_request_first_header, %function
 759              	http_request_first_header:
 760              	.LFB7:
 134:..\kronos-c-sdk\src\http/http_request.c ****     return req->header;
 761              		.loc 1 134 0
 762              		.cfi_startproc
 763              	.LVL104:
 135:..\kronos-c-sdk\src\http/http_request.c **** }
 764              		.loc 1 135 0
 765 0000 E030     		add	r0, r0, #224
 766              	.LVL105:
 767 0002 0068     		ldr	r0, [r0]
 768              	.LVL106:
 136:..\kronos-c-sdk\src\http/http_request.c **** 
 769              		.loc 1 136 0
 770              		@ sp needed
 771 0004 7047     		bx	lr
 772              		.cfi_endproc
 773              	.LFE7:
 774              		.size	http_request_first_header, .-http_request_first_header
 775              		.section	.text.http_request_next_header,"ax",%progbits
 776              		.align	1
 777              		.global	http_request_next_header
 778              		.code	16
 779              		.thumb_func
 780              		.type	http_request_next_header, %function
 781              	http_request_next_header:
 782              	.LFB8:
 138:..\kronos-c-sdk\src\http/http_request.c ****     SSP_PARAMETER_NOT_USED(req);
 783              		.loc 1 138 0
 784              		.cfi_startproc
 785              	.LVL107:
 140:..\kronos-c-sdk\src\http/http_request.c ****     return head->next;
 786              		.loc 1 140 0
 787 0000 081E     		sub	r0, r1, #0
 788              	.LVL108:
 789 0002 00D0     		beq	.L93
 141:..\kronos-c-sdk\src\http/http_request.c **** }
 790              		.loc 1 141 0
 791 0004 8868     		ldr	r0, [r1, #8]
 792              	.L93:
ARM GAS  C:\Users\ddemidov\AppData\Local\Temp\ccN15mOb.s 			page 20


 142:..\kronos-c-sdk\src\http/http_request.c **** 
 793              		.loc 1 142 0
 794              		@ sp needed
 795 0006 7047     		bx	lr
 796              		.cfi_endproc
 797              	.LFE8:
 798              		.size	http_request_next_header, .-http_request_next_header
 799              		.section	.text.http_request_set_payload,"ax",%progbits
 800              		.align	1
 801              		.global	http_request_set_payload
 802              		.code	16
 803              		.thumb_func
 804              		.type	http_request_set_payload, %function
 805              	http_request_set_payload:
 806              	.LFB10:
 154:..\kronos-c-sdk\src\http/http_request.c **** 
 155:..\kronos-c-sdk\src\http/http_request.c **** void http_request_set_payload(http_request_t *req, char *payload) {
 807              		.loc 1 155 0
 808              		.cfi_startproc
 809              	.LVL109:
 810 0000 38B5     		push	{r3, r4, r5, lr}
 811              		.cfi_def_cfa_offset 16
 812              		.cfi_offset 3, -16
 813              		.cfi_offset 4, -12
 814              		.cfi_offset 5, -8
 815              		.cfi_offset 14, -4
 816              		.loc 1 155 0
 817 0002 041C     		mov	r4, r0
 156:..\kronos-c-sdk\src\http/http_request.c ****     set_payload(&req->payload, payload, strlen(payload));
 818              		.loc 1 156 0
 819 0004 081C     		mov	r0, r1
 820              	.LVL110:
 155:..\kronos-c-sdk\src\http/http_request.c ****     set_payload(&req->payload, payload, strlen(payload));
 821              		.loc 1 155 0
 822 0006 0D1C     		mov	r5, r1
 823              		.loc 1 156 0
 824 0008 FFF7FEFF 		bl	strlen
 825              	.LVL111:
 826 000c 021C     		mov	r2, r0
 827 000e 201C     		mov	r0, r4
 828 0010 291C     		mov	r1, r5
 829 0012 F430     		add	r0, r0, #244
 830 0014 FFF7FEFF 		bl	set_payload
 831              	.LVL112:
 157:..\kronos-c-sdk\src\http/http_request.c **** }
 832              		.loc 1 157 0
 833              		@ sp needed
 834              	.LVL113:
 835              	.LVL114:
 836 0018 38BD     		pop	{r3, r4, r5, pc}
 837              		.cfi_endproc
 838              	.LFE10:
 839              		.size	http_request_set_payload, .-http_request_set_payload
 840              		.section	.text.http_response_add_header,"ax",%progbits
 841              		.align	1
 842              		.global	http_response_add_header
 843              		.code	16
ARM GAS  C:\Users\ddemidov\AppData\Local\Temp\ccN15mOb.s 			page 21


 844              		.thumb_func
 845              		.type	http_response_add_header, %function
 846              	http_response_add_header:
 847              	.LFB11:
 158:..\kronos-c-sdk\src\http/http_request.c **** 
 159:..\kronos-c-sdk\src\http/http_request.c **** void http_response_add_header(http_response_t *req, const char *key, const char *value) {
 848              		.loc 1 159 0
 849              		.cfi_startproc
 850              	.LVL115:
 851 0000 F0B5     		push	{r4, r5, r6, r7, lr}
 852              		.cfi_def_cfa_offset 20
 853              		.cfi_offset 4, -20
 854              		.cfi_offset 5, -16
 855              		.cfi_offset 6, -12
 856              		.cfi_offset 7, -8
 857              		.cfi_offset 14, -4
 858 0002 061C     		mov	r6, r0
 859 0004 85B0     		sub	sp, sp, #20
 860              		.cfi_def_cfa_offset 40
 160:..\kronos-c-sdk\src\http/http_request.c ****     http_header_t *head = req->header;
 861              		.loc 1 160 0
 862 0006 8568     		ldr	r5, [r0, #8]
 863              	.LVL116:
 159:..\kronos-c-sdk\src\http/http_request.c ****     http_header_t *head = req->header;
 864              		.loc 1 159 0
 865 0008 0191     		str	r1, [sp, #4]
 866 000a 0292     		str	r2, [sp, #8]
 867              	.LVL117:
 868              	.L98:
 161:..\kronos-c-sdk\src\http/http_request.c ****     while( head && head->next ){
 869              		.loc 1 161 0
 870 000c 002D     		cmp	r5, #0
 871 000e 04D0     		beq	.L97
 872              		.loc 1 161 0 is_stmt 0 discriminator 1
 873 0010 AB68     		ldr	r3, [r5, #8]
 874 0012 002B     		cmp	r3, #0
 875 0014 01D0     		beq	.L97
 876 0016 1D1C     		mov	r5, r3
 877              	.LVL118:
 878 0018 F8E7     		b	.L98
 879              	.LVL119:
 880              	.L97:
 162:..\kronos-c-sdk\src\http/http_request.c ****         head = head->next;
 163:..\kronos-c-sdk\src\http/http_request.c ****     }
 164:..\kronos-c-sdk\src\http/http_request.c ****     http_header_t *head_new = (http_header_t *)malloc(sizeof(http_header_t));
 881              		.loc 1 164 0 is_stmt 1
 882 001a 0C20     		mov	r0, #12
 883              	.LVL120:
 884 001c FFF7FEFF 		bl	malloc
 885              	.LVL121:
 886 0020 041C     		mov	r4, r0
 887              	.LVL122:
 165:..\kronos-c-sdk\src\http/http_request.c ****     head_new->key = (uint8_t*)malloc(strlen(key)+1);
 888              		.loc 1 165 0
 889 0022 0198     		ldr	r0, [sp, #4]
 890              	.LVL123:
 891 0024 FFF7FEFF 		bl	strlen
ARM GAS  C:\Users\ddemidov\AppData\Local\Temp\ccN15mOb.s 			page 22


 892              	.LVL124:
 893 0028 0130     		add	r0, r0, #1
 894 002a FFF7FEFF 		bl	malloc
 895              	.LVL125:
 896 002e 071C     		mov	r7, r0
 897 0030 2060     		str	r0, [r4]
 166:..\kronos-c-sdk\src\http/http_request.c ****     head_new->value = (uint8_t*)malloc(strlen(value)+1);
 898              		.loc 1 166 0
 899 0032 0298     		ldr	r0, [sp, #8]
 900 0034 FFF7FEFF 		bl	strlen
 901              	.LVL126:
 902 0038 0130     		add	r0, r0, #1
 903 003a FFF7FEFF 		bl	malloc
 904              	.LVL127:
 167:..\kronos-c-sdk\src\http/http_request.c ****     strcpy((char*)head_new->key, key);
 905              		.loc 1 167 0
 906 003e 0199     		ldr	r1, [sp, #4]
 166:..\kronos-c-sdk\src\http/http_request.c ****     head_new->value = (uint8_t*)malloc(strlen(value)+1);
 907              		.loc 1 166 0
 908 0040 0390     		str	r0, [sp, #12]
 909 0042 6060     		str	r0, [r4, #4]
 910              		.loc 1 167 0
 911 0044 381C     		mov	r0, r7
 912 0046 FFF7FEFF 		bl	strcpy
 913              	.LVL128:
 168:..\kronos-c-sdk\src\http/http_request.c ****     strcpy((char*)head_new->value, (char*)value);
 914              		.loc 1 168 0
 915 004a 0398     		ldr	r0, [sp, #12]
 916 004c 0299     		ldr	r1, [sp, #8]
 917 004e FFF7FEFF 		bl	strcpy
 918              	.LVL129:
 169:..\kronos-c-sdk\src\http/http_request.c ****     head_new->next = NULL;
 919              		.loc 1 169 0
 920 0052 0023     		mov	r3, #0
 921 0054 A360     		str	r3, [r4, #8]
 170:..\kronos-c-sdk\src\http/http_request.c ****     if ( head ) head->next = head_new;
 922              		.loc 1 170 0
 923 0056 9D42     		cmp	r5, r3
 924 0058 01D0     		beq	.L99
 925              		.loc 1 170 0 is_stmt 0 discriminator 1
 926 005a AC60     		str	r4, [r5, #8]
 927 005c 00E0     		b	.L96
 928              	.L99:
 171:..\kronos-c-sdk\src\http/http_request.c ****     else req->header = head_new;
 929              		.loc 1 171 0 is_stmt 1
 930 005e B460     		str	r4, [r6, #8]
 931              	.L96:
 172:..\kronos-c-sdk\src\http/http_request.c **** }
 932              		.loc 1 172 0
 933 0060 05B0     		add	sp, sp, #20
 934              		@ sp needed
 935              	.LVL130:
 936              	.LVL131:
 937              	.LVL132:
 938 0062 F0BD     		pop	{r4, r5, r6, r7, pc}
 939              		.cfi_endproc
 940              	.LFE11:
ARM GAS  C:\Users\ddemidov\AppData\Local\Temp\ccN15mOb.s 			page 23


 941              		.size	http_response_add_header, .-http_response_add_header
 942              		.section	.text.http_response_set_content_type,"ax",%progbits
 943              		.align	1
 944              		.global	http_response_set_content_type
 945              		.code	16
 946              		.thumb_func
 947              		.type	http_response_set_content_type, %function
 948              	http_response_set_content_type:
 949              	.LFB12:
 173:..\kronos-c-sdk\src\http/http_request.c **** 
 174:..\kronos-c-sdk\src\http/http_request.c **** void http_response_set_content_type(http_response_t *res, const char *value) {
 950              		.loc 1 174 0
 951              		.cfi_startproc
 952              	.LVL133:
 953 0000 38B5     		push	{r3, r4, r5, lr}
 954              		.cfi_def_cfa_offset 16
 955              		.cfi_offset 3, -16
 956              		.cfi_offset 4, -12
 957              		.cfi_offset 5, -8
 958              		.cfi_offset 14, -4
 959              		.loc 1 174 0
 960 0002 051C     		mov	r5, r0
 175:..\kronos-c-sdk\src\http/http_request.c ****     res->content_type.value = (uint8_t*)malloc(strlen(value)+1);
 961              		.loc 1 175 0
 962 0004 081C     		mov	r0, r1
 963              	.LVL134:
 174:..\kronos-c-sdk\src\http/http_request.c ****     res->content_type.value = (uint8_t*)malloc(strlen(value)+1);
 964              		.loc 1 174 0
 965 0006 0C1C     		mov	r4, r1
 966              		.loc 1 175 0
 967 0008 FFF7FEFF 		bl	strlen
 968              	.LVL135:
 969 000c 0130     		add	r0, r0, #1
 970 000e FFF7FEFF 		bl	malloc
 971              	.LVL136:
 972 0012 2861     		str	r0, [r5, #16]
 176:..\kronos-c-sdk\src\http/http_request.c ****     if ( !res->content_type.value ) {
 973              		.loc 1 176 0
 974 0014 0028     		cmp	r0, #0
 975 0016 03D1     		bne	.L106
 177:..\kronos-c-sdk\src\http/http_request.c ****         DBG("resp set content type malloc fail");
 976              		.loc 1 177 0
 977 0018 0348     		ldr	r0, .L108
 978 001a FFF7FEFF 		bl	dbg_line
 979              	.LVL137:
 178:..\kronos-c-sdk\src\http/http_request.c ****         return;
 980              		.loc 1 178 0
 981 001e 02E0     		b	.L105
 982              	.L106:
 179:..\kronos-c-sdk\src\http/http_request.c ****     }
 180:..\kronos-c-sdk\src\http/http_request.c ****     strcpy((char*)res->content_type.value, value);
 983              		.loc 1 180 0
 984 0020 211C     		mov	r1, r4
 985 0022 FFF7FEFF 		bl	strcpy
 986              	.LVL138:
 987              	.L105:
 181:..\kronos-c-sdk\src\http/http_request.c **** }
ARM GAS  C:\Users\ddemidov\AppData\Local\Temp\ccN15mOb.s 			page 24


 988              		.loc 1 181 0
 989              		@ sp needed
 990              	.LVL139:
 991              	.LVL140:
 992 0026 38BD     		pop	{r3, r4, r5, pc}
 993              	.L109:
 994              		.align	2
 995              	.L108:
 996 0028 44000000 		.word	.LC23
 997              		.cfi_endproc
 998              	.LFE12:
 999              		.size	http_response_set_content_type, .-http_response_set_content_type
 1000              		.section	.text.http_response_set_payload,"ax",%progbits
 1001              		.align	1
 1002              		.global	http_response_set_payload
 1003              		.code	16
 1004              		.thumb_func
 1005              		.type	http_response_set_payload, %function
 1006              	http_response_set_payload:
 1007              	.LFB13:
 182:..\kronos-c-sdk\src\http/http_request.c **** 
 183:..\kronos-c-sdk\src\http/http_request.c **** void http_response_set_payload(http_response_t *res, char *payload, size_t size) {
 1008              		.loc 1 183 0
 1009              		.cfi_startproc
 1010              	.LVL141:
 1011 0000 38B5     		push	{r3, r4, r5, lr}
 1012              		.cfi_def_cfa_offset 16
 1013              		.cfi_offset 3, -16
 1014              		.cfi_offset 4, -12
 1015              		.cfi_offset 5, -8
 1016              		.cfi_offset 14, -4
 1017              		.loc 1 183 0
 1018 0002 041C     		mov	r4, r0
 1019 0004 0D1C     		mov	r5, r1
 184:..\kronos-c-sdk\src\http/http_request.c ****     if ( !size ) size = strlen(payload);
 1020              		.loc 1 184 0
 1021 0006 002A     		cmp	r2, #0
 1022 0008 03D1     		bne	.L111
 1023              		.loc 1 184 0 is_stmt 0 discriminator 1
 1024 000a 081C     		mov	r0, r1
 1025              	.LVL142:
 1026 000c FFF7FEFF 		bl	strlen
 1027              	.LVL143:
 1028 0010 021C     		mov	r2, r0
 1029              	.LVL144:
 1030              	.L111:
 185:..\kronos-c-sdk\src\http/http_request.c ****     set_payload(&res->payload, payload, size);
 1031              		.loc 1 185 0 is_stmt 1
 1032 0012 201C     		mov	r0, r4
 1033 0014 291C     		mov	r1, r5
 1034 0016 1830     		add	r0, r0, #24
 1035 0018 FFF7FEFF 		bl	set_payload
 1036              	.LVL145:
 186:..\kronos-c-sdk\src\http/http_request.c **** }
 1037              		.loc 1 186 0
 1038              		@ sp needed
 1039              	.LVL146:
ARM GAS  C:\Users\ddemidov\AppData\Local\Temp\ccN15mOb.s 			page 25


 1040              	.LVL147:
 1041 001c 38BD     		pop	{r3, r4, r5, pc}
 1042              		.cfi_endproc
 1043              	.LFE13:
 1044              		.size	http_response_set_payload, .-http_response_set_payload
 1045              		.section	.text.http_response_add_payload,"ax",%progbits
 1046              		.align	1
 1047              		.global	http_response_add_payload
 1048              		.code	16
 1049              		.thumb_func
 1050              		.type	http_response_add_payload, %function
 1051              	http_response_add_payload:
 1052              	.LFB14:
 187:..\kronos-c-sdk\src\http/http_request.c **** 
 188:..\kronos-c-sdk\src\http/http_request.c **** void http_response_add_payload(http_response_t *res, char *payload, size_t size) {
 1053              		.loc 1 188 0
 1054              		.cfi_startproc
 1055              	.LVL148:
 1056 0000 F7B5     		push	{r0, r1, r2, r4, r5, r6, r7, lr}
 1057              		.cfi_def_cfa_offset 32
 1058              		.cfi_offset 0, -32
 1059              		.cfi_offset 1, -28
 1060              		.cfi_offset 2, -24
 1061              		.cfi_offset 4, -20
 1062              		.cfi_offset 5, -16
 1063              		.cfi_offset 6, -12
 1064              		.cfi_offset 7, -8
 1065              		.cfi_offset 14, -4
 1066              		.loc 1 188 0
 1067 0002 041C     		mov	r4, r0
 1068 0004 0E1C     		mov	r6, r1
 1069 0006 151E     		sub	r5, r2, #0
 189:..\kronos-c-sdk\src\http/http_request.c ****     if ( !size ) size = strlen(payload);
 1070              		.loc 1 189 0
 1071 0008 03D1     		bne	.L113
 1072              		.loc 1 189 0 is_stmt 0 discriminator 1
 1073 000a 081C     		mov	r0, r1
 1074              	.LVL149:
 1075 000c FFF7FEFF 		bl	strlen
 1076              	.LVL150:
 1077 0010 051C     		mov	r5, r0
 1078              	.LVL151:
 1079              	.L113:
 190:..\kronos-c-sdk\src\http/http_request.c ****     if ( !res->payload.buf ) {
 1080              		.loc 1 190 0 is_stmt 1
 1081 0012 E769     		ldr	r7, [r4, #28]
 1082 0014 002F     		cmp	r7, #0
 1083 0016 06D1     		bne	.L114
 191:..\kronos-c-sdk\src\http/http_request.c ****         set_payload(&res->payload, payload, size);
 1084              		.loc 1 191 0
 1085 0018 201C     		mov	r0, r4
 1086 001a 311C     		mov	r1, r6
 1087 001c 1830     		add	r0, r0, #24
 1088 001e 2A1C     		mov	r2, r5
 1089 0020 FFF7FEFF 		bl	set_payload
 1090              	.LVL152:
 192:..\kronos-c-sdk\src\http/http_request.c ****         return;
ARM GAS  C:\Users\ddemidov\AppData\Local\Temp\ccN15mOb.s 			page 26


 1091              		.loc 1 192 0
 1092 0024 1AE0     		b	.L112
 1093              	.L114:
 1094              	.LBB2:
 193:..\kronos-c-sdk\src\http/http_request.c ****     } else {
 194:..\kronos-c-sdk\src\http/http_request.c ****         res->payload.size += size;
 1095              		.loc 1 194 0
 1096 0026 A369     		ldr	r3, [r4, #24]
 1097 0028 E818     		add	r0, r5, r3
 1098 002a A061     		str	r0, [r4, #24]
 1099              	.LVL153:
 195:..\kronos-c-sdk\src\http/http_request.c ****         uint8_t *old_buf = res->payload.buf;
 196:..\kronos-c-sdk\src\http/http_request.c ****         res->payload.buf = (uint8_t*)malloc(res->payload.size+1);
 1100              		.loc 1 196 0
 1101 002c 0130     		add	r0, r0, #1
 194:..\kronos-c-sdk\src\http/http_request.c ****         uint8_t *old_buf = res->payload.buf;
 1102              		.loc 1 194 0
 1103 002e 0193     		str	r3, [sp, #4]
 1104              		.loc 1 196 0
 1105 0030 FFF7FEFF 		bl	malloc
 1106              	.LVL154:
 197:..\kronos-c-sdk\src\http/http_request.c ****         memcpy(res->payload.buf, old_buf, res->payload.size - size);
 1107              		.loc 1 197 0
 1108 0034 391C     		mov	r1, r7
 1109 0036 019A     		ldr	r2, [sp, #4]
 196:..\kronos-c-sdk\src\http/http_request.c ****         memcpy(res->payload.buf, old_buf, res->payload.size - size);
 1110              		.loc 1 196 0
 1111 0038 E061     		str	r0, [r4, #28]
 1112              		.loc 1 197 0
 1113 003a FFF7FEFF 		bl	memcpy
 1114              	.LVL155:
 198:..\kronos-c-sdk\src\http/http_request.c ****         free(old_buf);
 1115              		.loc 1 198 0
 1116 003e 381C     		mov	r0, r7
 1117 0040 FFF7FEFF 		bl	free
 1118              	.LVL156:
 199:..\kronos-c-sdk\src\http/http_request.c ****         memcpy(res->payload.buf + res->payload.size - size, payload, size);
 1119              		.loc 1 199 0
 1120 0044 A369     		ldr	r3, [r4, #24]
 1121 0046 311C     		mov	r1, r6
 1122 0048 581B     		sub	r0, r3, r5
 1123 004a E369     		ldr	r3, [r4, #28]
 1124 004c 2A1C     		mov	r2, r5
 1125 004e 1818     		add	r0, r3, r0
 1126 0050 FFF7FEFF 		bl	memcpy
 1127              	.LVL157:
 200:..\kronos-c-sdk\src\http/http_request.c ****         res->payload.buf[res->payload.size] = '\0';
 1128              		.loc 1 200 0
 1129 0054 0021     		mov	r1, #0
 1130 0056 E269     		ldr	r2, [r4, #28]
 1131 0058 A369     		ldr	r3, [r4, #24]
 1132 005a D154     		strb	r1, [r2, r3]
 1133              	.LVL158:
 1134              	.L112:
 1135              	.LBE2:
 201:..\kronos-c-sdk\src\http/http_request.c ****     }
 202:..\kronos-c-sdk\src\http/http_request.c **** }
ARM GAS  C:\Users\ddemidov\AppData\Local\Temp\ccN15mOb.s 			page 27


 1136              		.loc 1 202 0
 1137              		@ sp needed
 1138              	.LVL159:
 1139              	.LVL160:
 1140              	.LVL161:
 1141 005c F7BD     		pop	{r0, r1, r2, r4, r5, r6, r7, pc}
 1142              		.cfi_endproc
 1143              	.LFE14:
 1144              		.size	http_response_add_payload, .-http_response_add_payload
 1145              		.section	.rodata
 1146              		.align	2
 1147              		.set	.LANCHOR0,. + 0
 1148              		.type	meth_str, %object
 1149              		.size	meth_str, 20
 1150              	meth_str:
 1151 0000 66000000 		.word	.LC25
 1152 0004 6A000000 		.word	.LC26
 1153 0008 6F000000 		.word	.LC27
 1154 000c 73000000 		.word	.LC28
 1155 0010 7A000000 		.word	.LC29
 1156              		.section	.rodata.str1.1,"aMS",%progbits,1
 1157              	.LC5:
 1158 0000 3A2F2F00 		.ascii	"://\000"
 1159              	.LC7:
 1160 0004 25687500 		.ascii	"%hu\000"
 1161              	.LC9:
 1162 0008 68747470 		.ascii	"https\000"
 1162      7300
 1163              	.LC11:
 1164 000e 6D657468 		.ascii	"meth: %s\000"
 1164      3A202573 
 1164      00
 1165              	.LC13:
 1166 0017 73636865 		.ascii	"scheme: %s\000"
 1166      6D653A20 
 1166      257300
 1167              	.LC15:
 1168 0022 686F7374 		.ascii	"host: %s\000"
 1168      3A202573 
 1168      00
 1169              	.LC17:
 1170 002b 706F7274 		.ascii	"port: %d\000"
 1170      3A202564 
 1170      00
 1171              	.LC19:
 1172 0034 7572693A 		.ascii	"uri: %s\000"
 1172      20257300 
 1173              	.LC21:
 1174 003c 7265733A 		.ascii	"res: %d\000"
 1174      20256400 
 1175              	.LC23:
 1176 0044 72657370 		.ascii	"resp set content type malloc fail\000"
 1176      20736574 
 1176      20636F6E 
 1176      74656E74 
 1176      20747970 
 1177              	.LC25:
ARM GAS  C:\Users\ddemidov\AppData\Local\Temp\ccN15mOb.s 			page 28


 1178 0066 47455400 		.ascii	"GET\000"
 1179              	.LC26:
 1180 006a 504F5354 		.ascii	"POST\000"
 1180      00
 1181              	.LC27:
 1182 006f 50555400 		.ascii	"PUT\000"
 1183              	.LC28:
 1184 0073 44454C45 		.ascii	"DELETE\000"
 1184      544500
 1185              	.LC29:
 1186 007a 48454144 		.ascii	"HEAD\000"
 1186      00
 1187              		.text
 1188              	.Letext0:
 1189              		.file 2 "c:\\program files (x86)\\cypress\\psoc creator\\3.3\\psoc creator\\import\\gnu\\arm\\4.9.
 1190              		.file 3 "c:\\program files (x86)\\cypress\\psoc creator\\3.3\\psoc creator\\import\\gnu\\arm\\4.9.
 1191              		.file 4 "..\\kronos-c-sdk\\include/http/request.h"
 1192              		.file 5 "c:\\program files (x86)\\cypress\\psoc creator\\3.3\\psoc creator\\import\\gnu\\arm\\4.9.
 1193              		.file 6 "c:\\program files (x86)\\cypress\\psoc creator\\3.3\\psoc creator\\import\\gnu\\arm\\4.9.
 1194              		.file 7 "c:\\program files (x86)\\cypress\\psoc creator\\3.3\\psoc creator\\import\\gnu\\arm\\4.9.
 1195              		.file 8 "..\\kronos-c-sdk/platforms/senseability/trace.h"
 1196              		.file 9 "<built-in>"