ARM GAS  C:\Users\ddemidov\AppData\Local\Temp\ccbakqUE.s 			page 1


   1              		.cpu cortex-m0
   2              		.fpu softvfp
   3              		.eabi_attribute 20, 1
   4              		.eabi_attribute 21, 1
   5              		.eabi_attribute 23, 3
   6              		.eabi_attribute 24, 1
   7              		.eabi_attribute 25, 1
   8              		.eabi_attribute 26, 1
   9              		.eabi_attribute 30, 4
  10              		.eabi_attribute 34, 0
  11              		.eabi_attribute 18, 4
  12              		.code	16
  13              		.file	"http_client.c"
  14              		.text
  15              	.Ltext0:
  16              		.cfi_sections	.debug_frame
  17              		.section	.text.simple_write,"ax",%progbits
  18              		.align	1
  19              		.code	16
  20              		.thumb_func
  21              		.type	simple_write, %function
  22              	simple_write:
  23              	.LFB3:
  24              		.file 1 "..\\kronos-c-sdk\\src\\http\\http_client.c"
   1:..\kronos-c-sdk\src\http/http_client.c **** /*
   2:..\kronos-c-sdk\src\http/http_client.c ****  * client.c
   3:..\kronos-c-sdk\src\http/http_client.c ****  *
   4:..\kronos-c-sdk\src\http/http_client.c ****  *  Created on: 13 окт. 2016 г.
   5:..\kronos-c-sdk\src\http/http_client.c ****  *      Author: ddemidov
   6:..\kronos-c-sdk\src\http/http_client.c ****  */
   7:..\kronos-c-sdk\src\http/http_client.c **** #define MODULE_NAME "HTTP_Client"
   8:..\kronos-c-sdk\src\http/http_client.c **** 
   9:..\kronos-c-sdk\src\http/http_client.c **** #include <http/client.h>
  10:..\kronos-c-sdk\src\http/http_client.c **** #include <config.h>
  11:..\kronos-c-sdk\src\http/http_client.c **** #include <debug.h>
  12:..\kronos-c-sdk\src\http/http_client.c **** #include <bsd/socket.h>
  13:..\kronos-c-sdk\src\http/http_client.c **** #include <time/time.h>
  14:..\kronos-c-sdk\src\http/http_client.c **** #include <arrow/mem.h>
  15:..\kronos-c-sdk\src\http/http_client.c **** #if defined(_ARIS_)
  16:..\kronos-c-sdk\src\http/http_client.c **** # if defined(ETH_MODE)
  17:..\kronos-c-sdk\src\http/http_client.c **** #  include "nx_api.h"
  18:..\kronos-c-sdk\src\http/http_client.c **** # endif
  19:..\kronos-c-sdk\src\http/http_client.c **** #elif defined(__MBED__)
  20:..\kronos-c-sdk\src\http/http_client.c **** #elif defined(__XCC__)
  21:..\kronos-c-sdk\src\http/http_client.c **** #define WOLFSSL SSL
  22:..\kronos-c-sdk\src\http/http_client.c **** #define WOLFSSL_CTX SSL_CTX
  23:..\kronos-c-sdk\src\http/http_client.c **** #define wolfSSL_write qcom_SSL_write
  24:..\kronos-c-sdk\src\http/http_client.c **** #define wolfSSL_read qcom_SSL_read
  25:..\kronos-c-sdk\src\http/http_client.c **** #define IPPROTO_TCP 0
  26:..\kronos-c-sdk\src\http/http_client.c **** #define SSL_SUCCESS 0
  27:..\kronos-c-sdk\src\http/http_client.c **** #endif
  28:..\kronos-c-sdk\src\http/http_client.c **** 
  29:..\kronos-c-sdk\src\http/http_client.c **** #if !defined(MAX_BUFFER_SIZE)
  30:..\kronos-c-sdk\src\http/http_client.c **** #define MAX_BUFFER_SIZE 1024
  31:..\kronos-c-sdk\src\http/http_client.c **** #endif
  32:..\kronos-c-sdk\src\http/http_client.c **** 
  33:..\kronos-c-sdk\src\http/http_client.c **** #define CHUNK_SIZE 256
ARM GAS  C:\Users\ddemidov\AppData\Local\Temp\ccbakqUE.s 			page 2


  34:..\kronos-c-sdk\src\http/http_client.c **** 
  35:..\kronos-c-sdk\src\http/http_client.c **** #define CHECK_CONN_ERR(ret) \
  36:..\kronos-c-sdk\src\http/http_client.c ****     if ( ret < 0 ) { \
  37:..\kronos-c-sdk\src\http/http_client.c ****       DBG("Connection error (%d)", ret); \
  38:..\kronos-c-sdk\src\http/http_client.c ****       return ret; \
  39:..\kronos-c-sdk\src\http/http_client.c ****     }
  40:..\kronos-c-sdk\src\http/http_client.c **** 
  41:..\kronos-c-sdk\src\http/http_client.c **** #define PRTCL_ERR() \
  42:..\kronos-c-sdk\src\http/http_client.c ****   { \
  43:..\kronos-c-sdk\src\http/http_client.c ****     DBG("Protocol error"); \
  44:..\kronos-c-sdk\src\http/http_client.c ****     soc_close(cli->sock); \
  45:..\kronos-c-sdk\src\http/http_client.c ****     return -1; \
  46:..\kronos-c-sdk\src\http/http_client.c ****   }
  47:..\kronos-c-sdk\src\http/http_client.c **** 
  48:..\kronos-c-sdk\src\http/http_client.c **** #define client_send(buf, size, cli) (*(cli->_w_func))((uint8_t*)(buf), (uint16_t)(size), (cli))
  49:..\kronos-c-sdk\src\http/http_client.c **** #define client_recv(buf, size, cli) (*(cli->_r_func))((uint8_t*)(buf), (uint16_t)(size), (cli))
  50:..\kronos-c-sdk\src\http/http_client.c **** 
  51:..\kronos-c-sdk\src\http/http_client.c **** 
  52:..\kronos-c-sdk\src\http/http_client.c **** #if !defined(__XCC__)
  53:..\kronos-c-sdk\src\http/http_client.c **** static int recv_ssl(WOLFSSL *wsl, char* buf, int sz, void* vp) {
  54:..\kronos-c-sdk\src\http/http_client.c ****     SSP_PARAMETER_NOT_USED(wsl);
  55:..\kronos-c-sdk\src\http/http_client.c ****     http_client_t *cli = (http_client_t *)vp;
  56:..\kronos-c-sdk\src\http/http_client.c ****     //      tcp->set_blocking(true, 15000);
  57:..\kronos-c-sdk\src\http/http_client.c ****     if ( sz < 0 ) return sz;
  58:..\kronos-c-sdk\src\http/http_client.c ****     int got = 0;
  59:..\kronos-c-sdk\src\http/http_client.c ****     got = recv(cli->sock, buf, sz, 0);
  60:..\kronos-c-sdk\src\http/http_client.c **** //    DBG("recv ssl %d [%d]", got, sz);
  61:..\kronos-c-sdk\src\http/http_client.c ****     if (got == 0)  return -2;  // IO_ERR_WANT_READ;
  62:..\kronos-c-sdk\src\http/http_client.c ****     return got;
  63:..\kronos-c-sdk\src\http/http_client.c **** }
  64:..\kronos-c-sdk\src\http/http_client.c **** 
  65:..\kronos-c-sdk\src\http/http_client.c **** 
  66:..\kronos-c-sdk\src\http/http_client.c **** static int send_ssl(WOLFSSL *wsl, char* buf, int sz, void* vp) {
  67:..\kronos-c-sdk\src\http/http_client.c ****     SSP_PARAMETER_NOT_USED(wsl);
  68:..\kronos-c-sdk\src\http/http_client.c ****     http_client_t *cli = (http_client_t *)vp;
  69:..\kronos-c-sdk\src\http/http_client.c ****     if ( sz < 0 ) return sz;
  70:..\kronos-c-sdk\src\http/http_client.c ****     int sent = 0;
  71:..\kronos-c-sdk\src\http/http_client.c ****     sent = send(cli->sock, buf, sz, 0);
  72:..\kronos-c-sdk\src\http/http_client.c **** //    DBG("send ssl %d [%d]", sent, sz);
  73:..\kronos-c-sdk\src\http/http_client.c ****     if (sent == 0)
  74:..\kronos-c-sdk\src\http/http_client.c ****         return -2;  // IO_ERR_WANT_WRITE
  75:..\kronos-c-sdk\src\http/http_client.c ****     return sent;
  76:..\kronos-c-sdk\src\http/http_client.c **** }
  77:..\kronos-c-sdk\src\http/http_client.c **** #endif
  78:..\kronos-c-sdk\src\http/http_client.c **** 
  79:..\kronos-c-sdk\src\http/http_client.c **** static int simple_read(uint8_t *buf, uint16_t len, void *c) {
  80:..\kronos-c-sdk\src\http/http_client.c ****     http_client_t *cli = (http_client_t *)c;
  81:..\kronos-c-sdk\src\http/http_client.c ****     int ret;
  82:..\kronos-c-sdk\src\http/http_client.c ****     ret = recv(cli->sock, (char*)buf, (int)len, 0);
  83:..\kronos-c-sdk\src\http/http_client.c ****     if (ret > 0) buf[ret] = 0x00;
  84:..\kronos-c-sdk\src\http/http_client.c **** //    DBG("%d|%s|", ret, buf);
  85:..\kronos-c-sdk\src\http/http_client.c ****     return ret;
  86:..\kronos-c-sdk\src\http/http_client.c **** }
  87:..\kronos-c-sdk\src\http/http_client.c **** 
  88:..\kronos-c-sdk\src\http/http_client.c **** static int simple_write(uint8_t *buf, uint16_t len, void *c) {
  25              		.loc 1 88 0
  26              		.cfi_startproc
ARM GAS  C:\Users\ddemidov\AppData\Local\Temp\ccbakqUE.s 			page 3


  27              	.LVL0:
  28 0000 38B5     		push	{r3, r4, r5, lr}
  29              		.cfi_def_cfa_offset 16
  30              		.cfi_offset 3, -16
  31              		.cfi_offset 4, -12
  32              		.cfi_offset 5, -8
  33              		.cfi_offset 14, -4
  34              		.loc 1 88 0
  35 0002 041C     		mov	r4, r0
  36 0004 0B1C     		mov	r3, r1
  37 0006 151C     		mov	r5, r2
  38              	.LVL1:
  89:..\kronos-c-sdk\src\http/http_client.c ****     http_client_t *cli = (http_client_t *)c;
  90:..\kronos-c-sdk\src\http/http_client.c ****     if ( !len ) len = (uint16_t)strlen((char*)buf);
  39              		.loc 1 90 0
  40 0008 0029     		cmp	r1, #0
  41 000a 02D1     		bne	.L2
  42              		.loc 1 90 0 is_stmt 0 discriminator 1
  43 000c FFF7FEFF 		bl	strlen
  44              	.LVL2:
  45 0010 83B2     		uxth	r3, r0
  46              	.LVL3:
  47              	.L2:
  91:..\kronos-c-sdk\src\http/http_client.c **** //    DBG("%d|%s|", len, buf);
  92:..\kronos-c-sdk\src\http/http_client.c ****     return send(cli->sock, (char*)buf, (int)len, 0);
  48              		.loc 1 92 0 is_stmt 1
  49 0012 2868     		ldr	r0, [r5]
  50 0014 1A1C     		mov	r2, r3
  51 0016 211C     		mov	r1, r4
  52 0018 0023     		mov	r3, #0
  53              	.LVL4:
  54 001a FFF7FEFF 		bl	send
  55              	.LVL5:
  93:..\kronos-c-sdk\src\http/http_client.c **** }
  56              		.loc 1 93 0
  57              		@ sp needed
  58              	.LVL6:
  59              	.LVL7:
  60 001e 38BD     		pop	{r3, r4, r5, pc}
  61              		.cfi_endproc
  62              	.LFE3:
  63              		.size	simple_write, .-simple_write
  64              		.section	.text.simple_read,"ax",%progbits
  65              		.align	1
  66              		.code	16
  67              		.thumb_func
  68              		.type	simple_read, %function
  69              	simple_read:
  70              	.LFB2:
  79:..\kronos-c-sdk\src\http/http_client.c ****     http_client_t *cli = (http_client_t *)c;
  71              		.loc 1 79 0
  72              		.cfi_startproc
  73              	.LVL8:
  74 0000 0B1C     		mov	r3, r1
  75 0002 10B5     		push	{r4, lr}
  76              		.cfi_def_cfa_offset 8
  77              		.cfi_offset 4, -8
ARM GAS  C:\Users\ddemidov\AppData\Local\Temp\ccbakqUE.s 			page 4


  78              		.cfi_offset 14, -4
  79:..\kronos-c-sdk\src\http/http_client.c ****     http_client_t *cli = (http_client_t *)c;
  79              		.loc 1 79 0
  80 0004 041C     		mov	r4, r0
  82:..\kronos-c-sdk\src\http/http_client.c ****     if (ret > 0) buf[ret] = 0x00;
  81              		.loc 1 82 0
  82 0006 1068     		ldr	r0, [r2]
  83              	.LVL9:
  84 0008 211C     		mov	r1, r4
  85              	.LVL10:
  86 000a 1A1C     		mov	r2, r3
  87              	.LVL11:
  88 000c 0023     		mov	r3, #0
  89 000e FFF7FEFF 		bl	recv
  90              	.LVL12:
  83:..\kronos-c-sdk\src\http/http_client.c **** //    DBG("%d|%s|", ret, buf);
  91              		.loc 1 83 0
  92 0012 0028     		cmp	r0, #0
  93 0014 01DD     		ble	.L5
  83:..\kronos-c-sdk\src\http/http_client.c **** //    DBG("%d|%s|", ret, buf);
  94              		.loc 1 83 0 is_stmt 0 discriminator 1
  95 0016 0023     		mov	r3, #0
  96 0018 2354     		strb	r3, [r4, r0]
  97              	.L5:
  86:..\kronos-c-sdk\src\http/http_client.c **** 
  98              		.loc 1 86 0 is_stmt 1
  99              		@ sp needed
 100              	.LVL13:
 101 001a 10BD     		pop	{r4, pc}
 102              		.cfi_endproc
 103              	.LFE2:
 104              		.size	simple_read, .-simple_read
 105              		.section	.text.ssl_write,"ax",%progbits
 106              		.align	1
 107              		.code	16
 108              		.thumb_func
 109              		.type	ssl_write, %function
 110              	ssl_write:
 111              	.LFB5:
  94:..\kronos-c-sdk\src\http/http_client.c **** 
  95:..\kronos-c-sdk\src\http/http_client.c **** static int ssl_read(uint8_t *buf, uint16_t len, void *c) {
  96:..\kronos-c-sdk\src\http/http_client.c ****     http_client_t *cli = (http_client_t *)c;
  97:..\kronos-c-sdk\src\http/http_client.c ****     int ret = wolfSSL_read(cli->ssl, buf, (int)len);
  98:..\kronos-c-sdk\src\http/http_client.c ****     if (ret > 0) buf[ret] = 0x00;
  99:..\kronos-c-sdk\src\http/http_client.c **** //    DBG("[%d]{%s}", ret, buf);
 100:..\kronos-c-sdk\src\http/http_client.c ****     return ret;
 101:..\kronos-c-sdk\src\http/http_client.c **** }
 102:..\kronos-c-sdk\src\http/http_client.c **** 
 103:..\kronos-c-sdk\src\http/http_client.c **** static int ssl_write(uint8_t *buf, uint16_t len, void *c) {
 112              		.loc 1 103 0
 113              		.cfi_startproc
 114              	.LVL14:
 115 0000 38B5     		push	{r3, r4, r5, lr}
 116              		.cfi_def_cfa_offset 16
 117              		.cfi_offset 3, -16
 118              		.cfi_offset 4, -12
 119              		.cfi_offset 5, -8
ARM GAS  C:\Users\ddemidov\AppData\Local\Temp\ccbakqUE.s 			page 5


 120              		.cfi_offset 14, -4
 121              		.loc 1 103 0
 122 0002 041C     		mov	r4, r0
 123 0004 0B1C     		mov	r3, r1
 124 0006 151C     		mov	r5, r2
 125              	.LVL15:
 104:..\kronos-c-sdk\src\http/http_client.c ****     http_client_t *cli = (http_client_t *)c;
 105:..\kronos-c-sdk\src\http/http_client.c ****     if ( !len && buf ) len = (uint16_t)strlen((char*)buf);
 126              		.loc 1 105 0
 127 0008 0029     		cmp	r1, #0
 128 000a 04D1     		bne	.L7
 129              		.loc 1 105 0 is_stmt 0 discriminator 1
 130 000c 0028     		cmp	r0, #0
 131 000e 02D0     		beq	.L7
 132              		.loc 1 105 0 discriminator 2
 133 0010 FFF7FEFF 		bl	strlen
 134              	.LVL16:
 135 0014 83B2     		uxth	r3, r0
 136              	.LVL17:
 137              	.L7:
 106:..\kronos-c-sdk\src\http/http_client.c **** //    DBG("[%d]|%s|",len, buf);
 107:..\kronos-c-sdk\src\http/http_client.c ****     int ret = wolfSSL_write(cli->ssl, buf, (int)len);
 138              		.loc 1 107 0 is_stmt 1
 139 0016 6869     		ldr	r0, [r5, #20]
 140 0018 211C     		mov	r1, r4
 141 001a 1A1C     		mov	r2, r3
 142 001c FFF7FEFF 		bl	wolfSSL_write
 143              	.LVL18:
 108:..\kronos-c-sdk\src\http/http_client.c ****     return ret;
 109:..\kronos-c-sdk\src\http/http_client.c **** }
 144              		.loc 1 109 0
 145              		@ sp needed
 146              	.LVL19:
 147              	.LVL20:
 148 0020 38BD     		pop	{r3, r4, r5, pc}
 149              		.cfi_endproc
 150              	.LFE5:
 151              		.size	ssl_write, .-ssl_write
 152              		.section	.text.ssl_read,"ax",%progbits
 153              		.align	1
 154              		.code	16
 155              		.thumb_func
 156              		.type	ssl_read, %function
 157              	ssl_read:
 158              	.LFB4:
  95:..\kronos-c-sdk\src\http/http_client.c ****     http_client_t *cli = (http_client_t *)c;
 159              		.loc 1 95 0
 160              		.cfi_startproc
 161              	.LVL21:
 162 0000 10B5     		push	{r4, lr}
 163              		.cfi_def_cfa_offset 8
 164              		.cfi_offset 4, -8
 165              		.cfi_offset 14, -4
  95:..\kronos-c-sdk\src\http/http_client.c ****     http_client_t *cli = (http_client_t *)c;
 166              		.loc 1 95 0
 167 0002 0B1C     		mov	r3, r1
 168 0004 041C     		mov	r4, r0
ARM GAS  C:\Users\ddemidov\AppData\Local\Temp\ccbakqUE.s 			page 6


  97:..\kronos-c-sdk\src\http/http_client.c ****     if (ret > 0) buf[ret] = 0x00;
 169              		.loc 1 97 0
 170 0006 5069     		ldr	r0, [r2, #20]
 171              	.LVL22:
 172 0008 211C     		mov	r1, r4
 173              	.LVL23:
 174 000a 1A1C     		mov	r2, r3
 175              	.LVL24:
 176 000c FFF7FEFF 		bl	wolfSSL_read
 177              	.LVL25:
  98:..\kronos-c-sdk\src\http/http_client.c **** //    DBG("[%d]{%s}", ret, buf);
 178              		.loc 1 98 0
 179 0010 0028     		cmp	r0, #0
 180 0012 01DD     		ble	.L12
  98:..\kronos-c-sdk\src\http/http_client.c **** //    DBG("[%d]{%s}", ret, buf);
 181              		.loc 1 98 0 is_stmt 0 discriminator 1
 182 0014 0023     		mov	r3, #0
 183 0016 2354     		strb	r3, [r4, r0]
 184              	.L12:
 101:..\kronos-c-sdk\src\http/http_client.c **** 
 185              		.loc 1 101 0 is_stmt 1
 186              		@ sp needed
 187              	.LVL26:
 188 0018 10BD     		pop	{r4, pc}
 189              		.cfi_endproc
 190              	.LFE4:
 191              		.size	ssl_read, .-ssl_read
 192              		.section	.text.send_ssl,"ax",%progbits
 193              		.align	1
 194              		.code	16
 195              		.thumb_func
 196              		.type	send_ssl, %function
 197              	send_ssl:
 198              	.LFB1:
  66:..\kronos-c-sdk\src\http/http_client.c ****     SSP_PARAMETER_NOT_USED(wsl);
 199              		.loc 1 66 0
 200              		.cfi_startproc
 201              	.LVL27:
 202 0000 08B5     		push	{r3, lr}
 203              		.cfi_def_cfa_offset 8
 204              		.cfi_offset 3, -8
 205              		.cfi_offset 14, -4
 206 0002 101E     		sub	r0, r2, #0
 207              	.LVL28:
  69:..\kronos-c-sdk\src\http/http_client.c ****     int sent = 0;
 208              		.loc 1 69 0
 209 0004 07DB     		blt	.L14
 210              	.LVL29:
 211              	.LBB4:
 212              	.LBB5:
  71:..\kronos-c-sdk\src\http/http_client.c **** //    DBG("send ssl %d [%d]", sent, sz);
 213              		.loc 1 71 0
 214 0006 1868     		ldr	r0, [r3]
 215 0008 0023     		mov	r3, #0
 216              	.LVL30:
 217 000a FFF7FEFF 		bl	send
 218              	.LVL31:
ARM GAS  C:\Users\ddemidov\AppData\Local\Temp\ccbakqUE.s 			page 7


  73:..\kronos-c-sdk\src\http/http_client.c ****         return -2;  // IO_ERR_WANT_WRITE
 219              		.loc 1 73 0
 220 000e 0028     		cmp	r0, #0
 221 0010 01D1     		bne	.L14
  74:..\kronos-c-sdk\src\http/http_client.c ****     return sent;
 222              		.loc 1 74 0
 223 0012 0220     		mov	r0, #2
 224              	.LVL32:
 225 0014 4042     		neg	r0, r0
 226              	.LVL33:
 227              	.L14:
 228              	.LBE5:
 229              	.LBE4:
  76:..\kronos-c-sdk\src\http/http_client.c **** #endif
 230              		.loc 1 76 0
 231              		@ sp needed
 232 0016 08BD     		pop	{r3, pc}
 233              		.cfi_endproc
 234              	.LFE1:
 235              		.size	send_ssl, .-send_ssl
 236              		.section	.text.recv_ssl,"ax",%progbits
 237              		.align	1
 238              		.code	16
 239              		.thumb_func
 240              		.type	recv_ssl, %function
 241              	recv_ssl:
 242              	.LFB0:
  53:..\kronos-c-sdk\src\http/http_client.c ****     SSP_PARAMETER_NOT_USED(wsl);
 243              		.loc 1 53 0
 244              		.cfi_startproc
 245              	.LVL34:
 246 0000 08B5     		push	{r3, lr}
 247              		.cfi_def_cfa_offset 8
 248              		.cfi_offset 3, -8
 249              		.cfi_offset 14, -4
 250 0002 101E     		sub	r0, r2, #0
 251              	.LVL35:
  57:..\kronos-c-sdk\src\http/http_client.c ****     int got = 0;
 252              		.loc 1 57 0
 253 0004 07DB     		blt	.L18
 254              	.LVL36:
 255              	.LBB8:
 256              	.LBB9:
  59:..\kronos-c-sdk\src\http/http_client.c **** //    DBG("recv ssl %d [%d]", got, sz);
 257              		.loc 1 59 0
 258 0006 1868     		ldr	r0, [r3]
 259 0008 0023     		mov	r3, #0
 260              	.LVL37:
 261 000a FFF7FEFF 		bl	recv
 262              	.LVL38:
  61:..\kronos-c-sdk\src\http/http_client.c ****     return got;
 263              		.loc 1 61 0
 264 000e 0028     		cmp	r0, #0
 265 0010 01D1     		bne	.L18
 266 0012 0220     		mov	r0, #2
 267              	.LVL39:
 268 0014 4042     		neg	r0, r0
ARM GAS  C:\Users\ddemidov\AppData\Local\Temp\ccbakqUE.s 			page 8


 269              	.LVL40:
 270              	.L18:
 271              	.LBE9:
 272              	.LBE8:
  63:..\kronos-c-sdk\src\http/http_client.c **** 
 273              		.loc 1 63 0
 274              		@ sp needed
 275 0016 08BD     		pop	{r3, pc}
 276              		.cfi_endproc
 277              	.LFE0:
 278              		.size	recv_ssl, .-recv_ssl
 279              		.global	__aeabi_uidiv
 280              		.global	__aeabi_uidivmod
 281              		.section	.text.http_client_init,"ax",%progbits
 282              		.align	1
 283              		.global	http_client_init
 284              		.code	16
 285              		.thumb_func
 286              		.type	http_client_init, %function
 287              	http_client_init:
 288              	.LFB6:
 110:..\kronos-c-sdk\src\http/http_client.c **** 
 111:..\kronos-c-sdk\src\http/http_client.c **** #ifdef DEBUG_WOLFSSL
 112:..\kronos-c-sdk\src\http/http_client.c **** static void cli_wolfSSL_Logging_cb(const int logLevel,
 113:..\kronos-c-sdk\src\http/http_client.c ****                                   const char *const logMessage) {
 114:..\kronos-c-sdk\src\http/http_client.c ****     DBG("[http]:%d (%s)", logLevel, logMessage);
 115:..\kronos-c-sdk\src\http/http_client.c **** }
 116:..\kronos-c-sdk\src\http/http_client.c **** #endif
 117:..\kronos-c-sdk\src\http/http_client.c **** 
 118:..\kronos-c-sdk\src\http/http_client.c **** void http_client_init(http_client_t *cli) {
 289              		.loc 1 118 0
 290              		.cfi_startproc
 291              	.LVL41:
 119:..\kronos-c-sdk\src\http/http_client.c ****     cli->sock = -1;
 292              		.loc 1 119 0
 293 0000 0123     		mov	r3, #1
 118:..\kronos-c-sdk\src\http/http_client.c ****     cli->sock = -1;
 294              		.loc 1 118 0
 295 0002 30B5     		push	{r4, r5, lr}
 296              		.cfi_def_cfa_offset 12
 297              		.cfi_offset 4, -12
 298              		.cfi_offset 5, -8
 299              		.cfi_offset 14, -4
 120:..\kronos-c-sdk\src\http/http_client.c ****     cli->response_code = 0;
 300              		.loc 1 120 0
 301 0004 0025     		mov	r5, #0
 119:..\kronos-c-sdk\src\http/http_client.c ****     cli->sock = -1;
 302              		.loc 1 119 0
 303 0006 5B42     		neg	r3, r3
 304 0008 0360     		str	r3, [r0]
 121:..\kronos-c-sdk\src\http/http_client.c ****     cli->timeout = 5000;
 305              		.loc 1 121 0
 306 000a 154B     		ldr	r3, .L22
 118:..\kronos-c-sdk\src\http/http_client.c ****     cli->sock = -1;
 307              		.loc 1 118 0
 308 000c 041C     		mov	r4, r0
 309              		.loc 1 121 0
ARM GAS  C:\Users\ddemidov\AppData\Local\Temp\ccbakqUE.s 			page 9


 310 000e 4360     		str	r3, [r0, #4]
 122:..\kronos-c-sdk\src\http/http_client.c ****     cli->_r_func = simple_read;
 311              		.loc 1 122 0
 312 0010 144B     		ldr	r3, .L22+4
 118:..\kronos-c-sdk\src\http/http_client.c ****     cli->sock = -1;
 313              		.loc 1 118 0
 314 0012 85B0     		sub	sp, sp, #20
 315              		.cfi_def_cfa_offset 32
 316              		.loc 1 122 0
 317 0014 8361     		str	r3, [r0, #24]
 123:..\kronos-c-sdk\src\http/http_client.c ****     cli->_w_func = simple_write;
 318              		.loc 1 123 0
 319 0016 144B     		ldr	r3, .L22+8
 120:..\kronos-c-sdk\src\http/http_client.c ****     cli->timeout = 5000;
 320              		.loc 1 120 0
 321 0018 8560     		str	r5, [r0, #8]
 322              		.loc 1 123 0
 323 001a C361     		str	r3, [r0, #28]
 124:..\kronos-c-sdk\src\http/http_client.c **** #if !defined(__XCC__)
 125:..\kronos-c-sdk\src\http/http_client.c ****     wolfSSL_Init();
 324              		.loc 1 125 0
 325 001c FFF7FEFF 		bl	wolfSSL_Init
 326              	.LVL42:
 126:..\kronos-c-sdk\src\http/http_client.c ****     cli->method = wolfTLSv1_2_client_method();
 327              		.loc 1 126 0
 328 0020 FFF7FEFF 		bl	wolfTLSv1_2_client_method
 329              	.LVL43:
 127:..\kronos-c-sdk\src\http/http_client.c **** #endif
 128:..\kronos-c-sdk\src\http/http_client.c **** #ifdef DEBUG
 129:..\kronos-c-sdk\src\http/http_client.c **** //    wolfSSL_SetLoggingCb(cli_wolfSSL_Logging_cb);
 130:..\kronos-c-sdk\src\http/http_client.c **** //    wolfSSL_Debugging_ON();
 131:..\kronos-c-sdk\src\http/http_client.c **** #endif
 132:..\kronos-c-sdk\src\http/http_client.c ****     cli->ctx = NULL;
 133:..\kronos-c-sdk\src\http/http_client.c ****     cli->ssl = NULL;
 134:..\kronos-c-sdk\src\http/http_client.c ****     struct timeval tv;
 135:..\kronos-c-sdk\src\http/http_client.c ****     tv.tv_sec = cli->timeout / 1000;
 330              		.loc 1 135 0
 331 0024 FA21     		mov	r1, #250
 132:..\kronos-c-sdk\src\http/http_client.c ****     cli->ssl = NULL;
 332              		.loc 1 132 0
 333 0026 2561     		str	r5, [r4, #16]
 133:..\kronos-c-sdk\src\http/http_client.c ****     struct timeval tv;
 334              		.loc 1 133 0
 335 0028 6561     		str	r5, [r4, #20]
 336              		.loc 1 135 0
 337 002a 6568     		ldr	r5, [r4, #4]
 126:..\kronos-c-sdk\src\http/http_client.c **** #endif
 338              		.loc 1 126 0
 339 002c E060     		str	r0, [r4, #12]
 340              		.loc 1 135 0
 341 002e 8900     		lsl	r1, r1, #2
 342 0030 281C     		mov	r0, r5
 343 0032 FFF7FEFF 		bl	__aeabi_uidiv
 344              	.LVL44:
 136:..\kronos-c-sdk\src\http/http_client.c ****     tv.tv_usec =  ( cli->timeout % 1000 ) * 1000;
 345              		.loc 1 136 0
 346 0036 FA21     		mov	r1, #250
ARM GAS  C:\Users\ddemidov\AppData\Local\Temp\ccbakqUE.s 			page 10


 135:..\kronos-c-sdk\src\http/http_client.c ****     tv.tv_usec =  ( cli->timeout % 1000 ) * 1000;
 347              		.loc 1 135 0
 348 0038 0290     		str	r0, [sp, #8]
 349              		.loc 1 136 0
 350 003a 8900     		lsl	r1, r1, #2
 351 003c 281C     		mov	r0, r5
 352 003e FFF7FEFF 		bl	__aeabi_uidivmod
 353              	.LVL45:
 354 0042 FA23     		mov	r3, #250
 355 0044 9B00     		lsl	r3, r3, #2
 356 0046 5943     		mul	r1, r3
 137:..\kronos-c-sdk\src\http/http_client.c ****     setsockopt(cli->sock, SOL_SOCKET, SO_RCVTIMEO, (char *)&tv, sizeof(struct timeval));
 357              		.loc 1 137 0
 358 0048 0823     		mov	r3, #8
 136:..\kronos-c-sdk\src\http/http_client.c ****     tv.tv_usec =  ( cli->timeout % 1000 ) * 1000;
 359              		.loc 1 136 0
 360 004a 0391     		str	r1, [sp, #12]
 361              		.loc 1 137 0
 362 004c 0093     		str	r3, [sp]
 363 004e 2068     		ldr	r0, [r4]
 364 0050 0649     		ldr	r1, .L22+12
 365 0052 074A     		ldr	r2, .L22+16
 366 0054 02AB     		add	r3, sp, #8
 367 0056 FFF7FEFF 		bl	setsockopt
 368              	.LVL46:
 138:..\kronos-c-sdk\src\http/http_client.c **** }
 369              		.loc 1 138 0
 370 005a 05B0     		add	sp, sp, #20
 371              		@ sp needed
 372              	.LVL47:
 373 005c 30BD     		pop	{r4, r5, pc}
 374              	.L23:
 375 005e C046     		.align	2
 376              	.L22:
 377 0060 88130000 		.word	5000
 378 0064 00000000 		.word	simple_read
 379 0068 00000000 		.word	simple_write
 380 006c FF0F0000 		.word	4095
 381 0070 06100000 		.word	4102
 382              		.cfi_endproc
 383              	.LFE6:
 384              		.size	http_client_init, .-http_client_init
 385              		.section	.text.http_client_free,"ax",%progbits
 386              		.align	1
 387              		.global	http_client_free
 388              		.code	16
 389              		.thumb_func
 390              		.type	http_client_free, %function
 391              	http_client_free:
 392              	.LFB7:
 139:..\kronos-c-sdk\src\http/http_client.c **** 
 140:..\kronos-c-sdk\src\http/http_client.c **** void http_client_free(http_client_t *cli) {
 393              		.loc 1 140 0
 394              		.cfi_startproc
 395              	.LVL48:
 396 0000 10B5     		push	{r4, lr}
 397              		.cfi_def_cfa_offset 8
ARM GAS  C:\Users\ddemidov\AppData\Local\Temp\ccbakqUE.s 			page 11


 398              		.cfi_offset 4, -8
 399              		.cfi_offset 14, -4
 400              		.loc 1 140 0
 401 0002 041C     		mov	r4, r0
 141:..\kronos-c-sdk\src\http/http_client.c **** #if defined(__XCC__)
 142:..\kronos-c-sdk\src\http/http_client.c ****   if (cli->ssl) {
 143:..\kronos-c-sdk\src\http/http_client.c ****     qcom_SSL_shutdown(cli->ssl);
 144:..\kronos-c-sdk\src\http/http_client.c ****     qcom_SSL_ctx_free(cli->ctx);
 145:..\kronos-c-sdk\src\http/http_client.c ****   }
 146:..\kronos-c-sdk\src\http/http_client.c **** #else
 147:..\kronos-c-sdk\src\http/http_client.c ****     wolfSSL_free(cli->ssl);
 402              		.loc 1 147 0
 403 0004 4069     		ldr	r0, [r0, #20]
 404              	.LVL49:
 405 0006 FFF7FEFF 		bl	wolfSSL_free
 406              	.LVL50:
 148:..\kronos-c-sdk\src\http/http_client.c ****     wolfSSL_CTX_free(cli->ctx);
 407              		.loc 1 148 0
 408 000a 2069     		ldr	r0, [r4, #16]
 409 000c FFF7FEFF 		bl	wolfSSL_CTX_free
 410              	.LVL51:
 149:..\kronos-c-sdk\src\http/http_client.c ****     wolfSSL_Cleanup();
 411              		.loc 1 149 0
 412 0010 FFF7FEFF 		bl	wolfSSL_Cleanup
 413              	.LVL52:
 150:..\kronos-c-sdk\src\http/http_client.c **** #endif
 151:..\kronos-c-sdk\src\http/http_client.c ****     cli->ssl = NULL;
 414              		.loc 1 151 0
 415 0014 0023     		mov	r3, #0
 152:..\kronos-c-sdk\src\http/http_client.c ****     cli->ctx = NULL;
 153:..\kronos-c-sdk\src\http/http_client.c **** }
 416              		.loc 1 153 0
 417              		@ sp needed
 151:..\kronos-c-sdk\src\http/http_client.c ****     cli->ctx = NULL;
 418              		.loc 1 151 0
 419 0016 6361     		str	r3, [r4, #20]
 152:..\kronos-c-sdk\src\http/http_client.c ****     cli->ctx = NULL;
 420              		.loc 1 152 0
 421 0018 2361     		str	r3, [r4, #16]
 422              	.LVL53:
 423              		.loc 1 153 0
 424 001a 10BD     		pop	{r4, pc}
 425              		.cfi_endproc
 426              	.LFE7:
 427              		.size	http_client_free, .-http_client_free
 428              		.section	.text.http_client_do,"ax",%progbits
 429              		.align	1
 430              		.global	http_client_do
 431              		.code	16
 432              		.thumb_func
 433              		.type	http_client_do, %function
 434              	http_client_do:
 435              	.LFB12:
 154:..\kronos-c-sdk\src\http/http_client.c **** 
 155:..\kronos-c-sdk\src\http/http_client.c **** static int send_start(http_client_t *cli, http_request_t *req) {
 156:..\kronos-c-sdk\src\http/http_client.c ****     char buf[CHUNK_SIZE];
 157:..\kronos-c-sdk\src\http/http_client.c ****     int ret;
ARM GAS  C:\Users\ddemidov\AppData\Local\Temp\ccbakqUE.s 			page 12


 158:..\kronos-c-sdk\src\http/http_client.c ****     ret = snprintf(buf, CHUNK_SIZE, "%s %s", req->meth, req->uri);
 159:..\kronos-c-sdk\src\http/http_client.c ****     buf[ret] = '\0';
 160:..\kronos-c-sdk\src\http/http_client.c ****     if ( req->query ) {
 161:..\kronos-c-sdk\src\http/http_client.c ****         char queryString[CHUNK_SIZE];
 162:..\kronos-c-sdk\src\http/http_client.c ****         strcpy(queryString, "?");
 163:..\kronos-c-sdk\src\http/http_client.c ****         http_query_t *query = req->query;
 164:..\kronos-c-sdk\src\http/http_client.c ****         while ( query ) {
 165:..\kronos-c-sdk\src\http/http_client.c ****             strcat(queryString, (char*)query->key);
 166:..\kronos-c-sdk\src\http/http_client.c ****             strcat(queryString, "=");
 167:..\kronos-c-sdk\src\http/http_client.c ****             strcat(queryString, (char*)query->value);
 168:..\kronos-c-sdk\src\http/http_client.c ****             strcat(buf, queryString);
 169:..\kronos-c-sdk\src\http/http_client.c ****             strcpy(queryString, "&");
 170:..\kronos-c-sdk\src\http/http_client.c ****             query = query->next;
 171:..\kronos-c-sdk\src\http/http_client.c ****         }
 172:..\kronos-c-sdk\src\http/http_client.c ****     }
 173:..\kronos-c-sdk\src\http/http_client.c ****     strcat(buf, " HTTP/1.1\r\n");
 174:..\kronos-c-sdk\src\http/http_client.c ****     if ( (ret = client_send(buf, 0, cli)) < 0 ) {
 175:..\kronos-c-sdk\src\http/http_client.c ****         return ret;
 176:..\kronos-c-sdk\src\http/http_client.c ****     }
 177:..\kronos-c-sdk\src\http/http_client.c ****     ret = snprintf(buf, CHUNK_SIZE, "Host: %s:%d\r\n", req->host, req->port);
 178:..\kronos-c-sdk\src\http/http_client.c ****     buf[ret] = '\0';
 179:..\kronos-c-sdk\src\http/http_client.c ****     if ( (ret = client_send(buf, 0, cli)) < 0 ) {
 180:..\kronos-c-sdk\src\http/http_client.c ****         return ret;
 181:..\kronos-c-sdk\src\http/http_client.c ****     }
 182:..\kronos-c-sdk\src\http/http_client.c ****     return 0;
 183:..\kronos-c-sdk\src\http/http_client.c **** }
 184:..\kronos-c-sdk\src\http/http_client.c **** 
 185:..\kronos-c-sdk\src\http/http_client.c **** static int send_header(http_client_t *cli, http_request_t *req) {
 186:..\kronos-c-sdk\src\http/http_client.c ****     char buf[CHUNK_SIZE];
 187:..\kronos-c-sdk\src\http/http_client.c ****     int ret;
 188:..\kronos-c-sdk\src\http/http_client.c ****     if ( req->payload.buf && req->payload.size > 0 ) {
 189:..\kronos-c-sdk\src\http/http_client.c ****         if ( req->is_chunked ) {
 190:..\kronos-c-sdk\src\http/http_client.c ****             ret = client_send("Transfer-Encoding: chunked\r\n", 0, cli);
 191:..\kronos-c-sdk\src\http/http_client.c ****         } else {
 192:..\kronos-c-sdk\src\http/http_client.c ****             ret = snprintf(buf, sizeof(buf), "Content-Length: %lu\r\n", (long unsigned int)req->pay
 193:..\kronos-c-sdk\src\http/http_client.c ****             buf[ret] = '\0';
 194:..\kronos-c-sdk\src\http/http_client.c ****             ret = client_send(buf, 0, cli);
 195:..\kronos-c-sdk\src\http/http_client.c ****         }
 196:..\kronos-c-sdk\src\http/http_client.c ****         if ( ret < 0 ) return ret;
 197:..\kronos-c-sdk\src\http/http_client.c ****         ret = snprintf(buf, sizeof(buf), "Content-Type: %s\r\n", req->content_type.value);
 198:..\kronos-c-sdk\src\http/http_client.c ****         buf[ret] = '\0';
 199:..\kronos-c-sdk\src\http/http_client.c ****         if ( (ret = client_send(buf, 0, cli)) < 0 ) return ret;
 200:..\kronos-c-sdk\src\http/http_client.c ****     }
 201:..\kronos-c-sdk\src\http/http_client.c **** 
 202:..\kronos-c-sdk\src\http/http_client.c ****     http_header_t *head = req->header;
 203:..\kronos-c-sdk\src\http/http_client.c ****     while( head ) {
 204:..\kronos-c-sdk\src\http/http_client.c ****         strcpy(buf, (char*)head->key);
 205:..\kronos-c-sdk\src\http/http_client.c ****         strcat(buf, ": ");
 206:..\kronos-c-sdk\src\http/http_client.c ****         strcat(buf, (char*)head->value);
 207:..\kronos-c-sdk\src\http/http_client.c ****         strcat(buf, "\r\n");
 208:..\kronos-c-sdk\src\http/http_client.c ****         if ( (ret = client_send(buf, 0, cli)) < 0 ) return ret;
 209:..\kronos-c-sdk\src\http/http_client.c ****         head = head->next;
 210:..\kronos-c-sdk\src\http/http_client.c ****     }
 211:..\kronos-c-sdk\src\http/http_client.c ****     return client_send((uint8_t*)"\r\n", 0, cli);
 212:..\kronos-c-sdk\src\http/http_client.c **** }
 213:..\kronos-c-sdk\src\http/http_client.c **** 
 214:..\kronos-c-sdk\src\http/http_client.c **** static int send_payload(http_client_t *cli, http_request_t *req) {
ARM GAS  C:\Users\ddemidov\AppData\Local\Temp\ccbakqUE.s 			page 13


 215:..\kronos-c-sdk\src\http/http_client.c ****     if ( req->payload.buf && req->payload.size > 0 ) {
 216:..\kronos-c-sdk\src\http/http_client.c ****         if ( req->is_chunked ) {
 217:..\kronos-c-sdk\src\http/http_client.c ****             char *data = (char*)req->payload.buf;
 218:..\kronos-c-sdk\src\http/http_client.c ****             int len = (int)req->payload.size;
 219:..\kronos-c-sdk\src\http/http_client.c ****             int trData = 0;
 220:..\kronos-c-sdk\src\http/http_client.c ****             while ( len >= 0 ) {
 221:..\kronos-c-sdk\src\http/http_client.c ****                 char buf[6];
 222:..\kronos-c-sdk\src\http/http_client.c ****                 int chunk = len > CHUNK_SIZE ? CHUNK_SIZE : len;
 223:..\kronos-c-sdk\src\http/http_client.c ****                 int ret = sprintf(buf, "%02X\r\n", chunk);
 224:..\kronos-c-sdk\src\http/http_client.c ****                 client_send(buf, ret, cli);
 225:..\kronos-c-sdk\src\http/http_client.c ****                 if ( chunk ) client_send(data + trData, chunk, cli);
 226:..\kronos-c-sdk\src\http/http_client.c ****                 trData += chunk;
 227:..\kronos-c-sdk\src\http/http_client.c ****                 len -= chunk;
 228:..\kronos-c-sdk\src\http/http_client.c ****                 client_send("\r\n", 0, cli);
 229:..\kronos-c-sdk\src\http/http_client.c ****                 if ( !chunk ) break;
 230:..\kronos-c-sdk\src\http/http_client.c ****             }
 231:..\kronos-c-sdk\src\http/http_client.c ****             return 0;
 232:..\kronos-c-sdk\src\http/http_client.c ****         } else {
 233:..\kronos-c-sdk\src\http/http_client.c ****           int ret = client_send(req->payload.buf, req->payload.size, cli);
 234:..\kronos-c-sdk\src\http/http_client.c ****           return ret;
 235:..\kronos-c-sdk\src\http/http_client.c ****         }
 236:..\kronos-c-sdk\src\http/http_client.c ****     }
 237:..\kronos-c-sdk\src\http/http_client.c ****     return -1;
 238:..\kronos-c-sdk\src\http/http_client.c **** }
 239:..\kronos-c-sdk\src\http/http_client.c **** 
 240:..\kronos-c-sdk\src\http/http_client.c **** static int receive_response(http_client_t *cli, http_response_t *res, char *buf, size_t *len) {
 241:..\kronos-c-sdk\src\http/http_client.c ****     int ret;
 242:..\kronos-c-sdk\src\http/http_client.c ****     if ( (ret = client_recv(buf, 20, cli)) < 0 ) return ret;
 243:..\kronos-c-sdk\src\http/http_client.c ****     *len = (size_t)ret;
 244:..\kronos-c-sdk\src\http/http_client.c ****     char* crlfPtr = strstr(buf, "\r\n");
 245:..\kronos-c-sdk\src\http/http_client.c **** 
 246:..\kronos-c-sdk\src\http/http_client.c ****     while( crlfPtr == NULL ) {
 247:..\kronos-c-sdk\src\http/http_client.c ****         if( *len < CHUNK_SIZE - 1 ) {
 248:..\kronos-c-sdk\src\http/http_client.c ****             size_t newTrfLen;
 249:..\kronos-c-sdk\src\http/http_client.c ****             if ( (ret = client_recv(buf + *len, 10, cli)) < 0 ) return ret;
 250:..\kronos-c-sdk\src\http/http_client.c ****             newTrfLen = (size_t)ret;
 251:..\kronos-c-sdk\src\http/http_client.c ****             *len += newTrfLen;
 252:..\kronos-c-sdk\src\http/http_client.c ****         } else {
 253:..\kronos-c-sdk\src\http/http_client.c ****             return -1;
 254:..\kronos-c-sdk\src\http/http_client.c ****         }
 255:..\kronos-c-sdk\src\http/http_client.c ****         crlfPtr = strstr(buf, "\r\n");
 256:..\kronos-c-sdk\src\http/http_client.c ****     }
 257:..\kronos-c-sdk\src\http/http_client.c **** 
 258:..\kronos-c-sdk\src\http/http_client.c ****     int crlfPos = crlfPtr - buf;
 259:..\kronos-c-sdk\src\http/http_client.c ****     if ( crlfPos < 0 && crlfPos > (int)(*len) )
 260:..\kronos-c-sdk\src\http/http_client.c ****         return -1;
 261:..\kronos-c-sdk\src\http/http_client.c ****     buf[crlfPos] = '\0';
 262:..\kronos-c-sdk\src\http/http_client.c ****     DBG("resp: {%s}", buf);
 263:..\kronos-c-sdk\src\http/http_client.c **** 
 264:..\kronos-c-sdk\src\http/http_client.c ****     if( sscanf(buf, "HTTP/1.1 %d", &res->m_httpResponseCode) != 1 ) {
 265:..\kronos-c-sdk\src\http/http_client.c ****         DBG("Not a correct HTTP answer : %s\n", buf);
 266:..\kronos-c-sdk\src\http/http_client.c ****         return -1;
 267:..\kronos-c-sdk\src\http/http_client.c ****     }
 268:..\kronos-c-sdk\src\http/http_client.c **** 
 269:..\kronos-c-sdk\src\http/http_client.c ****     if ( *len < (size_t)crlfPos + 2 ) {
 270:..\kronos-c-sdk\src\http/http_client.c ****         DBG("receive_response memmove warning [%08x] %d, %d", (int)buf, crlfPos, *len);
 271:..\kronos-c-sdk\src\http/http_client.c ****     }
ARM GAS  C:\Users\ddemidov\AppData\Local\Temp\ccbakqUE.s 			page 14


 272:..\kronos-c-sdk\src\http/http_client.c ****     memmove(buf, buf+crlfPos+2, *len - (size_t)(crlfPos + 2) + 1 ); //Be sure to move NULL-terminat
 273:..\kronos-c-sdk\src\http/http_client.c ****     *len -= (size_t)(crlfPos + 2);
 274:..\kronos-c-sdk\src\http/http_client.c **** 
 275:..\kronos-c-sdk\src\http/http_client.c ****     if( (res->m_httpResponseCode < 200) || (res->m_httpResponseCode >= 300) ) {
 276:..\kronos-c-sdk\src\http/http_client.c ****         //Did not return a 2xx code; TODO fetch headers/(&data?) anyway and implement a mean of wri
 277:..\kronos-c-sdk\src\http/http_client.c ****         DBG("Response code %d", res->m_httpResponseCode);
 278:..\kronos-c-sdk\src\http/http_client.c ****         DBG("Protocol error");
 279:..\kronos-c-sdk\src\http/http_client.c ****         return -1;
 280:..\kronos-c-sdk\src\http/http_client.c ****     }
 281:..\kronos-c-sdk\src\http/http_client.c ****     cli->response_code = res->m_httpResponseCode;
 282:..\kronos-c-sdk\src\http/http_client.c ****     return 0;
 283:..\kronos-c-sdk\src\http/http_client.c **** }
 284:..\kronos-c-sdk\src\http/http_client.c **** 
 285:..\kronos-c-sdk\src\http/http_client.c **** int http_client_do(http_client_t *cli, http_request_t *req, http_response_t *res) {
 436              		.loc 1 285 0
 437              		.cfi_startproc
 438              	.LVL54:
 439 0000 F0B5     		push	{r4, r5, r6, r7, lr}
 440              		.cfi_def_cfa_offset 20
 441              		.cfi_offset 4, -20
 442              		.cfi_offset 5, -16
 443              		.cfi_offset 6, -12
 444              		.cfi_offset 7, -8
 445              		.cfi_offset 14, -4
 446 0002 D34C     		ldr	r4, .L143
 447 0004 171C     		mov	r7, r2
 448 0006 A544     		add	sp, sp, r4
 449              		.cfi_def_cfa_offset 848
 450              		.loc 1 285 0
 451 0008 0391     		str	r1, [sp, #12]
 452 000a 041C     		mov	r4, r0
 286:..\kronos-c-sdk\src\http/http_client.c ****     int ret;
 287:..\kronos-c-sdk\src\http/http_client.c ****     memset(res, 0x00, sizeof(http_response_t));
 453              		.loc 1 287 0
 454 000c 0021     		mov	r1, #0
 455              	.LVL55:
 456 000e 101C     		mov	r0, r2
 457              	.LVL56:
 458 0010 2022     		mov	r2, #32
 459              	.LVL57:
 460 0012 FFF7FEFF 		bl	memset
 461              	.LVL58:
 288:..\kronos-c-sdk\src\http/http_client.c ****     ret = socket(PF_INET, SOCK_STREAM, IPPROTO_TCP);
 462              		.loc 1 288 0
 463 0016 0220     		mov	r0, #2
 464 0018 0121     		mov	r1, #1
 465 001a 0622     		mov	r2, #6
 466 001c FFF7FEFF 		bl	socket
 467              	.LVL59:
 468 0020 0290     		str	r0, [sp, #8]
 289:..\kronos-c-sdk\src\http/http_client.c ****     if ( ret < 0 ) return ret;
 469              		.loc 1 289 0
 470 0022 0028     		cmp	r0, #0
 471 0024 00DA     		bge	.LCB432
 472 0026 2EE3     		b	.L131	@long jump
 473              	.LCB432:
 290:..\kronos-c-sdk\src\http/http_client.c ****     cli->sock = ret;
ARM GAS  C:\Users\ddemidov\AppData\Local\Temp\ccbakqUE.s 			page 15


 291:..\kronos-c-sdk\src\http/http_client.c ****     struct sockaddr_in serv;
 292:..\kronos-c-sdk\src\http/http_client.c ****     struct hostent *serv_resolve;
 293:..\kronos-c-sdk\src\http/http_client.c ****     serv_resolve = gethostbyname((char*)req->host);
 474              		.loc 1 293 0
 475 0028 039E     		ldr	r6, [sp, #12]
 290:..\kronos-c-sdk\src\http/http_client.c ****     cli->sock = ret;
 476              		.loc 1 290 0
 477 002a 2060     		str	r0, [r4]
 478              		.loc 1 293 0
 479 002c 0836     		add	r6, r6, #8
 480 002e 301C     		mov	r0, r6
 481              	.LVL60:
 482 0030 FFF7FEFF 		bl	gethostbyname
 483              	.LVL61:
 484 0034 051E     		sub	r5, r0, #0
 485              	.LVL62:
 294:..\kronos-c-sdk\src\http/http_client.c ****     if (serv_resolve == NULL) {
 295:..\kronos-c-sdk\src\http/http_client.c ****         DBG("ERROR, no such host");
 486              		.loc 1 295 0
 487 0036 C748     		ldr	r0, .L143+4
 488              	.LVL63:
 294:..\kronos-c-sdk\src\http/http_client.c ****     if (serv_resolve == NULL) {
 489              		.loc 1 294 0
 490 0038 00D1     		bne	.LCB446
 491 003a C3E0     		b	.L139	@long jump
 492              	.LCB446:
 296:..\kronos-c-sdk\src\http/http_client.c ****         return -1;
 297:..\kronos-c-sdk\src\http/http_client.c ****     }
 298:..\kronos-c-sdk\src\http/http_client.c ****     memset(&serv, 0, sizeof(serv));
 493              		.loc 1 298 0
 494 003c 0021     		mov	r1, #0
 495 003e 1022     		mov	r2, #16
 496 0040 0AA8     		add	r0, sp, #40
 497 0042 FFF7FEFF 		bl	memset
 498              	.LVL64:
 299:..\kronos-c-sdk\src\http/http_client.c ****     serv.sin_family = PF_INET;
 499              		.loc 1 299 0
 500 0046 0223     		mov	r3, #2
 501 0048 04AA     		add	r2, sp, #16
 502 004a 5376     		strb	r3, [r2, #25]
 300:..\kronos-c-sdk\src\http/http_client.c ****     bcopy((char *)serv_resolve->h_addr,
 503              		.loc 1 300 0
 504 004c 0BA9     		add	r1, sp, #44
 505 004e EA68     		ldr	r2, [r5, #12]
 506 0050 6869     		ldr	r0, [r5, #20]
 507 0052 FFF7FEFF 		bl	bcopy
 508              	.LVL65:
 301:..\kronos-c-sdk\src\http/http_client.c ****             (char *)&serv.sin_addr.s_addr,
 302:..\kronos-c-sdk\src\http/http_client.c ****             (size_t)serv_resolve->h_length);
 303:..\kronos-c-sdk\src\http/http_client.c ****     serv.sin_port = htons(req->port);
 509              		.loc 1 303 0
 510 0056 039B     		ldr	r3, [sp, #12]
 511 0058 D033     		add	r3, r3, #208
 512 005a 0293     		str	r3, [sp, #8]
 513              	.LVL66:
 514 005c 1888     		ldrh	r0, [r3]
 515 005e FFF7FEFF 		bl	_htons
ARM GAS  C:\Users\ddemidov\AppData\Local\Temp\ccbakqUE.s 			page 16


 516              	.LVL67:
 517 0062 04AB     		add	r3, sp, #16
 518 0064 5883     		strh	r0, [r3, #26]
 304:..\kronos-c-sdk\src\http/http_client.c **** //    serv.sin_addr.s_addr = serv.sin_addr.s_addr;
 305:..\kronos-c-sdk\src\http/http_client.c **** 
 306:..\kronos-c-sdk\src\http/http_client.c ****     struct timeval tv;
 307:..\kronos-c-sdk\src\http/http_client.c ****     tv.tv_sec = 10;
 519              		.loc 1 307 0
 520 0066 0A23     		mov	r3, #10
 521 0068 0893     		str	r3, [sp, #32]
 308:..\kronos-c-sdk\src\http/http_client.c ****     tv.tv_usec = 0;
 522              		.loc 1 308 0
 523 006a 0023     		mov	r3, #0
 524 006c 0993     		str	r3, [sp, #36]
 309:..\kronos-c-sdk\src\http/http_client.c ****     setsockopt(cli->sock, SOL_SOCKET, SO_RCVTIMEO, (char *)&tv, sizeof(struct timeval));
 525              		.loc 1 309 0
 526 006e 0833     		add	r3, r3, #8
 527 0070 0093     		str	r3, [sp]
 528 0072 B949     		ldr	r1, .L143+8
 529 0074 B94A     		ldr	r2, .L143+12
 530 0076 2068     		ldr	r0, [r4]
 531 0078 08AB     		add	r3, sp, #32
 532 007a FFF7FEFF 		bl	setsockopt
 533              	.LVL68:
 310:..\kronos-c-sdk\src\http/http_client.c **** 
 311:..\kronos-c-sdk\src\http/http_client.c ****     ret = connect(cli->sock, (struct sockaddr*)&serv, sizeof(serv));
 534              		.loc 1 311 0
 535 007e 2068     		ldr	r0, [r4]
 536 0080 0AA9     		add	r1, sp, #40
 537 0082 1022     		mov	r2, #16
 538 0084 FFF7FEFF 		bl	connect
 539              	.LVL69:
 312:..\kronos-c-sdk\src\http/http_client.c ****     if ( ret < 0 ) {
 540              		.loc 1 312 0
 541 0088 0028     		cmp	r0, #0
 542 008a 01DA     		bge	.L28
 543              	.LBB39:
 313:..\kronos-c-sdk\src\http/http_client.c ****         DBG("connect fail");
 544              		.loc 1 313 0
 545 008c B448     		ldr	r0, .L143+16
 546              	.LVL70:
 547 008e 69E2     		b	.L137
 548              	.LVL71:
 549              	.L28:
 550              	.LBE39:
 314:..\kronos-c-sdk\src\http/http_client.c ****         soc_close(cli->sock);
 315:..\kronos-c-sdk\src\http/http_client.c ****         return -1;
 316:..\kronos-c-sdk\src\http/http_client.c ****     }
 317:..\kronos-c-sdk\src\http/http_client.c ****     DBG("connect done");
 551              		.loc 1 317 0
 552 0090 B448     		ldr	r0, .L143+20
 553              	.LVL72:
 554 0092 FFF7FEFF 		bl	dbg_line
 555              	.LVL73:
 318:..\kronos-c-sdk\src\http/http_client.c **** 
 319:..\kronos-c-sdk\src\http/http_client.c ****     if ( req->is_cipher ) {
 556              		.loc 1 319 0
ARM GAS  C:\Users\ddemidov\AppData\Local\Temp\ccbakqUE.s 			page 17


 557 0096 039B     		ldr	r3, [sp, #12]
 558 0098 D833     		add	r3, r3, #216
 559 009a 1B68     		ldr	r3, [r3]
 560 009c 002B     		cmp	r3, #0
 561 009e 35D0     		beq	.L29
 562              	.LBB40:
 320:..\kronos-c-sdk\src\http/http_client.c **** #if defined(__XCC__)
 321:..\kronos-c-sdk\src\http/http_client.c ****       cli->ctx = qcom_SSL_ctx_new(SSL_CLIENT, SSL_INBUF_SIZE, SSL_OUTBUF_SIZE, 0);
 322:..\kronos-c-sdk\src\http/http_client.c **** #else
 323:..\kronos-c-sdk\src\http/http_client.c ****       cli->ctx = wolfSSL_CTX_new(cli->method);
 563              		.loc 1 323 0
 564 00a0 E068     		ldr	r0, [r4, #12]
 565 00a2 FFF7FEFF 		bl	wolfSSL_CTX_new
 566              	.LVL74:
 567 00a6 2061     		str	r0, [r4, #16]
 324:..\kronos-c-sdk\src\http/http_client.c **** #endif
 325:..\kronos-c-sdk\src\http/http_client.c ****         if ( cli->ctx == NULL) {
 568              		.loc 1 325 0
 569 00a8 0028     		cmp	r0, #0
 570 00aa 02D1     		bne	.L30
 326:..\kronos-c-sdk\src\http/http_client.c ****             DBG("unable to get ctx");
 571              		.loc 1 326 0
 572 00ac AE48     		ldr	r0, .L143+24
 573 00ae FFF7FEFF 		bl	dbg_line
 574              	.LVL75:
 575              	.L30:
 327:..\kronos-c-sdk\src\http/http_client.c ****         }
 328:..\kronos-c-sdk\src\http/http_client.c **** #if defined(__XCC__)
 329:..\kronos-c-sdk\src\http/http_client.c ****         cli->ssl = qcom_SSL_new(cli->ctx);
 330:..\kronos-c-sdk\src\http/http_client.c ****         qcom_SSL_set_fd(cli->ssl, cli->sock);
 331:..\kronos-c-sdk\src\http/http_client.c **** #else
 332:..\kronos-c-sdk\src\http/http_client.c ****         wolfSSL_CTX_set_verify(cli->ctx, SSL_VERIFY_NONE, 0);
 576              		.loc 1 332 0
 577 00b2 0021     		mov	r1, #0
 578 00b4 2069     		ldr	r0, [r4, #16]
 579 00b6 0A1C     		mov	r2, r1
 580 00b8 FFF7FEFF 		bl	wolfSSL_CTX_set_verify
 581              	.LVL76:
 333:..\kronos-c-sdk\src\http/http_client.c ****         wolfSSL_SetIORecv(cli->ctx, recv_ssl);
 582              		.loc 1 333 0
 583 00bc 2069     		ldr	r0, [r4, #16]
 584 00be AB49     		ldr	r1, .L143+28
 585 00c0 FFF7FEFF 		bl	wolfSSL_SetIORecv
 586              	.LVL77:
 334:..\kronos-c-sdk\src\http/http_client.c ****         wolfSSL_SetIOSend(cli->ctx, send_ssl);
 587              		.loc 1 334 0
 588 00c4 2069     		ldr	r0, [r4, #16]
 589 00c6 AA49     		ldr	r1, .L143+32
 590 00c8 FFF7FEFF 		bl	wolfSSL_SetIOSend
 591              	.LVL78:
 335:..\kronos-c-sdk\src\http/http_client.c **** 
 336:..\kronos-c-sdk\src\http/http_client.c ****         cli->ssl = wolfSSL_new(cli->ctx);
 592              		.loc 1 336 0
 593 00cc 2069     		ldr	r0, [r4, #16]
 594 00ce FFF7FEFF 		bl	wolfSSL_new
 595              	.LVL79:
 596 00d2 6061     		str	r0, [r4, #20]
ARM GAS  C:\Users\ddemidov\AppData\Local\Temp\ccbakqUE.s 			page 18


 337:..\kronos-c-sdk\src\http/http_client.c **** #endif
 338:..\kronos-c-sdk\src\http/http_client.c ****         if (cli->ssl == NULL) {
 597              		.loc 1 338 0
 598 00d4 0028     		cmp	r0, #0
 599 00d6 02D1     		bne	.L31
 339:..\kronos-c-sdk\src\http/http_client.c ****             DBG("oops, bad SSL ptr");
 600              		.loc 1 339 0
 601 00d8 A648     		ldr	r0, .L143+36
 602 00da FFF7FEFF 		bl	dbg_line
 603              	.LVL80:
 604              	.L31:
 340:..\kronos-c-sdk\src\http/http_client.c ****         }
 341:..\kronos-c-sdk\src\http/http_client.c **** #if !defined(__XCC__)
 342:..\kronos-c-sdk\src\http/http_client.c ****         wolfSSL_SetIOReadCtx(cli->ssl, (void*)cli);
 605              		.loc 1 342 0
 606 00de 6069     		ldr	r0, [r4, #20]
 607 00e0 211C     		mov	r1, r4
 608 00e2 FFF7FEFF 		bl	wolfSSL_SetIOReadCtx
 609              	.LVL81:
 343:..\kronos-c-sdk\src\http/http_client.c ****         wolfSSL_SetIOWriteCtx(cli->ssl, (void*)cli);
 610              		.loc 1 343 0
 611 00e6 6069     		ldr	r0, [r4, #20]
 612 00e8 211C     		mov	r1, r4
 613 00ea FFF7FEFF 		bl	wolfSSL_SetIOWriteCtx
 614              	.LVL82:
 344:..\kronos-c-sdk\src\http/http_client.c **** #endif
 345:..\kronos-c-sdk\src\http/http_client.c **** 
 346:..\kronos-c-sdk\src\http/http_client.c **** //        wolfSSL_Debugging_ON();
 347:..\kronos-c-sdk\src\http/http_client.c **** #if defined(__XCC__)
 348:..\kronos-c-sdk\src\http/http_client.c ****         int err = qcom_SSL_connect(cli->ssl);
 349:..\kronos-c-sdk\src\http/http_client.c **** #else
 350:..\kronos-c-sdk\src\http/http_client.c ****         int err = wolfSSL_connect(cli->ssl);
 615              		.loc 1 350 0
 616 00ee 6069     		ldr	r0, [r4, #20]
 617 00f0 FFF7FEFF 		bl	wolfSSL_connect
 618              	.LVL83:
 351:..\kronos-c-sdk\src\http/http_client.c **** #endif
 352:..\kronos-c-sdk\src\http/http_client.c ****         if (err != SSL_SUCCESS) {
 619              		.loc 1 352 0
 620 00f4 0128     		cmp	r0, #1
 621 00f6 02D0     		beq	.L32
 353:..\kronos-c-sdk\src\http/http_client.c ****             DBG("SSL connect fail");
 622              		.loc 1 353 0
 623 00f8 9F48     		ldr	r0, .L143+40
 624              	.LVL84:
 625 00fa FFF7FEFF 		bl	dbg_line
 626              	.LVL85:
 627              	.L32:
 354:..\kronos-c-sdk\src\http/http_client.c ****         }
 355:..\kronos-c-sdk\src\http/http_client.c ****         DBG("SSL connect done");
 628              		.loc 1 355 0
 629 00fe 9F48     		ldr	r0, .L143+44
 630 0100 FFF7FEFF 		bl	dbg_line
 631              	.LVL86:
 356:..\kronos-c-sdk\src\http/http_client.c **** //        wolfSSL_Debugging_ON();
 357:..\kronos-c-sdk\src\http/http_client.c ****         cli->_r_func = ssl_read;
 632              		.loc 1 357 0
ARM GAS  C:\Users\ddemidov\AppData\Local\Temp\ccbakqUE.s 			page 19


 633 0104 9E4B     		ldr	r3, .L143+48
 634 0106 A361     		str	r3, [r4, #24]
 358:..\kronos-c-sdk\src\http/http_client.c ****         cli->_w_func = ssl_write;
 635              		.loc 1 358 0
 636 0108 9E4B     		ldr	r3, .L143+52
 637 010a 02E0     		b	.L132
 638              	.L29:
 639              	.LBE40:
 359:..\kronos-c-sdk\src\http/http_client.c ****     } else {
 360:..\kronos-c-sdk\src\http/http_client.c ****         cli->_r_func = simple_read;
 640              		.loc 1 360 0
 641 010c 9E4B     		ldr	r3, .L143+56
 642 010e A361     		str	r3, [r4, #24]
 361:..\kronos-c-sdk\src\http/http_client.c ****         cli->_w_func = simple_write;
 643              		.loc 1 361 0
 644 0110 9E4B     		ldr	r3, .L143+60
 645              	.L132:
 646              	.LBB41:
 647              	.LBB42:
 158:..\kronos-c-sdk\src\http/http_client.c ****     buf[ret] = '\0';
 648              		.loc 1 158 0
 649 0112 8021     		mov	r1, #128
 650              	.LBE42:
 651              	.LBE41:
 652              		.loc 1 361 0
 653 0114 E361     		str	r3, [r4, #28]
 654              	.LVL87:
 655              	.LBB45:
 656              	.LBB44:
 158:..\kronos-c-sdk\src\http/http_client.c ****     buf[ret] = '\0';
 657              		.loc 1 158 0
 658 0116 039B     		ldr	r3, [sp, #12]
 659 0118 4EAD     		add	r5, sp, #312
 660              	.LVL88:
 661 011a 6C33     		add	r3, r3, #108
 662 011c 0093     		str	r3, [sp]
 663 011e 039B     		ldr	r3, [sp, #12]
 664 0120 281C     		mov	r0, r5
 665 0122 1B68     		ldr	r3, [r3]
 666 0124 4900     		lsl	r1, r1, #1
 667 0126 9A4A     		ldr	r2, .L143+64
 668 0128 FFF7FEFF 		bl	snprintf
 669              	.LVL89:
 159:..\kronos-c-sdk\src\http/http_client.c ****     if ( req->query ) {
 670              		.loc 1 159 0
 671 012c 0023     		mov	r3, #0
 672 012e 2B54     		strb	r3, [r5, r0]
 160:..\kronos-c-sdk\src\http/http_client.c ****         char queryString[CHUNK_SIZE];
 673              		.loc 1 160 0
 674 0130 039B     		ldr	r3, [sp, #12]
 675 0132 F033     		add	r3, r3, #240
 676 0134 1D68     		ldr	r5, [r3]
 677 0136 002D     		cmp	r5, #0
 678 0138 1AD0     		beq	.L34
 679              	.LBB43:
 162:..\kronos-c-sdk\src\http/http_client.c ****         http_query_t *query = req->query;
 680              		.loc 1 162 0
ARM GAS  C:\Users\ddemidov\AppData\Local\Temp\ccbakqUE.s 			page 20


 681 013a 8EA8     		add	r0, sp, #568
 682              	.LVL90:
 683 013c 9549     		ldr	r1, .L143+68
 684 013e FFF7FEFF 		bl	strcpy
 685              	.LVL91:
 686              	.L35:
 165:..\kronos-c-sdk\src\http/http_client.c ****             strcat(queryString, "=");
 687              		.loc 1 165 0
 688 0142 2968     		ldr	r1, [r5]
 689 0144 8EA8     		add	r0, sp, #568
 690 0146 FFF7FEFF 		bl	strcat
 691              	.LVL92:
 166:..\kronos-c-sdk\src\http/http_client.c ****             strcat(queryString, (char*)query->value);
 692              		.loc 1 166 0
 693 014a 9349     		ldr	r1, .L143+72
 694 014c 8EA8     		add	r0, sp, #568
 695 014e FFF7FEFF 		bl	strcat
 696              	.LVL93:
 167:..\kronos-c-sdk\src\http/http_client.c ****             strcat(buf, queryString);
 697              		.loc 1 167 0
 698 0152 6968     		ldr	r1, [r5, #4]
 699 0154 8EA8     		add	r0, sp, #568
 700 0156 FFF7FEFF 		bl	strcat
 701              	.LVL94:
 168:..\kronos-c-sdk\src\http/http_client.c ****             strcpy(queryString, "&");
 702              		.loc 1 168 0
 703 015a 8EA9     		add	r1, sp, #568
 704 015c 4EA8     		add	r0, sp, #312
 705 015e FFF7FEFF 		bl	strcat
 706              	.LVL95:
 169:..\kronos-c-sdk\src\http/http_client.c ****             query = query->next;
 707              		.loc 1 169 0
 708 0162 8EA8     		add	r0, sp, #568
 709 0164 8D49     		ldr	r1, .L143+76
 710 0166 FFF7FEFF 		bl	strcpy
 711              	.LVL96:
 170:..\kronos-c-sdk\src\http/http_client.c ****         }
 712              		.loc 1 170 0
 713 016a AD68     		ldr	r5, [r5, #8]
 714              	.LVL97:
 164:..\kronos-c-sdk\src\http/http_client.c ****             strcat(queryString, (char*)query->key);
 715              		.loc 1 164 0
 716 016c 002D     		cmp	r5, #0
 717 016e E8D1     		bne	.L35
 718              	.LVL98:
 719              	.L34:
 720              	.LBE43:
 173:..\kronos-c-sdk\src\http/http_client.c ****     if ( (ret = client_send(buf, 0, cli)) < 0 ) {
 721              		.loc 1 173 0
 722 0170 4EAD     		add	r5, sp, #312
 723 0172 8B49     		ldr	r1, .L143+80
 724 0174 281C     		mov	r0, r5
 725 0176 FFF7FEFF 		bl	strcat
 726              	.LVL99:
 174:..\kronos-c-sdk\src\http/http_client.c ****         return ret;
 727              		.loc 1 174 0
 728 017a 281C     		mov	r0, r5
ARM GAS  C:\Users\ddemidov\AppData\Local\Temp\ccbakqUE.s 			page 21


 729 017c 0021     		mov	r1, #0
 730 017e 221C     		mov	r2, r4
 731 0180 E369     		ldr	r3, [r4, #28]
 732 0182 9847     		blx	r3
 733              	.LVL100:
 734 0184 0028     		cmp	r0, #0
 735 0186 15DB     		blt	.L99
 177:..\kronos-c-sdk\src\http/http_client.c ****     buf[ret] = '\0';
 736              		.loc 1 177 0
 737 0188 8021     		mov	r1, #128
 738 018a 029B     		ldr	r3, [sp, #8]
 739 018c 4900     		lsl	r1, r1, #1
 740 018e 1B88     		ldrh	r3, [r3]
 741 0190 844A     		ldr	r2, .L143+84
 742 0192 0093     		str	r3, [sp]
 743 0194 281C     		mov	r0, r5
 744              	.LVL101:
 745 0196 331C     		mov	r3, r6
 746 0198 FFF7FEFF 		bl	snprintf
 747              	.LVL102:
 178:..\kronos-c-sdk\src\http/http_client.c ****     if ( (ret = client_send(buf, 0, cli)) < 0 ) {
 748              		.loc 1 178 0
 749 019c 0026     		mov	r6, #0
 179:..\kronos-c-sdk\src\http/http_client.c ****         return ret;
 750              		.loc 1 179 0
 751 019e 221C     		mov	r2, r4
 178:..\kronos-c-sdk\src\http/http_client.c ****     if ( (ret = client_send(buf, 0, cli)) < 0 ) {
 752              		.loc 1 178 0
 753 01a0 2E54     		strb	r6, [r5, r0]
 179:..\kronos-c-sdk\src\http/http_client.c ****         return ret;
 754              		.loc 1 179 0
 755 01a2 311C     		mov	r1, r6
 756 01a4 281C     		mov	r0, r5
 757              	.LVL103:
 758 01a6 E369     		ldr	r3, [r4, #28]
 759 01a8 9847     		blx	r3
 760              	.LVL104:
 761 01aa 0290     		str	r0, [sp, #8]
 762 01ac B042     		cmp	r0, r6
 763 01ae 02DD     		ble	.L36
 764 01b0 0296     		str	r6, [sp, #8]
 765 01b2 0AE0     		b	.L38
 766              	.LVL105:
 767              	.L99:
 174:..\kronos-c-sdk\src\http/http_client.c ****         return ret;
 768              		.loc 1 174 0
 769 01b4 0290     		str	r0, [sp, #8]
 770              	.LVL106:
 771              	.L36:
 772              	.LBE44:
 773              	.LBE45:
 362:..\kronos-c-sdk\src\http/http_client.c ****     }
 363:..\kronos-c-sdk\src\http/http_client.c **** 
 364:..\kronos-c-sdk\src\http/http_client.c ****     if ( send_start(cli, req) < 0 ) {
 774              		.loc 1 364 0
 775 01b6 029B     		ldr	r3, [sp, #8]
 776 01b8 002B     		cmp	r3, #0
ARM GAS  C:\Users\ddemidov\AppData\Local\Temp\ccbakqUE.s 			page 22


 777 01ba 06D0     		beq	.L38
 778              	.LBB46:
 365:..\kronos-c-sdk\src\http/http_client.c ****         soc_close(cli->sock);
 779              		.loc 1 365 0
 780 01bc 2068     		ldr	r0, [r4]
 781 01be FFF7FEFF 		bl	soc_close
 782              	.LVL107:
 366:..\kronos-c-sdk\src\http/http_client.c ****         DBG("send start fail");
 783              		.loc 1 366 0
 784 01c2 7948     		ldr	r0, .L143+88
 785              	.LVL108:
 786              	.L139:
 787 01c4 FFF7FEFF 		bl	dbg_line
 788              	.LVL109:
 789 01c8 5AE2     		b	.L135
 790              	.LVL110:
 791              	.L38:
 792              	.LBE46:
 793              	.LBB47:
 794              	.LBB48:
 188:..\kronos-c-sdk\src\http/http_client.c ****         if ( req->is_chunked ) {
 795              		.loc 1 188 0
 796 01ca 039B     		ldr	r3, [sp, #12]
 797 01cc F833     		add	r3, r3, #248
 798 01ce 1B68     		ldr	r3, [r3]
 799 01d0 002B     		cmp	r3, #0
 800 01d2 03D1     		bne	.L39
 801              	.L41:
 202:..\kronos-c-sdk\src\http/http_client.c ****     while( head ) {
 802              		.loc 1 202 0
 803 01d4 039B     		ldr	r3, [sp, #12]
 804 01d6 E033     		add	r3, r3, #224
 805 01d8 1D68     		ldr	r5, [r3]
 806              	.LVL111:
 807 01da 48E0     		b	.L40
 808              	.LVL112:
 809              	.L39:
 188:..\kronos-c-sdk\src\http/http_client.c ****         if ( req->is_chunked ) {
 810              		.loc 1 188 0
 811 01dc 039B     		ldr	r3, [sp, #12]
 812 01de F433     		add	r3, r3, #244
 813 01e0 1B68     		ldr	r3, [r3]
 814 01e2 002B     		cmp	r3, #0
 815 01e4 F6D0     		beq	.L41
 816              	.LBB49:
 189:..\kronos-c-sdk\src\http/http_client.c ****             ret = client_send("Transfer-Encoding: chunked\r\n", 0, cli);
 817              		.loc 1 189 0
 818 01e6 039A     		ldr	r2, [sp, #12]
 819 01e8 DC32     		add	r2, r2, #220
 820 01ea 1668     		ldr	r6, [r2]
 821 01ec 002E     		cmp	r6, #0
 822 01ee 02D0     		beq	.L42
 190:..\kronos-c-sdk\src\http/http_client.c ****         } else {
 823              		.loc 1 190 0
 824 01f0 6E48     		ldr	r0, .L143+92
 825 01f2 0021     		mov	r1, #0
 826 01f4 0BE0     		b	.L133
ARM GAS  C:\Users\ddemidov\AppData\Local\Temp\ccbakqUE.s 			page 23


 827              	.L42:
 828              	.LBB50:
 192:..\kronos-c-sdk\src\http/http_client.c ****             buf[ret] = '\0';
 829              		.loc 1 192 0
 830 01f6 8021     		mov	r1, #128
 831 01f8 8EAD     		add	r5, sp, #568
 832 01fa 4900     		lsl	r1, r1, #1
 833 01fc 281C     		mov	r0, r5
 834 01fe 6C4A     		ldr	r2, .L143+96
 835 0200 FFF7FEFF 		bl	snprintf
 836              	.LVL113:
 193:..\kronos-c-sdk\src\http/http_client.c ****             ret = client_send(buf, 0, cli);
 837              		.loc 1 193 0
 838 0204 6B46     		mov	r3, sp
 839 0206 1B7A     		ldrb	r3, [r3, #8]
 194:..\kronos-c-sdk\src\http/http_client.c ****         }
 840              		.loc 1 194 0
 841 0208 311C     		mov	r1, r6
 193:..\kronos-c-sdk\src\http/http_client.c ****             ret = client_send(buf, 0, cli);
 842              		.loc 1 193 0
 843 020a 2B54     		strb	r3, [r5, r0]
 194:..\kronos-c-sdk\src\http/http_client.c ****         }
 844              		.loc 1 194 0
 845 020c 281C     		mov	r0, r5
 846              	.LVL114:
 847              	.L133:
 848 020e E369     		ldr	r3, [r4, #28]
 849 0210 221C     		mov	r2, r4
 850 0212 9847     		blx	r3
 851              	.LVL115:
 852              	.LBE50:
 196:..\kronos-c-sdk\src\http/http_client.c ****         ret = snprintf(buf, sizeof(buf), "Content-Type: %s\r\n", req->content_type.value);
 853              		.loc 1 196 0
 854 0214 031E     		sub	r3, r0, #0
 855 0216 32DB     		blt	.L44
 197:..\kronos-c-sdk\src\http/http_client.c ****         buf[ret] = '\0';
 856              		.loc 1 197 0
 857 0218 8021     		mov	r1, #128
 858 021a 039B     		ldr	r3, [sp, #12]
 859 021c 8EAD     		add	r5, sp, #568
 860 021e E833     		add	r3, r3, #232
 861 0220 4900     		lsl	r1, r1, #1
 862 0222 644A     		ldr	r2, .L143+100
 863 0224 1B68     		ldr	r3, [r3]
 864 0226 281C     		mov	r0, r5
 865              	.LVL116:
 866 0228 FFF7FEFF 		bl	snprintf
 867              	.LVL117:
 198:..\kronos-c-sdk\src\http/http_client.c ****         if ( (ret = client_send(buf, 0, cli)) < 0 ) return ret;
 868              		.loc 1 198 0
 869 022c 0021     		mov	r1, #0
 199:..\kronos-c-sdk\src\http/http_client.c ****     }
 870              		.loc 1 199 0
 871 022e E369     		ldr	r3, [r4, #28]
 198:..\kronos-c-sdk\src\http/http_client.c ****         if ( (ret = client_send(buf, 0, cli)) < 0 ) return ret;
 872              		.loc 1 198 0
 873 0230 2954     		strb	r1, [r5, r0]
ARM GAS  C:\Users\ddemidov\AppData\Local\Temp\ccbakqUE.s 			page 24


 199:..\kronos-c-sdk\src\http/http_client.c ****     }
 874              		.loc 1 199 0
 875 0232 221C     		mov	r2, r4
 876 0234 281C     		mov	r0, r5
 877              	.LVL118:
 878 0236 9847     		blx	r3
 879              	.LVL119:
 880 0238 031E     		sub	r3, r0, #0
 881 023a CBDA     		bge	.L41
 882 023c 1FE0     		b	.L44
 883              	.LVL120:
 884              	.L45:
 885              	.LBE49:
 204:..\kronos-c-sdk\src\http/http_client.c ****         strcat(buf, ": ");
 886              		.loc 1 204 0
 887 023e 2968     		ldr	r1, [r5]
 888 0240 8EA8     		add	r0, sp, #568
 889 0242 FFF7FEFF 		bl	strcpy
 890              	.LVL121:
 205:..\kronos-c-sdk\src\http/http_client.c ****         strcat(buf, (char*)head->value);
 891              		.loc 1 205 0
 892 0246 5C49     		ldr	r1, .L143+104
 893 0248 8EA8     		add	r0, sp, #568
 894 024a FFF7FEFF 		bl	strcat
 895              	.LVL122:
 206:..\kronos-c-sdk\src\http/http_client.c ****         strcat(buf, "\r\n");
 896              		.loc 1 206 0
 897 024e 6968     		ldr	r1, [r5, #4]
 898 0250 8EA8     		add	r0, sp, #568
 899 0252 FFF7FEFF 		bl	strcat
 900              	.LVL123:
 207:..\kronos-c-sdk\src\http/http_client.c ****         if ( (ret = client_send(buf, 0, cli)) < 0 ) return ret;
 901              		.loc 1 207 0
 902 0256 5949     		ldr	r1, .L143+108
 903 0258 8EA8     		add	r0, sp, #568
 904 025a FFF7FEFF 		bl	strcat
 905              	.LVL124:
 208:..\kronos-c-sdk\src\http/http_client.c ****         head = head->next;
 906              		.loc 1 208 0
 907 025e 8EA8     		add	r0, sp, #568
 908 0260 0021     		mov	r1, #0
 909 0262 221C     		mov	r2, r4
 910 0264 E369     		ldr	r3, [r4, #28]
 911 0266 9847     		blx	r3
 912              	.LVL125:
 913 0268 0028     		cmp	r0, #0
 914 026a 07DB     		blt	.L102
 209:..\kronos-c-sdk\src\http/http_client.c ****     }
 915              		.loc 1 209 0
 916 026c AD68     		ldr	r5, [r5, #8]
 917              	.LVL126:
 918              	.L40:
 203:..\kronos-c-sdk\src\http/http_client.c ****         strcpy(buf, (char*)head->key);
 919              		.loc 1 203 0
 920 026e 002D     		cmp	r5, #0
 921 0270 E5D1     		bne	.L45
 211:..\kronos-c-sdk\src\http/http_client.c **** }
ARM GAS  C:\Users\ddemidov\AppData\Local\Temp\ccbakqUE.s 			page 25


 922              		.loc 1 211 0
 923 0272 5248     		ldr	r0, .L143+108
 924 0274 291C     		mov	r1, r5
 925 0276 221C     		mov	r2, r4
 926 0278 E369     		ldr	r3, [r4, #28]
 927 027a 9847     		blx	r3
 928              	.LVL127:
 929              	.L102:
 208:..\kronos-c-sdk\src\http/http_client.c ****         head = head->next;
 930              		.loc 1 208 0
 931 027c 031C     		mov	r3, r0
 932              	.LVL128:
 933              	.L44:
 934              	.LBE48:
 935              	.LBE47:
 367:..\kronos-c-sdk\src\http/http_client.c ****         return -1;
 368:..\kronos-c-sdk\src\http/http_client.c ****     }
 369:..\kronos-c-sdk\src\http/http_client.c **** 
 370:..\kronos-c-sdk\src\http/http_client.c ****     if ( send_header(cli, req) < 0 ) {
 936              		.loc 1 370 0
 937 027e 002B     		cmp	r3, #0
 938 0280 04DA     		bge	.L46
 939              	.LBB51:
 371:..\kronos-c-sdk\src\http/http_client.c ****         soc_close(cli->sock);
 940              		.loc 1 371 0
 941 0282 2068     		ldr	r0, [r4]
 942 0284 FFF7FEFF 		bl	soc_close
 943              	.LVL129:
 372:..\kronos-c-sdk\src\http/http_client.c ****         DBG("send header fail");
 944              		.loc 1 372 0
 945 0288 4D48     		ldr	r0, .L143+112
 946 028a 9BE7     		b	.L139
 947              	.L46:
 948              	.LBE51:
 373:..\kronos-c-sdk\src\http/http_client.c ****         return -1;
 374:..\kronos-c-sdk\src\http/http_client.c ****     }
 375:..\kronos-c-sdk\src\http/http_client.c **** 
 376:..\kronos-c-sdk\src\http/http_client.c ****     if ( req->payload.buf ) {
 949              		.loc 1 376 0
 950 028c 039B     		ldr	r3, [sp, #12]
 951 028e F833     		add	r3, r3, #248
 952 0290 1B68     		ldr	r3, [r3]
 953 0292 0493     		str	r3, [sp, #16]
 954 0294 002B     		cmp	r3, #0
 955 0296 3BD0     		beq	.L97
 956              	.LVL130:
 957              	.LBB52:
 958              	.LBB53:
 215:..\kronos-c-sdk\src\http/http_client.c ****         if ( req->is_chunked ) {
 959              		.loc 1 215 0
 960 0298 039B     		ldr	r3, [sp, #12]
 961 029a F433     		add	r3, r3, #244
 962 029c 1E68     		ldr	r6, [r3]
 963 029e 002E     		cmp	r6, #0
 964 02a0 01D1     		bne	.L48
 965              	.L56:
 966              	.LBE53:
ARM GAS  C:\Users\ddemidov\AppData\Local\Temp\ccbakqUE.s 			page 26


 967              	.LBE52:
 968              	.LBB58:
 377:..\kronos-c-sdk\src\http/http_client.c ****         if ( send_payload(cli, req) < 0 ) {
 378:..\kronos-c-sdk\src\http/http_client.c ****             DBG("send payload fail");
 969              		.loc 1 378 0
 970 02a2 4848     		ldr	r0, .L143+116
 971 02a4 5EE1     		b	.L137
 972              	.L48:
 973              	.LBE58:
 974              	.LBB59:
 975              	.LBB57:
 216:..\kronos-c-sdk\src\http/http_client.c ****             char *data = (char*)req->payload.buf;
 976              		.loc 1 216 0
 977 02a6 039B     		ldr	r3, [sp, #12]
 978 02a8 DC33     		add	r3, r3, #220
 979 02aa 1B68     		ldr	r3, [r3]
 980 02ac 002B     		cmp	r3, #0
 981 02ae 28D0     		beq	.L49
 982              	.LVL131:
 983              	.LBB54:
 219:..\kronos-c-sdk\src\http/http_client.c ****             while ( len >= 0 ) {
 984              		.loc 1 219 0
 985 02b0 0023     		mov	r3, #0
 986 02b2 0593     		str	r3, [sp, #20]
 987              	.LVL132:
 988              	.L50:
 220:..\kronos-c-sdk\src\http/http_client.c ****                 char buf[6];
 989              		.loc 1 220 0
 990 02b4 002E     		cmp	r6, #0
 991 02b6 2BDB     		blt	.L97
 992              	.LBB55:
 222:..\kronos-c-sdk\src\http/http_client.c ****                 int ret = sprintf(buf, "%02X\r\n", chunk);
 993              		.loc 1 222 0
 994 02b8 8023     		mov	r3, #128
 995 02ba 351C     		mov	r5, r6
 996 02bc 5B00     		lsl	r3, r3, #1
 997 02be 9E42     		cmp	r6, r3
 998 02c0 00DD     		ble	.L51
 999 02c2 1D1C     		mov	r5, r3
 1000              	.L51:
 1001              	.LVL133:
 223:..\kronos-c-sdk\src\http/http_client.c ****                 client_send(buf, ret, cli);
 1002              		.loc 1 223 0
 1003 02c4 4049     		ldr	r1, .L143+120
 1004 02c6 2A1C     		mov	r2, r5
 1005 02c8 8EA8     		add	r0, sp, #568
 1006 02ca FFF7FEFF 		bl	sprintf
 1007              	.LVL134:
 224:..\kronos-c-sdk\src\http/http_client.c ****                 if ( chunk ) client_send(data + trData, chunk, cli);
 1008              		.loc 1 224 0
 1009 02ce 221C     		mov	r2, r4
 1010 02d0 81B2     		uxth	r1, r0
 1011 02d2 E369     		ldr	r3, [r4, #28]
 1012 02d4 8EA8     		add	r0, sp, #568
 1013              	.LVL135:
 1014 02d6 9847     		blx	r3
 1015              	.LVL136:
ARM GAS  C:\Users\ddemidov\AppData\Local\Temp\ccbakqUE.s 			page 27


 225:..\kronos-c-sdk\src\http/http_client.c ****                 trData += chunk;
 1016              		.loc 1 225 0
 1017 02d8 002D     		cmp	r5, #0
 1018 02da 06D0     		beq	.L52
 1019 02dc 049B     		ldr	r3, [sp, #16]
 1020 02de 059A     		ldr	r2, [sp, #20]
 1021 02e0 A9B2     		uxth	r1, r5
 1022 02e2 9818     		add	r0, r3, r2
 1023 02e4 221C     		mov	r2, r4
 1024 02e6 E369     		ldr	r3, [r4, #28]
 1025 02e8 9847     		blx	r3
 1026              	.LVL137:
 1027              	.L52:
 226:..\kronos-c-sdk\src\http/http_client.c ****                 len -= chunk;
 1028              		.loc 1 226 0
 1029 02ea 059B     		ldr	r3, [sp, #20]
 228:..\kronos-c-sdk\src\http/http_client.c ****                 if ( !chunk ) break;
 1030              		.loc 1 228 0
 1031 02ec 3348     		ldr	r0, .L143+108
 226:..\kronos-c-sdk\src\http/http_client.c ****                 len -= chunk;
 1032              		.loc 1 226 0
 1033 02ee 5B19     		add	r3, r3, r5
 1034 02f0 0593     		str	r3, [sp, #20]
 1035              	.LVL138:
 228:..\kronos-c-sdk\src\http/http_client.c ****                 if ( !chunk ) break;
 1036              		.loc 1 228 0
 1037 02f2 0021     		mov	r1, #0
 1038 02f4 221C     		mov	r2, r4
 1039 02f6 E369     		ldr	r3, [r4, #28]
 1040              	.LVL139:
 227:..\kronos-c-sdk\src\http/http_client.c ****                 client_send("\r\n", 0, cli);
 1041              		.loc 1 227 0
 1042 02f8 761B     		sub	r6, r6, r5
 1043              	.LVL140:
 228:..\kronos-c-sdk\src\http/http_client.c ****                 if ( !chunk ) break;
 1044              		.loc 1 228 0
 1045 02fa 9847     		blx	r3
 1046              	.LVL141:
 229:..\kronos-c-sdk\src\http/http_client.c ****             }
 1047              		.loc 1 229 0
 1048 02fc 002D     		cmp	r5, #0
 1049 02fe D9D1     		bne	.L50
 1050 0300 06E0     		b	.L97
 1051              	.LVL142:
 1052              	.L49:
 1053              	.LBE55:
 1054              	.LBE54:
 1055              	.LBB56:
 233:..\kronos-c-sdk\src\http/http_client.c ****           return ret;
 1056              		.loc 1 233 0
 1057 0302 B1B2     		uxth	r1, r6
 1058 0304 0498     		ldr	r0, [sp, #16]
 1059 0306 221C     		mov	r2, r4
 1060 0308 E369     		ldr	r3, [r4, #28]
 1061 030a 9847     		blx	r3
 1062              	.LVL143:
 1063              	.LBE56:
ARM GAS  C:\Users\ddemidov\AppData\Local\Temp\ccbakqUE.s 			page 28


 1064              	.LBE57:
 1065              	.LBE59:
 377:..\kronos-c-sdk\src\http/http_client.c ****             DBG("send payload fail");
 1066              		.loc 1 377 0
 1067 030c 0028     		cmp	r0, #0
 1068 030e C8DB     		blt	.L56
 1069              	.LVL144:
 1070              	.L97:
 379:..\kronos-c-sdk\src\http/http_client.c ****             soc_close(cli->sock);
 380:..\kronos-c-sdk\src\http/http_client.c ****             return -1;
 381:..\kronos-c-sdk\src\http/http_client.c ****         }
 382:..\kronos-c-sdk\src\http/http_client.c ****     }
 383:..\kronos-c-sdk\src\http/http_client.c **** 
 384:..\kronos-c-sdk\src\http/http_client.c ****     char buf[CHUNK_SIZE];
 385:..\kronos-c-sdk\src\http/http_client.c **** 
 386:..\kronos-c-sdk\src\http/http_client.c ****     DBG("Receiving response");
 1071              		.loc 1 386 0
 1072 0310 2E48     		ldr	r0, .L143+124
 1073 0312 FFF7FEFF 		bl	dbg_line
 1074              	.LVL145:
 1075              	.LBB60:
 1076              	.LBB61:
 242:..\kronos-c-sdk\src\http/http_client.c ****     *len = (size_t)ret;
 1077              		.loc 1 242 0
 1078 0316 0EA8     		add	r0, sp, #56
 1079              	.LVL146:
 1080 0318 1421     		mov	r1, #20
 1081 031a 221C     		mov	r2, r4
 1082 031c A369     		ldr	r3, [r4, #24]
 1083 031e 9847     		blx	r3
 1084              	.LVL147:
 243:..\kronos-c-sdk\src\http/http_client.c ****     char* crlfPtr = strstr(buf, "\r\n");
 1085              		.loc 1 243 0
 1086 0320 061E     		sub	r6, r0, #0
 242:..\kronos-c-sdk\src\http/http_client.c ****     *len = (size_t)ret;
 1087              		.loc 1 242 0
 1088 0322 00DA     		bge	.LCB1075
 1089 0324 A2E1     		b	.L105	@long jump
 1090              	.LCB1075:
 1091              	.LVL148:
 1092              	.L134:
 255:..\kronos-c-sdk\src\http/http_client.c ****     }
 1093              		.loc 1 255 0
 1094 0326 0EA8     		add	r0, sp, #56
 1095              	.LVL149:
 1096 0328 2449     		ldr	r1, .L143+108
 1097 032a FFF7FEFF 		bl	strstr
 1098              	.LVL150:
 246:..\kronos-c-sdk\src\http/http_client.c ****         if( *len < CHUNK_SIZE - 1 ) {
 1099              		.loc 1 246 0
 1100 032e 0028     		cmp	r0, #0
 1101 0330 4ED1     		bne	.L140
 247:..\kronos-c-sdk\src\http/http_client.c ****             size_t newTrfLen;
 1102              		.loc 1 247 0
 1103 0332 FE2E     		cmp	r6, #254
 1104 0334 00D9     		bls	.LCB1093
 1105 0336 9BE1     		b	.L106	@long jump
ARM GAS  C:\Users\ddemidov\AppData\Local\Temp\ccbakqUE.s 			page 29


 1106              	.LCB1093:
 1107              	.LBB62:
 249:..\kronos-c-sdk\src\http/http_client.c ****             newTrfLen = (size_t)ret;
 1108              		.loc 1 249 0
 1109 0338 0EAB     		add	r3, sp, #56
 1110              	.LVL151:
 1111 033a 9819     		add	r0, r3, r6
 1112              	.LVL152:
 1113 033c 0A21     		mov	r1, #10
 1114 033e 221C     		mov	r2, r4
 1115 0340 A369     		ldr	r3, [r4, #24]
 1116              	.LVL153:
 1117 0342 9847     		blx	r3
 1118              	.LVL154:
 1119 0344 0028     		cmp	r0, #0
 1120 0346 00DA     		bge	.LCB1109
 1121 0348 90E1     		b	.L105	@long jump
 1122              	.LCB1109:
 1123              	.LVL155:
 251:..\kronos-c-sdk\src\http/http_client.c ****         } else {
 1124              		.loc 1 251 0
 1125 034a 3618     		add	r6, r6, r0
 1126              	.LVL156:
 1127 034c EBE7     		b	.L134
 1128              	.L144:
 1129 034e C046     		.align	2
 1130              	.L143:
 1131 0350 C4FCFFFF 		.word	-828
 1132 0354 00000000 		.word	.LC2
 1133 0358 FF0F0000 		.word	4095
 1134 035c 06100000 		.word	4102
 1135 0360 14000000 		.word	.LC4
 1136 0364 21000000 		.word	.LC6
 1137 0368 2E000000 		.word	.LC8
 1138 036c 00000000 		.word	recv_ssl
 1139 0370 00000000 		.word	send_ssl
 1140 0374 40000000 		.word	.LC12
 1141 0378 52000000 		.word	.LC14
 1142 037c 63000000 		.word	.LC16
 1143 0380 00000000 		.word	ssl_read
 1144 0384 00000000 		.word	ssl_write
 1145 0388 00000000 		.word	simple_read
 1146 038c 00000000 		.word	simple_write
 1147 0390 74000000 		.word	.LC22
 1148 0394 7A000000 		.word	.LC24
 1149 0398 7C000000 		.word	.LC26
 1150 039c 7E000000 		.word	.LC28
 1151 03a0 80000000 		.word	.LC30
 1152 03a4 8C000000 		.word	.LC32
 1153 03a8 9A000000 		.word	.LC34
 1154 03ac AA000000 		.word	.LC36
 1155 03b0 C7000000 		.word	.LC38
 1156 03b4 DD000000 		.word	.LC40
 1157 03b8 F0000000 		.word	.LC42
 1158 03bc F3000000 		.word	.LC44
 1159 03c0 F6000000 		.word	.LC46
 1160 03c4 07010000 		.word	.LC48
ARM GAS  C:\Users\ddemidov\AppData\Local\Temp\ccbakqUE.s 			page 30


 1161 03c8 19010000 		.word	.LC50
 1162 03cc 20010000 		.word	.LC52
 1163              	.LVL157:
 1164              	.L140:
 1165              	.LBE62:
 258:..\kronos-c-sdk\src\http/http_client.c ****     if ( crlfPos < 0 && crlfPos > (int)(*len) )
 1166              		.loc 1 258 0
 1167 03d0 0EAB     		add	r3, sp, #56
 1168              	.LVL158:
 1169 03d2 C51A     		sub	r5, r0, r3
 1170              	.LVL159:
 259:..\kronos-c-sdk\src\http/http_client.c ****         return -1;
 1171              		.loc 1 259 0
 1172 03d4 02D5     		bpl	.L60
 1173 03d6 B542     		cmp	r5, r6
 1174 03d8 00DD     		ble	.LCB1171
 1175 03da 49E1     		b	.L106	@long jump
 1176              	.LCB1171:
 1177              	.L60:
 261:..\kronos-c-sdk\src\http/http_client.c ****     DBG("resp: {%s}", buf);
 1178              		.loc 1 261 0
 1179 03dc 0023     		mov	r3, #0
 1180              	.LVL160:
 262:..\kronos-c-sdk\src\http/http_client.c **** 
 1181              		.loc 1 262 0
 1182 03de 0EA9     		add	r1, sp, #56
 1183              	.LVL161:
 261:..\kronos-c-sdk\src\http/http_client.c ****     DBG("resp: {%s}", buf);
 1184              		.loc 1 261 0
 1185 03e0 0370     		strb	r3, [r0]
 262:..\kronos-c-sdk\src\http/http_client.c **** 
 1186              		.loc 1 262 0
 1187 03e2 AB48     		ldr	r0, .L145
 1188              	.LVL162:
 1189 03e4 FFF7FEFF 		bl	dbg_line
 1190              	.LVL163:
 264:..\kronos-c-sdk\src\http/http_client.c ****         DBG("Not a correct HTTP answer : %s\n", buf);
 1191              		.loc 1 264 0
 1192 03e8 0EA8     		add	r0, sp, #56
 1193              	.LVL164:
 1194 03ea AA49     		ldr	r1, .L145+4
 1195 03ec 3A1C     		mov	r2, r7
 1196 03ee FFF7FEFF 		bl	sscanf
 1197              	.LVL165:
 1198 03f2 0128     		cmp	r0, #1
 1199 03f4 04D0     		beq	.L61
 265:..\kronos-c-sdk\src\http/http_client.c ****         return -1;
 1200              		.loc 1 265 0
 1201 03f6 A848     		ldr	r0, .L145+8
 1202 03f8 0EA9     		add	r1, sp, #56
 1203              	.LVL166:
 1204 03fa FFF7FEFF 		bl	dbg_line
 1205              	.LVL167:
 1206 03fe 37E1     		b	.L106
 1207              	.L61:
 269:..\kronos-c-sdk\src\http/http_client.c ****         DBG("receive_response memmove warning [%08x] %d, %d", (int)buf, crlfPos, *len);
 1208              		.loc 1 269 0
ARM GAS  C:\Users\ddemidov\AppData\Local\Temp\ccbakqUE.s 			page 31


 1209 0400 AB1C     		add	r3, r5, #2
 1210 0402 0493     		str	r3, [sp, #16]
 1211 0404 9E42     		cmp	r6, r3
 1212 0406 05D2     		bcs	.L62
 270:..\kronos-c-sdk\src\http/http_client.c ****     }
 1213              		.loc 1 270 0
 1214 0408 A448     		ldr	r0, .L145+12
 1215 040a 0EA9     		add	r1, sp, #56
 1216              	.LVL168:
 1217 040c 2A1C     		mov	r2, r5
 1218 040e 331C     		mov	r3, r6
 1219 0410 FFF7FEFF 		bl	dbg_line
 1220              	.LVL169:
 1221              	.L62:
 272:..\kronos-c-sdk\src\http/http_client.c ****     *len -= (size_t)(crlfPos + 2);
 1222              		.loc 1 272 0
 1223 0414 0EAA     		add	r2, sp, #56
 1224              	.LVL170:
 1225 0416 9446     		mov	ip, r2
 1226 0418 049B     		ldr	r3, [sp, #16]
 1227 041a 751B     		sub	r5, r6, r5
 1228              	.LVL171:
 1229 041c 6344     		add	r3, r3, ip
 1230 041e 191C     		mov	r1, r3
 1231 0420 6A1E     		sub	r2, r5, #1
 1232              	.LVL172:
 1233 0422 6046     		mov	r0, ip
 1234 0424 FFF7FEFF 		bl	memmove
 1235              	.LVL173:
 275:..\kronos-c-sdk\src\http/http_client.c ****         //Did not return a 2xx code; TODO fetch headers/(&data?) anyway and implement a mean of wri
 1236              		.loc 1 275 0
 1237 0428 3968     		ldr	r1, [r7]
 273:..\kronos-c-sdk\src\http/http_client.c **** 
 1238              		.loc 1 273 0
 1239 042a 023D     		sub	r5, r5, #2
 1240              	.LVL174:
 275:..\kronos-c-sdk\src\http/http_client.c ****         //Did not return a 2xx code; TODO fetch headers/(&data?) anyway and implement a mean of wri
 1241              		.loc 1 275 0
 1242 042c 0B1C     		mov	r3, r1
 1243 042e C83B     		sub	r3, r3, #200
 1244 0430 632B     		cmp	r3, #99
 1245 0432 06D9     		bls	.L63
 277:..\kronos-c-sdk\src\http/http_client.c ****         DBG("Protocol error");
 1246              		.loc 1 277 0
 1247 0434 9A48     		ldr	r0, .L145+16
 1248 0436 FFF7FEFF 		bl	dbg_line
 1249              	.LVL175:
 278:..\kronos-c-sdk\src\http/http_client.c ****         return -1;
 1250              		.loc 1 278 0
 1251 043a 9A48     		ldr	r0, .L145+20
 1252 043c FFF7FEFF 		bl	dbg_line
 1253              	.LVL176:
 1254 0440 16E1     		b	.L106
 1255              	.L63:
 281:..\kronos-c-sdk\src\http/http_client.c ****     return 0;
 1256              		.loc 1 281 0
 1257 0442 A160     		str	r1, [r4, #8]
ARM GAS  C:\Users\ddemidov\AppData\Local\Temp\ccbakqUE.s 			page 32


 1258              	.LBE61:
 1259              	.LBE60:
 387:..\kronos-c-sdk\src\http/http_client.c **** 
 388:..\kronos-c-sdk\src\http/http_client.c ****     size_t trfLen;
 389:..\kronos-c-sdk\src\http/http_client.c ****     ret = receive_response(cli, res, buf, &trfLen);
 390:..\kronos-c-sdk\src\http/http_client.c ****     if ( ret < 0 ) {
 391:..\kronos-c-sdk\src\http/http_client.c ****         DBG("Connection error (%d)", ret);
 392:..\kronos-c-sdk\src\http/http_client.c ****         soc_close(cli->sock);
 393:..\kronos-c-sdk\src\http/http_client.c ****         return -1;
 394:..\kronos-c-sdk\src\http/http_client.c ****     }
 395:..\kronos-c-sdk\src\http/http_client.c **** 
 396:..\kronos-c-sdk\src\http/http_client.c ****     DBG("Reading headers %d", trfLen);
 1260              		.loc 1 396 0
 1261 0444 9848     		ldr	r0, .L145+24
 1262 0446 291C     		mov	r1, r5
 1263 0448 FFF7FEFF 		bl	dbg_line
 1264              	.LVL177:
 397:..\kronos-c-sdk\src\http/http_client.c ****     char *crlfPtr;
 398:..\kronos-c-sdk\src\http/http_client.c ****     int crlfPos;
 399:..\kronos-c-sdk\src\http/http_client.c ****     res->header = NULL;
 1265              		.loc 1 399 0
 1266 044c 0022     		mov	r2, #0
 400:..\kronos-c-sdk\src\http/http_client.c ****     res->content_type.value = NULL;
 401:..\kronos-c-sdk\src\http/http_client.c ****     req->content_type.key = NULL;
 1267              		.loc 1 401 0
 1268 044e 039B     		ldr	r3, [sp, #12]
 399:..\kronos-c-sdk\src\http/http_client.c ****     res->content_type.value = NULL;
 1269              		.loc 1 399 0
 1270 0450 BA60     		str	r2, [r7, #8]
 1271              		.loc 1 401 0
 1272 0452 E433     		add	r3, r3, #228
 400:..\kronos-c-sdk\src\http/http_client.c ****     res->content_type.value = NULL;
 1273              		.loc 1 400 0
 1274 0454 3A61     		str	r2, [r7, #16]
 1275              		.loc 1 401 0
 1276 0456 1A60     		str	r2, [r3]
 402:..\kronos-c-sdk\src\http/http_client.c ****     req->content_type.next = NULL;
 1277              		.loc 1 402 0
 1278 0458 039B     		ldr	r3, [sp, #12]
 1279 045a EC33     		add	r3, r3, #236
 1280 045c 1A60     		str	r2, [r3]
 403:..\kronos-c-sdk\src\http/http_client.c ****     res->payload.size = 0;
 404:..\kronos-c-sdk\src\http/http_client.c ****     res->payload.buf = 0;
 405:..\kronos-c-sdk\src\http/http_client.c ****     res->is_chunked = 0;
 406:..\kronos-c-sdk\src\http/http_client.c **** 
 407:..\kronos-c-sdk\src\http/http_client.c ****     int recvContentLength = -1;
 1281              		.loc 1 407 0
 1282 045e 0123     		mov	r3, #1
 1283 0460 5B42     		neg	r3, r3
 403:..\kronos-c-sdk\src\http/http_client.c ****     res->payload.size = 0;
 1284              		.loc 1 403 0
 1285 0462 BA61     		str	r2, [r7, #24]
 404:..\kronos-c-sdk\src\http/http_client.c ****     res->is_chunked = 0;
 1286              		.loc 1 404 0
 1287 0464 FA61     		str	r2, [r7, #28]
 405:..\kronos-c-sdk\src\http/http_client.c **** 
 1288              		.loc 1 405 0
ARM GAS  C:\Users\ddemidov\AppData\Local\Temp\ccbakqUE.s 			page 33


 1289 0466 7A60     		str	r2, [r7, #4]
 1290              		.loc 1 407 0
 1291 0468 0793     		str	r3, [sp, #28]
 1292              	.LVL178:
 1293              	.L64:
 1294              	.LBB65:
 408:..\kronos-c-sdk\src\http/http_client.c ****     //Now get headers
 409:..\kronos-c-sdk\src\http/http_client.c ****     while( 1 ) {
 410:..\kronos-c-sdk\src\http/http_client.c ****         crlfPtr = strstr(buf, "\r\n");
 1295              		.loc 1 410 0
 1296 046a 0EAE     		add	r6, sp, #56
 1297              	.LVL179:
 1298 046c 301C     		mov	r0, r6
 1299 046e 8F49     		ldr	r1, .L145+28
 1300 0470 FFF7FEFF 		bl	strstr
 1301              	.LVL180:
 1302 0474 0490     		str	r0, [sp, #16]
 1303              	.LVL181:
 411:..\kronos-c-sdk\src\http/http_client.c ****         if(crlfPtr == NULL) {
 1304              		.loc 1 411 0
 1305 0476 0028     		cmp	r0, #0
 1306 0478 10D1     		bne	.L65
 412:..\kronos-c-sdk\src\http/http_client.c ****             if( trfLen < CHUNK_SIZE - 1 ) {
 1307              		.loc 1 412 0
 1308 047a FE2D     		cmp	r5, #254
 1309 047c 71D8     		bhi	.L138
 1310              	.LBB66:
 413:..\kronos-c-sdk\src\http/http_client.c ****                 size_t newTrfLen;
 414:..\kronos-c-sdk\src\http/http_client.c ****                 ret = client_recv(buf + trfLen, 40, cli);
 1311              		.loc 1 414 0
 1312 047e 7019     		add	r0, r6, r5
 1313              	.LVL182:
 1314 0480 2821     		mov	r1, #40
 1315 0482 221C     		mov	r2, r4
 1316 0484 A369     		ldr	r3, [r4, #24]
 1317 0486 9847     		blx	r3
 1318              	.LVL183:
 1319 0488 061E     		sub	r6, r0, #0
 1320              	.LVL184:
 415:..\kronos-c-sdk\src\http/http_client.c ****                 CHECK_CONN_ERR(ret);
 1321              		.loc 1 415 0
 1322 048a 05DA     		bge	.L67
 1323 048c 8848     		ldr	r0, .L145+32
 1324              	.LVL185:
 1325 048e 311C     		mov	r1, r6
 1326 0490 FFF7FEFF 		bl	dbg_line
 1327              	.LVL186:
 414:..\kronos-c-sdk\src\http/http_client.c ****                 CHECK_CONN_ERR(ret);
 1328              		.loc 1 414 0
 1329 0494 0296     		str	r6, [sp, #8]
 1330              		.loc 1 415 0
 1331 0496 F6E0     		b	.L131
 1332              	.LVL187:
 1333              	.L67:
 416:..\kronos-c-sdk\src\http/http_client.c ****                 newTrfLen = (size_t)ret;
 417:..\kronos-c-sdk\src\http/http_client.c ****                 trfLen += newTrfLen;
 1334              		.loc 1 417 0
ARM GAS  C:\Users\ddemidov\AppData\Local\Temp\ccbakqUE.s 			page 34


 1335 0498 2D18     		add	r5, r5, r0
 1336              	.LVL188:
 1337 049a E6E7     		b	.L64
 1338              	.LVL189:
 1339              	.L65:
 1340              	.LBE66:
 418:..\kronos-c-sdk\src\http/http_client.c **** //                DBG("Read %d chars; In buf: [%s]", newTrfLen, buf);
 419:..\kronos-c-sdk\src\http/http_client.c ****                 continue;
 420:..\kronos-c-sdk\src\http/http_client.c ****             } else {
 421:..\kronos-c-sdk\src\http/http_client.c ****                 PRTCL_ERR();
 422:..\kronos-c-sdk\src\http/http_client.c ****             }
 423:..\kronos-c-sdk\src\http/http_client.c ****         }
 424:..\kronos-c-sdk\src\http/http_client.c **** 
 425:..\kronos-c-sdk\src\http/http_client.c ****         crlfPos = crlfPtr - buf;
 1341              		.loc 1 425 0
 1342 049c 049B     		ldr	r3, [sp, #16]
 1343 049e 0EAA     		add	r2, sp, #56
 1344 04a0 9B1A     		sub	r3, r3, r2
 1345 04a2 0393     		str	r3, [sp, #12]
 1346              	.LVL190:
 426:..\kronos-c-sdk\src\http/http_client.c **** 
 427:..\kronos-c-sdk\src\http/http_client.c ****         if(crlfPos == 0) {
 1347              		.loc 1 427 0
 1348 04a4 0BD1     		bne	.L70
 428:..\kronos-c-sdk\src\http/http_client.c ****             DBG("Headers read done");
 1349              		.loc 1 428 0
 1350 04a6 8348     		ldr	r0, .L145+36
 1351              	.LVL191:
 1352 04a8 FFF7FEFF 		bl	dbg_line
 1353              	.LVL192:
 429:..\kronos-c-sdk\src\http/http_client.c ****             memmove(buf, &buf[2], trfLen - 2 + 1); //Be sure to move NULL-terminating char as well
 1354              		.loc 1 429 0
 1355 04ac 2A21     		mov	r1, #42
 1356 04ae 04AB     		add	r3, sp, #16
 1357              	.LVL193:
 1358 04b0 6A1E     		sub	r2, r5, #1
 1359 04b2 301C     		mov	r0, r6
 1360 04b4 C918     		add	r1, r1, r3
 1361 04b6 FFF7FEFF 		bl	memmove
 1362              	.LVL194:
 430:..\kronos-c-sdk\src\http/http_client.c ****             trfLen -= 2;
 1363              		.loc 1 430 0
 1364 04ba 023D     		sub	r5, r5, #2
 1365              	.LVL195:
 1366 04bc 6CE0     		b	.L71
 1367              	.LVL196:
 1368              	.L70:
 431:..\kronos-c-sdk\src\http/http_client.c ****             break;
 432:..\kronos-c-sdk\src\http/http_client.c ****         } else if ( crlfPos < 0 ) CHECK_CONN_ERR(-1);
 1369              		.loc 1 432 0
 1370 04be 039B     		ldr	r3, [sp, #12]
 1371              	.LVL197:
 1372 04c0 002B     		cmp	r3, #0
 1373 04c2 05DA     		bge	.L72
 1374              		.loc 1 432 0 is_stmt 0 discriminator 2
 1375 04c4 0121     		mov	r1, #1
 1376 04c6 7A48     		ldr	r0, .L145+32
ARM GAS  C:\Users\ddemidov\AppData\Local\Temp\ccbakqUE.s 			page 35


 1377              	.LVL198:
 1378 04c8 4942     		neg	r1, r1
 1379 04ca FFF7FEFF 		bl	dbg_line
 1380              	.LVL199:
 1381 04ce D7E0     		b	.L135
 1382              	.LVL200:
 1383              	.L72:
 433:..\kronos-c-sdk\src\http/http_client.c **** 
 434:..\kronos-c-sdk\src\http/http_client.c ****         buf[crlfPos] = '\0';
 1384              		.loc 1 434 0 is_stmt 1
 1385 04d0 0023     		mov	r3, #0
 1386 04d2 039A     		ldr	r2, [sp, #12]
 1387              	.LVL201:
 435:..\kronos-c-sdk\src\http/http_client.c ****         char key[CHUNK_SIZE];
 436:..\kronos-c-sdk\src\http/http_client.c ****         char value[CHUNK_SIZE];
 437:..\kronos-c-sdk\src\http/http_client.c **** 
 438:..\kronos-c-sdk\src\http/http_client.c ****         int n = sscanf(buf, "%[^:]: %[^\r\n]", key, value);
 1388              		.loc 1 438 0
 1389 04d4 301C     		mov	r0, r6
 1390              	.LVL202:
 434:..\kronos-c-sdk\src\http/http_client.c ****         char key[CHUNK_SIZE];
 1391              		.loc 1 434 0
 1392 04d6 B354     		strb	r3, [r6, r2]
 1393              		.loc 1 438 0
 1394 04d8 7749     		ldr	r1, .L145+40
 1395 04da 4EAA     		add	r2, sp, #312
 1396 04dc 8EAB     		add	r3, sp, #568
 1397 04de FFF7FEFF 		bl	sscanf
 1398              	.LVL203:
 439:..\kronos-c-sdk\src\http/http_client.c ****         if ( n == 2 ) {
 1399              		.loc 1 439 0
 1400 04e2 0228     		cmp	r0, #2
 1401 04e4 3AD1     		bne	.L73
 440:..\kronos-c-sdk\src\http/http_client.c **** //            DBG("Read header : %s: %s", key, value);
 441:..\kronos-c-sdk\src\http/http_client.c ****             if( !strcmp(key, "Content-Length") ) {
 1402              		.loc 1 441 0
 1403 04e6 4EA8     		add	r0, sp, #312
 1404              	.LVL204:
 1405 04e8 7449     		ldr	r1, .L145+44
 1406 04ea FFF7FEFF 		bl	strcmp
 1407              	.LVL205:
 1408 04ee 0028     		cmp	r0, #0
 1409 04f0 05D1     		bne	.L74
 442:..\kronos-c-sdk\src\http/http_client.c ****                 sscanf(value, "%d", &recvContentLength);
 1410              		.loc 1 442 0
 1411 04f2 8EA8     		add	r0, sp, #568
 1412 04f4 7249     		ldr	r1, .L145+48
 1413 04f6 07AA     		add	r2, sp, #28
 1414 04f8 FFF7FEFF 		bl	sscanf
 1415              	.LVL206:
 1416 04fc 24E0     		b	.L75
 1417              	.L74:
 443:..\kronos-c-sdk\src\http/http_client.c ****             } else if( !strcmp(key, "Transfer-Encoding") ) {
 1418              		.loc 1 443 0
 1419 04fe 4EA8     		add	r0, sp, #312
 1420 0500 7049     		ldr	r1, .L145+52
 1421 0502 FFF7FEFF 		bl	strcmp
ARM GAS  C:\Users\ddemidov\AppData\Local\Temp\ccbakqUE.s 			page 36


 1422              	.LVL207:
 1423 0506 0028     		cmp	r0, #0
 1424 0508 0ED1     		bne	.L76
 444:..\kronos-c-sdk\src\http/http_client.c ****                 if( !strcmp(value, "Chunked") || !strcmp(value, "chunked") )
 1425              		.loc 1 444 0
 1426 050a 8EA8     		add	r0, sp, #568
 1427 050c 6E49     		ldr	r1, .L145+56
 1428 050e FFF7FEFF 		bl	strcmp
 1429              	.LVL208:
 1430 0512 0028     		cmp	r0, #0
 1431 0514 05D0     		beq	.L77
 1432              		.loc 1 444 0 is_stmt 0 discriminator 1
 1433 0516 8EA8     		add	r0, sp, #568
 1434 0518 6C49     		ldr	r1, .L145+60
 1435 051a FFF7FEFF 		bl	strcmp
 1436              	.LVL209:
 1437 051e 0028     		cmp	r0, #0
 1438 0520 12D1     		bne	.L75
 1439              	.L77:
 445:..\kronos-c-sdk\src\http/http_client.c ****                     res->is_chunked = 1;
 1440              		.loc 1 445 0 is_stmt 1
 1441 0522 0123     		mov	r3, #1
 1442 0524 7B60     		str	r3, [r7, #4]
 1443 0526 0FE0     		b	.L75
 1444              	.L76:
 446:..\kronos-c-sdk\src\http/http_client.c ****             } else if( !strcmp(key, "Content-Type") ) {
 1445              		.loc 1 446 0
 1446 0528 4EA8     		add	r0, sp, #312
 1447 052a 6949     		ldr	r1, .L145+64
 1448 052c FFF7FEFF 		bl	strcmp
 1449              	.LVL210:
 1450 0530 0028     		cmp	r0, #0
 1451 0532 04D1     		bne	.L78
 447:..\kronos-c-sdk\src\http/http_client.c ****                 http_response_set_content_type(res, value);
 1452              		.loc 1 447 0
 1453 0534 381C     		mov	r0, r7
 1454 0536 8EA9     		add	r1, sp, #568
 1455 0538 FFF7FEFF 		bl	http_response_set_content_type
 1456              	.LVL211:
 1457 053c 04E0     		b	.L75
 1458              	.L78:
 448:..\kronos-c-sdk\src\http/http_client.c ****             } else {
 449:..\kronos-c-sdk\src\http/http_client.c ****                 http_response_add_header(res, key, value);
 1459              		.loc 1 449 0
 1460 053e 381C     		mov	r0, r7
 1461 0540 4EA9     		add	r1, sp, #312
 1462 0542 8EAA     		add	r2, sp, #568
 1463 0544 FFF7FEFF 		bl	http_response_add_header
 1464              	.LVL212:
 1465              	.L75:
 450:..\kronos-c-sdk\src\http/http_client.c ****             }
 451:..\kronos-c-sdk\src\http/http_client.c ****             memmove(buf, crlfPtr+2, trfLen - (size_t)(crlfPos + 2) + 1);
 1466              		.loc 1 451 0
 1467 0548 039B     		ldr	r3, [sp, #12]
 1468 054a 0499     		ldr	r1, [sp, #16]
 1469 054c ED1A     		sub	r5, r5, r3
 1470              	.LVL213:
ARM GAS  C:\Users\ddemidov\AppData\Local\Temp\ccbakqUE.s 			page 37


 1471 054e 6A1E     		sub	r2, r5, #1
 1472 0550 0231     		add	r1, r1, #2
 1473 0552 0EA8     		add	r0, sp, #56
 1474 0554 FFF7FEFF 		bl	memmove
 1475              	.LVL214:
 452:..\kronos-c-sdk\src\http/http_client.c ****             trfLen -= (size_t)(crlfPos + 2);
 1476              		.loc 1 452 0
 1477 0558 023D     		sub	r5, r5, #2
 1478              	.LVL215:
 1479 055a 86E7     		b	.L64
 1480              	.LVL216:
 1481              	.L73:
 453:..\kronos-c-sdk\src\http/http_client.c ****         } else {
 454:..\kronos-c-sdk\src\http/http_client.c ****             DBG("Could not parse header");
 1482              		.loc 1 454 0
 1483 055c 5D48     		ldr	r0, .L145+68
 1484              	.LVL217:
 1485 055e FFF7FEFF 		bl	dbg_line
 1486              	.LVL218:
 1487              	.L138:
 1488              	.LBB67:
 455:..\kronos-c-sdk\src\http/http_client.c ****             PRTCL_ERR();
 1489              		.loc 1 455 0
 1490 0562 5048     		ldr	r0, .L145+20
 1491              	.LVL219:
 1492              	.L137:
 1493 0564 FFF7FEFF 		bl	dbg_line
 1494              	.LVL220:
 1495 0568 87E0     		b	.L136
 1496              	.LVL221:
 1497              	.L84:
 1498              	.LBE67:
 1499              	.LBE65:
 1500              	.LBB68:
 456:..\kronos-c-sdk\src\http/http_client.c ****         }
 457:..\kronos-c-sdk\src\http/http_client.c ****     }
 458:..\kronos-c-sdk\src\http/http_client.c **** 
 459:..\kronos-c-sdk\src\http/http_client.c ****     // return resp; //
 460:..\kronos-c-sdk\src\http/http_client.c **** 
 461:..\kronos-c-sdk\src\http/http_client.c ****     size_t chunk_len;
 462:..\kronos-c-sdk\src\http/http_client.c **** //    DBG("get payload form buf: %d", trfLen);
 463:..\kronos-c-sdk\src\http/http_client.c **** //    DBG("get payload form buf: [%s]", buf);
 464:..\kronos-c-sdk\src\http/http_client.c ****     do {
 465:..\kronos-c-sdk\src\http/http_client.c ****         if ( res->is_chunked ) {
 466:..\kronos-c-sdk\src\http/http_client.c ****             while( (crlfPtr = strstr(buf, "\r\n")) == NULL ) {
 467:..\kronos-c-sdk\src\http/http_client.c ****                 if ( trfLen + 10 > CHUNK_SIZE ) {
 468:..\kronos-c-sdk\src\http/http_client.c ****                     memmove(buf, buf+10, trfLen-10);
 469:..\kronos-c-sdk\src\http/http_client.c ****                     trfLen -= 10;
 470:..\kronos-c-sdk\src\http/http_client.c ****                 }
 471:..\kronos-c-sdk\src\http/http_client.c ****                 size_t newTrfLen = 0;
 472:..\kronos-c-sdk\src\http/http_client.c ****                 ret = client_recv(buf+trfLen, 10, cli);
 473:..\kronos-c-sdk\src\http/http_client.c ****                 if ( ret > 0 ) newTrfLen = (size_t)ret;
 474:..\kronos-c-sdk\src\http/http_client.c ****                 trfLen += newTrfLen;
 475:..\kronos-c-sdk\src\http/http_client.c ****             }
 476:..\kronos-c-sdk\src\http/http_client.c ****             ret = sscanf(buf, "%x\r\n", (unsigned int*)&chunk_len);
 477:..\kronos-c-sdk\src\http/http_client.c ****             if ( ret != 1 ) {
 478:..\kronos-c-sdk\src\http/http_client.c ****                 memmove(buf, crlfPtr+2, trfLen - (size_t)crlfPos);
ARM GAS  C:\Users\ddemidov\AppData\Local\Temp\ccbakqUE.s 			page 38


 479:..\kronos-c-sdk\src\http/http_client.c ****                 trfLen -= (size_t)crlfPos;
 480:..\kronos-c-sdk\src\http/http_client.c ****                 chunk_len = 0;
 481:..\kronos-c-sdk\src\http/http_client.c ****                 return -1; // fail
 482:..\kronos-c-sdk\src\http/http_client.c ****             }
 483:..\kronos-c-sdk\src\http/http_client.c ****             DBG("detect chunk %d, %d", chunk_len, ret);
 1501              		.loc 1 483 0
 1502 056a 5B48     		ldr	r0, .L145+72
 1503              	.LVL222:
 1504 056c 8E99     		ldr	r1, [sp, #568]
 1505 056e FFF7FEFF 		bl	dbg_line
 1506              	.LVL223:
 484:..\kronos-c-sdk\src\http/http_client.c ****             crlfPtr = strstr(buf, "\r\n");
 1507              		.loc 1 484 0
 1508 0572 4E49     		ldr	r1, .L145+28
 1509 0574 0EA8     		add	r0, sp, #56
 1510 0576 FFF7FEFF 		bl	strstr
 1511              	.LVL224:
 485:..\kronos-c-sdk\src\http/http_client.c ****             crlfPos = crlfPtr + 2 - buf;
 1512              		.loc 1 485 0
 1513 057a 0EAB     		add	r3, sp, #56
 1514 057c 811C     		add	r1, r0, #2
 1515 057e CB1A     		sub	r3, r1, r3
 486:..\kronos-c-sdk\src\http/http_client.c ****             memmove(buf, crlfPtr+2, trfLen - (size_t)crlfPos);
 1516              		.loc 1 486 0
 1517 0580 ED1A     		sub	r5, r5, r3
 1518              	.LVL225:
 1519 0582 0EA8     		add	r0, sp, #56
 1520              	.LVL226:
 1521 0584 2A1C     		mov	r2, r5
 485:..\kronos-c-sdk\src\http/http_client.c ****             crlfPos = crlfPtr + 2 - buf;
 1522              		.loc 1 485 0
 1523 0586 0393     		str	r3, [sp, #12]
 1524              	.LVL227:
 1525              		.loc 1 486 0
 1526 0588 FFF7FEFF 		bl	memmove
 1527              	.LVL228:
 1528              	.L85:
 1529              	.LBE68:
 487:..\kronos-c-sdk\src\http/http_client.c ****             trfLen -= (size_t)crlfPos;
 488:..\kronos-c-sdk\src\http/http_client.c ****         } else {
 489:..\kronos-c-sdk\src\http/http_client.c ****             chunk_len = MAX_BUFFER_SIZE - trfLen;
 490:..\kronos-c-sdk\src\http/http_client.c ****         }
 491:..\kronos-c-sdk\src\http/http_client.c ****         if ( !chunk_len ) break;
 1530              		.loc 1 491 0
 1531 058c 8E9B     		ldr	r3, [sp, #568]
 1532 058e 002B     		cmp	r3, #0
 1533 0590 64D0     		beq	.L141
 1534              	.L87:
 492:..\kronos-c-sdk\src\http/http_client.c ****         while ( chunk_len ) {
 1535              		.loc 1 492 0
 1536 0592 8E9E     		ldr	r6, [sp, #568]
 1537 0594 002E     		cmp	r6, #0
 1538 0596 36D1     		bne	.L95
 1539              	.L71:
 465:..\kronos-c-sdk\src\http/http_client.c ****             while( (crlfPtr = strstr(buf, "\r\n")) == NULL ) {
 1540              		.loc 1 465 0
 1541 0598 7B68     		ldr	r3, [r7, #4]
ARM GAS  C:\Users\ddemidov\AppData\Local\Temp\ccbakqUE.s 			page 39


 1542 059a 002B     		cmp	r3, #0
 1543 059c 2ED0     		beq	.L79
 1544              	.L80:
 1545              	.LBB70:
 466:..\kronos-c-sdk\src\http/http_client.c ****                 if ( trfLen + 10 > CHUNK_SIZE ) {
 1546              		.loc 1 466 0
 1547 059e 0EA8     		add	r0, sp, #56
 1548 05a0 4249     		ldr	r1, .L145+28
 1549 05a2 FFF7FEFF 		bl	strstr
 1550              	.LVL229:
 1551 05a6 061E     		sub	r6, r0, #0
 1552              	.LVL230:
 1553 05a8 19D1     		bne	.L142
 1554              	.LBB69:
 467:..\kronos-c-sdk\src\http/http_client.c ****                     memmove(buf, buf+10, trfLen-10);
 1555              		.loc 1 467 0
 1556 05aa 2A1C     		mov	r2, r5
 1557 05ac 8023     		mov	r3, #128
 1558 05ae 0A32     		add	r2, r2, #10
 1559 05b0 5B00     		lsl	r3, r3, #1
 1560 05b2 9A42     		cmp	r2, r3
 1561 05b4 07D9     		bls	.L81
 468:..\kronos-c-sdk\src\http/http_client.c ****                     trfLen -= 10;
 1562              		.loc 1 468 0
 1563 05b6 3221     		mov	r1, #50
 1564 05b8 0A3D     		sub	r5, r5, #10
 1565              	.LVL231:
 1566 05ba 04AB     		add	r3, sp, #16
 1567 05bc 0EA8     		add	r0, sp, #56
 1568              	.LVL232:
 1569 05be C918     		add	r1, r1, r3
 1570 05c0 2A1C     		mov	r2, r5
 1571 05c2 FFF7FEFF 		bl	memmove
 1572              	.LVL233:
 1573              	.L81:
 472:..\kronos-c-sdk\src\http/http_client.c ****                 if ( ret > 0 ) newTrfLen = (size_t)ret;
 1574              		.loc 1 472 0
 1575 05c6 0EAB     		add	r3, sp, #56
 1576 05c8 5819     		add	r0, r3, r5
 1577 05ca 0A21     		mov	r1, #10
 1578 05cc A369     		ldr	r3, [r4, #24]
 1579 05ce 221C     		mov	r2, r4
 1580 05d0 9847     		blx	r3
 1581              	.LVL234:
 471:..\kronos-c-sdk\src\http/http_client.c ****                 ret = client_recv(buf+trfLen, 10, cli);
 1582              		.loc 1 471 0
 1583 05d2 0023     		mov	r3, #0
 473:..\kronos-c-sdk\src\http/http_client.c ****                 trfLen += newTrfLen;
 1584              		.loc 1 473 0
 1585 05d4 9842     		cmp	r0, r3
 1586 05d6 00DD     		ble	.L82
 473:..\kronos-c-sdk\src\http/http_client.c ****                 trfLen += newTrfLen;
 1587              		.loc 1 473 0 is_stmt 0 discriminator 1
 1588 05d8 031C     		mov	r3, r0
 1589              	.LVL235:
 1590              	.L82:
 474:..\kronos-c-sdk\src\http/http_client.c ****             }
ARM GAS  C:\Users\ddemidov\AppData\Local\Temp\ccbakqUE.s 			page 40


 1591              		.loc 1 474 0 is_stmt 1
 1592 05da ED18     		add	r5, r5, r3
 1593              	.LVL236:
 1594 05dc DFE7     		b	.L80
 1595              	.LVL237:
 1596              	.L142:
 1597              	.LBE69:
 476:..\kronos-c-sdk\src\http/http_client.c ****             if ( ret != 1 ) {
 1598              		.loc 1 476 0
 1599 05de 8EAA     		add	r2, sp, #568
 1600 05e0 0EA8     		add	r0, sp, #56
 1601              	.LVL238:
 1602 05e2 3E49     		ldr	r1, .L145+76
 1603 05e4 FFF7FEFF 		bl	sscanf
 1604              	.LVL239:
 1605 05e8 021E     		sub	r2, r0, #0
 1606              	.LVL240:
 477:..\kronos-c-sdk\src\http/http_client.c ****                 memmove(buf, crlfPtr+2, trfLen - (size_t)crlfPos);
 1607              		.loc 1 477 0
 1608 05ea 012A     		cmp	r2, #1
 1609 05ec BDD0     		beq	.L84
 478:..\kronos-c-sdk\src\http/http_client.c ****                 trfLen -= (size_t)crlfPos;
 1610              		.loc 1 478 0
 1611 05ee 039B     		ldr	r3, [sp, #12]
 1612 05f0 B11C     		add	r1, r6, #2
 1613 05f2 EA1A     		sub	r2, r5, r3
 1614 05f4 0EA8     		add	r0, sp, #56
 1615              	.LVL241:
 1616 05f6 FFF7FEFF 		bl	memmove
 1617              	.LVL242:
 1618 05fa 41E0     		b	.L135
 1619              	.LVL243:
 1620              	.L79:
 1621              	.LBE70:
 489:..\kronos-c-sdk\src\http/http_client.c ****         }
 1622              		.loc 1 489 0
 1623 05fc 8023     		mov	r3, #128
 1624 05fe DB00     		lsl	r3, r3, #3
 1625 0600 5B1B     		sub	r3, r3, r5
 1626 0602 8E93     		str	r3, [sp, #568]
 1627 0604 C2E7     		b	.L85
 1628              	.L95:
 1629              	.LBB71:
 493:..\kronos-c-sdk\src\http/http_client.c ****             size_t need_to_read = chunk_len < CHUNK_SIZE-10 ?
 1630              		.loc 1 493 0
 1631 0606 F62E     		cmp	r6, #246
 1632 0608 0ED9     		bls	.L89
 1633 060a F626     		mov	r6, #246
 1634              	.LVL244:
 494:..\kronos-c-sdk\src\http/http_client.c ****                     chunk_len : CHUNK_SIZE-10;
 495:..\kronos-c-sdk\src\http/http_client.c ****             while ( trfLen < need_to_read ) {
 1635              		.loc 1 495 0
 1636 060c 0CE0     		b	.L89
 1637              	.L92:
 1638              	.LVL245:
 1639              	.LBB72:
 496:..\kronos-c-sdk\src\http/http_client.c ****                 size_t newTrfLen = 0;
ARM GAS  C:\Users\ddemidov\AppData\Local\Temp\ccbakqUE.s 			page 41


 497:..\kronos-c-sdk\src\http/http_client.c ****                 ret = client_recv(buf+trfLen, need_to_read-trfLen, cli);
 1640              		.loc 1 497 0
 1641 060e 0EAB     		add	r3, sp, #56
 1642 0610 711B     		sub	r1, r6, r5
 1643 0612 5819     		add	r0, r3, r5
 1644 0614 89B2     		uxth	r1, r1
 1645 0616 221C     		mov	r2, r4
 1646 0618 A369     		ldr	r3, [r4, #24]
 1647 061a 9847     		blx	r3
 1648              	.LVL246:
 498:..\kronos-c-sdk\src\http/http_client.c ****                 if ( ret >= 0 ) newTrfLen = (size_t)ret;
 1649              		.loc 1 498 0
 1650 061c 0028     		cmp	r0, #0
 1651 061e 02DA     		bge	.L91
 1652              	.LVL247:
 499:..\kronos-c-sdk\src\http/http_client.c ****                 else { // ret < 0 - error
 500:..\kronos-c-sdk\src\http/http_client.c ****                     need_to_read = trfLen;
 501:..\kronos-c-sdk\src\http/http_client.c ****                     chunk_len = need_to_read;
 1653              		.loc 1 501 0
 1654 0620 2E1C     		mov	r6, r5
 502:..\kronos-c-sdk\src\http/http_client.c ****                     newTrfLen = 0;
 1655              		.loc 1 502 0
 1656 0622 0020     		mov	r0, #0
 1657              	.LVL248:
 501:..\kronos-c-sdk\src\http/http_client.c ****                     newTrfLen = 0;
 1658              		.loc 1 501 0
 1659 0624 8E95     		str	r5, [sp, #568]
 1660              	.LVL249:
 1661              	.L91:
 503:..\kronos-c-sdk\src\http/http_client.c ****                 }
 504:..\kronos-c-sdk\src\http/http_client.c ****                 trfLen += newTrfLen;
 1662              		.loc 1 504 0
 1663 0626 2D18     		add	r5, r5, r0
 1664              	.LVL250:
 1665              	.L89:
 1666              	.LBE72:
 495:..\kronos-c-sdk\src\http/http_client.c ****                 size_t newTrfLen = 0;
 1667              		.loc 1 495 0
 1668 0628 B542     		cmp	r5, r6
 1669 062a F0D3     		bcc	.L92
 505:..\kronos-c-sdk\src\http/http_client.c ****             }
 506:..\kronos-c-sdk\src\http/http_client.c ****             http_response_add_payload(res, buf, need_to_read);
 1670              		.loc 1 506 0
 1671 062c 381C     		mov	r0, r7
 1672 062e 0EA9     		add	r1, sp, #56
 1673 0630 321C     		mov	r2, r6
 1674 0632 FFF7FEFF 		bl	http_response_add_payload
 1675              	.LVL251:
 507:..\kronos-c-sdk\src\http/http_client.c ****             if ( trfLen == need_to_read ) {
 1676              		.loc 1 507 0
 1677 0636 B542     		cmp	r5, r6
 1678 0638 05D1     		bne	.L93
 1679              	.LVL252:
 508:..\kronos-c-sdk\src\http/http_client.c ****                 trfLen = 0;
 509:..\kronos-c-sdk\src\http/http_client.c ****                 buf[0] = 0;
 1680              		.loc 1 509 0
 1681 063a 2822     		mov	r2, #40
ARM GAS  C:\Users\ddemidov\AppData\Local\Temp\ccbakqUE.s 			page 42


 1682 063c 0025     		mov	r5, #0
 1683 063e 04AB     		add	r3, sp, #16
 1684 0640 9B18     		add	r3, r3, r2
 1685 0642 1D70     		strb	r5, [r3]
 1686 0644 06E0     		b	.L94
 1687              	.LVL253:
 1688              	.L93:
 510:..\kronos-c-sdk\src\http/http_client.c ****             } else {
 511:..\kronos-c-sdk\src\http/http_client.c ****                 memmove(buf, buf + need_to_read, trfLen - need_to_read);
 1689              		.loc 1 511 0
 1690 0646 0EAB     		add	r3, sp, #56
 1691 0648 AD1B     		sub	r5, r5, r6
 1692              	.LVL254:
 1693 064a 9919     		add	r1, r3, r6
 1694 064c 181C     		mov	r0, r3
 1695 064e 2A1C     		mov	r2, r5
 1696 0650 FFF7FEFF 		bl	memmove
 1697              	.LVL255:
 1698              	.L94:
 512:..\kronos-c-sdk\src\http/http_client.c ****                 trfLen -= need_to_read;
 513:..\kronos-c-sdk\src\http/http_client.c ****             }
 514:..\kronos-c-sdk\src\http/http_client.c ****             chunk_len -= need_to_read;
 1699              		.loc 1 514 0
 1700 0654 8E9B     		ldr	r3, [sp, #568]
 1701 0656 9E1B     		sub	r6, r3, r6
 1702              	.LVL256:
 1703 0658 8E96     		str	r6, [sp, #568]
 1704 065a 9AE7     		b	.L87
 1705              	.L141:
 1706              	.LBE71:
 515:..\kronos-c-sdk\src\http/http_client.c ****         }
 516:..\kronos-c-sdk\src\http/http_client.c ****     } while(1);
 517:..\kronos-c-sdk\src\http/http_client.c **** 
 518:..\kronos-c-sdk\src\http/http_client.c ****     DBG("body{%s}", res->payload.buf);
 1707              		.loc 1 518 0
 1708 065c 2048     		ldr	r0, .L145+80
 1709 065e F969     		ldr	r1, [r7, #28]
 1710 0660 FFF7FEFF 		bl	dbg_line
 1711              	.LVL257:
 519:..\kronos-c-sdk\src\http/http_client.c ****     soc_close(cli->sock);
 1712              		.loc 1 519 0
 1713 0664 2068     		ldr	r0, [r4]
 1714 0666 FFF7FEFF 		bl	soc_close
 1715              	.LVL258:
 520:..\kronos-c-sdk\src\http/http_client.c ****     return 0;
 1716              		.loc 1 520 0
 1717 066a 0CE0     		b	.L131
 1718              	.LVL259:
 1719              	.L105:
 1720              	.LBB73:
 1721              	.LBB64:
 1722              	.LBB63:
 249:..\kronos-c-sdk\src\http/http_client.c ****             newTrfLen = (size_t)ret;
 1723              		.loc 1 249 0
 1724 066c 011C     		mov	r1, r0
 1725 066e 01E0     		b	.L57
 1726              	.L106:
ARM GAS  C:\Users\ddemidov\AppData\Local\Temp\ccbakqUE.s 			page 43


 1727              	.LBE63:
 253:..\kronos-c-sdk\src\http/http_client.c ****         }
 1728              		.loc 1 253 0
 1729 0670 0121     		mov	r1, #1
 1730 0672 4942     		neg	r1, r1
 1731              	.L57:
 1732              	.LBE64:
 1733              	.LBE73:
 1734              	.LBB74:
 391:..\kronos-c-sdk\src\http/http_client.c ****         soc_close(cli->sock);
 1735              		.loc 1 391 0
 1736 0674 0E48     		ldr	r0, .L145+32
 1737 0676 FFF7FEFF 		bl	dbg_line
 1738              	.LVL260:
 1739              	.L136:
 392:..\kronos-c-sdk\src\http/http_client.c ****         return -1;
 1740              		.loc 1 392 0
 1741 067a 2068     		ldr	r0, [r4]
 1742 067c FFF7FEFF 		bl	soc_close
 1743              	.LVL261:
 1744              	.L135:
 393:..\kronos-c-sdk\src\http/http_client.c ****     }
 1745              		.loc 1 393 0
 1746 0680 0123     		mov	r3, #1
 1747 0682 5B42     		neg	r3, r3
 1748 0684 0293     		str	r3, [sp, #8]
 1749              	.L131:
 1750              	.LBE74:
 521:..\kronos-c-sdk\src\http/http_client.c **** }
 1751              		.loc 1 521 0
 1752 0686 0298     		ldr	r0, [sp, #8]
 1753 0688 CF23     		mov	r3, #207
 1754 068a 9B00     		lsl	r3, r3, #2
 1755 068c 9D44     		add	sp, sp, r3
 1756              		@ sp needed
 1757              	.LVL262:
 1758              	.LVL263:
 1759 068e F0BD     		pop	{r4, r5, r6, r7, pc}
 1760              	.L146:
 1761              		.align	2
 1762              	.L145:
 1763 0690 33010000 		.word	.LC54
 1764 0694 3E010000 		.word	.LC56
 1765 0698 4A010000 		.word	.LC58
 1766 069c 6A010000 		.word	.LC60
 1767 06a0 99010000 		.word	.LC62
 1768 06a4 AA010000 		.word	.LC64
 1769 06a8 B9010000 		.word	.LC66
 1770 06ac F3000000 		.word	.LC44
 1771 06b0 CC010000 		.word	.LC68
 1772 06b4 E2010000 		.word	.LC70
 1773 06b8 F4010000 		.word	.LC72
 1774 06bc 02020000 		.word	.LC74
 1775 06c0 11020000 		.word	.LC76
 1776 06c4 14020000 		.word	.LC78
 1777 06c8 26020000 		.word	.LC80
 1778 06cc 2E020000 		.word	.LC82
ARM GAS  C:\Users\ddemidov\AppData\Local\Temp\ccbakqUE.s 			page 44


 1779 06d0 36020000 		.word	.LC84
 1780 06d4 43020000 		.word	.LC86
 1781 06d8 5F020000 		.word	.LC90
 1782 06dc 5A020000 		.word	.LC88
 1783 06e0 73020000 		.word	.LC92
 1784              		.cfi_endproc
 1785              	.LFE12:
 1786              		.size	http_client_do, .-http_client_do
 1787              		.section	.rodata.str1.1,"aMS",%progbits,1
 1788              	.LC2:
 1789 0000 4552524F 		.ascii	"ERROR, no such host\000"
 1789      522C206E 
 1789      6F207375 
 1789      63682068 
 1789      6F737400 
 1790              	.LC4:
 1791 0014 636F6E6E 		.ascii	"connect fail\000"
 1791      65637420 
 1791      6661696C 
 1791      00
 1792              	.LC6:
 1793 0021 636F6E6E 		.ascii	"connect done\000"
 1793      65637420 
 1793      646F6E65 
 1793      00
 1794              	.LC8:
 1795 002e 756E6162 		.ascii	"unable to get ctx\000"
 1795      6C652074 
 1795      6F206765 
 1795      74206374 
 1795      7800
 1796              	.LC12:
 1797 0040 6F6F7073 		.ascii	"oops, bad SSL ptr\000"
 1797      2C206261 
 1797      64205353 
 1797      4C207074 
 1797      7200
 1798              	.LC14:
 1799 0052 53534C20 		.ascii	"SSL connect fail\000"
 1799      636F6E6E 
 1799      65637420 
 1799      6661696C 
 1799      00
 1800              	.LC16:
 1801 0063 53534C20 		.ascii	"SSL connect done\000"
 1801      636F6E6E 
 1801      65637420 
 1801      646F6E65 
 1801      00
 1802              	.LC22:
 1803 0074 25732025 		.ascii	"%s %s\000"
 1803      7300
 1804              	.LC24:
 1805 007a 3F00     		.ascii	"?\000"
 1806              	.LC26:
 1807 007c 3D00     		.ascii	"=\000"
 1808              	.LC28:
ARM GAS  C:\Users\ddemidov\AppData\Local\Temp\ccbakqUE.s 			page 45


 1809 007e 2600     		.ascii	"&\000"
 1810              	.LC30:
 1811 0080 20485454 		.ascii	" HTTP/1.1\015\012\000"
 1811      502F312E 
 1811      310D0A00 
 1812              	.LC32:
 1813 008c 486F7374 		.ascii	"Host: %s:%d\015\012\000"
 1813      3A202573 
 1813      3A25640D 
 1813      0A00
 1814              	.LC34:
 1815 009a 73656E64 		.ascii	"send start fail\000"
 1815      20737461 
 1815      72742066 
 1815      61696C00 
 1816              	.LC36:
 1817 00aa 5472616E 		.ascii	"Transfer-Encoding: chunked\015\012\000"
 1817      73666572 
 1817      2D456E63 
 1817      6F64696E 
 1817      673A2063 
 1818              	.LC38:
 1819 00c7 436F6E74 		.ascii	"Content-Length: %lu\015\012\000"
 1819      656E742D 
 1819      4C656E67 
 1819      74683A20 
 1819      256C750D 
 1820              	.LC40:
 1821 00dd 436F6E74 		.ascii	"Content-Type: %s\015\012\000"
 1821      656E742D 
 1821      54797065 
 1821      3A202573 
 1821      0D0A00
 1822              	.LC42:
 1823 00f0 3A2000   		.ascii	": \000"
 1824              	.LC44:
 1825 00f3 0D0A00   		.ascii	"\015\012\000"
 1826              	.LC46:
 1827 00f6 73656E64 		.ascii	"send header fail\000"
 1827      20686561 
 1827      64657220 
 1827      6661696C 
 1827      00
 1828              	.LC48:
 1829 0107 73656E64 		.ascii	"send payload fail\000"
 1829      20706179 
 1829      6C6F6164 
 1829      20666169 
 1829      6C00
 1830              	.LC50:
 1831 0119 25303258 		.ascii	"%02X\015\012\000"
 1831      0D0A00
 1832              	.LC52:
 1833 0120 52656365 		.ascii	"Receiving response\000"
 1833      6976696E 
 1833      67207265 
 1833      73706F6E 
ARM GAS  C:\Users\ddemidov\AppData\Local\Temp\ccbakqUE.s 			page 46


 1833      736500
 1834              	.LC54:
 1835 0133 72657370 		.ascii	"resp: {%s}\000"
 1835      3A207B25 
 1835      737D00
 1836              	.LC56:
 1837 013e 48545450 		.ascii	"HTTP/1.1 %d\000"
 1837      2F312E31 
 1837      20256400 
 1838              	.LC58:
 1839 014a 4E6F7420 		.ascii	"Not a correct HTTP answer : %s\012\000"
 1839      6120636F 
 1839      72726563 
 1839      74204854 
 1839      54502061 
 1840              	.LC60:
 1841 016a 72656365 		.ascii	"receive_response memmove warning [%08x] %d, %d\000"
 1841      6976655F 
 1841      72657370 
 1841      6F6E7365 
 1841      206D656D 
 1842              	.LC62:
 1843 0199 52657370 		.ascii	"Response code %d\000"
 1843      6F6E7365 
 1843      20636F64 
 1843      65202564 
 1843      00
 1844              	.LC64:
 1845 01aa 50726F74 		.ascii	"Protocol error\000"
 1845      6F636F6C 
 1845      20657272 
 1845      6F7200
 1846              	.LC66:
 1847 01b9 52656164 		.ascii	"Reading headers %d\000"
 1847      696E6720 
 1847      68656164 
 1847      65727320 
 1847      256400
 1848              	.LC68:
 1849 01cc 436F6E6E 		.ascii	"Connection error (%d)\000"
 1849      65637469 
 1849      6F6E2065 
 1849      72726F72 
 1849      20282564 
 1850              	.LC70:
 1851 01e2 48656164 		.ascii	"Headers read done\000"
 1851      65727320 
 1851      72656164 
 1851      20646F6E 
 1851      6500
 1852              	.LC72:
 1853 01f4 255B5E3A 		.ascii	"%[^:]: %[^\015\012]\000"
 1853      5D3A2025 
 1853      5B5E0D0A 
 1853      5D00
 1854              	.LC74:
 1855 0202 436F6E74 		.ascii	"Content-Length\000"
ARM GAS  C:\Users\ddemidov\AppData\Local\Temp\ccbakqUE.s 			page 47


 1855      656E742D 
 1855      4C656E67 
 1855      746800
 1856              	.LC76:
 1857 0211 256400   		.ascii	"%d\000"
 1858              	.LC78:
 1859 0214 5472616E 		.ascii	"Transfer-Encoding\000"
 1859      73666572 
 1859      2D456E63 
 1859      6F64696E 
 1859      6700
 1860              	.LC80:
 1861 0226 4368756E 		.ascii	"Chunked\000"
 1861      6B656400 
 1862              	.LC82:
 1863 022e 6368756E 		.ascii	"chunked\000"
 1863      6B656400 
 1864              	.LC84:
 1865 0236 436F6E74 		.ascii	"Content-Type\000"
 1865      656E742D 
 1865      54797065 
 1865      00
 1866              	.LC86:
 1867 0243 436F756C 		.ascii	"Could not parse header\000"
 1867      64206E6F 
 1867      74207061 
 1867      72736520 
 1867      68656164 
 1868              	.LC88:
 1869 025a 25780D0A 		.ascii	"%x\015\012\000"
 1869      00
 1870              	.LC90:
 1871 025f 64657465 		.ascii	"detect chunk %d, %d\000"
 1871      63742063 
 1871      68756E6B 
 1871      2025642C 
 1871      20256400 
 1872              	.LC92:
 1873 0273 626F6479 		.ascii	"body{%s}\000"
 1873      7B25737D 
 1873      00
 1874              		.text
 1875              	.Letext0:
 1876              		.file 2 "c:\\program files (x86)\\cypress\\psoc creator\\3.3\\psoc creator\\import\\gnu\\arm\\4.9.
 1877              		.file 3 "c:\\program files (x86)\\cypress\\psoc creator\\3.3\\psoc creator\\import\\gnu\\arm\\4.9.
 1878              		.file 4 "c:\\program files (x86)\\cypress\\psoc creator\\3.3\\psoc creator\\import\\gnu\\arm\\4.9.
 1879              		.file 5 "..\\kronos-c-sdk\\include/http/request.h"
 1880              		.file 6 "..\\kronos-c-sdk\\src\\wolfSSL/wolfssl/ssl.h"
 1881              		.file 7 "..\\kronos-c-sdk\\include/http/client.h"
 1882              		.file 8 "..\\kronos-c-sdk/platforms/common/bsd/sockdef.h"
 1883              		.file 9 "..\\kronos-c-sdk\\include/bsd/socket.h"
 1884              		.file 10 "c:\\program files (x86)\\cypress\\psoc creator\\3.3\\psoc creator\\import\\gnu\\arm\\4.9
 1885              		.file 11 "<built-in>"
 1886              		.file 12 "c:\\program files (x86)\\cypress\\psoc creator\\3.3\\psoc creator\\import\\gnu\\arm\\4.9
 1887              		.file 13 "..\\kronos-c-sdk/platforms/senseability/trace.h"
 1888              		.file 14 "..\\kronos-c-sdk\\include/bsd/inet.h"