ARM GAS  C:\Users\ddemidov\AppData\Local\Temp\cctIQO8F.s 			page 1


   1              		.cpu cortex-m0
   2              		.fpu softvfp
   3              		.eabi_attribute 20, 1
   4              		.eabi_attribute 21, 1
   5              		.eabi_attribute 23, 3
   6              		.eabi_attribute 24, 1
   7              		.eabi_attribute 25, 1
   8              		.eabi_attribute 26, 1
   9              		.eabi_attribute 30, 4
  10              		.eabi_attribute 34, 0
  11              		.eabi_attribute 18, 4
  12              		.code	16
  13              		.file	"I2CM.c"
  14              		.text
  15              	.Ltext0:
  16              		.cfi_sections	.debug_frame
  17              		.section	.text.I2CM_Init,"ax",%progbits
  18              		.align	1
  19              		.global	I2CM_Init
  20              		.code	16
  21              		.thumb_func
  22              		.type	I2CM_Init, %function
  23              	I2CM_Init:
  24              	.LFB2:
  25              		.file 1 ".\\Generated_Source\\PSoC4\\I2CM.c"
   1:.\Generated_Source\PSoC4/I2CM.c **** /*******************************************************************************
   2:.\Generated_Source\PSoC4/I2CM.c **** * File Name: I2CM.c
   3:.\Generated_Source\PSoC4/I2CM.c **** * Version 3.0
   4:.\Generated_Source\PSoC4/I2CM.c **** *
   5:.\Generated_Source\PSoC4/I2CM.c **** * Description:
   6:.\Generated_Source\PSoC4/I2CM.c **** *  This file provides the source code to the API for the SCB Component.
   7:.\Generated_Source\PSoC4/I2CM.c **** *
   8:.\Generated_Source\PSoC4/I2CM.c **** * Note:
   9:.\Generated_Source\PSoC4/I2CM.c **** *
  10:.\Generated_Source\PSoC4/I2CM.c **** *******************************************************************************
  11:.\Generated_Source\PSoC4/I2CM.c **** * Copyright 2013-2015, Cypress Semiconductor Corporation.  All rights reserved.
  12:.\Generated_Source\PSoC4/I2CM.c **** * You may use this file only in accordance with the license, terms, conditions,
  13:.\Generated_Source\PSoC4/I2CM.c **** * disclaimers, and limitations in the end user license agreement accompanying
  14:.\Generated_Source\PSoC4/I2CM.c **** * the software package with which this file was provided.
  15:.\Generated_Source\PSoC4/I2CM.c **** *******************************************************************************/
  16:.\Generated_Source\PSoC4/I2CM.c **** 
  17:.\Generated_Source\PSoC4/I2CM.c **** #include "I2CM_PVT.h"
  18:.\Generated_Source\PSoC4/I2CM.c **** 
  19:.\Generated_Source\PSoC4/I2CM.c **** #if (I2CM_SCB_MODE_I2C_INC)
  20:.\Generated_Source\PSoC4/I2CM.c ****     #include "I2CM_I2C_PVT.h"
  21:.\Generated_Source\PSoC4/I2CM.c **** #endif /* (I2CM_SCB_MODE_I2C_INC) */
  22:.\Generated_Source\PSoC4/I2CM.c **** 
  23:.\Generated_Source\PSoC4/I2CM.c **** #if (I2CM_SCB_MODE_EZI2C_INC)
  24:.\Generated_Source\PSoC4/I2CM.c ****     #include "I2CM_EZI2C_PVT.h"
  25:.\Generated_Source\PSoC4/I2CM.c **** #endif /* (I2CM_SCB_MODE_EZI2C_INC) */
  26:.\Generated_Source\PSoC4/I2CM.c **** 
  27:.\Generated_Source\PSoC4/I2CM.c **** #if (I2CM_SCB_MODE_SPI_INC || I2CM_SCB_MODE_UART_INC)
  28:.\Generated_Source\PSoC4/I2CM.c ****     #include "I2CM_SPI_UART_PVT.h"
  29:.\Generated_Source\PSoC4/I2CM.c **** #endif /* (I2CM_SCB_MODE_SPI_INC || I2CM_SCB_MODE_UART_INC) */
  30:.\Generated_Source\PSoC4/I2CM.c **** 
  31:.\Generated_Source\PSoC4/I2CM.c **** 
  32:.\Generated_Source\PSoC4/I2CM.c **** /***************************************
ARM GAS  C:\Users\ddemidov\AppData\Local\Temp\cctIQO8F.s 			page 2


  33:.\Generated_Source\PSoC4/I2CM.c **** *    Run Time Configuration Vars
  34:.\Generated_Source\PSoC4/I2CM.c **** ***************************************/
  35:.\Generated_Source\PSoC4/I2CM.c **** 
  36:.\Generated_Source\PSoC4/I2CM.c **** /* Stores internal component configuration for Unconfigured mode */
  37:.\Generated_Source\PSoC4/I2CM.c **** #if (I2CM_SCB_MODE_UNCONFIG_CONST_CFG)
  38:.\Generated_Source\PSoC4/I2CM.c ****     /* Common configuration variables */
  39:.\Generated_Source\PSoC4/I2CM.c ****     uint8 I2CM_scbMode = I2CM_SCB_MODE_UNCONFIG;
  40:.\Generated_Source\PSoC4/I2CM.c ****     uint8 I2CM_scbEnableWake;
  41:.\Generated_Source\PSoC4/I2CM.c ****     uint8 I2CM_scbEnableIntr;
  42:.\Generated_Source\PSoC4/I2CM.c **** 
  43:.\Generated_Source\PSoC4/I2CM.c ****     /* I2C configuration variables */
  44:.\Generated_Source\PSoC4/I2CM.c ****     uint8 I2CM_mode;
  45:.\Generated_Source\PSoC4/I2CM.c ****     uint8 I2CM_acceptAddr;
  46:.\Generated_Source\PSoC4/I2CM.c **** 
  47:.\Generated_Source\PSoC4/I2CM.c ****     /* SPI/UART configuration variables */
  48:.\Generated_Source\PSoC4/I2CM.c ****     volatile uint8 * I2CM_rxBuffer;
  49:.\Generated_Source\PSoC4/I2CM.c ****     uint8  I2CM_rxDataBits;
  50:.\Generated_Source\PSoC4/I2CM.c ****     uint32 I2CM_rxBufferSize;
  51:.\Generated_Source\PSoC4/I2CM.c **** 
  52:.\Generated_Source\PSoC4/I2CM.c ****     volatile uint8 * I2CM_txBuffer;
  53:.\Generated_Source\PSoC4/I2CM.c ****     uint8  I2CM_txDataBits;
  54:.\Generated_Source\PSoC4/I2CM.c ****     uint32 I2CM_txBufferSize;
  55:.\Generated_Source\PSoC4/I2CM.c **** 
  56:.\Generated_Source\PSoC4/I2CM.c ****     /* EZI2C configuration variables */
  57:.\Generated_Source\PSoC4/I2CM.c ****     uint8 I2CM_numberOfAddr;
  58:.\Generated_Source\PSoC4/I2CM.c ****     uint8 I2CM_subAddrSize;
  59:.\Generated_Source\PSoC4/I2CM.c **** #endif /* (I2CM_SCB_MODE_UNCONFIG_CONST_CFG) */
  60:.\Generated_Source\PSoC4/I2CM.c **** 
  61:.\Generated_Source\PSoC4/I2CM.c **** 
  62:.\Generated_Source\PSoC4/I2CM.c **** /***************************************
  63:.\Generated_Source\PSoC4/I2CM.c **** *     Common SCB Vars
  64:.\Generated_Source\PSoC4/I2CM.c **** ***************************************/
  65:.\Generated_Source\PSoC4/I2CM.c **** 
  66:.\Generated_Source\PSoC4/I2CM.c **** uint8 I2CM_initVar = 0u;
  67:.\Generated_Source\PSoC4/I2CM.c **** 
  68:.\Generated_Source\PSoC4/I2CM.c **** #if (I2CM_SCB_IRQ_INTERNAL)
  69:.\Generated_Source\PSoC4/I2CM.c **** #if !defined (CY_REMOVE_I2CM_CUSTOM_INTR_HANDLER)
  70:.\Generated_Source\PSoC4/I2CM.c ****     void (*I2CM_customIntrHandler)(void) = NULL;
  71:.\Generated_Source\PSoC4/I2CM.c **** #endif /* !defined (CY_REMOVE_I2CM_CUSTOM_INTR_HANDLER) */
  72:.\Generated_Source\PSoC4/I2CM.c **** #endif /* (I2CM_SCB_IRQ_INTERNAL) */
  73:.\Generated_Source\PSoC4/I2CM.c **** 
  74:.\Generated_Source\PSoC4/I2CM.c **** 
  75:.\Generated_Source\PSoC4/I2CM.c **** /***************************************
  76:.\Generated_Source\PSoC4/I2CM.c **** *    Private Function Prototypes
  77:.\Generated_Source\PSoC4/I2CM.c **** ***************************************/
  78:.\Generated_Source\PSoC4/I2CM.c **** 
  79:.\Generated_Source\PSoC4/I2CM.c **** static void I2CM_ScbEnableIntr(void);
  80:.\Generated_Source\PSoC4/I2CM.c **** static void I2CM_ScbModeStop(void);
  81:.\Generated_Source\PSoC4/I2CM.c **** static void I2CM_ScbModePostEnable(void);
  82:.\Generated_Source\PSoC4/I2CM.c **** 
  83:.\Generated_Source\PSoC4/I2CM.c **** 
  84:.\Generated_Source\PSoC4/I2CM.c **** /*******************************************************************************
  85:.\Generated_Source\PSoC4/I2CM.c **** * Function Name: I2CM_Init
  86:.\Generated_Source\PSoC4/I2CM.c **** ********************************************************************************
  87:.\Generated_Source\PSoC4/I2CM.c **** *
  88:.\Generated_Source\PSoC4/I2CM.c **** * Summary:
  89:.\Generated_Source\PSoC4/I2CM.c **** *  Initializes the SCB component to operate in one of the selected
ARM GAS  C:\Users\ddemidov\AppData\Local\Temp\cctIQO8F.s 			page 3


  90:.\Generated_Source\PSoC4/I2CM.c **** *  configurations: I2C, SPI, UART or EZI2C.
  91:.\Generated_Source\PSoC4/I2CM.c **** *  When the configuration is set to "Unconfigured SCB", this function does
  92:.\Generated_Source\PSoC4/I2CM.c **** *  not do any initialization. Use mode-specific initialization APIs instead:
  93:.\Generated_Source\PSoC4/I2CM.c **** *  SCB_I2CInit, SCB_SpiInit, SCB_UartInit or SCB_EzI2CInit.
  94:.\Generated_Source\PSoC4/I2CM.c **** *
  95:.\Generated_Source\PSoC4/I2CM.c **** * Parameters:
  96:.\Generated_Source\PSoC4/I2CM.c **** *  None
  97:.\Generated_Source\PSoC4/I2CM.c **** *
  98:.\Generated_Source\PSoC4/I2CM.c **** * Return:
  99:.\Generated_Source\PSoC4/I2CM.c **** *  None
 100:.\Generated_Source\PSoC4/I2CM.c **** *
 101:.\Generated_Source\PSoC4/I2CM.c **** *******************************************************************************/
 102:.\Generated_Source\PSoC4/I2CM.c **** void I2CM_Init(void)
 103:.\Generated_Source\PSoC4/I2CM.c **** {
  26              		.loc 1 103 0
  27              		.cfi_startproc
  28 0000 08B5     		push	{r3, lr}
  29              		.cfi_def_cfa_offset 8
  30              		.cfi_offset 3, -8
  31              		.cfi_offset 14, -4
 104:.\Generated_Source\PSoC4/I2CM.c **** #if (I2CM_SCB_MODE_UNCONFIG_CONST_CFG)
 105:.\Generated_Source\PSoC4/I2CM.c ****     if (I2CM_SCB_MODE_UNCONFIG_RUNTM_CFG)
 106:.\Generated_Source\PSoC4/I2CM.c ****     {
 107:.\Generated_Source\PSoC4/I2CM.c ****         I2CM_initVar = 0u;
 108:.\Generated_Source\PSoC4/I2CM.c ****     }
 109:.\Generated_Source\PSoC4/I2CM.c ****     else
 110:.\Generated_Source\PSoC4/I2CM.c ****     {
 111:.\Generated_Source\PSoC4/I2CM.c ****         /* Initialization was done before this function call */
 112:.\Generated_Source\PSoC4/I2CM.c ****     }
 113:.\Generated_Source\PSoC4/I2CM.c **** 
 114:.\Generated_Source\PSoC4/I2CM.c **** #elif (I2CM_SCB_MODE_I2C_CONST_CFG)
 115:.\Generated_Source\PSoC4/I2CM.c ****     I2CM_I2CInit();
  32              		.loc 1 115 0
  33 0002 FFF7FEFF 		bl	I2CM_I2CInit
  34              	.LVL0:
 116:.\Generated_Source\PSoC4/I2CM.c **** 
 117:.\Generated_Source\PSoC4/I2CM.c **** #elif (I2CM_SCB_MODE_SPI_CONST_CFG)
 118:.\Generated_Source\PSoC4/I2CM.c ****     I2CM_SpiInit();
 119:.\Generated_Source\PSoC4/I2CM.c **** 
 120:.\Generated_Source\PSoC4/I2CM.c **** #elif (I2CM_SCB_MODE_UART_CONST_CFG)
 121:.\Generated_Source\PSoC4/I2CM.c ****     I2CM_UartInit();
 122:.\Generated_Source\PSoC4/I2CM.c **** 
 123:.\Generated_Source\PSoC4/I2CM.c **** #elif (I2CM_SCB_MODE_EZI2C_CONST_CFG)
 124:.\Generated_Source\PSoC4/I2CM.c ****     I2CM_EzI2CInit();
 125:.\Generated_Source\PSoC4/I2CM.c **** 
 126:.\Generated_Source\PSoC4/I2CM.c **** #endif /* (I2CM_SCB_MODE_UNCONFIG_CONST_CFG) */
 127:.\Generated_Source\PSoC4/I2CM.c **** }
  35              		.loc 1 127 0
  36              		@ sp needed
  37 0006 08BD     		pop	{r3, pc}
  38              		.cfi_endproc
  39              	.LFE2:
  40              		.size	I2CM_Init, .-I2CM_Init
  41              		.section	.text.I2CM_Enable,"ax",%progbits
  42              		.align	1
  43              		.global	I2CM_Enable
  44              		.code	16
ARM GAS  C:\Users\ddemidov\AppData\Local\Temp\cctIQO8F.s 			page 4


  45              		.thumb_func
  46              		.type	I2CM_Enable, %function
  47              	I2CM_Enable:
  48              	.LFB3:
 128:.\Generated_Source\PSoC4/I2CM.c **** 
 129:.\Generated_Source\PSoC4/I2CM.c **** 
 130:.\Generated_Source\PSoC4/I2CM.c **** /*******************************************************************************
 131:.\Generated_Source\PSoC4/I2CM.c **** * Function Name: I2CM_Enable
 132:.\Generated_Source\PSoC4/I2CM.c **** ********************************************************************************
 133:.\Generated_Source\PSoC4/I2CM.c **** *
 134:.\Generated_Source\PSoC4/I2CM.c **** * Summary:
 135:.\Generated_Source\PSoC4/I2CM.c **** *  Enables the SCB component operation.
 136:.\Generated_Source\PSoC4/I2CM.c **** *  The SCB configuration should be not changed when the component is enabled.
 137:.\Generated_Source\PSoC4/I2CM.c **** *  Any configuration changes should be made after disabling the component.
 138:.\Generated_Source\PSoC4/I2CM.c **** *
 139:.\Generated_Source\PSoC4/I2CM.c **** * Parameters:
 140:.\Generated_Source\PSoC4/I2CM.c **** *  None
 141:.\Generated_Source\PSoC4/I2CM.c **** *
 142:.\Generated_Source\PSoC4/I2CM.c **** * Return:
 143:.\Generated_Source\PSoC4/I2CM.c **** *  None
 144:.\Generated_Source\PSoC4/I2CM.c **** *
 145:.\Generated_Source\PSoC4/I2CM.c **** *******************************************************************************/
 146:.\Generated_Source\PSoC4/I2CM.c **** void I2CM_Enable(void)
 147:.\Generated_Source\PSoC4/I2CM.c **** {
  49              		.loc 1 147 0
  50              		.cfi_startproc
 148:.\Generated_Source\PSoC4/I2CM.c **** #if (I2CM_SCB_MODE_UNCONFIG_CONST_CFG)
 149:.\Generated_Source\PSoC4/I2CM.c ****     /* Enable SCB block, only if it is already configured */
 150:.\Generated_Source\PSoC4/I2CM.c ****     if (!I2CM_SCB_MODE_UNCONFIG_RUNTM_CFG)
 151:.\Generated_Source\PSoC4/I2CM.c ****     {
 152:.\Generated_Source\PSoC4/I2CM.c ****         I2CM_CTRL_REG |= I2CM_CTRL_ENABLED;
 153:.\Generated_Source\PSoC4/I2CM.c **** 
 154:.\Generated_Source\PSoC4/I2CM.c ****         I2CM_ScbEnableIntr();
 155:.\Generated_Source\PSoC4/I2CM.c **** 
 156:.\Generated_Source\PSoC4/I2CM.c ****         /* Call PostEnable function specific to current operation mode */
 157:.\Generated_Source\PSoC4/I2CM.c ****         I2CM_ScbModePostEnable();
 158:.\Generated_Source\PSoC4/I2CM.c ****     }
 159:.\Generated_Source\PSoC4/I2CM.c **** #else
 160:.\Generated_Source\PSoC4/I2CM.c ****     I2CM_CTRL_REG |= I2CM_CTRL_ENABLED;
  51              		.loc 1 160 0
  52 0000 8021     		mov	r1, #128
  53 0002 054A     		ldr	r2, .L3
 147:.\Generated_Source\PSoC4/I2CM.c **** #if (I2CM_SCB_MODE_UNCONFIG_CONST_CFG)
  54              		.loc 1 147 0
  55 0004 08B5     		push	{r3, lr}
  56              		.cfi_def_cfa_offset 8
  57              		.cfi_offset 3, -8
  58              		.cfi_offset 14, -4
  59              		.loc 1 160 0
  60 0006 1368     		ldr	r3, [r2]
  61 0008 0906     		lsl	r1, r1, #24
  62 000a 0B43     		orr	r3, r1
  63 000c 1360     		str	r3, [r2]
  64              	.LBB10:
  65              	.LBB11:
 161:.\Generated_Source\PSoC4/I2CM.c **** 
 162:.\Generated_Source\PSoC4/I2CM.c ****     I2CM_ScbEnableIntr();
ARM GAS  C:\Users\ddemidov\AppData\Local\Temp\cctIQO8F.s 			page 5


 163:.\Generated_Source\PSoC4/I2CM.c **** 
 164:.\Generated_Source\PSoC4/I2CM.c ****     /* Call PostEnable function specific to current operation mode */
 165:.\Generated_Source\PSoC4/I2CM.c ****     I2CM_ScbModePostEnable();
 166:.\Generated_Source\PSoC4/I2CM.c **** #endif /* (I2CM_SCB_MODE_UNCONFIG_CONST_CFG) */
 167:.\Generated_Source\PSoC4/I2CM.c **** }
 168:.\Generated_Source\PSoC4/I2CM.c **** 
 169:.\Generated_Source\PSoC4/I2CM.c **** 
 170:.\Generated_Source\PSoC4/I2CM.c **** /*******************************************************************************
 171:.\Generated_Source\PSoC4/I2CM.c **** * Function Name: I2CM_Start
 172:.\Generated_Source\PSoC4/I2CM.c **** ********************************************************************************
 173:.\Generated_Source\PSoC4/I2CM.c **** *
 174:.\Generated_Source\PSoC4/I2CM.c **** * Summary:
 175:.\Generated_Source\PSoC4/I2CM.c **** *  Invokes SCB_Init() and SCB_Enable().
 176:.\Generated_Source\PSoC4/I2CM.c **** *  After this function call, the component is enabled and ready for operation.
 177:.\Generated_Source\PSoC4/I2CM.c **** *  When configuration is set to "Unconfigured SCB", the component must first be
 178:.\Generated_Source\PSoC4/I2CM.c **** *  initialized to operate in one of the following configurations: I2C, SPI, UART
 179:.\Generated_Source\PSoC4/I2CM.c **** *  or EZ I2C. Otherwise this function does not enable the component.
 180:.\Generated_Source\PSoC4/I2CM.c **** *
 181:.\Generated_Source\PSoC4/I2CM.c **** * Parameters:
 182:.\Generated_Source\PSoC4/I2CM.c **** *  None
 183:.\Generated_Source\PSoC4/I2CM.c **** *
 184:.\Generated_Source\PSoC4/I2CM.c **** * Return:
 185:.\Generated_Source\PSoC4/I2CM.c **** *  None
 186:.\Generated_Source\PSoC4/I2CM.c **** *
 187:.\Generated_Source\PSoC4/I2CM.c **** * Global variables:
 188:.\Generated_Source\PSoC4/I2CM.c **** *  I2CM_initVar - used to check initial configuration, modified
 189:.\Generated_Source\PSoC4/I2CM.c **** *  on first function call.
 190:.\Generated_Source\PSoC4/I2CM.c **** *
 191:.\Generated_Source\PSoC4/I2CM.c **** *******************************************************************************/
 192:.\Generated_Source\PSoC4/I2CM.c **** void I2CM_Start(void)
 193:.\Generated_Source\PSoC4/I2CM.c **** {
 194:.\Generated_Source\PSoC4/I2CM.c ****     if (0u == I2CM_initVar)
 195:.\Generated_Source\PSoC4/I2CM.c ****     {
 196:.\Generated_Source\PSoC4/I2CM.c ****         I2CM_Init();
 197:.\Generated_Source\PSoC4/I2CM.c ****         I2CM_initVar = 1u; /* Component was initialized */
 198:.\Generated_Source\PSoC4/I2CM.c ****     }
 199:.\Generated_Source\PSoC4/I2CM.c **** 
 200:.\Generated_Source\PSoC4/I2CM.c ****     I2CM_Enable();
 201:.\Generated_Source\PSoC4/I2CM.c **** }
 202:.\Generated_Source\PSoC4/I2CM.c **** 
 203:.\Generated_Source\PSoC4/I2CM.c **** 
 204:.\Generated_Source\PSoC4/I2CM.c **** /*******************************************************************************
 205:.\Generated_Source\PSoC4/I2CM.c **** * Function Name: I2CM_Stop
 206:.\Generated_Source\PSoC4/I2CM.c **** ********************************************************************************
 207:.\Generated_Source\PSoC4/I2CM.c **** *
 208:.\Generated_Source\PSoC4/I2CM.c **** * Summary:
 209:.\Generated_Source\PSoC4/I2CM.c **** *  Disables the SCB component and its interrupt.
 210:.\Generated_Source\PSoC4/I2CM.c **** *  It also disables all TX interrupt sources so as not to cause an unexpected
 211:.\Generated_Source\PSoC4/I2CM.c **** *  interrupt trigger because after the component is enabled, the TX FIFO 
 212:.\Generated_Source\PSoC4/I2CM.c **** *  is empty.
 213:.\Generated_Source\PSoC4/I2CM.c **** *
 214:.\Generated_Source\PSoC4/I2CM.c **** * Parameters:
 215:.\Generated_Source\PSoC4/I2CM.c **** *  None
 216:.\Generated_Source\PSoC4/I2CM.c **** *
 217:.\Generated_Source\PSoC4/I2CM.c **** * Return:
 218:.\Generated_Source\PSoC4/I2CM.c **** *  None
 219:.\Generated_Source\PSoC4/I2CM.c **** * 
ARM GAS  C:\Users\ddemidov\AppData\Local\Temp\cctIQO8F.s 			page 6


 220:.\Generated_Source\PSoC4/I2CM.c **** *******************************************************************************/
 221:.\Generated_Source\PSoC4/I2CM.c **** void I2CM_Stop(void)
 222:.\Generated_Source\PSoC4/I2CM.c **** {
 223:.\Generated_Source\PSoC4/I2CM.c **** #if (I2CM_SCB_IRQ_INTERNAL)
 224:.\Generated_Source\PSoC4/I2CM.c ****     I2CM_DisableInt();
 225:.\Generated_Source\PSoC4/I2CM.c **** #endif /* (I2CM_SCB_IRQ_INTERNAL) */
 226:.\Generated_Source\PSoC4/I2CM.c **** 
 227:.\Generated_Source\PSoC4/I2CM.c ****     /* Call Stop function specific to current operation mode */
 228:.\Generated_Source\PSoC4/I2CM.c ****     I2CM_ScbModeStop();
 229:.\Generated_Source\PSoC4/I2CM.c **** 
 230:.\Generated_Source\PSoC4/I2CM.c ****     /* Disable SCB IP */
 231:.\Generated_Source\PSoC4/I2CM.c ****     I2CM_CTRL_REG &= (uint32) ~I2CM_CTRL_ENABLED;
 232:.\Generated_Source\PSoC4/I2CM.c **** 
 233:.\Generated_Source\PSoC4/I2CM.c ****     /* Disable all TX interrupt sources so as not to cause an unexpected
 234:.\Generated_Source\PSoC4/I2CM.c ****     * interrupt trigger because after the component is enabled, the TX FIFO
 235:.\Generated_Source\PSoC4/I2CM.c ****     * is empty.
 236:.\Generated_Source\PSoC4/I2CM.c ****     * For SCB IP v0, it is critical as it does not mask-out interrupt
 237:.\Generated_Source\PSoC4/I2CM.c ****     * sources when they are disabled. This can cause a code lock-up in the
 238:.\Generated_Source\PSoC4/I2CM.c ****     * interrupt handler because TX FIFO cannot be loaded after the block
 239:.\Generated_Source\PSoC4/I2CM.c ****     * is disabled.
 240:.\Generated_Source\PSoC4/I2CM.c ****     */
 241:.\Generated_Source\PSoC4/I2CM.c ****     I2CM_SetTxInterruptMode(I2CM_NO_INTR_SOURCES);
 242:.\Generated_Source\PSoC4/I2CM.c **** 
 243:.\Generated_Source\PSoC4/I2CM.c **** #if (I2CM_SCB_IRQ_INTERNAL)
 244:.\Generated_Source\PSoC4/I2CM.c ****     I2CM_ClearPendingInt();
 245:.\Generated_Source\PSoC4/I2CM.c **** #endif /* (I2CM_SCB_IRQ_INTERNAL) */
 246:.\Generated_Source\PSoC4/I2CM.c **** }
 247:.\Generated_Source\PSoC4/I2CM.c **** 
 248:.\Generated_Source\PSoC4/I2CM.c **** 
 249:.\Generated_Source\PSoC4/I2CM.c **** /*******************************************************************************
 250:.\Generated_Source\PSoC4/I2CM.c **** * Function Name: I2CM_SetRxFifoLevel
 251:.\Generated_Source\PSoC4/I2CM.c **** ********************************************************************************
 252:.\Generated_Source\PSoC4/I2CM.c **** *
 253:.\Generated_Source\PSoC4/I2CM.c **** * Summary:
 254:.\Generated_Source\PSoC4/I2CM.c **** *  Sets level in the RX FIFO to generate a RX level interrupt.
 255:.\Generated_Source\PSoC4/I2CM.c **** *  When the RX FIFO has more entries than the RX FIFO level an RX level
 256:.\Generated_Source\PSoC4/I2CM.c **** *  interrupt request is generated.
 257:.\Generated_Source\PSoC4/I2CM.c **** *
 258:.\Generated_Source\PSoC4/I2CM.c **** * Parameters:
 259:.\Generated_Source\PSoC4/I2CM.c **** *  level: Level in the RX FIFO to generate RX level interrupt.
 260:.\Generated_Source\PSoC4/I2CM.c **** *         The range of valid level values is between 0 and RX FIFO depth - 1.
 261:.\Generated_Source\PSoC4/I2CM.c **** *
 262:.\Generated_Source\PSoC4/I2CM.c **** * Return:
 263:.\Generated_Source\PSoC4/I2CM.c **** *  None
 264:.\Generated_Source\PSoC4/I2CM.c **** *
 265:.\Generated_Source\PSoC4/I2CM.c **** *******************************************************************************/
 266:.\Generated_Source\PSoC4/I2CM.c **** void I2CM_SetRxFifoLevel(uint32 level)
 267:.\Generated_Source\PSoC4/I2CM.c **** {
 268:.\Generated_Source\PSoC4/I2CM.c ****     uint32 rxFifoCtrl;
 269:.\Generated_Source\PSoC4/I2CM.c **** 
 270:.\Generated_Source\PSoC4/I2CM.c ****     rxFifoCtrl = I2CM_RX_FIFO_CTRL_REG;
 271:.\Generated_Source\PSoC4/I2CM.c **** 
 272:.\Generated_Source\PSoC4/I2CM.c ****     rxFifoCtrl &= ((uint32) ~I2CM_RX_FIFO_CTRL_TRIGGER_LEVEL_MASK); /* Clear level mask bits */
 273:.\Generated_Source\PSoC4/I2CM.c ****     rxFifoCtrl |= ((uint32) (I2CM_RX_FIFO_CTRL_TRIGGER_LEVEL_MASK & level));
 274:.\Generated_Source\PSoC4/I2CM.c **** 
 275:.\Generated_Source\PSoC4/I2CM.c ****     I2CM_RX_FIFO_CTRL_REG = rxFifoCtrl;
 276:.\Generated_Source\PSoC4/I2CM.c **** }
ARM GAS  C:\Users\ddemidov\AppData\Local\Temp\cctIQO8F.s 			page 7


 277:.\Generated_Source\PSoC4/I2CM.c **** 
 278:.\Generated_Source\PSoC4/I2CM.c **** 
 279:.\Generated_Source\PSoC4/I2CM.c **** /*******************************************************************************
 280:.\Generated_Source\PSoC4/I2CM.c **** * Function Name: I2CM_SetTxFifoLevel
 281:.\Generated_Source\PSoC4/I2CM.c **** ********************************************************************************
 282:.\Generated_Source\PSoC4/I2CM.c **** *
 283:.\Generated_Source\PSoC4/I2CM.c **** * Summary:
 284:.\Generated_Source\PSoC4/I2CM.c **** *  Sets level in the TX FIFO to generate a TX level interrupt.
 285:.\Generated_Source\PSoC4/I2CM.c **** *  When the TX FIFO has more entries than the TX FIFO level an TX level
 286:.\Generated_Source\PSoC4/I2CM.c **** *  interrupt request is generated.
 287:.\Generated_Source\PSoC4/I2CM.c **** *
 288:.\Generated_Source\PSoC4/I2CM.c **** * Parameters:
 289:.\Generated_Source\PSoC4/I2CM.c **** *  level: Level in the TX FIFO to generate TX level interrupt.
 290:.\Generated_Source\PSoC4/I2CM.c **** *         The range of valid level values is between 0 and TX FIFO depth - 1.
 291:.\Generated_Source\PSoC4/I2CM.c **** *
 292:.\Generated_Source\PSoC4/I2CM.c **** * Return:
 293:.\Generated_Source\PSoC4/I2CM.c **** *  None
 294:.\Generated_Source\PSoC4/I2CM.c **** *
 295:.\Generated_Source\PSoC4/I2CM.c **** *******************************************************************************/
 296:.\Generated_Source\PSoC4/I2CM.c **** void I2CM_SetTxFifoLevel(uint32 level)
 297:.\Generated_Source\PSoC4/I2CM.c **** {
 298:.\Generated_Source\PSoC4/I2CM.c ****     uint32 txFifoCtrl;
 299:.\Generated_Source\PSoC4/I2CM.c **** 
 300:.\Generated_Source\PSoC4/I2CM.c ****     txFifoCtrl = I2CM_TX_FIFO_CTRL_REG;
 301:.\Generated_Source\PSoC4/I2CM.c **** 
 302:.\Generated_Source\PSoC4/I2CM.c ****     txFifoCtrl &= ((uint32) ~I2CM_TX_FIFO_CTRL_TRIGGER_LEVEL_MASK); /* Clear level mask bits */
 303:.\Generated_Source\PSoC4/I2CM.c ****     txFifoCtrl |= ((uint32) (I2CM_TX_FIFO_CTRL_TRIGGER_LEVEL_MASK & level));
 304:.\Generated_Source\PSoC4/I2CM.c **** 
 305:.\Generated_Source\PSoC4/I2CM.c ****     I2CM_TX_FIFO_CTRL_REG = txFifoCtrl;
 306:.\Generated_Source\PSoC4/I2CM.c **** }
 307:.\Generated_Source\PSoC4/I2CM.c **** 
 308:.\Generated_Source\PSoC4/I2CM.c **** 
 309:.\Generated_Source\PSoC4/I2CM.c **** #if (I2CM_SCB_IRQ_INTERNAL)
 310:.\Generated_Source\PSoC4/I2CM.c ****     /*******************************************************************************
 311:.\Generated_Source\PSoC4/I2CM.c ****     * Function Name: I2CM_SetCustomInterruptHandler
 312:.\Generated_Source\PSoC4/I2CM.c ****     ********************************************************************************
 313:.\Generated_Source\PSoC4/I2CM.c ****     *
 314:.\Generated_Source\PSoC4/I2CM.c ****     * Summary:
 315:.\Generated_Source\PSoC4/I2CM.c ****     *  Registers a function to be called by the internal interrupt handler.
 316:.\Generated_Source\PSoC4/I2CM.c ****     *  First the function that is registered is called, then the internal interrupt
 317:.\Generated_Source\PSoC4/I2CM.c ****     *  handler performs any operation such as software buffer management functions
 318:.\Generated_Source\PSoC4/I2CM.c ****     *  before the interrupt returns.  It is the user's responsibility not to break
 319:.\Generated_Source\PSoC4/I2CM.c ****     *  the software buffer operations. Only one custom handler is supported, which
 320:.\Generated_Source\PSoC4/I2CM.c ****     *  is the function provided by the most recent call.
 321:.\Generated_Source\PSoC4/I2CM.c ****     *  At the initialization time no custom handler is registered.
 322:.\Generated_Source\PSoC4/I2CM.c ****     *
 323:.\Generated_Source\PSoC4/I2CM.c ****     * Parameters:
 324:.\Generated_Source\PSoC4/I2CM.c ****     *  func: Pointer to the function to register.
 325:.\Generated_Source\PSoC4/I2CM.c ****     *        The value NULL indicates to remove the current custom interrupt
 326:.\Generated_Source\PSoC4/I2CM.c ****     *        handler.
 327:.\Generated_Source\PSoC4/I2CM.c ****     *
 328:.\Generated_Source\PSoC4/I2CM.c ****     * Return:
 329:.\Generated_Source\PSoC4/I2CM.c ****     *  None
 330:.\Generated_Source\PSoC4/I2CM.c ****     *
 331:.\Generated_Source\PSoC4/I2CM.c ****     *******************************************************************************/
 332:.\Generated_Source\PSoC4/I2CM.c ****     void I2CM_SetCustomInterruptHandler(void (*func)(void))
 333:.\Generated_Source\PSoC4/I2CM.c ****     {
ARM GAS  C:\Users\ddemidov\AppData\Local\Temp\cctIQO8F.s 			page 8


 334:.\Generated_Source\PSoC4/I2CM.c ****     #if !defined (CY_REMOVE_I2CM_CUSTOM_INTR_HANDLER)
 335:.\Generated_Source\PSoC4/I2CM.c ****         I2CM_customIntrHandler = func; /* Register interrupt handler */
 336:.\Generated_Source\PSoC4/I2CM.c ****     #else
 337:.\Generated_Source\PSoC4/I2CM.c ****         if (NULL != func)
 338:.\Generated_Source\PSoC4/I2CM.c ****         {
 339:.\Generated_Source\PSoC4/I2CM.c ****             /* Suppress compiler warning */
 340:.\Generated_Source\PSoC4/I2CM.c ****         }
 341:.\Generated_Source\PSoC4/I2CM.c ****     #endif /* !defined (CY_REMOVE_I2CM_CUSTOM_INTR_HANDLER) */
 342:.\Generated_Source\PSoC4/I2CM.c ****     }
 343:.\Generated_Source\PSoC4/I2CM.c **** #endif /* (I2CM_SCB_IRQ_INTERNAL) */
 344:.\Generated_Source\PSoC4/I2CM.c **** 
 345:.\Generated_Source\PSoC4/I2CM.c **** 
 346:.\Generated_Source\PSoC4/I2CM.c **** /*******************************************************************************
 347:.\Generated_Source\PSoC4/I2CM.c **** * Function Name: I2CM_ScbModeEnableIntr
 348:.\Generated_Source\PSoC4/I2CM.c **** ********************************************************************************
 349:.\Generated_Source\PSoC4/I2CM.c **** *
 350:.\Generated_Source\PSoC4/I2CM.c **** * Summary:
 351:.\Generated_Source\PSoC4/I2CM.c **** *  Enables an interrupt for a specific mode.
 352:.\Generated_Source\PSoC4/I2CM.c **** *
 353:.\Generated_Source\PSoC4/I2CM.c **** * Parameters:
 354:.\Generated_Source\PSoC4/I2CM.c **** *  None
 355:.\Generated_Source\PSoC4/I2CM.c **** *
 356:.\Generated_Source\PSoC4/I2CM.c **** * Return:
 357:.\Generated_Source\PSoC4/I2CM.c **** *  None
 358:.\Generated_Source\PSoC4/I2CM.c **** *
 359:.\Generated_Source\PSoC4/I2CM.c **** *******************************************************************************/
 360:.\Generated_Source\PSoC4/I2CM.c **** static void I2CM_ScbEnableIntr(void)
 361:.\Generated_Source\PSoC4/I2CM.c **** {
 362:.\Generated_Source\PSoC4/I2CM.c **** #if (I2CM_SCB_IRQ_INTERNAL)
 363:.\Generated_Source\PSoC4/I2CM.c ****     /* Enable interrupt in NVIC */
 364:.\Generated_Source\PSoC4/I2CM.c ****     #if (I2CM_SCB_MODE_UNCONFIG_CONST_CFG)
 365:.\Generated_Source\PSoC4/I2CM.c ****         if (0u != I2CM_scbEnableIntr)
 366:.\Generated_Source\PSoC4/I2CM.c ****         {
 367:.\Generated_Source\PSoC4/I2CM.c ****             I2CM_EnableInt();
 368:.\Generated_Source\PSoC4/I2CM.c ****         }
 369:.\Generated_Source\PSoC4/I2CM.c **** 
 370:.\Generated_Source\PSoC4/I2CM.c ****     #else
 371:.\Generated_Source\PSoC4/I2CM.c ****         I2CM_EnableInt();
  66              		.loc 1 371 0
  67 000e 0A20     		mov	r0, #10
  68 0010 FFF7FEFF 		bl	CyIntEnable
  69              	.LVL1:
  70              	.LBE11:
  71              	.LBE10:
 167:.\Generated_Source\PSoC4/I2CM.c **** 
  72              		.loc 1 167 0
  73              		@ sp needed
  74 0014 08BD     		pop	{r3, pc}
  75              	.L4:
  76 0016 C046     		.align	2
  77              	.L3:
  78 0018 00002540 		.word	1076166656
  79              		.cfi_endproc
  80              	.LFE3:
  81              		.size	I2CM_Enable, .-I2CM_Enable
  82              		.section	.text.I2CM_Start,"ax",%progbits
  83              		.align	1
ARM GAS  C:\Users\ddemidov\AppData\Local\Temp\cctIQO8F.s 			page 9


  84              		.global	I2CM_Start
  85              		.code	16
  86              		.thumb_func
  87              		.type	I2CM_Start, %function
  88              	I2CM_Start:
  89              	.LFB4:
 193:.\Generated_Source\PSoC4/I2CM.c ****     if (0u == I2CM_initVar)
  90              		.loc 1 193 0
  91              		.cfi_startproc
  92 0000 10B5     		push	{r4, lr}
  93              		.cfi_def_cfa_offset 8
  94              		.cfi_offset 4, -8
  95              		.cfi_offset 14, -4
 194:.\Generated_Source\PSoC4/I2CM.c ****     {
  96              		.loc 1 194 0
  97 0002 054C     		ldr	r4, .L8
  98 0004 2378     		ldrb	r3, [r4]
  99 0006 002B     		cmp	r3, #0
 100 0008 03D1     		bne	.L6
 101              	.LBB12:
 102              	.LBB13:
 115:.\Generated_Source\PSoC4/I2CM.c **** 
 103              		.loc 1 115 0
 104 000a FFF7FEFF 		bl	I2CM_I2CInit
 105              	.LVL2:
 106              	.LBE13:
 107              	.LBE12:
 197:.\Generated_Source\PSoC4/I2CM.c ****     }
 108              		.loc 1 197 0
 109 000e 0123     		mov	r3, #1
 110 0010 2370     		strb	r3, [r4]
 111              	.L6:
 200:.\Generated_Source\PSoC4/I2CM.c **** }
 112              		.loc 1 200 0
 113 0012 FFF7FEFF 		bl	I2CM_Enable
 114              	.LVL3:
 201:.\Generated_Source\PSoC4/I2CM.c **** 
 115              		.loc 1 201 0
 116              		@ sp needed
 117 0016 10BD     		pop	{r4, pc}
 118              	.L9:
 119              		.align	2
 120              	.L8:
 121 0018 00000000 		.word	.LANCHOR0
 122              		.cfi_endproc
 123              	.LFE4:
 124              		.size	I2CM_Start, .-I2CM_Start
 125              		.section	.text.I2CM_Stop,"ax",%progbits
 126              		.align	1
 127              		.global	I2CM_Stop
 128              		.code	16
 129              		.thumb_func
 130              		.type	I2CM_Stop, %function
 131              	I2CM_Stop:
 132              	.LFB5:
 222:.\Generated_Source\PSoC4/I2CM.c **** #if (I2CM_SCB_IRQ_INTERNAL)
 133              		.loc 1 222 0
ARM GAS  C:\Users\ddemidov\AppData\Local\Temp\cctIQO8F.s 			page 10


 134              		.cfi_startproc
 135 0000 08B5     		push	{r3, lr}
 136              		.cfi_def_cfa_offset 8
 137              		.cfi_offset 3, -8
 138              		.cfi_offset 14, -4
 224:.\Generated_Source\PSoC4/I2CM.c **** #endif /* (I2CM_SCB_IRQ_INTERNAL) */
 139              		.loc 1 224 0
 140 0002 0A20     		mov	r0, #10
 141 0004 FFF7FEFF 		bl	CyIntDisable
 142              	.LVL4:
 143              	.LBB14:
 144              	.LBB15:
 372:.\Generated_Source\PSoC4/I2CM.c **** 
 373:.\Generated_Source\PSoC4/I2CM.c ****     #endif /* (I2CM_SCB_MODE_UNCONFIG_CONST_CFG) */
 374:.\Generated_Source\PSoC4/I2CM.c **** #endif /* (I2CM_SCB_IRQ_INTERNAL) */
 375:.\Generated_Source\PSoC4/I2CM.c **** }
 376:.\Generated_Source\PSoC4/I2CM.c **** 
 377:.\Generated_Source\PSoC4/I2CM.c **** 
 378:.\Generated_Source\PSoC4/I2CM.c **** /*******************************************************************************
 379:.\Generated_Source\PSoC4/I2CM.c **** * Function Name: I2CM_ScbModePostEnable
 380:.\Generated_Source\PSoC4/I2CM.c **** ********************************************************************************
 381:.\Generated_Source\PSoC4/I2CM.c **** *
 382:.\Generated_Source\PSoC4/I2CM.c **** * Summary:
 383:.\Generated_Source\PSoC4/I2CM.c **** *  Calls the PostEnable function for a specific operation mode.
 384:.\Generated_Source\PSoC4/I2CM.c **** *
 385:.\Generated_Source\PSoC4/I2CM.c **** * Parameters:
 386:.\Generated_Source\PSoC4/I2CM.c **** *  None
 387:.\Generated_Source\PSoC4/I2CM.c **** *
 388:.\Generated_Source\PSoC4/I2CM.c **** * Return:
 389:.\Generated_Source\PSoC4/I2CM.c **** *  None
 390:.\Generated_Source\PSoC4/I2CM.c **** *
 391:.\Generated_Source\PSoC4/I2CM.c **** *******************************************************************************/
 392:.\Generated_Source\PSoC4/I2CM.c **** static void I2CM_ScbModePostEnable(void)
 393:.\Generated_Source\PSoC4/I2CM.c **** {
 394:.\Generated_Source\PSoC4/I2CM.c **** #if (I2CM_SCB_MODE_UNCONFIG_CONST_CFG)
 395:.\Generated_Source\PSoC4/I2CM.c **** #if (!I2CM_CY_SCBIP_V1)
 396:.\Generated_Source\PSoC4/I2CM.c ****     if (I2CM_SCB_MODE_SPI_RUNTM_CFG)
 397:.\Generated_Source\PSoC4/I2CM.c ****     {
 398:.\Generated_Source\PSoC4/I2CM.c ****         I2CM_SpiPostEnable();
 399:.\Generated_Source\PSoC4/I2CM.c ****     }
 400:.\Generated_Source\PSoC4/I2CM.c ****     else if (I2CM_SCB_MODE_UART_RUNTM_CFG)
 401:.\Generated_Source\PSoC4/I2CM.c ****     {
 402:.\Generated_Source\PSoC4/I2CM.c ****         I2CM_UartPostEnable();
 403:.\Generated_Source\PSoC4/I2CM.c ****     }
 404:.\Generated_Source\PSoC4/I2CM.c ****     else
 405:.\Generated_Source\PSoC4/I2CM.c ****     {
 406:.\Generated_Source\PSoC4/I2CM.c ****         /* Unknown mode: do nothing */
 407:.\Generated_Source\PSoC4/I2CM.c ****     }
 408:.\Generated_Source\PSoC4/I2CM.c **** #endif /* (!I2CM_CY_SCBIP_V1) */
 409:.\Generated_Source\PSoC4/I2CM.c **** 
 410:.\Generated_Source\PSoC4/I2CM.c **** #elif (I2CM_SCB_MODE_SPI_CONST_CFG)
 411:.\Generated_Source\PSoC4/I2CM.c ****     I2CM_SpiPostEnable();
 412:.\Generated_Source\PSoC4/I2CM.c **** 
 413:.\Generated_Source\PSoC4/I2CM.c **** #elif (I2CM_SCB_MODE_UART_CONST_CFG)
 414:.\Generated_Source\PSoC4/I2CM.c ****     I2CM_UartPostEnable();
 415:.\Generated_Source\PSoC4/I2CM.c **** 
 416:.\Generated_Source\PSoC4/I2CM.c **** #else
ARM GAS  C:\Users\ddemidov\AppData\Local\Temp\cctIQO8F.s 			page 11


 417:.\Generated_Source\PSoC4/I2CM.c ****     /* Unknown mode: do nothing */
 418:.\Generated_Source\PSoC4/I2CM.c **** #endif /* (I2CM_SCB_MODE_UNCONFIG_CONST_CFG) */
 419:.\Generated_Source\PSoC4/I2CM.c **** }
 420:.\Generated_Source\PSoC4/I2CM.c **** 
 421:.\Generated_Source\PSoC4/I2CM.c **** 
 422:.\Generated_Source\PSoC4/I2CM.c **** /*******************************************************************************
 423:.\Generated_Source\PSoC4/I2CM.c **** * Function Name: I2CM_ScbModeStop
 424:.\Generated_Source\PSoC4/I2CM.c **** ********************************************************************************
 425:.\Generated_Source\PSoC4/I2CM.c **** *
 426:.\Generated_Source\PSoC4/I2CM.c **** * Summary:
 427:.\Generated_Source\PSoC4/I2CM.c **** *  Calls the Stop function for a specific operation mode.
 428:.\Generated_Source\PSoC4/I2CM.c **** *
 429:.\Generated_Source\PSoC4/I2CM.c **** * Parameters:
 430:.\Generated_Source\PSoC4/I2CM.c **** *  None
 431:.\Generated_Source\PSoC4/I2CM.c **** *
 432:.\Generated_Source\PSoC4/I2CM.c **** * Return:
 433:.\Generated_Source\PSoC4/I2CM.c **** *  None
 434:.\Generated_Source\PSoC4/I2CM.c **** *
 435:.\Generated_Source\PSoC4/I2CM.c **** *******************************************************************************/
 436:.\Generated_Source\PSoC4/I2CM.c **** static void I2CM_ScbModeStop(void)
 437:.\Generated_Source\PSoC4/I2CM.c **** {
 438:.\Generated_Source\PSoC4/I2CM.c **** #if (I2CM_SCB_MODE_UNCONFIG_CONST_CFG)
 439:.\Generated_Source\PSoC4/I2CM.c ****     if (I2CM_SCB_MODE_I2C_RUNTM_CFG)
 440:.\Generated_Source\PSoC4/I2CM.c ****     {
 441:.\Generated_Source\PSoC4/I2CM.c ****         I2CM_I2CStop();
 442:.\Generated_Source\PSoC4/I2CM.c ****     }
 443:.\Generated_Source\PSoC4/I2CM.c ****     else if (I2CM_SCB_MODE_EZI2C_RUNTM_CFG)
 444:.\Generated_Source\PSoC4/I2CM.c ****     {
 445:.\Generated_Source\PSoC4/I2CM.c ****         I2CM_EzI2CStop();
 446:.\Generated_Source\PSoC4/I2CM.c ****     }
 447:.\Generated_Source\PSoC4/I2CM.c **** #if (!I2CM_CY_SCBIP_V1)
 448:.\Generated_Source\PSoC4/I2CM.c ****     else if (I2CM_SCB_MODE_SPI_RUNTM_CFG)
 449:.\Generated_Source\PSoC4/I2CM.c ****     {
 450:.\Generated_Source\PSoC4/I2CM.c ****         I2CM_SpiStop();
 451:.\Generated_Source\PSoC4/I2CM.c ****     }
 452:.\Generated_Source\PSoC4/I2CM.c ****     else if (I2CM_SCB_MODE_UART_RUNTM_CFG)
 453:.\Generated_Source\PSoC4/I2CM.c ****     {
 454:.\Generated_Source\PSoC4/I2CM.c ****         I2CM_UartStop();
 455:.\Generated_Source\PSoC4/I2CM.c ****     }
 456:.\Generated_Source\PSoC4/I2CM.c **** #endif /* (!I2CM_CY_SCBIP_V1) */
 457:.\Generated_Source\PSoC4/I2CM.c ****     else
 458:.\Generated_Source\PSoC4/I2CM.c ****     {
 459:.\Generated_Source\PSoC4/I2CM.c ****         /* Unknown mode: do nothing */
 460:.\Generated_Source\PSoC4/I2CM.c ****     }
 461:.\Generated_Source\PSoC4/I2CM.c **** #elif (I2CM_SCB_MODE_I2C_CONST_CFG)
 462:.\Generated_Source\PSoC4/I2CM.c ****     I2CM_I2CStop();
 145              		.loc 1 462 0
 146 0008 FFF7FEFF 		bl	I2CM_I2CStop
 147              	.LVL5:
 148              	.LBE15:
 149              	.LBE14:
 231:.\Generated_Source\PSoC4/I2CM.c **** 
 150              		.loc 1 231 0
 151 000c 054A     		ldr	r2, .L11
 244:.\Generated_Source\PSoC4/I2CM.c **** #endif /* (I2CM_SCB_IRQ_INTERNAL) */
 152              		.loc 1 244 0
 153 000e 0A20     		mov	r0, #10
ARM GAS  C:\Users\ddemidov\AppData\Local\Temp\cctIQO8F.s 			page 12


 231:.\Generated_Source\PSoC4/I2CM.c **** 
 154              		.loc 1 231 0
 155 0010 1368     		ldr	r3, [r2]
 246:.\Generated_Source\PSoC4/I2CM.c **** 
 156              		.loc 1 246 0
 157              		@ sp needed
 231:.\Generated_Source\PSoC4/I2CM.c **** 
 158              		.loc 1 231 0
 159 0012 5B00     		lsl	r3, r3, #1
 160 0014 5B08     		lsr	r3, r3, #1
 161 0016 1360     		str	r3, [r2]
 241:.\Generated_Source\PSoC4/I2CM.c **** 
 162              		.loc 1 241 0
 163 0018 0022     		mov	r2, #0
 164 001a 034B     		ldr	r3, .L11+4
 165 001c 1A60     		str	r2, [r3]
 244:.\Generated_Source\PSoC4/I2CM.c **** #endif /* (I2CM_SCB_IRQ_INTERNAL) */
 166              		.loc 1 244 0
 167 001e FFF7FEFF 		bl	CyIntClearPending
 168              	.LVL6:
 246:.\Generated_Source\PSoC4/I2CM.c **** 
 169              		.loc 1 246 0
 170 0022 08BD     		pop	{r3, pc}
 171              	.L12:
 172              		.align	2
 173              	.L11:
 174 0024 00002540 		.word	1076166656
 175 0028 880F2540 		.word	1076170632
 176              		.cfi_endproc
 177              	.LFE5:
 178              		.size	I2CM_Stop, .-I2CM_Stop
 179              		.section	.text.I2CM_SetRxFifoLevel,"ax",%progbits
 180              		.align	1
 181              		.global	I2CM_SetRxFifoLevel
 182              		.code	16
 183              		.thumb_func
 184              		.type	I2CM_SetRxFifoLevel, %function
 185              	I2CM_SetRxFifoLevel:
 186              	.LFB6:
 267:.\Generated_Source\PSoC4/I2CM.c ****     uint32 rxFifoCtrl;
 187              		.loc 1 267 0
 188              		.cfi_startproc
 189              	.LVL7:
 272:.\Generated_Source\PSoC4/I2CM.c ****     rxFifoCtrl |= ((uint32) (I2CM_RX_FIFO_CTRL_TRIGGER_LEVEL_MASK & level));
 190              		.loc 1 272 0
 191 0000 0F22     		mov	r2, #15
 270:.\Generated_Source\PSoC4/I2CM.c **** 
 192              		.loc 1 270 0
 193 0002 0349     		ldr	r1, .L14
 273:.\Generated_Source\PSoC4/I2CM.c **** 
 194              		.loc 1 273 0
 195 0004 1040     		and	r0, r2
 196              	.LVL8:
 270:.\Generated_Source\PSoC4/I2CM.c **** 
 197              		.loc 1 270 0
 198 0006 0B68     		ldr	r3, [r1]
 199              	.LVL9:
ARM GAS  C:\Users\ddemidov\AppData\Local\Temp\cctIQO8F.s 			page 13


 276:.\Generated_Source\PSoC4/I2CM.c **** 
 200              		.loc 1 276 0
 201              		@ sp needed
 272:.\Generated_Source\PSoC4/I2CM.c ****     rxFifoCtrl |= ((uint32) (I2CM_RX_FIFO_CTRL_TRIGGER_LEVEL_MASK & level));
 202              		.loc 1 272 0
 203 0008 9343     		bic	r3, r2
 204              	.LVL10:
 273:.\Generated_Source\PSoC4/I2CM.c **** 
 205              		.loc 1 273 0
 206 000a 1843     		orr	r0, r3
 207              	.LVL11:
 275:.\Generated_Source\PSoC4/I2CM.c **** }
 208              		.loc 1 275 0
 209 000c 0860     		str	r0, [r1]
 276:.\Generated_Source\PSoC4/I2CM.c **** 
 210              		.loc 1 276 0
 211 000e 7047     		bx	lr
 212              	.L15:
 213              		.align	2
 214              	.L14:
 215 0010 04032540 		.word	1076167428
 216              		.cfi_endproc
 217              	.LFE6:
 218              		.size	I2CM_SetRxFifoLevel, .-I2CM_SetRxFifoLevel
 219              		.section	.text.I2CM_SetTxFifoLevel,"ax",%progbits
 220              		.align	1
 221              		.global	I2CM_SetTxFifoLevel
 222              		.code	16
 223              		.thumb_func
 224              		.type	I2CM_SetTxFifoLevel, %function
 225              	I2CM_SetTxFifoLevel:
 226              	.LFB7:
 297:.\Generated_Source\PSoC4/I2CM.c ****     uint32 txFifoCtrl;
 227              		.loc 1 297 0
 228              		.cfi_startproc
 229              	.LVL12:
 302:.\Generated_Source\PSoC4/I2CM.c ****     txFifoCtrl |= ((uint32) (I2CM_TX_FIFO_CTRL_TRIGGER_LEVEL_MASK & level));
 230              		.loc 1 302 0
 231 0000 0F22     		mov	r2, #15
 300:.\Generated_Source\PSoC4/I2CM.c **** 
 232              		.loc 1 300 0
 233 0002 0349     		ldr	r1, .L17
 303:.\Generated_Source\PSoC4/I2CM.c **** 
 234              		.loc 1 303 0
 235 0004 1040     		and	r0, r2
 236              	.LVL13:
 300:.\Generated_Source\PSoC4/I2CM.c **** 
 237              		.loc 1 300 0
 238 0006 0B68     		ldr	r3, [r1]
 239              	.LVL14:
 306:.\Generated_Source\PSoC4/I2CM.c **** 
 240              		.loc 1 306 0
 241              		@ sp needed
 302:.\Generated_Source\PSoC4/I2CM.c ****     txFifoCtrl |= ((uint32) (I2CM_TX_FIFO_CTRL_TRIGGER_LEVEL_MASK & level));
 242              		.loc 1 302 0
 243 0008 9343     		bic	r3, r2
 244              	.LVL15:
ARM GAS  C:\Users\ddemidov\AppData\Local\Temp\cctIQO8F.s 			page 14


 303:.\Generated_Source\PSoC4/I2CM.c **** 
 245              		.loc 1 303 0
 246 000a 1843     		orr	r0, r3
 247              	.LVL16:
 305:.\Generated_Source\PSoC4/I2CM.c **** }
 248              		.loc 1 305 0
 249 000c 0860     		str	r0, [r1]
 306:.\Generated_Source\PSoC4/I2CM.c **** 
 250              		.loc 1 306 0
 251 000e 7047     		bx	lr
 252              	.L18:
 253              		.align	2
 254              	.L17:
 255 0010 04022540 		.word	1076167172
 256              		.cfi_endproc
 257              	.LFE7:
 258              		.size	I2CM_SetTxFifoLevel, .-I2CM_SetTxFifoLevel
 259              		.section	.text.I2CM_SetCustomInterruptHandler,"ax",%progbits
 260              		.align	1
 261              		.global	I2CM_SetCustomInterruptHandler
 262              		.code	16
 263              		.thumb_func
 264              		.type	I2CM_SetCustomInterruptHandler, %function
 265              	I2CM_SetCustomInterruptHandler:
 266              	.LFB8:
 333:.\Generated_Source\PSoC4/I2CM.c ****     #if !defined (CY_REMOVE_I2CM_CUSTOM_INTR_HANDLER)
 267              		.loc 1 333 0
 268              		.cfi_startproc
 269              	.LVL17:
 335:.\Generated_Source\PSoC4/I2CM.c ****     #else
 270              		.loc 1 335 0
 271 0000 014B     		ldr	r3, .L20
 342:.\Generated_Source\PSoC4/I2CM.c **** #endif /* (I2CM_SCB_IRQ_INTERNAL) */
 272              		.loc 1 342 0
 273              		@ sp needed
 335:.\Generated_Source\PSoC4/I2CM.c ****     #else
 274              		.loc 1 335 0
 275 0002 5860     		str	r0, [r3, #4]
 342:.\Generated_Source\PSoC4/I2CM.c **** #endif /* (I2CM_SCB_IRQ_INTERNAL) */
 276              		.loc 1 342 0
 277 0004 7047     		bx	lr
 278              	.L21:
 279 0006 C046     		.align	2
 280              	.L20:
 281 0008 00000000 		.word	.LANCHOR0
 282              		.cfi_endproc
 283              	.LFE8:
 284              		.size	I2CM_SetCustomInterruptHandler, .-I2CM_SetCustomInterruptHandler
 285              		.global	I2CM_customIntrHandler
 286              		.global	I2CM_initVar
 287              		.bss
 288              		.align	2
 289              		.set	.LANCHOR0,. + 0
 290              		.type	I2CM_initVar, %object
 291              		.size	I2CM_initVar, 1
 292              	I2CM_initVar:
 293 0000 00       		.space	1
ARM GAS  C:\Users\ddemidov\AppData\Local\Temp\cctIQO8F.s 			page 15


 294 0001 000000   		.space	3
 295              		.type	I2CM_customIntrHandler, %object
 296              		.size	I2CM_customIntrHandler, 4
 297              	I2CM_customIntrHandler:
 298 0004 00000000 		.space	4
 299              		.text
 300              	.Letext0:
 301              		.file 2 "Generated_Source\\PSoC4/cytypes.h"
 302              		.file 3 ".\\Generated_Source\\PSoC4\\I2CM_I2C_PVT.h"
 303              		.file 4 "Generated_Source\\PSoC4/CyLib.h"