ARM GAS  C:\Users\ddemidov\AppData\Local\Temp\ccUDC9zP.s 			page 1


   1              		.cpu cortex-m0
   2              		.fpu softvfp
   3              		.eabi_attribute 20, 1
   4              		.eabi_attribute 21, 1
   5              		.eabi_attribute 23, 3
   6              		.eabi_attribute 24, 1
   7              		.eabi_attribute 25, 1
   8              		.eabi_attribute 26, 1
   9              		.eabi_attribute 30, 4
  10              		.eabi_attribute 34, 0
  11              		.eabi_attribute 18, 4
  12              		.code	16
  13              		.file	"I2CM_I2C_MASTER.c"
  14              		.text
  15              	.Ltext0:
  16              		.cfi_sections	.debug_frame
  17              		.section	.text.I2CM_I2CMasterSendStart,"ax",%progbits
  18              		.align	1
  19              		.global	I2CM_I2CMasterSendStart
  20              		.code	16
  21              		.thumb_func
  22              		.type	I2CM_I2CMasterSendStart, %function
  23              	I2CM_I2CMasterSendStart:
  24              	.LFB4:
  25              		.file 1 ".\\Generated_Source\\PSoC4\\I2CM_I2C_MASTER.c"
   1:.\Generated_Source\PSoC4/I2CM_I2C_MASTER.c **** /*******************************************************************************
   2:.\Generated_Source\PSoC4/I2CM_I2C_MASTER.c **** * File Name: I2CM_I2C_MASTER.c
   3:.\Generated_Source\PSoC4/I2CM_I2C_MASTER.c **** * Version 3.0
   4:.\Generated_Source\PSoC4/I2CM_I2C_MASTER.c **** *
   5:.\Generated_Source\PSoC4/I2CM_I2C_MASTER.c **** * Description:
   6:.\Generated_Source\PSoC4/I2CM_I2C_MASTER.c **** *  This file provides the source code to the API for the SCB Component in
   7:.\Generated_Source\PSoC4/I2CM_I2C_MASTER.c **** *  I2C Master mode.
   8:.\Generated_Source\PSoC4/I2CM_I2C_MASTER.c **** *
   9:.\Generated_Source\PSoC4/I2CM_I2C_MASTER.c **** * Note:
  10:.\Generated_Source\PSoC4/I2CM_I2C_MASTER.c **** *
  11:.\Generated_Source\PSoC4/I2CM_I2C_MASTER.c **** *******************************************************************************
  12:.\Generated_Source\PSoC4/I2CM_I2C_MASTER.c **** * Copyright 2013-2015, Cypress Semiconductor Corporation.  All rights reserved.
  13:.\Generated_Source\PSoC4/I2CM_I2C_MASTER.c **** * You may use this file only in accordance with the license, terms, conditions,
  14:.\Generated_Source\PSoC4/I2CM_I2C_MASTER.c **** * disclaimers, and limitations in the end user license agreement accompanying
  15:.\Generated_Source\PSoC4/I2CM_I2C_MASTER.c **** * the software package with which this file was provided.
  16:.\Generated_Source\PSoC4/I2CM_I2C_MASTER.c **** *******************************************************************************/
  17:.\Generated_Source\PSoC4/I2CM_I2C_MASTER.c **** 
  18:.\Generated_Source\PSoC4/I2CM_I2C_MASTER.c **** #include "I2CM_PVT.h"
  19:.\Generated_Source\PSoC4/I2CM_I2C_MASTER.c **** #include "I2CM_I2C_PVT.h"
  20:.\Generated_Source\PSoC4/I2CM_I2C_MASTER.c **** 
  21:.\Generated_Source\PSoC4/I2CM_I2C_MASTER.c **** #if(I2CM_I2C_MASTER_CONST)
  22:.\Generated_Source\PSoC4/I2CM_I2C_MASTER.c **** 
  23:.\Generated_Source\PSoC4/I2CM_I2C_MASTER.c **** /***************************************
  24:.\Generated_Source\PSoC4/I2CM_I2C_MASTER.c **** *      I2C Master Private Vars
  25:.\Generated_Source\PSoC4/I2CM_I2C_MASTER.c **** ***************************************/
  26:.\Generated_Source\PSoC4/I2CM_I2C_MASTER.c **** 
  27:.\Generated_Source\PSoC4/I2CM_I2C_MASTER.c **** /* Master variables */
  28:.\Generated_Source\PSoC4/I2CM_I2C_MASTER.c **** volatile uint16 I2CM_mstrStatus;      /* Master Status byte  */
  29:.\Generated_Source\PSoC4/I2CM_I2C_MASTER.c **** volatile uint8  I2CM_mstrControl;     /* Master Control byte */
  30:.\Generated_Source\PSoC4/I2CM_I2C_MASTER.c **** 
  31:.\Generated_Source\PSoC4/I2CM_I2C_MASTER.c **** /* Receive buffer variables */
  32:.\Generated_Source\PSoC4/I2CM_I2C_MASTER.c **** volatile uint8 * I2CM_mstrRdBufPtr;   /* Pointer to Master Read buffer */
ARM GAS  C:\Users\ddemidov\AppData\Local\Temp\ccUDC9zP.s 			page 2


  33:.\Generated_Source\PSoC4/I2CM_I2C_MASTER.c **** volatile uint32  I2CM_mstrRdBufSize;  /* Master Read buffer size       */
  34:.\Generated_Source\PSoC4/I2CM_I2C_MASTER.c **** volatile uint32  I2CM_mstrRdBufIndex; /* Master Read buffer Index      */
  35:.\Generated_Source\PSoC4/I2CM_I2C_MASTER.c **** 
  36:.\Generated_Source\PSoC4/I2CM_I2C_MASTER.c **** /* Transmit buffer variables */
  37:.\Generated_Source\PSoC4/I2CM_I2C_MASTER.c **** volatile uint8 * I2CM_mstrWrBufPtr;   /* Pointer to Master Write buffer */
  38:.\Generated_Source\PSoC4/I2CM_I2C_MASTER.c **** volatile uint32  I2CM_mstrWrBufSize;  /* Master Write buffer size       */
  39:.\Generated_Source\PSoC4/I2CM_I2C_MASTER.c **** volatile uint32  I2CM_mstrWrBufIndex; /* Master Write buffer Index      */
  40:.\Generated_Source\PSoC4/I2CM_I2C_MASTER.c **** volatile uint32  I2CM_mstrWrBufIndexTmp; /* Master Write buffer Index Tmp */
  41:.\Generated_Source\PSoC4/I2CM_I2C_MASTER.c **** 
  42:.\Generated_Source\PSoC4/I2CM_I2C_MASTER.c **** #if (!I2CM_CY_SCBIP_V0 && \
  43:.\Generated_Source\PSoC4/I2CM_I2C_MASTER.c ****     I2CM_I2C_MULTI_MASTER_SLAVE_CONST && I2CM_I2C_WAKE_ENABLE_CONST)
  44:.\Generated_Source\PSoC4/I2CM_I2C_MASTER.c ****     static void I2CM_I2CMasterDisableEcAm(void);
  45:.\Generated_Source\PSoC4/I2CM_I2C_MASTER.c **** #endif /* (!I2CM_CY_SCBIP_V0) */
  46:.\Generated_Source\PSoC4/I2CM_I2C_MASTER.c **** 
  47:.\Generated_Source\PSoC4/I2CM_I2C_MASTER.c **** 
  48:.\Generated_Source\PSoC4/I2CM_I2C_MASTER.c **** /*******************************************************************************
  49:.\Generated_Source\PSoC4/I2CM_I2C_MASTER.c **** * Function Name: I2CM_I2CMasterWriteBuf
  50:.\Generated_Source\PSoC4/I2CM_I2C_MASTER.c **** ********************************************************************************
  51:.\Generated_Source\PSoC4/I2CM_I2C_MASTER.c **** *
  52:.\Generated_Source\PSoC4/I2CM_I2C_MASTER.c **** * Summary:
  53:.\Generated_Source\PSoC4/I2CM_I2C_MASTER.c **** * Automatically writes an entire buffer of data to a slave device.
  54:.\Generated_Source\PSoC4/I2CM_I2C_MASTER.c **** * Once the data transfer is initiated by this function, further data transfer
  55:.\Generated_Source\PSoC4/I2CM_I2C_MASTER.c **** * is handled by the included ISR.
  56:.\Generated_Source\PSoC4/I2CM_I2C_MASTER.c **** * Enables the I2C interrupt and clears SCB_ I2C_MSTAT_WR_CMPLT status.
  57:.\Generated_Source\PSoC4/I2CM_I2C_MASTER.c **** *
  58:.\Generated_Source\PSoC4/I2CM_I2C_MASTER.c **** * Parameters:
  59:.\Generated_Source\PSoC4/I2CM_I2C_MASTER.c **** *  slaveAddr: 7-bit slave address.
  60:.\Generated_Source\PSoC4/I2CM_I2C_MASTER.c **** *  xferData:  Pointer to buffer of data to be sent.
  61:.\Generated_Source\PSoC4/I2CM_I2C_MASTER.c **** *  cnt:       Size of buffer to send.
  62:.\Generated_Source\PSoC4/I2CM_I2C_MASTER.c **** *  mode:      Transfer mode defines: start or restart condition generation at
  63:.\Generated_Source\PSoC4/I2CM_I2C_MASTER.c **** *             begin of the transfer and complete the transfer or halt before
  64:.\Generated_Source\PSoC4/I2CM_I2C_MASTER.c **** *             generating a stop.
  65:.\Generated_Source\PSoC4/I2CM_I2C_MASTER.c **** *
  66:.\Generated_Source\PSoC4/I2CM_I2C_MASTER.c **** * Return:
  67:.\Generated_Source\PSoC4/I2CM_I2C_MASTER.c **** *  Error status.
  68:.\Generated_Source\PSoC4/I2CM_I2C_MASTER.c **** *
  69:.\Generated_Source\PSoC4/I2CM_I2C_MASTER.c **** * Global variables:
  70:.\Generated_Source\PSoC4/I2CM_I2C_MASTER.c **** *  I2CM_mstrStatus  - used to store current status of I2C Master.
  71:.\Generated_Source\PSoC4/I2CM_I2C_MASTER.c **** *  I2CM_state       - used to store current state of software FSM.
  72:.\Generated_Source\PSoC4/I2CM_I2C_MASTER.c **** *  I2CM_mstrControl - used to control master end of transaction with
  73:.\Generated_Source\PSoC4/I2CM_I2C_MASTER.c **** *  or without the Stop generation.
  74:.\Generated_Source\PSoC4/I2CM_I2C_MASTER.c **** *  I2CM_mstrWrBufPtr - used to store pointer to master write buffer.
  75:.\Generated_Source\PSoC4/I2CM_I2C_MASTER.c **** *  I2CM_mstrWrBufIndex - used to current index within master write
  76:.\Generated_Source\PSoC4/I2CM_I2C_MASTER.c **** *  buffer.
  77:.\Generated_Source\PSoC4/I2CM_I2C_MASTER.c **** *  I2CM_mstrWrBufSize - used to store master write buffer size.
  78:.\Generated_Source\PSoC4/I2CM_I2C_MASTER.c **** *
  79:.\Generated_Source\PSoC4/I2CM_I2C_MASTER.c **** *******************************************************************************/
  80:.\Generated_Source\PSoC4/I2CM_I2C_MASTER.c **** uint32 I2CM_I2CMasterWriteBuf(uint32 slaveAddress, uint8 * wrData, uint32 cnt, uint32 mode)
  81:.\Generated_Source\PSoC4/I2CM_I2C_MASTER.c **** {
  82:.\Generated_Source\PSoC4/I2CM_I2C_MASTER.c ****     uint32 errStatus;
  83:.\Generated_Source\PSoC4/I2CM_I2C_MASTER.c **** 
  84:.\Generated_Source\PSoC4/I2CM_I2C_MASTER.c ****     errStatus = I2CM_I2C_MSTR_NOT_READY;
  85:.\Generated_Source\PSoC4/I2CM_I2C_MASTER.c **** 
  86:.\Generated_Source\PSoC4/I2CM_I2C_MASTER.c ****     if(NULL != wrData)  /* Check buffer pointer */
  87:.\Generated_Source\PSoC4/I2CM_I2C_MASTER.c ****     {
  88:.\Generated_Source\PSoC4/I2CM_I2C_MASTER.c ****         /* Check FSM state and bus before generating Start/ReStart condition */
  89:.\Generated_Source\PSoC4/I2CM_I2C_MASTER.c ****         if(I2CM_CHECK_I2C_FSM_IDLE)
ARM GAS  C:\Users\ddemidov\AppData\Local\Temp\ccUDC9zP.s 			page 3


  90:.\Generated_Source\PSoC4/I2CM_I2C_MASTER.c ****         {
  91:.\Generated_Source\PSoC4/I2CM_I2C_MASTER.c ****             I2CM_DisableInt();  /* Lock from interruption */
  92:.\Generated_Source\PSoC4/I2CM_I2C_MASTER.c **** 
  93:.\Generated_Source\PSoC4/I2CM_I2C_MASTER.c ****             /* Check bus state */
  94:.\Generated_Source\PSoC4/I2CM_I2C_MASTER.c ****             errStatus = I2CM_CHECK_I2C_STATUS(I2CM_I2C_STATUS_BUS_BUSY) ?
  95:.\Generated_Source\PSoC4/I2CM_I2C_MASTER.c ****                             I2CM_I2C_MSTR_BUS_BUSY : I2CM_I2C_MSTR_NO_ERROR;
  96:.\Generated_Source\PSoC4/I2CM_I2C_MASTER.c ****         }
  97:.\Generated_Source\PSoC4/I2CM_I2C_MASTER.c ****         else if(I2CM_CHECK_I2C_FSM_HALT)
  98:.\Generated_Source\PSoC4/I2CM_I2C_MASTER.c ****         {
  99:.\Generated_Source\PSoC4/I2CM_I2C_MASTER.c ****             I2CM_mstrStatus &= (uint16) ~I2CM_I2C_MSTAT_XFER_HALT;
 100:.\Generated_Source\PSoC4/I2CM_I2C_MASTER.c ****                               errStatus  = I2CM_I2C_MSTR_NO_ERROR;
 101:.\Generated_Source\PSoC4/I2CM_I2C_MASTER.c ****         }
 102:.\Generated_Source\PSoC4/I2CM_I2C_MASTER.c ****         else
 103:.\Generated_Source\PSoC4/I2CM_I2C_MASTER.c ****         {
 104:.\Generated_Source\PSoC4/I2CM_I2C_MASTER.c ****             /* Unexpected FSM state: exit */
 105:.\Generated_Source\PSoC4/I2CM_I2C_MASTER.c ****         }
 106:.\Generated_Source\PSoC4/I2CM_I2C_MASTER.c ****     }
 107:.\Generated_Source\PSoC4/I2CM_I2C_MASTER.c **** 
 108:.\Generated_Source\PSoC4/I2CM_I2C_MASTER.c ****     /* Check if master is ready to start  */
 109:.\Generated_Source\PSoC4/I2CM_I2C_MASTER.c ****     if(I2CM_I2C_MSTR_NO_ERROR == errStatus) /* No error proceed */
 110:.\Generated_Source\PSoC4/I2CM_I2C_MASTER.c ****     {
 111:.\Generated_Source\PSoC4/I2CM_I2C_MASTER.c ****     #if (!I2CM_CY_SCBIP_V0 && \
 112:.\Generated_Source\PSoC4/I2CM_I2C_MASTER.c ****         I2CM_I2C_MULTI_MASTER_SLAVE_CONST && I2CM_I2C_WAKE_ENABLE_CONST)
 113:.\Generated_Source\PSoC4/I2CM_I2C_MASTER.c ****             I2CM_I2CMasterDisableEcAm();
 114:.\Generated_Source\PSoC4/I2CM_I2C_MASTER.c ****     #endif /* (!I2CM_CY_SCBIP_V0) */
 115:.\Generated_Source\PSoC4/I2CM_I2C_MASTER.c **** 
 116:.\Generated_Source\PSoC4/I2CM_I2C_MASTER.c ****         /* Set up write transaction */
 117:.\Generated_Source\PSoC4/I2CM_I2C_MASTER.c ****         I2CM_state = I2CM_I2C_FSM_MSTR_WR_ADDR;
 118:.\Generated_Source\PSoC4/I2CM_I2C_MASTER.c ****         I2CM_mstrWrBufIndexTmp = 0u;
 119:.\Generated_Source\PSoC4/I2CM_I2C_MASTER.c ****         I2CM_mstrWrBufIndex    = 0u;
 120:.\Generated_Source\PSoC4/I2CM_I2C_MASTER.c ****         I2CM_mstrWrBufSize     = cnt;
 121:.\Generated_Source\PSoC4/I2CM_I2C_MASTER.c ****         I2CM_mstrWrBufPtr      = (volatile uint8 *) wrData;
 122:.\Generated_Source\PSoC4/I2CM_I2C_MASTER.c ****         I2CM_mstrControl       = (uint8) mode;
 123:.\Generated_Source\PSoC4/I2CM_I2C_MASTER.c **** 
 124:.\Generated_Source\PSoC4/I2CM_I2C_MASTER.c ****         slaveAddress = I2CM_GET_I2C_8BIT_ADDRESS(slaveAddress);
 125:.\Generated_Source\PSoC4/I2CM_I2C_MASTER.c **** 
 126:.\Generated_Source\PSoC4/I2CM_I2C_MASTER.c ****         I2CM_mstrStatus &= (uint16) ~I2CM_I2C_MSTAT_WR_CMPLT;
 127:.\Generated_Source\PSoC4/I2CM_I2C_MASTER.c **** 
 128:.\Generated_Source\PSoC4/I2CM_I2C_MASTER.c ****         I2CM_ClearMasterInterruptSource(I2CM_INTR_MASTER_ALL);
 129:.\Generated_Source\PSoC4/I2CM_I2C_MASTER.c ****         I2CM_ClearTxInterruptSource(I2CM_INTR_TX_UNDERFLOW);
 130:.\Generated_Source\PSoC4/I2CM_I2C_MASTER.c **** 
 131:.\Generated_Source\PSoC4/I2CM_I2C_MASTER.c ****         /* The TX and RX FIFO have to be EMPTY */
 132:.\Generated_Source\PSoC4/I2CM_I2C_MASTER.c **** 
 133:.\Generated_Source\PSoC4/I2CM_I2C_MASTER.c ****         /* Enable interrupt source to catch when address is sent */
 134:.\Generated_Source\PSoC4/I2CM_I2C_MASTER.c ****         I2CM_SetTxInterruptMode(I2CM_INTR_TX_UNDERFLOW);
 135:.\Generated_Source\PSoC4/I2CM_I2C_MASTER.c **** 
 136:.\Generated_Source\PSoC4/I2CM_I2C_MASTER.c ****         /* Generate Start or ReStart */
 137:.\Generated_Source\PSoC4/I2CM_I2C_MASTER.c ****         if(I2CM_CHECK_I2C_MODE_RESTART(mode))
 138:.\Generated_Source\PSoC4/I2CM_I2C_MASTER.c ****         {
 139:.\Generated_Source\PSoC4/I2CM_I2C_MASTER.c ****             I2CM_I2C_MASTER_GENERATE_RESTART;
 140:.\Generated_Source\PSoC4/I2CM_I2C_MASTER.c ****             I2CM_TX_FIFO_WR_REG = slaveAddress;
 141:.\Generated_Source\PSoC4/I2CM_I2C_MASTER.c ****         }
 142:.\Generated_Source\PSoC4/I2CM_I2C_MASTER.c ****         else
 143:.\Generated_Source\PSoC4/I2CM_I2C_MASTER.c ****         {
 144:.\Generated_Source\PSoC4/I2CM_I2C_MASTER.c ****             I2CM_TX_FIFO_WR_REG = slaveAddress;
 145:.\Generated_Source\PSoC4/I2CM_I2C_MASTER.c ****             I2CM_I2C_MASTER_GENERATE_START;
 146:.\Generated_Source\PSoC4/I2CM_I2C_MASTER.c ****         }
ARM GAS  C:\Users\ddemidov\AppData\Local\Temp\ccUDC9zP.s 			page 4


 147:.\Generated_Source\PSoC4/I2CM_I2C_MASTER.c ****     }
 148:.\Generated_Source\PSoC4/I2CM_I2C_MASTER.c **** 
 149:.\Generated_Source\PSoC4/I2CM_I2C_MASTER.c ****     I2CM_EnableInt();   /* Release lock */
 150:.\Generated_Source\PSoC4/I2CM_I2C_MASTER.c **** 
 151:.\Generated_Source\PSoC4/I2CM_I2C_MASTER.c ****     return(errStatus);
 152:.\Generated_Source\PSoC4/I2CM_I2C_MASTER.c **** }
 153:.\Generated_Source\PSoC4/I2CM_I2C_MASTER.c **** 
 154:.\Generated_Source\PSoC4/I2CM_I2C_MASTER.c **** 
 155:.\Generated_Source\PSoC4/I2CM_I2C_MASTER.c **** /*******************************************************************************
 156:.\Generated_Source\PSoC4/I2CM_I2C_MASTER.c **** * Function Name: I2CM_I2CMasterReadBuf
 157:.\Generated_Source\PSoC4/I2CM_I2C_MASTER.c **** ********************************************************************************
 158:.\Generated_Source\PSoC4/I2CM_I2C_MASTER.c **** *
 159:.\Generated_Source\PSoC4/I2CM_I2C_MASTER.c **** * Summary:
 160:.\Generated_Source\PSoC4/I2CM_I2C_MASTER.c **** *  Automatically reads an entire buffer of data from a slave device.
 161:.\Generated_Source\PSoC4/I2CM_I2C_MASTER.c **** *  Once the data transfer is initiated by this function, further data transfer
 162:.\Generated_Source\PSoC4/I2CM_I2C_MASTER.c **** *  is handled by the included ISR.
 163:.\Generated_Source\PSoC4/I2CM_I2C_MASTER.c **** * Enables the I2C interrupt and clears SCB_ I2C_MSTAT_RD_CMPLT status.
 164:.\Generated_Source\PSoC4/I2CM_I2C_MASTER.c **** *
 165:.\Generated_Source\PSoC4/I2CM_I2C_MASTER.c **** * Parameters:
 166:.\Generated_Source\PSoC4/I2CM_I2C_MASTER.c **** *  slaveAddr: 7-bit slave address.
 167:.\Generated_Source\PSoC4/I2CM_I2C_MASTER.c **** *  xferData:  Pointer to buffer where to put data from slave.
 168:.\Generated_Source\PSoC4/I2CM_I2C_MASTER.c **** *  cnt:       Size of buffer to read.
 169:.\Generated_Source\PSoC4/I2CM_I2C_MASTER.c **** *  mode:      Transfer mode defines: start or restart condition generation at
 170:.\Generated_Source\PSoC4/I2CM_I2C_MASTER.c **** *             begin of the transfer and complete the transfer or halt before
 171:.\Generated_Source\PSoC4/I2CM_I2C_MASTER.c **** *             generating a stop.
 172:.\Generated_Source\PSoC4/I2CM_I2C_MASTER.c **** *
 173:.\Generated_Source\PSoC4/I2CM_I2C_MASTER.c **** * Return:
 174:.\Generated_Source\PSoC4/I2CM_I2C_MASTER.c **** *  Error status.
 175:.\Generated_Source\PSoC4/I2CM_I2C_MASTER.c **** *
 176:.\Generated_Source\PSoC4/I2CM_I2C_MASTER.c **** * Global variables:
 177:.\Generated_Source\PSoC4/I2CM_I2C_MASTER.c **** *  I2CM_mstrStatus  - used to store current status of I2C Master.
 178:.\Generated_Source\PSoC4/I2CM_I2C_MASTER.c **** *  I2CM_state       - used to store current state of software FSM.
 179:.\Generated_Source\PSoC4/I2CM_I2C_MASTER.c **** *  I2CM_mstrControl - used to control master end of transaction with
 180:.\Generated_Source\PSoC4/I2CM_I2C_MASTER.c **** *  or without the Stop generation.
 181:.\Generated_Source\PSoC4/I2CM_I2C_MASTER.c **** *  I2CM_mstrRdBufPtr - used to store pointer to master write buffer.
 182:.\Generated_Source\PSoC4/I2CM_I2C_MASTER.c **** *  I2CM_mstrRdBufIndex - used to current index within master write
 183:.\Generated_Source\PSoC4/I2CM_I2C_MASTER.c **** *  buffer.
 184:.\Generated_Source\PSoC4/I2CM_I2C_MASTER.c **** *  I2CM_mstrRdBufSize - used to store master write buffer size.
 185:.\Generated_Source\PSoC4/I2CM_I2C_MASTER.c **** *
 186:.\Generated_Source\PSoC4/I2CM_I2C_MASTER.c **** *******************************************************************************/
 187:.\Generated_Source\PSoC4/I2CM_I2C_MASTER.c **** uint32 I2CM_I2CMasterReadBuf(uint32 slaveAddress, uint8 * rdData, uint32 cnt, uint32 mode)
 188:.\Generated_Source\PSoC4/I2CM_I2C_MASTER.c **** {
 189:.\Generated_Source\PSoC4/I2CM_I2C_MASTER.c ****     uint32 errStatus;
 190:.\Generated_Source\PSoC4/I2CM_I2C_MASTER.c **** 
 191:.\Generated_Source\PSoC4/I2CM_I2C_MASTER.c ****     errStatus = I2CM_I2C_MSTR_NOT_READY;
 192:.\Generated_Source\PSoC4/I2CM_I2C_MASTER.c **** 
 193:.\Generated_Source\PSoC4/I2CM_I2C_MASTER.c ****     if(NULL != rdData)
 194:.\Generated_Source\PSoC4/I2CM_I2C_MASTER.c ****     {
 195:.\Generated_Source\PSoC4/I2CM_I2C_MASTER.c ****         /* Check FSM state and bus before generating Start/ReStart condition */
 196:.\Generated_Source\PSoC4/I2CM_I2C_MASTER.c ****         if(I2CM_CHECK_I2C_FSM_IDLE)
 197:.\Generated_Source\PSoC4/I2CM_I2C_MASTER.c ****         {
 198:.\Generated_Source\PSoC4/I2CM_I2C_MASTER.c ****             I2CM_DisableInt();  /* Lock from interruption */
 199:.\Generated_Source\PSoC4/I2CM_I2C_MASTER.c **** 
 200:.\Generated_Source\PSoC4/I2CM_I2C_MASTER.c ****             /* Check bus state */
 201:.\Generated_Source\PSoC4/I2CM_I2C_MASTER.c ****             errStatus = I2CM_CHECK_I2C_STATUS(I2CM_I2C_STATUS_BUS_BUSY) ?
 202:.\Generated_Source\PSoC4/I2CM_I2C_MASTER.c ****                             I2CM_I2C_MSTR_BUS_BUSY : I2CM_I2C_MSTR_NO_ERROR;
 203:.\Generated_Source\PSoC4/I2CM_I2C_MASTER.c ****         }
ARM GAS  C:\Users\ddemidov\AppData\Local\Temp\ccUDC9zP.s 			page 5


 204:.\Generated_Source\PSoC4/I2CM_I2C_MASTER.c ****         else if(I2CM_CHECK_I2C_FSM_HALT)
 205:.\Generated_Source\PSoC4/I2CM_I2C_MASTER.c ****         {
 206:.\Generated_Source\PSoC4/I2CM_I2C_MASTER.c ****             I2CM_mstrStatus &= (uint16) ~I2CM_I2C_MSTAT_XFER_HALT;
 207:.\Generated_Source\PSoC4/I2CM_I2C_MASTER.c ****                               errStatus  =  I2CM_I2C_MSTR_NO_ERROR;
 208:.\Generated_Source\PSoC4/I2CM_I2C_MASTER.c ****         }
 209:.\Generated_Source\PSoC4/I2CM_I2C_MASTER.c ****         else
 210:.\Generated_Source\PSoC4/I2CM_I2C_MASTER.c ****         {
 211:.\Generated_Source\PSoC4/I2CM_I2C_MASTER.c ****             /* Unexpected FSM state: exit */
 212:.\Generated_Source\PSoC4/I2CM_I2C_MASTER.c ****         }
 213:.\Generated_Source\PSoC4/I2CM_I2C_MASTER.c ****     }
 214:.\Generated_Source\PSoC4/I2CM_I2C_MASTER.c **** 
 215:.\Generated_Source\PSoC4/I2CM_I2C_MASTER.c ****     /* Check master ready to proceed */
 216:.\Generated_Source\PSoC4/I2CM_I2C_MASTER.c ****     if(I2CM_I2C_MSTR_NO_ERROR == errStatus) /* No error proceed */
 217:.\Generated_Source\PSoC4/I2CM_I2C_MASTER.c ****     {
 218:.\Generated_Source\PSoC4/I2CM_I2C_MASTER.c ****         #if (!I2CM_CY_SCBIP_V0 && \
 219:.\Generated_Source\PSoC4/I2CM_I2C_MASTER.c ****         I2CM_I2C_MULTI_MASTER_SLAVE_CONST && I2CM_I2C_WAKE_ENABLE_CONST)
 220:.\Generated_Source\PSoC4/I2CM_I2C_MASTER.c ****             I2CM_I2CMasterDisableEcAm();
 221:.\Generated_Source\PSoC4/I2CM_I2C_MASTER.c ****         #endif /* (!I2CM_CY_SCBIP_V0) */
 222:.\Generated_Source\PSoC4/I2CM_I2C_MASTER.c **** 
 223:.\Generated_Source\PSoC4/I2CM_I2C_MASTER.c ****         /* Set up read transaction */
 224:.\Generated_Source\PSoC4/I2CM_I2C_MASTER.c ****         I2CM_state = I2CM_I2C_FSM_MSTR_RD_ADDR;
 225:.\Generated_Source\PSoC4/I2CM_I2C_MASTER.c ****         I2CM_mstrRdBufIndex = 0u;
 226:.\Generated_Source\PSoC4/I2CM_I2C_MASTER.c ****         I2CM_mstrRdBufSize  = cnt;
 227:.\Generated_Source\PSoC4/I2CM_I2C_MASTER.c ****         I2CM_mstrRdBufPtr   = (volatile uint8 *) rdData;
 228:.\Generated_Source\PSoC4/I2CM_I2C_MASTER.c ****         I2CM_mstrControl    = (uint8) mode;
 229:.\Generated_Source\PSoC4/I2CM_I2C_MASTER.c **** 
 230:.\Generated_Source\PSoC4/I2CM_I2C_MASTER.c ****         slaveAddress = (I2CM_GET_I2C_8BIT_ADDRESS(slaveAddress) | I2CM_I2C_READ_FLAG);
 231:.\Generated_Source\PSoC4/I2CM_I2C_MASTER.c **** 
 232:.\Generated_Source\PSoC4/I2CM_I2C_MASTER.c ****         I2CM_mstrStatus &= (uint16) ~I2CM_I2C_MSTAT_RD_CMPLT;
 233:.\Generated_Source\PSoC4/I2CM_I2C_MASTER.c **** 
 234:.\Generated_Source\PSoC4/I2CM_I2C_MASTER.c ****         I2CM_ClearMasterInterruptSource(I2CM_INTR_MASTER_ALL);
 235:.\Generated_Source\PSoC4/I2CM_I2C_MASTER.c **** 
 236:.\Generated_Source\PSoC4/I2CM_I2C_MASTER.c ****         /* TX and RX FIFO have to be EMPTY */
 237:.\Generated_Source\PSoC4/I2CM_I2C_MASTER.c **** 
 238:.\Generated_Source\PSoC4/I2CM_I2C_MASTER.c ****         /* Prepare reading */
 239:.\Generated_Source\PSoC4/I2CM_I2C_MASTER.c ****         if(I2CM_mstrRdBufSize < I2CM_I2C_FIFO_SIZE)
 240:.\Generated_Source\PSoC4/I2CM_I2C_MASTER.c ****         {
 241:.\Generated_Source\PSoC4/I2CM_I2C_MASTER.c ****             /* Reading byte-by-byte */
 242:.\Generated_Source\PSoC4/I2CM_I2C_MASTER.c ****             I2CM_SetRxInterruptMode(I2CM_INTR_RX_NOT_EMPTY);
 243:.\Generated_Source\PSoC4/I2CM_I2C_MASTER.c ****         }
 244:.\Generated_Source\PSoC4/I2CM_I2C_MASTER.c ****         else
 245:.\Generated_Source\PSoC4/I2CM_I2C_MASTER.c ****         {
 246:.\Generated_Source\PSoC4/I2CM_I2C_MASTER.c ****             /* Receive RX FIFO chunks */
 247:.\Generated_Source\PSoC4/I2CM_I2C_MASTER.c ****             I2CM_ENABLE_MASTER_AUTO_DATA_ACK;
 248:.\Generated_Source\PSoC4/I2CM_I2C_MASTER.c ****             I2CM_SetRxInterruptMode(I2CM_INTR_RX_FULL);
 249:.\Generated_Source\PSoC4/I2CM_I2C_MASTER.c ****         }
 250:.\Generated_Source\PSoC4/I2CM_I2C_MASTER.c **** 
 251:.\Generated_Source\PSoC4/I2CM_I2C_MASTER.c ****         /* Generate Start or ReStart */
 252:.\Generated_Source\PSoC4/I2CM_I2C_MASTER.c ****         if(I2CM_CHECK_I2C_MODE_RESTART(mode))
 253:.\Generated_Source\PSoC4/I2CM_I2C_MASTER.c ****         {
 254:.\Generated_Source\PSoC4/I2CM_I2C_MASTER.c ****             I2CM_I2C_MASTER_GENERATE_RESTART;
 255:.\Generated_Source\PSoC4/I2CM_I2C_MASTER.c ****             I2CM_TX_FIFO_WR_REG = (slaveAddress);
 256:.\Generated_Source\PSoC4/I2CM_I2C_MASTER.c ****         }
 257:.\Generated_Source\PSoC4/I2CM_I2C_MASTER.c ****         else
 258:.\Generated_Source\PSoC4/I2CM_I2C_MASTER.c ****         {
 259:.\Generated_Source\PSoC4/I2CM_I2C_MASTER.c ****             I2CM_TX_FIFO_WR_REG = (slaveAddress);
 260:.\Generated_Source\PSoC4/I2CM_I2C_MASTER.c ****             I2CM_I2C_MASTER_GENERATE_START;
ARM GAS  C:\Users\ddemidov\AppData\Local\Temp\ccUDC9zP.s 			page 6


 261:.\Generated_Source\PSoC4/I2CM_I2C_MASTER.c ****         }
 262:.\Generated_Source\PSoC4/I2CM_I2C_MASTER.c ****     }
 263:.\Generated_Source\PSoC4/I2CM_I2C_MASTER.c **** 
 264:.\Generated_Source\PSoC4/I2CM_I2C_MASTER.c ****     I2CM_EnableInt();   /* Release lock */
 265:.\Generated_Source\PSoC4/I2CM_I2C_MASTER.c **** 
 266:.\Generated_Source\PSoC4/I2CM_I2C_MASTER.c ****     return(errStatus);
 267:.\Generated_Source\PSoC4/I2CM_I2C_MASTER.c **** }
 268:.\Generated_Source\PSoC4/I2CM_I2C_MASTER.c **** 
 269:.\Generated_Source\PSoC4/I2CM_I2C_MASTER.c **** 
 270:.\Generated_Source\PSoC4/I2CM_I2C_MASTER.c **** /*******************************************************************************
 271:.\Generated_Source\PSoC4/I2CM_I2C_MASTER.c **** * Function Name: I2CM_I2CMasterSendStart
 272:.\Generated_Source\PSoC4/I2CM_I2C_MASTER.c **** ********************************************************************************
 273:.\Generated_Source\PSoC4/I2CM_I2C_MASTER.c **** *
 274:.\Generated_Source\PSoC4/I2CM_I2C_MASTER.c **** * Summary:
 275:.\Generated_Source\PSoC4/I2CM_I2C_MASTER.c **** *  Generates Start condition and sends slave address with read/write bit.
 276:.\Generated_Source\PSoC4/I2CM_I2C_MASTER.c **** *  Disables the I2C interrupt.
 277:.\Generated_Source\PSoC4/I2CM_I2C_MASTER.c **** *  This function is blocking and does not return until start condition and
 278:.\Generated_Source\PSoC4/I2CM_I2C_MASTER.c **** *  address byte are sent and ACK/NACK response is received or errors occurred.
 279:.\Generated_Source\PSoC4/I2CM_I2C_MASTER.c **** *
 280:.\Generated_Source\PSoC4/I2CM_I2C_MASTER.c **** * Parameters:
 281:.\Generated_Source\PSoC4/I2CM_I2C_MASTER.c **** *  slaveAddress: Right justified 7-bit Slave address (valid range 8 to 120).
 282:.\Generated_Source\PSoC4/I2CM_I2C_MASTER.c **** *  bitRnW:       Direction of the following transfer. It is defined by
 283:.\Generated_Source\PSoC4/I2CM_I2C_MASTER.c **** *                read/write bit within address byte.
 284:.\Generated_Source\PSoC4/I2CM_I2C_MASTER.c **** *
 285:.\Generated_Source\PSoC4/I2CM_I2C_MASTER.c **** * Return:
 286:.\Generated_Source\PSoC4/I2CM_I2C_MASTER.c **** *  Error status.
 287:.\Generated_Source\PSoC4/I2CM_I2C_MASTER.c **** *
 288:.\Generated_Source\PSoC4/I2CM_I2C_MASTER.c **** * Global variables:
 289:.\Generated_Source\PSoC4/I2CM_I2C_MASTER.c **** *  I2CM_state - used to store current state of software FSM.
 290:.\Generated_Source\PSoC4/I2CM_I2C_MASTER.c **** *
 291:.\Generated_Source\PSoC4/I2CM_I2C_MASTER.c **** *******************************************************************************/
 292:.\Generated_Source\PSoC4/I2CM_I2C_MASTER.c **** uint32 I2CM_I2CMasterSendStart(uint32 slaveAddress, uint32 bitRnW)
 293:.\Generated_Source\PSoC4/I2CM_I2C_MASTER.c **** {
  26              		.loc 1 293 0
  27              		.cfi_startproc
  28              	.LVL0:
  29 0000 F8B5     		push	{r3, r4, r5, r6, r7, lr}
  30              		.cfi_def_cfa_offset 24
  31              		.cfi_offset 3, -24
  32              		.cfi_offset 4, -20
  33              		.cfi_offset 5, -16
  34              		.cfi_offset 6, -12
  35              		.cfi_offset 7, -8
  36              		.cfi_offset 14, -4
 294:.\Generated_Source\PSoC4/I2CM_I2C_MASTER.c ****     uint32  resetIp;
 295:.\Generated_Source\PSoC4/I2CM_I2C_MASTER.c ****     uint32 errStatus;
 296:.\Generated_Source\PSoC4/I2CM_I2C_MASTER.c **** 
 297:.\Generated_Source\PSoC4/I2CM_I2C_MASTER.c ****     resetIp   = 0u;
 298:.\Generated_Source\PSoC4/I2CM_I2C_MASTER.c ****     errStatus = I2CM_I2C_MSTR_NOT_READY;
 299:.\Generated_Source\PSoC4/I2CM_I2C_MASTER.c **** 
 300:.\Generated_Source\PSoC4/I2CM_I2C_MASTER.c ****     /* Check FSM state before generating Start condition */
 301:.\Generated_Source\PSoC4/I2CM_I2C_MASTER.c ****     if(I2CM_CHECK_I2C_FSM_IDLE)
  37              		.loc 1 301 0
  38 0002 264C     		ldr	r4, .L17
 298:.\Generated_Source\PSoC4/I2CM_I2C_MASTER.c **** 
  39              		.loc 1 298 0
  40 0004 0422     		mov	r2, #4
ARM GAS  C:\Users\ddemidov\AppData\Local\Temp\ccUDC9zP.s 			page 7


  41              		.loc 1 301 0
  42 0006 2378     		ldrb	r3, [r4]
  43 0008 102B     		cmp	r3, #16
  44 000a 44D1     		bne	.L2
 302:.\Generated_Source\PSoC4/I2CM_I2C_MASTER.c ****     {
 303:.\Generated_Source\PSoC4/I2CM_I2C_MASTER.c ****         /* If bus is free, generate Start condition */
 304:.\Generated_Source\PSoC4/I2CM_I2C_MASTER.c ****         if(I2CM_CHECK_I2C_STATUS(I2CM_I2C_STATUS_BUS_BUSY))
  45              		.loc 1 304 0
  46 000c 0125     		mov	r5, #1
  47 000e 244B     		ldr	r3, .L17+4
 305:.\Generated_Source\PSoC4/I2CM_I2C_MASTER.c ****         {
 306:.\Generated_Source\PSoC4/I2CM_I2C_MASTER.c ****             errStatus = I2CM_I2C_MSTR_BUS_BUSY;
  48              		.loc 1 306 0
  49 0010 9218     		add	r2, r2, r2
 304:.\Generated_Source\PSoC4/I2CM_I2C_MASTER.c ****         {
  50              		.loc 1 304 0
  51 0012 1B68     		ldr	r3, [r3]
  52 0014 2B42     		tst	r3, r5
  53 0016 3ED1     		bne	.L2
  54 0018 071C     		mov	r7, r0
 307:.\Generated_Source\PSoC4/I2CM_I2C_MASTER.c ****         }
 308:.\Generated_Source\PSoC4/I2CM_I2C_MASTER.c ****         else
 309:.\Generated_Source\PSoC4/I2CM_I2C_MASTER.c ****         {
 310:.\Generated_Source\PSoC4/I2CM_I2C_MASTER.c ****             I2CM_DisableInt();  /* Lock from interruption */
  55              		.loc 1 310 0
  56 001a 0A20     		mov	r0, #10
  57              	.LVL1:
  58 001c 0E1C     		mov	r6, r1
  59 001e FFF7FEFF 		bl	CyIntDisable
  60              	.LVL2:
 311:.\Generated_Source\PSoC4/I2CM_I2C_MASTER.c **** 
 312:.\Generated_Source\PSoC4/I2CM_I2C_MASTER.c ****         #if (!I2CM_CY_SCBIP_V0 && \
 313:.\Generated_Source\PSoC4/I2CM_I2C_MASTER.c ****             I2CM_I2C_MULTI_MASTER_SLAVE_CONST && I2CM_I2C_WAKE_ENABLE_CONST)
 314:.\Generated_Source\PSoC4/I2CM_I2C_MASTER.c ****             I2CM_I2CMasterDisableEcAm();
 315:.\Generated_Source\PSoC4/I2CM_I2C_MASTER.c ****         #endif /* (!I2CM_CY_SCBIP_V0) */
 316:.\Generated_Source\PSoC4/I2CM_I2C_MASTER.c **** 
 317:.\Generated_Source\PSoC4/I2CM_I2C_MASTER.c ****             slaveAddress = I2CM_GET_I2C_8BIT_ADDRESS(slaveAddress);
  61              		.loc 1 317 0
  62 0022 FF23     		mov	r3, #255
  63 0024 7800     		lsl	r0, r7, #1
  64 0026 1840     		and	r0, r3
  65              	.LVL3:
 318:.\Generated_Source\PSoC4/I2CM_I2C_MASTER.c **** 
 319:.\Generated_Source\PSoC4/I2CM_I2C_MASTER.c ****             if(0u == bitRnW) /* Write direction */
  66              		.loc 1 319 0
  67 0028 002E     		cmp	r6, #0
  68 002a 02D1     		bne	.L3
 320:.\Generated_Source\PSoC4/I2CM_I2C_MASTER.c ****             {
 321:.\Generated_Source\PSoC4/I2CM_I2C_MASTER.c ****                 I2CM_state = I2CM_I2C_FSM_MSTR_WR_DATA;
  69              		.loc 1 321 0
  70 002c DB3B     		sub	r3, r3, #219
  71 002e 2370     		strb	r3, [r4]
  72 0030 02E0     		b	.L4
  73              	.L3:
 322:.\Generated_Source\PSoC4/I2CM_I2C_MASTER.c ****             }
 323:.\Generated_Source\PSoC4/I2CM_I2C_MASTER.c ****             else /* Read direction */
 324:.\Generated_Source\PSoC4/I2CM_I2C_MASTER.c ****             {
ARM GAS  C:\Users\ddemidov\AppData\Local\Temp\ccUDC9zP.s 			page 8


 325:.\Generated_Source\PSoC4/I2CM_I2C_MASTER.c ****                 I2CM_state = I2CM_I2C_FSM_MSTR_RD_DATA;
  74              		.loc 1 325 0
  75 0032 2523     		mov	r3, #37
 326:.\Generated_Source\PSoC4/I2CM_I2C_MASTER.c ****                          slaveAddress |= I2CM_I2C_READ_FLAG;
  76              		.loc 1 326 0
  77 0034 2843     		orr	r0, r5
  78              	.LVL4:
 325:.\Generated_Source\PSoC4/I2CM_I2C_MASTER.c ****                          slaveAddress |= I2CM_I2C_READ_FLAG;
  79              		.loc 1 325 0
  80 0036 2370     		strb	r3, [r4]
  81              	.L4:
 327:.\Generated_Source\PSoC4/I2CM_I2C_MASTER.c ****             }
 328:.\Generated_Source\PSoC4/I2CM_I2C_MASTER.c **** 
 329:.\Generated_Source\PSoC4/I2CM_I2C_MASTER.c ****             /* TX and RX FIFO have to be EMPTY */
 330:.\Generated_Source\PSoC4/I2CM_I2C_MASTER.c **** 
 331:.\Generated_Source\PSoC4/I2CM_I2C_MASTER.c ****             I2CM_TX_FIFO_WR_REG = slaveAddress; /* Put address in TX FIFO */
 332:.\Generated_Source\PSoC4/I2CM_I2C_MASTER.c ****             I2CM_ClearMasterInterruptSource(I2CM_INTR_MASTER_ALL);
 333:.\Generated_Source\PSoC4/I2CM_I2C_MASTER.c **** 
 334:.\Generated_Source\PSoC4/I2CM_I2C_MASTER.c ****             I2CM_I2C_MASTER_GENERATE_START;
  82              		.loc 1 334 0
  83 0038 0222     		mov	r2, #2
 331:.\Generated_Source\PSoC4/I2CM_I2C_MASTER.c ****             I2CM_ClearMasterInterruptSource(I2CM_INTR_MASTER_ALL);
  84              		.loc 1 331 0
  85 003a 1A4B     		ldr	r3, .L17+8
 332:.\Generated_Source\PSoC4/I2CM_I2C_MASTER.c **** 
  86              		.loc 1 332 0
  87 003c 1A49     		ldr	r1, .L17+12
 331:.\Generated_Source\PSoC4/I2CM_I2C_MASTER.c ****             I2CM_ClearMasterInterruptSource(I2CM_INTR_MASTER_ALL);
  88              		.loc 1 331 0
  89 003e 1860     		str	r0, [r3]
 332:.\Generated_Source\PSoC4/I2CM_I2C_MASTER.c **** 
  90              		.loc 1 332 0
  91 0040 1A4B     		ldr	r3, .L17+16
  92 0042 0B60     		str	r3, [r1]
  93              		.loc 1 334 0
  94 0044 1A4B     		ldr	r3, .L17+20
  95 0046 1A60     		str	r2, [r3]
  96              	.LVL5:
  97              	.L5:
  98 0048 0826     		mov	r6, #8
 335:.\Generated_Source\PSoC4/I2CM_I2C_MASTER.c **** 
 336:.\Generated_Source\PSoC4/I2CM_I2C_MASTER.c **** 
 337:.\Generated_Source\PSoC4/I2CM_I2C_MASTER.c ****             while(!I2CM_CHECK_INTR_MASTER(I2CM_INTR_MASTER_I2C_ACK      |
  99              		.loc 1 337 0 discriminator 1
 100 004a 0B68     		ldr	r3, [r1]
 101 004c FF36     		add	r6, r6, #255
 102 004e 164D     		ldr	r5, .L17+12
 103 0050 3342     		tst	r3, r6
 104 0052 F9D0     		beq	.L5
 338:.\Generated_Source\PSoC4/I2CM_I2C_MASTER.c ****                                                       I2CM_INTR_MASTER_I2C_NACK     |
 339:.\Generated_Source\PSoC4/I2CM_I2C_MASTER.c ****                                                       I2CM_INTR_MASTER_I2C_ARB_LOST |
 340:.\Generated_Source\PSoC4/I2CM_I2C_MASTER.c ****                                                       I2CM_INTR_MASTER_I2C_BUS_ERROR))
 341:.\Generated_Source\PSoC4/I2CM_I2C_MASTER.c ****             {
 342:.\Generated_Source\PSoC4/I2CM_I2C_MASTER.c ****                 /*
 343:.\Generated_Source\PSoC4/I2CM_I2C_MASTER.c ****                 * Write: wait until address has been transferred
 344:.\Generated_Source\PSoC4/I2CM_I2C_MASTER.c ****                 * Read : wait until address has been transferred, data byte is going to RX FIFO as 
 345:.\Generated_Source\PSoC4/I2CM_I2C_MASTER.c ****                 */
ARM GAS  C:\Users\ddemidov\AppData\Local\Temp\ccUDC9zP.s 			page 9


 346:.\Generated_Source\PSoC4/I2CM_I2C_MASTER.c ****             }
 347:.\Generated_Source\PSoC4/I2CM_I2C_MASTER.c **** 
 348:.\Generated_Source\PSoC4/I2CM_I2C_MASTER.c ****             /* Check the results of the address phase */
 349:.\Generated_Source\PSoC4/I2CM_I2C_MASTER.c ****             if(I2CM_CHECK_INTR_MASTER(I2CM_INTR_MASTER_I2C_ACK))
 105              		.loc 1 349 0
 106 0054 0423     		mov	r3, #4
 107 0056 2A68     		ldr	r2, [r5]
 108 0058 1340     		and	r3, r2
 109 005a 0DD1     		bne	.L10
 350:.\Generated_Source\PSoC4/I2CM_I2C_MASTER.c ****             {
 351:.\Generated_Source\PSoC4/I2CM_I2C_MASTER.c ****                 errStatus = I2CM_I2C_MSTR_NO_ERROR;
 352:.\Generated_Source\PSoC4/I2CM_I2C_MASTER.c ****             }
 353:.\Generated_Source\PSoC4/I2CM_I2C_MASTER.c ****             else if(I2CM_CHECK_INTR_MASTER(I2CM_INTR_MASTER_I2C_NACK))
 110              		.loc 1 353 0
 111 005c 0222     		mov	r2, #2
 112 005e 2868     		ldr	r0, [r5]
 113              	.LVL6:
 114 0060 1042     		tst	r0, r2
 115 0062 0BD1     		bne	.L6
 354:.\Generated_Source\PSoC4/I2CM_I2C_MASTER.c ****             {
 355:.\Generated_Source\PSoC4/I2CM_I2C_MASTER.c ****                 errStatus = I2CM_I2C_MSTR_ERR_LB_NAK;
 356:.\Generated_Source\PSoC4/I2CM_I2C_MASTER.c ****             }
 357:.\Generated_Source\PSoC4/I2CM_I2C_MASTER.c ****             else if(I2CM_CHECK_INTR_MASTER(I2CM_INTR_MASTER_I2C_ARB_LOST))
 116              		.loc 1 357 0
 117 0064 2868     		ldr	r0, [r5]
 118 0066 0E32     		add	r2, r2, #14
 119 0068 0133     		add	r3, r3, #1
 358:.\Generated_Source\PSoC4/I2CM_I2C_MASTER.c ****             {
 359:.\Generated_Source\PSoC4/I2CM_I2C_MASTER.c ****                 I2CM_state = I2CM_I2C_FSM_IDLE;
 120              		.loc 1 359 0
 121 006a 2270     		strb	r2, [r4]
 360:.\Generated_Source\PSoC4/I2CM_I2C_MASTER.c ****                              errStatus = I2CM_I2C_MSTR_ERR_ARB_LOST;
 122              		.loc 1 360 0
 123 006c 1A1C     		mov	r2, r3
 357:.\Generated_Source\PSoC4/I2CM_I2C_MASTER.c ****             {
 124              		.loc 1 357 0
 125 006e 1842     		tst	r0, r3
 126 0070 04D1     		bne	.L6
 127              	.LVL7:
 361:.\Generated_Source\PSoC4/I2CM_I2C_MASTER.c ****                              resetIp   = I2CM_I2C_RESET_ERROR;
 362:.\Generated_Source\PSoC4/I2CM_I2C_MASTER.c ****             }
 363:.\Generated_Source\PSoC4/I2CM_I2C_MASTER.c ****             else /* I2CM_INTR_MASTER_I2C_BUS_ERROR set is else condition */
 364:.\Generated_Source\PSoC4/I2CM_I2C_MASTER.c ****             {
 365:.\Generated_Source\PSoC4/I2CM_I2C_MASTER.c ****                 I2CM_state = I2CM_I2C_FSM_IDLE;
 366:.\Generated_Source\PSoC4/I2CM_I2C_MASTER.c ****                              errStatus = I2CM_I2C_MSTR_ERR_BUS_ERR;
 128              		.loc 1 366 0
 129 0072 8022     		mov	r2, #128
 130 0074 5200     		lsl	r2, r2, #1
 131 0076 01E0     		b	.L6
 132              	.LVL8:
 133              	.L10:
 351:.\Generated_Source\PSoC4/I2CM_I2C_MASTER.c ****             }
 134              		.loc 1 351 0
 135 0078 0022     		mov	r2, #0
 297:.\Generated_Source\PSoC4/I2CM_I2C_MASTER.c ****     errStatus = I2CM_I2C_MSTR_NOT_READY;
 136              		.loc 1 297 0
 137 007a 131C     		mov	r3, r2
ARM GAS  C:\Users\ddemidov\AppData\Local\Temp\ccUDC9zP.s 			page 10


 138              	.LVL9:
 139              	.L6:
 367:.\Generated_Source\PSoC4/I2CM_I2C_MASTER.c ****                              resetIp   = I2CM_I2C_RESET_ERROR;
 368:.\Generated_Source\PSoC4/I2CM_I2C_MASTER.c ****             }
 369:.\Generated_Source\PSoC4/I2CM_I2C_MASTER.c **** 
 370:.\Generated_Source\PSoC4/I2CM_I2C_MASTER.c ****             I2CM_ClearMasterInterruptSource(I2CM_INTR_MASTER_I2C_ACK      |
 140              		.loc 1 370 0
 141 007c 0E60     		str	r6, [r1]
 371:.\Generated_Source\PSoC4/I2CM_I2C_MASTER.c ****                                                         I2CM_INTR_MASTER_I2C_NACK     |
 372:.\Generated_Source\PSoC4/I2CM_I2C_MASTER.c ****                                                         I2CM_INTR_MASTER_I2C_ARB_LOST |
 373:.\Generated_Source\PSoC4/I2CM_I2C_MASTER.c ****                                                         I2CM_INTR_MASTER_I2C_BUS_ERROR);
 374:.\Generated_Source\PSoC4/I2CM_I2C_MASTER.c **** 
 375:.\Generated_Source\PSoC4/I2CM_I2C_MASTER.c ****             /* Reset block in case of: LOST_ARB or BUS_ERR */
 376:.\Generated_Source\PSoC4/I2CM_I2C_MASTER.c ****             if(0u != resetIp)
 142              		.loc 1 376 0
 143 007e 002B     		cmp	r3, #0
 144 0080 09D0     		beq	.L2
 377:.\Generated_Source\PSoC4/I2CM_I2C_MASTER.c ****             {
 378:.\Generated_Source\PSoC4/I2CM_I2C_MASTER.c ****                 I2CM_SCB_SW_RESET;
 145              		.loc 1 378 0
 146 0082 8020     		mov	r0, #128
 147 0084 0B49     		ldr	r1, .L17+24
 148 0086 0006     		lsl	r0, r0, #24
 149 0088 0B68     		ldr	r3, [r1]
 150 008a 5B00     		lsl	r3, r3, #1
 151 008c 5B08     		lsr	r3, r3, #1
 152 008e 0B60     		str	r3, [r1]
 153 0090 0B68     		ldr	r3, [r1]
 154 0092 0343     		orr	r3, r0
 155 0094 0B60     		str	r3, [r1]
 156              	.LVL10:
 157              	.L2:
 379:.\Generated_Source\PSoC4/I2CM_I2C_MASTER.c ****             }
 380:.\Generated_Source\PSoC4/I2CM_I2C_MASTER.c ****         }
 381:.\Generated_Source\PSoC4/I2CM_I2C_MASTER.c ****     }
 382:.\Generated_Source\PSoC4/I2CM_I2C_MASTER.c **** 
 383:.\Generated_Source\PSoC4/I2CM_I2C_MASTER.c ****     return(errStatus);
 384:.\Generated_Source\PSoC4/I2CM_I2C_MASTER.c **** }
 158              		.loc 1 384 0
 159 0096 101C     		mov	r0, r2
 160              		@ sp needed
 161 0098 F8BD     		pop	{r3, r4, r5, r6, r7, pc}
 162              	.L18:
 163 009a C046     		.align	2
 164              	.L17:
 165 009c 00000000 		.word	I2CM_state
 166 00a0 64002540 		.word	1076166756
 167 00a4 40022540 		.word	1076167232
 168 00a8 000F2540 		.word	1076170496
 169 00ac 17030000 		.word	791
 170 00b0 68002540 		.word	1076166760
 171 00b4 00002540 		.word	1076166656
 172              		.cfi_endproc
 173              	.LFE4:
 174              		.size	I2CM_I2CMasterSendStart, .-I2CM_I2CMasterSendStart
 175              		.section	.text.I2CM_I2CMasterSendStop,"ax",%progbits
 176              		.align	1
ARM GAS  C:\Users\ddemidov\AppData\Local\Temp\ccUDC9zP.s 			page 11


 177              		.global	I2CM_I2CMasterSendStop
 178              		.code	16
 179              		.thumb_func
 180              		.type	I2CM_I2CMasterSendStop, %function
 181              	I2CM_I2CMasterSendStop:
 182              	.LFB6:
 385:.\Generated_Source\PSoC4/I2CM_I2C_MASTER.c **** 
 386:.\Generated_Source\PSoC4/I2CM_I2C_MASTER.c **** 
 387:.\Generated_Source\PSoC4/I2CM_I2C_MASTER.c **** /*******************************************************************************
 388:.\Generated_Source\PSoC4/I2CM_I2C_MASTER.c **** * Function Name: I2CM_I2CMasterSendRestart
 389:.\Generated_Source\PSoC4/I2CM_I2C_MASTER.c **** ********************************************************************************
 390:.\Generated_Source\PSoC4/I2CM_I2C_MASTER.c **** *
 391:.\Generated_Source\PSoC4/I2CM_I2C_MASTER.c **** * Summary:
 392:.\Generated_Source\PSoC4/I2CM_I2C_MASTER.c **** *  Generates Restart condition and sends slave address with read/write bit.
 393:.\Generated_Source\PSoC4/I2CM_I2C_MASTER.c **** *  This function is blocking and does not return until start condition and
 394:.\Generated_Source\PSoC4/I2CM_I2C_MASTER.c **** *  address are sent and ACK/NACK response is received or errors occurred.
 395:.\Generated_Source\PSoC4/I2CM_I2C_MASTER.c **** *
 396:.\Generated_Source\PSoC4/I2CM_I2C_MASTER.c **** * Parameters:
 397:.\Generated_Source\PSoC4/I2CM_I2C_MASTER.c **** *  slaveAddress: Right justified 7-bit Slave address (valid range 8 to 120).
 398:.\Generated_Source\PSoC4/I2CM_I2C_MASTER.c **** *  bitRnW:       Direction of the following transfer. It is defined by
 399:.\Generated_Source\PSoC4/I2CM_I2C_MASTER.c **** *                read/write bit within address byte.
 400:.\Generated_Source\PSoC4/I2CM_I2C_MASTER.c **** *
 401:.\Generated_Source\PSoC4/I2CM_I2C_MASTER.c **** * Return:
 402:.\Generated_Source\PSoC4/I2CM_I2C_MASTER.c **** *  Error status
 403:.\Generated_Source\PSoC4/I2CM_I2C_MASTER.c **** *
 404:.\Generated_Source\PSoC4/I2CM_I2C_MASTER.c **** *
 405:.\Generated_Source\PSoC4/I2CM_I2C_MASTER.c **** * Global variables:
 406:.\Generated_Source\PSoC4/I2CM_I2C_MASTER.c **** *  I2CM_state - used to store current state of software FSM.
 407:.\Generated_Source\PSoC4/I2CM_I2C_MASTER.c **** *
 408:.\Generated_Source\PSoC4/I2CM_I2C_MASTER.c **** *******************************************************************************/
 409:.\Generated_Source\PSoC4/I2CM_I2C_MASTER.c **** uint32 I2CM_I2CMasterSendRestart(uint32 slaveAddress, uint32 bitRnW)
 410:.\Generated_Source\PSoC4/I2CM_I2C_MASTER.c **** {
 411:.\Generated_Source\PSoC4/I2CM_I2C_MASTER.c ****     uint32 resetIp;
 412:.\Generated_Source\PSoC4/I2CM_I2C_MASTER.c ****     uint32 errStatus;
 413:.\Generated_Source\PSoC4/I2CM_I2C_MASTER.c **** 
 414:.\Generated_Source\PSoC4/I2CM_I2C_MASTER.c ****     resetIp   = 0u;
 415:.\Generated_Source\PSoC4/I2CM_I2C_MASTER.c ****     errStatus = I2CM_I2C_MSTR_NOT_READY;
 416:.\Generated_Source\PSoC4/I2CM_I2C_MASTER.c **** 
 417:.\Generated_Source\PSoC4/I2CM_I2C_MASTER.c ****     /* Check FSM state before generating ReStart condition */
 418:.\Generated_Source\PSoC4/I2CM_I2C_MASTER.c ****     if(I2CM_CHECK_I2C_MASTER_ACTIVE)
 419:.\Generated_Source\PSoC4/I2CM_I2C_MASTER.c ****     {
 420:.\Generated_Source\PSoC4/I2CM_I2C_MASTER.c ****         slaveAddress = I2CM_GET_I2C_8BIT_ADDRESS(slaveAddress);
 421:.\Generated_Source\PSoC4/I2CM_I2C_MASTER.c **** 
 422:.\Generated_Source\PSoC4/I2CM_I2C_MASTER.c ****         if(0u == bitRnW) /* Write direction */
 423:.\Generated_Source\PSoC4/I2CM_I2C_MASTER.c ****         {
 424:.\Generated_Source\PSoC4/I2CM_I2C_MASTER.c ****             I2CM_state = I2CM_I2C_FSM_MSTR_WR_DATA;
 425:.\Generated_Source\PSoC4/I2CM_I2C_MASTER.c ****         }
 426:.\Generated_Source\PSoC4/I2CM_I2C_MASTER.c ****         else  /* Read direction */
 427:.\Generated_Source\PSoC4/I2CM_I2C_MASTER.c ****         {
 428:.\Generated_Source\PSoC4/I2CM_I2C_MASTER.c ****             I2CM_state  = I2CM_I2C_FSM_MSTR_RD_DATA;
 429:.\Generated_Source\PSoC4/I2CM_I2C_MASTER.c ****                       slaveAddress |= I2CM_I2C_READ_FLAG;
 430:.\Generated_Source\PSoC4/I2CM_I2C_MASTER.c ****         }
 431:.\Generated_Source\PSoC4/I2CM_I2C_MASTER.c **** 
 432:.\Generated_Source\PSoC4/I2CM_I2C_MASTER.c ****         /* TX and RX FIFO have to be EMPTY */
 433:.\Generated_Source\PSoC4/I2CM_I2C_MASTER.c **** 
 434:.\Generated_Source\PSoC4/I2CM_I2C_MASTER.c ****         /* Clean-up interrupt status */
 435:.\Generated_Source\PSoC4/I2CM_I2C_MASTER.c ****         I2CM_ClearMasterInterruptSource(I2CM_INTR_MASTER_ALL);
ARM GAS  C:\Users\ddemidov\AppData\Local\Temp\ccUDC9zP.s 			page 12


 436:.\Generated_Source\PSoC4/I2CM_I2C_MASTER.c **** 
 437:.\Generated_Source\PSoC4/I2CM_I2C_MASTER.c ****         /* A proper ReStart sequence is: generate ReStart, then put an address byte in the TX FIFO.
 438:.\Generated_Source\PSoC4/I2CM_I2C_MASTER.c ****         * Otherwise the master treats the address in the TX FIFO as a data byte if a previous trans
 439:.\Generated_Source\PSoC4/I2CM_I2C_MASTER.c ****         * The write transfer continues instead of ReStart.
 440:.\Generated_Source\PSoC4/I2CM_I2C_MASTER.c ****         */
 441:.\Generated_Source\PSoC4/I2CM_I2C_MASTER.c ****         I2CM_I2C_MASTER_GENERATE_RESTART;
 442:.\Generated_Source\PSoC4/I2CM_I2C_MASTER.c **** 
 443:.\Generated_Source\PSoC4/I2CM_I2C_MASTER.c ****         while(I2CM_CHECK_I2C_MASTER_CMD(I2CM_I2C_MASTER_CMD_M_START))
 444:.\Generated_Source\PSoC4/I2CM_I2C_MASTER.c ****         {
 445:.\Generated_Source\PSoC4/I2CM_I2C_MASTER.c ****             /* Wait until ReStart has been generated */
 446:.\Generated_Source\PSoC4/I2CM_I2C_MASTER.c ****         }
 447:.\Generated_Source\PSoC4/I2CM_I2C_MASTER.c **** 
 448:.\Generated_Source\PSoC4/I2CM_I2C_MASTER.c ****         /* Put address into TX FIFO */
 449:.\Generated_Source\PSoC4/I2CM_I2C_MASTER.c ****         I2CM_TX_FIFO_WR_REG = slaveAddress;
 450:.\Generated_Source\PSoC4/I2CM_I2C_MASTER.c **** 
 451:.\Generated_Source\PSoC4/I2CM_I2C_MASTER.c ****         /* Wait for address to be transferred */
 452:.\Generated_Source\PSoC4/I2CM_I2C_MASTER.c ****         while(!I2CM_CHECK_INTR_MASTER(I2CM_INTR_MASTER_I2C_ACK      |
 453:.\Generated_Source\PSoC4/I2CM_I2C_MASTER.c ****                                                   I2CM_INTR_MASTER_I2C_NACK     |
 454:.\Generated_Source\PSoC4/I2CM_I2C_MASTER.c ****                                                   I2CM_INTR_MASTER_I2C_ARB_LOST |
 455:.\Generated_Source\PSoC4/I2CM_I2C_MASTER.c ****                                                   I2CM_INTR_MASTER_I2C_BUS_ERROR))
 456:.\Generated_Source\PSoC4/I2CM_I2C_MASTER.c ****         {
 457:.\Generated_Source\PSoC4/I2CM_I2C_MASTER.c ****             /* Wait until address has been transferred */
 458:.\Generated_Source\PSoC4/I2CM_I2C_MASTER.c ****         }
 459:.\Generated_Source\PSoC4/I2CM_I2C_MASTER.c **** 
 460:.\Generated_Source\PSoC4/I2CM_I2C_MASTER.c ****         /* Check results of address phase */
 461:.\Generated_Source\PSoC4/I2CM_I2C_MASTER.c ****         if(I2CM_CHECK_INTR_MASTER(I2CM_INTR_MASTER_I2C_ACK))
 462:.\Generated_Source\PSoC4/I2CM_I2C_MASTER.c ****         {
 463:.\Generated_Source\PSoC4/I2CM_I2C_MASTER.c ****             errStatus = I2CM_I2C_MSTR_NO_ERROR;
 464:.\Generated_Source\PSoC4/I2CM_I2C_MASTER.c ****         }
 465:.\Generated_Source\PSoC4/I2CM_I2C_MASTER.c ****         else if(I2CM_CHECK_INTR_MASTER(I2CM_INTR_MASTER_I2C_NACK))
 466:.\Generated_Source\PSoC4/I2CM_I2C_MASTER.c ****         {
 467:.\Generated_Source\PSoC4/I2CM_I2C_MASTER.c ****              errStatus = I2CM_I2C_MSTR_ERR_LB_NAK;
 468:.\Generated_Source\PSoC4/I2CM_I2C_MASTER.c ****         }
 469:.\Generated_Source\PSoC4/I2CM_I2C_MASTER.c ****         else if(I2CM_CHECK_INTR_MASTER(I2CM_INTR_MASTER_I2C_ARB_LOST))
 470:.\Generated_Source\PSoC4/I2CM_I2C_MASTER.c ****         {
 471:.\Generated_Source\PSoC4/I2CM_I2C_MASTER.c ****             I2CM_state = I2CM_I2C_FSM_IDLE;
 472:.\Generated_Source\PSoC4/I2CM_I2C_MASTER.c ****                          errStatus = I2CM_I2C_MSTR_ERR_ARB_LOST;
 473:.\Generated_Source\PSoC4/I2CM_I2C_MASTER.c ****                          resetIp   = I2CM_I2C_RESET_ERROR;
 474:.\Generated_Source\PSoC4/I2CM_I2C_MASTER.c ****         }
 475:.\Generated_Source\PSoC4/I2CM_I2C_MASTER.c ****         else /* I2CM_INTR_MASTER_I2C_BUS_ERROR set is else condition */
 476:.\Generated_Source\PSoC4/I2CM_I2C_MASTER.c ****         {
 477:.\Generated_Source\PSoC4/I2CM_I2C_MASTER.c ****             I2CM_state = I2CM_I2C_FSM_IDLE;
 478:.\Generated_Source\PSoC4/I2CM_I2C_MASTER.c ****                          errStatus = I2CM_I2C_MSTR_ERR_BUS_ERR;
 479:.\Generated_Source\PSoC4/I2CM_I2C_MASTER.c ****                          resetIp   = I2CM_I2C_RESET_ERROR;
 480:.\Generated_Source\PSoC4/I2CM_I2C_MASTER.c ****         }
 481:.\Generated_Source\PSoC4/I2CM_I2C_MASTER.c **** 
 482:.\Generated_Source\PSoC4/I2CM_I2C_MASTER.c ****         I2CM_ClearMasterInterruptSource(I2CM_INTR_MASTER_I2C_ACK      |
 483:.\Generated_Source\PSoC4/I2CM_I2C_MASTER.c ****                                                     I2CM_INTR_MASTER_I2C_NACK     |
 484:.\Generated_Source\PSoC4/I2CM_I2C_MASTER.c ****                                                     I2CM_INTR_MASTER_I2C_ARB_LOST |
 485:.\Generated_Source\PSoC4/I2CM_I2C_MASTER.c ****                                                     I2CM_INTR_MASTER_I2C_BUS_ERROR);
 486:.\Generated_Source\PSoC4/I2CM_I2C_MASTER.c **** 
 487:.\Generated_Source\PSoC4/I2CM_I2C_MASTER.c ****         /* Reset block in case of: LOST_ARB or BUS_ERR */
 488:.\Generated_Source\PSoC4/I2CM_I2C_MASTER.c ****         if(0u != resetIp)
 489:.\Generated_Source\PSoC4/I2CM_I2C_MASTER.c ****         {
 490:.\Generated_Source\PSoC4/I2CM_I2C_MASTER.c ****             I2CM_SCB_SW_RESET;
 491:.\Generated_Source\PSoC4/I2CM_I2C_MASTER.c ****         }
 492:.\Generated_Source\PSoC4/I2CM_I2C_MASTER.c ****     }
ARM GAS  C:\Users\ddemidov\AppData\Local\Temp\ccUDC9zP.s 			page 13


 493:.\Generated_Source\PSoC4/I2CM_I2C_MASTER.c **** 
 494:.\Generated_Source\PSoC4/I2CM_I2C_MASTER.c ****     return(errStatus);
 495:.\Generated_Source\PSoC4/I2CM_I2C_MASTER.c **** }
 496:.\Generated_Source\PSoC4/I2CM_I2C_MASTER.c **** 
 497:.\Generated_Source\PSoC4/I2CM_I2C_MASTER.c **** 
 498:.\Generated_Source\PSoC4/I2CM_I2C_MASTER.c **** /*******************************************************************************
 499:.\Generated_Source\PSoC4/I2CM_I2C_MASTER.c **** * Function Name: I2CM_I2CMasterSendStop
 500:.\Generated_Source\PSoC4/I2CM_I2C_MASTER.c **** ********************************************************************************
 501:.\Generated_Source\PSoC4/I2CM_I2C_MASTER.c **** *
 502:.\Generated_Source\PSoC4/I2CM_I2C_MASTER.c **** * Summary:
 503:.\Generated_Source\PSoC4/I2CM_I2C_MASTER.c **** *  Generates Stop condition on the bus.
 504:.\Generated_Source\PSoC4/I2CM_I2C_MASTER.c **** *  At least one byte has to be read if start or restart condition with read
 505:.\Generated_Source\PSoC4/I2CM_I2C_MASTER.c **** *  direction was generated before.
 506:.\Generated_Source\PSoC4/I2CM_I2C_MASTER.c **** *  This function is blocking and does not return until a stop condition
 507:.\Generated_Source\PSoC4/I2CM_I2C_MASTER.c **** *  is generated or error occurred.
 508:.\Generated_Source\PSoC4/I2CM_I2C_MASTER.c **** *
 509:.\Generated_Source\PSoC4/I2CM_I2C_MASTER.c **** * Parameters:
 510:.\Generated_Source\PSoC4/I2CM_I2C_MASTER.c **** *  None
 511:.\Generated_Source\PSoC4/I2CM_I2C_MASTER.c **** *
 512:.\Generated_Source\PSoC4/I2CM_I2C_MASTER.c **** * Return:
 513:.\Generated_Source\PSoC4/I2CM_I2C_MASTER.c **** *  Error status
 514:.\Generated_Source\PSoC4/I2CM_I2C_MASTER.c **** *
 515:.\Generated_Source\PSoC4/I2CM_I2C_MASTER.c **** * Side Effects:
 516:.\Generated_Source\PSoC4/I2CM_I2C_MASTER.c **** *  A valid Start or ReStart condition must be generated before calling
 517:.\Generated_Source\PSoC4/I2CM_I2C_MASTER.c **** *  this function. This function does nothing if Start or ReStart condition
 518:.\Generated_Source\PSoC4/I2CM_I2C_MASTER.c **** *  failed before this function was called.
 519:.\Generated_Source\PSoC4/I2CM_I2C_MASTER.c **** *  For read transfer, at least one byte has to be read before Stop generation.
 520:.\Generated_Source\PSoC4/I2CM_I2C_MASTER.c **** *
 521:.\Generated_Source\PSoC4/I2CM_I2C_MASTER.c **** * Global variables:
 522:.\Generated_Source\PSoC4/I2CM_I2C_MASTER.c **** *  I2CM_state - used to store current state of software FSM.
 523:.\Generated_Source\PSoC4/I2CM_I2C_MASTER.c **** *
 524:.\Generated_Source\PSoC4/I2CM_I2C_MASTER.c **** *******************************************************************************/
 525:.\Generated_Source\PSoC4/I2CM_I2C_MASTER.c **** uint32 I2CM_I2CMasterSendStop(void)
 526:.\Generated_Source\PSoC4/I2CM_I2C_MASTER.c **** {
 183              		.loc 1 526 0
 184              		.cfi_startproc
 185              	.LVL11:
 527:.\Generated_Source\PSoC4/I2CM_I2C_MASTER.c ****     uint32 resetIp;
 528:.\Generated_Source\PSoC4/I2CM_I2C_MASTER.c ****     uint32 errStatus;
 529:.\Generated_Source\PSoC4/I2CM_I2C_MASTER.c **** 
 530:.\Generated_Source\PSoC4/I2CM_I2C_MASTER.c ****     resetIp   = 0u;
 531:.\Generated_Source\PSoC4/I2CM_I2C_MASTER.c ****     errStatus = I2CM_I2C_MSTR_NOT_READY;
 532:.\Generated_Source\PSoC4/I2CM_I2C_MASTER.c **** 
 533:.\Generated_Source\PSoC4/I2CM_I2C_MASTER.c ****     /* Check FSM state before generating Stop condition */
 534:.\Generated_Source\PSoC4/I2CM_I2C_MASTER.c ****     if(I2CM_CHECK_I2C_MASTER_ACTIVE)
 186              		.loc 1 534 0
 187 0000 2022     		mov	r2, #32
 526:.\Generated_Source\PSoC4/I2CM_I2C_MASTER.c ****     uint32 resetIp;
 188              		.loc 1 526 0
 189 0002 10B5     		push	{r4, lr}
 190              		.cfi_def_cfa_offset 8
 191              		.cfi_offset 4, -8
 192              		.cfi_offset 14, -4
 193              		.loc 1 534 0
 194 0004 184B     		ldr	r3, .L34
 531:.\Generated_Source\PSoC4/I2CM_I2C_MASTER.c **** 
 195              		.loc 1 531 0
ARM GAS  C:\Users\ddemidov\AppData\Local\Temp\ccUDC9zP.s 			page 14


 196 0006 0420     		mov	r0, #4
 197              		.loc 1 534 0
 198 0008 1978     		ldrb	r1, [r3]
 199 000a 1C1C     		mov	r4, r3
 200 000c 1142     		tst	r1, r2
 201 000e 2AD0     		beq	.L20
 535:.\Generated_Source\PSoC4/I2CM_I2C_MASTER.c ****     {
 536:.\Generated_Source\PSoC4/I2CM_I2C_MASTER.c ****         /*
 537:.\Generated_Source\PSoC4/I2CM_I2C_MASTER.c ****         * Write direction: generates Stop
 538:.\Generated_Source\PSoC4/I2CM_I2C_MASTER.c ****         * Read  direction: generates NACK and Stop
 539:.\Generated_Source\PSoC4/I2CM_I2C_MASTER.c ****         */
 540:.\Generated_Source\PSoC4/I2CM_I2C_MASTER.c ****         I2CM_I2C_MASTER_GENERATE_STOP;
 202              		.loc 1 540 0
 203 0010 164B     		ldr	r3, .L34+4
 204 0012 1968     		ldr	r1, [r3]
 205 0014 1823     		mov	r3, #24
 206 0016 1142     		tst	r1, r2
 207 0018 00D1     		bne	.L21
 208 001a 083B     		sub	r3, r3, #8
 209              	.L21:
 210              		.loc 1 540 0 is_stmt 0 discriminator 4
 211 001c 144A     		ldr	r2, .L34+8
 212 001e 1360     		str	r3, [r2]
 213              	.L22:
 214 0020 1221     		mov	r1, #18
 541:.\Generated_Source\PSoC4/I2CM_I2C_MASTER.c **** 
 542:.\Generated_Source\PSoC4/I2CM_I2C_MASTER.c ****         while(!I2CM_CHECK_INTR_MASTER(I2CM_INTR_MASTER_I2C_STOP     |
 215              		.loc 1 542 0 is_stmt 1 discriminator 1
 216 0022 144A     		ldr	r2, .L34+12
 217 0024 FF31     		add	r1, r1, #255
 218 0026 1368     		ldr	r3, [r2]
 219 0028 0B42     		tst	r3, r1
 220 002a F9D0     		beq	.L22
 543:.\Generated_Source\PSoC4/I2CM_I2C_MASTER.c ****                                                   I2CM_INTR_MASTER_I2C_ARB_LOST |
 544:.\Generated_Source\PSoC4/I2CM_I2C_MASTER.c ****                                                   I2CM_INTR_MASTER_I2C_BUS_ERROR))
 545:.\Generated_Source\PSoC4/I2CM_I2C_MASTER.c ****         {
 546:.\Generated_Source\PSoC4/I2CM_I2C_MASTER.c ****             /* Wait until Stop has been generated */
 547:.\Generated_Source\PSoC4/I2CM_I2C_MASTER.c ****         }
 548:.\Generated_Source\PSoC4/I2CM_I2C_MASTER.c **** 
 549:.\Generated_Source\PSoC4/I2CM_I2C_MASTER.c ****         /* Check Stop generation */
 550:.\Generated_Source\PSoC4/I2CM_I2C_MASTER.c ****         if(I2CM_CHECK_INTR_MASTER(I2CM_INTR_MASTER_I2C_STOP))
 221              		.loc 1 550 0
 222 002c 1368     		ldr	r3, [r2]
 223 002e DB06     		lsl	r3, r3, #27
 224 0030 06D4     		bmi	.L26
 551:.\Generated_Source\PSoC4/I2CM_I2C_MASTER.c ****         {
 552:.\Generated_Source\PSoC4/I2CM_I2C_MASTER.c ****             errStatus = I2CM_I2C_MSTR_NO_ERROR;
 553:.\Generated_Source\PSoC4/I2CM_I2C_MASTER.c ****         }
 554:.\Generated_Source\PSoC4/I2CM_I2C_MASTER.c ****         else if(I2CM_CHECK_INTR_MASTER(I2CM_INTR_MASTER_I2C_ARB_LOST))
 225              		.loc 1 554 0
 226 0032 0123     		mov	r3, #1
 227 0034 1068     		ldr	r0, [r2]
 228 0036 1842     		tst	r0, r3
 229 0038 04D1     		bne	.L27
 555:.\Generated_Source\PSoC4/I2CM_I2C_MASTER.c ****         {
 556:.\Generated_Source\PSoC4/I2CM_I2C_MASTER.c ****             errStatus = I2CM_I2C_MSTR_ERR_ARB_LOST;
 557:.\Generated_Source\PSoC4/I2CM_I2C_MASTER.c ****             resetIp   = I2CM_I2C_RESET_ERROR;
ARM GAS  C:\Users\ddemidov\AppData\Local\Temp\ccUDC9zP.s 			page 15


 558:.\Generated_Source\PSoC4/I2CM_I2C_MASTER.c ****         }
 559:.\Generated_Source\PSoC4/I2CM_I2C_MASTER.c ****         else /* I2CM_INTR_MASTER_I2C_BUS_ERROR is set */
 560:.\Generated_Source\PSoC4/I2CM_I2C_MASTER.c ****         {
 561:.\Generated_Source\PSoC4/I2CM_I2C_MASTER.c ****             errStatus = I2CM_I2C_MSTR_ERR_BUS_ERR;
 230              		.loc 1 561 0
 231 003a 8020     		mov	r0, #128
 232 003c 4000     		lsl	r0, r0, #1
 233 003e 03E0     		b	.L23
 234              	.L26:
 552:.\Generated_Source\PSoC4/I2CM_I2C_MASTER.c ****         }
 235              		.loc 1 552 0
 236 0040 0020     		mov	r0, #0
 237 0042 00E0     		b	.L33
 238              	.L27:
 556:.\Generated_Source\PSoC4/I2CM_I2C_MASTER.c ****             resetIp   = I2CM_I2C_RESET_ERROR;
 239              		.loc 1 556 0
 240 0044 181C     		mov	r0, r3
 241              	.L33:
 557:.\Generated_Source\PSoC4/I2CM_I2C_MASTER.c ****         }
 242              		.loc 1 557 0
 243 0046 031C     		mov	r3, r0
 244              	.L23:
 245              	.LVL12:
 562:.\Generated_Source\PSoC4/I2CM_I2C_MASTER.c ****             resetIp   = I2CM_I2C_RESET_ERROR;
 563:.\Generated_Source\PSoC4/I2CM_I2C_MASTER.c ****         }
 564:.\Generated_Source\PSoC4/I2CM_I2C_MASTER.c **** 
 565:.\Generated_Source\PSoC4/I2CM_I2C_MASTER.c ****         I2CM_ClearMasterInterruptSource(I2CM_INTR_MASTER_I2C_STOP     |
 246              		.loc 1 565 0
 247 0048 1160     		str	r1, [r2]
 566:.\Generated_Source\PSoC4/I2CM_I2C_MASTER.c ****                                                     I2CM_INTR_MASTER_I2C_ARB_LOST |
 567:.\Generated_Source\PSoC4/I2CM_I2C_MASTER.c ****                                                     I2CM_INTR_MASTER_I2C_BUS_ERROR);
 568:.\Generated_Source\PSoC4/I2CM_I2C_MASTER.c **** 
 569:.\Generated_Source\PSoC4/I2CM_I2C_MASTER.c ****         I2CM_state = I2CM_I2C_FSM_IDLE;
 248              		.loc 1 569 0
 249 004a 1022     		mov	r2, #16
 250 004c 2270     		strb	r2, [r4]
 570:.\Generated_Source\PSoC4/I2CM_I2C_MASTER.c **** 
 571:.\Generated_Source\PSoC4/I2CM_I2C_MASTER.c ****         /* Reset block in case of: LOST_ARB or BUS_ERR */
 572:.\Generated_Source\PSoC4/I2CM_I2C_MASTER.c ****         if(0u != resetIp)
 251              		.loc 1 572 0
 252 004e 002B     		cmp	r3, #0
 253 0050 09D0     		beq	.L20
 573:.\Generated_Source\PSoC4/I2CM_I2C_MASTER.c ****         {
 574:.\Generated_Source\PSoC4/I2CM_I2C_MASTER.c ****             I2CM_SCB_SW_RESET;
 254              		.loc 1 574 0
 255 0052 8021     		mov	r1, #128
 256 0054 084A     		ldr	r2, .L34+16
 257 0056 0906     		lsl	r1, r1, #24
 258 0058 1368     		ldr	r3, [r2]
 259 005a 5B00     		lsl	r3, r3, #1
 260 005c 5B08     		lsr	r3, r3, #1
 261 005e 1360     		str	r3, [r2]
 262 0060 1368     		ldr	r3, [r2]
 263 0062 0B43     		orr	r3, r1
 264 0064 1360     		str	r3, [r2]
 265              	.LVL13:
 266              	.L20:
ARM GAS  C:\Users\ddemidov\AppData\Local\Temp\ccUDC9zP.s 			page 16


 575:.\Generated_Source\PSoC4/I2CM_I2C_MASTER.c ****         }
 576:.\Generated_Source\PSoC4/I2CM_I2C_MASTER.c ****     }
 577:.\Generated_Source\PSoC4/I2CM_I2C_MASTER.c **** 
 578:.\Generated_Source\PSoC4/I2CM_I2C_MASTER.c ****     return(errStatus);
 579:.\Generated_Source\PSoC4/I2CM_I2C_MASTER.c **** }
 267              		.loc 1 579 0
 268              		@ sp needed
 269 0066 10BD     		pop	{r4, pc}
 270              	.L35:
 271              		.align	2
 272              	.L34:
 273 0068 00000000 		.word	I2CM_state
 274 006c 64002540 		.word	1076166756
 275 0070 68002540 		.word	1076166760
 276 0074 000F2540 		.word	1076170496
 277 0078 00002540 		.word	1076166656
 278              		.cfi_endproc
 279              	.LFE6:
 280              		.size	I2CM_I2CMasterSendStop, .-I2CM_I2CMasterSendStop
 281              		.section	.text.I2CM_I2CMasterWriteByte,"ax",%progbits
 282              		.align	1
 283              		.global	I2CM_I2CMasterWriteByte
 284              		.code	16
 285              		.thumb_func
 286              		.type	I2CM_I2CMasterWriteByte, %function
 287              	I2CM_I2CMasterWriteByte:
 288              	.LFB7:
 580:.\Generated_Source\PSoC4/I2CM_I2C_MASTER.c **** 
 581:.\Generated_Source\PSoC4/I2CM_I2C_MASTER.c **** 
 582:.\Generated_Source\PSoC4/I2CM_I2C_MASTER.c **** /*******************************************************************************
 583:.\Generated_Source\PSoC4/I2CM_I2C_MASTER.c **** * Function Name: I2CM_I2CMasterWriteByte
 584:.\Generated_Source\PSoC4/I2CM_I2C_MASTER.c **** ********************************************************************************
 585:.\Generated_Source\PSoC4/I2CM_I2C_MASTER.c **** *
 586:.\Generated_Source\PSoC4/I2CM_I2C_MASTER.c **** * Summary:
 587:.\Generated_Source\PSoC4/I2CM_I2C_MASTER.c **** *  Sends one byte to a slave.
 588:.\Generated_Source\PSoC4/I2CM_I2C_MASTER.c **** *  This function is blocking and does not return until byte is transmitted
 589:.\Generated_Source\PSoC4/I2CM_I2C_MASTER.c **** *  or error occurred.
 590:.\Generated_Source\PSoC4/I2CM_I2C_MASTER.c **** *
 591:.\Generated_Source\PSoC4/I2CM_I2C_MASTER.c **** * Parameters:
 592:.\Generated_Source\PSoC4/I2CM_I2C_MASTER.c **** *  data: The data byte to send to the slave.
 593:.\Generated_Source\PSoC4/I2CM_I2C_MASTER.c **** *
 594:.\Generated_Source\PSoC4/I2CM_I2C_MASTER.c **** * Return:
 595:.\Generated_Source\PSoC4/I2CM_I2C_MASTER.c **** *  Error status
 596:.\Generated_Source\PSoC4/I2CM_I2C_MASTER.c **** *
 597:.\Generated_Source\PSoC4/I2CM_I2C_MASTER.c **** * Side Effects:
 598:.\Generated_Source\PSoC4/I2CM_I2C_MASTER.c **** *  A valid Start or ReStart condition must be generated before calling
 599:.\Generated_Source\PSoC4/I2CM_I2C_MASTER.c **** *  this function. This function does nothing if Start or ReStart condition
 600:.\Generated_Source\PSoC4/I2CM_I2C_MASTER.c **** *  failed before this function was called.
 601:.\Generated_Source\PSoC4/I2CM_I2C_MASTER.c **** *
 602:.\Generated_Source\PSoC4/I2CM_I2C_MASTER.c **** * Global variables:
 603:.\Generated_Source\PSoC4/I2CM_I2C_MASTER.c **** *  I2CM_state - used to store current state of software FSM.
 604:.\Generated_Source\PSoC4/I2CM_I2C_MASTER.c **** *
 605:.\Generated_Source\PSoC4/I2CM_I2C_MASTER.c **** *******************************************************************************/
 606:.\Generated_Source\PSoC4/I2CM_I2C_MASTER.c **** uint32 I2CM_I2CMasterWriteByte(uint32 theByte)
 607:.\Generated_Source\PSoC4/I2CM_I2C_MASTER.c **** {
 289              		.loc 1 607 0
 290              		.cfi_startproc
ARM GAS  C:\Users\ddemidov\AppData\Local\Temp\ccUDC9zP.s 			page 17


 291              	.LVL14:
 292 0000 30B5     		push	{r4, r5, lr}
 293              		.cfi_def_cfa_offset 12
 294              		.cfi_offset 4, -12
 295              		.cfi_offset 5, -8
 296              		.cfi_offset 14, -4
 608:.\Generated_Source\PSoC4/I2CM_I2C_MASTER.c ****     uint32 resetIp;
 609:.\Generated_Source\PSoC4/I2CM_I2C_MASTER.c ****     uint32 errStatus;
 610:.\Generated_Source\PSoC4/I2CM_I2C_MASTER.c **** 
 611:.\Generated_Source\PSoC4/I2CM_I2C_MASTER.c ****     resetIp   = 0u;
 612:.\Generated_Source\PSoC4/I2CM_I2C_MASTER.c ****     errStatus = I2CM_I2C_MSTR_NOT_READY;
 613:.\Generated_Source\PSoC4/I2CM_I2C_MASTER.c **** 
 614:.\Generated_Source\PSoC4/I2CM_I2C_MASTER.c ****     /* Check FSM state before write byte */
 615:.\Generated_Source\PSoC4/I2CM_I2C_MASTER.c ****     if(I2CM_CHECK_I2C_MASTER_ACTIVE)
 297              		.loc 1 615 0
 298 0002 1A49     		ldr	r1, .L49
 607:.\Generated_Source\PSoC4/I2CM_I2C_MASTER.c ****     uint32 resetIp;
 299              		.loc 1 607 0
 300 0004 021C     		mov	r2, r0
 301              		.loc 1 615 0
 302 0006 0B78     		ldrb	r3, [r1]
 612:.\Generated_Source\PSoC4/I2CM_I2C_MASTER.c **** 
 303              		.loc 1 612 0
 304 0008 0420     		mov	r0, #4
 305              	.LVL15:
 306              		.loc 1 615 0
 307 000a 9B06     		lsl	r3, r3, #26
 308 000c 2DD5     		bpl	.L37
 616:.\Generated_Source\PSoC4/I2CM_I2C_MASTER.c ****     {
 617:.\Generated_Source\PSoC4/I2CM_I2C_MASTER.c ****         I2CM_TX_FIFO_WR_REG = theByte;
 309              		.loc 1 617 0
 310 000e 184B     		ldr	r3, .L49+4
 311 0010 1A60     		str	r2, [r3]
 312              	.LVL16:
 313              	.L38:
 314 0012 0824     		mov	r4, #8
 618:.\Generated_Source\PSoC4/I2CM_I2C_MASTER.c **** 
 619:.\Generated_Source\PSoC4/I2CM_I2C_MASTER.c ****         while(!I2CM_CHECK_INTR_MASTER(I2CM_INTR_MASTER_I2C_ACK      |
 315              		.loc 1 619 0 discriminator 1
 316 0014 174A     		ldr	r2, .L49+8
 317 0016 FF34     		add	r4, r4, #255
 318 0018 1368     		ldr	r3, [r2]
 319 001a 2342     		tst	r3, r4
 320 001c F9D0     		beq	.L38
 620:.\Generated_Source\PSoC4/I2CM_I2C_MASTER.c ****                                                   I2CM_INTR_MASTER_I2C_NACK     |
 621:.\Generated_Source\PSoC4/I2CM_I2C_MASTER.c ****                                                   I2CM_INTR_MASTER_I2C_ARB_LOST |
 622:.\Generated_Source\PSoC4/I2CM_I2C_MASTER.c ****                                                   I2CM_INTR_MASTER_I2C_BUS_ERROR))
 623:.\Generated_Source\PSoC4/I2CM_I2C_MASTER.c ****         {
 624:.\Generated_Source\PSoC4/I2CM_I2C_MASTER.c ****             /* Wait until byte has been transferred */
 625:.\Generated_Source\PSoC4/I2CM_I2C_MASTER.c ****         }
 626:.\Generated_Source\PSoC4/I2CM_I2C_MASTER.c **** 
 627:.\Generated_Source\PSoC4/I2CM_I2C_MASTER.c ****         /* Check results after byte was sent */
 628:.\Generated_Source\PSoC4/I2CM_I2C_MASTER.c ****         if(I2CM_CHECK_INTR_MASTER(I2CM_INTR_MASTER_I2C_ACK))
 321              		.loc 1 628 0
 322 001e 0423     		mov	r3, #4
 323 0020 1068     		ldr	r0, [r2]
 324 0022 0340     		and	r3, r0
ARM GAS  C:\Users\ddemidov\AppData\Local\Temp\ccUDC9zP.s 			page 18


 325 0024 04D0     		beq	.L39
 629:.\Generated_Source\PSoC4/I2CM_I2C_MASTER.c ****         {
 630:.\Generated_Source\PSoC4/I2CM_I2C_MASTER.c ****             I2CM_state = I2CM_I2C_FSM_MSTR_HALT;
 326              		.loc 1 630 0
 327 0026 6023     		mov	r3, #96
 631:.\Generated_Source\PSoC4/I2CM_I2C_MASTER.c ****                          errStatus = I2CM_I2C_MSTR_NO_ERROR;
 328              		.loc 1 631 0
 329 0028 0020     		mov	r0, #0
 630:.\Generated_Source\PSoC4/I2CM_I2C_MASTER.c ****                          errStatus = I2CM_I2C_MSTR_NO_ERROR;
 330              		.loc 1 630 0
 331 002a 0B70     		strb	r3, [r1]
 332              	.LVL17:
 611:.\Generated_Source\PSoC4/I2CM_I2C_MASTER.c ****     errStatus = I2CM_I2C_MSTR_NOT_READY;
 333              		.loc 1 611 0
 334 002c 031C     		mov	r3, r0
 335 002e 0FE0     		b	.L40
 336              	.LVL18:
 337              	.L39:
 632:.\Generated_Source\PSoC4/I2CM_I2C_MASTER.c ****         }
 633:.\Generated_Source\PSoC4/I2CM_I2C_MASTER.c ****         else if(I2CM_CHECK_INTR_MASTER(I2CM_INTR_MASTER_I2C_NACK))
 338              		.loc 1 633 0
 339 0030 0220     		mov	r0, #2
 340 0032 1568     		ldr	r5, [r2]
 341 0034 0542     		tst	r5, r0
 342 0036 02D0     		beq	.L41
 634:.\Generated_Source\PSoC4/I2CM_I2C_MASTER.c ****         {
 635:.\Generated_Source\PSoC4/I2CM_I2C_MASTER.c ****             I2CM_state = I2CM_I2C_FSM_MSTR_HALT;
 343              		.loc 1 635 0
 344 0038 6025     		mov	r5, #96
 345 003a 0D70     		strb	r5, [r1]
 346              	.LVL19:
 347 003c 08E0     		b	.L40
 348              	.LVL20:
 349              	.L41:
 350 003e 1020     		mov	r0, #16
 636:.\Generated_Source\PSoC4/I2CM_I2C_MASTER.c ****                          errStatus = I2CM_I2C_MSTR_ERR_LB_NAK;
 637:.\Generated_Source\PSoC4/I2CM_I2C_MASTER.c ****         }
 638:.\Generated_Source\PSoC4/I2CM_I2C_MASTER.c ****         else if(I2CM_CHECK_INTR_MASTER(I2CM_INTR_MASTER_I2C_ARB_LOST))
 351              		.loc 1 638 0
 352 0040 0123     		mov	r3, #1
 353 0042 1568     		ldr	r5, [r2]
 639:.\Generated_Source\PSoC4/I2CM_I2C_MASTER.c ****         {
 640:.\Generated_Source\PSoC4/I2CM_I2C_MASTER.c ****             I2CM_state = I2CM_I2C_FSM_IDLE;
 354              		.loc 1 640 0
 355 0044 0870     		strb	r0, [r1]
 356              	.LVL21:
 641:.\Generated_Source\PSoC4/I2CM_I2C_MASTER.c ****                          errStatus = I2CM_I2C_MSTR_ERR_ARB_LOST;
 357              		.loc 1 641 0
 358 0046 181C     		mov	r0, r3
 638:.\Generated_Source\PSoC4/I2CM_I2C_MASTER.c ****         {
 359              		.loc 1 638 0
 360 0048 1D42     		tst	r5, r3
 361 004a 01D1     		bne	.L40
 362              	.LVL22:
 642:.\Generated_Source\PSoC4/I2CM_I2C_MASTER.c ****                          resetIp   = I2CM_I2C_RESET_ERROR;
 643:.\Generated_Source\PSoC4/I2CM_I2C_MASTER.c ****         }
 644:.\Generated_Source\PSoC4/I2CM_I2C_MASTER.c ****         else /* I2CM_INTR_MASTER_I2C_BUS_ERROR set is */
ARM GAS  C:\Users\ddemidov\AppData\Local\Temp\ccUDC9zP.s 			page 19


 645:.\Generated_Source\PSoC4/I2CM_I2C_MASTER.c ****         {
 646:.\Generated_Source\PSoC4/I2CM_I2C_MASTER.c ****             I2CM_state = I2CM_I2C_FSM_IDLE;
 647:.\Generated_Source\PSoC4/I2CM_I2C_MASTER.c ****                          errStatus = I2CM_I2C_MSTR_ERR_BUS_ERR;
 363              		.loc 1 647 0
 364 004c 8020     		mov	r0, #128
 365 004e 4000     		lsl	r0, r0, #1
 366              	.LVL23:
 367              	.L40:
 648:.\Generated_Source\PSoC4/I2CM_I2C_MASTER.c ****                          resetIp   = I2CM_I2C_RESET_ERROR;
 649:.\Generated_Source\PSoC4/I2CM_I2C_MASTER.c ****         }
 650:.\Generated_Source\PSoC4/I2CM_I2C_MASTER.c **** 
 651:.\Generated_Source\PSoC4/I2CM_I2C_MASTER.c ****         I2CM_ClearMasterInterruptSource(I2CM_INTR_MASTER_I2C_ACK      |
 368              		.loc 1 651 0
 369 0050 1460     		str	r4, [r2]
 652:.\Generated_Source\PSoC4/I2CM_I2C_MASTER.c ****                                                     I2CM_INTR_MASTER_I2C_NACK     |
 653:.\Generated_Source\PSoC4/I2CM_I2C_MASTER.c ****                                                     I2CM_INTR_MASTER_I2C_ARB_LOST |
 654:.\Generated_Source\PSoC4/I2CM_I2C_MASTER.c ****                                                     I2CM_INTR_MASTER_I2C_BUS_ERROR);
 655:.\Generated_Source\PSoC4/I2CM_I2C_MASTER.c **** 
 656:.\Generated_Source\PSoC4/I2CM_I2C_MASTER.c ****         /* Reset block in case of: LOST_ARB or BUS_ERR */
 657:.\Generated_Source\PSoC4/I2CM_I2C_MASTER.c ****         if(0u != resetIp)
 370              		.loc 1 657 0
 371 0052 002B     		cmp	r3, #0
 372 0054 09D0     		beq	.L37
 658:.\Generated_Source\PSoC4/I2CM_I2C_MASTER.c ****         {
 659:.\Generated_Source\PSoC4/I2CM_I2C_MASTER.c ****             I2CM_SCB_SW_RESET;
 373              		.loc 1 659 0
 374 0056 8021     		mov	r1, #128
 375 0058 074A     		ldr	r2, .L49+12
 376 005a 0906     		lsl	r1, r1, #24
 377 005c 1368     		ldr	r3, [r2]
 378 005e 5B00     		lsl	r3, r3, #1
 379 0060 5B08     		lsr	r3, r3, #1
 380 0062 1360     		str	r3, [r2]
 381 0064 1368     		ldr	r3, [r2]
 382 0066 0B43     		orr	r3, r1
 383 0068 1360     		str	r3, [r2]
 384              	.LVL24:
 385              	.L37:
 660:.\Generated_Source\PSoC4/I2CM_I2C_MASTER.c ****         }
 661:.\Generated_Source\PSoC4/I2CM_I2C_MASTER.c ****     }
 662:.\Generated_Source\PSoC4/I2CM_I2C_MASTER.c **** 
 663:.\Generated_Source\PSoC4/I2CM_I2C_MASTER.c ****     return(errStatus);
 664:.\Generated_Source\PSoC4/I2CM_I2C_MASTER.c **** }
 386              		.loc 1 664 0
 387              		@ sp needed
 388 006a 30BD     		pop	{r4, r5, pc}
 389              	.L50:
 390              		.align	2
 391              	.L49:
 392 006c 00000000 		.word	I2CM_state
 393 0070 40022540 		.word	1076167232
 394 0074 000F2540 		.word	1076170496
 395 0078 00002540 		.word	1076166656
 396              		.cfi_endproc
 397              	.LFE7:
 398              		.size	I2CM_I2CMasterWriteByte, .-I2CM_I2CMasterWriteByte
 399              		.section	.text.I2CM_I2CMasterReadByte,"ax",%progbits
ARM GAS  C:\Users\ddemidov\AppData\Local\Temp\ccUDC9zP.s 			page 20


 400              		.align	1
 401              		.global	I2CM_I2CMasterReadByte
 402              		.code	16
 403              		.thumb_func
 404              		.type	I2CM_I2CMasterReadByte, %function
 405              	I2CM_I2CMasterReadByte:
 406              	.LFB8:
 665:.\Generated_Source\PSoC4/I2CM_I2C_MASTER.c **** 
 666:.\Generated_Source\PSoC4/I2CM_I2C_MASTER.c **** 
 667:.\Generated_Source\PSoC4/I2CM_I2C_MASTER.c **** /*******************************************************************************
 668:.\Generated_Source\PSoC4/I2CM_I2C_MASTER.c **** * Function Name: I2CM_I2CMasterReadByte
 669:.\Generated_Source\PSoC4/I2CM_I2C_MASTER.c **** ********************************************************************************
 670:.\Generated_Source\PSoC4/I2CM_I2C_MASTER.c **** *
 671:.\Generated_Source\PSoC4/I2CM_I2C_MASTER.c **** * Summary:
 672:.\Generated_Source\PSoC4/I2CM_I2C_MASTER.c **** *  Reads one byte from a slave and ACKs or NAKs received byte.
 673:.\Generated_Source\PSoC4/I2CM_I2C_MASTER.c **** *  This function does not generate NAK explicitly. The following call
 674:.\Generated_Source\PSoC4/I2CM_I2C_MASTER.c **** *  SCB_I2CMasterSendStop() or SCB_I2CMasterSendRestart() will generate NAK and
 675:.\Generated_Source\PSoC4/I2CM_I2C_MASTER.c **** *  Stop or ReStart condition appropriately.
 676:.\Generated_Source\PSoC4/I2CM_I2C_MASTER.c **** *  This function is blocking and does not return until byte is received
 677:.\Generated_Source\PSoC4/I2CM_I2C_MASTER.c **** *  or error occurred.
 678:.\Generated_Source\PSoC4/I2CM_I2C_MASTER.c **** *
 679:.\Generated_Source\PSoC4/I2CM_I2C_MASTER.c **** * Parameters:
 680:.\Generated_Source\PSoC4/I2CM_I2C_MASTER.c **** *  ackNack: Response to received byte.
 681:.\Generated_Source\PSoC4/I2CM_I2C_MASTER.c **** *
 682:.\Generated_Source\PSoC4/I2CM_I2C_MASTER.c **** * Return:
 683:.\Generated_Source\PSoC4/I2CM_I2C_MASTER.c **** *  Byte read from the slave. In case of error the MSB of returned data
 684:.\Generated_Source\PSoC4/I2CM_I2C_MASTER.c **** *  is set to 1.
 685:.\Generated_Source\PSoC4/I2CM_I2C_MASTER.c **** *
 686:.\Generated_Source\PSoC4/I2CM_I2C_MASTER.c **** * Side Effects:
 687:.\Generated_Source\PSoC4/I2CM_I2C_MASTER.c **** *  A valid Start or ReStart condition must be generated before calling this
 688:.\Generated_Source\PSoC4/I2CM_I2C_MASTER.c **** *  function. This function does nothing and returns invalid byte value
 689:.\Generated_Source\PSoC4/I2CM_I2C_MASTER.c **** *  if Start or ReStart conditions failed before this function was called.
 690:.\Generated_Source\PSoC4/I2CM_I2C_MASTER.c **** *
 691:.\Generated_Source\PSoC4/I2CM_I2C_MASTER.c **** * Global variables:
 692:.\Generated_Source\PSoC4/I2CM_I2C_MASTER.c **** *  I2CM_state - used to store current state of software FSM.
 693:.\Generated_Source\PSoC4/I2CM_I2C_MASTER.c **** *
 694:.\Generated_Source\PSoC4/I2CM_I2C_MASTER.c **** *******************************************************************************/
 695:.\Generated_Source\PSoC4/I2CM_I2C_MASTER.c **** uint32 I2CM_I2CMasterReadByte(uint32 ackNack)
 696:.\Generated_Source\PSoC4/I2CM_I2C_MASTER.c **** {
 407              		.loc 1 696 0
 408              		.cfi_startproc
 409              	.LVL25:
 410 0000 10B5     		push	{r4, lr}
 411              		.cfi_def_cfa_offset 8
 412              		.cfi_offset 4, -8
 413              		.cfi_offset 14, -4
 697:.\Generated_Source\PSoC4/I2CM_I2C_MASTER.c ****     uint32 theByte;
 698:.\Generated_Source\PSoC4/I2CM_I2C_MASTER.c **** 
 699:.\Generated_Source\PSoC4/I2CM_I2C_MASTER.c ****     /* Return invalid byte in case BUS_ERR happen during receiving */
 700:.\Generated_Source\PSoC4/I2CM_I2C_MASTER.c ****     theByte = I2CM_I2C_INVALID_BYTE;
 701:.\Generated_Source\PSoC4/I2CM_I2C_MASTER.c **** 
 702:.\Generated_Source\PSoC4/I2CM_I2C_MASTER.c ****     /* Check FSM state before read byte */
 703:.\Generated_Source\PSoC4/I2CM_I2C_MASTER.c ****     if(I2CM_CHECK_I2C_MASTER_ACTIVE)
 414              		.loc 1 703 0
 415 0002 184B     		ldr	r3, .L59
 416 0004 1A78     		ldrb	r2, [r3]
 417 0006 191C     		mov	r1, r3
ARM GAS  C:\Users\ddemidov\AppData\Local\Temp\ccUDC9zP.s 			page 21


 418 0008 9306     		lsl	r3, r2, #26
 419 000a 26D5     		bpl	.L57
 420              	.L54:
 704:.\Generated_Source\PSoC4/I2CM_I2C_MASTER.c ****     {
 705:.\Generated_Source\PSoC4/I2CM_I2C_MASTER.c ****         while((!I2CM_CHECK_INTR_RX(I2CM_INTR_RX_NOT_EMPTY)) &&
 421              		.loc 1 705 0 discriminator 2
 422 000c 164B     		ldr	r3, .L59+4
 423 000e 1A68     		ldr	r2, [r3]
 424 0010 5207     		lsl	r2, r2, #29
 425 0012 05D4     		bmi	.L53
 706:.\Generated_Source\PSoC4/I2CM_I2C_MASTER.c ****               (!I2CM_CHECK_INTR_MASTER(I2CM_INTR_MASTER_I2C_ARB_LOST |
 426              		.loc 1 706 0 discriminator 1
 427 0014 154A     		ldr	r2, .L59+8
 428 0016 1468     		ldr	r4, [r2]
 705:.\Generated_Source\PSoC4/I2CM_I2C_MASTER.c ****               (!I2CM_CHECK_INTR_MASTER(I2CM_INTR_MASTER_I2C_ARB_LOST |
 429              		.loc 1 705 0 discriminator 1
 430 0018 0222     		mov	r2, #2
 431 001a FF32     		add	r2, r2, #255
 432 001c 1442     		tst	r4, r2
 433 001e F5D0     		beq	.L54
 434              	.L53:
 707:.\Generated_Source\PSoC4/I2CM_I2C_MASTER.c ****                                                   I2CM_INTR_MASTER_I2C_BUS_ERROR)))
 708:.\Generated_Source\PSoC4/I2CM_I2C_MASTER.c ****         {
 709:.\Generated_Source\PSoC4/I2CM_I2C_MASTER.c ****             /* Wait until byte has been received */
 710:.\Generated_Source\PSoC4/I2CM_I2C_MASTER.c ****         }
 711:.\Generated_Source\PSoC4/I2CM_I2C_MASTER.c **** 
 712:.\Generated_Source\PSoC4/I2CM_I2C_MASTER.c ****         /* Check the results after the byte was sent */
 713:.\Generated_Source\PSoC4/I2CM_I2C_MASTER.c ****         if(I2CM_CHECK_INTR_RX(I2CM_INTR_RX_NOT_EMPTY))
 435              		.loc 1 713 0
 436 0020 0422     		mov	r2, #4
 437 0022 1B68     		ldr	r3, [r3]
 438 0024 1342     		tst	r3, r2
 439 0026 0BD0     		beq	.L55
 714:.\Generated_Source\PSoC4/I2CM_I2C_MASTER.c ****         {
 715:.\Generated_Source\PSoC4/I2CM_I2C_MASTER.c ****             theByte = I2CM_RX_FIFO_RD_REG;
 440              		.loc 1 715 0
 441 0028 114B     		ldr	r3, .L59+12
 716:.\Generated_Source\PSoC4/I2CM_I2C_MASTER.c **** 
 717:.\Generated_Source\PSoC4/I2CM_I2C_MASTER.c ****             I2CM_ClearRxInterruptSource(I2CM_INTR_RX_NOT_EMPTY);
 442              		.loc 1 717 0
 443 002a 0F4C     		ldr	r4, .L59+4
 715:.\Generated_Source\PSoC4/I2CM_I2C_MASTER.c **** 
 444              		.loc 1 715 0
 445 002c 1B68     		ldr	r3, [r3]
 446              	.LVL26:
 447              		.loc 1 717 0
 448 002e 2260     		str	r2, [r4]
 718:.\Generated_Source\PSoC4/I2CM_I2C_MASTER.c **** 
 719:.\Generated_Source\PSoC4/I2CM_I2C_MASTER.c ****             if(0u == ackNack)
 449              		.loc 1 719 0
 450 0030 0028     		cmp	r0, #0
 451 0032 02D1     		bne	.L56
 720:.\Generated_Source\PSoC4/I2CM_I2C_MASTER.c ****             {
 721:.\Generated_Source\PSoC4/I2CM_I2C_MASTER.c ****                 I2CM_I2C_MASTER_GENERATE_ACK;
 452              		.loc 1 721 0
 453 0034 0F49     		ldr	r1, .L59+16
 454 0036 0A60     		str	r2, [r1]
ARM GAS  C:\Users\ddemidov\AppData\Local\Temp\ccUDC9zP.s 			page 22


 455 0038 11E0     		b	.L52
 456              	.L56:
 722:.\Generated_Source\PSoC4/I2CM_I2C_MASTER.c ****             }
 723:.\Generated_Source\PSoC4/I2CM_I2C_MASTER.c ****             else
 724:.\Generated_Source\PSoC4/I2CM_I2C_MASTER.c ****             {
 725:.\Generated_Source\PSoC4/I2CM_I2C_MASTER.c ****                 /* NACK is generated by Stop or ReStart command */
 726:.\Generated_Source\PSoC4/I2CM_I2C_MASTER.c ****                 I2CM_state = I2CM_I2C_FSM_MSTR_HALT;
 457              		.loc 1 726 0
 458 003a 6022     		mov	r2, #96
 459 003c 0A70     		strb	r2, [r1]
 460 003e 0EE0     		b	.L52
 461              	.LVL27:
 462              	.L55:
 727:.\Generated_Source\PSoC4/I2CM_I2C_MASTER.c ****             }
 728:.\Generated_Source\PSoC4/I2CM_I2C_MASTER.c ****         }
 729:.\Generated_Source\PSoC4/I2CM_I2C_MASTER.c ****         else
 730:.\Generated_Source\PSoC4/I2CM_I2C_MASTER.c ****         {
 731:.\Generated_Source\PSoC4/I2CM_I2C_MASTER.c ****             I2CM_ClearMasterInterruptSource(I2CM_INTR_MASTER_ALL);
 732:.\Generated_Source\PSoC4/I2CM_I2C_MASTER.c **** 
 733:.\Generated_Source\PSoC4/I2CM_I2C_MASTER.c ****             /* Reset block in case of: LOST_ARB or BUS_ERR */
 734:.\Generated_Source\PSoC4/I2CM_I2C_MASTER.c ****             I2CM_SCB_SW_RESET;
 463              		.loc 1 734 0
 464 0040 8021     		mov	r1, #128
 731:.\Generated_Source\PSoC4/I2CM_I2C_MASTER.c **** 
 465              		.loc 1 731 0
 466 0042 0D4A     		ldr	r2, .L59+20
 467 0044 094B     		ldr	r3, .L59+8
 468              		.loc 1 734 0
 469 0046 0906     		lsl	r1, r1, #24
 731:.\Generated_Source\PSoC4/I2CM_I2C_MASTER.c **** 
 470              		.loc 1 731 0
 471 0048 1A60     		str	r2, [r3]
 472              		.loc 1 734 0
 473 004a 0C4A     		ldr	r2, .L59+24
 474 004c 1368     		ldr	r3, [r2]
 475 004e 5B00     		lsl	r3, r3, #1
 476 0050 5B08     		lsr	r3, r3, #1
 477 0052 1360     		str	r3, [r2]
 478 0054 1368     		ldr	r3, [r2]
 479 0056 0B43     		orr	r3, r1
 480 0058 1360     		str	r3, [r2]
 481              	.L57:
 700:.\Generated_Source\PSoC4/I2CM_I2C_MASTER.c **** 
 482              		.loc 1 700 0
 483 005a 0123     		mov	r3, #1
 484 005c 5B42     		neg	r3, r3
 485              	.LVL28:
 486              	.L52:
 735:.\Generated_Source\PSoC4/I2CM_I2C_MASTER.c ****         }
 736:.\Generated_Source\PSoC4/I2CM_I2C_MASTER.c ****     }
 737:.\Generated_Source\PSoC4/I2CM_I2C_MASTER.c **** 
 738:.\Generated_Source\PSoC4/I2CM_I2C_MASTER.c ****     return(theByte);
 739:.\Generated_Source\PSoC4/I2CM_I2C_MASTER.c **** }
 487              		.loc 1 739 0
 488 005e 181C     		mov	r0, r3
 489              	.LVL29:
 490              		@ sp needed
ARM GAS  C:\Users\ddemidov\AppData\Local\Temp\ccUDC9zP.s 			page 23


 491 0060 10BD     		pop	{r4, pc}
 492              	.L60:
 493 0062 C046     		.align	2
 494              	.L59:
 495 0064 00000000 		.word	I2CM_state
 496 0068 C00F2540 		.word	1076170688
 497 006c 000F2540 		.word	1076170496
 498 0070 40032540 		.word	1076167488
 499 0074 68002540 		.word	1076166760
 500 0078 17030000 		.word	791
 501 007c 00002540 		.word	1076166656
 502              		.cfi_endproc
 503              	.LFE8:
 504              		.size	I2CM_I2CMasterReadByte, .-I2CM_I2CMasterReadByte
 505              		.section	.text.I2CM_I2CMasterGetReadBufSize,"ax",%progbits
 506              		.align	1
 507              		.global	I2CM_I2CMasterGetReadBufSize
 508              		.code	16
 509              		.thumb_func
 510              		.type	I2CM_I2CMasterGetReadBufSize, %function
 511              	I2CM_I2CMasterGetReadBufSize:
 512              	.LFB9:
 740:.\Generated_Source\PSoC4/I2CM_I2C_MASTER.c **** 
 741:.\Generated_Source\PSoC4/I2CM_I2C_MASTER.c **** 
 742:.\Generated_Source\PSoC4/I2CM_I2C_MASTER.c **** /*******************************************************************************
 743:.\Generated_Source\PSoC4/I2CM_I2C_MASTER.c **** * Function Name: I2CM_I2CMasterGetReadBufSize
 744:.\Generated_Source\PSoC4/I2CM_I2C_MASTER.c **** ********************************************************************************
 745:.\Generated_Source\PSoC4/I2CM_I2C_MASTER.c **** *
 746:.\Generated_Source\PSoC4/I2CM_I2C_MASTER.c **** * Summary:
 747:.\Generated_Source\PSoC4/I2CM_I2C_MASTER.c **** *  Returns the number of bytes that has been transferred with an
 748:.\Generated_Source\PSoC4/I2CM_I2C_MASTER.c **** *  SCB_I2CMasterReadBuf() function.
 749:.\Generated_Source\PSoC4/I2CM_I2C_MASTER.c **** *
 750:.\Generated_Source\PSoC4/I2CM_I2C_MASTER.c **** * Parameters:
 751:.\Generated_Source\PSoC4/I2CM_I2C_MASTER.c **** *  None
 752:.\Generated_Source\PSoC4/I2CM_I2C_MASTER.c **** *
 753:.\Generated_Source\PSoC4/I2CM_I2C_MASTER.c **** * Return:
 754:.\Generated_Source\PSoC4/I2CM_I2C_MASTER.c **** *  Byte count of transfer. If the transfer is not yet complete, it returns
 755:.\Generated_Source\PSoC4/I2CM_I2C_MASTER.c **** *  the byte count transferred so far.
 756:.\Generated_Source\PSoC4/I2CM_I2C_MASTER.c **** *
 757:.\Generated_Source\PSoC4/I2CM_I2C_MASTER.c **** * Side Effects:
 758:.\Generated_Source\PSoC4/I2CM_I2C_MASTER.c **** *  This function returns not valid value if SCB_I2C_MSTAT_ERR_ARB_LOST
 759:.\Generated_Source\PSoC4/I2CM_I2C_MASTER.c **** *  or SCB_I2C_MSTAT_ERR_BUS_ERROR occurred while read transfer.
 760:.\Generated_Source\PSoC4/I2CM_I2C_MASTER.c **** *
 761:.\Generated_Source\PSoC4/I2CM_I2C_MASTER.c **** * Global variables:
 762:.\Generated_Source\PSoC4/I2CM_I2C_MASTER.c **** *  I2CM_mstrRdBufIndex - used to current index within master read
 763:.\Generated_Source\PSoC4/I2CM_I2C_MASTER.c **** *  buffer.
 764:.\Generated_Source\PSoC4/I2CM_I2C_MASTER.c **** *
 765:.\Generated_Source\PSoC4/I2CM_I2C_MASTER.c **** *******************************************************************************/
 766:.\Generated_Source\PSoC4/I2CM_I2C_MASTER.c **** uint32 I2CM_I2CMasterGetReadBufSize(void)
 767:.\Generated_Source\PSoC4/I2CM_I2C_MASTER.c **** {
 513              		.loc 1 767 0
 514              		.cfi_startproc
 768:.\Generated_Source\PSoC4/I2CM_I2C_MASTER.c ****     return(I2CM_mstrRdBufIndex);
 515              		.loc 1 768 0
 516 0000 014B     		ldr	r3, .L62
 769:.\Generated_Source\PSoC4/I2CM_I2C_MASTER.c **** }
 517              		.loc 1 769 0
ARM GAS  C:\Users\ddemidov\AppData\Local\Temp\ccUDC9zP.s 			page 24


 518              		@ sp needed
 768:.\Generated_Source\PSoC4/I2CM_I2C_MASTER.c ****     return(I2CM_mstrRdBufIndex);
 519              		.loc 1 768 0
 520 0002 1868     		ldr	r0, [r3]
 521              		.loc 1 769 0
 522 0004 7047     		bx	lr
 523              	.L63:
 524 0006 C046     		.align	2
 525              	.L62:
 526 0008 00000000 		.word	I2CM_mstrRdBufIndex
 527              		.cfi_endproc
 528              	.LFE9:
 529              		.size	I2CM_I2CMasterGetReadBufSize, .-I2CM_I2CMasterGetReadBufSize
 530              		.section	.text.I2CM_I2CMasterGetWriteBufSize,"ax",%progbits
 531              		.align	1
 532              		.global	I2CM_I2CMasterGetWriteBufSize
 533              		.code	16
 534              		.thumb_func
 535              		.type	I2CM_I2CMasterGetWriteBufSize, %function
 536              	I2CM_I2CMasterGetWriteBufSize:
 537              	.LFB10:
 770:.\Generated_Source\PSoC4/I2CM_I2C_MASTER.c **** 
 771:.\Generated_Source\PSoC4/I2CM_I2C_MASTER.c **** 
 772:.\Generated_Source\PSoC4/I2CM_I2C_MASTER.c **** /*******************************************************************************
 773:.\Generated_Source\PSoC4/I2CM_I2C_MASTER.c **** * Function Name: I2CM_I2CMasterGetWriteBufSize
 774:.\Generated_Source\PSoC4/I2CM_I2C_MASTER.c **** ********************************************************************************
 775:.\Generated_Source\PSoC4/I2CM_I2C_MASTER.c **** *
 776:.\Generated_Source\PSoC4/I2CM_I2C_MASTER.c **** * Summary:
 777:.\Generated_Source\PSoC4/I2CM_I2C_MASTER.c **** *  Returns the number of bytes that have been transferred with an
 778:.\Generated_Source\PSoC4/I2CM_I2C_MASTER.c **** *  SCB_I2CMasterWriteBuf() function.
 779:.\Generated_Source\PSoC4/I2CM_I2C_MASTER.c **** *
 780:.\Generated_Source\PSoC4/I2CM_I2C_MASTER.c **** * Parameters:
 781:.\Generated_Source\PSoC4/I2CM_I2C_MASTER.c **** *  None
 782:.\Generated_Source\PSoC4/I2CM_I2C_MASTER.c **** *
 783:.\Generated_Source\PSoC4/I2CM_I2C_MASTER.c **** * Return:
 784:.\Generated_Source\PSoC4/I2CM_I2C_MASTER.c **** *  Byte count of transfer. If the transfer is not yet complete, it returns
 785:.\Generated_Source\PSoC4/I2CM_I2C_MASTER.c **** *  zero unit transfer completion.
 786:.\Generated_Source\PSoC4/I2CM_I2C_MASTER.c **** *
 787:.\Generated_Source\PSoC4/I2CM_I2C_MASTER.c **** * Side Effects:
 788:.\Generated_Source\PSoC4/I2CM_I2C_MASTER.c **** *  This function returns not valid value if SCB_I2C_MSTAT_ERR_ARB_LOST
 789:.\Generated_Source\PSoC4/I2CM_I2C_MASTER.c **** *  or SCB_I2C_MSTAT_ERR_BUS_ERROR occurred while read transfer.
 790:.\Generated_Source\PSoC4/I2CM_I2C_MASTER.c **** *
 791:.\Generated_Source\PSoC4/I2CM_I2C_MASTER.c **** * Global variables:
 792:.\Generated_Source\PSoC4/I2CM_I2C_MASTER.c **** *  I2CM_mstrWrBufIndex - used to current index within master write
 793:.\Generated_Source\PSoC4/I2CM_I2C_MASTER.c **** *  buffer.
 794:.\Generated_Source\PSoC4/I2CM_I2C_MASTER.c **** *
 795:.\Generated_Source\PSoC4/I2CM_I2C_MASTER.c **** *******************************************************************************/
 796:.\Generated_Source\PSoC4/I2CM_I2C_MASTER.c **** uint32 I2CM_I2CMasterGetWriteBufSize(void)
 797:.\Generated_Source\PSoC4/I2CM_I2C_MASTER.c **** {
 538              		.loc 1 797 0
 539              		.cfi_startproc
 798:.\Generated_Source\PSoC4/I2CM_I2C_MASTER.c ****     return(I2CM_mstrWrBufIndex);
 540              		.loc 1 798 0
 541 0000 014B     		ldr	r3, .L65
 799:.\Generated_Source\PSoC4/I2CM_I2C_MASTER.c **** }
 542              		.loc 1 799 0
 543              		@ sp needed
ARM GAS  C:\Users\ddemidov\AppData\Local\Temp\ccUDC9zP.s 			page 25


 798:.\Generated_Source\PSoC4/I2CM_I2C_MASTER.c ****     return(I2CM_mstrWrBufIndex);
 544              		.loc 1 798 0
 545 0002 1868     		ldr	r0, [r3]
 546              		.loc 1 799 0
 547 0004 7047     		bx	lr
 548              	.L66:
 549 0006 C046     		.align	2
 550              	.L65:
 551 0008 00000000 		.word	I2CM_mstrWrBufIndex
 552              		.cfi_endproc
 553              	.LFE10:
 554              		.size	I2CM_I2CMasterGetWriteBufSize, .-I2CM_I2CMasterGetWriteBufSize
 555              		.section	.text.I2CM_I2CMasterClearReadBuf,"ax",%progbits
 556              		.align	1
 557              		.global	I2CM_I2CMasterClearReadBuf
 558              		.code	16
 559              		.thumb_func
 560              		.type	I2CM_I2CMasterClearReadBuf, %function
 561              	I2CM_I2CMasterClearReadBuf:
 562              	.LFB11:
 800:.\Generated_Source\PSoC4/I2CM_I2C_MASTER.c **** 
 801:.\Generated_Source\PSoC4/I2CM_I2C_MASTER.c **** 
 802:.\Generated_Source\PSoC4/I2CM_I2C_MASTER.c **** /*******************************************************************************
 803:.\Generated_Source\PSoC4/I2CM_I2C_MASTER.c **** * Function Name: I2CM_I2CMasterClearReadBuf
 804:.\Generated_Source\PSoC4/I2CM_I2C_MASTER.c **** ********************************************************************************
 805:.\Generated_Source\PSoC4/I2CM_I2C_MASTER.c **** *
 806:.\Generated_Source\PSoC4/I2CM_I2C_MASTER.c **** * Summary:
 807:.\Generated_Source\PSoC4/I2CM_I2C_MASTER.c **** *  Resets the read buffer pointer back to the first byte in the buffer.
 808:.\Generated_Source\PSoC4/I2CM_I2C_MASTER.c **** *
 809:.\Generated_Source\PSoC4/I2CM_I2C_MASTER.c **** * Parameters:
 810:.\Generated_Source\PSoC4/I2CM_I2C_MASTER.c **** *  None
 811:.\Generated_Source\PSoC4/I2CM_I2C_MASTER.c **** *
 812:.\Generated_Source\PSoC4/I2CM_I2C_MASTER.c **** * Return:
 813:.\Generated_Source\PSoC4/I2CM_I2C_MASTER.c **** *  None
 814:.\Generated_Source\PSoC4/I2CM_I2C_MASTER.c **** *
 815:.\Generated_Source\PSoC4/I2CM_I2C_MASTER.c **** * Global variables:
 816:.\Generated_Source\PSoC4/I2CM_I2C_MASTER.c **** *  I2CM_mstrRdBufIndex - used to current index within master read
 817:.\Generated_Source\PSoC4/I2CM_I2C_MASTER.c **** *   buffer.
 818:.\Generated_Source\PSoC4/I2CM_I2C_MASTER.c **** *  I2CM_mstrStatus - used to store current status of I2C Master.
 819:.\Generated_Source\PSoC4/I2CM_I2C_MASTER.c **** *
 820:.\Generated_Source\PSoC4/I2CM_I2C_MASTER.c **** *******************************************************************************/
 821:.\Generated_Source\PSoC4/I2CM_I2C_MASTER.c **** void I2CM_I2CMasterClearReadBuf(void)
 822:.\Generated_Source\PSoC4/I2CM_I2C_MASTER.c **** {
 563              		.loc 1 822 0
 564              		.cfi_startproc
 565 0000 08B5     		push	{r3, lr}
 566              		.cfi_def_cfa_offset 8
 567              		.cfi_offset 3, -8
 568              		.cfi_offset 14, -4
 823:.\Generated_Source\PSoC4/I2CM_I2C_MASTER.c ****     I2CM_DisableInt();  /* Lock from interruption */
 569              		.loc 1 823 0
 570 0002 0A20     		mov	r0, #10
 571 0004 FFF7FEFF 		bl	CyIntDisable
 572              	.LVL30:
 824:.\Generated_Source\PSoC4/I2CM_I2C_MASTER.c **** 
 825:.\Generated_Source\PSoC4/I2CM_I2C_MASTER.c ****     I2CM_mstrRdBufIndex = 0u;
 573              		.loc 1 825 0
ARM GAS  C:\Users\ddemidov\AppData\Local\Temp\ccUDC9zP.s 			page 26


 574 0008 0022     		mov	r2, #0
 826:.\Generated_Source\PSoC4/I2CM_I2C_MASTER.c ****     I2CM_mstrStatus    &= (uint16) ~I2CM_I2C_MSTAT_RD_CMPLT;
 575              		.loc 1 826 0
 576 000a 0121     		mov	r1, #1
 825:.\Generated_Source\PSoC4/I2CM_I2C_MASTER.c ****     I2CM_mstrStatus    &= (uint16) ~I2CM_I2C_MSTAT_RD_CMPLT;
 577              		.loc 1 825 0
 578 000c 044B     		ldr	r3, .L68
 827:.\Generated_Source\PSoC4/I2CM_I2C_MASTER.c **** 
 828:.\Generated_Source\PSoC4/I2CM_I2C_MASTER.c ****     I2CM_EnableInt();   /* Release lock */
 579              		.loc 1 828 0
 580 000e 0A20     		mov	r0, #10
 825:.\Generated_Source\PSoC4/I2CM_I2C_MASTER.c ****     I2CM_mstrStatus    &= (uint16) ~I2CM_I2C_MSTAT_RD_CMPLT;
 581              		.loc 1 825 0
 582 0010 1A60     		str	r2, [r3]
 826:.\Generated_Source\PSoC4/I2CM_I2C_MASTER.c **** 
 583              		.loc 1 826 0
 584 0012 044A     		ldr	r2, .L68+4
 829:.\Generated_Source\PSoC4/I2CM_I2C_MASTER.c **** }
 585              		.loc 1 829 0
 586              		@ sp needed
 826:.\Generated_Source\PSoC4/I2CM_I2C_MASTER.c **** 
 587              		.loc 1 826 0
 588 0014 1388     		ldrh	r3, [r2]
 589 0016 8B43     		bic	r3, r1
 590 0018 1380     		strh	r3, [r2]
 828:.\Generated_Source\PSoC4/I2CM_I2C_MASTER.c **** }
 591              		.loc 1 828 0
 592 001a FFF7FEFF 		bl	CyIntEnable
 593              	.LVL31:
 594              		.loc 1 829 0
 595 001e 08BD     		pop	{r3, pc}
 596              	.L69:
 597              		.align	2
 598              	.L68:
 599 0020 00000000 		.word	I2CM_mstrRdBufIndex
 600 0024 00000000 		.word	I2CM_mstrStatus
 601              		.cfi_endproc
 602              	.LFE11:
 603              		.size	I2CM_I2CMasterClearReadBuf, .-I2CM_I2CMasterClearReadBuf
 604              		.section	.text.I2CM_I2CMasterClearWriteBuf,"ax",%progbits
 605              		.align	1
 606              		.global	I2CM_I2CMasterClearWriteBuf
 607              		.code	16
 608              		.thumb_func
 609              		.type	I2CM_I2CMasterClearWriteBuf, %function
 610              	I2CM_I2CMasterClearWriteBuf:
 611              	.LFB12:
 830:.\Generated_Source\PSoC4/I2CM_I2C_MASTER.c **** 
 831:.\Generated_Source\PSoC4/I2CM_I2C_MASTER.c **** 
 832:.\Generated_Source\PSoC4/I2CM_I2C_MASTER.c **** /*******************************************************************************
 833:.\Generated_Source\PSoC4/I2CM_I2C_MASTER.c **** * Function Name: I2CM_I2CMasterClearWriteBuf
 834:.\Generated_Source\PSoC4/I2CM_I2C_MASTER.c **** ********************************************************************************
 835:.\Generated_Source\PSoC4/I2CM_I2C_MASTER.c **** *
 836:.\Generated_Source\PSoC4/I2CM_I2C_MASTER.c **** * Summary:
 837:.\Generated_Source\PSoC4/I2CM_I2C_MASTER.c **** *  Resets the write buffer pointer back to the first byte in the buffer.
 838:.\Generated_Source\PSoC4/I2CM_I2C_MASTER.c **** *
 839:.\Generated_Source\PSoC4/I2CM_I2C_MASTER.c **** * Parameters:
ARM GAS  C:\Users\ddemidov\AppData\Local\Temp\ccUDC9zP.s 			page 27


 840:.\Generated_Source\PSoC4/I2CM_I2C_MASTER.c **** *  None
 841:.\Generated_Source\PSoC4/I2CM_I2C_MASTER.c **** *
 842:.\Generated_Source\PSoC4/I2CM_I2C_MASTER.c **** * Return:
 843:.\Generated_Source\PSoC4/I2CM_I2C_MASTER.c **** *  None
 844:.\Generated_Source\PSoC4/I2CM_I2C_MASTER.c **** *
 845:.\Generated_Source\PSoC4/I2CM_I2C_MASTER.c **** * Global variables:
 846:.\Generated_Source\PSoC4/I2CM_I2C_MASTER.c **** *  I2CM_mstrRdBufIndex - used to current index within master read
 847:.\Generated_Source\PSoC4/I2CM_I2C_MASTER.c **** *   buffer.
 848:.\Generated_Source\PSoC4/I2CM_I2C_MASTER.c **** *  I2CM_mstrStatus - used to store current status of I2C Master.
 849:.\Generated_Source\PSoC4/I2CM_I2C_MASTER.c **** *
 850:.\Generated_Source\PSoC4/I2CM_I2C_MASTER.c **** *******************************************************************************/
 851:.\Generated_Source\PSoC4/I2CM_I2C_MASTER.c **** void I2CM_I2CMasterClearWriteBuf(void)
 852:.\Generated_Source\PSoC4/I2CM_I2C_MASTER.c **** {
 612              		.loc 1 852 0
 613              		.cfi_startproc
 614 0000 08B5     		push	{r3, lr}
 615              		.cfi_def_cfa_offset 8
 616              		.cfi_offset 3, -8
 617              		.cfi_offset 14, -4
 853:.\Generated_Source\PSoC4/I2CM_I2C_MASTER.c ****     I2CM_DisableInt();  /* Lock from interruption */
 618              		.loc 1 853 0
 619 0002 0A20     		mov	r0, #10
 620 0004 FFF7FEFF 		bl	CyIntDisable
 621              	.LVL32:
 854:.\Generated_Source\PSoC4/I2CM_I2C_MASTER.c **** 
 855:.\Generated_Source\PSoC4/I2CM_I2C_MASTER.c ****     I2CM_mstrWrBufIndex = 0u;
 622              		.loc 1 855 0
 623 0008 0022     		mov	r2, #0
 856:.\Generated_Source\PSoC4/I2CM_I2C_MASTER.c ****     I2CM_mstrStatus    &= (uint16) ~I2CM_I2C_MSTAT_WR_CMPLT;
 624              		.loc 1 856 0
 625 000a 0221     		mov	r1, #2
 855:.\Generated_Source\PSoC4/I2CM_I2C_MASTER.c ****     I2CM_mstrStatus    &= (uint16) ~I2CM_I2C_MSTAT_WR_CMPLT;
 626              		.loc 1 855 0
 627 000c 044B     		ldr	r3, .L71
 857:.\Generated_Source\PSoC4/I2CM_I2C_MASTER.c **** 
 858:.\Generated_Source\PSoC4/I2CM_I2C_MASTER.c ****     I2CM_EnableInt();   /* Release lock */
 628              		.loc 1 858 0
 629 000e 0A20     		mov	r0, #10
 855:.\Generated_Source\PSoC4/I2CM_I2C_MASTER.c ****     I2CM_mstrStatus    &= (uint16) ~I2CM_I2C_MSTAT_WR_CMPLT;
 630              		.loc 1 855 0
 631 0010 1A60     		str	r2, [r3]
 856:.\Generated_Source\PSoC4/I2CM_I2C_MASTER.c **** 
 632              		.loc 1 856 0
 633 0012 044A     		ldr	r2, .L71+4
 859:.\Generated_Source\PSoC4/I2CM_I2C_MASTER.c **** }
 634              		.loc 1 859 0
 635              		@ sp needed
 856:.\Generated_Source\PSoC4/I2CM_I2C_MASTER.c **** 
 636              		.loc 1 856 0
 637 0014 1388     		ldrh	r3, [r2]
 638 0016 8B43     		bic	r3, r1
 639 0018 1380     		strh	r3, [r2]
 858:.\Generated_Source\PSoC4/I2CM_I2C_MASTER.c **** }
 640              		.loc 1 858 0
 641 001a FFF7FEFF 		bl	CyIntEnable
 642              	.LVL33:
 643              		.loc 1 859 0
ARM GAS  C:\Users\ddemidov\AppData\Local\Temp\ccUDC9zP.s 			page 28


 644 001e 08BD     		pop	{r3, pc}
 645              	.L72:
 646              		.align	2
 647              	.L71:
 648 0020 00000000 		.word	I2CM_mstrWrBufIndex
 649 0024 00000000 		.word	I2CM_mstrStatus
 650              		.cfi_endproc
 651              	.LFE12:
 652              		.size	I2CM_I2CMasterClearWriteBuf, .-I2CM_I2CMasterClearWriteBuf
 653              		.section	.text.I2CM_I2CMasterStatus,"ax",%progbits
 654              		.align	1
 655              		.global	I2CM_I2CMasterStatus
 656              		.code	16
 657              		.thumb_func
 658              		.type	I2CM_I2CMasterStatus, %function
 659              	I2CM_I2CMasterStatus:
 660              	.LFB13:
 860:.\Generated_Source\PSoC4/I2CM_I2C_MASTER.c **** 
 861:.\Generated_Source\PSoC4/I2CM_I2C_MASTER.c **** 
 862:.\Generated_Source\PSoC4/I2CM_I2C_MASTER.c **** /*******************************************************************************
 863:.\Generated_Source\PSoC4/I2CM_I2C_MASTER.c **** * Function Name: I2CM_I2CMasterStatus
 864:.\Generated_Source\PSoC4/I2CM_I2C_MASTER.c **** ********************************************************************************
 865:.\Generated_Source\PSoC4/I2CM_I2C_MASTER.c **** *
 866:.\Generated_Source\PSoC4/I2CM_I2C_MASTER.c **** * Summary:
 867:.\Generated_Source\PSoC4/I2CM_I2C_MASTER.c **** *  Returns the master's communication status.
 868:.\Generated_Source\PSoC4/I2CM_I2C_MASTER.c **** *
 869:.\Generated_Source\PSoC4/I2CM_I2C_MASTER.c **** * Parameters:
 870:.\Generated_Source\PSoC4/I2CM_I2C_MASTER.c **** *  None
 871:.\Generated_Source\PSoC4/I2CM_I2C_MASTER.c **** *
 872:.\Generated_Source\PSoC4/I2CM_I2C_MASTER.c **** * Return:
 873:.\Generated_Source\PSoC4/I2CM_I2C_MASTER.c **** *  Current status of I2C master.
 874:.\Generated_Source\PSoC4/I2CM_I2C_MASTER.c **** *
 875:.\Generated_Source\PSoC4/I2CM_I2C_MASTER.c **** * Global variables:
 876:.\Generated_Source\PSoC4/I2CM_I2C_MASTER.c **** *  I2CM_mstrStatus - used to store current status of I2C Master.
 877:.\Generated_Source\PSoC4/I2CM_I2C_MASTER.c **** *
 878:.\Generated_Source\PSoC4/I2CM_I2C_MASTER.c **** *******************************************************************************/
 879:.\Generated_Source\PSoC4/I2CM_I2C_MASTER.c **** uint32 I2CM_I2CMasterStatus(void)
 880:.\Generated_Source\PSoC4/I2CM_I2C_MASTER.c **** {
 661              		.loc 1 880 0
 662              		.cfi_startproc
 663 0000 10B5     		push	{r4, lr}
 664              		.cfi_def_cfa_offset 8
 665              		.cfi_offset 4, -8
 666              		.cfi_offset 14, -4
 881:.\Generated_Source\PSoC4/I2CM_I2C_MASTER.c ****     uint32 status;
 882:.\Generated_Source\PSoC4/I2CM_I2C_MASTER.c **** 
 883:.\Generated_Source\PSoC4/I2CM_I2C_MASTER.c ****     I2CM_DisableInt();  /* Lock from interruption */
 667              		.loc 1 883 0
 668 0002 0A20     		mov	r0, #10
 669 0004 FFF7FEFF 		bl	CyIntDisable
 670              	.LVL34:
 884:.\Generated_Source\PSoC4/I2CM_I2C_MASTER.c **** 
 885:.\Generated_Source\PSoC4/I2CM_I2C_MASTER.c ****     status = (uint32) I2CM_mstrStatus;
 671              		.loc 1 885 0
 672 0008 064B     		ldr	r3, .L76
 673 000a 1C88     		ldrh	r4, [r3]
 886:.\Generated_Source\PSoC4/I2CM_I2C_MASTER.c **** 
ARM GAS  C:\Users\ddemidov\AppData\Local\Temp\ccUDC9zP.s 			page 29


 887:.\Generated_Source\PSoC4/I2CM_I2C_MASTER.c ****     if (I2CM_CHECK_I2C_MASTER_ACTIVE)
 674              		.loc 1 887 0
 675 000c 064B     		ldr	r3, .L76+4
 885:.\Generated_Source\PSoC4/I2CM_I2C_MASTER.c **** 
 676              		.loc 1 885 0
 677 000e A4B2     		uxth	r4, r4
 678              	.LVL35:
 679              		.loc 1 887 0
 680 0010 1B78     		ldrb	r3, [r3]
 681 0012 9B06     		lsl	r3, r3, #26
 682 0014 01D5     		bpl	.L75
 888:.\Generated_Source\PSoC4/I2CM_I2C_MASTER.c ****     {
 889:.\Generated_Source\PSoC4/I2CM_I2C_MASTER.c ****         /* Add status of master pending transaction: MSTAT_XFER_INP */
 890:.\Generated_Source\PSoC4/I2CM_I2C_MASTER.c ****         status |= (uint32) I2CM_I2C_MSTAT_XFER_INP;
 683              		.loc 1 890 0
 684 0016 0423     		mov	r3, #4
 685 0018 1C43     		orr	r4, r3
 686              	.LVL36:
 687              	.L75:
 891:.\Generated_Source\PSoC4/I2CM_I2C_MASTER.c ****     }
 892:.\Generated_Source\PSoC4/I2CM_I2C_MASTER.c **** 
 893:.\Generated_Source\PSoC4/I2CM_I2C_MASTER.c ****     I2CM_EnableInt();   /* Release lock */
 688              		.loc 1 893 0
 689 001a 0A20     		mov	r0, #10
 690 001c FFF7FEFF 		bl	CyIntEnable
 691              	.LVL37:
 894:.\Generated_Source\PSoC4/I2CM_I2C_MASTER.c **** 
 895:.\Generated_Source\PSoC4/I2CM_I2C_MASTER.c ****     return(status);
 896:.\Generated_Source\PSoC4/I2CM_I2C_MASTER.c **** }
 692              		.loc 1 896 0
 693              		@ sp needed
 694 0020 201C     		mov	r0, r4
 695              	.LVL38:
 696 0022 10BD     		pop	{r4, pc}
 697              	.L77:
 698              		.align	2
 699              	.L76:
 700 0024 00000000 		.word	I2CM_mstrStatus
 701 0028 00000000 		.word	I2CM_state
 702              		.cfi_endproc
 703              	.LFE13:
 704              		.size	I2CM_I2CMasterStatus, .-I2CM_I2CMasterStatus
 705              		.section	.text.I2CM_I2CMasterClearStatus,"ax",%progbits
 706              		.align	1
 707              		.global	I2CM_I2CMasterClearStatus
 708              		.code	16
 709              		.thumb_func
 710              		.type	I2CM_I2CMasterClearStatus, %function
 711              	I2CM_I2CMasterClearStatus:
 712              	.LFB14:
 897:.\Generated_Source\PSoC4/I2CM_I2C_MASTER.c **** 
 898:.\Generated_Source\PSoC4/I2CM_I2C_MASTER.c **** 
 899:.\Generated_Source\PSoC4/I2CM_I2C_MASTER.c **** /*******************************************************************************
 900:.\Generated_Source\PSoC4/I2CM_I2C_MASTER.c **** * Function Name: I2CM_I2CMasterClearStatus
 901:.\Generated_Source\PSoC4/I2CM_I2C_MASTER.c **** ********************************************************************************
 902:.\Generated_Source\PSoC4/I2CM_I2C_MASTER.c **** *
 903:.\Generated_Source\PSoC4/I2CM_I2C_MASTER.c **** * Summary:
ARM GAS  C:\Users\ddemidov\AppData\Local\Temp\ccUDC9zP.s 			page 30


 904:.\Generated_Source\PSoC4/I2CM_I2C_MASTER.c **** *  Clears all status flags and returns the master status.
 905:.\Generated_Source\PSoC4/I2CM_I2C_MASTER.c **** *
 906:.\Generated_Source\PSoC4/I2CM_I2C_MASTER.c **** * Parameters:
 907:.\Generated_Source\PSoC4/I2CM_I2C_MASTER.c **** *  None
 908:.\Generated_Source\PSoC4/I2CM_I2C_MASTER.c **** *
 909:.\Generated_Source\PSoC4/I2CM_I2C_MASTER.c **** * Return:
 910:.\Generated_Source\PSoC4/I2CM_I2C_MASTER.c **** *  Current status of I2C master.
 911:.\Generated_Source\PSoC4/I2CM_I2C_MASTER.c **** *
 912:.\Generated_Source\PSoC4/I2CM_I2C_MASTER.c **** * Global variables:
 913:.\Generated_Source\PSoC4/I2CM_I2C_MASTER.c **** *  I2CM_mstrStatus - used to store current status of I2C Master.
 914:.\Generated_Source\PSoC4/I2CM_I2C_MASTER.c **** *
 915:.\Generated_Source\PSoC4/I2CM_I2C_MASTER.c **** *******************************************************************************/
 916:.\Generated_Source\PSoC4/I2CM_I2C_MASTER.c **** uint32 I2CM_I2CMasterClearStatus(void)
 917:.\Generated_Source\PSoC4/I2CM_I2C_MASTER.c **** {
 713              		.loc 1 917 0
 714              		.cfi_startproc
 715 0000 10B5     		push	{r4, lr}
 716              		.cfi_def_cfa_offset 8
 717              		.cfi_offset 4, -8
 718              		.cfi_offset 14, -4
 918:.\Generated_Source\PSoC4/I2CM_I2C_MASTER.c ****     uint32 status;
 919:.\Generated_Source\PSoC4/I2CM_I2C_MASTER.c **** 
 920:.\Generated_Source\PSoC4/I2CM_I2C_MASTER.c ****     I2CM_DisableInt();  /* Lock from interruption */
 719              		.loc 1 920 0
 720 0002 0A20     		mov	r0, #10
 721 0004 FFF7FEFF 		bl	CyIntDisable
 722              	.LVL39:
 921:.\Generated_Source\PSoC4/I2CM_I2C_MASTER.c **** 
 922:.\Generated_Source\PSoC4/I2CM_I2C_MASTER.c ****     /* Read and clear master status */
 923:.\Generated_Source\PSoC4/I2CM_I2C_MASTER.c ****     status = (uint32) I2CM_mstrStatus;
 924:.\Generated_Source\PSoC4/I2CM_I2C_MASTER.c ****     I2CM_mstrStatus = I2CM_I2C_MSTAT_CLEAR;
 723              		.loc 1 924 0
 724 0008 0022     		mov	r2, #0
 923:.\Generated_Source\PSoC4/I2CM_I2C_MASTER.c ****     I2CM_mstrStatus = I2CM_I2C_MSTAT_CLEAR;
 725              		.loc 1 923 0
 726 000a 044B     		ldr	r3, .L79
 925:.\Generated_Source\PSoC4/I2CM_I2C_MASTER.c **** 
 926:.\Generated_Source\PSoC4/I2CM_I2C_MASTER.c ****     I2CM_EnableInt();   /* Release lock */
 727              		.loc 1 926 0
 728 000c 0A20     		mov	r0, #10
 923:.\Generated_Source\PSoC4/I2CM_I2C_MASTER.c ****     I2CM_mstrStatus = I2CM_I2C_MSTAT_CLEAR;
 729              		.loc 1 923 0
 730 000e 1C88     		ldrh	r4, [r3]
 927:.\Generated_Source\PSoC4/I2CM_I2C_MASTER.c **** 
 928:.\Generated_Source\PSoC4/I2CM_I2C_MASTER.c ****     return(status);
 929:.\Generated_Source\PSoC4/I2CM_I2C_MASTER.c **** }
 731              		.loc 1 929 0
 732              		@ sp needed
 923:.\Generated_Source\PSoC4/I2CM_I2C_MASTER.c ****     I2CM_mstrStatus = I2CM_I2C_MSTAT_CLEAR;
 733              		.loc 1 923 0
 734 0010 A4B2     		uxth	r4, r4
 735              	.LVL40:
 924:.\Generated_Source\PSoC4/I2CM_I2C_MASTER.c **** 
 736              		.loc 1 924 0
 737 0012 1A80     		strh	r2, [r3]
 926:.\Generated_Source\PSoC4/I2CM_I2C_MASTER.c **** 
 738              		.loc 1 926 0
ARM GAS  C:\Users\ddemidov\AppData\Local\Temp\ccUDC9zP.s 			page 31


 739 0014 FFF7FEFF 		bl	CyIntEnable
 740              	.LVL41:
 741              		.loc 1 929 0
 742 0018 201C     		mov	r0, r4
 743              	.LVL42:
 744 001a 10BD     		pop	{r4, pc}
 745              	.L80:
 746              		.align	2
 747              	.L79:
 748 001c 00000000 		.word	I2CM_mstrStatus
 749              		.cfi_endproc
 750              	.LFE14:
 751              		.size	I2CM_I2CMasterClearStatus, .-I2CM_I2CMasterClearStatus
 752              		.section	.text.I2CM_I2CReStartGeneration,"ax",%progbits
 753              		.align	1
 754              		.global	I2CM_I2CReStartGeneration
 755              		.code	16
 756              		.thumb_func
 757              		.type	I2CM_I2CReStartGeneration, %function
 758              	I2CM_I2CReStartGeneration:
 759              	.LFB15:
 930:.\Generated_Source\PSoC4/I2CM_I2C_MASTER.c **** 
 931:.\Generated_Source\PSoC4/I2CM_I2C_MASTER.c **** 
 932:.\Generated_Source\PSoC4/I2CM_I2C_MASTER.c **** /*******************************************************************************
 933:.\Generated_Source\PSoC4/I2CM_I2C_MASTER.c **** * Function Name: I2CM_I2CReStartGeneration
 934:.\Generated_Source\PSoC4/I2CM_I2C_MASTER.c **** ********************************************************************************
 935:.\Generated_Source\PSoC4/I2CM_I2C_MASTER.c **** *
 936:.\Generated_Source\PSoC4/I2CM_I2C_MASTER.c **** * Summary:
 937:.\Generated_Source\PSoC4/I2CM_I2C_MASTER.c **** *  Generates a ReStart condition:
 938:.\Generated_Source\PSoC4/I2CM_I2C_MASTER.c **** *  SCB IP V1 and later: Generates ReStart using the scb IP functionality
 939:.\Generated_Source\PSoC4/I2CM_I2C_MASTER.c **** *    Sets the I2C_MASTER_CMD_M_START and I2C_MASTER_CMD_M_NACK (if the previous
 940:.\Generated_Source\PSoC4/I2CM_I2C_MASTER.c **** *    transaction was read) bits in the SCB.I2C_MASTER_CMD register.
 941:.\Generated_Source\PSoC4/I2CM_I2C_MASTER.c **** *    This combination forces the master to generate ReStart.
 942:.\Generated_Source\PSoC4/I2CM_I2C_MASTER.c **** *
 943:.\Generated_Source\PSoC4/I2CM_I2C_MASTER.c **** *  SCB IP V0: Generates Restart using the GPIO and scb IP functionality.
 944:.\Generated_Source\PSoC4/I2CM_I2C_MASTER.c **** *   After the master completes write or read, the SCL is stretched.
 945:.\Generated_Source\PSoC4/I2CM_I2C_MASTER.c **** *   The master waits until SDA line is released by the slave. Then the GPIO
 946:.\Generated_Source\PSoC4/I2CM_I2C_MASTER.c **** *   function is enabled and the scb IP disabled as it already does not drive
 947:.\Generated_Source\PSoC4/I2CM_I2C_MASTER.c **** *   the bus. In case of the previous transfer was read, the NACK is generated
 948:.\Generated_Source\PSoC4/I2CM_I2C_MASTER.c **** *   by the GPIO. The delay of tLOW is added to manage the hold time.
 949:.\Generated_Source\PSoC4/I2CM_I2C_MASTER.c **** *   Set I2C_M_CMD.START and enable the scb IP. The ReStart generation
 950:.\Generated_Source\PSoC4/I2CM_I2C_MASTER.c **** *   is started after the I2C function is enabled for the SCL.
 951:.\Generated_Source\PSoC4/I2CM_I2C_MASTER.c **** *   Note1: the scb IP due re-enable generates Start but on the I2C bus it
 952:.\Generated_Source\PSoC4/I2CM_I2C_MASTER.c **** *          appears as ReStart.
 953:.\Generated_Source\PSoC4/I2CM_I2C_MASTER.c **** *   Note2: the I2C_M_CMD.START is queued if scb IP is disabled.
 954:.\Generated_Source\PSoC4/I2CM_I2C_MASTER.c **** *   Note3: the I2C_STATUS_M_READ is cleared is address was NACKed before.
 955:.\Generated_Source\PSoC4/I2CM_I2C_MASTER.c **** *
 956:.\Generated_Source\PSoC4/I2CM_I2C_MASTER.c **** * Parameters:
 957:.\Generated_Source\PSoC4/I2CM_I2C_MASTER.c **** *  None
 958:.\Generated_Source\PSoC4/I2CM_I2C_MASTER.c **** *
 959:.\Generated_Source\PSoC4/I2CM_I2C_MASTER.c **** * Return:
 960:.\Generated_Source\PSoC4/I2CM_I2C_MASTER.c **** *  None
 961:.\Generated_Source\PSoC4/I2CM_I2C_MASTER.c **** *
 962:.\Generated_Source\PSoC4/I2CM_I2C_MASTER.c **** * Side Effects:
 963:.\Generated_Source\PSoC4/I2CM_I2C_MASTER.c **** *  SCB IP V0: The NACK generation by the GPIO may cause a greater SCL period
 964:.\Generated_Source\PSoC4/I2CM_I2C_MASTER.c **** *             than expected for the selected master data rate.
 965:.\Generated_Source\PSoC4/I2CM_I2C_MASTER.c **** *
ARM GAS  C:\Users\ddemidov\AppData\Local\Temp\ccUDC9zP.s 			page 32


 966:.\Generated_Source\PSoC4/I2CM_I2C_MASTER.c **** *******************************************************************************/
 967:.\Generated_Source\PSoC4/I2CM_I2C_MASTER.c **** void I2CM_I2CReStartGeneration(void)
 968:.\Generated_Source\PSoC4/I2CM_I2C_MASTER.c **** {
 760              		.loc 1 968 0
 761              		.cfi_startproc
 762              	.LVL43:
 969:.\Generated_Source\PSoC4/I2CM_I2C_MASTER.c **** #if(I2CM_CY_SCBIP_V0)
 970:.\Generated_Source\PSoC4/I2CM_I2C_MASTER.c ****     /* Generates Restart use GPIO and scb IP functionality. Ticket ID#143715,
 971:.\Generated_Source\PSoC4/I2CM_I2C_MASTER.c ****     ID#145238 and ID#173656 */
 972:.\Generated_Source\PSoC4/I2CM_I2C_MASTER.c ****     uint32 status = I2CM_I2C_STATUS_REG;
 973:.\Generated_Source\PSoC4/I2CM_I2C_MASTER.c **** 
 974:.\Generated_Source\PSoC4/I2CM_I2C_MASTER.c ****     while(I2CM_WAIT_SDA_SET_HIGH)
 975:.\Generated_Source\PSoC4/I2CM_I2C_MASTER.c ****     {
 976:.\Generated_Source\PSoC4/I2CM_I2C_MASTER.c ****         /* Wait when slave release SDA line: SCL tHIGH is complete */
 977:.\Generated_Source\PSoC4/I2CM_I2C_MASTER.c ****     }
 978:.\Generated_Source\PSoC4/I2CM_I2C_MASTER.c **** 
 979:.\Generated_Source\PSoC4/I2CM_I2C_MASTER.c ****     /* Prepare DR register to drive SCL line */
 980:.\Generated_Source\PSoC4/I2CM_I2C_MASTER.c ****     I2CM_SET_I2C_SCL_DR(I2CM_I2C_SCL_LOW);
 981:.\Generated_Source\PSoC4/I2CM_I2C_MASTER.c **** 
 982:.\Generated_Source\PSoC4/I2CM_I2C_MASTER.c ****     /* Switch HSIOM to GPIO: SCL goes low */
 983:.\Generated_Source\PSoC4/I2CM_I2C_MASTER.c ****     I2CM_SET_I2C_SCL_HSIOM_SEL(I2CM_HSIOM_GPIO_SEL);
 984:.\Generated_Source\PSoC4/I2CM_I2C_MASTER.c **** 
 985:.\Generated_Source\PSoC4/I2CM_I2C_MASTER.c ****     /* Disable SCB block */
 986:.\Generated_Source\PSoC4/I2CM_I2C_MASTER.c ****     I2CM_CTRL_REG &= (uint32) ~I2CM_CTRL_ENABLED;
 987:.\Generated_Source\PSoC4/I2CM_I2C_MASTER.c **** 
 988:.\Generated_Source\PSoC4/I2CM_I2C_MASTER.c ****     if(0u != (status & I2CM_I2C_STATUS_M_READ))
 989:.\Generated_Source\PSoC4/I2CM_I2C_MASTER.c ****     {
 990:.\Generated_Source\PSoC4/I2CM_I2C_MASTER.c ****         /* Generate NACK use GPIO functionality */
 991:.\Generated_Source\PSoC4/I2CM_I2C_MASTER.c ****         I2CM_SET_I2C_SCL_DR(I2CM_I2C_SCL_LOW);
 992:.\Generated_Source\PSoC4/I2CM_I2C_MASTER.c ****         CyDelayUs(I2CM_I2C_TLOW_TIME); /* Count tLOW */
 993:.\Generated_Source\PSoC4/I2CM_I2C_MASTER.c **** 
 994:.\Generated_Source\PSoC4/I2CM_I2C_MASTER.c ****         I2CM_SET_I2C_SCL_DR(I2CM_I2C_SCL_HIGH);
 995:.\Generated_Source\PSoC4/I2CM_I2C_MASTER.c ****         while(I2CM_WAIT_SCL_SET_HIGH)
 996:.\Generated_Source\PSoC4/I2CM_I2C_MASTER.c ****         {
 997:.\Generated_Source\PSoC4/I2CM_I2C_MASTER.c ****             /* Wait until slave releases SCL in case if it stretches */
 998:.\Generated_Source\PSoC4/I2CM_I2C_MASTER.c ****         }
 999:.\Generated_Source\PSoC4/I2CM_I2C_MASTER.c ****         CyDelayUs(I2CM_I2C_THIGH_TIME); /* Count tHIGH */
1000:.\Generated_Source\PSoC4/I2CM_I2C_MASTER.c ****     }
1001:.\Generated_Source\PSoC4/I2CM_I2C_MASTER.c **** 
1002:.\Generated_Source\PSoC4/I2CM_I2C_MASTER.c ****     /* Count tLOW as hold time for write and read */
1003:.\Generated_Source\PSoC4/I2CM_I2C_MASTER.c ****     I2CM_SET_I2C_SCL_DR(I2CM_I2C_SCL_LOW);
1004:.\Generated_Source\PSoC4/I2CM_I2C_MASTER.c ****     CyDelayUs(I2CM_I2C_TLOW_TIME); /* Count tLOW */
1005:.\Generated_Source\PSoC4/I2CM_I2C_MASTER.c **** 
1006:.\Generated_Source\PSoC4/I2CM_I2C_MASTER.c ****     /* Set command for Start generation: it will appear */
1007:.\Generated_Source\PSoC4/I2CM_I2C_MASTER.c ****     I2CM_I2C_MASTER_CMD_REG = I2CM_I2C_MASTER_CMD_M_START;
1008:.\Generated_Source\PSoC4/I2CM_I2C_MASTER.c **** 
1009:.\Generated_Source\PSoC4/I2CM_I2C_MASTER.c ****     /* Enable SCB block */
1010:.\Generated_Source\PSoC4/I2CM_I2C_MASTER.c ****     I2CM_CTRL_REG |= (uint32) I2CM_CTRL_ENABLED;
1011:.\Generated_Source\PSoC4/I2CM_I2C_MASTER.c **** 
1012:.\Generated_Source\PSoC4/I2CM_I2C_MASTER.c ****     /* Switch HSIOM to I2C: */
1013:.\Generated_Source\PSoC4/I2CM_I2C_MASTER.c ****     I2CM_SET_I2C_SCL_HSIOM_SEL(I2CM_HSIOM_I2C_SEL);
1014:.\Generated_Source\PSoC4/I2CM_I2C_MASTER.c **** 
1015:.\Generated_Source\PSoC4/I2CM_I2C_MASTER.c ****     /* Revert SCL DR register */
1016:.\Generated_Source\PSoC4/I2CM_I2C_MASTER.c ****     I2CM_SET_I2C_SCL_DR(I2CM_I2C_SCL_HIGH);
1017:.\Generated_Source\PSoC4/I2CM_I2C_MASTER.c **** #else
1018:.\Generated_Source\PSoC4/I2CM_I2C_MASTER.c ****     uint32 cmd;
1019:.\Generated_Source\PSoC4/I2CM_I2C_MASTER.c **** 
ARM GAS  C:\Users\ddemidov\AppData\Local\Temp\ccUDC9zP.s 			page 33


1020:.\Generated_Source\PSoC4/I2CM_I2C_MASTER.c ****     /* Generates ReStart use scb IP functionality */
1021:.\Generated_Source\PSoC4/I2CM_I2C_MASTER.c ****     cmd  = I2CM_I2C_MASTER_CMD_M_START;
1022:.\Generated_Source\PSoC4/I2CM_I2C_MASTER.c ****     cmd |= I2CM_CHECK_I2C_STATUS(I2CM_I2C_STATUS_M_READ) ?
 763              		.loc 1 1022 0
 764 0000 054B     		ldr	r3, .L84
 765 0002 1A68     		ldr	r2, [r3]
 766 0004 2023     		mov	r3, #32
 767 0006 1340     		and	r3, r2
1023:.\Generated_Source\PSoC4/I2CM_I2C_MASTER.c ****                 (I2CM_I2C_MASTER_CMD_M_NACK) : (0u);
 768              		.loc 1 1023 0
 769 0008 00D0     		beq	.L82
 770 000a 0823     		mov	r3, #8
 771              	.L82:
1022:.\Generated_Source\PSoC4/I2CM_I2C_MASTER.c ****                 (I2CM_I2C_MASTER_CMD_M_NACK) : (0u);
 772              		.loc 1 1022 0 discriminator 4
 773 000c 0122     		mov	r2, #1
 774 000e 1343     		orr	r3, r2
 775              	.LVL44:
1024:.\Generated_Source\PSoC4/I2CM_I2C_MASTER.c **** 
1025:.\Generated_Source\PSoC4/I2CM_I2C_MASTER.c ****     I2CM_I2C_MASTER_CMD_REG = cmd;
 776              		.loc 1 1025 0 discriminator 4
 777 0010 024A     		ldr	r2, .L84+4
1026:.\Generated_Source\PSoC4/I2CM_I2C_MASTER.c **** #endif /* (I2CM_CY_SCBIP_V1) */
1027:.\Generated_Source\PSoC4/I2CM_I2C_MASTER.c **** }
 778              		.loc 1 1027 0 discriminator 4
 779              		@ sp needed
1025:.\Generated_Source\PSoC4/I2CM_I2C_MASTER.c **** #endif /* (I2CM_CY_SCBIP_V1) */
 780              		.loc 1 1025 0 discriminator 4
 781 0012 1360     		str	r3, [r2]
 782              		.loc 1 1027 0 discriminator 4
 783 0014 7047     		bx	lr
 784              	.L85:
 785 0016 C046     		.align	2
 786              	.L84:
 787 0018 64002540 		.word	1076166756
 788 001c 68002540 		.word	1076166760
 789              		.cfi_endproc
 790              	.LFE15:
 791              		.size	I2CM_I2CReStartGeneration, .-I2CM_I2CReStartGeneration
 792              		.section	.text.I2CM_I2CMasterWriteBuf,"ax",%progbits
 793              		.align	1
 794              		.global	I2CM_I2CMasterWriteBuf
 795              		.code	16
 796              		.thumb_func
 797              		.type	I2CM_I2CMasterWriteBuf, %function
 798              	I2CM_I2CMasterWriteBuf:
 799              	.LFB2:
  81:.\Generated_Source\PSoC4/I2CM_I2C_MASTER.c ****     uint32 errStatus;
 800              		.loc 1 81 0
 801              		.cfi_startproc
 802              	.LVL45:
 803 0000 F7B5     		push	{r0, r1, r2, r4, r5, r6, r7, lr}
 804              		.cfi_def_cfa_offset 32
 805              		.cfi_offset 0, -32
 806              		.cfi_offset 1, -28
 807              		.cfi_offset 2, -24
 808              		.cfi_offset 4, -20
ARM GAS  C:\Users\ddemidov\AppData\Local\Temp\ccUDC9zP.s 			page 34


 809              		.cfi_offset 5, -16
 810              		.cfi_offset 6, -12
 811              		.cfi_offset 7, -8
 812              		.cfi_offset 14, -4
  81:.\Generated_Source\PSoC4/I2CM_I2C_MASTER.c ****     uint32 errStatus;
 813              		.loc 1 81 0
 814 0002 061C     		mov	r6, r0
 815 0004 0F1C     		mov	r7, r1
 816 0006 0192     		str	r2, [sp, #4]
 817 0008 0093     		str	r3, [sp]
  84:.\Generated_Source\PSoC4/I2CM_I2C_MASTER.c **** 
 818              		.loc 1 84 0
 819 000a 0424     		mov	r4, #4
  86:.\Generated_Source\PSoC4/I2CM_I2C_MASTER.c ****     {
 820              		.loc 1 86 0
 821 000c 0029     		cmp	r1, #0
 822 000e 44D0     		beq	.L90
  89:.\Generated_Source\PSoC4/I2CM_I2C_MASTER.c ****         {
 823              		.loc 1 89 0
 824 0010 244D     		ldr	r5, .L98
 825 0012 2B78     		ldrb	r3, [r5]
 826              	.LVL46:
 827 0014 102B     		cmp	r3, #16
 828 0016 08D1     		bne	.L88
  91:.\Generated_Source\PSoC4/I2CM_I2C_MASTER.c **** 
 829              		.loc 1 91 0
 830 0018 0A20     		mov	r0, #10
 831              	.LVL47:
 832 001a FFF7FEFF 		bl	CyIntDisable
 833              	.LVL48:
  94:.\Generated_Source\PSoC4/I2CM_I2C_MASTER.c ****                             I2CM_I2C_MSTR_BUS_BUSY : I2CM_I2C_MSTR_NO_ERROR;
 834              		.loc 1 94 0
 835 001e 224B     		ldr	r3, .L98+4
 836 0020 2419     		add	r4, r4, r4
 837 0022 1B68     		ldr	r3, [r3]
 838 0024 DB07     		lsl	r3, r3, #31
 839 0026 38D4     		bmi	.L90
 840 0028 08E0     		b	.L89
 841              	.LVL49:
 842              	.L88:
  97:.\Generated_Source\PSoC4/I2CM_I2C_MASTER.c ****         {
 843              		.loc 1 97 0
 844 002a 2B78     		ldrb	r3, [r5]
  84:.\Generated_Source\PSoC4/I2CM_I2C_MASTER.c **** 
 845              		.loc 1 84 0
 846 002c 0424     		mov	r4, #4
  97:.\Generated_Source\PSoC4/I2CM_I2C_MASTER.c ****         {
 847              		.loc 1 97 0
 848 002e 602B     		cmp	r3, #96
 849 0030 33D1     		bne	.L90
  99:.\Generated_Source\PSoC4/I2CM_I2C_MASTER.c ****                               errStatus  = I2CM_I2C_MSTR_NO_ERROR;
 850              		.loc 1 99 0
 851 0032 0821     		mov	r1, #8
 852              	.LVL50:
 853 0034 1D4A     		ldr	r2, .L98+8
 854              	.LVL51:
 855 0036 1388     		ldrh	r3, [r2]
ARM GAS  C:\Users\ddemidov\AppData\Local\Temp\ccUDC9zP.s 			page 35


 856 0038 8B43     		bic	r3, r1
 857 003a 1380     		strh	r3, [r2]
 858              	.LVL52:
 859              	.L89:
 117:.\Generated_Source\PSoC4/I2CM_I2C_MASTER.c ****         I2CM_mstrWrBufIndexTmp = 0u;
 860              		.loc 1 117 0
 861 003c 2823     		mov	r3, #40
 862 003e 2B70     		strb	r3, [r5]
 118:.\Generated_Source\PSoC4/I2CM_I2C_MASTER.c ****         I2CM_mstrWrBufIndex    = 0u;
 863              		.loc 1 118 0
 864 0040 0025     		mov	r5, #0
 865 0042 1B4B     		ldr	r3, .L98+12
 120:.\Generated_Source\PSoC4/I2CM_I2C_MASTER.c ****         I2CM_mstrWrBufPtr      = (volatile uint8 *) wrData;
 866              		.loc 1 120 0
 867 0044 019A     		ldr	r2, [sp, #4]
 118:.\Generated_Source\PSoC4/I2CM_I2C_MASTER.c ****         I2CM_mstrWrBufIndex    = 0u;
 868              		.loc 1 118 0
 869 0046 1D60     		str	r5, [r3]
 119:.\Generated_Source\PSoC4/I2CM_I2C_MASTER.c ****         I2CM_mstrWrBufSize     = cnt;
 870              		.loc 1 119 0
 871 0048 1A4B     		ldr	r3, .L98+16
 126:.\Generated_Source\PSoC4/I2CM_I2C_MASTER.c **** 
 872              		.loc 1 126 0
 873 004a 1849     		ldr	r1, .L98+8
 119:.\Generated_Source\PSoC4/I2CM_I2C_MASTER.c ****         I2CM_mstrWrBufSize     = cnt;
 874              		.loc 1 119 0
 875 004c 1D60     		str	r5, [r3]
 120:.\Generated_Source\PSoC4/I2CM_I2C_MASTER.c ****         I2CM_mstrWrBufPtr      = (volatile uint8 *) wrData;
 876              		.loc 1 120 0
 877 004e 1A4B     		ldr	r3, .L98+20
 124:.\Generated_Source\PSoC4/I2CM_I2C_MASTER.c **** 
 878              		.loc 1 124 0
 879 0050 7600     		lsl	r6, r6, #1
 880              	.LVL53:
 120:.\Generated_Source\PSoC4/I2CM_I2C_MASTER.c ****         I2CM_mstrWrBufPtr      = (volatile uint8 *) wrData;
 881              		.loc 1 120 0
 882 0052 1A60     		str	r2, [r3]
 121:.\Generated_Source\PSoC4/I2CM_I2C_MASTER.c ****         I2CM_mstrControl       = (uint8) mode;
 883              		.loc 1 121 0
 884 0054 194B     		ldr	r3, .L98+24
 137:.\Generated_Source\PSoC4/I2CM_I2C_MASTER.c ****         {
 885              		.loc 1 137 0
 886 0056 0124     		mov	r4, #1
 121:.\Generated_Source\PSoC4/I2CM_I2C_MASTER.c ****         I2CM_mstrControl       = (uint8) mode;
 887              		.loc 1 121 0
 888 0058 1F60     		str	r7, [r3]
 122:.\Generated_Source\PSoC4/I2CM_I2C_MASTER.c **** 
 889              		.loc 1 122 0
 890 005a 6B46     		mov	r3, sp
 891 005c 1A78     		ldrb	r2, [r3]
 892 005e 184B     		ldr	r3, .L98+28
 893 0060 184F     		ldr	r7, .L98+32
 894              	.LVL54:
 895 0062 1A70     		strb	r2, [r3]
 124:.\Generated_Source\PSoC4/I2CM_I2C_MASTER.c **** 
 896              		.loc 1 124 0
 897 0064 FF23     		mov	r3, #255
ARM GAS  C:\Users\ddemidov\AppData\Local\Temp\ccUDC9zP.s 			page 36


 126:.\Generated_Source\PSoC4/I2CM_I2C_MASTER.c **** 
 898              		.loc 1 126 0
 899 0066 0222     		mov	r2, #2
 124:.\Generated_Source\PSoC4/I2CM_I2C_MASTER.c **** 
 900              		.loc 1 124 0
 901 0068 1E40     		and	r6, r3
 902              	.LVL55:
 126:.\Generated_Source\PSoC4/I2CM_I2C_MASTER.c **** 
 903              		.loc 1 126 0
 904 006a 0B88     		ldrh	r3, [r1]
 905 006c 9343     		bic	r3, r2
 906 006e 0B80     		strh	r3, [r1]
 128:.\Generated_Source\PSoC4/I2CM_I2C_MASTER.c ****         I2CM_ClearTxInterruptSource(I2CM_INTR_TX_UNDERFLOW);
 907              		.loc 1 128 0
 908 0070 1549     		ldr	r1, .L98+36
 909 0072 164B     		ldr	r3, .L98+40
 910 0074 1960     		str	r1, [r3]
 911              	.LVL56:
 129:.\Generated_Source\PSoC4/I2CM_I2C_MASTER.c **** 
 912              		.loc 1 129 0
 913 0076 4023     		mov	r3, #64
 914 0078 1549     		ldr	r1, .L98+44
 915 007a 0B60     		str	r3, [r1]
 134:.\Generated_Source\PSoC4/I2CM_I2C_MASTER.c **** 
 916              		.loc 1 134 0
 917 007c 1549     		ldr	r1, .L98+48
 918 007e 0B60     		str	r3, [r1]
 137:.\Generated_Source\PSoC4/I2CM_I2C_MASTER.c ****         {
 919              		.loc 1 137 0
 920 0080 009B     		ldr	r3, [sp]
 921 0082 2340     		and	r3, r4
 922 0084 1C1E     		sub	r4, r3, #0
 923 0086 AC42     		cmp	r4, r5
 924 0088 04D0     		beq	.L97
 139:.\Generated_Source\PSoC4/I2CM_I2C_MASTER.c ****             I2CM_TX_FIFO_WR_REG = slaveAddress;
 925              		.loc 1 139 0
 926 008a FFF7FEFF 		bl	I2CM_I2CReStartGeneration
 927              	.LVL57:
 928 008e 2C1C     		mov	r4, r5
 140:.\Generated_Source\PSoC4/I2CM_I2C_MASTER.c ****         }
 929              		.loc 1 140 0
 930 0090 3E60     		str	r6, [r7]
 931 0092 02E0     		b	.L90
 932              	.L97:
 145:.\Generated_Source\PSoC4/I2CM_I2C_MASTER.c ****         }
 933              		.loc 1 145 0
 934 0094 104B     		ldr	r3, .L98+52
 144:.\Generated_Source\PSoC4/I2CM_I2C_MASTER.c ****             I2CM_I2C_MASTER_GENERATE_START;
 935              		.loc 1 144 0
 936 0096 3E60     		str	r6, [r7]
 145:.\Generated_Source\PSoC4/I2CM_I2C_MASTER.c ****         }
 937              		.loc 1 145 0
 938 0098 1A60     		str	r2, [r3]
 939              	.LVL58:
 940              	.L90:
 149:.\Generated_Source\PSoC4/I2CM_I2C_MASTER.c **** 
 941              		.loc 1 149 0
ARM GAS  C:\Users\ddemidov\AppData\Local\Temp\ccUDC9zP.s 			page 37


 942 009a 0A20     		mov	r0, #10
 943 009c FFF7FEFF 		bl	CyIntEnable
 944              	.LVL59:
 152:.\Generated_Source\PSoC4/I2CM_I2C_MASTER.c **** 
 945              		.loc 1 152 0
 946              		@ sp needed
 947 00a0 201C     		mov	r0, r4
 948              	.LVL60:
 949 00a2 FEBD     		pop	{r1, r2, r3, r4, r5, r6, r7, pc}
 950              	.L99:
 951              		.align	2
 952              	.L98:
 953 00a4 00000000 		.word	I2CM_state
 954 00a8 64002540 		.word	1076166756
 955 00ac 00000000 		.word	I2CM_mstrStatus
 956 00b0 00000000 		.word	I2CM_mstrWrBufIndexTmp
 957 00b4 00000000 		.word	I2CM_mstrWrBufIndex
 958 00b8 00000000 		.word	I2CM_mstrWrBufSize
 959 00bc 00000000 		.word	I2CM_mstrWrBufPtr
 960 00c0 00000000 		.word	I2CM_mstrControl
 961 00c4 40022540 		.word	1076167232
 962 00c8 17030000 		.word	791
 963 00cc 000F2540 		.word	1076170496
 964 00d0 800F2540 		.word	1076170624
 965 00d4 880F2540 		.word	1076170632
 966 00d8 68002540 		.word	1076166760
 967              		.cfi_endproc
 968              	.LFE2:
 969              		.size	I2CM_I2CMasterWriteBuf, .-I2CM_I2CMasterWriteBuf
 970              		.section	.text.I2CM_I2CMasterReadBuf,"ax",%progbits
 971              		.align	1
 972              		.global	I2CM_I2CMasterReadBuf
 973              		.code	16
 974              		.thumb_func
 975              		.type	I2CM_I2CMasterReadBuf, %function
 976              	I2CM_I2CMasterReadBuf:
 977              	.LFB3:
 188:.\Generated_Source\PSoC4/I2CM_I2C_MASTER.c ****     uint32 errStatus;
 978              		.loc 1 188 0
 979              		.cfi_startproc
 980              	.LVL61:
 981 0000 F7B5     		push	{r0, r1, r2, r4, r5, r6, r7, lr}
 982              		.cfi_def_cfa_offset 32
 983              		.cfi_offset 0, -32
 984              		.cfi_offset 1, -28
 985              		.cfi_offset 2, -24
 986              		.cfi_offset 4, -20
 987              		.cfi_offset 5, -16
 988              		.cfi_offset 6, -12
 989              		.cfi_offset 7, -8
 990              		.cfi_offset 14, -4
 188:.\Generated_Source\PSoC4/I2CM_I2C_MASTER.c ****     uint32 errStatus;
 991              		.loc 1 188 0
 992 0002 061C     		mov	r6, r0
 993 0004 0F1C     		mov	r7, r1
 994 0006 0192     		str	r2, [sp, #4]
 995 0008 0093     		str	r3, [sp]
ARM GAS  C:\Users\ddemidov\AppData\Local\Temp\ccUDC9zP.s 			page 38


 191:.\Generated_Source\PSoC4/I2CM_I2C_MASTER.c **** 
 996              		.loc 1 191 0
 997 000a 0424     		mov	r4, #4
 193:.\Generated_Source\PSoC4/I2CM_I2C_MASTER.c ****     {
 998              		.loc 1 193 0
 999 000c 0029     		cmp	r1, #0
 1000 000e 4CD0     		beq	.L106
 196:.\Generated_Source\PSoC4/I2CM_I2C_MASTER.c ****         {
 1001              		.loc 1 196 0
 1002 0010 284D     		ldr	r5, .L116
 1003 0012 2B78     		ldrb	r3, [r5]
 1004              	.LVL62:
 1005 0014 102B     		cmp	r3, #16
 1006 0016 08D1     		bne	.L102
 198:.\Generated_Source\PSoC4/I2CM_I2C_MASTER.c **** 
 1007              		.loc 1 198 0
 1008 0018 0A20     		mov	r0, #10
 1009              	.LVL63:
 1010 001a FFF7FEFF 		bl	CyIntDisable
 1011              	.LVL64:
 201:.\Generated_Source\PSoC4/I2CM_I2C_MASTER.c ****                             I2CM_I2C_MSTR_BUS_BUSY : I2CM_I2C_MSTR_NO_ERROR;
 1012              		.loc 1 201 0
 1013 001e 264B     		ldr	r3, .L116+4
 1014 0020 2419     		add	r4, r4, r4
 1015 0022 1B68     		ldr	r3, [r3]
 1016 0024 DB07     		lsl	r3, r3, #31
 1017 0026 40D4     		bmi	.L106
 1018 0028 08E0     		b	.L103
 1019              	.LVL65:
 1020              	.L102:
 204:.\Generated_Source\PSoC4/I2CM_I2C_MASTER.c ****         {
 1021              		.loc 1 204 0
 1022 002a 2B78     		ldrb	r3, [r5]
 191:.\Generated_Source\PSoC4/I2CM_I2C_MASTER.c **** 
 1023              		.loc 1 191 0
 1024 002c 0424     		mov	r4, #4
 204:.\Generated_Source\PSoC4/I2CM_I2C_MASTER.c ****         {
 1025              		.loc 1 204 0
 1026 002e 602B     		cmp	r3, #96
 1027 0030 3BD1     		bne	.L106
 206:.\Generated_Source\PSoC4/I2CM_I2C_MASTER.c ****                               errStatus  =  I2CM_I2C_MSTR_NO_ERROR;
 1028              		.loc 1 206 0
 1029 0032 0821     		mov	r1, #8
 1030              	.LVL66:
 1031 0034 214A     		ldr	r2, .L116+8
 1032              	.LVL67:
 1033 0036 1388     		ldrh	r3, [r2]
 1034 0038 8B43     		bic	r3, r1
 1035 003a 1380     		strh	r3, [r2]
 1036              	.LVL68:
 1037              	.L103:
 224:.\Generated_Source\PSoC4/I2CM_I2C_MASTER.c ****         I2CM_mstrRdBufIndex = 0u;
 1038              		.loc 1 224 0
 1039 003c 2923     		mov	r3, #41
 225:.\Generated_Source\PSoC4/I2CM_I2C_MASTER.c ****         I2CM_mstrRdBufSize  = cnt;
 1040              		.loc 1 225 0
 1041 003e 0022     		mov	r2, #0
ARM GAS  C:\Users\ddemidov\AppData\Local\Temp\ccUDC9zP.s 			page 39


 224:.\Generated_Source\PSoC4/I2CM_I2C_MASTER.c ****         I2CM_mstrRdBufIndex = 0u;
 1042              		.loc 1 224 0
 1043 0040 2B70     		strb	r3, [r5]
 225:.\Generated_Source\PSoC4/I2CM_I2C_MASTER.c ****         I2CM_mstrRdBufSize  = cnt;
 1044              		.loc 1 225 0
 1045 0042 1F4B     		ldr	r3, .L116+12
 228:.\Generated_Source\PSoC4/I2CM_I2C_MASTER.c **** 
 1046              		.loc 1 228 0
 1047 0044 1F49     		ldr	r1, .L116+16
 225:.\Generated_Source\PSoC4/I2CM_I2C_MASTER.c ****         I2CM_mstrRdBufSize  = cnt;
 1048              		.loc 1 225 0
 1049 0046 1A60     		str	r2, [r3]
 226:.\Generated_Source\PSoC4/I2CM_I2C_MASTER.c ****         I2CM_mstrRdBufPtr   = (volatile uint8 *) rdData;
 1050              		.loc 1 226 0
 1051 0048 1F4A     		ldr	r2, .L116+20
 1052 004a 019B     		ldr	r3, [sp, #4]
 230:.\Generated_Source\PSoC4/I2CM_I2C_MASTER.c **** 
 1053              		.loc 1 230 0
 1054 004c 0120     		mov	r0, #1
 226:.\Generated_Source\PSoC4/I2CM_I2C_MASTER.c ****         I2CM_mstrRdBufPtr   = (volatile uint8 *) rdData;
 1055              		.loc 1 226 0
 1056 004e 1360     		str	r3, [r2]
 227:.\Generated_Source\PSoC4/I2CM_I2C_MASTER.c ****         I2CM_mstrControl    = (uint8) mode;
 1057              		.loc 1 227 0
 1058 0050 1E4B     		ldr	r3, .L116+24
 230:.\Generated_Source\PSoC4/I2CM_I2C_MASTER.c **** 
 1059              		.loc 1 230 0
 1060 0052 7600     		lsl	r6, r6, #1
 1061              	.LVL69:
 227:.\Generated_Source\PSoC4/I2CM_I2C_MASTER.c ****         I2CM_mstrControl    = (uint8) mode;
 1062              		.loc 1 227 0
 1063 0054 1F60     		str	r7, [r3]
 228:.\Generated_Source\PSoC4/I2CM_I2C_MASTER.c **** 
 1064              		.loc 1 228 0
 1065 0056 6B46     		mov	r3, sp
 1066 0058 1B78     		ldrb	r3, [r3]
 1067 005a 0B70     		strb	r3, [r1]
 230:.\Generated_Source\PSoC4/I2CM_I2C_MASTER.c **** 
 1068              		.loc 1 230 0
 1069 005c FF23     		mov	r3, #255
 232:.\Generated_Source\PSoC4/I2CM_I2C_MASTER.c **** 
 1070              		.loc 1 232 0
 1071 005e 1749     		ldr	r1, .L116+8
 230:.\Generated_Source\PSoC4/I2CM_I2C_MASTER.c **** 
 1072              		.loc 1 230 0
 1073 0060 1E40     		and	r6, r3
 232:.\Generated_Source\PSoC4/I2CM_I2C_MASTER.c **** 
 1074              		.loc 1 232 0
 1075 0062 0B88     		ldrh	r3, [r1]
 230:.\Generated_Source\PSoC4/I2CM_I2C_MASTER.c **** 
 1076              		.loc 1 230 0
 1077 0064 0643     		orr	r6, r0
 1078              	.LVL70:
 232:.\Generated_Source\PSoC4/I2CM_I2C_MASTER.c **** 
 1079              		.loc 1 232 0
 1080 0066 8343     		bic	r3, r0
 1081 0068 0B80     		strh	r3, [r1]
ARM GAS  C:\Users\ddemidov\AppData\Local\Temp\ccUDC9zP.s 			page 40


 234:.\Generated_Source\PSoC4/I2CM_I2C_MASTER.c **** 
 1082              		.loc 1 234 0
 1083 006a 194B     		ldr	r3, .L116+28
 1084 006c 1949     		ldr	r1, .L116+32
 1085 006e 1960     		str	r1, [r3]
 239:.\Generated_Source\PSoC4/I2CM_I2C_MASTER.c ****         {
 1086              		.loc 1 239 0
 1087 0070 1368     		ldr	r3, [r2]
 1088 0072 194A     		ldr	r2, .L116+36
 1089 0074 072B     		cmp	r3, #7
 1090 0076 01D8     		bhi	.L115
 242:.\Generated_Source\PSoC4/I2CM_I2C_MASTER.c ****         }
 1091              		.loc 1 242 0
 1092 0078 0423     		mov	r3, #4
 1093 007a 06E0     		b	.L114
 1094              	.L115:
 247:.\Generated_Source\PSoC4/I2CM_I2C_MASTER.c ****             I2CM_SetRxInterruptMode(I2CM_INTR_RX_FULL);
 1095              		.loc 1 247 0
 1096 007c 8020     		mov	r0, #128
 1097 007e 1749     		ldr	r1, .L116+40
 1098 0080 4000     		lsl	r0, r0, #1
 1099 0082 0B68     		ldr	r3, [r1]
 1100 0084 0343     		orr	r3, r0
 1101 0086 0B60     		str	r3, [r1]
 248:.\Generated_Source\PSoC4/I2CM_I2C_MASTER.c ****         }
 1102              		.loc 1 248 0
 1103 0088 0823     		mov	r3, #8
 1104              	.L114:
 252:.\Generated_Source\PSoC4/I2CM_I2C_MASTER.c ****         {
 1105              		.loc 1 252 0
 1106 008a 0124     		mov	r4, #1
 248:.\Generated_Source\PSoC4/I2CM_I2C_MASTER.c ****         }
 1107              		.loc 1 248 0
 1108 008c 1360     		str	r3, [r2]
 252:.\Generated_Source\PSoC4/I2CM_I2C_MASTER.c ****         {
 1109              		.loc 1 252 0
 1110 008e 009B     		ldr	r3, [sp]
 1111 0090 134D     		ldr	r5, .L116+44
 1112 0092 2340     		and	r3, r4
 1113 0094 1C1E     		sub	r4, r3, #0
 1114 0096 04D0     		beq	.L105
 254:.\Generated_Source\PSoC4/I2CM_I2C_MASTER.c ****             I2CM_TX_FIFO_WR_REG = (slaveAddress);
 1115              		.loc 1 254 0
 1116 0098 FFF7FEFF 		bl	I2CM_I2CReStartGeneration
 1117              	.LVL71:
 1118 009c 0024     		mov	r4, #0
 255:.\Generated_Source\PSoC4/I2CM_I2C_MASTER.c ****         }
 1119              		.loc 1 255 0
 1120 009e 2E60     		str	r6, [r5]
 1121 00a0 03E0     		b	.L106
 1122              	.L105:
 260:.\Generated_Source\PSoC4/I2CM_I2C_MASTER.c ****         }
 1123              		.loc 1 260 0
 1124 00a2 0222     		mov	r2, #2
 1125 00a4 0F4B     		ldr	r3, .L116+48
 259:.\Generated_Source\PSoC4/I2CM_I2C_MASTER.c ****             I2CM_I2C_MASTER_GENERATE_START;
 1126              		.loc 1 259 0
ARM GAS  C:\Users\ddemidov\AppData\Local\Temp\ccUDC9zP.s 			page 41


 1127 00a6 2E60     		str	r6, [r5]
 260:.\Generated_Source\PSoC4/I2CM_I2C_MASTER.c ****         }
 1128              		.loc 1 260 0
 1129 00a8 1A60     		str	r2, [r3]
 1130              	.LVL72:
 1131              	.L106:
 264:.\Generated_Source\PSoC4/I2CM_I2C_MASTER.c **** 
 1132              		.loc 1 264 0
 1133 00aa 0A20     		mov	r0, #10
 1134 00ac FFF7FEFF 		bl	CyIntEnable
 1135              	.LVL73:
 267:.\Generated_Source\PSoC4/I2CM_I2C_MASTER.c **** 
 1136              		.loc 1 267 0
 1137              		@ sp needed
 1138 00b0 201C     		mov	r0, r4
 1139              	.LVL74:
 1140              	.LVL75:
 1141 00b2 FEBD     		pop	{r1, r2, r3, r4, r5, r6, r7, pc}
 1142              	.L117:
 1143              		.align	2
 1144              	.L116:
 1145 00b4 00000000 		.word	I2CM_state
 1146 00b8 64002540 		.word	1076166756
 1147 00bc 00000000 		.word	I2CM_mstrStatus
 1148 00c0 00000000 		.word	I2CM_mstrRdBufIndex
 1149 00c4 00000000 		.word	I2CM_mstrControl
 1150 00c8 00000000 		.word	I2CM_mstrRdBufSize
 1151 00cc 00000000 		.word	I2CM_mstrRdBufPtr
 1152 00d0 000F2540 		.word	1076170496
 1153 00d4 17030000 		.word	791
 1154 00d8 C80F2540 		.word	1076170696
 1155 00dc 60002540 		.word	1076166752
 1156 00e0 40022540 		.word	1076167232
 1157 00e4 68002540 		.word	1076166760
 1158              		.cfi_endproc
 1159              	.LFE3:
 1160              		.size	I2CM_I2CMasterReadBuf, .-I2CM_I2CMasterReadBuf
 1161              		.section	.text.I2CM_I2CMasterSendRestart,"ax",%progbits
 1162              		.align	1
 1163              		.global	I2CM_I2CMasterSendRestart
 1164              		.code	16
 1165              		.thumb_func
 1166              		.type	I2CM_I2CMasterSendRestart, %function
 1167              	I2CM_I2CMasterSendRestart:
 1168              	.LFB5:
 410:.\Generated_Source\PSoC4/I2CM_I2C_MASTER.c ****     uint32 resetIp;
 1169              		.loc 1 410 0
 1170              		.cfi_startproc
 1171              	.LVL76:
 1172 0000 70B5     		push	{r4, r5, r6, lr}
 1173              		.cfi_def_cfa_offset 16
 1174              		.cfi_offset 4, -16
 1175              		.cfi_offset 5, -12
 1176              		.cfi_offset 6, -8
 1177              		.cfi_offset 14, -4
 418:.\Generated_Source\PSoC4/I2CM_I2C_MASTER.c ****     {
 1178              		.loc 1 418 0
ARM GAS  C:\Users\ddemidov\AppData\Local\Temp\ccUDC9zP.s 			page 42


 1179 0002 234C     		ldr	r4, .L134
 415:.\Generated_Source\PSoC4/I2CM_I2C_MASTER.c **** 
 1180              		.loc 1 415 0
 1181 0004 0422     		mov	r2, #4
 418:.\Generated_Source\PSoC4/I2CM_I2C_MASTER.c ****     {
 1182              		.loc 1 418 0
 1183 0006 2378     		ldrb	r3, [r4]
 1184 0008 9B06     		lsl	r3, r3, #26
 1185 000a 3ED5     		bpl	.L119
 420:.\Generated_Source\PSoC4/I2CM_I2C_MASTER.c **** 
 1186              		.loc 1 420 0
 1187 000c FF25     		mov	r5, #255
 1188 000e 4000     		lsl	r0, r0, #1
 1189              	.LVL77:
 1190 0010 0540     		and	r5, r0
 1191              	.LVL78:
 422:.\Generated_Source\PSoC4/I2CM_I2C_MASTER.c ****         {
 1192              		.loc 1 422 0
 1193 0012 0029     		cmp	r1, #0
 1194 0014 02D1     		bne	.L120
 424:.\Generated_Source\PSoC4/I2CM_I2C_MASTER.c ****         }
 1195              		.loc 1 424 0
 1196 0016 2423     		mov	r3, #36
 1197 0018 2370     		strb	r3, [r4]
 1198 001a 03E0     		b	.L121
 1199              	.L120:
 428:.\Generated_Source\PSoC4/I2CM_I2C_MASTER.c ****                       slaveAddress |= I2CM_I2C_READ_FLAG;
 1200              		.loc 1 428 0
 1201 001c 2523     		mov	r3, #37
 1202 001e 2370     		strb	r3, [r4]
 429:.\Generated_Source\PSoC4/I2CM_I2C_MASTER.c ****         }
 1203              		.loc 1 429 0
 1204 0020 243B     		sub	r3, r3, #36
 1205 0022 1D43     		orr	r5, r3
 1206              	.LVL79:
 1207              	.L121:
 435:.\Generated_Source\PSoC4/I2CM_I2C_MASTER.c **** 
 1208              		.loc 1 435 0
 1209 0024 1B4E     		ldr	r6, .L134+4
 1210 0026 1C4B     		ldr	r3, .L134+8
 1211 0028 3360     		str	r3, [r6]
 441:.\Generated_Source\PSoC4/I2CM_I2C_MASTER.c **** 
 1212              		.loc 1 441 0
 1213 002a FFF7FEFF 		bl	I2CM_I2CReStartGeneration
 1214              	.LVL80:
 1215 002e 311C     		mov	r1, r6
 1216              	.L122:
 443:.\Generated_Source\PSoC4/I2CM_I2C_MASTER.c ****         {
 1217              		.loc 1 443 0 discriminator 1
 1218 0030 1A4B     		ldr	r3, .L134+12
 1219 0032 1B68     		ldr	r3, [r3]
 1220 0034 DB07     		lsl	r3, r3, #31
 1221 0036 FBD4     		bmi	.L122
 449:.\Generated_Source\PSoC4/I2CM_I2C_MASTER.c **** 
 1222              		.loc 1 449 0
 1223 0038 194B     		ldr	r3, .L134+16
 1224 003a 1D60     		str	r5, [r3]
ARM GAS  C:\Users\ddemidov\AppData\Local\Temp\ccUDC9zP.s 			page 43


 1225              	.LVL81:
 1226              	.L123:
 1227 003c 0826     		mov	r6, #8
 452:.\Generated_Source\PSoC4/I2CM_I2C_MASTER.c ****                                                   I2CM_INTR_MASTER_I2C_NACK     |
 1228              		.loc 1 452 0 discriminator 1
 1229 003e 0B68     		ldr	r3, [r1]
 1230 0040 FF36     		add	r6, r6, #255
 1231 0042 144D     		ldr	r5, .L134+4
 1232 0044 3342     		tst	r3, r6
 1233 0046 F9D0     		beq	.L123
 461:.\Generated_Source\PSoC4/I2CM_I2C_MASTER.c ****         {
 1234              		.loc 1 461 0
 1235 0048 0423     		mov	r3, #4
 1236 004a 2A68     		ldr	r2, [r5]
 1237 004c 1340     		and	r3, r2
 1238 004e 0DD1     		bne	.L127
 465:.\Generated_Source\PSoC4/I2CM_I2C_MASTER.c ****         {
 1239              		.loc 1 465 0
 1240 0050 0222     		mov	r2, #2
 1241 0052 2868     		ldr	r0, [r5]
 1242 0054 1042     		tst	r0, r2
 1243 0056 0BD1     		bne	.L124
 469:.\Generated_Source\PSoC4/I2CM_I2C_MASTER.c ****         {
 1244              		.loc 1 469 0
 1245 0058 2868     		ldr	r0, [r5]
 1246 005a 0E32     		add	r2, r2, #14
 1247 005c 0133     		add	r3, r3, #1
 471:.\Generated_Source\PSoC4/I2CM_I2C_MASTER.c ****                          errStatus = I2CM_I2C_MSTR_ERR_ARB_LOST;
 1248              		.loc 1 471 0
 1249 005e 2270     		strb	r2, [r4]
 1250              	.LVL82:
 472:.\Generated_Source\PSoC4/I2CM_I2C_MASTER.c ****                          resetIp   = I2CM_I2C_RESET_ERROR;
 1251              		.loc 1 472 0
 1252 0060 1A1C     		mov	r2, r3
 469:.\Generated_Source\PSoC4/I2CM_I2C_MASTER.c ****         {
 1253              		.loc 1 469 0
 1254 0062 1842     		tst	r0, r3
 1255 0064 04D1     		bne	.L124
 1256              	.LVL83:
 478:.\Generated_Source\PSoC4/I2CM_I2C_MASTER.c ****                          resetIp   = I2CM_I2C_RESET_ERROR;
 1257              		.loc 1 478 0
 1258 0066 8022     		mov	r2, #128
 1259 0068 5200     		lsl	r2, r2, #1
 1260 006a 01E0     		b	.L124
 1261              	.LVL84:
 1262              	.L127:
 463:.\Generated_Source\PSoC4/I2CM_I2C_MASTER.c ****         }
 1263              		.loc 1 463 0
 1264 006c 0022     		mov	r2, #0
 414:.\Generated_Source\PSoC4/I2CM_I2C_MASTER.c ****     errStatus = I2CM_I2C_MSTR_NOT_READY;
 1265              		.loc 1 414 0
 1266 006e 131C     		mov	r3, r2
 1267              	.LVL85:
 1268              	.L124:
 482:.\Generated_Source\PSoC4/I2CM_I2C_MASTER.c ****                                                     I2CM_INTR_MASTER_I2C_NACK     |
 1269              		.loc 1 482 0
 1270 0070 0E60     		str	r6, [r1]
ARM GAS  C:\Users\ddemidov\AppData\Local\Temp\ccUDC9zP.s 			page 44


 488:.\Generated_Source\PSoC4/I2CM_I2C_MASTER.c ****         {
 1271              		.loc 1 488 0
 1272 0072 002B     		cmp	r3, #0
 1273 0074 09D0     		beq	.L119
 490:.\Generated_Source\PSoC4/I2CM_I2C_MASTER.c ****         }
 1274              		.loc 1 490 0
 1275 0076 8020     		mov	r0, #128
 1276 0078 0A49     		ldr	r1, .L134+20
 1277 007a 0006     		lsl	r0, r0, #24
 1278 007c 0B68     		ldr	r3, [r1]
 1279 007e 5B00     		lsl	r3, r3, #1
 1280 0080 5B08     		lsr	r3, r3, #1
 1281 0082 0B60     		str	r3, [r1]
 1282 0084 0B68     		ldr	r3, [r1]
 1283 0086 0343     		orr	r3, r0
 1284 0088 0B60     		str	r3, [r1]
 1285              	.LVL86:
 1286              	.L119:
 495:.\Generated_Source\PSoC4/I2CM_I2C_MASTER.c **** 
 1287              		.loc 1 495 0
 1288 008a 101C     		mov	r0, r2
 1289              		@ sp needed
 1290 008c 70BD     		pop	{r4, r5, r6, pc}
 1291              	.L135:
 1292 008e C046     		.align	2
 1293              	.L134:
 1294 0090 00000000 		.word	I2CM_state
 1295 0094 000F2540 		.word	1076170496
 1296 0098 17030000 		.word	791
 1297 009c 68002540 		.word	1076166760
 1298 00a0 40022540 		.word	1076167232
 1299 00a4 00002540 		.word	1076166656
 1300              		.cfi_endproc
 1301              	.LFE5:
 1302              		.size	I2CM_I2CMasterSendRestart, .-I2CM_I2CMasterSendRestart
 1303              		.comm	I2CM_mstrWrBufIndexTmp,4,4
 1304              		.comm	I2CM_mstrWrBufIndex,4,4
 1305              		.comm	I2CM_mstrWrBufSize,4,4
 1306              		.comm	I2CM_mstrWrBufPtr,4,4
 1307              		.comm	I2CM_mstrRdBufIndex,4,4
 1308              		.comm	I2CM_mstrRdBufSize,4,4
 1309              		.comm	I2CM_mstrRdBufPtr,4,4
 1310              		.comm	I2CM_mstrControl,1,1
 1311              		.comm	I2CM_mstrStatus,2,2
 1312              		.text
 1313              	.Letext0:
 1314              		.file 2 "Generated_Source\\PSoC4/cytypes.h"
 1315              		.file 3 ".\\Generated_Source\\PSoC4\\I2CM_I2C_PVT.h"
 1316              		.file 4 "Generated_Source\\PSoC4/CyLib.h"
 1317              		.section	.debug_info,"",%progbits
 1318              	.Ldebug_info0:
 1319 0000 9F050000 		.4byte	0x59f
 1320 0004 0400     		.2byte	0x4
 1321 0006 00000000 		.4byte	.Ldebug_abbrev0
 1322 000a 04       		.byte	0x4
 1323 000b 01       		.uleb128 0x1
 1324 000c 1C000000 		.4byte	.LASF51
ARM GAS  C:\Users\ddemidov\AppData\Local\Temp\ccUDC9zP.s 			page 45


 1325 0010 01       		.byte	0x1
 1326 0011 52020000 		.4byte	.LASF52
 1327 0015 BE000000 		.4byte	.LASF53
 1328 0019 00000000 		.4byte	.Ldebug_ranges0+0
 1329 001d 00000000 		.4byte	0
 1330 0021 00000000 		.4byte	.Ldebug_line0
 1331 0025 02       		.uleb128 0x2
 1332 0026 01       		.byte	0x1
 1333 0027 06       		.byte	0x6
 1334 0028 EA030000 		.4byte	.LASF0
 1335 002c 02       		.uleb128 0x2
 1336 002d 01       		.byte	0x1
 1337 002e 08       		.byte	0x8
 1338 002f FB010000 		.4byte	.LASF1
 1339 0033 02       		.uleb128 0x2
 1340 0034 02       		.byte	0x2
 1341 0035 05       		.byte	0x5
 1342 0036 80030000 		.4byte	.LASF2
 1343 003a 02       		.uleb128 0x2
 1344 003b 02       		.byte	0x2
 1345 003c 07       		.byte	0x7
 1346 003d 07010000 		.4byte	.LASF3
 1347 0041 02       		.uleb128 0x2
 1348 0042 04       		.byte	0x4
 1349 0043 05       		.byte	0x5
 1350 0044 AA030000 		.4byte	.LASF4
 1351 0048 02       		.uleb128 0x2
 1352 0049 04       		.byte	0x4
 1353 004a 07       		.byte	0x7
 1354 004b A5010000 		.4byte	.LASF5
 1355 004f 02       		.uleb128 0x2
 1356 0050 08       		.byte	0x8
 1357 0051 05       		.byte	0x5
 1358 0052 07030000 		.4byte	.LASF6
 1359 0056 02       		.uleb128 0x2
 1360 0057 08       		.byte	0x8
 1361 0058 07       		.byte	0x7
 1362 0059 BA020000 		.4byte	.LASF7
 1363 005d 03       		.uleb128 0x3
 1364 005e 04       		.byte	0x4
 1365 005f 05       		.byte	0x5
 1366 0060 696E7400 		.ascii	"int\000"
 1367 0064 02       		.uleb128 0x2
 1368 0065 04       		.byte	0x4
 1369 0066 07       		.byte	0x7
 1370 0067 92020000 		.4byte	.LASF8
 1371 006b 04       		.uleb128 0x4
 1372 006c D1010000 		.4byte	.LASF9
 1373 0070 02       		.byte	0x2
 1374 0071 3801     		.2byte	0x138
 1375 0073 2C000000 		.4byte	0x2c
 1376 0077 04       		.uleb128 0x4
 1377 0078 7D020000 		.4byte	.LASF10
 1378 007c 02       		.byte	0x2
 1379 007d 3901     		.2byte	0x139
 1380 007f 3A000000 		.4byte	0x3a
 1381 0083 04       		.uleb128 0x4
ARM GAS  C:\Users\ddemidov\AppData\Local\Temp\ccUDC9zP.s 			page 46


 1382 0084 8B020000 		.4byte	.LASF11
 1383 0088 02       		.byte	0x2
 1384 0089 3A01     		.2byte	0x13a
 1385 008b 48000000 		.4byte	0x48
 1386 008f 02       		.uleb128 0x2
 1387 0090 04       		.byte	0x4
 1388 0091 04       		.byte	0x4
 1389 0092 79010000 		.4byte	.LASF12
 1390 0096 02       		.uleb128 0x2
 1391 0097 08       		.byte	0x8
 1392 0098 04       		.byte	0x4
 1393 0099 20020000 		.4byte	.LASF13
 1394 009d 02       		.uleb128 0x2
 1395 009e 01       		.byte	0x1
 1396 009f 08       		.byte	0x8
 1397 00a0 27030000 		.4byte	.LASF14
 1398 00a4 05       		.uleb128 0x5
 1399 00a5 6B000000 		.4byte	0x6b
 1400 00a9 05       		.uleb128 0x5
 1401 00aa 77000000 		.4byte	0x77
 1402 00ae 04       		.uleb128 0x4
 1403 00af 00000000 		.4byte	.LASF15
 1404 00b3 02       		.byte	0x2
 1405 00b4 E401     		.2byte	0x1e4
 1406 00b6 BA000000 		.4byte	0xba
 1407 00ba 05       		.uleb128 0x5
 1408 00bb 83000000 		.4byte	0x83
 1409 00bf 02       		.uleb128 0x2
 1410 00c0 04       		.byte	0x4
 1411 00c1 07       		.byte	0x7
 1412 00c2 FE020000 		.4byte	.LASF16
 1413 00c6 06       		.uleb128 0x6
 1414 00c7 92030000 		.4byte	.LASF21
 1415 00cb 01       		.byte	0x1
 1416 00cc 2401     		.2byte	0x124
 1417 00ce 83000000 		.4byte	0x83
 1418 00d2 00000000 		.4byte	.LFB4
 1419 00d6 B8000000 		.4byte	.LFE4-.LFB4
 1420 00da 01       		.uleb128 0x1
 1421 00db 9C       		.byte	0x9c
 1422 00dc 30010000 		.4byte	0x130
 1423 00e0 07       		.uleb128 0x7
 1424 00e1 F1020000 		.4byte	.LASF17
 1425 00e5 01       		.byte	0x1
 1426 00e6 2401     		.2byte	0x124
 1427 00e8 83000000 		.4byte	0x83
 1428 00ec 00000000 		.4byte	.LLST0
 1429 00f0 07       		.uleb128 0x7
 1430 00f1 3F020000 		.4byte	.LASF18
 1431 00f5 01       		.byte	0x1
 1432 00f6 2401     		.2byte	0x124
 1433 00f8 83000000 		.4byte	0x83
 1434 00fc 34000000 		.4byte	.LLST1
 1435 0100 08       		.uleb128 0x8
 1436 0101 61010000 		.4byte	.LASF19
 1437 0105 01       		.byte	0x1
 1438 0106 2601     		.2byte	0x126
ARM GAS  C:\Users\ddemidov\AppData\Local\Temp\ccUDC9zP.s 			page 47


 1439 0108 83000000 		.4byte	0x83
 1440 010c 60000000 		.4byte	.LLST2
 1441 0110 08       		.uleb128 0x8
 1442 0111 F1010000 		.4byte	.LASF20
 1443 0115 01       		.byte	0x1
 1444 0116 2701     		.2byte	0x127
 1445 0118 83000000 		.4byte	0x83
 1446 011c 8C000000 		.4byte	.LLST3
 1447 0120 09       		.uleb128 0x9
 1448 0121 22000000 		.4byte	.LVL2
 1449 0125 84050000 		.4byte	0x584
 1450 0129 0A       		.uleb128 0xa
 1451 012a 01       		.uleb128 0x1
 1452 012b 50       		.byte	0x50
 1453 012c 01       		.uleb128 0x1
 1454 012d 3A       		.byte	0x3a
 1455 012e 00       		.byte	0
 1456 012f 00       		.byte	0
 1457 0130 06       		.uleb128 0x6
 1458 0131 38010000 		.4byte	.LASF22
 1459 0135 01       		.byte	0x1
 1460 0136 0D02     		.2byte	0x20d
 1461 0138 83000000 		.4byte	0x83
 1462 013c 00000000 		.4byte	.LFB6
 1463 0140 7C000000 		.4byte	.LFE6-.LFB6
 1464 0144 01       		.uleb128 0x1
 1465 0145 9C       		.byte	0x9c
 1466 0146 6B010000 		.4byte	0x16b
 1467 014a 08       		.uleb128 0x8
 1468 014b 61010000 		.4byte	.LASF19
 1469 014f 01       		.byte	0x1
 1470 0150 0F02     		.2byte	0x20f
 1471 0152 83000000 		.4byte	0x83
 1472 0156 C5000000 		.4byte	.LLST4
 1473 015a 08       		.uleb128 0x8
 1474 015b F1010000 		.4byte	.LASF20
 1475 015f 01       		.byte	0x1
 1476 0160 1002     		.2byte	0x210
 1477 0162 83000000 		.4byte	0x83
 1478 0166 E5000000 		.4byte	.LLST5
 1479 016a 00       		.byte	0
 1480 016b 06       		.uleb128 0x6
 1481 016c 27020000 		.4byte	.LASF23
 1482 0170 01       		.byte	0x1
 1483 0171 5E02     		.2byte	0x25e
 1484 0173 83000000 		.4byte	0x83
 1485 0177 00000000 		.4byte	.LFB7
 1486 017b 7C000000 		.4byte	.LFE7-.LFB7
 1487 017f 01       		.uleb128 0x1
 1488 0180 9C       		.byte	0x9c
 1489 0181 B6010000 		.4byte	0x1b6
 1490 0185 07       		.uleb128 0x7
 1491 0186 8A030000 		.4byte	.LASF24
 1492 018a 01       		.byte	0x1
 1493 018b 5E02     		.2byte	0x25e
 1494 018d 83000000 		.4byte	0x83
 1495 0191 04010000 		.4byte	.LLST6
ARM GAS  C:\Users\ddemidov\AppData\Local\Temp\ccUDC9zP.s 			page 48


 1496 0195 08       		.uleb128 0x8
 1497 0196 61010000 		.4byte	.LASF19
 1498 019a 01       		.byte	0x1
 1499 019b 6002     		.2byte	0x260
 1500 019d 83000000 		.4byte	0x83
 1501 01a1 79010000 		.4byte	.LLST7
 1502 01a5 08       		.uleb128 0x8
 1503 01a6 F1010000 		.4byte	.LASF20
 1504 01aa 01       		.byte	0x1
 1505 01ab 6102     		.2byte	0x261
 1506 01ad 83000000 		.4byte	0x83
 1507 01b1 99010000 		.4byte	.LLST8
 1508 01b5 00       		.byte	0
 1509 01b6 06       		.uleb128 0x6
 1510 01b7 F6030000 		.4byte	.LASF25
 1511 01bb 01       		.byte	0x1
 1512 01bc B702     		.2byte	0x2b7
 1513 01be 83000000 		.4byte	0x83
 1514 01c2 00000000 		.4byte	.LFB8
 1515 01c6 80000000 		.4byte	.LFE8-.LFB8
 1516 01ca 01       		.uleb128 0x1
 1517 01cb 9C       		.byte	0x9c
 1518 01cc F1010000 		.4byte	0x1f1
 1519 01d0 07       		.uleb128 0x7
 1520 01d1 E9010000 		.4byte	.LASF26
 1521 01d5 01       		.byte	0x1
 1522 01d6 B702     		.2byte	0x2b7
 1523 01d8 83000000 		.4byte	0x83
 1524 01dc F6010000 		.4byte	.LLST9
 1525 01e0 08       		.uleb128 0x8
 1526 01e1 8A030000 		.4byte	.LASF24
 1527 01e5 01       		.byte	0x1
 1528 01e6 B902     		.2byte	0x2b9
 1529 01e8 83000000 		.4byte	0x83
 1530 01ec 17020000 		.4byte	.LLST10
 1531 01f0 00       		.byte	0
 1532 01f1 0B       		.uleb128 0xb
 1533 01f2 B3030000 		.4byte	.LASF27
 1534 01f6 01       		.byte	0x1
 1535 01f7 FE02     		.2byte	0x2fe
 1536 01f9 83000000 		.4byte	0x83
 1537 01fd 00000000 		.4byte	.LFB9
 1538 0201 0C000000 		.4byte	.LFE9-.LFB9
 1539 0205 01       		.uleb128 0x1
 1540 0206 9C       		.byte	0x9c
 1541 0207 0B       		.uleb128 0xb
 1542 0208 1A010000 		.4byte	.LASF28
 1543 020c 01       		.byte	0x1
 1544 020d 1C03     		.2byte	0x31c
 1545 020f 83000000 		.4byte	0x83
 1546 0213 00000000 		.4byte	.LFB10
 1547 0217 0C000000 		.4byte	.LFE10-.LFB10
 1548 021b 01       		.uleb128 0x1
 1549 021c 9C       		.byte	0x9c
 1550 021d 0C       		.uleb128 0xc
 1551 021e D1020000 		.4byte	.LASF29
 1552 0222 01       		.byte	0x1
ARM GAS  C:\Users\ddemidov\AppData\Local\Temp\ccUDC9zP.s 			page 49


 1553 0223 3503     		.2byte	0x335
 1554 0225 00000000 		.4byte	.LFB11
 1555 0229 28000000 		.4byte	.LFE11-.LFB11
 1556 022d 01       		.uleb128 0x1
 1557 022e 9C       		.byte	0x9c
 1558 022f 56020000 		.4byte	0x256
 1559 0233 0D       		.uleb128 0xd
 1560 0234 08000000 		.4byte	.LVL30
 1561 0238 84050000 		.4byte	0x584
 1562 023c 46020000 		.4byte	0x246
 1563 0240 0A       		.uleb128 0xa
 1564 0241 01       		.uleb128 0x1
 1565 0242 50       		.byte	0x50
 1566 0243 01       		.uleb128 0x1
 1567 0244 3A       		.byte	0x3a
 1568 0245 00       		.byte	0
 1569 0246 09       		.uleb128 0x9
 1570 0247 1E000000 		.4byte	.LVL31
 1571 024b 95050000 		.4byte	0x595
 1572 024f 0A       		.uleb128 0xa
 1573 0250 01       		.uleb128 0x1
 1574 0251 50       		.byte	0x50
 1575 0252 01       		.uleb128 0x1
 1576 0253 3A       		.byte	0x3a
 1577 0254 00       		.byte	0
 1578 0255 00       		.byte	0
 1579 0256 0C       		.uleb128 0xc
 1580 0257 2C030000 		.4byte	.LASF30
 1581 025b 01       		.byte	0x1
 1582 025c 5303     		.2byte	0x353
 1583 025e 00000000 		.4byte	.LFB12
 1584 0262 28000000 		.4byte	.LFE12-.LFB12
 1585 0266 01       		.uleb128 0x1
 1586 0267 9C       		.byte	0x9c
 1587 0268 8F020000 		.4byte	0x28f
 1588 026c 0D       		.uleb128 0xd
 1589 026d 08000000 		.4byte	.LVL32
 1590 0271 84050000 		.4byte	0x584
 1591 0275 7F020000 		.4byte	0x27f
 1592 0279 0A       		.uleb128 0xa
 1593 027a 01       		.uleb128 0x1
 1594 027b 50       		.byte	0x50
 1595 027c 01       		.uleb128 0x1
 1596 027d 3A       		.byte	0x3a
 1597 027e 00       		.byte	0
 1598 027f 09       		.uleb128 0x9
 1599 0280 1E000000 		.4byte	.LVL33
 1600 0284 95050000 		.4byte	0x595
 1601 0288 0A       		.uleb128 0xa
 1602 0289 01       		.uleb128 0x1
 1603 028a 50       		.byte	0x50
 1604 028b 01       		.uleb128 0x1
 1605 028c 3A       		.byte	0x3a
 1606 028d 00       		.byte	0
 1607 028e 00       		.byte	0
 1608 028f 06       		.uleb128 0x6
 1609 0290 0D040000 		.4byte	.LASF31
ARM GAS  C:\Users\ddemidov\AppData\Local\Temp\ccUDC9zP.s 			page 50


 1610 0294 01       		.byte	0x1
 1611 0295 6F03     		.2byte	0x36f
 1612 0297 83000000 		.4byte	0x83
 1613 029b 00000000 		.4byte	.LFB13
 1614 029f 2C000000 		.4byte	.LFE13-.LFB13
 1615 02a3 01       		.uleb128 0x1
 1616 02a4 9C       		.byte	0x9c
 1617 02a5 DC020000 		.4byte	0x2dc
 1618 02a9 08       		.uleb128 0x8
 1619 02aa 5A010000 		.4byte	.LASF32
 1620 02ae 01       		.byte	0x1
 1621 02af 7103     		.2byte	0x371
 1622 02b1 83000000 		.4byte	0x83
 1623 02b5 4F020000 		.4byte	.LLST11
 1624 02b9 0D       		.uleb128 0xd
 1625 02ba 08000000 		.4byte	.LVL34
 1626 02be 84050000 		.4byte	0x584
 1627 02c2 CC020000 		.4byte	0x2cc
 1628 02c6 0A       		.uleb128 0xa
 1629 02c7 01       		.uleb128 0x1
 1630 02c8 50       		.byte	0x50
 1631 02c9 01       		.uleb128 0x1
 1632 02ca 3A       		.byte	0x3a
 1633 02cb 00       		.byte	0
 1634 02cc 09       		.uleb128 0x9
 1635 02cd 20000000 		.4byte	.LVL37
 1636 02d1 95050000 		.4byte	0x595
 1637 02d5 0A       		.uleb128 0xa
 1638 02d6 01       		.uleb128 0x1
 1639 02d7 50       		.byte	0x50
 1640 02d8 01       		.uleb128 0x1
 1641 02d9 3A       		.byte	0x3a
 1642 02da 00       		.byte	0
 1643 02db 00       		.byte	0
 1644 02dc 06       		.uleb128 0x6
 1645 02dd 66030000 		.4byte	.LASF33
 1646 02e1 01       		.byte	0x1
 1647 02e2 9403     		.2byte	0x394
 1648 02e4 83000000 		.4byte	0x83
 1649 02e8 00000000 		.4byte	.LFB14
 1650 02ec 20000000 		.4byte	.LFE14-.LFB14
 1651 02f0 01       		.uleb128 0x1
 1652 02f1 9C       		.byte	0x9c
 1653 02f2 29030000 		.4byte	0x329
 1654 02f6 08       		.uleb128 0x8
 1655 02f7 5A010000 		.4byte	.LASF32
 1656 02fb 01       		.byte	0x1
 1657 02fc 9603     		.2byte	0x396
 1658 02fe 83000000 		.4byte	0x83
 1659 0302 7E020000 		.4byte	.LLST12
 1660 0306 0D       		.uleb128 0xd
 1661 0307 08000000 		.4byte	.LVL39
 1662 030b 84050000 		.4byte	0x584
 1663 030f 19030000 		.4byte	0x319
 1664 0313 0A       		.uleb128 0xa
 1665 0314 01       		.uleb128 0x1
 1666 0315 50       		.byte	0x50
ARM GAS  C:\Users\ddemidov\AppData\Local\Temp\ccUDC9zP.s 			page 51


 1667 0316 01       		.uleb128 0x1
 1668 0317 3A       		.byte	0x3a
 1669 0318 00       		.byte	0
 1670 0319 09       		.uleb128 0x9
 1671 031a 18000000 		.4byte	.LVL41
 1672 031e 95050000 		.4byte	0x595
 1673 0322 0A       		.uleb128 0xa
 1674 0323 01       		.uleb128 0x1
 1675 0324 50       		.byte	0x50
 1676 0325 01       		.uleb128 0x1
 1677 0326 3A       		.byte	0x3a
 1678 0327 00       		.byte	0
 1679 0328 00       		.byte	0
 1680 0329 0C       		.uleb128 0xc
 1681 032a D0030000 		.4byte	.LASF34
 1682 032e 01       		.byte	0x1
 1683 032f C703     		.2byte	0x3c7
 1684 0331 00000000 		.4byte	.LFB15
 1685 0335 20000000 		.4byte	.LFE15-.LFB15
 1686 0339 01       		.uleb128 0x1
 1687 033a 9C       		.byte	0x9c
 1688 033b 50030000 		.4byte	0x350
 1689 033f 0E       		.uleb128 0xe
 1690 0340 636D6400 		.ascii	"cmd\000"
 1691 0344 01       		.byte	0x1
 1692 0345 FA03     		.2byte	0x3fa
 1693 0347 83000000 		.4byte	0x83
 1694 034b A8020000 		.4byte	.LLST13
 1695 034f 00       		.byte	0
 1696 0350 0F       		.uleb128 0xf
 1697 0351 09020000 		.4byte	.LASF35
 1698 0355 01       		.byte	0x1
 1699 0356 50       		.byte	0x50
 1700 0357 83000000 		.4byte	0x83
 1701 035b 00000000 		.4byte	.LFB2
 1702 035f DC000000 		.4byte	.LFE2-.LFB2
 1703 0363 01       		.uleb128 0x1
 1704 0364 9C       		.byte	0x9c
 1705 0365 E0030000 		.4byte	0x3e0
 1706 0369 10       		.uleb128 0x10
 1707 036a F1020000 		.4byte	.LASF17
 1708 036e 01       		.byte	0x1
 1709 036f 50       		.byte	0x50
 1710 0370 83000000 		.4byte	0x83
 1711 0374 C7020000 		.4byte	.LLST14
 1712 0378 10       		.uleb128 0x10
 1713 0379 B3020000 		.4byte	.LASF36
 1714 037d 01       		.byte	0x1
 1715 037e 50       		.byte	0x50
 1716 037f E0030000 		.4byte	0x3e0
 1717 0383 14030000 		.4byte	.LLST15
 1718 0387 11       		.uleb128 0x11
 1719 0388 636E7400 		.ascii	"cnt\000"
 1720 038c 01       		.byte	0x1
 1721 038d 50       		.byte	0x50
 1722 038e 83000000 		.4byte	0x83
 1723 0392 65030000 		.4byte	.LLST16
ARM GAS  C:\Users\ddemidov\AppData\Local\Temp\ccUDC9zP.s 			page 52


 1724 0396 10       		.uleb128 0x10
 1725 0397 EC020000 		.4byte	.LASF37
 1726 039b 01       		.byte	0x1
 1727 039c 50       		.byte	0x50
 1728 039d 83000000 		.4byte	0x83
 1729 03a1 9B030000 		.4byte	.LLST17
 1730 03a5 12       		.uleb128 0x12
 1731 03a6 F1010000 		.4byte	.LASF20
 1732 03aa 01       		.byte	0x1
 1733 03ab 52       		.byte	0x52
 1734 03ac 83000000 		.4byte	0x83
 1735 03b0 BA030000 		.4byte	.LLST18
 1736 03b4 0D       		.uleb128 0xd
 1737 03b5 1E000000 		.4byte	.LVL48
 1738 03b9 84050000 		.4byte	0x584
 1739 03bd C7030000 		.4byte	0x3c7
 1740 03c1 0A       		.uleb128 0xa
 1741 03c2 01       		.uleb128 0x1
 1742 03c3 50       		.byte	0x50
 1743 03c4 01       		.uleb128 0x1
 1744 03c5 3A       		.byte	0x3a
 1745 03c6 00       		.byte	0
 1746 03c7 13       		.uleb128 0x13
 1747 03c8 8E000000 		.4byte	.LVL57
 1748 03cc 29030000 		.4byte	0x329
 1749 03d0 09       		.uleb128 0x9
 1750 03d1 A0000000 		.4byte	.LVL59
 1751 03d5 95050000 		.4byte	0x595
 1752 03d9 0A       		.uleb128 0xa
 1753 03da 01       		.uleb128 0x1
 1754 03db 50       		.byte	0x50
 1755 03dc 01       		.uleb128 0x1
 1756 03dd 3A       		.byte	0x3a
 1757 03de 00       		.byte	0
 1758 03df 00       		.byte	0
 1759 03e0 14       		.uleb128 0x14
 1760 03e1 04       		.byte	0x4
 1761 03e2 6B000000 		.4byte	0x6b
 1762 03e6 0F       		.uleb128 0xf
 1763 03e7 06000000 		.4byte	.LASF38
 1764 03eb 01       		.byte	0x1
 1765 03ec BB       		.byte	0xbb
 1766 03ed 83000000 		.4byte	0x83
 1767 03f1 00000000 		.4byte	.LFB3
 1768 03f5 E8000000 		.4byte	.LFE3-.LFB3
 1769 03f9 01       		.uleb128 0x1
 1770 03fa 9C       		.byte	0x9c
 1771 03fb 76040000 		.4byte	0x476
 1772 03ff 10       		.uleb128 0x10
 1773 0400 F1020000 		.4byte	.LASF17
 1774 0404 01       		.byte	0x1
 1775 0405 BB       		.byte	0xbb
 1776 0406 83000000 		.4byte	0x83
 1777 040a DA030000 		.4byte	.LLST19
 1778 040e 10       		.uleb128 0x10
 1779 040f 84020000 		.4byte	.LASF39
 1780 0413 01       		.byte	0x1
ARM GAS  C:\Users\ddemidov\AppData\Local\Temp\ccUDC9zP.s 			page 53


 1781 0414 BB       		.byte	0xbb
 1782 0415 E0030000 		.4byte	0x3e0
 1783 0419 27040000 		.4byte	.LLST20
 1784 041d 11       		.uleb128 0x11
 1785 041e 636E7400 		.ascii	"cnt\000"
 1786 0422 01       		.byte	0x1
 1787 0423 BB       		.byte	0xbb
 1788 0424 83000000 		.4byte	0x83
 1789 0428 69040000 		.4byte	.LLST21
 1790 042c 10       		.uleb128 0x10
 1791 042d EC020000 		.4byte	.LASF37
 1792 0431 01       		.byte	0x1
 1793 0432 BB       		.byte	0xbb
 1794 0433 83000000 		.4byte	0x83
 1795 0437 9F040000 		.4byte	.LLST22
 1796 043b 12       		.uleb128 0x12
 1797 043c F1010000 		.4byte	.LASF20
 1798 0440 01       		.byte	0x1
 1799 0441 BD       		.byte	0xbd
 1800 0442 83000000 		.4byte	0x83
 1801 0446 BE040000 		.4byte	.LLST23
 1802 044a 0D       		.uleb128 0xd
 1803 044b 1E000000 		.4byte	.LVL64
 1804 044f 84050000 		.4byte	0x584
 1805 0453 5D040000 		.4byte	0x45d
 1806 0457 0A       		.uleb128 0xa
 1807 0458 01       		.uleb128 0x1
 1808 0459 50       		.byte	0x50
 1809 045a 01       		.uleb128 0x1
 1810 045b 3A       		.byte	0x3a
 1811 045c 00       		.byte	0
 1812 045d 13       		.uleb128 0x13
 1813 045e 9C000000 		.4byte	.LVL71
 1814 0462 29030000 		.4byte	0x329
 1815 0466 09       		.uleb128 0x9
 1816 0467 B0000000 		.4byte	.LVL73
 1817 046b 95050000 		.4byte	0x595
 1818 046f 0A       		.uleb128 0xa
 1819 0470 01       		.uleb128 0x1
 1820 0471 50       		.byte	0x50
 1821 0472 01       		.uleb128 0x1
 1822 0473 3A       		.byte	0x3a
 1823 0474 00       		.byte	0
 1824 0475 00       		.byte	0
 1825 0476 06       		.uleb128 0x6
 1826 0477 B7010000 		.4byte	.LASF40
 1827 047b 01       		.byte	0x1
 1828 047c 9901     		.2byte	0x199
 1829 047e 83000000 		.4byte	0x83
 1830 0482 00000000 		.4byte	.LFB5
 1831 0486 A8000000 		.4byte	.LFE5-.LFB5
 1832 048a 01       		.uleb128 0x1
 1833 048b 9C       		.byte	0x9c
 1834 048c DA040000 		.4byte	0x4da
 1835 0490 07       		.uleb128 0x7
 1836 0491 F1020000 		.4byte	.LASF17
 1837 0495 01       		.byte	0x1
ARM GAS  C:\Users\ddemidov\AppData\Local\Temp\ccUDC9zP.s 			page 54


 1838 0496 9901     		.2byte	0x199
 1839 0498 83000000 		.4byte	0x83
 1840 049c DE040000 		.4byte	.LLST24
 1841 04a0 07       		.uleb128 0x7
 1842 04a1 3F020000 		.4byte	.LASF18
 1843 04a5 01       		.byte	0x1
 1844 04a6 9901     		.2byte	0x199
 1845 04a8 83000000 		.4byte	0x83
 1846 04ac 28050000 		.4byte	.LLST25
 1847 04b0 08       		.uleb128 0x8
 1848 04b1 61010000 		.4byte	.LASF19
 1849 04b5 01       		.byte	0x1
 1850 04b6 9B01     		.2byte	0x19b
 1851 04b8 83000000 		.4byte	0x83
 1852 04bc 49050000 		.4byte	.LLST26
 1853 04c0 08       		.uleb128 0x8
 1854 04c1 F1010000 		.4byte	.LASF20
 1855 04c5 01       		.byte	0x1
 1856 04c6 9C01     		.2byte	0x19c
 1857 04c8 83000000 		.4byte	0x83
 1858 04cc 75050000 		.4byte	.LLST27
 1859 04d0 13       		.uleb128 0x13
 1860 04d1 2E000000 		.4byte	.LVL80
 1861 04d5 29030000 		.4byte	0x329
 1862 04d9 00       		.byte	0
 1863 04da 15       		.uleb128 0x15
 1864 04db 4F010000 		.4byte	.LASF41
 1865 04df 03       		.byte	0x3
 1866 04e0 1D       		.byte	0x1d
 1867 04e1 A4000000 		.4byte	0xa4
 1868 04e5 16       		.uleb128 0x16
 1869 04e6 69010000 		.4byte	.LASF42
 1870 04ea 01       		.byte	0x1
 1871 04eb 1C       		.byte	0x1c
 1872 04ec A9000000 		.4byte	0xa9
 1873 04f0 05       		.uleb128 0x5
 1874 04f1 03       		.byte	0x3
 1875 04f2 00000000 		.4byte	I2CM_mstrStatus
 1876 04f6 16       		.uleb128 0x16
 1877 04f7 48030000 		.4byte	.LASF43
 1878 04fb 01       		.byte	0x1
 1879 04fc 1D       		.byte	0x1d
 1880 04fd A4000000 		.4byte	0xa4
 1881 0501 05       		.uleb128 0x5
 1882 0502 03       		.byte	0x3
 1883 0503 00000000 		.4byte	I2CM_mstrControl
 1884 0507 16       		.uleb128 0x16
 1885 0508 D7010000 		.4byte	.LASF44
 1886 050c 01       		.byte	0x1
 1887 050d 20       		.byte	0x20
 1888 050e 18050000 		.4byte	0x518
 1889 0512 05       		.uleb128 0x5
 1890 0513 03       		.byte	0x3
 1891 0514 00000000 		.4byte	I2CM_mstrRdBufPtr
 1892 0518 14       		.uleb128 0x14
 1893 0519 04       		.byte	0x4
 1894 051a A4000000 		.4byte	0xa4
ARM GAS  C:\Users\ddemidov\AppData\Local\Temp\ccUDC9zP.s 			page 55


 1895 051e 16       		.uleb128 0x16
 1896 051f 92010000 		.4byte	.LASF45
 1897 0523 01       		.byte	0x1
 1898 0524 21       		.byte	0x21
 1899 0525 BA000000 		.4byte	0xba
 1900 0529 05       		.uleb128 0x5
 1901 052a 03       		.byte	0x3
 1902 052b 00000000 		.4byte	I2CM_mstrRdBufSize
 1903 052f 16       		.uleb128 0x16
 1904 0530 AA000000 		.4byte	.LASF46
 1905 0534 01       		.byte	0x1
 1906 0535 22       		.byte	0x22
 1907 0536 BA000000 		.4byte	0xba
 1908 053a 05       		.uleb128 0x5
 1909 053b 03       		.byte	0x3
 1910 053c 00000000 		.4byte	I2CM_mstrRdBufIndex
 1911 0540 16       		.uleb128 0x16
 1912 0541 15030000 		.4byte	.LASF47
 1913 0545 01       		.byte	0x1
 1914 0546 25       		.byte	0x25
 1915 0547 18050000 		.4byte	0x518
 1916 054b 05       		.uleb128 0x5
 1917 054c 03       		.byte	0x3
 1918 054d 00000000 		.4byte	I2CM_mstrWrBufPtr
 1919 0551 16       		.uleb128 0x16
 1920 0552 7F010000 		.4byte	.LASF48
 1921 0556 01       		.byte	0x1
 1922 0557 26       		.byte	0x26
 1923 0558 BA000000 		.4byte	0xba
 1924 055c 05       		.uleb128 0x5
 1925 055d 03       		.byte	0x3
 1926 055e 00000000 		.4byte	I2CM_mstrWrBufSize
 1927 0562 16       		.uleb128 0x16
 1928 0563 9F020000 		.4byte	.LASF49
 1929 0567 01       		.byte	0x1
 1930 0568 27       		.byte	0x27
 1931 0569 BA000000 		.4byte	0xba
 1932 056d 05       		.uleb128 0x5
 1933 056e 03       		.byte	0x3
 1934 056f 00000000 		.4byte	I2CM_mstrWrBufIndex
 1935 0573 16       		.uleb128 0x16
 1936 0574 22040000 		.4byte	.LASF50
 1937 0578 01       		.byte	0x1
 1938 0579 28       		.byte	0x28
 1939 057a BA000000 		.4byte	0xba
 1940 057e 05       		.uleb128 0x5
 1941 057f 03       		.byte	0x3
 1942 0580 00000000 		.4byte	I2CM_mstrWrBufIndexTmp
 1943 0584 17       		.uleb128 0x17
 1944 0585 59030000 		.4byte	.LASF54
 1945 0589 04       		.byte	0x4
 1946 058a 51       		.byte	0x51
 1947 058b 95050000 		.4byte	0x595
 1948 058f 18       		.uleb128 0x18
 1949 0590 6B000000 		.4byte	0x6b
 1950 0594 00       		.byte	0
 1951 0595 19       		.uleb128 0x19
ARM GAS  C:\Users\ddemidov\AppData\Local\Temp\ccUDC9zP.s 			page 56


 1952 0596 46020000 		.4byte	.LASF55
 1953 059a 04       		.byte	0x4
 1954 059b 4F       		.byte	0x4f
 1955 059c 18       		.uleb128 0x18
 1956 059d 6B000000 		.4byte	0x6b
 1957 05a1 00       		.byte	0
 1958 05a2 00       		.byte	0
 1959              		.section	.debug_abbrev,"",%progbits
 1960              	.Ldebug_abbrev0:
 1961 0000 01       		.uleb128 0x1
 1962 0001 11       		.uleb128 0x11
 1963 0002 01       		.byte	0x1
 1964 0003 25       		.uleb128 0x25
 1965 0004 0E       		.uleb128 0xe
 1966 0005 13       		.uleb128 0x13
 1967 0006 0B       		.uleb128 0xb
 1968 0007 03       		.uleb128 0x3
 1969 0008 0E       		.uleb128 0xe
 1970 0009 1B       		.uleb128 0x1b
 1971 000a 0E       		.uleb128 0xe
 1972 000b 55       		.uleb128 0x55
 1973 000c 17       		.uleb128 0x17
 1974 000d 11       		.uleb128 0x11
 1975 000e 01       		.uleb128 0x1
 1976 000f 10       		.uleb128 0x10
 1977 0010 17       		.uleb128 0x17
 1978 0011 00       		.byte	0
 1979 0012 00       		.byte	0
 1980 0013 02       		.uleb128 0x2
 1981 0014 24       		.uleb128 0x24
 1982 0015 00       		.byte	0
 1983 0016 0B       		.uleb128 0xb
 1984 0017 0B       		.uleb128 0xb
 1985 0018 3E       		.uleb128 0x3e
 1986 0019 0B       		.uleb128 0xb
 1987 001a 03       		.uleb128 0x3
 1988 001b 0E       		.uleb128 0xe
 1989 001c 00       		.byte	0
 1990 001d 00       		.byte	0
 1991 001e 03       		.uleb128 0x3
 1992 001f 24       		.uleb128 0x24
 1993 0020 00       		.byte	0
 1994 0021 0B       		.uleb128 0xb
 1995 0022 0B       		.uleb128 0xb
 1996 0023 3E       		.uleb128 0x3e
 1997 0024 0B       		.uleb128 0xb
 1998 0025 03       		.uleb128 0x3
 1999 0026 08       		.uleb128 0x8
 2000 0027 00       		.byte	0
 2001 0028 00       		.byte	0
 2002 0029 04       		.uleb128 0x4
 2003 002a 16       		.uleb128 0x16
 2004 002b 00       		.byte	0
 2005 002c 03       		.uleb128 0x3
 2006 002d 0E       		.uleb128 0xe
 2007 002e 3A       		.uleb128 0x3a
 2008 002f 0B       		.uleb128 0xb
ARM GAS  C:\Users\ddemidov\AppData\Local\Temp\ccUDC9zP.s 			page 57


 2009 0030 3B       		.uleb128 0x3b
 2010 0031 05       		.uleb128 0x5
 2011 0032 49       		.uleb128 0x49
 2012 0033 13       		.uleb128 0x13
 2013 0034 00       		.byte	0
 2014 0035 00       		.byte	0
 2015 0036 05       		.uleb128 0x5
 2016 0037 35       		.uleb128 0x35
 2017 0038 00       		.byte	0
 2018 0039 49       		.uleb128 0x49
 2019 003a 13       		.uleb128 0x13
 2020 003b 00       		.byte	0
 2021 003c 00       		.byte	0
 2022 003d 06       		.uleb128 0x6
 2023 003e 2E       		.uleb128 0x2e
 2024 003f 01       		.byte	0x1
 2025 0040 3F       		.uleb128 0x3f
 2026 0041 19       		.uleb128 0x19
 2027 0042 03       		.uleb128 0x3
 2028 0043 0E       		.uleb128 0xe
 2029 0044 3A       		.uleb128 0x3a
 2030 0045 0B       		.uleb128 0xb
 2031 0046 3B       		.uleb128 0x3b
 2032 0047 05       		.uleb128 0x5
 2033 0048 27       		.uleb128 0x27
 2034 0049 19       		.uleb128 0x19
 2035 004a 49       		.uleb128 0x49
 2036 004b 13       		.uleb128 0x13
 2037 004c 11       		.uleb128 0x11
 2038 004d 01       		.uleb128 0x1
 2039 004e 12       		.uleb128 0x12
 2040 004f 06       		.uleb128 0x6
 2041 0050 40       		.uleb128 0x40
 2042 0051 18       		.uleb128 0x18
 2043 0052 9742     		.uleb128 0x2117
 2044 0054 19       		.uleb128 0x19
 2045 0055 01       		.uleb128 0x1
 2046 0056 13       		.uleb128 0x13
 2047 0057 00       		.byte	0
 2048 0058 00       		.byte	0
 2049 0059 07       		.uleb128 0x7
 2050 005a 05       		.uleb128 0x5
 2051 005b 00       		.byte	0
 2052 005c 03       		.uleb128 0x3
 2053 005d 0E       		.uleb128 0xe
 2054 005e 3A       		.uleb128 0x3a
 2055 005f 0B       		.uleb128 0xb
 2056 0060 3B       		.uleb128 0x3b
 2057 0061 05       		.uleb128 0x5
 2058 0062 49       		.uleb128 0x49
 2059 0063 13       		.uleb128 0x13
 2060 0064 02       		.uleb128 0x2
 2061 0065 17       		.uleb128 0x17
 2062 0066 00       		.byte	0
 2063 0067 00       		.byte	0
 2064 0068 08       		.uleb128 0x8
 2065 0069 34       		.uleb128 0x34
ARM GAS  C:\Users\ddemidov\AppData\Local\Temp\ccUDC9zP.s 			page 58


 2066 006a 00       		.byte	0
 2067 006b 03       		.uleb128 0x3
 2068 006c 0E       		.uleb128 0xe
 2069 006d 3A       		.uleb128 0x3a
 2070 006e 0B       		.uleb128 0xb
 2071 006f 3B       		.uleb128 0x3b
 2072 0070 05       		.uleb128 0x5
 2073 0071 49       		.uleb128 0x49
 2074 0072 13       		.uleb128 0x13
 2075 0073 02       		.uleb128 0x2
 2076 0074 17       		.uleb128 0x17
 2077 0075 00       		.byte	0
 2078 0076 00       		.byte	0
 2079 0077 09       		.uleb128 0x9
 2080 0078 898201   		.uleb128 0x4109
 2081 007b 01       		.byte	0x1
 2082 007c 11       		.uleb128 0x11
 2083 007d 01       		.uleb128 0x1
 2084 007e 31       		.uleb128 0x31
 2085 007f 13       		.uleb128 0x13
 2086 0080 00       		.byte	0
 2087 0081 00       		.byte	0
 2088 0082 0A       		.uleb128 0xa
 2089 0083 8A8201   		.uleb128 0x410a
 2090 0086 00       		.byte	0
 2091 0087 02       		.uleb128 0x2
 2092 0088 18       		.uleb128 0x18
 2093 0089 9142     		.uleb128 0x2111
 2094 008b 18       		.uleb128 0x18
 2095 008c 00       		.byte	0
 2096 008d 00       		.byte	0
 2097 008e 0B       		.uleb128 0xb
 2098 008f 2E       		.uleb128 0x2e
 2099 0090 00       		.byte	0
 2100 0091 3F       		.uleb128 0x3f
 2101 0092 19       		.uleb128 0x19
 2102 0093 03       		.uleb128 0x3
 2103 0094 0E       		.uleb128 0xe
 2104 0095 3A       		.uleb128 0x3a
 2105 0096 0B       		.uleb128 0xb
 2106 0097 3B       		.uleb128 0x3b
 2107 0098 05       		.uleb128 0x5
 2108 0099 27       		.uleb128 0x27
 2109 009a 19       		.uleb128 0x19
 2110 009b 49       		.uleb128 0x49
 2111 009c 13       		.uleb128 0x13
 2112 009d 11       		.uleb128 0x11
 2113 009e 01       		.uleb128 0x1
 2114 009f 12       		.uleb128 0x12
 2115 00a0 06       		.uleb128 0x6
 2116 00a1 40       		.uleb128 0x40
 2117 00a2 18       		.uleb128 0x18
 2118 00a3 9742     		.uleb128 0x2117
 2119 00a5 19       		.uleb128 0x19
 2120 00a6 00       		.byte	0
 2121 00a7 00       		.byte	0
 2122 00a8 0C       		.uleb128 0xc
ARM GAS  C:\Users\ddemidov\AppData\Local\Temp\ccUDC9zP.s 			page 59


 2123 00a9 2E       		.uleb128 0x2e
 2124 00aa 01       		.byte	0x1
 2125 00ab 3F       		.uleb128 0x3f
 2126 00ac 19       		.uleb128 0x19
 2127 00ad 03       		.uleb128 0x3
 2128 00ae 0E       		.uleb128 0xe
 2129 00af 3A       		.uleb128 0x3a
 2130 00b0 0B       		.uleb128 0xb
 2131 00b1 3B       		.uleb128 0x3b
 2132 00b2 05       		.uleb128 0x5
 2133 00b3 27       		.uleb128 0x27
 2134 00b4 19       		.uleb128 0x19
 2135 00b5 11       		.uleb128 0x11
 2136 00b6 01       		.uleb128 0x1
 2137 00b7 12       		.uleb128 0x12
 2138 00b8 06       		.uleb128 0x6
 2139 00b9 40       		.uleb128 0x40
 2140 00ba 18       		.uleb128 0x18
 2141 00bb 9742     		.uleb128 0x2117
 2142 00bd 19       		.uleb128 0x19
 2143 00be 01       		.uleb128 0x1
 2144 00bf 13       		.uleb128 0x13
 2145 00c0 00       		.byte	0
 2146 00c1 00       		.byte	0
 2147 00c2 0D       		.uleb128 0xd
 2148 00c3 898201   		.uleb128 0x4109
 2149 00c6 01       		.byte	0x1
 2150 00c7 11       		.uleb128 0x11
 2151 00c8 01       		.uleb128 0x1
 2152 00c9 31       		.uleb128 0x31
 2153 00ca 13       		.uleb128 0x13
 2154 00cb 01       		.uleb128 0x1
 2155 00cc 13       		.uleb128 0x13
 2156 00cd 00       		.byte	0
 2157 00ce 00       		.byte	0
 2158 00cf 0E       		.uleb128 0xe
 2159 00d0 34       		.uleb128 0x34
 2160 00d1 00       		.byte	0
 2161 00d2 03       		.uleb128 0x3
 2162 00d3 08       		.uleb128 0x8
 2163 00d4 3A       		.uleb128 0x3a
 2164 00d5 0B       		.uleb128 0xb
 2165 00d6 3B       		.uleb128 0x3b
 2166 00d7 05       		.uleb128 0x5
 2167 00d8 49       		.uleb128 0x49
 2168 00d9 13       		.uleb128 0x13
 2169 00da 02       		.uleb128 0x2
 2170 00db 17       		.uleb128 0x17
 2171 00dc 00       		.byte	0
 2172 00dd 00       		.byte	0
 2173 00de 0F       		.uleb128 0xf
 2174 00df 2E       		.uleb128 0x2e
 2175 00e0 01       		.byte	0x1
 2176 00e1 3F       		.uleb128 0x3f
 2177 00e2 19       		.uleb128 0x19
 2178 00e3 03       		.uleb128 0x3
 2179 00e4 0E       		.uleb128 0xe
ARM GAS  C:\Users\ddemidov\AppData\Local\Temp\ccUDC9zP.s 			page 60


 2180 00e5 3A       		.uleb128 0x3a
 2181 00e6 0B       		.uleb128 0xb
 2182 00e7 3B       		.uleb128 0x3b
 2183 00e8 0B       		.uleb128 0xb
 2184 00e9 27       		.uleb128 0x27
 2185 00ea 19       		.uleb128 0x19
 2186 00eb 49       		.uleb128 0x49
 2187 00ec 13       		.uleb128 0x13
 2188 00ed 11       		.uleb128 0x11
 2189 00ee 01       		.uleb128 0x1
 2190 00ef 12       		.uleb128 0x12
 2191 00f0 06       		.uleb128 0x6
 2192 00f1 40       		.uleb128 0x40
 2193 00f2 18       		.uleb128 0x18
 2194 00f3 9742     		.uleb128 0x2117
 2195 00f5 19       		.uleb128 0x19
 2196 00f6 01       		.uleb128 0x1
 2197 00f7 13       		.uleb128 0x13
 2198 00f8 00       		.byte	0
 2199 00f9 00       		.byte	0
 2200 00fa 10       		.uleb128 0x10
 2201 00fb 05       		.uleb128 0x5
 2202 00fc 00       		.byte	0
 2203 00fd 03       		.uleb128 0x3
 2204 00fe 0E       		.uleb128 0xe
 2205 00ff 3A       		.uleb128 0x3a
 2206 0100 0B       		.uleb128 0xb
 2207 0101 3B       		.uleb128 0x3b
 2208 0102 0B       		.uleb128 0xb
 2209 0103 49       		.uleb128 0x49
 2210 0104 13       		.uleb128 0x13
 2211 0105 02       		.uleb128 0x2
 2212 0106 17       		.uleb128 0x17
 2213 0107 00       		.byte	0
 2214 0108 00       		.byte	0
 2215 0109 11       		.uleb128 0x11
 2216 010a 05       		.uleb128 0x5
 2217 010b 00       		.byte	0
 2218 010c 03       		.uleb128 0x3
 2219 010d 08       		.uleb128 0x8
 2220 010e 3A       		.uleb128 0x3a
 2221 010f 0B       		.uleb128 0xb
 2222 0110 3B       		.uleb128 0x3b
 2223 0111 0B       		.uleb128 0xb
 2224 0112 49       		.uleb128 0x49
 2225 0113 13       		.uleb128 0x13
 2226 0114 02       		.uleb128 0x2
 2227 0115 17       		.uleb128 0x17
 2228 0116 00       		.byte	0
 2229 0117 00       		.byte	0
 2230 0118 12       		.uleb128 0x12
 2231 0119 34       		.uleb128 0x34
 2232 011a 00       		.byte	0
 2233 011b 03       		.uleb128 0x3
 2234 011c 0E       		.uleb128 0xe
 2235 011d 3A       		.uleb128 0x3a
 2236 011e 0B       		.uleb128 0xb
ARM GAS  C:\Users\ddemidov\AppData\Local\Temp\ccUDC9zP.s 			page 61


 2237 011f 3B       		.uleb128 0x3b
 2238 0120 0B       		.uleb128 0xb
 2239 0121 49       		.uleb128 0x49
 2240 0122 13       		.uleb128 0x13
 2241 0123 02       		.uleb128 0x2
 2242 0124 17       		.uleb128 0x17
 2243 0125 00       		.byte	0
 2244 0126 00       		.byte	0
 2245 0127 13       		.uleb128 0x13
 2246 0128 898201   		.uleb128 0x4109
 2247 012b 00       		.byte	0
 2248 012c 11       		.uleb128 0x11
 2249 012d 01       		.uleb128 0x1
 2250 012e 31       		.uleb128 0x31
 2251 012f 13       		.uleb128 0x13
 2252 0130 00       		.byte	0
 2253 0131 00       		.byte	0
 2254 0132 14       		.uleb128 0x14
 2255 0133 0F       		.uleb128 0xf
 2256 0134 00       		.byte	0
 2257 0135 0B       		.uleb128 0xb
 2258 0136 0B       		.uleb128 0xb
 2259 0137 49       		.uleb128 0x49
 2260 0138 13       		.uleb128 0x13
 2261 0139 00       		.byte	0
 2262 013a 00       		.byte	0
 2263 013b 15       		.uleb128 0x15
 2264 013c 34       		.uleb128 0x34
 2265 013d 00       		.byte	0
 2266 013e 03       		.uleb128 0x3
 2267 013f 0E       		.uleb128 0xe
 2268 0140 3A       		.uleb128 0x3a
 2269 0141 0B       		.uleb128 0xb
 2270 0142 3B       		.uleb128 0x3b
 2271 0143 0B       		.uleb128 0xb
 2272 0144 49       		.uleb128 0x49
 2273 0145 13       		.uleb128 0x13
 2274 0146 3F       		.uleb128 0x3f
 2275 0147 19       		.uleb128 0x19
 2276 0148 3C       		.uleb128 0x3c
 2277 0149 19       		.uleb128 0x19
 2278 014a 00       		.byte	0
 2279 014b 00       		.byte	0
 2280 014c 16       		.uleb128 0x16
 2281 014d 34       		.uleb128 0x34
 2282 014e 00       		.byte	0
 2283 014f 03       		.uleb128 0x3
 2284 0150 0E       		.uleb128 0xe
 2285 0151 3A       		.uleb128 0x3a
 2286 0152 0B       		.uleb128 0xb
 2287 0153 3B       		.uleb128 0x3b
 2288 0154 0B       		.uleb128 0xb
 2289 0155 49       		.uleb128 0x49
 2290 0156 13       		.uleb128 0x13
 2291 0157 3F       		.uleb128 0x3f
 2292 0158 19       		.uleb128 0x19
 2293 0159 02       		.uleb128 0x2
ARM GAS  C:\Users\ddemidov\AppData\Local\Temp\ccUDC9zP.s 			page 62


 2294 015a 18       		.uleb128 0x18
 2295 015b 00       		.byte	0
 2296 015c 00       		.byte	0
 2297 015d 17       		.uleb128 0x17
 2298 015e 2E       		.uleb128 0x2e
 2299 015f 01       		.byte	0x1
 2300 0160 3F       		.uleb128 0x3f
 2301 0161 19       		.uleb128 0x19
 2302 0162 03       		.uleb128 0x3
 2303 0163 0E       		.uleb128 0xe
 2304 0164 3A       		.uleb128 0x3a
 2305 0165 0B       		.uleb128 0xb
 2306 0166 3B       		.uleb128 0x3b
 2307 0167 0B       		.uleb128 0xb
 2308 0168 27       		.uleb128 0x27
 2309 0169 19       		.uleb128 0x19
 2310 016a 3C       		.uleb128 0x3c
 2311 016b 19       		.uleb128 0x19
 2312 016c 01       		.uleb128 0x1
 2313 016d 13       		.uleb128 0x13
 2314 016e 00       		.byte	0
 2315 016f 00       		.byte	0
 2316 0170 18       		.uleb128 0x18
 2317 0171 05       		.uleb128 0x5
 2318 0172 00       		.byte	0
 2319 0173 49       		.uleb128 0x49
 2320 0174 13       		.uleb128 0x13
 2321 0175 00       		.byte	0
 2322 0176 00       		.byte	0
 2323 0177 19       		.uleb128 0x19
 2324 0178 2E       		.uleb128 0x2e
 2325 0179 01       		.byte	0x1
 2326 017a 3F       		.uleb128 0x3f
 2327 017b 19       		.uleb128 0x19
 2328 017c 03       		.uleb128 0x3
 2329 017d 0E       		.uleb128 0xe
 2330 017e 3A       		.uleb128 0x3a
 2331 017f 0B       		.uleb128 0xb
 2332 0180 3B       		.uleb128 0x3b
 2333 0181 0B       		.uleb128 0xb
 2334 0182 27       		.uleb128 0x27
 2335 0183 19       		.uleb128 0x19
 2336 0184 3C       		.uleb128 0x3c
 2337 0185 19       		.uleb128 0x19
 2338 0186 00       		.byte	0
 2339 0187 00       		.byte	0
 2340 0188 00       		.byte	0
 2341              		.section	.debug_loc,"",%progbits
 2342              	.Ldebug_loc0:
 2343              	.LLST0:
 2344 0000 00000000 		.4byte	.LVL0
 2345 0004 1C000000 		.4byte	.LVL1
 2346 0008 0100     		.2byte	0x1
 2347 000a 50       		.byte	0x50
 2348 000b 1C000000 		.4byte	.LVL1
 2349 000f 28000000 		.4byte	.LVL3
 2350 0013 0100     		.2byte	0x1
ARM GAS  C:\Users\ddemidov\AppData\Local\Temp\ccUDC9zP.s 			page 63


 2351 0015 57       		.byte	0x57
 2352 0016 28000000 		.4byte	.LVL3
 2353 001a 60000000 		.4byte	.LVL6
 2354 001e 0100     		.2byte	0x1
 2355 0020 50       		.byte	0x50
 2356 0021 78000000 		.4byte	.LVL8
 2357 0025 7C000000 		.4byte	.LVL9
 2358 0029 0100     		.2byte	0x1
 2359 002b 50       		.byte	0x50
 2360 002c 00000000 		.4byte	0
 2361 0030 00000000 		.4byte	0
 2362              	.LLST1:
 2363 0034 00000000 		.4byte	.LVL0
 2364 0038 21000000 		.4byte	.LVL2-1
 2365 003c 0100     		.2byte	0x1
 2366 003e 51       		.byte	0x51
 2367 003f 21000000 		.4byte	.LVL2-1
 2368 0043 48000000 		.4byte	.LVL5
 2369 0047 0100     		.2byte	0x1
 2370 0049 56       		.byte	0x56
 2371 004a 48000000 		.4byte	.LVL5
 2372 004e B8000000 		.4byte	.LFE4
 2373 0052 0400     		.2byte	0x4
 2374 0054 F3       		.byte	0xf3
 2375 0055 01       		.uleb128 0x1
 2376 0056 51       		.byte	0x51
 2377 0057 9F       		.byte	0x9f
 2378 0058 00000000 		.4byte	0
 2379 005c 00000000 		.4byte	0
 2380              	.LLST2:
 2381 0060 00000000 		.4byte	.LVL0
 2382 0064 72000000 		.4byte	.LVL7
 2383 0068 0200     		.2byte	0x2
 2384 006a 30       		.byte	0x30
 2385 006b 9F       		.byte	0x9f
 2386 006c 72000000 		.4byte	.LVL7
 2387 0070 78000000 		.4byte	.LVL8
 2388 0074 0200     		.2byte	0x2
 2389 0076 31       		.byte	0x31
 2390 0077 9F       		.byte	0x9f
 2391 0078 78000000 		.4byte	.LVL8
 2392 007c 7C000000 		.4byte	.LVL9
 2393 0080 0200     		.2byte	0x2
 2394 0082 30       		.byte	0x30
 2395 0083 9F       		.byte	0x9f
 2396 0084 00000000 		.4byte	0
 2397 0088 00000000 		.4byte	0
 2398              	.LLST3:
 2399 008c 00000000 		.4byte	.LVL0
 2400 0090 72000000 		.4byte	.LVL7
 2401 0094 0200     		.2byte	0x2
 2402 0096 34       		.byte	0x34
 2403 0097 9F       		.byte	0x9f
 2404 0098 72000000 		.4byte	.LVL7
 2405 009c 78000000 		.4byte	.LVL8
 2406 00a0 0400     		.2byte	0x4
 2407 00a2 0A       		.byte	0xa
ARM GAS  C:\Users\ddemidov\AppData\Local\Temp\ccUDC9zP.s 			page 64


 2408 00a3 0001     		.2byte	0x100
 2409 00a5 9F       		.byte	0x9f
 2410 00a6 78000000 		.4byte	.LVL8
 2411 00aa 7C000000 		.4byte	.LVL9
 2412 00ae 0200     		.2byte	0x2
 2413 00b0 34       		.byte	0x34
 2414 00b1 9F       		.byte	0x9f
 2415 00b2 7C000000 		.4byte	.LVL9
 2416 00b6 B8000000 		.4byte	.LFE4
 2417 00ba 0100     		.2byte	0x1
 2418 00bc 52       		.byte	0x52
 2419 00bd 00000000 		.4byte	0
 2420 00c1 00000000 		.4byte	0
 2421              	.LLST4:
 2422 00c5 00000000 		.4byte	.LVL11
 2423 00c9 48000000 		.4byte	.LVL12
 2424 00cd 0200     		.2byte	0x2
 2425 00cf 30       		.byte	0x30
 2426 00d0 9F       		.byte	0x9f
 2427 00d1 48000000 		.4byte	.LVL12
 2428 00d5 66000000 		.4byte	.LVL13
 2429 00d9 0200     		.2byte	0x2
 2430 00db 31       		.byte	0x31
 2431 00dc 9F       		.byte	0x9f
 2432 00dd 00000000 		.4byte	0
 2433 00e1 00000000 		.4byte	0
 2434              	.LLST5:
 2435 00e5 00000000 		.4byte	.LVL11
 2436 00e9 48000000 		.4byte	.LVL12
 2437 00ed 0200     		.2byte	0x2
 2438 00ef 34       		.byte	0x34
 2439 00f0 9F       		.byte	0x9f
 2440 00f1 48000000 		.4byte	.LVL12
 2441 00f5 7C000000 		.4byte	.LFE6
 2442 00f9 0100     		.2byte	0x1
 2443 00fb 50       		.byte	0x50
 2444 00fc 00000000 		.4byte	0
 2445 0100 00000000 		.4byte	0
 2446              	.LLST6:
 2447 0104 00000000 		.4byte	.LVL14
 2448 0108 0A000000 		.4byte	.LVL15
 2449 010c 0100     		.2byte	0x1
 2450 010e 50       		.byte	0x50
 2451 010f 0A000000 		.4byte	.LVL15
 2452 0113 12000000 		.4byte	.LVL16
 2453 0117 0100     		.2byte	0x1
 2454 0119 52       		.byte	0x52
 2455 011a 12000000 		.4byte	.LVL16
 2456 011e 2C000000 		.4byte	.LVL17
 2457 0122 0500     		.2byte	0x5
 2458 0124 0C       		.byte	0xc
 2459 0125 40022540 		.4byte	0x40250240
 2460 0129 2C000000 		.4byte	.LVL17
 2461 012d 30000000 		.4byte	.LVL18
 2462 0131 0400     		.2byte	0x4
 2463 0133 F3       		.byte	0xf3
 2464 0134 01       		.uleb128 0x1
ARM GAS  C:\Users\ddemidov\AppData\Local\Temp\ccUDC9zP.s 			page 65


 2465 0135 50       		.byte	0x50
 2466 0136 9F       		.byte	0x9f
 2467 0137 30000000 		.4byte	.LVL18
 2468 013b 3C000000 		.4byte	.LVL19
 2469 013f 0500     		.2byte	0x5
 2470 0141 0C       		.byte	0xc
 2471 0142 40022540 		.4byte	0x40250240
 2472 0146 3C000000 		.4byte	.LVL19
 2473 014a 3E000000 		.4byte	.LVL20
 2474 014e 0400     		.2byte	0x4
 2475 0150 F3       		.byte	0xf3
 2476 0151 01       		.uleb128 0x1
 2477 0152 50       		.byte	0x50
 2478 0153 9F       		.byte	0x9f
 2479 0154 3E000000 		.4byte	.LVL20
 2480 0158 46000000 		.4byte	.LVL21
 2481 015c 0500     		.2byte	0x5
 2482 015e 0C       		.byte	0xc
 2483 015f 40022540 		.4byte	0x40250240
 2484 0163 46000000 		.4byte	.LVL21
 2485 0167 7C000000 		.4byte	.LFE7
 2486 016b 0400     		.2byte	0x4
 2487 016d F3       		.byte	0xf3
 2488 016e 01       		.uleb128 0x1
 2489 016f 50       		.byte	0x50
 2490 0170 9F       		.byte	0x9f
 2491 0171 00000000 		.4byte	0
 2492 0175 00000000 		.4byte	0
 2493              	.LLST7:
 2494 0179 00000000 		.4byte	.LVL14
 2495 017d 4C000000 		.4byte	.LVL22
 2496 0181 0200     		.2byte	0x2
 2497 0183 30       		.byte	0x30
 2498 0184 9F       		.byte	0x9f
 2499 0185 4C000000 		.4byte	.LVL22
 2500 0189 50000000 		.4byte	.LVL23
 2501 018d 0200     		.2byte	0x2
 2502 018f 31       		.byte	0x31
 2503 0190 9F       		.byte	0x9f
 2504 0191 00000000 		.4byte	0
 2505 0195 00000000 		.4byte	0
 2506              	.LLST8:
 2507 0199 00000000 		.4byte	.LVL14
 2508 019d 2C000000 		.4byte	.LVL17
 2509 01a1 0200     		.2byte	0x2
 2510 01a3 34       		.byte	0x34
 2511 01a4 9F       		.byte	0x9f
 2512 01a5 2C000000 		.4byte	.LVL17
 2513 01a9 30000000 		.4byte	.LVL18
 2514 01ad 0200     		.2byte	0x2
 2515 01af 30       		.byte	0x30
 2516 01b0 9F       		.byte	0x9f
 2517 01b1 30000000 		.4byte	.LVL18
 2518 01b5 3C000000 		.4byte	.LVL19
 2519 01b9 0200     		.2byte	0x2
 2520 01bb 34       		.byte	0x34
 2521 01bc 9F       		.byte	0x9f
ARM GAS  C:\Users\ddemidov\AppData\Local\Temp\ccUDC9zP.s 			page 66


 2522 01bd 3C000000 		.4byte	.LVL19
 2523 01c1 3E000000 		.4byte	.LVL20
 2524 01c5 0200     		.2byte	0x2
 2525 01c7 32       		.byte	0x32
 2526 01c8 9F       		.byte	0x9f
 2527 01c9 3E000000 		.4byte	.LVL20
 2528 01cd 4C000000 		.4byte	.LVL22
 2529 01d1 0200     		.2byte	0x2
 2530 01d3 34       		.byte	0x34
 2531 01d4 9F       		.byte	0x9f
 2532 01d5 4C000000 		.4byte	.LVL22
 2533 01d9 50000000 		.4byte	.LVL23
 2534 01dd 0400     		.2byte	0x4
 2535 01df 0A       		.byte	0xa
 2536 01e0 0001     		.2byte	0x100
 2537 01e2 9F       		.byte	0x9f
 2538 01e3 50000000 		.4byte	.LVL23
 2539 01e7 7C000000 		.4byte	.LFE7
 2540 01eb 0100     		.2byte	0x1
 2541 01ed 50       		.byte	0x50
 2542 01ee 00000000 		.4byte	0
 2543 01f2 00000000 		.4byte	0
 2544              	.LLST9:
 2545 01f6 00000000 		.4byte	.LVL25
 2546 01fa 60000000 		.4byte	.LVL29
 2547 01fe 0100     		.2byte	0x1
 2548 0200 50       		.byte	0x50
 2549 0201 60000000 		.4byte	.LVL29
 2550 0205 80000000 		.4byte	.LFE8
 2551 0209 0400     		.2byte	0x4
 2552 020b F3       		.byte	0xf3
 2553 020c 01       		.uleb128 0x1
 2554 020d 50       		.byte	0x50
 2555 020e 9F       		.byte	0x9f
 2556 020f 00000000 		.4byte	0
 2557 0213 00000000 		.4byte	0
 2558              	.LLST10:
 2559 0217 00000000 		.4byte	.LVL25
 2560 021b 2E000000 		.4byte	.LVL26
 2561 021f 0300     		.2byte	0x3
 2562 0221 09       		.byte	0x9
 2563 0222 FF       		.byte	0xff
 2564 0223 9F       		.byte	0x9f
 2565 0224 2E000000 		.4byte	.LVL26
 2566 0228 40000000 		.4byte	.LVL27
 2567 022c 0100     		.2byte	0x1
 2568 022e 53       		.byte	0x53
 2569 022f 40000000 		.4byte	.LVL27
 2570 0233 5E000000 		.4byte	.LVL28
 2571 0237 0300     		.2byte	0x3
 2572 0239 09       		.byte	0x9
 2573 023a FF       		.byte	0xff
 2574 023b 9F       		.byte	0x9f
 2575 023c 5E000000 		.4byte	.LVL28
 2576 0240 80000000 		.4byte	.LFE8
 2577 0244 0100     		.2byte	0x1
 2578 0246 53       		.byte	0x53
ARM GAS  C:\Users\ddemidov\AppData\Local\Temp\ccUDC9zP.s 			page 67


 2579 0247 00000000 		.4byte	0
 2580 024b 00000000 		.4byte	0
 2581              	.LLST11:
 2582 024f 10000000 		.4byte	.LVL35
 2583 0253 1A000000 		.4byte	.LVL36
 2584 0257 0700     		.2byte	0x7
 2585 0259 74       		.byte	0x74
 2586 025a 00       		.sleb128 0
 2587 025b 0A       		.byte	0xa
 2588 025c FFFF     		.2byte	0xffff
 2589 025e 1A       		.byte	0x1a
 2590 025f 9F       		.byte	0x9f
 2591 0260 1A000000 		.4byte	.LVL36
 2592 0264 22000000 		.4byte	.LVL38
 2593 0268 0100     		.2byte	0x1
 2594 026a 54       		.byte	0x54
 2595 026b 22000000 		.4byte	.LVL38
 2596 026f 2C000000 		.4byte	.LFE13
 2597 0273 0100     		.2byte	0x1
 2598 0275 50       		.byte	0x50
 2599 0276 00000000 		.4byte	0
 2600 027a 00000000 		.4byte	0
 2601              	.LLST12:
 2602 027e 12000000 		.4byte	.LVL40
 2603 0282 1A000000 		.4byte	.LVL42
 2604 0286 0700     		.2byte	0x7
 2605 0288 74       		.byte	0x74
 2606 0289 00       		.sleb128 0
 2607 028a 0A       		.byte	0xa
 2608 028b FFFF     		.2byte	0xffff
 2609 028d 1A       		.byte	0x1a
 2610 028e 9F       		.byte	0x9f
 2611 028f 1A000000 		.4byte	.LVL42
 2612 0293 20000000 		.4byte	.LFE14
 2613 0297 0700     		.2byte	0x7
 2614 0299 70       		.byte	0x70
 2615 029a 00       		.sleb128 0
 2616 029b 0A       		.byte	0xa
 2617 029c FFFF     		.2byte	0xffff
 2618 029e 1A       		.byte	0x1a
 2619 029f 9F       		.byte	0x9f
 2620 02a0 00000000 		.4byte	0
 2621 02a4 00000000 		.4byte	0
 2622              	.LLST13:
 2623 02a8 00000000 		.4byte	.LVL43
 2624 02ac 10000000 		.4byte	.LVL44
 2625 02b0 0200     		.2byte	0x2
 2626 02b2 31       		.byte	0x31
 2627 02b3 9F       		.byte	0x9f
 2628 02b4 10000000 		.4byte	.LVL44
 2629 02b8 20000000 		.4byte	.LFE15
 2630 02bc 0100     		.2byte	0x1
 2631 02be 53       		.byte	0x53
 2632 02bf 00000000 		.4byte	0
 2633 02c3 00000000 		.4byte	0
 2634              	.LLST14:
 2635 02c7 00000000 		.4byte	.LVL45
ARM GAS  C:\Users\ddemidov\AppData\Local\Temp\ccUDC9zP.s 			page 68


 2636 02cb 1A000000 		.4byte	.LVL47
 2637 02cf 0100     		.2byte	0x1
 2638 02d1 50       		.byte	0x50
 2639 02d2 1A000000 		.4byte	.LVL47
 2640 02d6 2A000000 		.4byte	.LVL49
 2641 02da 0100     		.2byte	0x1
 2642 02dc 56       		.byte	0x56
 2643 02dd 2A000000 		.4byte	.LVL49
 2644 02e1 3C000000 		.4byte	.LVL52
 2645 02e5 0100     		.2byte	0x1
 2646 02e7 50       		.byte	0x50
 2647 02e8 3C000000 		.4byte	.LVL52
 2648 02ec 52000000 		.4byte	.LVL53
 2649 02f0 0100     		.2byte	0x1
 2650 02f2 56       		.byte	0x56
 2651 02f3 52000000 		.4byte	.LVL53
 2652 02f7 6A000000 		.4byte	.LVL55
 2653 02fb 0400     		.2byte	0x4
 2654 02fd F3       		.byte	0xf3
 2655 02fe 01       		.uleb128 0x1
 2656 02ff 50       		.byte	0x50
 2657 0300 9F       		.byte	0x9f
 2658 0301 6A000000 		.4byte	.LVL55
 2659 0305 A2000000 		.4byte	.LVL60
 2660 0309 0100     		.2byte	0x1
 2661 030b 56       		.byte	0x56
 2662 030c 00000000 		.4byte	0
 2663 0310 00000000 		.4byte	0
 2664              	.LLST15:
 2665 0314 00000000 		.4byte	.LVL45
 2666 0318 1D000000 		.4byte	.LVL48-1
 2667 031c 0100     		.2byte	0x1
 2668 031e 51       		.byte	0x51
 2669 031f 1D000000 		.4byte	.LVL48-1
 2670 0323 2A000000 		.4byte	.LVL49
 2671 0327 0100     		.2byte	0x1
 2672 0329 57       		.byte	0x57
 2673 032a 2A000000 		.4byte	.LVL49
 2674 032e 34000000 		.4byte	.LVL50
 2675 0332 0100     		.2byte	0x1
 2676 0334 51       		.byte	0x51
 2677 0335 34000000 		.4byte	.LVL50
 2678 0339 62000000 		.4byte	.LVL54
 2679 033d 0100     		.2byte	0x1
 2680 033f 57       		.byte	0x57
 2681 0340 62000000 		.4byte	.LVL54
 2682 0344 76000000 		.4byte	.LVL56
 2683 0348 0500     		.2byte	0x5
 2684 034a 03       		.byte	0x3
 2685 034b 00000000 		.4byte	I2CM_mstrWrBufPtr
 2686 034f 76000000 		.4byte	.LVL56
 2687 0353 DC000000 		.4byte	.LFE2
 2688 0357 0400     		.2byte	0x4
 2689 0359 F3       		.byte	0xf3
 2690 035a 01       		.uleb128 0x1
 2691 035b 51       		.byte	0x51
 2692 035c 9F       		.byte	0x9f
ARM GAS  C:\Users\ddemidov\AppData\Local\Temp\ccUDC9zP.s 			page 69


 2693 035d 00000000 		.4byte	0
 2694 0361 00000000 		.4byte	0
 2695              	.LLST16:
 2696 0365 00000000 		.4byte	.LVL45
 2697 0369 1D000000 		.4byte	.LVL48-1
 2698 036d 0100     		.2byte	0x1
 2699 036f 52       		.byte	0x52
 2700 0370 1D000000 		.4byte	.LVL48-1
 2701 0374 2A000000 		.4byte	.LVL49
 2702 0378 0200     		.2byte	0x2
 2703 037a 91       		.byte	0x91
 2704 037b 64       		.sleb128 -28
 2705 037c 2A000000 		.4byte	.LVL49
 2706 0380 36000000 		.4byte	.LVL51
 2707 0384 0100     		.2byte	0x1
 2708 0386 52       		.byte	0x52
 2709 0387 36000000 		.4byte	.LVL51
 2710 038b DC000000 		.4byte	.LFE2
 2711 038f 0200     		.2byte	0x2
 2712 0391 91       		.byte	0x91
 2713 0392 64       		.sleb128 -28
 2714 0393 00000000 		.4byte	0
 2715 0397 00000000 		.4byte	0
 2716              	.LLST17:
 2717 039b 00000000 		.4byte	.LVL45
 2718 039f 14000000 		.4byte	.LVL46
 2719 03a3 0100     		.2byte	0x1
 2720 03a5 53       		.byte	0x53
 2721 03a6 14000000 		.4byte	.LVL46
 2722 03aa DC000000 		.4byte	.LFE2
 2723 03ae 0200     		.2byte	0x2
 2724 03b0 7D       		.byte	0x7d
 2725 03b1 00       		.sleb128 0
 2726 03b2 00000000 		.4byte	0
 2727 03b6 00000000 		.4byte	0
 2728              	.LLST18:
 2729 03ba 00000000 		.4byte	.LVL45
 2730 03be 3C000000 		.4byte	.LVL52
 2731 03c2 0200     		.2byte	0x2
 2732 03c4 34       		.byte	0x34
 2733 03c5 9F       		.byte	0x9f
 2734 03c6 3C000000 		.4byte	.LVL52
 2735 03ca 9A000000 		.4byte	.LVL58
 2736 03ce 0200     		.2byte	0x2
 2737 03d0 30       		.byte	0x30
 2738 03d1 9F       		.byte	0x9f
 2739 03d2 00000000 		.4byte	0
 2740 03d6 00000000 		.4byte	0
 2741              	.LLST19:
 2742 03da 00000000 		.4byte	.LVL61
 2743 03de 1A000000 		.4byte	.LVL63
 2744 03e2 0100     		.2byte	0x1
 2745 03e4 50       		.byte	0x50
 2746 03e5 1A000000 		.4byte	.LVL63
 2747 03e9 2A000000 		.4byte	.LVL65
 2748 03ed 0100     		.2byte	0x1
 2749 03ef 56       		.byte	0x56
ARM GAS  C:\Users\ddemidov\AppData\Local\Temp\ccUDC9zP.s 			page 70


 2750 03f0 2A000000 		.4byte	.LVL65
 2751 03f4 3C000000 		.4byte	.LVL68
 2752 03f8 0100     		.2byte	0x1
 2753 03fa 50       		.byte	0x50
 2754 03fb 3C000000 		.4byte	.LVL68
 2755 03ff 54000000 		.4byte	.LVL69
 2756 0403 0100     		.2byte	0x1
 2757 0405 56       		.byte	0x56
 2758 0406 54000000 		.4byte	.LVL69
 2759 040a 66000000 		.4byte	.LVL70
 2760 040e 0400     		.2byte	0x4
 2761 0410 F3       		.byte	0xf3
 2762 0411 01       		.uleb128 0x1
 2763 0412 50       		.byte	0x50
 2764 0413 9F       		.byte	0x9f
 2765 0414 66000000 		.4byte	.LVL70
 2766 0418 B2000000 		.4byte	.LVL74
 2767 041c 0100     		.2byte	0x1
 2768 041e 56       		.byte	0x56
 2769 041f 00000000 		.4byte	0
 2770 0423 00000000 		.4byte	0
 2771              	.LLST20:
 2772 0427 00000000 		.4byte	.LVL61
 2773 042b 1D000000 		.4byte	.LVL64-1
 2774 042f 0100     		.2byte	0x1
 2775 0431 51       		.byte	0x51
 2776 0432 1D000000 		.4byte	.LVL64-1
 2777 0436 2A000000 		.4byte	.LVL65
 2778 043a 0100     		.2byte	0x1
 2779 043c 57       		.byte	0x57
 2780 043d 2A000000 		.4byte	.LVL65
 2781 0441 34000000 		.4byte	.LVL66
 2782 0445 0100     		.2byte	0x1
 2783 0447 51       		.byte	0x51
 2784 0448 34000000 		.4byte	.LVL66
 2785 044c B2000000 		.4byte	.LVL75
 2786 0450 0100     		.2byte	0x1
 2787 0452 57       		.byte	0x57
 2788 0453 B2000000 		.4byte	.LVL75
 2789 0457 E8000000 		.4byte	.LFE3
 2790 045b 0400     		.2byte	0x4
 2791 045d F3       		.byte	0xf3
 2792 045e 01       		.uleb128 0x1
 2793 045f 51       		.byte	0x51
 2794 0460 9F       		.byte	0x9f
 2795 0461 00000000 		.4byte	0
 2796 0465 00000000 		.4byte	0
 2797              	.LLST21:
 2798 0469 00000000 		.4byte	.LVL61
 2799 046d 1D000000 		.4byte	.LVL64-1
 2800 0471 0100     		.2byte	0x1
 2801 0473 52       		.byte	0x52
 2802 0474 1D000000 		.4byte	.LVL64-1
 2803 0478 2A000000 		.4byte	.LVL65
 2804 047c 0200     		.2byte	0x2
 2805 047e 91       		.byte	0x91
 2806 047f 64       		.sleb128 -28
ARM GAS  C:\Users\ddemidov\AppData\Local\Temp\ccUDC9zP.s 			page 71


 2807 0480 2A000000 		.4byte	.LVL65
 2808 0484 36000000 		.4byte	.LVL67
 2809 0488 0100     		.2byte	0x1
 2810 048a 52       		.byte	0x52
 2811 048b 36000000 		.4byte	.LVL67
 2812 048f E8000000 		.4byte	.LFE3
 2813 0493 0200     		.2byte	0x2
 2814 0495 91       		.byte	0x91
 2815 0496 64       		.sleb128 -28
 2816 0497 00000000 		.4byte	0
 2817 049b 00000000 		.4byte	0
 2818              	.LLST22:
 2819 049f 00000000 		.4byte	.LVL61
 2820 04a3 14000000 		.4byte	.LVL62
 2821 04a7 0100     		.2byte	0x1
 2822 04a9 53       		.byte	0x53
 2823 04aa 14000000 		.4byte	.LVL62
 2824 04ae E8000000 		.4byte	.LFE3
 2825 04b2 0200     		.2byte	0x2
 2826 04b4 7D       		.byte	0x7d
 2827 04b5 00       		.sleb128 0
 2828 04b6 00000000 		.4byte	0
 2829 04ba 00000000 		.4byte	0
 2830              	.LLST23:
 2831 04be 00000000 		.4byte	.LVL61
 2832 04c2 3C000000 		.4byte	.LVL68
 2833 04c6 0200     		.2byte	0x2
 2834 04c8 34       		.byte	0x34
 2835 04c9 9F       		.byte	0x9f
 2836 04ca 3C000000 		.4byte	.LVL68
 2837 04ce AA000000 		.4byte	.LVL72
 2838 04d2 0200     		.2byte	0x2
 2839 04d4 30       		.byte	0x30
 2840 04d5 9F       		.byte	0x9f
 2841 04d6 00000000 		.4byte	0
 2842 04da 00000000 		.4byte	0
 2843              	.LLST24:
 2844 04de 00000000 		.4byte	.LVL76
 2845 04e2 10000000 		.4byte	.LVL77
 2846 04e6 0100     		.2byte	0x1
 2847 04e8 50       		.byte	0x50
 2848 04e9 10000000 		.4byte	.LVL77
 2849 04ed 12000000 		.4byte	.LVL78
 2850 04f1 0400     		.2byte	0x4
 2851 04f3 F3       		.byte	0xf3
 2852 04f4 01       		.uleb128 0x1
 2853 04f5 50       		.byte	0x50
 2854 04f6 9F       		.byte	0x9f
 2855 04f7 12000000 		.4byte	.LVL78
 2856 04fb 3C000000 		.4byte	.LVL81
 2857 04ff 0100     		.2byte	0x1
 2858 0501 55       		.byte	0x55
 2859 0502 3C000000 		.4byte	.LVL81
 2860 0506 60000000 		.4byte	.LVL82
 2861 050a 0500     		.2byte	0x5
 2862 050c 0C       		.byte	0xc
 2863 050d 40022540 		.4byte	0x40250240
ARM GAS  C:\Users\ddemidov\AppData\Local\Temp\ccUDC9zP.s 			page 72


 2864 0511 6C000000 		.4byte	.LVL84
 2865 0515 70000000 		.4byte	.LVL85
 2866 0519 0500     		.2byte	0x5
 2867 051b 0C       		.byte	0xc
 2868 051c 40022540 		.4byte	0x40250240
 2869 0520 00000000 		.4byte	0
 2870 0524 00000000 		.4byte	0
 2871              	.LLST25:
 2872 0528 00000000 		.4byte	.LVL76
 2873 052c 2D000000 		.4byte	.LVL80-1
 2874 0530 0100     		.2byte	0x1
 2875 0532 51       		.byte	0x51
 2876 0533 2D000000 		.4byte	.LVL80-1
 2877 0537 A8000000 		.4byte	.LFE5
 2878 053b 0400     		.2byte	0x4
 2879 053d F3       		.byte	0xf3
 2880 053e 01       		.uleb128 0x1
 2881 053f 51       		.byte	0x51
 2882 0540 9F       		.byte	0x9f
 2883 0541 00000000 		.4byte	0
 2884 0545 00000000 		.4byte	0
 2885              	.LLST26:
 2886 0549 00000000 		.4byte	.LVL76
 2887 054d 66000000 		.4byte	.LVL83
 2888 0551 0200     		.2byte	0x2
 2889 0553 30       		.byte	0x30
 2890 0554 9F       		.byte	0x9f
 2891 0555 66000000 		.4byte	.LVL83
 2892 0559 6C000000 		.4byte	.LVL84
 2893 055d 0200     		.2byte	0x2
 2894 055f 31       		.byte	0x31
 2895 0560 9F       		.byte	0x9f
 2896 0561 6C000000 		.4byte	.LVL84
 2897 0565 70000000 		.4byte	.LVL85
 2898 0569 0200     		.2byte	0x2
 2899 056b 30       		.byte	0x30
 2900 056c 9F       		.byte	0x9f
 2901 056d 00000000 		.4byte	0
 2902 0571 00000000 		.4byte	0
 2903              	.LLST27:
 2904 0575 00000000 		.4byte	.LVL76
 2905 0579 66000000 		.4byte	.LVL83
 2906 057d 0200     		.2byte	0x2
 2907 057f 34       		.byte	0x34
 2908 0580 9F       		.byte	0x9f
 2909 0581 66000000 		.4byte	.LVL83
 2910 0585 6C000000 		.4byte	.LVL84
 2911 0589 0400     		.2byte	0x4
 2912 058b 0A       		.byte	0xa
 2913 058c 0001     		.2byte	0x100
 2914 058e 9F       		.byte	0x9f
 2915 058f 6C000000 		.4byte	.LVL84
 2916 0593 70000000 		.4byte	.LVL85
 2917 0597 0200     		.2byte	0x2
 2918 0599 34       		.byte	0x34
 2919 059a 9F       		.byte	0x9f
 2920 059b 70000000 		.4byte	.LVL85
ARM GAS  C:\Users\ddemidov\AppData\Local\Temp\ccUDC9zP.s 			page 73


 2921 059f A8000000 		.4byte	.LFE5
 2922 05a3 0100     		.2byte	0x1
 2923 05a5 52       		.byte	0x52
 2924 05a6 00000000 		.4byte	0
 2925 05aa 00000000 		.4byte	0
 2926              		.section	.debug_aranges,"",%progbits
 2927 0000 84000000 		.4byte	0x84
 2928 0004 0200     		.2byte	0x2
 2929 0006 00000000 		.4byte	.Ldebug_info0
 2930 000a 04       		.byte	0x4
 2931 000b 00       		.byte	0
 2932 000c 0000     		.2byte	0
 2933 000e 0000     		.2byte	0
 2934 0010 00000000 		.4byte	.LFB4
 2935 0014 B8000000 		.4byte	.LFE4-.LFB4
 2936 0018 00000000 		.4byte	.LFB6
 2937 001c 7C000000 		.4byte	.LFE6-.LFB6
 2938 0020 00000000 		.4byte	.LFB7
 2939 0024 7C000000 		.4byte	.LFE7-.LFB7
 2940 0028 00000000 		.4byte	.LFB8
 2941 002c 80000000 		.4byte	.LFE8-.LFB8
 2942 0030 00000000 		.4byte	.LFB9
 2943 0034 0C000000 		.4byte	.LFE9-.LFB9
 2944 0038 00000000 		.4byte	.LFB10
 2945 003c 0C000000 		.4byte	.LFE10-.LFB10
 2946 0040 00000000 		.4byte	.LFB11
 2947 0044 28000000 		.4byte	.LFE11-.LFB11
 2948 0048 00000000 		.4byte	.LFB12
 2949 004c 28000000 		.4byte	.LFE12-.LFB12
 2950 0050 00000000 		.4byte	.LFB13
 2951 0054 2C000000 		.4byte	.LFE13-.LFB13
 2952 0058 00000000 		.4byte	.LFB14
 2953 005c 20000000 		.4byte	.LFE14-.LFB14
 2954 0060 00000000 		.4byte	.LFB15
 2955 0064 20000000 		.4byte	.LFE15-.LFB15
 2956 0068 00000000 		.4byte	.LFB2
 2957 006c DC000000 		.4byte	.LFE2-.LFB2
 2958 0070 00000000 		.4byte	.LFB3
 2959 0074 E8000000 		.4byte	.LFE3-.LFB3
 2960 0078 00000000 		.4byte	.LFB5
 2961 007c A8000000 		.4byte	.LFE5-.LFB5
 2962 0080 00000000 		.4byte	0
 2963 0084 00000000 		.4byte	0
 2964              		.section	.debug_ranges,"",%progbits
 2965              	.Ldebug_ranges0:
 2966 0000 00000000 		.4byte	.LFB4
 2967 0004 B8000000 		.4byte	.LFE4
 2968 0008 00000000 		.4byte	.LFB6
 2969 000c 7C000000 		.4byte	.LFE6
 2970 0010 00000000 		.4byte	.LFB7
 2971 0014 7C000000 		.4byte	.LFE7
 2972 0018 00000000 		.4byte	.LFB8
 2973 001c 80000000 		.4byte	.LFE8
 2974 0020 00000000 		.4byte	.LFB9
 2975 0024 0C000000 		.4byte	.LFE9
 2976 0028 00000000 		.4byte	.LFB10
 2977 002c 0C000000 		.4byte	.LFE10
ARM GAS  C:\Users\ddemidov\AppData\Local\Temp\ccUDC9zP.s 			page 74


 2978 0030 00000000 		.4byte	.LFB11
 2979 0034 28000000 		.4byte	.LFE11
 2980 0038 00000000 		.4byte	.LFB12
 2981 003c 28000000 		.4byte	.LFE12
 2982 0040 00000000 		.4byte	.LFB13
 2983 0044 2C000000 		.4byte	.LFE13
 2984 0048 00000000 		.4byte	.LFB14
 2985 004c 20000000 		.4byte	.LFE14
 2986 0050 00000000 		.4byte	.LFB15
 2987 0054 20000000 		.4byte	.LFE15
 2988 0058 00000000 		.4byte	.LFB2
 2989 005c DC000000 		.4byte	.LFE2
 2990 0060 00000000 		.4byte	.LFB3
 2991 0064 E8000000 		.4byte	.LFE3
 2992 0068 00000000 		.4byte	.LFB5
 2993 006c A8000000 		.4byte	.LFE5
 2994 0070 00000000 		.4byte	0
 2995 0074 00000000 		.4byte	0
 2996              		.section	.debug_line,"",%progbits
 2997              	.Ldebug_line0:
 2998 0000 E2020000 		.section	.debug_str,"MS",%progbits,1
 2998      02008200 
 2998      00000201 
 2998      FB0E0D00 
 2998      01010101 
 2999              	.LASF15:
 3000 0000 72656733 		.ascii	"reg32\000"
 3000      3200
 3001              	.LASF38:
 3002 0006 4932434D 		.ascii	"I2CM_I2CMasterReadBuf\000"
 3002      5F493243 
 3002      4D617374 
 3002      65725265 
 3002      61644275 
 3003              	.LASF51:
 3004 001c 474E5520 		.ascii	"GNU C 4.9.3 20150303 (release) [ARM/embedded-4_9-br"
 3004      4320342E 
 3004      392E3320 
 3004      32303135 
 3004      30333033 
 3005 004f 616E6368 		.ascii	"anch revision 221220] -mcpu=cortex-m0 -mthumb -g -O"
 3005      20726576 
 3005      6973696F 
 3005      6E203232 
 3005      31323230 
 3006 0082 73202D66 		.ascii	"s -ffunction-sections -ffat-lto-objects\000"
 3006      66756E63 
 3006      74696F6E 
 3006      2D736563 
 3006      74696F6E 
 3007              	.LASF46:
 3008 00aa 4932434D 		.ascii	"I2CM_mstrRdBufIndex\000"
 3008      5F6D7374 
 3008      72526442 
 3008      7566496E 
 3008      64657800 
 3009              	.LASF53:
ARM GAS  C:\Users\ddemidov\AppData\Local\Temp\ccUDC9zP.s 			page 75


 3010 00be 433A5C55 		.ascii	"C:\\Users\\ddemidov\\Documents\\PSoC Creator\\BLE_F"
 3010      73657273 
 3010      5C646465 
 3010      6D69646F 
 3010      765C446F 
 3011 00ec 696E644D 		.ascii	"indMe01\\SenseAbility.cydsn\000"
 3011      6530315C 
 3011      53656E73 
 3011      65416269 
 3011      6C697479 
 3012              	.LASF3:
 3013 0107 73686F72 		.ascii	"short unsigned int\000"
 3013      7420756E 
 3013      7369676E 
 3013      65642069 
 3013      6E7400
 3014              	.LASF28:
 3015 011a 4932434D 		.ascii	"I2CM_I2CMasterGetWriteBufSize\000"
 3015      5F493243 
 3015      4D617374 
 3015      65724765 
 3015      74577269 
 3016              	.LASF22:
 3017 0138 4932434D 		.ascii	"I2CM_I2CMasterSendStop\000"
 3017      5F493243 
 3017      4D617374 
 3017      65725365 
 3017      6E645374 
 3018              	.LASF41:
 3019 014f 4932434D 		.ascii	"I2CM_state\000"
 3019      5F737461 
 3019      746500
 3020              	.LASF32:
 3021 015a 73746174 		.ascii	"status\000"
 3021      757300
 3022              	.LASF19:
 3023 0161 72657365 		.ascii	"resetIp\000"
 3023      74497000 
 3024              	.LASF42:
 3025 0169 4932434D 		.ascii	"I2CM_mstrStatus\000"
 3025      5F6D7374 
 3025      72537461 
 3025      74757300 
 3026              	.LASF12:
 3027 0179 666C6F61 		.ascii	"float\000"
 3027      7400
 3028              	.LASF48:
 3029 017f 4932434D 		.ascii	"I2CM_mstrWrBufSize\000"
 3029      5F6D7374 
 3029      72577242 
 3029      75665369 
 3029      7A6500
 3030              	.LASF45:
 3031 0192 4932434D 		.ascii	"I2CM_mstrRdBufSize\000"
 3031      5F6D7374 
 3031      72526442 
 3031      75665369 
ARM GAS  C:\Users\ddemidov\AppData\Local\Temp\ccUDC9zP.s 			page 76


 3031      7A6500
 3032              	.LASF5:
 3033 01a5 6C6F6E67 		.ascii	"long unsigned int\000"
 3033      20756E73 
 3033      69676E65 
 3033      6420696E 
 3033      7400
 3034              	.LASF40:
 3035 01b7 4932434D 		.ascii	"I2CM_I2CMasterSendRestart\000"
 3035      5F493243 
 3035      4D617374 
 3035      65725365 
 3035      6E645265 
 3036              	.LASF9:
 3037 01d1 75696E74 		.ascii	"uint8\000"
 3037      3800
 3038              	.LASF44:
 3039 01d7 4932434D 		.ascii	"I2CM_mstrRdBufPtr\000"
 3039      5F6D7374 
 3039      72526442 
 3039      75665074 
 3039      7200
 3040              	.LASF26:
 3041 01e9 61636B4E 		.ascii	"ackNack\000"
 3041      61636B00 
 3042              	.LASF20:
 3043 01f1 65727253 		.ascii	"errStatus\000"
 3043      74617475 
 3043      7300
 3044              	.LASF1:
 3045 01fb 756E7369 		.ascii	"unsigned char\000"
 3045      676E6564 
 3045      20636861 
 3045      7200
 3046              	.LASF35:
 3047 0209 4932434D 		.ascii	"I2CM_I2CMasterWriteBuf\000"
 3047      5F493243 
 3047      4D617374 
 3047      65725772 
 3047      69746542 
 3048              	.LASF13:
 3049 0220 646F7562 		.ascii	"double\000"
 3049      6C6500
 3050              	.LASF23:
 3051 0227 4932434D 		.ascii	"I2CM_I2CMasterWriteByte\000"
 3051      5F493243 
 3051      4D617374 
 3051      65725772 
 3051      69746542 
 3052              	.LASF18:
 3053 023f 62697452 		.ascii	"bitRnW\000"
 3053      6E5700
 3054              	.LASF55:
 3055 0246 4379496E 		.ascii	"CyIntEnable\000"
 3055      74456E61 
 3055      626C6500 
 3056              	.LASF52:
ARM GAS  C:\Users\ddemidov\AppData\Local\Temp\ccUDC9zP.s 			page 77


 3057 0252 2E5C4765 		.ascii	".\\Generated_Source\\PSoC4\\I2CM_I2C_MASTER.c\000"
 3057      6E657261 
 3057      7465645F 
 3057      536F7572 
 3057      63655C50 
 3058              	.LASF10:
 3059 027d 75696E74 		.ascii	"uint16\000"
 3059      313600
 3060              	.LASF39:
 3061 0284 72644461 		.ascii	"rdData\000"
 3061      746100
 3062              	.LASF11:
 3063 028b 75696E74 		.ascii	"uint32\000"
 3063      333200
 3064              	.LASF8:
 3065 0292 756E7369 		.ascii	"unsigned int\000"
 3065      676E6564 
 3065      20696E74 
 3065      00
 3066              	.LASF49:
 3067 029f 4932434D 		.ascii	"I2CM_mstrWrBufIndex\000"
 3067      5F6D7374 
 3067      72577242 
 3067      7566496E 
 3067      64657800 
 3068              	.LASF36:
 3069 02b3 77724461 		.ascii	"wrData\000"
 3069      746100
 3070              	.LASF7:
 3071 02ba 6C6F6E67 		.ascii	"long long unsigned int\000"
 3071      206C6F6E 
 3071      6720756E 
 3071      7369676E 
 3071      65642069 
 3072              	.LASF29:
 3073 02d1 4932434D 		.ascii	"I2CM_I2CMasterClearReadBuf\000"
 3073      5F493243 
 3073      4D617374 
 3073      6572436C 
 3073      65617252 
 3074              	.LASF37:
 3075 02ec 6D6F6465 		.ascii	"mode\000"
 3075      00
 3076              	.LASF17:
 3077 02f1 736C6176 		.ascii	"slaveAddress\000"
 3077      65416464 
 3077      72657373 
 3077      00
 3078              	.LASF16:
 3079 02fe 73697A65 		.ascii	"sizetype\000"
 3079      74797065 
 3079      00
 3080              	.LASF6:
 3081 0307 6C6F6E67 		.ascii	"long long int\000"
 3081      206C6F6E 
 3081      6720696E 
 3081      7400
ARM GAS  C:\Users\ddemidov\AppData\Local\Temp\ccUDC9zP.s 			page 78


 3082              	.LASF47:
 3083 0315 4932434D 		.ascii	"I2CM_mstrWrBufPtr\000"
 3083      5F6D7374 
 3083      72577242 
 3083      75665074 
 3083      7200
 3084              	.LASF14:
 3085 0327 63686172 		.ascii	"char\000"
 3085      00
 3086              	.LASF30:
 3087 032c 4932434D 		.ascii	"I2CM_I2CMasterClearWriteBuf\000"
 3087      5F493243 
 3087      4D617374 
 3087      6572436C 
 3087      65617257 
 3088              	.LASF43:
 3089 0348 4932434D 		.ascii	"I2CM_mstrControl\000"
 3089      5F6D7374 
 3089      72436F6E 
 3089      74726F6C 
 3089      00
 3090              	.LASF54:
 3091 0359 4379496E 		.ascii	"CyIntDisable\000"
 3091      74446973 
 3091      61626C65 
 3091      00
 3092              	.LASF33:
 3093 0366 4932434D 		.ascii	"I2CM_I2CMasterClearStatus\000"
 3093      5F493243 
 3093      4D617374 
 3093      6572436C 
 3093      65617253 
 3094              	.LASF2:
 3095 0380 73686F72 		.ascii	"short int\000"
 3095      7420696E 
 3095      7400
 3096              	.LASF24:
 3097 038a 74686542 		.ascii	"theByte\000"
 3097      79746500 
 3098              	.LASF21:
 3099 0392 4932434D 		.ascii	"I2CM_I2CMasterSendStart\000"
 3099      5F493243 
 3099      4D617374 
 3099      65725365 
 3099      6E645374 
 3100              	.LASF4:
 3101 03aa 6C6F6E67 		.ascii	"long int\000"
 3101      20696E74 
 3101      00
 3102              	.LASF27:
 3103 03b3 4932434D 		.ascii	"I2CM_I2CMasterGetReadBufSize\000"
 3103      5F493243 
 3103      4D617374 
 3103      65724765 
 3103      74526561 
 3104              	.LASF34:
 3105 03d0 4932434D 		.ascii	"I2CM_I2CReStartGeneration\000"
ARM GAS  C:\Users\ddemidov\AppData\Local\Temp\ccUDC9zP.s 			page 79


 3105      5F493243 
 3105      52655374 
 3105      61727447 
 3105      656E6572 
 3106              	.LASF0:
 3107 03ea 7369676E 		.ascii	"signed char\000"
 3107      65642063 
 3107      68617200 
 3108              	.LASF25:
 3109 03f6 4932434D 		.ascii	"I2CM_I2CMasterReadByte\000"
 3109      5F493243 
 3109      4D617374 
 3109      65725265 
 3109      61644279 
 3110              	.LASF31:
 3111 040d 4932434D 		.ascii	"I2CM_I2CMasterStatus\000"
 3111      5F493243 
 3111      4D617374 
 3111      65725374 
 3111      61747573 
 3112              	.LASF50:
 3113 0422 4932434D 		.ascii	"I2CM_mstrWrBufIndexTmp\000"
 3113      5F6D7374 
 3113      72577242 
 3113      7566496E 
 3113      64657854 
 3114              		.ident	"GCC: (GNU Tools for ARM Embedded Processors) 4.9.3 20150303 (release) [ARM/embedded-4_9-br
