ARM GAS  C:\Users\ddemidov\AppData\Local\Temp\ccUDC9zP.s 			page 1


   1              		.cpu cortex-m0
   2              		.fpu softvfp
   3              		.eabi_attribute 20, 1
   4              		.eabi_attribute 21, 1
   5              		.eabi_attribute 23, 3
   6              		.eabi_attribute 24, 1
   7              		.eabi_attribute 25, 1
   8              		.eabi_attribute 26, 1
   9              		.eabi_attribute 30, 4
  10              		.eabi_attribute 34, 0
  11              		.eabi_attribute 18, 4
  12              		.code	16
  13              		.file	"I2CM_I2C_MASTER.c"
  14              		.text
  15              	.Ltext0:
  16              		.cfi_sections	.debug_frame
  17              		.section	.text.I2CM_I2CMasterSendStart,"ax",%progbits
  18              		.align	1
  19              		.global	I2CM_I2CMasterSendStart
  20              		.code	16
  21              		.thumb_func
  22              		.type	I2CM_I2CMasterSendStart, %function
  23              	I2CM_I2CMasterSendStart:
  24              	.LFB4:
  25              		.file 1 ".\\Generated_Source\\PSoC4\\I2CM_I2C_MASTER.c"
   1:.\Generated_Source\PSoC4/I2CM_I2C_MASTER.c **** /*******************************************************************************
   2:.\Generated_Source\PSoC4/I2CM_I2C_MASTER.c **** * File Name: I2CM_I2C_MASTER.c
   3:.\Generated_Source\PSoC4/I2CM_I2C_MASTER.c **** * Version 3.0
   4:.\Generated_Source\PSoC4/I2CM_I2C_MASTER.c **** *
   5:.\Generated_Source\PSoC4/I2CM_I2C_MASTER.c **** * Description:
   6:.\Generated_Source\PSoC4/I2CM_I2C_MASTER.c **** *  This file provides the source code to the API for the SCB Component in
   7:.\Generated_Source\PSoC4/I2CM_I2C_MASTER.c **** *  I2C Master mode.
   8:.\Generated_Source\PSoC4/I2CM_I2C_MASTER.c **** *
   9:.\Generated_Source\PSoC4/I2CM_I2C_MASTER.c **** * Note:
  10:.\Generated_Source\PSoC4/I2CM_I2C_MASTER.c **** *
  11:.\Generated_Source\PSoC4/I2CM_I2C_MASTER.c **** *******************************************************************************
  12:.\Generated_Source\PSoC4/I2CM_I2C_MASTER.c **** * Copyright 2013-2015, Cypress Semiconductor Corporation.  All rights reserved.
  13:.\Generated_Source\PSoC4/I2CM_I2C_MASTER.c **** * You may use this file only in accordance with the license, terms, conditions,
  14:.\Generated_Source\PSoC4/I2CM_I2C_MASTER.c **** * disclaimers, and limitations in the end user license agreement accompanying
  15:.\Generated_Source\PSoC4/I2CM_I2C_MASTER.c **** * the software package with which this file was provided.
  16:.\Generated_Source\PSoC4/I2CM_I2C_MASTER.c **** *******************************************************************************/
  17:.\Generated_Source\PSoC4/I2CM_I2C_MASTER.c **** 
  18:.\Generated_Source\PSoC4/I2CM_I2C_MASTER.c **** #include "I2CM_PVT.h"
  19:.\Generated_Source\PSoC4/I2CM_I2C_MASTER.c **** #include "I2CM_I2C_PVT.h"
  20:.\Generated_Source\PSoC4/I2CM_I2C_MASTER.c **** 
  21:.\Generated_Source\PSoC4/I2CM_I2C_MASTER.c **** #if(I2CM_I2C_MASTER_CONST)
  22:.\Generated_Source\PSoC4/I2CM_I2C_MASTER.c **** 
  23:.\Generated_Source\PSoC4/I2CM_I2C_MASTER.c **** /***************************************
  24:.\Generated_Source\PSoC4/I2CM_I2C_MASTER.c **** *      I2C Master Private Vars
  25:.\Generated_Source\PSoC4/I2CM_I2C_MASTER.c **** ***************************************/
  26:.\Generated_Source\PSoC4/I2CM_I2C_MASTER.c **** 
  27:.\Generated_Source\PSoC4/I2CM_I2C_MASTER.c **** /* Master variables */
  28:.\Generated_Source\PSoC4/I2CM_I2C_MASTER.c **** volatile uint16 I2CM_mstrStatus;      /* Master Status byte  */
  29:.\Generated_Source\PSoC4/I2CM_I2C_MASTER.c **** volatile uint8  I2CM_mstrControl;     /* Master Control byte */
  30:.\Generated_Source\PSoC4/I2CM_I2C_MASTER.c **** 
  31:.\Generated_Source\PSoC4/I2CM_I2C_MASTER.c **** /* Receive buffer variables */
  32:.\Generated_Source\PSoC4/I2CM_I2C_MASTER.c **** volatile uint8 * I2CM_mstrRdBufPtr;   /* Pointer to Master Read buffer */
ARM GAS  C:\Users\ddemidov\AppData\Local\Temp\ccUDC9zP.s 			page 2


  33:.\Generated_Source\PSoC4/I2CM_I2C_MASTER.c **** volatile uint32  I2CM_mstrRdBufSize;  /* Master Read buffer size       */
  34:.\Generated_Source\PSoC4/I2CM_I2C_MASTER.c **** volatile uint32  I2CM_mstrRdBufIndex; /* Master Read buffer Index      */
  35:.\Generated_Source\PSoC4/I2CM_I2C_MASTER.c **** 
  36:.\Generated_Source\PSoC4/I2CM_I2C_MASTER.c **** /* Transmit buffer variables */
  37:.\Generated_Source\PSoC4/I2CM_I2C_MASTER.c **** volatile uint8 * I2CM_mstrWrBufPtr;   /* Pointer to Master Write buffer */
  38:.\Generated_Source\PSoC4/I2CM_I2C_MASTER.c **** volatile uint32  I2CM_mstrWrBufSize;  /* Master Write buffer size       */
  39:.\Generated_Source\PSoC4/I2CM_I2C_MASTER.c **** volatile uint32  I2CM_mstrWrBufIndex; /* Master Write buffer Index      */
  40:.\Generated_Source\PSoC4/I2CM_I2C_MASTER.c **** volatile uint32  I2CM_mstrWrBufIndexTmp; /* Master Write buffer Index Tmp */
  41:.\Generated_Source\PSoC4/I2CM_I2C_MASTER.c **** 
  42:.\Generated_Source\PSoC4/I2CM_I2C_MASTER.c **** #if (!I2CM_CY_SCBIP_V0 && \
  43:.\Generated_Source\PSoC4/I2CM_I2C_MASTER.c ****     I2CM_I2C_MULTI_MASTER_SLAVE_CONST && I2CM_I2C_WAKE_ENABLE_CONST)
  44:.\Generated_Source\PSoC4/I2CM_I2C_MASTER.c ****     static void I2CM_I2CMasterDisableEcAm(void);
  45:.\Generated_Source\PSoC4/I2CM_I2C_MASTER.c **** #endif /* (!I2CM_CY_SCBIP_V0) */
  46:.\Generated_Source\PSoC4/I2CM_I2C_MASTER.c **** 
  47:.\Generated_Source\PSoC4/I2CM_I2C_MASTER.c **** 
  48:.\Generated_Source\PSoC4/I2CM_I2C_MASTER.c **** /*******************************************************************************
  49:.\Generated_Source\PSoC4/I2CM_I2C_MASTER.c **** * Function Name: I2CM_I2CMasterWriteBuf
  50:.\Generated_Source\PSoC4/I2CM_I2C_MASTER.c **** ********************************************************************************
  51:.\Generated_Source\PSoC4/I2CM_I2C_MASTER.c **** *
  52:.\Generated_Source\PSoC4/I2CM_I2C_MASTER.c **** * Summary:
  53:.\Generated_Source\PSoC4/I2CM_I2C_MASTER.c **** * Automatically writes an entire buffer of data to a slave device.
  54:.\Generated_Source\PSoC4/I2CM_I2C_MASTER.c **** * Once the data transfer is initiated by this function, further data transfer
  55:.\Generated_Source\PSoC4/I2CM_I2C_MASTER.c **** * is handled by the included ISR.
  56:.\Generated_Source\PSoC4/I2CM_I2C_MASTER.c **** * Enables the I2C interrupt and clears SCB_ I2C_MSTAT_WR_CMPLT status.
  57:.\Generated_Source\PSoC4/I2CM_I2C_MASTER.c **** *
  58:.\Generated_Source\PSoC4/I2CM_I2C_MASTER.c **** * Parameters:
  59:.\Generated_Source\PSoC4/I2CM_I2C_MASTER.c **** *  slaveAddr: 7-bit slave address.
  60:.\Generated_Source\PSoC4/I2CM_I2C_MASTER.c **** *  xferData:  Pointer to buffer of data to be sent.
  61:.\Generated_Source\PSoC4/I2CM_I2C_MASTER.c **** *  cnt:       Size of buffer to send.
  62:.\Generated_Source\PSoC4/I2CM_I2C_MASTER.c **** *  mode:      Transfer mode defines: start or restart condition generation at
  63:.\Generated_Source\PSoC4/I2CM_I2C_MASTER.c **** *             begin of the transfer and complete the transfer or halt before
  64:.\Generated_Source\PSoC4/I2CM_I2C_MASTER.c **** *             generating a stop.
  65:.\Generated_Source\PSoC4/I2CM_I2C_MASTER.c **** *
  66:.\Generated_Source\PSoC4/I2CM_I2C_MASTER.c **** * Return:
  67:.\Generated_Source\PSoC4/I2CM_I2C_MASTER.c **** *  Error status.
  68:.\Generated_Source\PSoC4/I2CM_I2C_MASTER.c **** *
  69:.\Generated_Source\PSoC4/I2CM_I2C_MASTER.c **** * Global variables:
  70:.\Generated_Source\PSoC4/I2CM_I2C_MASTER.c **** *  I2CM_mstrStatus  - used to store current status of I2C Master.
  71:.\Generated_Source\PSoC4/I2CM_I2C_MASTER.c **** *  I2CM_state       - used to store current state of software FSM.
  72:.\Generated_Source\PSoC4/I2CM_I2C_MASTER.c **** *  I2CM_mstrControl - used to control master end of transaction with
  73:.\Generated_Source\PSoC4/I2CM_I2C_MASTER.c **** *  or without the Stop generation.
  74:.\Generated_Source\PSoC4/I2CM_I2C_MASTER.c **** *  I2CM_mstrWrBufPtr - used to store pointer to master write buffer.
  75:.\Generated_Source\PSoC4/I2CM_I2C_MASTER.c **** *  I2CM_mstrWrBufIndex - used to current index within master write
  76:.\Generated_Source\PSoC4/I2CM_I2C_MASTER.c **** *  buffer.
  77:.\Generated_Source\PSoC4/I2CM_I2C_MASTER.c **** *  I2CM_mstrWrBufSize - used to store master write buffer size.
  78:.\Generated_Source\PSoC4/I2CM_I2C_MASTER.c **** *
  79:.\Generated_Source\PSoC4/I2CM_I2C_MASTER.c **** *******************************************************************************/
  80:.\Generated_Source\PSoC4/I2CM_I2C_MASTER.c **** uint32 I2CM_I2CMasterWriteBuf(uint32 slaveAddress, uint8 * wrData, uint32 cnt, uint32 mode)
  81:.\Generated_Source\PSoC4/I2CM_I2C_MASTER.c **** {
  82:.\Generated_Source\PSoC4/I2CM_I2C_MASTER.c ****     uint32 errStatus;
  83:.\Generated_Source\PSoC4/I2CM_I2C_MASTER.c **** 
  84:.\Generated_Source\PSoC4/I2CM_I2C_MASTER.c ****     errStatus = I2CM_I2C_MSTR_NOT_READY;
  85:.\Generated_Source\PSoC4/I2CM_I2C_MASTER.c **** 
  86:.\Generated_Source\PSoC4/I2CM_I2C_MASTER.c ****     if(NULL != wrData)  /* Check buffer pointer */
  87:.\Generated_Source\PSoC4/I2CM_I2C_MASTER.c ****     {
  88:.\Generated_Source\PSoC4/I2CM_I2C_MASTER.c ****         /* Check FSM state and bus before generating Start/ReStart condition */
  89:.\Generated_Source\PSoC4/I2CM_I2C_MASTER.c ****         if(I2CM_CHECK_I2C_FSM_IDLE)
ARM GAS  C:\Users\ddemidov\AppData\Local\Temp\ccUDC9zP.s 			page 3


  90:.\Generated_Source\PSoC4/I2CM_I2C_MASTER.c ****         {
  91:.\Generated_Source\PSoC4/I2CM_I2C_MASTER.c ****             I2CM_DisableInt();  /* Lock from interruption */
  92:.\Generated_Source\PSoC4/I2CM_I2C_MASTER.c **** 
  93:.\Generated_Source\PSoC4/I2CM_I2C_MASTER.c ****             /* Check bus state */
  94:.\Generated_Source\PSoC4/I2CM_I2C_MASTER.c ****             errStatus = I2CM_CHECK_I2C_STATUS(I2CM_I2C_STATUS_BUS_BUSY) ?
  95:.\Generated_Source\PSoC4/I2CM_I2C_MASTER.c ****                             I2CM_I2C_MSTR_BUS_BUSY : I2CM_I2C_MSTR_NO_ERROR;
  96:.\Generated_Source\PSoC4/I2CM_I2C_MASTER.c ****         }
  97:.\Generated_Source\PSoC4/I2CM_I2C_MASTER.c ****         else if(I2CM_CHECK_I2C_FSM_HALT)
  98:.\Generated_Source\PSoC4/I2CM_I2C_MASTER.c ****         {
  99:.\Generated_Source\PSoC4/I2CM_I2C_MASTER.c ****             I2CM_mstrStatus &= (uint16) ~I2CM_I2C_MSTAT_XFER_HALT;
 100:.\Generated_Source\PSoC4/I2CM_I2C_MASTER.c ****                               errStatus  = I2CM_I2C_MSTR_NO_ERROR;
 101:.\Generated_Source\PSoC4/I2CM_I2C_MASTER.c ****         }
 102:.\Generated_Source\PSoC4/I2CM_I2C_MASTER.c ****         else
 103:.\Generated_Source\PSoC4/I2CM_I2C_MASTER.c ****         {
 104:.\Generated_Source\PSoC4/I2CM_I2C_MASTER.c ****             /* Unexpected FSM state: exit */
 105:.\Generated_Source\PSoC4/I2CM_I2C_MASTER.c ****         }
 106:.\Generated_Source\PSoC4/I2CM_I2C_MASTER.c ****     }
 107:.\Generated_Source\PSoC4/I2CM_I2C_MASTER.c **** 
 108:.\Generated_Source\PSoC4/I2CM_I2C_MASTER.c ****     /* Check if master is ready to start  */
 109:.\Generated_Source\PSoC4/I2CM_I2C_MASTER.c ****     if(I2CM_I2C_MSTR_NO_ERROR == errStatus) /* No error proceed */
 110:.\Generated_Source\PSoC4/I2CM_I2C_MASTER.c ****     {
 111:.\Generated_Source\PSoC4/I2CM_I2C_MASTER.c ****     #if (!I2CM_CY_SCBIP_V0 && \
 112:.\Generated_Source\PSoC4/I2CM_I2C_MASTER.c ****         I2CM_I2C_MULTI_MASTER_SLAVE_CONST && I2CM_I2C_WAKE_ENABLE_CONST)
 113:.\Generated_Source\PSoC4/I2CM_I2C_MASTER.c ****             I2CM_I2CMasterDisableEcAm();
 114:.\Generated_Source\PSoC4/I2CM_I2C_MASTER.c ****     #endif /* (!I2CM_CY_SCBIP_V0) */
 115:.\Generated_Source\PSoC4/I2CM_I2C_MASTER.c **** 
 116:.\Generated_Source\PSoC4/I2CM_I2C_MASTER.c ****         /* Set up write transaction */
 117:.\Generated_Source\PSoC4/I2CM_I2C_MASTER.c ****         I2CM_state = I2CM_I2C_FSM_MSTR_WR_ADDR;
 118:.\Generated_Source\PSoC4/I2CM_I2C_MASTER.c ****         I2CM_mstrWrBufIndexTmp = 0u;
 119:.\Generated_Source\PSoC4/I2CM_I2C_MASTER.c ****         I2CM_mstrWrBufIndex    = 0u;
 120:.\Generated_Source\PSoC4/I2CM_I2C_MASTER.c ****         I2CM_mstrWrBufSize     = cnt;
 121:.\Generated_Source\PSoC4/I2CM_I2C_MASTER.c ****         I2CM_mstrWrBufPtr      = (volatile uint8 *) wrData;
 122:.\Generated_Source\PSoC4/I2CM_I2C_MASTER.c ****         I2CM_mstrControl       = (uint8) mode;
 123:.\Generated_Source\PSoC4/I2CM_I2C_MASTER.c **** 
 124:.\Generated_Source\PSoC4/I2CM_I2C_MASTER.c ****         slaveAddress = I2CM_GET_I2C_8BIT_ADDRESS(slaveAddress);
 125:.\Generated_Source\PSoC4/I2CM_I2C_MASTER.c **** 
 126:.\Generated_Source\PSoC4/I2CM_I2C_MASTER.c ****         I2CM_mstrStatus &= (uint16) ~I2CM_I2C_MSTAT_WR_CMPLT;
 127:.\Generated_Source\PSoC4/I2CM_I2C_MASTER.c **** 
 128:.\Generated_Source\PSoC4/I2CM_I2C_MASTER.c ****         I2CM_ClearMasterInterruptSource(I2CM_INTR_MASTER_ALL);
 129:.\Generated_Source\PSoC4/I2CM_I2C_MASTER.c ****         I2CM_ClearTxInterruptSource(I2CM_INTR_TX_UNDERFLOW);
 130:.\Generated_Source\PSoC4/I2CM_I2C_MASTER.c **** 
 131:.\Generated_Source\PSoC4/I2CM_I2C_MASTER.c ****         /* The TX and RX FIFO have to be EMPTY */
 132:.\Generated_Source\PSoC4/I2CM_I2C_MASTER.c **** 
 133:.\Generated_Source\PSoC4/I2CM_I2C_MASTER.c ****         /* Enable interrupt source to catch when address is sent */
 134:.\Generated_Source\PSoC4/I2CM_I2C_MASTER.c ****         I2CM_SetTxInterruptMode(I2CM_INTR_TX_UNDERFLOW);
 135:.\Generated_Source\PSoC4/I2CM_I2C_MASTER.c **** 
 136:.\Generated_Source\PSoC4/I2CM_I2C_MASTER.c ****         /* Generate Start or ReStart */
 137:.\Generated_Source\PSoC4/I2CM_I2C_MASTER.c ****         if(I2CM_CHECK_I2C_MODE_RESTART(mode))
 138:.\Generated_Source\PSoC4/I2CM_I2C_MASTER.c ****         {
 139:.\Generated_Source\PSoC4/I2CM_I2C_MASTER.c ****             I2CM_I2C_MASTER_GENERATE_RESTART;
 140:.\Generated_Source\PSoC4/I2CM_I2C_MASTER.c ****             I2CM_TX_FIFO_WR_REG = slaveAddress;
 141:.\Generated_Source\PSoC4/I2CM_I2C_MASTER.c ****         }
 142:.\Generated_Source\PSoC4/I2CM_I2C_MASTER.c ****         else
 143:.\Generated_Source\PSoC4/I2CM_I2C_MASTER.c ****         {
 144:.\Generated_Source\PSoC4/I2CM_I2C_MASTER.c ****             I2CM_TX_FIFO_WR_REG = slaveAddress;
 145:.\Generated_Source\PSoC4/I2CM_I2C_MASTER.c ****             I2CM_I2C_MASTER_GENERATE_START;
 146:.\Generated_Source\PSoC4/I2CM_I2C_MASTER.c ****         }
ARM GAS  C:\Users\ddemidov\AppData\Local\Temp\ccUDC9zP.s 			page 4


 147:.\Generated_Source\PSoC4/I2CM_I2C_MASTER.c ****     }
 148:.\Generated_Source\PSoC4/I2CM_I2C_MASTER.c **** 
 149:.\Generated_Source\PSoC4/I2CM_I2C_MASTER.c ****     I2CM_EnableInt();   /* Release lock */
 150:.\Generated_Source\PSoC4/I2CM_I2C_MASTER.c **** 
 151:.\Generated_Source\PSoC4/I2CM_I2C_MASTER.c ****     return(errStatus);
 152:.\Generated_Source\PSoC4/I2CM_I2C_MASTER.c **** }
 153:.\Generated_Source\PSoC4/I2CM_I2C_MASTER.c **** 
 154:.\Generated_Source\PSoC4/I2CM_I2C_MASTER.c **** 
 155:.\Generated_Source\PSoC4/I2CM_I2C_MASTER.c **** /*******************************************************************************
 156:.\Generated_Source\PSoC4/I2CM_I2C_MASTER.c **** * Function Name: I2CM_I2CMasterReadBuf
 157:.\Generated_Source\PSoC4/I2CM_I2C_MASTER.c **** ********************************************************************************
 158:.\Generated_Source\PSoC4/I2CM_I2C_MASTER.c **** *
 159:.\Generated_Source\PSoC4/I2CM_I2C_MASTER.c **** * Summary:
 160:.\Generated_Source\PSoC4/I2CM_I2C_MASTER.c **** *  Automatically reads an entire buffer of data from a slave device.
 161:.\Generated_Source\PSoC4/I2CM_I2C_MASTER.c **** *  Once the data transfer is initiated by this function, further data transfer
 162:.\Generated_Source\PSoC4/I2CM_I2C_MASTER.c **** *  is handled by the included ISR.
 163:.\Generated_Source\PSoC4/I2CM_I2C_MASTER.c **** * Enables the I2C interrupt and clears SCB_ I2C_MSTAT_RD_CMPLT status.
 164:.\Generated_Source\PSoC4/I2CM_I2C_MASTER.c **** *
 165:.\Generated_Source\PSoC4/I2CM_I2C_MASTER.c **** * Parameters:
 166:.\Generated_Source\PSoC4/I2CM_I2C_MASTER.c **** *  slaveAddr: 7-bit slave address.
 167:.\Generated_Source\PSoC4/I2CM_I2C_MASTER.c **** *  xferData:  Pointer to buffer where to put data from slave.
 168:.\Generated_Source\PSoC4/I2CM_I2C_MASTER.c **** *  cnt:       Size of buffer to read.
 169:.\Generated_Source\PSoC4/I2CM_I2C_MASTER.c **** *  mode:      Transfer mode defines: start or restart condition generation at
 170:.\Generated_Source\PSoC4/I2CM_I2C_MASTER.c **** *             begin of the transfer and complete the transfer or halt before
 171:.\Generated_Source\PSoC4/I2CM_I2C_MASTER.c **** *             generating a stop.
 172:.\Generated_Source\PSoC4/I2CM_I2C_MASTER.c **** *
 173:.\Generated_Source\PSoC4/I2CM_I2C_MASTER.c **** * Return:
 174:.\Generated_Source\PSoC4/I2CM_I2C_MASTER.c **** *  Error status.
 175:.\Generated_Source\PSoC4/I2CM_I2C_MASTER.c **** *
 176:.\Generated_Source\PSoC4/I2CM_I2C_MASTER.c **** * Global variables:
 177:.\Generated_Source\PSoC4/I2CM_I2C_MASTER.c **** *  I2CM_mstrStatus  - used to store current status of I2C Master.
 178:.\Generated_Source\PSoC4/I2CM_I2C_MASTER.c **** *  I2CM_state       - used to store current state of software FSM.
 179:.\Generated_Source\PSoC4/I2CM_I2C_MASTER.c **** *  I2CM_mstrControl - used to control master end of transaction with
 180:.\Generated_Source\PSoC4/I2CM_I2C_MASTER.c **** *  or without the Stop generation.
 181:.\Generated_Source\PSoC4/I2CM_I2C_MASTER.c **** *  I2CM_mstrRdBufPtr - used to store pointer to master write buffer.
 182:.\Generated_Source\PSoC4/I2CM_I2C_MASTER.c **** *  I2CM_mstrRdBufIndex - used to current index within master write
 183:.\Generated_Source\PSoC4/I2CM_I2C_MASTER.c **** *  buffer.
 184:.\Generated_Source\PSoC4/I2CM_I2C_MASTER.c **** *  I2CM_mstrRdBufSize - used to store master write buffer size.
 185:.\Generated_Source\PSoC4/I2CM_I2C_MASTER.c **** *
 186:.\Generated_Source\PSoC4/I2CM_I2C_MASTER.c **** *******************************************************************************/
 187:.\Generated_Source\PSoC4/I2CM_I2C_MASTER.c **** uint32 I2CM_I2CMasterReadBuf(uint32 slaveAddress, uint8 * rdData, uint32 cnt, uint32 mode)
 188:.\Generated_Source\PSoC4/I2CM_I2C_MASTER.c **** {
 189:.\Generated_Source\PSoC4/I2CM_I2C_MASTER.c ****     uint32 errStatus;
 190:.\Generated_Source\PSoC4/I2CM_I2C_MASTER.c **** 
 191:.\Generated_Source\PSoC4/I2CM_I2C_MASTER.c ****     errStatus = I2CM_I2C_MSTR_NOT_READY;
 192:.\Generated_Source\PSoC4/I2CM_I2C_MASTER.c **** 
 193:.\Generated_Source\PSoC4/I2CM_I2C_MASTER.c ****     if(NULL != rdData)
 194:.\Generated_Source\PSoC4/I2CM_I2C_MASTER.c ****     {
 195:.\Generated_Source\PSoC4/I2CM_I2C_MASTER.c ****         /* Check FSM state and bus before generating Start/ReStart condition */
 196:.\Generated_Source\PSoC4/I2CM_I2C_MASTER.c ****         if(I2CM_CHECK_I2C_FSM_IDLE)
 197:.\Generated_Source\PSoC4/I2CM_I2C_MASTER.c ****         {
 198:.\Generated_Source\PSoC4/I2CM_I2C_MASTER.c ****             I2CM_DisableInt();  /* Lock from interruption */
 199:.\Generated_Source\PSoC4/I2CM_I2C_MASTER.c **** 
 200:.\Generated_Source\PSoC4/I2CM_I2C_MASTER.c ****             /* Check bus state */
 201:.\Generated_Source\PSoC4/I2CM_I2C_MASTER.c ****             errStatus = I2CM_CHECK_I2C_STATUS(I2CM_I2C_STATUS_BUS_BUSY) ?
 202:.\Generated_Source\PSoC4/I2CM_I2C_MASTER.c ****                             I2CM_I2C_MSTR_BUS_BUSY : I2CM_I2C_MSTR_NO_ERROR;
 203:.\Generated_Source\PSoC4/I2CM_I2C_MASTER.c ****         }
ARM GAS  C:\Users\ddemidov\AppData\Local\Temp\ccUDC9zP.s 			page 5


 204:.\Generated_Source\PSoC4/I2CM_I2C_MASTER.c ****         else if(I2CM_CHECK_I2C_FSM_HALT)
 205:.\Generated_Source\PSoC4/I2CM_I2C_MASTER.c ****         {
 206:.\Generated_Source\PSoC4/I2CM_I2C_MASTER.c ****             I2CM_mstrStatus &= (uint16) ~I2CM_I2C_MSTAT_XFER_HALT;
 207:.\Generated_Source\PSoC4/I2CM_I2C_MASTER.c ****                               errStatus  =  I2CM_I2C_MSTR_NO_ERROR;
 208:.\Generated_Source\PSoC4/I2CM_I2C_MASTER.c ****         }
 209:.\Generated_Source\PSoC4/I2CM_I2C_MASTER.c ****         else
 210:.\Generated_Source\PSoC4/I2CM_I2C_MASTER.c ****         {
 211:.\Generated_Source\PSoC4/I2CM_I2C_MASTER.c ****             /* Unexpected FSM state: exit */
 212:.\Generated_Source\PSoC4/I2CM_I2C_MASTER.c ****         }
 213:.\Generated_Source\PSoC4/I2CM_I2C_MASTER.c ****     }
 214:.\Generated_Source\PSoC4/I2CM_I2C_MASTER.c **** 
 215:.\Generated_Source\PSoC4/I2CM_I2C_MASTER.c ****     /* Check master ready to proceed */
 216:.\Generated_Source\PSoC4/I2CM_I2C_MASTER.c ****     if(I2CM_I2C_MSTR_NO_ERROR == errStatus) /* No error proceed */
 217:.\Generated_Source\PSoC4/I2CM_I2C_MASTER.c ****     {
 218:.\Generated_Source\PSoC4/I2CM_I2C_MASTER.c ****         #if (!I2CM_CY_SCBIP_V0 && \
 219:.\Generated_Source\PSoC4/I2CM_I2C_MASTER.c ****         I2CM_I2C_MULTI_MASTER_SLAVE_CONST && I2CM_I2C_WAKE_ENABLE_CONST)
 220:.\Generated_Source\PSoC4/I2CM_I2C_MASTER.c ****             I2CM_I2CMasterDisableEcAm();
 221:.\Generated_Source\PSoC4/I2CM_I2C_MASTER.c ****         #endif /* (!I2CM_CY_SCBIP_V0) */
 222:.\Generated_Source\PSoC4/I2CM_I2C_MASTER.c **** 
 223:.\Generated_Source\PSoC4/I2CM_I2C_MASTER.c ****         /* Set up read transaction */
 224:.\Generated_Source\PSoC4/I2CM_I2C_MASTER.c ****         I2CM_state = I2CM_I2C_FSM_MSTR_RD_ADDR;
 225:.\Generated_Source\PSoC4/I2CM_I2C_MASTER.c ****         I2CM_mstrRdBufIndex = 0u;
 226:.\Generated_Source\PSoC4/I2CM_I2C_MASTER.c ****         I2CM_mstrRdBufSize  = cnt;
 227:.\Generated_Source\PSoC4/I2CM_I2C_MASTER.c ****         I2CM_mstrRdBufPtr   = (volatile uint8 *) rdData;
 228:.\Generated_Source\PSoC4/I2CM_I2C_MASTER.c ****         I2CM_mstrControl    = (uint8) mode;
 229:.\Generated_Source\PSoC4/I2CM_I2C_MASTER.c **** 
 230:.\Generated_Source\PSoC4/I2CM_I2C_MASTER.c ****         slaveAddress = (I2CM_GET_I2C_8BIT_ADDRESS(slaveAddress) | I2CM_I2C_READ_FLAG);
 231:.\Generated_Source\PSoC4/I2CM_I2C_MASTER.c **** 
 232:.\Generated_Source\PSoC4/I2CM_I2C_MASTER.c ****         I2CM_mstrStatus &= (uint16) ~I2CM_I2C_MSTAT_RD_CMPLT;
 233:.\Generated_Source\PSoC4/I2CM_I2C_MASTER.c **** 
 234:.\Generated_Source\PSoC4/I2CM_I2C_MASTER.c ****         I2CM_ClearMasterInterruptSource(I2CM_INTR_MASTER_ALL);
 235:.\Generated_Source\PSoC4/I2CM_I2C_MASTER.c **** 
 236:.\Generated_Source\PSoC4/I2CM_I2C_MASTER.c ****         /* TX and RX FIFO have to be EMPTY */
 237:.\Generated_Source\PSoC4/I2CM_I2C_MASTER.c **** 
 238:.\Generated_Source\PSoC4/I2CM_I2C_MASTER.c ****         /* Prepare reading */
 239:.\Generated_Source\PSoC4/I2CM_I2C_MASTER.c ****         if(I2CM_mstrRdBufSize < I2CM_I2C_FIFO_SIZE)
 240:.\Generated_Source\PSoC4/I2CM_I2C_MASTER.c ****         {
 241:.\Generated_Source\PSoC4/I2CM_I2C_MASTER.c ****             /* Reading byte-by-byte */
 242:.\Generated_Source\PSoC4/I2CM_I2C_MASTER.c ****             I2CM_SetRxInterruptMode(I2CM_INTR_RX_NOT_EMPTY);
 243:.\Generated_Source\PSoC4/I2CM_I2C_MASTER.c ****         }
 244:.\Generated_Source\PSoC4/I2CM_I2C_MASTER.c ****         else
 245:.\Generated_Source\PSoC4/I2CM_I2C_MASTER.c ****         {
 246:.\Generated_Source\PSoC4/I2CM_I2C_MASTER.c ****             /* Receive RX FIFO chunks */
 247:.\Generated_Source\PSoC4/I2CM_I2C_MASTER.c ****             I2CM_ENABLE_MASTER_AUTO_DATA_ACK;
 248:.\Generated_Source\PSoC4/I2CM_I2C_MASTER.c ****             I2CM_SetRxInterruptMode(I2CM_INTR_RX_FULL);
 249:.\Generated_Source\PSoC4/I2CM_I2C_MASTER.c ****         }
 250:.\Generated_Source\PSoC4/I2CM_I2C_MASTER.c **** 
 251:.\Generated_Source\PSoC4/I2CM_I2C_MASTER.c ****         /* Generate Start or ReStart */
 252:.\Generated_Source\PSoC4/I2CM_I2C_MASTER.c ****         if(I2CM_CHECK_I2C_MODE_RESTART(mode))
 253:.\Generated_Source\PSoC4/I2CM_I2C_MASTER.c ****         {
 254:.\Generated_Source\PSoC4/I2CM_I2C_MASTER.c ****             I2CM_I2C_MASTER_GENERATE_RESTART;
 255:.\Generated_Source\PSoC4/I2CM_I2C_MASTER.c ****             I2CM_TX_FIFO_WR_REG = (slaveAddress);
 256:.\Generated_Source\PSoC4/I2CM_I2C_MASTER.c ****         }
 257:.\Generated_Source\PSoC4/I2CM_I2C_MASTER.c ****         else
 258:.\Generated_Source\PSoC4/I2CM_I2C_MASTER.c ****         {
 259:.\Generated_Source\PSoC4/I2CM_I2C_MASTER.c ****             I2CM_TX_FIFO_WR_REG = (slaveAddress);
 260:.\Generated_Source\PSoC4/I2CM_I2C_MASTER.c ****             I2CM_I2C_MASTER_GENERATE_START;
ARM GAS  C:\Users\ddemidov\AppData\Local\Temp\ccUDC9zP.s 			page 6


 261:.\Generated_Source\PSoC4/I2CM_I2C_MASTER.c ****         }
 262:.\Generated_Source\PSoC4/I2CM_I2C_MASTER.c ****     }
 263:.\Generated_Source\PSoC4/I2CM_I2C_MASTER.c **** 
 264:.\Generated_Source\PSoC4/I2CM_I2C_MASTER.c ****     I2CM_EnableInt();   /* Release lock */
 265:.\Generated_Source\PSoC4/I2CM_I2C_MASTER.c **** 
 266:.\Generated_Source\PSoC4/I2CM_I2C_MASTER.c ****     return(errStatus);
 267:.\Generated_Source\PSoC4/I2CM_I2C_MASTER.c **** }
 268:.\Generated_Source\PSoC4/I2CM_I2C_MASTER.c **** 
 269:.\Generated_Source\PSoC4/I2CM_I2C_MASTER.c **** 
 270:.\Generated_Source\PSoC4/I2CM_I2C_MASTER.c **** /*******************************************************************************
 271:.\Generated_Source\PSoC4/I2CM_I2C_MASTER.c **** * Function Name: I2CM_I2CMasterSendStart
 272:.\Generated_Source\PSoC4/I2CM_I2C_MASTER.c **** ********************************************************************************
 273:.\Generated_Source\PSoC4/I2CM_I2C_MASTER.c **** *
 274:.\Generated_Source\PSoC4/I2CM_I2C_MASTER.c **** * Summary:
 275:.\Generated_Source\PSoC4/I2CM_I2C_MASTER.c **** *  Generates Start condition and sends slave address with read/write bit.
 276:.\Generated_Source\PSoC4/I2CM_I2C_MASTER.c **** *  Disables the I2C interrupt.
 277:.\Generated_Source\PSoC4/I2CM_I2C_MASTER.c **** *  This function is blocking and does not return until start condition and
 278:.\Generated_Source\PSoC4/I2CM_I2C_MASTER.c **** *  address byte are sent and ACK/NACK response is received or errors occurred.
 279:.\Generated_Source\PSoC4/I2CM_I2C_MASTER.c **** *
 280:.\Generated_Source\PSoC4/I2CM_I2C_MASTER.c **** * Parameters:
 281:.\Generated_Source\PSoC4/I2CM_I2C_MASTER.c **** *  slaveAddress: Right justified 7-bit Slave address (valid range 8 to 120).
 282:.\Generated_Source\PSoC4/I2CM_I2C_MASTER.c **** *  bitRnW:       Direction of the following transfer. It is defined by
 283:.\Generated_Source\PSoC4/I2CM_I2C_MASTER.c **** *                read/write bit within address byte.
 284:.\Generated_Source\PSoC4/I2CM_I2C_MASTER.c **** *
 285:.\Generated_Source\PSoC4/I2CM_I2C_MASTER.c **** * Return:
 286:.\Generated_Source\PSoC4/I2CM_I2C_MASTER.c **** *  Error status.
 287:.\Generated_Source\PSoC4/I2CM_I2C_MASTER.c **** *
 288:.\Generated_Source\PSoC4/I2CM_I2C_MASTER.c **** * Global variables:
 289:.\Generated_Source\PSoC4/I2CM_I2C_MASTER.c **** *  I2CM_state - used to store current state of software FSM.
 290:.\Generated_Source\PSoC4/I2CM_I2C_MASTER.c **** *
 291:.\Generated_Source\PSoC4/I2CM_I2C_MASTER.c **** *******************************************************************************/
 292:.\Generated_Source\PSoC4/I2CM_I2C_MASTER.c **** uint32 I2CM_I2CMasterSendStart(uint32 slaveAddress, uint32 bitRnW)
 293:.\Generated_Source\PSoC4/I2CM_I2C_MASTER.c **** {
  26              		.loc 1 293 0
  27              		.cfi_startproc
  28              	.LVL0:
  29 0000 F8B5     		push	{r3, r4, r5, r6, r7, lr}
  30              		.cfi_def_cfa_offset 24
  31              		.cfi_offset 3, -24
  32              		.cfi_offset 4, -20
  33              		.cfi_offset 5, -16
  34              		.cfi_offset 6, -12
  35              		.cfi_offset 7, -8
  36              		.cfi_offset 14, -4
 294:.\Generated_Source\PSoC4/I2CM_I2C_MASTER.c ****     uint32  resetIp;
 295:.\Generated_Source\PSoC4/I2CM_I2C_MASTER.c ****     uint32 errStatus;
 296:.\Generated_Source\PSoC4/I2CM_I2C_MASTER.c **** 
 297:.\Generated_Source\PSoC4/I2CM_I2C_MASTER.c ****     resetIp   = 0u;
 298:.\Generated_Source\PSoC4/I2CM_I2C_MASTER.c ****     errStatus = I2CM_I2C_MSTR_NOT_READY;
 299:.\Generated_Source\PSoC4/I2CM_I2C_MASTER.c **** 
 300:.\Generated_Source\PSoC4/I2CM_I2C_MASTER.c ****     /* Check FSM state before generating Start condition */
 301:.\Generated_Source\PSoC4/I2CM_I2C_MASTER.c ****     if(I2CM_CHECK_I2C_FSM_IDLE)
  37              		.loc 1 301 0
  38 0002 264C     		ldr	r4, .L17
 298:.\Generated_Source\PSoC4/I2CM_I2C_MASTER.c **** 
  39              		.loc 1 298 0
  40 0004 0422     		mov	r2, #4
ARM GAS  C:\Users\ddemidov\AppData\Local\Temp\ccUDC9zP.s 			page 7


  41              		.loc 1 301 0
  42 0006 2378     		ldrb	r3, [r4]
  43 0008 102B     		cmp	r3, #16
  44 000a 44D1     		bne	.L2
 302:.\Generated_Source\PSoC4/I2CM_I2C_MASTER.c ****     {
 303:.\Generated_Source\PSoC4/I2CM_I2C_MASTER.c ****         /* If bus is free, generate Start condition */
 304:.\Generated_Source\PSoC4/I2CM_I2C_MASTER.c ****         if(I2CM_CHECK_I2C_STATUS(I2CM_I2C_STATUS_BUS_BUSY))
  45              		.loc 1 304 0
  46 000c 0125     		mov	r5, #1
  47 000e 244B     		ldr	r3, .L17+4
 305:.\Generated_Source\PSoC4/I2CM_I2C_MASTER.c ****         {
 306:.\Generated_Source\PSoC4/I2CM_I2C_MASTER.c ****             errStatus = I2CM_I2C_MSTR_BUS_BUSY;
  48              		.loc 1 306 0
  49 0010 9218     		add	r2, r2, r2
 304:.\Generated_Source\PSoC4/I2CM_I2C_MASTER.c ****         {
  50              		.loc 1 304 0
  51 0012 1B68     		ldr	r3, [r3]
  52 0014 2B42     		tst	r3, r5
  53 0016 3ED1     		bne	.L2
  54 0018 071C     		mov	r7, r0
 307:.\Generated_Source\PSoC4/I2CM_I2C_MASTER.c ****         }
 308:.\Generated_Source\PSoC4/I2CM_I2C_MASTER.c ****         else
 309:.\Generated_Source\PSoC4/I2CM_I2C_MASTER.c ****         {
 310:.\Generated_Source\PSoC4/I2CM_I2C_MASTER.c ****             I2CM_DisableInt();  /* Lock from interruption */
  55              		.loc 1 310 0
  56 001a 0A20     		mov	r0, #10
  57              	.LVL1:
  58 001c 0E1C     		mov	r6, r1
  59 001e FFF7FEFF 		bl	CyIntDisable
  60              	.LVL2:
 311:.\Generated_Source\PSoC4/I2CM_I2C_MASTER.c **** 
 312:.\Generated_Source\PSoC4/I2CM_I2C_MASTER.c ****         #if (!I2CM_CY_SCBIP_V0 && \
 313:.\Generated_Source\PSoC4/I2CM_I2C_MASTER.c ****             I2CM_I2C_MULTI_MASTER_SLAVE_CONST && I2CM_I2C_WAKE_ENABLE_CONST)
 314:.\Generated_Source\PSoC4/I2CM_I2C_MASTER.c ****             I2CM_I2CMasterDisableEcAm();
 315:.\Generated_Source\PSoC4/I2CM_I2C_MASTER.c ****         #endif /* (!I2CM_CY_SCBIP_V0) */
 316:.\Generated_Source\PSoC4/I2CM_I2C_MASTER.c **** 
 317:.\Generated_Source\PSoC4/I2CM_I2C_MASTER.c ****             slaveAddress = I2CM_GET_I2C_8BIT_ADDRESS(slaveAddress);
  61              		.loc 1 317 0
  62 0022 FF23     		mov	r3, #255
  63 0024 7800     		lsl	r0, r7, #1
  64 0026 1840     		and	r0, r3
  65              	.LVL3:
 318:.\Generated_Source\PSoC4/I2CM_I2C_MASTER.c **** 
 319:.\Generated_Source\PSoC4/I2CM_I2C_MASTER.c ****             if(0u == bitRnW) /* Write direction */
  66              		.loc 1 319 0
  67 0028 002E     		cmp	r6, #0
  68 002a 02D1     		bne	.L3
 320:.\Generated_Source\PSoC4/I2CM_I2C_MASTER.c ****             {
 321:.\Generated_Source\PSoC4/I2CM_I2C_MASTER.c ****                 I2CM_state = I2CM_I2C_FSM_MSTR_WR_DATA;
  69              		.loc 1 321 0
  70 002c DB3B     		sub	r3, r3, #219
  71 002e 2370     		strb	r3, [r4]
  72 0030 02E0     		b	.L4
  73              	.L3:
 322:.\Generated_Source\PSoC4/I2CM_I2C_MASTER.c ****             }
 323:.\Generated_Source\PSoC4/I2CM_I2C_MASTER.c ****             else /* Read direction */
 324:.\Generated_Source\PSoC4/I2CM_I2C_MASTER.c ****             {
ARM GAS  C:\Users\ddemidov\AppData\Local\Temp\ccUDC9zP.s 			page 8


 325:.\Generated_Source\PSoC4/I2CM_I2C_MASTER.c ****                 I2CM_state = I2CM_I2C_FSM_MSTR_RD_DATA;
  74              		.loc 1 325 0
  75 0032 2523     		mov	r3, #37
 326:.\Generated_Source\PSoC4/I2CM_I2C_MASTER.c ****                          slaveAddress |= I2CM_I2C_READ_FLAG;
  76              		.loc 1 326 0
  77 0034 2843     		orr	r0, r5
  78              	.LVL4:
 325:.\Generated_Source\PSoC4/I2CM_I2C_MASTER.c ****                          slaveAddress |= I2CM_I2C_READ_FLAG;
  79              		.loc 1 325 0
  80 0036 2370     		strb	r3, [r4]
  81              	.L4:
 327:.\Generated_Source\PSoC4/I2CM_I2C_MASTER.c ****             }
 328:.\Generated_Source\PSoC4/I2CM_I2C_MASTER.c **** 
 329:.\Generated_Source\PSoC4/I2CM_I2C_MASTER.c ****             /* TX and RX FIFO have to be EMPTY */
 330:.\Generated_Source\PSoC4/I2CM_I2C_MASTER.c **** 
 331:.\Generated_Source\PSoC4/I2CM_I2C_MASTER.c ****             I2CM_TX_FIFO_WR_REG = slaveAddress; /* Put address in TX FIFO */
 332:.\Generated_Source\PSoC4/I2CM_I2C_MASTER.c ****             I2CM_ClearMasterInterruptSource(I2CM_INTR_MASTER_ALL);
 333:.\Generated_Source\PSoC4/I2CM_I2C_MASTER.c **** 
 334:.\Generated_Source\PSoC4/I2CM_I2C_MASTER.c ****             I2CM_I2C_MASTER_GENERATE_START;
  82              		.loc 1 334 0
  83 0038 0222     		mov	r2, #2
 331:.\Generated_Source\PSoC4/I2CM_I2C_MASTER.c ****             I2CM_ClearMasterInterruptSource(I2CM_INTR_MASTER_ALL);
  84              		.loc 1 331 0
  85 003a 1A4B     		ldr	r3, .L17+8
 332:.\Generated_Source\PSoC4/I2CM_I2C_MASTER.c **** 
  86              		.loc 1 332 0
  87 003c 1A49     		ldr	r1, .L17+12
 331:.\Generated_Source\PSoC4/I2CM_I2C_MASTER.c ****             I2CM_ClearMasterInterruptSource(I2CM_INTR_MASTER_ALL);
  88              		.loc 1 331 0
  89 003e 1860     		str	r0, [r3]
 332:.\Generated_Source\PSoC4/I2CM_I2C_MASTER.c **** 
  90              		.loc 1 332 0
  91 0040 1A4B     		ldr	r3, .L17+16
  92 0042 0B60     		str	r3, [r1]
  93              		.loc 1 334 0
  94 0044 1A4B     		ldr	r3, .L17+20
  95 0046 1A60     		str	r2, [r3]
  96              	.LVL5:
  97              	.L5:
  98 0048 0826     		mov	r6, #8
 335:.\Generated_Source\PSoC4/I2CM_I2C_MASTER.c **** 
 336:.\Generated_Source\PSoC4/I2CM_I2C_MASTER.c **** 
 337:.\Generated_Source\PSoC4/I2CM_I2C_MASTER.c ****             while(!I2CM_CHECK_INTR_MASTER(I2CM_INTR_MASTER_I2C_ACK      |
  99              		.loc 1 337 0 discriminator 1
 100 004a 0B68     		ldr	r3, [r1]
 101 004c FF36     		add	r6, r6, #255
 102 004e 164D     		ldr	r5, .L17+12
 103 0050 3342     		tst	r3, r6
 104 0052 F9D0     		beq	.L5
 338:.\Generated_Source\PSoC4/I2CM_I2C_MASTER.c ****                                                       I2CM_INTR_MASTER_I2C_NACK     |
 339:.\Generated_Source\PSoC4/I2CM_I2C_MASTER.c ****                                                       I2CM_INTR_MASTER_I2C_ARB_LOST |
 340:.\Generated_Source\PSoC4/I2CM_I2C_MASTER.c ****                                                       I2CM_INTR_MASTER_I2C_BUS_ERROR))
 341:.\Generated_Source\PSoC4/I2CM_I2C_MASTER.c ****             {
 342:.\Generated_Source\PSoC4/I2CM_I2C_MASTER.c ****                 /*
 343:.\Generated_Source\PSoC4/I2CM_I2C_MASTER.c ****                 * Write: wait until address has been transferred
 344:.\Generated_Source\PSoC4/I2CM_I2C_MASTER.c ****                 * Read : wait until address has been transferred, data byte is going to RX FIFO as 
 345:.\Generated_Source\PSoC4/I2CM_I2C_MASTER.c ****                 */
ARM GAS  C:\Users\ddemidov\AppData\Local\Temp\ccUDC9zP.s 			page 9


 346:.\Generated_Source\PSoC4/I2CM_I2C_MASTER.c ****             }
 347:.\Generated_Source\PSoC4/I2CM_I2C_MASTER.c **** 
 348:.\Generated_Source\PSoC4/I2CM_I2C_MASTER.c ****             /* Check the results of the address phase */
 349:.\Generated_Source\PSoC4/I2CM_I2C_MASTER.c ****             if(I2CM_CHECK_INTR_MASTER(I2CM_INTR_MASTER_I2C_ACK))
 105              		.loc 1 349 0
 106 0054 0423     		mov	r3, #4
 107 0056 2A68     		ldr	r2, [r5]
 108 0058 1340     		and	r3, r2
 109 005a 0DD1     		bne	.L10
 350:.\Generated_Source\PSoC4/I2CM_I2C_MASTER.c ****             {
 351:.\Generated_Source\PSoC4/I2CM_I2C_MASTER.c ****                 errStatus = I2CM_I2C_MSTR_NO_ERROR;
 352:.\Generated_Source\PSoC4/I2CM_I2C_MASTER.c ****             }
 353:.\Generated_Source\PSoC4/I2CM_I2C_MASTER.c ****             else if(I2CM_CHECK_INTR_MASTER(I2CM_INTR_MASTER_I2C_NACK))
 110              		.loc 1 353 0
 111 005c 0222     		mov	r2, #2
 112 005e 2868     		ldr	r0, [r5]
 113              	.LVL6:
 114 0060 1042     		tst	r0, r2
 115 0062 0BD1     		bne	.L6
 354:.\Generated_Source\PSoC4/I2CM_I2C_MASTER.c ****             {
 355:.\Generated_Source\PSoC4/I2CM_I2C_MASTER.c ****                 errStatus = I2CM_I2C_MSTR_ERR_LB_NAK;
 356:.\Generated_Source\PSoC4/I2CM_I2C_MASTER.c ****             }
 357:.\Generated_Source\PSoC4/I2CM_I2C_MASTER.c ****             else if(I2CM_CHECK_INTR_MASTER(I2CM_INTR_MASTER_I2C_ARB_LOST))
 116              		.loc 1 357 0
 117 0064 2868     		ldr	r0, [r5]
 118 0066 0E32     		add	r2, r2, #14
 119 0068 0133     		add	r3, r3, #1
 358:.\Generated_Source\PSoC4/I2CM_I2C_MASTER.c ****             {
 359:.\Generated_Source\PSoC4/I2CM_I2C_MASTER.c ****                 I2CM_state = I2CM_I2C_FSM_IDLE;
 120              		.loc 1 359 0
 121 006a 2270     		strb	r2, [r4]
 360:.\Generated_Source\PSoC4/I2CM_I2C_MASTER.c ****                              errStatus = I2CM_I2C_MSTR_ERR_ARB_LOST;
 122              		.loc 1 360 0
 123 006c 1A1C     		mov	r2, r3
 357:.\Generated_Source\PSoC4/I2CM_I2C_MASTER.c ****             {
 124              		.loc 1 357 0
 125 006e 1842     		tst	r0, r3
 126 0070 04D1     		bne	.L6
 127              	.LVL7:
 361:.\Generated_Source\PSoC4/I2CM_I2C_MASTER.c ****                              resetIp   = I2CM_I2C_RESET_ERROR;
 362:.\Generated_Source\PSoC4/I2CM_I2C_MASTER.c ****             }
 363:.\Generated_Source\PSoC4/I2CM_I2C_MASTER.c ****             else /* I2CM_INTR_MASTER_I2C_BUS_ERROR set is else condition */
 364:.\Generated_Source\PSoC4/I2CM_I2C_MASTER.c ****             {
 365:.\Generated_Source\PSoC4/I2CM_I2C_MASTER.c ****                 I2CM_state = I2CM_I2C_FSM_IDLE;
 366:.\Generated_Source\PSoC4/I2CM_I2C_MASTER.c ****                              errStatus = I2CM_I2C_MSTR_ERR_BUS_ERR;
 128              		.loc 1 366 0
 129 0072 8022     		mov	r2, #128
 130 0074 5200     		lsl	r2, r2, #1
 131 0076 01E0     		b	.L6
 132              	.LVL8:
 133              	.L10:
 351:.\Generated_Source\PSoC4/I2CM_I2C_MASTER.c ****             }
 134              		.loc 1 351 0
 135 0078 0022     		mov	r2, #0
 297:.\Generated_Source\PSoC4/I2CM_I2C_MASTER.c ****     errStatus = I2CM_I2C_MSTR_NOT_READY;
 136              		.loc 1 297 0
 137 007a 131C     		mov	r3, r2
ARM GAS  C:\Users\ddemidov\AppData\Local\Temp\ccUDC9zP.s 			page 10


 138              	.LVL9:
 139              	.L6:
 367:.\Generated_Source\PSoC4/I2CM_I2C_MASTER.c ****                              resetIp   = I2CM_I2C_RESET_ERROR;
 368:.\Generated_Source\PSoC4/I2CM_I2C_MASTER.c ****             }
 369:.\Generated_Source\PSoC4/I2CM_I2C_MASTER.c **** 
 370:.\Generated_Source\PSoC4/I2CM_I2C_MASTER.c ****             I2CM_ClearMasterInterruptSource(I2CM_INTR_MASTER_I2C_ACK      |
 140              		.loc 1 370 0
 141 007c 0E60     		str	r6, [r1]
 371:.\Generated_Source\PSoC4/I2CM_I2C_MASTER.c ****                                                         I2CM_INTR_MASTER_I2C_NACK     |
 372:.\Generated_Source\PSoC4/I2CM_I2C_MASTER.c ****                                                         I2CM_INTR_MASTER_I2C_ARB_LOST |
 373:.\Generated_Source\PSoC4/I2CM_I2C_MASTER.c ****                                                         I2CM_INTR_MASTER_I2C_BUS_ERROR);
 374:.\Generated_Source\PSoC4/I2CM_I2C_MASTER.c **** 
 375:.\Generated_Source\PSoC4/I2CM_I2C_MASTER.c ****             /* Reset block in case of: LOST_ARB or BUS_ERR */
 376:.\Generated_Source\PSoC4/I2CM_I2C_MASTER.c ****             if(0u != resetIp)
 142              		.loc 1 376 0
 143 007e 002B     		cmp	r3, #0
 144 0080 09D0     		beq	.L2
 377:.\Generated_Source\PSoC4/I2CM_I2C_MASTER.c ****             {
 378:.\Generated_Source\PSoC4/I2CM_I2C_MASTER.c ****                 I2CM_SCB_SW_RESET;
 145              		.loc 1 378 0
 146 0082 8020     		mov	r0, #128
 147 0084 0B49     		ldr	r1, .L17+24
 148 0086 0006     		lsl	r0, r0, #24
 149 0088 0B68     		ldr	r3, [r1]
 150 008a 5B00     		lsl	r3, r3, #1
 151 008c 5B08     		lsr	r3, r3, #1
 152 008e 0B60     		str	r3, [r1]
 153 0090 0B68     		ldr	r3, [r1]
 154 0092 0343     		orr	r3, r0
 155 0094 0B60     		str	r3, [r1]
 156              	.LVL10:
 157              	.L2:
 379:.\Generated_Source\PSoC4/I2CM_I2C_MASTER.c ****             }
 380:.\Generated_Source\PSoC4/I2CM_I2C_MASTER.c ****         }
 381:.\Generated_Source\PSoC4/I2CM_I2C_MASTER.c ****     }
 382:.\Generated_Source\PSoC4/I2CM_I2C_MASTER.c **** 
 383:.\Generated_Source\PSoC4/I2CM_I2C_MASTER.c ****     return(errStatus);
 384:.\Generated_Source\PSoC4/I2CM_I2C_MASTER.c **** }
 158              		.loc 1 384 0
 159 0096 101C     		mov	r0, r2
 160              		@ sp needed
 161 0098 F8BD     		pop	{r3, r4, r5, r6, r7, pc}
 162              	.L18:
 163 009a C046     		.align	2
 164              	.L17:
 165 009c 00000000 		.word	I2CM_state
 166 00a0 64002540 		.word	1076166756
 167 00a4 40022540 		.word	1076167232
 168 00a8 000F2540 		.word	1076170496
 169 00ac 17030000 		.word	791
 170 00b0 68002540 		.word	1076166760
 171 00b4 00002540 		.word	1076166656
 172              		.cfi_endproc
 173              	.LFE4:
 174              		.size	I2CM_I2CMasterSendStart, .-I2CM_I2CMasterSendStart
 175              		.section	.text.I2CM_I2CMasterSendStop,"ax",%progbits
 176              		.align	1
ARM GAS  C:\Users\ddemidov\AppData\Local\Temp\ccUDC9zP.s 			page 11


 177              		.global	I2CM_I2CMasterSendStop
 178              		.code	16
 179              		.thumb_func
 180              		.type	I2CM_I2CMasterSendStop, %function
 181              	I2CM_I2CMasterSendStop:
 182              	.LFB6:
 385:.\Generated_Source\PSoC4/I2CM_I2C_MASTER.c **** 
 386:.\Generated_Source\PSoC4/I2CM_I2C_MASTER.c **** 
 387:.\Generated_Source\PSoC4/I2CM_I2C_MASTER.c **** /*******************************************************************************
 388:.\Generated_Source\PSoC4/I2CM_I2C_MASTER.c **** * Function Name: I2CM_I2CMasterSendRestart
 389:.\Generated_Source\PSoC4/I2CM_I2C_MASTER.c **** ********************************************************************************
 390:.\Generated_Source\PSoC4/I2CM_I2C_MASTER.c **** *
 391:.\Generated_Source\PSoC4/I2CM_I2C_MASTER.c **** * Summary:
 392:.\Generated_Source\PSoC4/I2CM_I2C_MASTER.c **** *  Generates Restart condition and sends slave address with read/write bit.
 393:.\Generated_Source\PSoC4/I2CM_I2C_MASTER.c **** *  This function is blocking and does not return until start condition and
 394:.\Generated_Source\PSoC4/I2CM_I2C_MASTER.c **** *  address are sent and ACK/NACK response is received or errors occurred.
 395:.\Generated_Source\PSoC4/I2CM_I2C_MASTER.c **** *
 396:.\Generated_Source\PSoC4/I2CM_I2C_MASTER.c **** * Parameters:
 397:.\Generated_Source\PSoC4/I2CM_I2C_MASTER.c **** *  slaveAddress: Right justified 7-bit Slave address (valid range 8 to 120).
 398:.\Generated_Source\PSoC4/I2CM_I2C_MASTER.c **** *  bitRnW:       Direction of the following transfer. It is defined by
 399:.\Generated_Source\PSoC4/I2CM_I2C_MASTER.c **** *                read/write bit within address byte.
 400:.\Generated_Source\PSoC4/I2CM_I2C_MASTER.c **** *
 401:.\Generated_Source\PSoC4/I2CM_I2C_MASTER.c **** * Return:
 402:.\Generated_Source\PSoC4/I2CM_I2C_MASTER.c **** *  Error status
 403:.\Generated_Source\PSoC4/I2CM_I2C_MASTER.c **** *
 404:.\Generated_Source\PSoC4/I2CM_I2C_MASTER.c **** *
 405:.\Generated_Source\PSoC4/I2CM_I2C_MASTER.c **** * Global variables:
 406:.\Generated_Source\PSoC4/I2CM_I2C_MASTER.c **** *  I2CM_state - used to store current state of software FSM.
 407:.\Generated_Source\PSoC4/I2CM_I2C_MASTER.c **** *
 408:.\Generated_Source\PSoC4/I2CM_I2C_MASTER.c **** *******************************************************************************/
 409:.\Generated_Source\PSoC4/I2CM_I2C_MASTER.c **** uint32 I2CM_I2CMasterSendRestart(uint32 slaveAddress, uint32 bitRnW)
 410:.\Generated_Source\PSoC4/I2CM_I2C_MASTER.c **** {
 411:.\Generated_Source\PSoC4/I2CM_I2C_MASTER.c ****     uint32 resetIp;
 412:.\Generated_Source\PSoC4/I2CM_I2C_MASTER.c ****     uint32 errStatus;
 413:.\Generated_Source\PSoC4/I2CM_I2C_MASTER.c **** 
 414:.\Generated_Source\PSoC4/I2CM_I2C_MASTER.c ****     resetIp   = 0u;
 415:.\Generated_Source\PSoC4/I2CM_I2C_MASTER.c ****     errStatus = I2CM_I2C_MSTR_NOT_READY;
 416:.\Generated_Source\PSoC4/I2CM_I2C_MASTER.c **** 
 417:.\Generated_Source\PSoC4/I2CM_I2C_MASTER.c ****     /* Check FSM state before generating ReStart condition */
 418:.\Generated_Source\PSoC4/I2CM_I2C_MASTER.c ****     if(I2CM_CHECK_I2C_MASTER_ACTIVE)
 419:.\Generated_Source\PSoC4/I2CM_I2C_MASTER.c ****     {
 420:.\Generated_Source\PSoC4/I2CM_I2C_MASTER.c ****         slaveAddress = I2CM_GET_I2C_8BIT_ADDRESS(slaveAddress);
 421:.\Generated_Source\PSoC4/I2CM_I2C_MASTER.c **** 
 422:.\Generated_Source\PSoC4/I2CM_I2C_MASTER.c ****         if(0u == bitRnW) /* Write direction */
 423:.\Generated_Source\PSoC4/I2CM_I2C_MASTER.c ****         {
 424:.\Generated_Source\PSoC4/I2CM_I2C_MASTER.c ****             I2CM_state = I2CM_I2C_FSM_MSTR_WR_DATA;
 425:.\Generated_Source\PSoC4/I2CM_I2C_MASTER.c ****         }
 426:.\Generated_Source\PSoC4/I2CM_I2C_MASTER.c ****         else  /* Read direction */
 427:.\Generated_Source\PSoC4/I2CM_I2C_MASTER.c ****         {
 428:.\Generated_Source\PSoC4/I2CM_I2C_MASTER.c ****             I2CM_state  = I2CM_I2C_FSM_MSTR_RD_DATA;
 429:.\Generated_Source\PSoC4/I2CM_I2C_MASTER.c ****                       slaveAddress |= I2CM_I2C_READ_FLAG;
 430:.\Generated_Source\PSoC4/I2CM_I2C_MASTER.c ****         }
 431:.\Generated_Source\PSoC4/I2CM_I2C_MASTER.c **** 
 432:.\Generated_Source\PSoC4/I2CM_I2C_MASTER.c ****         /* TX and RX FIFO have to be EMPTY */
 433:.\Generated_Source\PSoC4/I2CM_I2C_MASTER.c **** 
 434:.\Generated_Source\PSoC4/I2CM_I2C_MASTER.c ****         /* Clean-up interrupt status */
 435:.\Generated_Source\PSoC4/I2CM_I2C_MASTER.c ****         I2CM_ClearMasterInterruptSource(I2CM_INTR_MASTER_ALL);
ARM GAS  C:\Users\ddemidov\AppData\Local\Temp\ccUDC9zP.s 			page 12


 436:.\Generated_Source\PSoC4/I2CM_I2C_MASTER.c **** 
 437:.\Generated_Source\PSoC4/I2CM_I2C_MASTER.c ****         /* A proper ReStart sequence is: generate ReStart, then put an address byte in the TX FIFO.
 438:.\Generated_Source\PSoC4/I2CM_I2C_MASTER.c ****         * Otherwise the master treats the address in the TX FIFO as a data byte if a previous trans
 439:.\Generated_Source\PSoC4/I2CM_I2C_MASTER.c ****         * The write transfer continues instead of ReStart.
 440:.\Generated_Source\PSoC4/I2CM_I2C_MASTER.c ****         */
 441:.\Generated_Source\PSoC4/I2CM_I2C_MASTER.c ****         I2CM_I2C_MASTER_GENERATE_RESTART;
 442:.\Generated_Source\PSoC4/I2CM_I2C_MASTER.c **** 
 443:.\Generated_Source\PSoC4/I2CM_I2C_MASTER.c ****         while(I2CM_CHECK_I2C_MASTER_CMD(I2CM_I2C_MASTER_CMD_M_START))
 444:.\Generated_Source\PSoC4/I2CM_I2C_MASTER.c ****         {
 445:.\Generated_Source\PSoC4/I2CM_I2C_MASTER.c ****             /* Wait until ReStart has been generated */
 446:.\Generated_Source\PSoC4/I2CM_I2C_MASTER.c ****         }
 447:.\Generated_Source\PSoC4/I2CM_I2C_MASTER.c **** 
 448:.\Generated_Source\PSoC4/I2CM_I2C_MASTER.c ****         /* Put address into TX FIFO */
 449:.\Generated_Source\PSoC4/I2CM_I2C_MASTER.c ****         I2CM_TX_FIFO_WR_REG = slaveAddress;
 450:.\Generated_Source\PSoC4/I2CM_I2C_MASTER.c **** 
 451:.\Generated_Source\PSoC4/I2CM_I2C_MASTER.c ****         /* Wait for address to be transferred */
 452:.\Generated_Source\PSoC4/I2CM_I2C_MASTER.c ****         while(!I2CM_CHECK_INTR_MASTER(I2CM_INTR_MASTER_I2C_ACK      |
 453:.\Generated_Source\PSoC4/I2CM_I2C_MASTER.c ****                                                   I2CM_INTR_MASTER_I2C_NACK     |
 454:.\Generated_Source\PSoC4/I2CM_I2C_MASTER.c ****                                                   I2CM_INTR_MASTER_I2C_ARB_LOST |
 455:.\Generated_Source\PSoC4/I2CM_I2C_MASTER.c ****                                                   I2CM_INTR_MASTER_I2C_BUS_ERROR))
 456:.\Generated_Source\PSoC4/I2CM_I2C_MASTER.c ****         {
 457:.\Generated_Source\PSoC4/I2CM_I2C_MASTER.c ****             /* Wait until address has been transferred */
 458:.\Generated_Source\PSoC4/I2CM_I2C_MASTER.c ****         }
 459:.\Generated_Source\PSoC4/I2CM_I2C_MASTER.c **** 
 460:.\Generated_Source\PSoC4/I2CM_I2C_MASTER.c ****         /* Check results of address phase */
 461:.\Generated_Source\PSoC4/I2CM_I2C_MASTER.c ****         if(I2CM_CHECK_INTR_MASTER(I2CM_INTR_MASTER_I2C_ACK))
 462:.\Generated_Source\PSoC4/I2CM_I2C_MASTER.c ****         {
 463:.\Generated_Source\PSoC4/I2CM_I2C_MASTER.c ****             errStatus = I2CM_I2C_MSTR_NO_ERROR;
 464:.\Generated_Source\PSoC4/I2CM_I2C_MASTER.c ****         }
 465:.\Generated_Source\PSoC4/I2CM_I2C_MASTER.c ****         else if(I2CM_CHECK_INTR_MASTER(I2CM_INTR_MASTER_I2C_NACK))
 466:.\Generated_Source\PSoC4/I2CM_I2C_MASTER.c ****         {
 467:.\Generated_Source\PSoC4/I2CM_I2C_MASTER.c ****              errStatus = I2CM_I2C_MSTR_ERR_LB_NAK;
 468:.\Generated_Source\PSoC4/I2CM_I2C_MASTER.c ****         }
 469:.\Generated_Source\PSoC4/I2CM_I2C_MASTER.c ****         else if(I2CM_CHECK_INTR_MASTER(I2CM_INTR_MASTER_I2C_ARB_LOST))
 470:.\Generated_Source\PSoC4/I2CM_I2C_MASTER.c ****         {
 471:.\Generated_Source\PSoC4/I2CM_I2C_MASTER.c ****             I2CM_state = I2CM_I2C_FSM_IDLE;
 472:.\Generated_Source\PSoC4/I2CM_I2C_MASTER.c ****                          errStatus = I2CM_I2C_MSTR_ERR_ARB_LOST;
 473:.\Generated_Source\PSoC4/I2CM_I2C_MASTER.c ****                          resetIp   = I2CM_I2C_RESET_ERROR;
 474:.\Generated_Source\PSoC4/I2CM_I2C_MASTER.c ****         }
 475:.\Generated_Source\PSoC4/I2CM_I2C_MASTER.c ****         else /* I2CM_INTR_MASTER_I2C_BUS_ERROR set is else condition */
 476:.\Generated_Source\PSoC4/I2CM_I2C_MASTER.c ****         {
 477:.\Generated_Source\PSoC4/I2CM_I2C_MASTER.c ****             I2CM_state = I2CM_I2C_FSM_IDLE;
 478:.\Generated_Source\PSoC4/I2CM_I2C_MASTER.c ****                          errStatus = I2CM_I2C_MSTR_ERR_BUS_ERR;
 479:.\Generated_Source\PSoC4/I2CM_I2C_MASTER.c ****                          resetIp   = I2CM_I2C_RESET_ERROR;
 480:.\Generated_Source\PSoC4/I2CM_I2C_MASTER.c ****         }
 481:.\Generated_Source\PSoC4/I2CM_I2C_MASTER.c **** 
 482:.\Generated_Source\PSoC4/I2CM_I2C_MASTER.c ****         I2CM_ClearMasterInterruptSource(I2CM_INTR_MASTER_I2C_ACK      |
 483:.\Generated_Source\PSoC4/I2CM_I2C_MASTER.c ****                                                     I2CM_INTR_MASTER_I2C_NACK     |
 484:.\Generated_Source\PSoC4/I2CM_I2C_MASTER.c ****                                                     I2CM_INTR_MASTER_I2C_ARB_LOST |
 485:.\Generated_Source\PSoC4/I2CM_I2C_MASTER.c ****                                                     I2CM_INTR_MASTER_I2C_BUS_ERROR);
 486:.\Generated_Source\PSoC4/I2CM_I2C_MASTER.c **** 
 487:.\Generated_Source\PSoC4/I2CM_I2C_MASTER.c ****         /* Reset block in case of: LOST_ARB or BUS_ERR */
 488:.\Generated_Source\PSoC4/I2CM_I2C_MASTER.c ****         if(0u != resetIp)
 489:.\Generated_Source\PSoC4/I2CM_I2C_MASTER.c ****         {
 490:.\Generated_Source\PSoC4/I2CM_I2C_MASTER.c ****             I2CM_SCB_SW_RESET;
 491:.\Generated_Source\PSoC4/I2CM_I2C_MASTER.c ****         }
 492:.\Generated_Source\PSoC4/I2CM_I2C_MASTER.c ****     }
ARM GAS  C:\Users\ddemidov\AppData\Local\Temp\ccUDC9zP.s 			page 13


 493:.\Generated_Source\PSoC4/I2CM_I2C_MASTER.c **** 
 494:.\Generated_Source\PSoC4/I2CM_I2C_MASTER.c ****     return(errStatus);
 495:.\Generated_Source\PSoC4/I2CM_I2C_MASTER.c **** }
 496:.\Generated_Source\PSoC4/I2CM_I2C_MASTER.c **** 
 497:.\Generated_Source\PSoC4/I2CM_I2C_MASTER.c **** 
 498:.\Generated_Source\PSoC4/I2CM_I2C_MASTER.c **** /*******************************************************************************
 499:.\Generated_Source\PSoC4/I2CM_I2C_MASTER.c **** * Function Name: I2CM_I2CMasterSendStop
 500:.\Generated_Source\PSoC4/I2CM_I2C_MASTER.c **** ********************************************************************************
 501:.\Generated_Source\PSoC4/I2CM_I2C_MASTER.c **** *
 502:.\Generated_Source\PSoC4/I2CM_I2C_MASTER.c **** * Summary:
 503:.\Generated_Source\PSoC4/I2CM_I2C_MASTER.c **** *  Generates Stop condition on the bus.
 504:.\Generated_Source\PSoC4/I2CM_I2C_MASTER.c **** *  At least one byte has to be read if start or restart condition with read
 505:.\Generated_Source\PSoC4/I2CM_I2C_MASTER.c **** *  direction was generated before.
 506:.\Generated_Source\PSoC4/I2CM_I2C_MASTER.c **** *  This function is blocking and does not return until a stop condition
 507:.\Generated_Source\PSoC4/I2CM_I2C_MASTER.c **** *  is generated or error occurred.
 508:.\Generated_Source\PSoC4/I2CM_I2C_MASTER.c **** *
 509:.\Generated_Source\PSoC4/I2CM_I2C_MASTER.c **** * Parameters:
 510:.\Generated_Source\PSoC4/I2CM_I2C_MASTER.c **** *  None
 511:.\Generated_Source\PSoC4/I2CM_I2C_MASTER.c **** *
 512:.\Generated_Source\PSoC4/I2CM_I2C_MASTER.c **** * Return:
 513:.\Generated_Source\PSoC4/I2CM_I2C_MASTER.c **** *  Error status
 514:.\Generated_Source\PSoC4/I2CM_I2C_MASTER.c **** *
 515:.\Generated_Source\PSoC4/I2CM_I2C_MASTER.c **** * Side Effects:
 516:.\Generated_Source\PSoC4/I2CM_I2C_MASTER.c **** *  A valid Start or ReStart condition must be generated before calling
 517:.\Generated_Source\PSoC4/I2CM_I2C_MASTER.c **** *  this function. This function does nothing if Start or ReStart condition
 518:.\Generated_Source\PSoC4/I2CM_I2C_MASTER.c **** *  failed before this function was called.
 519:.\Generated_Source\PSoC4/I2CM_I2C_MASTER.c **** *  For read transfer, at least one byte has to be read before Stop generation.
 520:.\Generated_Source\PSoC4/I2CM_I2C_MASTER.c **** *
 521:.\Generated_Source\PSoC4/I2CM_I2C_MASTER.c **** * Global variables:
 522:.\Generated_Source\PSoC4/I2CM_I2C_MASTER.c **** *  I2CM_state - used to store current state of software FSM.
 523:.\Generated_Source\PSoC4/I2CM_I2C_MASTER.c **** *
 524:.\Generated_Source\PSoC4/I2CM_I2C_MASTER.c **** *******************************************************************************/
 525:.\Generated_Source\PSoC4/I2CM_I2C_MASTER.c **** uint32 I2CM_I2CMasterSendStop(void)
 526:.\Generated_Source\PSoC4/I2CM_I2C_MASTER.c **** {
 183              		.loc 1 526 0
 184              		.cfi_startproc
 185              	.LVL11:
 527:.\Generated_Source\PSoC4/I2CM_I2C_MASTER.c ****     uint32 resetIp;
 528:.\Generated_Source\PSoC4/I2CM_I2C_MASTER.c ****     uint32 errStatus;
 529:.\Generated_Source\PSoC4/I2CM_I2C_MASTER.c **** 
 530:.\Generated_Source\PSoC4/I2CM_I2C_MASTER.c ****     resetIp   = 0u;
 531:.\Generated_Source\PSoC4/I2CM_I2C_MASTER.c ****     errStatus = I2CM_I2C_MSTR_NOT_READY;
 532:.\Generated_Source\PSoC4/I2CM_I2C_MASTER.c **** 
 533:.\Generated_Source\PSoC4/I2CM_I2C_MASTER.c ****     /* Check FSM state before generating Stop condition */
 534:.\Generated_Source\PSoC4/I2CM_I2C_MASTER.c ****     if(I2CM_CHECK_I2C_MASTER_ACTIVE)
 186              		.loc 1 534 0
 187 0000 2022     		mov	r2, #32
 526:.\Generated_Source\PSoC4/I2CM_I2C_MASTER.c ****     uint32 resetIp;
 188              		.loc 1 526 0
 189 0002 10B5     		push	{r4, lr}
 190              		.cfi_def_cfa_offset 8
 191              		.cfi_offset 4, -8
 192              		.cfi_offset 14, -4
 193              		.loc 1 534 0
 194 0004 184B     		ldr	r3, .L34
 531:.\Generated_Source\PSoC4/I2CM_I2C_MASTER.c **** 
 195              		.loc 1 531 0
ARM GAS  C:\Users\ddemidov\AppData\Local\Temp\ccUDC9zP.s 			page 14


 196 0006 0420     		mov	r0, #4
 197              		.loc 1 534 0
 198 0008 1978     		ldrb	r1, [r3]
 199 000a 1C1C     		mov	r4, r3
 200 000c 1142     		tst	r1, r2
 201 000e 2AD0     		beq	.L20
 535:.\Generated_Source\PSoC4/I2CM_I2C_MASTER.c ****     {
 536:.\Generated_Source\PSoC4/I2CM_I2C_MASTER.c ****         /*
 537:.\Generated_Source\PSoC4/I2CM_I2C_MASTER.c ****         * Write direction: generates Stop
 538:.\Generated_Source\PSoC4/I2CM_I2C_MASTER.c ****         * Read  direction: generates NACK and Stop
 539:.\Generated_Source\PSoC4/I2CM_I2C_MASTER.c ****         */
 540:.\Generated_Source\PSoC4/I2CM_I2C_MASTER.c ****         I2CM_I2C_MASTER_GENERATE_STOP;
 202              		.loc 1 540 0
 203 0010 164B     		ldr	r3, .L34+4
 204 0012 1968     		ldr	r1, [r3]
 205 0014 1823     		mov	r3, #24
 206 0016 1142     		tst	r1, r2
 207 0018 00D1     		bne	.L21
 208 001a 083B     		sub	r3, r3, #8
 209              	.L21:
 210              		.loc 1 540 0 is_stmt 0 discriminator 4
 211 001c 144A     		ldr	r2, .L34+8
 212 001e 1360     		str	r3, [r2]
 213              	.L22:
 214 0020 1221     		mov	r1, #18
 541:.\Generated_Source\PSoC4/I2CM_I2C_MASTER.c **** 
 542:.\Generated_Source\PSoC4/I2CM_I2C_MASTER.c ****         while(!I2CM_CHECK_INTR_MASTER(I2CM_INTR_MASTER_I2C_STOP     |
 215              		.loc 1 542 0 is_stmt 1 discriminator 1
 216 0022 144A     		ldr	r2, .L34+12
 217 0024 FF31     		add	r1, r1, #255
 218 0026 1368     		ldr	r3, [r2]
 219 0028 0B42     		tst	r3, r1
 220 002a F9D0     		beq	.L22
 543:.\Generated_Source\PSoC4/I2CM_I2C_MASTER.c ****                                                   I2CM_INTR_MASTER_I2C_ARB_LOST |
 544:.\Generated_Source\PSoC4/I2CM_I2C_MASTER.c ****                                                   I2CM_INTR_MASTER_I2C_BUS_ERROR))
 545:.\Generated_Source\PSoC4/I2CM_I2C_MASTER.c ****         {
 546:.\Generated_Source\PSoC4/I2CM_I2C_MASTER.c ****             /* Wait until Stop has been generated */
 547:.\Generated_Source\PSoC4/I2CM_I2C_MASTER.c ****         }
 548:.\Generated_Source\PSoC4/I2CM_I2C_MASTER.c **** 
 549:.\Generated_Source\PSoC4/I2CM_I2C_MASTER.c ****         /* Check Stop generation */
 550:.\Generated_Source\PSoC4/I2CM_I2C_MASTER.c ****         if(I2CM_CHECK_INTR_MASTER(I2CM_INTR_MASTER_I2C_STOP))
 221              		.loc 1 550 0
 222 002c 1368     		ldr	r3, [r2]
 223 002e DB06     		lsl	r3, r3, #27
 224 0030 06D4     		bmi	.L26
 551:.\Generated_Source\PSoC4/I2CM_I2C_MASTER.c ****         {
 552:.\Generated_Source\PSoC4/I2CM_I2C_MASTER.c ****             errStatus = I2CM_I2C_MSTR_NO_ERROR;
 553:.\Generated_Source\PSoC4/I2CM_I2C_MASTER.c ****         }
 554:.\Generated_Source\PSoC4/I2CM_I2C_MASTER.c ****         else if(I2CM_CHECK_INTR_MASTER(I2CM_INTR_MASTER_I2C_ARB_LOST))
 225              		.loc 1 554 0
 226 0032 0123     		mov	r3, #1
 227 0034 1068     		ldr	r0, [r2]
 228 0036 1842     		tst	r0, r3
 229 0038 04D1     		bne	.L27
 555:.\Generated_Source\PSoC4/I2CM_I2C_MASTER.c ****         {
 556:.\Generated_Source\PSoC4/I2CM_I2C_MASTER.c ****             errStatus = I2CM_I2C_MSTR_ERR_ARB_LOST;
 557:.\Generated_Source\PSoC4/I2CM_I2C_MASTER.c ****             resetIp   = I2CM_I2C_RESET_ERROR;
ARM GAS  C:\Users\ddemidov\AppData\Local\Temp\ccUDC9zP.s 			page 15


 558:.\Generated_Source\PSoC4/I2CM_I2C_MASTER.c ****         }
 559:.\Generated_Source\PSoC4/I2CM_I2C_MASTER.c ****         else /* I2CM_INTR_MASTER_I2C_BUS_ERROR is set */
 560:.\Generated_Source\PSoC4/I2CM_I2C_MASTER.c ****         {
 561:.\Generated_Source\PSoC4/I2CM_I2C_MASTER.c ****             errStatus = I2CM_I2C_MSTR_ERR_BUS_ERR;
 230              		.loc 1 561 0
 231 003a 8020     		mov	r0, #128
 232 003c 4000     		lsl	r0, r0, #1
 233 003e 03E0     		b	.L23
 234              	.L26:
 552:.\Generated_Source\PSoC4/I2CM_I2C_MASTER.c ****         }
 235              		.loc 1 552 0
 236 0040 0020     		mov	r0, #0
 237 0042 00E0     		b	.L33
 238              	.L27:
 556:.\Generated_Source\PSoC4/I2CM_I2C_MASTER.c ****             resetIp   = I2CM_I2C_RESET_ERROR;
 239              		.loc 1 556 0
 240 0044 181C     		mov	r0, r3
 241              	.L33:
 557:.\Generated_Source\PSoC4/I2CM_I2C_MASTER.c ****         }
 242              		.loc 1 557 0
 243 0046 031C     		mov	r3, r0
 244              	.L23:
 245              	.LVL12:
 562:.\Generated_Source\PSoC4/I2CM_I2C_MASTER.c ****             resetIp   = I2CM_I2C_RESET_ERROR;
 563:.\Generated_Source\PSoC4/I2CM_I2C_MASTER.c ****         }
 564:.\Generated_Source\PSoC4/I2CM_I2C_MASTER.c **** 
 565:.\Generated_Source\PSoC4/I2CM_I2C_MASTER.c ****         I2CM_ClearMasterInterruptSource(I2CM_INTR_MASTER_I2C_STOP     |
 246              		.loc 1 565 0
 247 0048 1160     		str	r1, [r2]
 566:.\Generated_Source\PSoC4/I2CM_I2C_MASTER.c ****                                                     I2CM_INTR_MASTER_I2C_ARB_LOST |
 567:.\Generated_Source\PSoC4/I2CM_I2C_MASTER.c ****                                                     I2CM_INTR_MASTER_I2C_BUS_ERROR);
 568:.\Generated_Source\PSoC4/I2CM_I2C_MASTER.c **** 
 569:.\Generated_Source\PSoC4/I2CM_I2C_MASTER.c ****         I2CM_state = I2CM_I2C_FSM_IDLE;
 248              		.loc 1 569 0
 249 004a 1022     		mov	r2, #16
 250 004c 2270     		strb	r2, [r4]
 570:.\Generated_Source\PSoC4/I2CM_I2C_MASTER.c **** 
 571:.\Generated_Source\PSoC4/I2CM_I2C_MASTER.c ****         /* Reset block in case of: LOST_ARB or BUS_ERR */
 572:.\Generated_Source\PSoC4/I2CM_I2C_MASTER.c ****         if(0u != resetIp)
 251              		.loc 1 572 0
 252 004e 002B     		cmp	r3, #0
 253 0050 09D0     		beq	.L20
 573:.\Generated_Source\PSoC4/I2CM_I2C_MASTER.c ****         {
 574:.\Generated_Source\PSoC4/I2CM_I2C_MASTER.c ****             I2CM_SCB_SW_RESET;
 254              		.loc 1 574 0
 255 0052 8021     		mov	r1, #128
 256 0054 084A     		ldr	r2, .L34+16
 257 0056 0906     		lsl	r1, r1, #24
 258 0058 1368     		ldr	r3, [r2]
 259 005a 5B00     		lsl	r3, r3, #1
 260 005c 5B08     		lsr	r3, r3, #1
 261 005e 1360     		str	r3, [r2]
 262 0060 1368     		ldr	r3, [r2]
 263 0062 0B43     		orr	r3, r1
 264 0064 1360     		str	r3, [r2]
 265              	.LVL13:
 266              	.L20:
ARM GAS  C:\Users\ddemidov\AppData\Local\Temp\ccUDC9zP.s 			page 16


 575:.\Generated_Source\PSoC4/I2CM_I2C_MASTER.c ****         }
 576:.\Generated_Source\PSoC4/I2CM_I2C_MASTER.c ****     }
 577:.\Generated_Source\PSoC4/I2CM_I2C_MASTER.c **** 
 578:.\Generated_Source\PSoC4/I2CM_I2C_MASTER.c ****     return(errStatus);
 579:.\Generated_Source\PSoC4/I2CM_I2C_MASTER.c **** }
 267              		.loc 1 579 0
 268              		@ sp needed
 269 0066 10BD     		pop	{r4, pc}
 270              	.L35:
 271              		.align	2
 272              	.L34:
 273 0068 00000000 		.word	I2CM_state
 274 006c 64002540 		.word	1076166756
 275 0070 68002540 		.word	1076166760
 276 0074 000F2540 		.word	1076170496
 277 0078 00002540 		.word	1076166656
 278              		.cfi_endproc
 279              	.LFE6:
 280              		.size	I2CM_I2CMasterSendStop, .-I2CM_I2CMasterSendStop
 281              		.section	.text.I2CM_I2CMasterWriteByte,"ax",%progbits
 282              		.align	1
 283              		.global	I2CM_I2CMasterWriteByte
 284              		.code	16
 285              		.thumb_func
 286              		.type	I2CM_I2CMasterWriteByte, %function
 287              	I2CM_I2CMasterWriteByte:
 288              	.LFB7:
 580:.\Generated_Source\PSoC4/I2CM_I2C_MASTER.c **** 
 581:.\Generated_Source\PSoC4/I2CM_I2C_MASTER.c **** 
 582:.\Generated_Source\PSoC4/I2CM_I2C_MASTER.c **** /*******************************************************************************
 583:.\Generated_Source\PSoC4/I2CM_I2C_MASTER.c **** * Function Name: I2CM_I2CMasterWriteByte
 584:.\Generated_Source\PSoC4/I2CM_I2C_MASTER.c **** ********************************************************************************
 585:.\Generated_Source\PSoC4/I2CM_I2C_MASTER.c **** *
 586:.\Generated_Source\PSoC4/I2CM_I2C_MASTER.c **** * Summary:
 587:.\Generated_Source\PSoC4/I2CM_I2C_MASTER.c **** *  Sends one byte to a slave.
 588:.\Generated_Source\PSoC4/I2CM_I2C_MASTER.c **** *  This function is blocking and does not return until byte is transmitted
 589:.\Generated_Source\PSoC4/I2CM_I2C_MASTER.c **** *  or error occurred.
 590:.\Generated_Source\PSoC4/I2CM_I2C_MASTER.c **** *
 591:.\Generated_Source\PSoC4/I2CM_I2C_MASTER.c **** * Parameters:
 592:.\Generated_Source\PSoC4/I2CM_I2C_MASTER.c **** *  data: The data byte to send to the slave.
 593:.\Generated_Source\PSoC4/I2CM_I2C_MASTER.c **** *
 594:.\Generated_Source\PSoC4/I2CM_I2C_MASTER.c **** * Return:
 595:.\Generated_Source\PSoC4/I2CM_I2C_MASTER.c **** *  Error status
 596:.\Generated_Source\PSoC4/I2CM_I2C_MASTER.c **** *
 597:.\Generated_Source\PSoC4/I2CM_I2C_MASTER.c **** * Side Effects:
 598:.\Generated_Source\PSoC4/I2CM_I2C_MASTER.c **** *  A valid Start or ReStart condition must be generated before calling
 599:.\Generated_Source\PSoC4/I2CM_I2C_MASTER.c **** *  this function. This function does nothing if Start or ReStart condition
 600:.\Generated_Source\PSoC4/I2CM_I2C_MASTER.c **** *  failed before this function was called.
 601:.\Generated_Source\PSoC4/I2CM_I2C_MASTER.c **** *
 602:.\Generated_Source\PSoC4/I2CM_I2C_MASTER.c **** * Global variables:
 603:.\Generated_Source\PSoC4/I2CM_I2C_MASTER.c **** *  I2CM_state - used to store current state of software FSM.
 604:.\Generated_Source\PSoC4/I2CM_I2C_MASTER.c **** *
 605:.\Generated_Source\PSoC4/I2CM_I2C_MASTER.c **** *******************************************************************************/
 606:.\Generated_Source\PSoC4/I2CM_I2C_MASTER.c **** uint32 I2CM_I2CMasterWriteByte(uint32 theByte)
 607:.\Generated_Source\PSoC4/I2CM_I2C_MASTER.c **** {
 289              		.loc 1 607 0
 290              		.cfi_startproc
ARM GAS  C:\Users\ddemidov\AppData\Local\Temp\ccUDC9zP.s 			page 17


 291              	.LVL14:
 292 0000 30B5     		push	{r4, r5, lr}
 293              		.cfi_def_cfa_offset 12
 294              		.cfi_offset 4, -12
 295              		.cfi_offset 5, -8
 296              		.cfi_offset 14, -4
 608:.\Generated_Source\PSoC4/I2CM_I2C_MASTER.c ****     uint32 resetIp;
 609:.\Generated_Source\PSoC4/I2CM_I2C_MASTER.c ****     uint32 errStatus;
 610:.\Generated_Source\PSoC4/I2CM_I2C_MASTER.c **** 
 611:.\Generated_Source\PSoC4/I2CM_I2C_MASTER.c ****     resetIp   = 0u;
 612:.\Generated_Source\PSoC4/I2CM_I2C_MASTER.c ****     errStatus = I2CM_I2C_MSTR_NOT_READY;
 613:.\Generated_Source\PSoC4/I2CM_I2C_MASTER.c **** 
 614:.\Generated_Source\PSoC4/I2CM_I2C_MASTER.c ****     /* Check FSM state before write byte */
 615:.\Generated_Source\PSoC4/I2CM_I2C_MASTER.c ****     if(I2CM_CHECK_I2C_MASTER_ACTIVE)
 297              		.loc 1 615 0
 298 0002 1A49     		ldr	r1, .L49
 607:.\Generated_Source\PSoC4/I2CM_I2C_MASTER.c ****     uint32 resetIp;
 299              		.loc 1 607 0
 300 0004 021C     		mov	r2, r0
 301              		.loc 1 615 0
 302 0006 0B78     		ldrb	r3, [r1]
 612:.\Generated_Source\PSoC4/I2CM_I2C_MASTER.c **** 
 303              		.loc 1 612 0
 304 0008 0420     		mov	r0, #4
 305              	.LVL15:
 306              		.loc 1 615 0
 307 000a 9B06     		lsl	r3, r3, #26
 308 000c 2DD5     		bpl	.L37
 616:.\Generated_Source\PSoC4/I2CM_I2C_MASTER.c ****     {
 617:.\Generated_Source\PSoC4/I2CM_I2C_MASTER.c ****         I2CM_TX_FIFO_WR_REG = theByte;
 309              		.loc 1 617 0
 310 000e 184B     		ldr	r3, .L49+4
 311 0010 1A60     		str	r2, [r3]
 312              	.LVL16:
 313              	.L38:
 314 0012 0824     		mov	r4, #8
 618:.\Generated_Source\PSoC4/I2CM_I2C_MASTER.c **** 
 619:.\Generated_Source\PSoC4/I2CM_I2C_MASTER.c ****         while(!I2CM_CHECK_INTR_MASTER(I2CM_INTR_MASTER_I2C_ACK      |
 315              		.loc 1 619 0 discriminator 1
 316 0014 174A     		ldr	r2, .L49+8
 317 0016 FF34     		add	r4, r4, #255
 318 0018 1368     		ldr	r3, [r2]
 319 001a 2342     		tst	r3, r4
 320 001c F9D0     		beq	.L38
 620:.\Generated_Source\PSoC4/I2CM_I2C_MASTER.c ****                                                   I2CM_INTR_MASTER_I2C_NACK     |
 621:.\Generated_Source\PSoC4/I2CM_I2C_MASTER.c ****                                                   I2CM_INTR_MASTER_I2C_ARB_LOST |
 622:.\Generated_Source\PSoC4/I2CM_I2C_MASTER.c ****                                                   I2CM_INTR_MASTER_I2C_BUS_ERROR))
 623:.\Generated_Source\PSoC4/I2CM_I2C_MASTER.c ****         {
 624:.\Generated_Source\PSoC4/I2CM_I2C_MASTER.c ****             /* Wait until byte has been transferred */
 625:.\Generated_Source\PSoC4/I2CM_I2C_MASTER.c ****         }
 626:.\Generated_Source\PSoC4/I2CM_I2C_MASTER.c **** 
 627:.\Generated_Source\PSoC4/I2CM_I2C_MASTER.c ****         /* Check results after byte was sent */
 628:.\Generated_Source\PSoC4/I2CM_I2C_MASTER.c ****         if(I2CM_CHECK_INTR_MASTER(I2CM_INTR_MASTER_I2C_ACK))
 321              		.loc 1 628 0
 322 001e 0423     		mov	r3, #4
 323 0020 1068     		ldr	r0, [r2]
 324 0022 0340     		and	r3, r0
ARM GAS  C:\Users\ddemidov\AppData\Local\Temp\ccUDC9zP.s 			page 18


 325 0024 04D0     		beq	.L39
 629:.\Generated_Source\PSoC4/I2CM_I2C_MASTER.c ****         {
 630:.\Generated_Source\PSoC4/I2CM_I2C_MASTER.c ****             I2CM_state = I2CM_I2C_FSM_MSTR_HALT;
 326              		.loc 1 630 0
 327 0026 6023     		mov	r3, #96
 631:.\Generated_Source\PSoC4/I2CM_I2C_MASTER.c ****                          errStatus = I2CM_I2C_MSTR_NO_ERROR;
 328              		.loc 1 631 0
 329 0028 0020     		mov	r0, #0
 630:.\Generated_Source\PSoC4/I2CM_I2C_MASTER.c ****                          errStatus = I2CM_I2C_MSTR_NO_ERROR;
 330              		.loc 1 630 0
 331 002a 0B70     		strb	r3, [r1]
 332              	.LVL17:
 611:.\Generated_Source\PSoC4/I2CM_I2C_MASTER.c ****     errStatus = I2CM_I2C_MSTR_NOT_READY;
 333              		.loc 1 611 0
 334 002c 031C     		mov	r3, r0
 335 002e 0FE0     		b	.L40
 336              	.LVL18:
 337              	.L39:
 632:.\Generated_Source\PSoC4/I2CM_I2C_MASTER.c ****         }
 633:.\Generated_Source\PSoC4/I2CM_I2C_MASTER.c ****         else if(I2CM_CHECK_INTR_MASTER(I2CM_INTR_MASTER_I2C_NACK))
 338              		.loc 1 633 0
 339 0030 0220     		mov	r0, #2
 340 0032 1568     		ldr	r5, [r2]
 341 0034 0542     		tst	r5, r0
 342 0036 02D0     		beq	.L41
 634:.\Generated_Source\PSoC4/I2CM_I2C_MASTER.c ****         {
 635:.\Generated_Source\PSoC4/I2CM_I2C_MASTER.c ****             I2CM_state = I2CM_I2C_FSM_MSTR_HALT;
 343              		.loc 1 635 0
 344 0038 6025     		mov	r5, #96
 345 003a 0D70     		strb	r5, [r1]
 346              	.LVL19:
 347 003c 08E0     		b	.L40
 348              	.LVL20:
 349              	.L41:
 350 003e 1020     		mov	r0, #16
 636:.\Generated_Source\PSoC4/I2CM_I2C_MASTER.c ****                          errStatus = I2CM_I2C_MSTR_ERR_LB_NAK;
 637:.\Generated_Source\PSoC4/I2CM_I2C_MASTER.c ****         }
 638:.\Generated_Source\PSoC4/I2CM_I2C_MASTER.c ****         else if(I2CM_CHECK_INTR_MASTER(I2CM_INTR_MASTER_I2C_ARB_LOST))
 351              		.loc 1 638 0
 352 0040 0123     		mov	r3, #1
 353 0042 1568     		ldr	r5, [r2]
 639:.\Generated_Source\PSoC4/I2CM_I2C_MASTER.c ****         {
 640:.\Generated_Source\PSoC4/I2CM_I2C_MASTER.c ****             I2CM_state = I2CM_I2C_FSM_IDLE;
 354              		.loc 1 640 0
 355 0044 0870     		strb	r0, [r1]
 356              	.LVL21:
 641:.\Generated_Source\PSoC4/I2CM_I2C_MASTER.c ****                          errStatus = I2CM_I2C_MSTR_ERR_ARB_LOST;
 357              		.loc 1 641 0
 358 0046 181C     		mov	r0, r3
 638:.\Generated_Source\PSoC4/I2CM_I2C_MASTER.c ****         {
 359              		.loc 1 638 0
 360 0048 1D42     		tst	r5, r3
 361 004a 01D1     		bne	.L40
 362              	.LVL22:
 642:.\Generated_Source\PSoC4/I2CM_I2C_MASTER.c ****                          resetIp   = I2CM_I2C_RESET_ERROR;
 643:.\Generated_Source\PSoC4/I2CM_I2C_MASTER.c ****         }
 644:.\Generated_Source\PSoC4/I2CM_I2C_MASTER.c ****         else /* I2CM_INTR_MASTER_I2C_BUS_ERROR set is */
ARM GAS  C:\Users\ddemidov\AppData\Local\Temp\ccUDC9zP.s 			page 19


 645:.\Generated_Source\PSoC4/I2CM_I2C_MASTER.c ****         {
 646:.\Generated_Source\PSoC4/I2CM_I2C_MASTER.c ****             I2CM_state = I2CM_I2C_FSM_IDLE;
 647:.\Generated_Source\PSoC4/I2CM_I2C_MASTER.c ****                          errStatus = I2CM_I2C_MSTR_ERR_BUS_ERR;
 363              		.loc 1 647 0
 364 004c 8020     		mov	r0, #128
 365 004e 4000     		lsl	r0, r0, #1
 366              	.LVL23:
 367              	.L40:
 648:.\Generated_Source\PSoC4/I2CM_I2C_MASTER.c ****                          resetIp   = I2CM_I2C_RESET_ERROR;
 649:.\Generated_Source\PSoC4/I2CM_I2C_MASTER.c ****         }
 650:.\Generated_Source\PSoC4/I2CM_I2C_MASTER.c **** 
 651:.\Generated_Source\PSoC4/I2CM_I2C_MASTER.c ****         I2CM_ClearMasterInterruptSource(I2CM_INTR_MASTER_I2C_ACK      |
 368              		.loc 1 651 0
 369 0050 1460     		str	r4, [r2]
 652:.\Generated_Source\PSoC4/I2CM_I2C_MASTER.c ****                                                     I2CM_INTR_MASTER_I2C_NACK     |
 653:.\Generated_Source\PSoC4/I2CM_I2C_MASTER.c ****                                                     I2CM_INTR_MASTER_I2C_ARB_LOST |
 654:.\Generated_Source\PSoC4/I2CM_I2C_MASTER.c ****                                                     I2CM_INTR_MASTER_I2C_BUS_ERROR);
 655:.\Generated_Source\PSoC4/I2CM_I2C_MASTER.c **** 
 656:.\Generated_Source\PSoC4/I2CM_I2C_MASTER.c ****         /* Reset block in case of: LOST_ARB or BUS_ERR */
 657:.\Generated_Source\PSoC4/I2CM_I2C_MASTER.c ****         if(0u != resetIp)
 370              		.loc 1 657 0
 371 0052 002B     		cmp	r3, #0
 372 0054 09D0     		beq	.L37
 658:.\Generated_Source\PSoC4/I2CM_I2C_MASTER.c ****         {
 659:.\Generated_Source\PSoC4/I2CM_I2C_MASTER.c ****             I2CM_SCB_SW_RESET;
 373              		.loc 1 659 0
 374 0056 8021     		mov	r1, #128
 375 0058 074A     		ldr	r2, .L49+12
 376 005a 0906     		lsl	r1, r1, #24
 377 005c 1368     		ldr	r3, [r2]
 378 005e 5B00     		lsl	r3, r3, #1
 379 0060 5B08     		lsr	r3, r3, #1
 380 0062 1360     		str	r3, [r2]
 381 0064 1368     		ldr	r3, [r2]
 382 0066 0B43     		orr	r3, r1
 383 0068 1360     		str	r3, [r2]
 384              	.LVL24:
 385              	.L37:
 660:.\Generated_Source\PSoC4/I2CM_I2C_MASTER.c ****         }
 661:.\Generated_Source\PSoC4/I2CM_I2C_MASTER.c ****     }
 662:.\Generated_Source\PSoC4/I2CM_I2C_MASTER.c **** 
 663:.\Generated_Source\PSoC4/I2CM_I2C_MASTER.c ****     return(errStatus);
 664:.\Generated_Source\PSoC4/I2CM_I2C_MASTER.c **** }
 386              		.loc 1 664 0
 387              		@ sp needed
 388 006a 30BD     		pop	{r4, r5, pc}
 389              	.L50:
 390              		.align	2
 391              	.L49:
 392 006c 00000000 		.word	I2CM_state
 393 0070 40022540 		.word	1076167232
 394 0074 000F2540 		.word	1076170496
 395 0078 00002540 		.word	1076166656
 396              		.cfi_endproc
 397              	.LFE7:
 398              		.size	I2CM_I2CMasterWriteByte, .-I2CM_I2CMasterWriteByte
 399              		.section	.text.I2CM_I2CMasterReadByte,"ax",%progbits
ARM GAS  C:\Users\ddemidov\AppData\Local\Temp\ccUDC9zP.s 			page 20


 400              		.align	1
 401              		.global	I2CM_I2CMasterReadByte
 402              		.code	16
 403              		.thumb_func
 404              		.type	I2CM_I2CMasterReadByte, %function
 405              	I2CM_I2CMasterReadByte:
 406              	.LFB8:
 665:.\Generated_Source\PSoC4/I2CM_I2C_MASTER.c **** 
 666:.\Generated_Source\PSoC4/I2CM_I2C_MASTER.c **** 
 667:.\Generated_Source\PSoC4/I2CM_I2C_MASTER.c **** /*******************************************************************************
 668:.\Generated_Source\PSoC4/I2CM_I2C_MASTER.c **** * Function Name: I2CM_I2CMasterReadByte
 669:.\Generated_Source\PSoC4/I2CM_I2C_MASTER.c **** ********************************************************************************
 670:.\Generated_Source\PSoC4/I2CM_I2C_MASTER.c **** *
 671:.\Generated_Source\PSoC4/I2CM_I2C_MASTER.c **** * Summary:
 672:.\Generated_Source\PSoC4/I2CM_I2C_MASTER.c **** *  Reads one byte from a slave and ACKs or NAKs received byte.
 673:.\Generated_Source\PSoC4/I2CM_I2C_MASTER.c **** *  This function does not generate NAK explicitly. The following call
 674:.\Generated_Source\PSoC4/I2CM_I2C_MASTER.c **** *  SCB_I2CMasterSendStop() or SCB_I2CMasterSendRestart() will generate NAK and
 675:.\Generated_Source\PSoC4/I2CM_I2C_MASTER.c **** *  Stop or ReStart condition appropriately.
 676:.\Generated_Source\PSoC4/I2CM_I2C_MASTER.c **** *  This function is blocking and does not return until byte is received
 677:.\Generated_Source\PSoC4/I2CM_I2C_MASTER.c **** *  or error occurred.
 678:.\Generated_Source\PSoC4/I2CM_I2C_MASTER.c **** *
 679:.\Generated_Source\PSoC4/I2CM_I2C_MASTER.c **** * Parameters:
 680:.\Generated_Source\PSoC4/I2CM_I2C_MASTER.c **** *  ackNack: Response to received byte.
 681:.\Generated_Source\PSoC4/I2CM_I2C_MASTER.c **** *
 682:.\Generated_Source\PSoC4/I2CM_I2C_MASTER.c **** * Return:
 683:.\Generated_Source\PSoC4/I2CM_I2C_MASTER.c **** *  Byte read from the slave. In case of error the MSB of returned data
 684:.\Generated_Source\PSoC4/I2CM_I2C_MASTER.c **** *  is set to 1.
 685:.\Generated_Source\PSoC4/I2CM_I2C_MASTER.c **** *
 686:.\Generated_Source\PSoC4/I2CM_I2C_MASTER.c **** * Side Effects:
 687:.\Generated_Source\PSoC4/I2CM_I2C_MASTER.c **** *  A valid Start or ReStart condition must be generated before calling this
 688:.\Generated_Source\PSoC4/I2CM_I2C_MASTER.c **** *  function. This function does nothing and returns invalid byte value
 689:.\Generated_Source\PSoC4/I2CM_I2C_MASTER.c **** *  if Start or ReStart conditions failed before this function was called.
 690:.\Generated_Source\PSoC4/I2CM_I2C_MASTER.c **** *
 691:.\Generated_Source\PSoC4/I2CM_I2C_MASTER.c **** * Global variables:
 692:.\Generated_Source\PSoC4/I2CM_I2C_MASTER.c **** *  I2CM_state - used to store current state of software FSM.
 693:.\Generated_Source\PSoC4/I2CM_I2C_MASTER.c **** *
 694:.\Generated_Source\PSoC4/I2CM_I2C_MASTER.c **** *******************************************************************************/
 695:.\Generated_Source\PSoC4/I2CM_I2C_MASTER.c **** uint32 I2CM_I2CMasterReadByte(uint32 ackNack)
 696:.\Generated_Source\PSoC4/I2CM_I2C_MASTER.c **** {
 407              		.loc 1 696 0
 408              		.cfi_startproc
 409              	.LVL25:
 410 0000 10B5     		push	{r4, lr}
 411              		.cfi_def_cfa_offset 8
 412              		.cfi_offset 4, -8
 413              		.cfi_offset 14, -4
 697:.\Generated_Source\PSoC4/I2CM_I2C_MASTER.c ****     uint32 theByte;
 698:.\Generated_Source\PSoC4/I2CM_I2C_MASTER.c **** 
 699:.\Generated_Source\PSoC4/I2CM_I2C_MASTER.c ****     /* Return invalid byte in case BUS_ERR happen during receiving */
 700:.\Generated_Source\PSoC4/I2CM_I2C_MASTER.c ****     theByte = I2CM_I2C_INVALID_BYTE;
 701:.\Generated_Source\PSoC4/I2CM_I2C_MASTER.c **** 
 702:.\Generated_Source\PSoC4/I2CM_I2C_MASTER.c ****     /* Check FSM state before read byte */
 703:.\Generated_Source\PSoC4/I2CM_I2C_MASTER.c ****     if(I2CM_CHECK_I2C_MASTER_ACTIVE)
 414              		.loc 1 703 0
 415 0002 184B     		ldr	r3, .L59
 416 0004 1A78     		ldrb	r2, [r3]
 417 0006 191C     		mov	r1, r3
ARM GAS  C:\Users\ddemidov\AppData\Local\Temp\ccUDC9zP.s 			page 21


 418 0008 9306     		lsl	r3, r2, #26
 419 000a 26D5     		bpl	.L57
 420              	.L54:
 704:.\Generated_Source\PSoC4/I2CM_I2C_MASTER.c ****     {
 705:.\Generated_Source\PSoC4/I2CM_I2C_MASTER.c ****         while((!I2CM_CHECK_INTR_RX(I2CM_INTR_RX_NOT_EMPTY)) &&
 421              		.loc 1 705 0 discriminator 2
 422 000c 164B     		ldr	r3, .L59+4
 423 000e 1A68     		ldr	r2, [r3]
 424 0010 5207     		lsl	r2, r2, #29
 425 0012 05D4     		bmi	.L53
 706:.\Generated_Source\PSoC4/I2CM_I2C_MASTER.c ****               (!I2CM_CHECK_INTR_MASTER(I2CM_INTR_MASTER_I2C_ARB_LOST |
 426              		.loc 1 706 0 discriminator 1
 427 0014 154A     		ldr	r2, .L59+8
 428 0016 1468     		ldr	r4, [r2]
 705:.\Generated_Source\PSoC4/I2CM_I2C_MASTER.c ****               (!I2CM_CHECK_INTR_MASTER(I2CM_INTR_MASTER_I2C_ARB_LOST |
 429              		.loc 1 705 0 discriminator 1
 430 0018 0222     		mov	r2, #2
 431 001a FF32     		add	r2, r2, #255
 432 001c 1442     		tst	r4, r2
 433 001e F5D0     		beq	.L54
 434              	.L53:
 707:.\Generated_Source\PSoC4/I2CM_I2C_MASTER.c ****                                                   I2CM_INTR_MASTER_I2C_BUS_ERROR)))
 708:.\Generated_Source\PSoC4/I2CM_I2C_MASTER.c ****         {
 709:.\Generated_Source\PSoC4/I2CM_I2C_MASTER.c ****             /* Wait until byte has been received */
 710:.\Generated_Source\PSoC4/I2CM_I2C_MASTER.c ****         }
 711:.\Generated_Source\PSoC4/I2CM_I2C_MASTER.c **** 
 712:.\Generated_Source\PSoC4/I2CM_I2C_MASTER.c ****         /* Check the results after the byte was sent */
 713:.\Generated_Source\PSoC4/I2CM_I2C_MASTER.c ****         if(I2CM_CHECK_INTR_RX(I2CM_INTR_RX_NOT_EMPTY))
 435              		.loc 1 713 0
 436 0020 0422     		mov	r2, #4
 437 0022 1B68     		ldr	r3, [r3]
 438 0024 1342     		tst	r3, r2
 439 0026 0BD0     		beq	.L55
 714:.\Generated_Source\PSoC4/I2CM_I2C_MASTER.c ****         {
 715:.\Generated_Source\PSoC4/I2CM_I2C_MASTER.c ****             theByte = I2CM_RX_FIFO_RD_REG;
 440              		.loc 1 715 0
 441 0028 114B     		ldr	r3, .L59+12
 716:.\Generated_Source\PSoC4/I2CM_I2C_MASTER.c **** 
 717:.\Generated_Source\PSoC4/I2CM_I2C_MASTER.c ****             I2CM_ClearRxInterruptSource(I2CM_INTR_RX_NOT_EMPTY);
 442              		.loc 1 717 0
 443 002a 0F4C     		ldr	r4, .L59+4
 715:.\Generated_Source\PSoC4/I2CM_I2C_MASTER.c **** 
 444              		.loc 1 715 0
 445 002c 1B68     		ldr	r3, [r3]
 446              	.LVL26:
 447              		.loc 1 717 0
 448 002e 2260     		str	r2, [r4]
 718:.\Generated_Source\PSoC4/I2CM_I2C_MASTER.c **** 
 719:.\Generated_Source\PSoC4/I2CM_I2C_MASTER.c ****             if(0u == ackNack)
 449              		.loc 1 719 0
 450 0030 0028     		cmp	r0, #0
 451 0032 02D1     		bne	.L56
 720:.\Generated_Source\PSoC4/I2CM_I2C_MASTER.c ****             {
 721:.\Generated_Source\PSoC4/I2CM_I2C_MASTER.c ****                 I2CM_I2C_MASTER_GENERATE_ACK;
 452              		.loc 1 721 0
 453 0034 0F49     		ldr	r1, .L59+16
 454 0036 0A60     		str	r2, [r1]
ARM GAS  C:\Users\ddemidov\AppData\Local\Temp\ccUDC9zP.s 			page 22


 455 0038 11E0     		b	.L52
 456              	.L56:
 722:.\Generated_Source\PSoC4/I2CM_I2C_MASTER.c ****             }
 723:.\Generated_Source\PSoC4/I2CM_I2C_MASTER.c ****             else
 724:.\Generated_Source\PSoC4/I2CM_I2C_MASTER.c ****             {
 725:.\Generated_Source\PSoC4/I2CM_I2C_MASTER.c ****                 /* NACK is generated by Stop or ReStart command */
 726:.\Generated_Source\PSoC4/I2CM_I2C_MASTER.c ****                 I2CM_state = I2CM_I2C_FSM_MSTR_HALT;
 457              		.loc 1 726 0
 458 003a 6022     		mov	r2, #96
 459 003c 0A70     		strb	r2, [r1]
 460 003e 0EE0     		b	.L52
 461              	.LVL27:
 462              	.L55:
 727:.\Generated_Source\PSoC4/I2CM_I2C_MASTER.c ****             }
 728:.\Generated_Source\PSoC4/I2CM_I2C_MASTER.c ****         }
 729:.\Generated_Source\PSoC4/I2CM_I2C_MASTER.c ****         else
 730:.\Generated_Source\PSoC4/I2CM_I2C_MASTER.c ****         {
 731:.\Generated_Source\PSoC4/I2CM_I2C_MASTER.c ****             I2CM_ClearMasterInterruptSource(I2CM_INTR_MASTER_ALL);
 732:.\Generated_Source\PSoC4/I2CM_I2C_MASTER.c **** 
 733:.\Generated_Source\PSoC4/I2CM_I2C_MASTER.c ****             /* Reset block in case of: LOST_ARB or BUS_ERR */
 734:.\Generated_Source\PSoC4/I2CM_I2C_MASTER.c ****             I2CM_SCB_SW_RESET;
 463              		.loc 1 734 0
 464 0040 8021     		mov	r1, #128
 731:.\Generated_Source\PSoC4/I2CM_I2C_MASTER.c **** 
 465              		.loc 1 731 0
 466 0042 0D4A     		ldr	r2, .L59+20
 467 0044 094B     		ldr	r3, .L59+8
 468              		.loc 1 734 0
 469 0046 0906     		lsl	r1, r1, #24
 731:.\Generated_Source\PSoC4/I2CM_I2C_MASTER.c **** 
 470              		.loc 1 731 0
 471 0048 1A60     		str	r2, [r3]
 472              		.loc 1 734 0
 473 004a 0C4A     		ldr	r2, .L59+24
 474 004c 1368     		ldr	r3, [r2]
 475 004e 5B00     		lsl	r3, r3, #1
 476 0050 5B08     		lsr	r3, r3, #1
 477 0052 1360     		str	r3, [r2]
 478 0054 1368     		ldr	r3, [r2]
 479 0056 0B43     		orr	r3, r1
 480 0058 1360     		str	r3, [r2]
 481              	.L57:
 700:.\Generated_Source\PSoC4/I2CM_I2C_MASTER.c **** 
 482              		.loc 1 700 0
 483 005a 0123     		mov	r3, #1
 484 005c 5B42     		neg	r3, r3
 485              	.LVL28:
 486              	.L52:
 735:.\Generated_Source\PSoC4/I2CM_I2C_MASTER.c ****         }
 736:.\Generated_Source\PSoC4/I2CM_I2C_MASTER.c ****     }
 737:.\Generated_Source\PSoC4/I2CM_I2C_MASTER.c **** 
 738:.\Generated_Source\PSoC4/I2CM_I2C_MASTER.c ****     return(theByte);
 739:.\Generated_Source\PSoC4/I2CM_I2C_MASTER.c **** }
 487              		.loc 1 739 0
 488 005e 181C     		mov	r0, r3
 489              	.LVL29:
 490              		@ sp needed
ARM GAS  C:\Users\ddemidov\AppData\Local\Temp\ccUDC9zP.s 			page 23


 491 0060 10BD     		pop	{r4, pc}
 492              	.L60:
 493 0062 C046     		.align	2
 494              	.L59:
 495 0064 00000000 		.word	I2CM_state
 496 0068 C00F2540 		.word	1076170688
 497 006c 000F2540 		.word	1076170496
 498 0070 40032540 		.word	1076167488
 499 0074 68002540 		.word	1076166760
 500 0078 17030000 		.word	791
 501 007c 00002540 		.word	1076166656
 502              		.cfi_endproc
 503              	.LFE8:
 504              		.size	I2CM_I2CMasterReadByte, .-I2CM_I2CMasterReadByte
 505              		.section	.text.I2CM_I2CMasterGetReadBufSize,"ax",%progbits
 506              		.align	1
 507              		.global	I2CM_I2CMasterGetReadBufSize
 508              		.code	16
 509              		.thumb_func
 510              		.type	I2CM_I2CMasterGetReadBufSize, %function
 511              	I2CM_I2CMasterGetReadBufSize:
 512              	.LFB9:
 740:.\Generated_Source\PSoC4/I2CM_I2C_MASTER.c **** 
 741:.\Generated_Source\PSoC4/I2CM_I2C_MASTER.c **** 
 742:.\Generated_Source\PSoC4/I2CM_I2C_MASTER.c **** /*******************************************************************************
 743:.\Generated_Source\PSoC4/I2CM_I2C_MASTER.c **** * Function Name: I2CM_I2CMasterGetReadBufSize
 744:.\Generated_Source\PSoC4/I2CM_I2C_MASTER.c **** ********************************************************************************
 745:.\Generated_Source\PSoC4/I2CM_I2C_MASTER.c **** *
 746:.\Generated_Source\PSoC4/I2CM_I2C_MASTER.c **** * Summary:
 747:.\Generated_Source\PSoC4/I2CM_I2C_MASTER.c **** *  Returns the number of bytes that has been transferred with an
 748:.\Generated_Source\PSoC4/I2CM_I2C_MASTER.c **** *  SCB_I2CMasterReadBuf() function.
 749:.\Generated_Source\PSoC4/I2CM_I2C_MASTER.c **** *
 750:.\Generated_Source\PSoC4/I2CM_I2C_MASTER.c **** * Parameters:
 751:.\Generated_Source\PSoC4/I2CM_I2C_MASTER.c **** *  None
 752:.\Generated_Source\PSoC4/I2CM_I2C_MASTER.c **** *
 753:.\Generated_Source\PSoC4/I2CM_I2C_MASTER.c **** * Return:
 754:.\Generated_Source\PSoC4/I2CM_I2C_MASTER.c **** *  Byte count of transfer. If the transfer is not yet complete, it returns
 755:.\Generated_Source\PSoC4/I2CM_I2C_MASTER.c **** *  the byte count transferred so far.
 756:.\Generated_Source\PSoC4/I2CM_I2C_MASTER.c **** *
 757:.\Generated_Source\PSoC4/I2CM_I2C_MASTER.c **** * Side Effects:
 758:.\Generated_Source\PSoC4/I2CM_I2C_MASTER.c **** *  This function returns not valid value if SCB_I2C_MSTAT_ERR_ARB_LOST
 759:.\Generated_Source\PSoC4/I2CM_I2C_MASTER.c **** *  or SCB_I2C_MSTAT_ERR_BUS_ERROR occurred while read transfer.
 760:.\Generated_Source\PSoC4/I2CM_I2C_MASTER.c **** *
 761:.\Generated_Source\PSoC4/I2CM_I2C_MASTER.c **** * Global variables:
 762:.\Generated_Source\PSoC4/I2CM_I2C_MASTER.c **** *  I2CM_mstrRdBufIndex - used to current index within master read
 763:.\Generated_Source\PSoC4/I2CM_I2C_MASTER.c **** *  buffer.
 764:.\Generated_Source\PSoC4/I2CM_I2C_MASTER.c **** *
 765:.\Generated_Source\PSoC4/I2CM_I2C_MASTER.c **** *******************************************************************************/
 766:.\Generated_Source\PSoC4/I2CM_I2C_MASTER.c **** uint32 I2CM_I2CMasterGetReadBufSize(void)
 767:.\Generated_Source\PSoC4/I2CM_I2C_MASTER.c **** {
 513              		.loc 1 767 0
 514              		.cfi_startproc
 768:.\Generated_Source\PSoC4/I2CM_I2C_MASTER.c ****     return(I2CM_mstrRdBufIndex);
 515              		.loc 1 768 0
 516 0000 014B     		ldr	r3, .L62
 769:.\Generated_Source\PSoC4/I2CM_I2C_MASTER.c **** }
 517              		.loc 1 769 0
ARM GAS  C:\Users\ddemidov\AppData\Local\Temp\ccUDC9zP.s 			page 24


 518              		@ sp needed
 768:.\Generated_Source\PSoC4/I2CM_I2C_MASTER.c ****     return(I2CM_mstrRdBufIndex);
 519              		.loc 1 768 0
 520 0002 1868     		ldr	r0, [r3]
 521              		.loc 1 769 0
 522 0004 7047     		bx	lr
 523              	.L63:
 524 0006 C046     		.align	2
 525              	.L62:
 526 0008 00000000 		.word	I2CM_mstrRdBufIndex
 527              		.cfi_endproc
 528              	.LFE9:
 529              		.size	I2CM_I2CMasterGetReadBufSize, .-I2CM_I2CMasterGetReadBufSize
 530              		.section	.text.I2CM_I2CMasterGetWriteBufSize,"ax",%progbits
 531              		.align	1
 532              		.global	I2CM_I2CMasterGetWriteBufSize
 533              		.code	16
 534              		.thumb_func
 535              		.type	I2CM_I2CMasterGetWriteBufSize, %function
 536              	I2CM_I2CMasterGetWriteBufSize:
 537              	.LFB10:
 770:.\Generated_Source\PSoC4/I2CM_I2C_MASTER.c **** 
 771:.\Generated_Source\PSoC4/I2CM_I2C_MASTER.c **** 
 772:.\Generated_Source\PSoC4/I2CM_I2C_MASTER.c **** /*******************************************************************************
 773:.\Generated_Source\PSoC4/I2CM_I2C_MASTER.c **** * Function Name: I2CM_I2CMasterGetWriteBufSize
 774:.\Generated_Source\PSoC4/I2CM_I2C_MASTER.c **** ********************************************************************************
 775:.\Generated_Source\PSoC4/I2CM_I2C_MASTER.c **** *
 776:.\Generated_Source\PSoC4/I2CM_I2C_MASTER.c **** * Summary:
 777:.\Generated_Source\PSoC4/I2CM_I2C_MASTER.c **** *  Returns the number of bytes that have been transferred with an
 778:.\Generated_Source\PSoC4/I2CM_I2C_MASTER.c **** *  SCB_I2CMasterWriteBuf() function.
 779:.\Generated_Source\PSoC4/I2CM_I2C_MASTER.c **** *
 780:.\Generated_Source\PSoC4/I2CM_I2C_MASTER.c **** * Parameters:
 781:.\Generated_Source\PSoC4/I2CM_I2C_MASTER.c **** *  None
 782:.\Generated_Source\PSoC4/I2CM_I2C_MASTER.c **** *
 783:.\Generated_Source\PSoC4/I2CM_I2C_MASTER.c **** * Return:
 784:.\Generated_Source\PSoC4/I2CM_I2C_MASTER.c **** *  Byte count of transfer. If the transfer is not yet complete, it returns
 785:.\Generated_Source\PSoC4/I2CM_I2C_MASTER.c **** *  zero unit transfer completion.
 786:.\Generated_Source\PSoC4/I2CM_I2C_MASTER.c **** *
 787:.\Generated_Source\PSoC4/I2CM_I2C_MASTER.c **** * Side Effects:
 788:.\Generated_Source\PSoC4/I2CM_I2C_MASTER.c **** *  This function returns not valid value if SCB_I2C_MSTAT_ERR_ARB_LOST
 789:.\Generated_Source\PSoC4/I2CM_I2C_MASTER.c **** *  or SCB_I2C_MSTAT_ERR_BUS_ERROR occurred while read transfer.
 790:.\Generated_Source\PSoC4/I2CM_I2C_MASTER.c **** *
 791:.\Generated_Source\PSoC4/I2CM_I2C_MASTER.c **** * Global variables:
 792:.\Generated_Source\PSoC4/I2CM_I2C_MASTER.c **** *  I2CM_mstrWrBufIndex - used to current index within master write
 793:.\Generated_Source\PSoC4/I2CM_I2C_MASTER.c **** *  buffer.
 794:.\Generated_Source\PSoC4/I2CM_I2C_MASTER.c **** *
 795:.\Generated_Source\PSoC4/I2CM_I2C_MASTER.c **** *******************************************************************************/
 796:.\Generated_Source\PSoC4/I2CM_I2C_MASTER.c **** uint32 I2CM_I2CMasterGetWriteBufSize(void)
 797:.\Generated_Source\PSoC4/I2CM_I2C_MASTER.c **** {
 538              		.loc 1 797 0
 539              		.cfi_startproc
 798:.\Generated_Source\PSoC4/I2CM_I2C_MASTER.c ****     return(I2CM_mstrWrBufIndex);
 540              		.loc 1 798 0
 541 0000 014B     		ldr	r3, .L65
 799:.\Generated_Source\PSoC4/I2CM_I2C_MASTER.c **** }
 542              		.loc 1 799 0
 543              		@ sp needed
ARM GAS  C:\Users\ddemidov\AppData\Local\Temp\ccUDC9zP.s 			page 25


 798:.\Generated_Source\PSoC4/I2CM_I2C_MASTER.c ****     return(I2CM_mstrWrBufIndex);
 544              		.loc 1 798 0
 545 0002 1868     		ldr	r0, [r3]
 546              		.loc 1 799 0
 547 0004 7047     		bx	lr
 548              	.L66:
 549 0006 C046     		.align	2
 550              	.L65:
 551 0008 00000000 		.word	I2CM_mstrWrBufIndex
 552              		.cfi_endproc
 553              	.LFE10:
 554              		.size	I2CM_I2CMasterGetWriteBufSize, .-I2CM_I2CMasterGetWriteBufSize
 555              		.section	.text.I2CM_I2CMasterClearReadBuf,"ax",%progbits
 556              		.align	1
 557              		.global	I2CM_I2CMasterClearReadBuf
 558              		.code	16
 559              		.thumb_func
 560              		.type	I2CM_I2CMasterClearReadBuf, %function
 561              	I2CM_I2CMasterClearReadBuf:
 562              	.LFB11:
 800:.\Generated_Source\PSoC4/I2CM_I2C_MASTER.c **** 
 801:.\Generated_Source\PSoC4/I2CM_I2C_MASTER.c **** 
 802:.\Generated_Source\PSoC4/I2CM_I2C_MASTER.c **** /*******************************************************************************
 803:.\Generated_Source\PSoC4/I2CM_I2C_MASTER.c **** * Function Name: I2CM_I2CMasterClearReadBuf
 804:.\Generated_Source\PSoC4/I2CM_I2C_MASTER.c **** ********************************************************************************
 805:.\Generated_Source\PSoC4/I2CM_I2C_MASTER.c **** *
 806:.\Generated_Source\PSoC4/I2CM_I2C_MASTER.c **** * Summary:
 807:.\Generated_Source\PSoC4/I2CM_I2C_MASTER.c **** *  Resets the read buffer pointer back to the first byte in the buffer.
 808:.\Generated_Source\PSoC4/I2CM_I2C_MASTER.c **** *
 809:.\Generated_Source\PSoC4/I2CM_I2C_MASTER.c **** * Parameters:
 810:.\Generated_Source\PSoC4/I2CM_I2C_MASTER.c **** *  None
 811:.\Generated_Source\PSoC4/I2CM_I2C_MASTER.c **** *
 812:.\Generated_Source\PSoC4/I2CM_I2C_MASTER.c **** * Return:
 813:.\Generated_Source\PSoC4/I2CM_I2C_MASTER.c **** *  None
 814:.\Generated_Source\PSoC4/I2CM_I2C_MASTER.c **** *
 815:.\Generated_Source\PSoC4/I2CM_I2C_MASTER.c **** * Global variables:
 816:.\Generated_Source\PSoC4/I2CM_I2C_MASTER.c **** *  I2CM_mstrRdBufIndex - used to current index within master read
 817:.\Generated_Source\PSoC4/I2CM_I2C_MASTER.c **** *   buffer.
 818:.\Generated_Source\PSoC4/I2CM_I2C_MASTER.c **** *  I2CM_mstrStatus - used to store current status of I2C Master.
 819:.\Generated_Source\PSoC4/I2CM_I2C_MASTER.c **** *
 820:.\Generated_Source\PSoC4/I2CM_I2C_MASTER.c **** *******************************************************************************/
 821:.\Generated_Source\PSoC4/I2CM_I2C_MASTER.c **** void I2CM_I2CMasterClearReadBuf(void)
 822:.\Generated_Source\PSoC4/I2CM_I2C_MASTER.c **** {
 563              		.loc 1 822 0
 564              		.cfi_startproc
 565 0000 08B5     		push	{r3, lr}
 566              		.cfi_def_cfa_offset 8
 567              		.cfi_offset 3, -8
 568              		.cfi_offset 14, -4
 823:.\Generated_Source\PSoC4/I2CM_I2C_MASTER.c ****     I2CM_DisableInt();  /* Lock from interruption */
 569              		.loc 1 823 0
 570 0002 0A20     		mov	r0, #10
 571 0004 FFF7FEFF 		bl	CyIntDisable
 572              	.LVL30:
 824:.\Generated_Source\PSoC4/I2CM_I2C_MASTER.c **** 
 825:.\Generated_Source\PSoC4/I2CM_I2C_MASTER.c ****     I2CM_mstrRdBufIndex = 0u;
 573              		.loc 1 825 0
ARM GAS  C:\Users\ddemidov\AppData\Local\Temp\ccUDC9zP.s 			page 26


 574 0008 0022     		mov	r2, #0
 826:.\Generated_Source\PSoC4/I2CM_I2C_MASTER.c ****     I2CM_mstrStatus    &= (uint16) ~I2CM_I2C_MSTAT_RD_CMPLT;
 575              		.loc 1 826 0
 576 000a 0121     		mov	r1, #1
 825:.\Generated_Source\PSoC4/I2CM_I2C_MASTER.c ****     I2CM_mstrStatus    &= (uint16) ~I2CM_I2C_MSTAT_RD_CMPLT;
 577              		.loc 1 825 0
 578 000c 044B     		ldr	r3, .L68
 827:.\Generated_Source\PSoC4/I2CM_I2C_MASTER.c **** 
 828:.\Generated_Source\PSoC4/I2CM_I2C_MASTER.c ****     I2CM_EnableInt();   /* Release lock */
 579              		.loc 1 828 0
 580 000e 0A20     		mov	r0, #10
 825:.\Generated_Source\PSoC4/I2CM_I2C_MASTER.c ****     I2CM_mstrStatus    &= (uint16) ~I2CM_I2C_MSTAT_RD_CMPLT;
 581              		.loc 1 825 0
 582 0010 1A60     		str	r2, [r3]
 826:.\Generated_Source\PSoC4/I2CM_I2C_MASTER.c **** 
 583              		.loc 1 826 0
 584 0012 044A     		ldr	r2, .L68+4
 829:.\Generated_Source\PSoC4/I2CM_I2C_MASTER.c **** }
 585              		.loc 1 829 0
 586              		@ sp needed
 826:.\Generated_Source\PSoC4/I2CM_I2C_MASTER.c **** 
 587              		.loc 1 826 0
 588 0014 1388     		ldrh	r3, [r2]
 589 0016 8B43     		bic	r3, r1
 590 0018 1380     		strh	r3, [r2]
 828:.\Generated_Source\PSoC4/I2CM_I2C_MASTER.c **** }
 591              		.loc 1 828 0
 592 001a FFF7FEFF 		bl	CyIntEnable
 593              	.LVL31:
 594              		.loc 1 829 0
 595 001e 08BD     		pop	{r3, pc}
 596              	.L69:
 597              		.align	2
 598              	.L68:
 599 0020 00000000 		.word	I2CM_mstrRdBufIndex
 600 0024 00000000 		.word	I2CM_mstrStatus
 601              		.cfi_endproc
 602              	.LFE11:
 603              		.size	I2CM_I2CMasterClearReadBuf, .-I2CM_I2CMasterClearReadBuf
 604              		.section	.text.I2CM_I2CMasterClearWriteBuf,"ax",%progbits
 605              		.align	1
 606              		.global	I2CM_I2CMasterClearWriteBuf
 607              		.code	16
 608              		.thumb_func
 609              		.type	I2CM_I2CMasterClearWriteBuf, %function
 610              	I2CM_I2CMasterClearWriteBuf:
 611              	.LFB12:
 830:.\Generated_Source\PSoC4/I2CM_I2C_MASTER.c **** 
 831:.\Generated_Source\PSoC4/I2CM_I2C_MASTER.c **** 
 832:.\Generated_Source\PSoC4/I2CM_I2C_MASTER.c **** /*******************************************************************************
 833:.\Generated_Source\PSoC4/I2CM_I2C_MASTER.c **** * Function Name: I2CM_I2CMasterClearWriteBuf
 834:.\Generated_Source\PSoC4/I2CM_I2C_MASTER.c **** ********************************************************************************
 835:.\Generated_Source\PSoC4/I2CM_I2C_MASTER.c **** *
 836:.\Generated_Source\PSoC4/I2CM_I2C_MASTER.c **** * Summary:
 837:.\Generated_Source\PSoC4/I2CM_I2C_MASTER.c **** *  Resets the write buffer pointer back to the first byte in the buffer.
 838:.\Generated_Source\PSoC4/I2CM_I2C_MASTER.c **** *
 839:.\Generated_Source\PSoC4/I2CM_I2C_MASTER.c **** * Parameters:
ARM GAS  C:\Users\ddemidov\AppData\Local\Temp\ccUDC9zP.s 			page 27


 840:.\Generated_Source\PSoC4/I2CM_I2C_MASTER.c **** *  None
 841:.\Generated_Source\PSoC4/I2CM_I2C_MASTER.c **** *
 842:.\Generated_Source\PSoC4/I2CM_I2C_MASTER.c **** * Return:
 843:.\Generated_Source\PSoC4/I2CM_I2C_MASTER.c **** *  None
 844:.\Generated_Source\PSoC4/I2CM_I2C_MASTER.c **** *
 845:.\Generated_Source\PSoC4/I2CM_I2C_MASTER.c **** * Global variables:
 846:.\Generated_Source\PSoC4/I2CM_I2C_MASTER.c **** *  I2CM_mstrRdBufIndex - used to current index within master read
 847:.\Generated_Source\PSoC4/I2CM_I2C_MASTER.c **** *   buffer.
 848:.\Generated_Source\PSoC4/I2CM_I2C_MASTER.c **** *  I2CM_mstrStatus - used to store current status of I2C Master.
 849:.\Generated_Source\PSoC4/I2CM_I2C_MASTER.c **** *
 850:.\Generated_Source\PSoC4/I2CM_I2C_MASTER.c **** *******************************************************************************/
 851:.\Generated_Source\PSoC4/I2CM_I2C_MASTER.c **** void I2CM_I2CMasterClearWriteBuf(void)
 852:.\Generated_Source\PSoC4/I2CM_I2C_MASTER.c **** {
 612              		.loc 1 852 0
 613              		.cfi_startproc
 614 0000 08B5     		push	{r3, lr}
 615              		.cfi_def_cfa_offset 8
 616              		.cfi_offset 3, -8
 617              		.cfi_offset 14, -4
 853:.\Generated_Source\PSoC4/I2CM_I2C_MASTER.c ****     I2CM_DisableInt();  /* Lock from interruption */
 618              		.loc 1 853 0
 619 0002 0A20     		mov	r0, #10
 620 0004 FFF7FEFF 		bl	CyIntDisable
 621              	.LVL32:
 854:.\Generated_Source\PSoC4/I2CM_I2C_MASTER.c **** 
 855:.\Generated_Source\PSoC4/I2CM_I2C_MASTER.c ****     I2CM_mstrWrBufIndex = 0u;
 622              		.loc 1 855 0
 623 0008 0022     		mov	r2, #0
 856:.\Generated_Source\PSoC4/I2CM_I2C_MASTER.c ****     I2CM_mstrStatus    &= (uint16) ~I2CM_I2C_MSTAT_WR_CMPLT;
 624              		.loc 1 856 0
 625 000a 0221     		mov	r1, #2
 855:.\Generated_Source\PSoC4/I2CM_I2C_MASTER.c ****     I2CM_mstrStatus    &= (uint16) ~I2CM_I2C_MSTAT_WR_CMPLT;
 626              		.loc 1 855 0
 627 000c 044B     		ldr	r3, .L71
 857:.\Generated_Source\PSoC4/I2CM_I2C_MASTER.c **** 
 858:.\Generated_Source\PSoC4/I2CM_I2C_MASTER.c ****     I2CM_EnableInt();   /* Release lock */
 628              		.loc 1 858 0
 629 000e 0A20     		mov	r0, #10
 855:.\Generated_Source\PSoC4/I2CM_I2C_MASTER.c ****     I2CM_mstrStatus    &= (uint16) ~I2CM_I2C_MSTAT_WR_CMPLT;
 630              		.loc 1 855 0
 631 0010 1A60     		str	r2, [r3]
 856:.\Generated_Source\PSoC4/I2CM_I2C_MASTER.c **** 
 632              		.loc 1 856 0
 633 0012 044A     		ldr	r2, .L71+4
 859:.\Generated_Source\PSoC4/I2CM_I2C_MASTER.c **** }
 634              		.loc 1 859 0
 635              		@ sp needed
 856:.\Generated_Source\PSoC4/I2CM_I2C_MASTER.c **** 
 636              		.loc 1 856 0
 637 0014 1388     		ldrh	r3, [r2]
 638 0016 8B43     		bic	r3, r1
 639 0018 1380     		strh	r3, [r2]
 858:.\Generated_Source\PSoC4/I2CM_I2C_MASTER.c **** }
 640              		.loc 1 858 0
 641 001a FFF7FEFF 		bl	CyIntEnable
 642              	.LVL33:
 643              		.loc 1 859 0
ARM GAS  C:\Users\ddemidov\AppData\Local\Temp\ccUDC9zP.s 			page 28


 644 001e 08BD     		pop	{r3, pc}
 645              	.L72:
 646              		.align	2
 647              	.L71:
 648 0020 00000000 		.word	I2CM_mstrWrBufIndex
 649 0024 00000000 		.word	I2CM_mstrStatus
 650              		.cfi_endproc
 651              	.LFE12:
 652              		.size	I2CM_I2CMasterClearWriteBuf, .-I2CM_I2CMasterClearWriteBuf
 653              		.section	.text.I2CM_I2CMasterStatus,"ax",%progbits
 654              		.align	1
 655              		.global	I2CM_I2CMasterStatus
 656              		.code	16
 657              		.thumb_func
 658              		.type	I2CM_I2CMasterStatus, %function
 659              	I2CM_I2CMasterStatus:
 660              	.LFB13:
 860:.\Generated_Source\PSoC4/I2CM_I2C_MASTER.c **** 
 861:.\Generated_Source\PSoC4/I2CM_I2C_MASTER.c **** 
 862:.\Generated_Source\PSoC4/I2CM_I2C_MASTER.c **** /*******************************************************************************
 863:.\Generated_Source\PSoC4/I2CM_I2C_MASTER.c **** * Function Name: I2CM_I2CMasterStatus
 864:.\Generated_Source\PSoC4/I2CM_I2C_MASTER.c **** ********************************************************************************
 865:.\Generated_Source\PSoC4/I2CM_I2C_MASTER.c **** *
 866:.\Generated_Source\PSoC4/I2CM_I2C_MASTER.c **** * Summary:
 867:.\Generated_Source\PSoC4/I2CM_I2C_MASTER.c **** *  Returns the master's communication status.
 868:.\Generated_Source\PSoC4/I2CM_I2C_MASTER.c **** *
 869:.\Generated_Source\PSoC4/I2CM_I2C_MASTER.c **** * Parameters:
 870:.\Generated_Source\PSoC4/I2CM_I2C_MASTER.c **** *  None
 871:.\Generated_Source\PSoC4/I2CM_I2C_MASTER.c **** *
 872:.\Generated_Source\PSoC4/I2CM_I2C_MASTER.c **** * Return:
 873:.\Generated_Source\PSoC4/I2CM_I2C_MASTER.c **** *  Current status of I2C master.
 874:.\Generated_Source\PSoC4/I2CM_I2C_MASTER.c **** *
 875:.\Generated_Source\PSoC4/I2CM_I2C_MASTER.c **** * Global variables:
 876:.\Generated_Source\PSoC4/I2CM_I2C_MASTER.c **** *  I2CM_mstrStatus - used to store current status of I2C Master.
 877:.\Generated_Source\PSoC4/I2CM_I2C_MASTER.c **** *
 878:.\Generated_Source\PSoC4/I2CM_I2C_MASTER.c **** *******************************************************************************/
 879:.\Generated_Source\PSoC4/I2CM_I2C_MASTER.c **** uint32 I2CM_I2CMasterStatus(void)
 880:.\Generated_Source\PSoC4/I2CM_I2C_MASTER.c **** {
 661              		.loc 1 880 0
 662              		.cfi_startproc
 663 0000 10B5     		push	{r4, lr}
 664              		.cfi_def_cfa_offset 8
 665              		.cfi_offset 4, -8
 666              		.cfi_offset 14, -4
 881:.\Generated_Source\PSoC4/I2CM_I2C_MASTER.c ****     uint32 status;
 882:.\Generated_Source\PSoC4/I2CM_I2C_MASTER.c **** 
 883:.\Generated_Source\PSoC4/I2CM_I2C_MASTER.c ****     I2CM_DisableInt();  /* Lock from interruption */
 667              		.loc 1 883 0
 668 0002 0A20     		mov	r0, #10
 669 0004 FFF7FEFF 		bl	CyIntDisable
 670              	.LVL34:
 884:.\Generated_Source\PSoC4/I2CM_I2C_MASTER.c **** 
 885:.\Generated_Source\PSoC4/I2CM_I2C_MASTER.c ****     status = (uint32) I2CM_mstrStatus;
 671              		.loc 1 885 0
 672 0008 064B     		ldr	r3, .L76
 673 000a 1C88     		ldrh	r4, [r3]
 886:.\Generated_Source\PSoC4/I2CM_I2C_MASTER.c **** 
ARM GAS  C:\Users\ddemidov\AppData\Local\Temp\ccUDC9zP.s 			page 29


 887:.\Generated_Source\PSoC4/I2CM_I2C_MASTER.c ****     if (I2CM_CHECK_I2C_MASTER_ACTIVE)
 674              		.loc 1 887 0
 675 000c 064B     		ldr	r3, .L76+4
 885:.\Generated_Source\PSoC4/I2CM_I2C_MASTER.c **** 
 676              		.loc 1 885 0
 677 000e A4B2     		uxth	r4, r4
 678              	.LVL35:
 679              		.loc 1 887 0
 680 0010 1B78     		ldrb	r3, [r3]
 681 0012 9B06     		lsl	r3, r3, #26
 682 0014 01D5     		bpl	.L75
 888:.\Generated_Source\PSoC4/I2CM_I2C_MASTER.c ****     {
 889:.\Generated_Source\PSoC4/I2CM_I2C_MASTER.c ****         /* Add status of master pending transaction: MSTAT_XFER_INP */
 890:.\Generated_Source\PSoC4/I2CM_I2C_MASTER.c ****         status |= (uint32) I2CM_I2C_MSTAT_XFER_INP;
 683              		.loc 1 890 0
 684 0016 0423     		mov	r3, #4
 685 0018 1C43     		orr	r4, r3
 686              	.LVL36:
 687              	.L75:
 891:.\Generated_Source\PSoC4/I2CM_I2C_MASTER.c ****     }
 892:.\Generated_Source\PSoC4/I2CM_I2C_MASTER.c **** 
 893:.\Generated_Source\PSoC4/I2CM_I2C_MASTER.c ****     I2CM_EnableInt();   /* Release lock */
 688              		.loc 1 893 0
 689 001a 0A20     		mov	r0, #10
 690 001c FFF7FEFF 		bl	CyIntEnable
 691              	.LVL37:
 894:.\Generated_Source\PSoC4/I2CM_I2C_MASTER.c **** 
 895:.\Generated_Source\PSoC4/I2CM_I2C_MASTER.c ****     return(status);
 896:.\Generated_Source\PSoC4/I2CM_I2C_MASTER.c **** }
 692              		.loc 1 896 0
 693              		@ sp needed
 694 0020 201C     		mov	r0, r4
 695              	.LVL38:
 696 0022 10BD     		pop	{r4, pc}
 697              	.L77:
 698              		.align	2
 699              	.L76:
 700 0024 00000000 		.word	I2CM_mstrStatus
 701 0028 00000000 		.word	I2CM_state
 702              		.cfi_endproc
 703              	.LFE13:
 704              		.size	I2CM_I2CMasterStatus, .-I2CM_I2CMasterStatus
 705              		.section	.text.I2CM_I2CMasterClearStatus,"ax",%progbits
 706              		.align	1
 707              		.global	I2CM_I2CMasterClearStatus
 708              		.code	16
 709              		.thumb_func
 710              		.type	I2CM_I2CMasterClearStatus, %function
 711              	I2CM_I2CMasterClearStatus:
 712              	.LFB14:
 897:.\Generated_Source\PSoC4/I2CM_I2C_MASTER.c **** 
 898:.\Generated_Source\PSoC4/I2CM_I2C_MASTER.c **** 
 899:.\Generated_Source\PSoC4/I2CM_I2C_MASTER.c **** /*******************************************************************************
 900:.\Generated_Source\PSoC4/I2CM_I2C_MASTER.c **** * Function Name: I2CM_I2CMasterClearStatus
 901:.\Generated_Source\PSoC4/I2CM_I2C_MASTER.c **** ********************************************************************************
 902:.\Generated_Source\PSoC4/I2CM_I2C_MASTER.c **** *
 903:.\Generated_Source\PSoC4/I2CM_I2C_MASTER.c **** * Summary:
ARM GAS  C:\Users\ddemidov\AppData\Local\Temp\ccUDC9zP.s 			page 30


 904:.\Generated_Source\PSoC4/I2CM_I2C_MASTER.c **** *  Clears all status flags and returns the master status.
 905:.\Generated_Source\PSoC4/I2CM_I2C_MASTER.c **** *
 906:.\Generated_Source\PSoC4/I2CM_I2C_MASTER.c **** * Parameters:
 907:.\Generated_Source\PSoC4/I2CM_I2C_MASTER.c **** *  None
 908:.\Generated_Source\PSoC4/I2CM_I2C_MASTER.c **** *
 909:.\Generated_Source\PSoC4/I2CM_I2C_MASTER.c **** * Return:
 910:.\Generated_Source\PSoC4/I2CM_I2C_MASTER.c **** *  Current status of I2C master.
 911:.\Generated_Source\PSoC4/I2CM_I2C_MASTER.c **** *
 912:.\Generated_Source\PSoC4/I2CM_I2C_MASTER.c **** * Global variables:
 913:.\Generated_Source\PSoC4/I2CM_I2C_MASTER.c **** *  I2CM_mstrStatus - used to store current status of I2C Master.
 914:.\Generated_Source\PSoC4/I2CM_I2C_MASTER.c **** *
 915:.\Generated_Source\PSoC4/I2CM_I2C_MASTER.c **** *******************************************************************************/
 916:.\Generated_Source\PSoC4/I2CM_I2C_MASTER.c **** uint32 I2CM_I2CMasterClearStatus(void)
 917:.\Generated_Source\PSoC4/I2CM_I2C_MASTER.c **** {
 713              		.loc 1 917 0
 714              		.cfi_startproc
 715 0000 10B5     		push	{r4, lr}
 716              		.cfi_def_cfa_offset 8
 717              		.cfi_offset 4, -8
 718              		.cfi_offset 14, -4
 918:.\Generated_Source\PSoC4/I2CM_I2C_MASTER.c ****     uint32 status;
 919:.\Generated_Source\PSoC4/I2CM_I2C_MASTER.c **** 
 920:.\Generated_Source\PSoC4/I2CM_I2C_MASTER.c ****     I2CM_DisableInt();  /* Lock from interruption */
 719              		.loc 1 920 0
 720 0002 0A20     		mov	r0, #10
 721 0004 FFF7FEFF 		bl	CyIntDisable
 722              	.LVL39:
 921:.\Generated_Source\PSoC4/I2CM_I2C_MASTER.c **** 
 922:.\Generated_Source\PSoC4/I2CM_I2C_MASTER.c ****     /* Read and clear master status */
 923:.\Generated_Source\PSoC4/I2CM_I2C_MASTER.c ****     status = (uint32) I2CM_mstrStatus;
 924:.\Generated_Source\PSoC4/I2CM_I2C_MASTER.c ****     I2CM_mstrStatus = I2CM_I2C_MSTAT_CLEAR;
 723              		.loc 1 924 0
 724 0008 0022     		mov	r2, #0
 923:.\Generated_Source\PSoC4/I2CM_I2C_MASTER.c ****     I2CM_mstrStatus = I2CM_I2C_MSTAT_CLEAR;
 725              		.loc 1 923 0
 726 000a 044B     		ldr	r3, .L79
 925:.\Generated_Source\PSoC4/I2CM_I2C_MASTER.c **** 
 926:.\Generated_Source\PSoC4/I2CM_I2C_MASTER.c ****     I2CM_EnableInt();   /* Release lock */
 727              		.loc 1 926 0
 728 000c 0A20     		mov	r0, #10
 923:.\Generated_Source\PSoC4/I2CM_I2C_MASTER.c ****     I2CM_mstrStatus = I2CM_I2C_MSTAT_CLEAR;
 729              		.loc 1 923 0
 730 000e 1C88     		ldrh	r4, [r3]
 927:.\Generated_Source\PSoC4/I2CM_I2C_MASTER.c **** 
 928:.\Generated_Source\PSoC4/I2CM_I2C_MASTER.c ****     return(status);
 929:.\Generated_Source\PSoC4/I2CM_I2C_MASTER.c **** }
 731              		.loc 1 929 0
 732              		@ sp needed
 923:.\Generated_Source\PSoC4/I2CM_I2C_MASTER.c ****     I2CM_mstrStatus = I2CM_I2C_MSTAT_CLEAR;
 733              		.loc 1 923 0
 734 0010 A4B2     		uxth	r4, r4
 735              	.LVL40:
 924:.\Generated_Source\PSoC4/I2CM_I2C_MASTER.c **** 
 736              		.loc 1 924 0
 737 0012 1A80     		strh	r2, [r3]
 926:.\Generated_Source\PSoC4/I2CM_I2C_MASTER.c **** 
 738              		.loc 1 926 0
ARM GAS  C:\Users\ddemidov\AppData\Local\Temp\ccUDC9zP.s 			page 31


 739 0014 FFF7FEFF 		bl	CyIntEnable
 740              	.LVL41:
 741              		.loc 1 929 0
 742 0018 201C     		mov	r0, r4
 743              	.LVL42:
 744 001a 10BD     		pop	{r4, pc}
 745              	.L80:
 746              		.align	2
 747              	.L79:
 748 001c 00000000 		.word	I2CM_mstrStatus
 749              		.cfi_endproc
 750              	.LFE14:
 751              		.size	I2CM_I2CMasterClearStatus, .-I2CM_I2CMasterClearStatus
 752              		.section	.text.I2CM_I2CReStartGeneration,"ax",%progbits
 753              		.align	1
 754              		.global	I2CM_I2CReStartGeneration
 755              		.code	16
 756              		.thumb_func
 757              		.type	I2CM_I2CReStartGeneration, %function
 758              	I2CM_I2CReStartGeneration:
 759              	.LFB15:
 930:.\Generated_Source\PSoC4/I2CM_I2C_MASTER.c **** 
 931:.\Generated_Source\PSoC4/I2CM_I2C_MASTER.c **** 
 932:.\Generated_Source\PSoC4/I2CM_I2C_MASTER.c **** /*******************************************************************************
 933:.\Generated_Source\PSoC4/I2CM_I2C_MASTER.c **** * Function Name: I2CM_I2CReStartGeneration
 934:.\Generated_Source\PSoC4/I2CM_I2C_MASTER.c **** ********************************************************************************
 935:.\Generated_Source\PSoC4/I2CM_I2C_MASTER.c **** *
 936:.\Generated_Source\PSoC4/I2CM_I2C_MASTER.c **** * Summary:
 937:.\Generated_Source\PSoC4/I2CM_I2C_MASTER.c **** *  Generates a ReStart condition:
 938:.\Generated_Source\PSoC4/I2CM_I2C_MASTER.c **** *  SCB IP V1 and later: Generates ReStart using the scb IP functionality
 939:.\Generated_Source\PSoC4/I2CM_I2C_MASTER.c **** *    Sets the I2C_MASTER_CMD_M_START and I2C_MASTER_CMD_M_NACK (if the previous
 940:.\Generated_Source\PSoC4/I2CM_I2C_MASTER.c **** *    transaction was read) bits in the SCB.I2C_MASTER_CMD register.
 941:.\Generated_Source\PSoC4/I2CM_I2C_MASTER.c **** *    This combination forces the master to generate ReStart.
 942:.\Generated_Source\PSoC4/I2CM_I2C_MASTER.c **** *
 943:.\Generated_Source\PSoC4/I2CM_I2C_MASTER.c **** *  SCB IP V0: Generates Restart using the GPIO and scb IP functionality.
 944:.\Generated_Source\PSoC4/I2CM_I2C_MASTER.c **** *   After the master completes write or read, the SCL is stretched.
 945:.\Generated_Source\PSoC4/I2CM_I2C_MASTER.c **** *   The master waits until SDA line is released by the slave. Then the GPIO
 946:.\Generated_Source\PSoC4/I2CM_I2C_MASTER.c **** *   function is enabled and the scb IP disabled as it already does not drive
 947:.\Generated_Source\PSoC4/I2CM_I2C_MASTER.c **** *   the bus. In case of the previous transfer was read, the NACK is generated
 948:.\Generated_Source\PSoC4/I2CM_I2C_MASTER.c **** *   by the GPIO. The delay of tLOW is added to manage the hold time.
 949:.\Generated_Source\PSoC4/I2CM_I2C_MASTER.c **** *   Set I2C_M_CMD.START and enable the scb IP. The ReStart generation
 950:.\Generated_Source\PSoC4/I2CM_I2C_MASTER.c **** *   is started after the I2C function is enabled for the SCL.
 951:.\Generated_Source\PSoC4/I2CM_I2C_MASTER.c **** *   Note1: the scb IP due re-enable generates Start but on the I2C bus it
 952:.\Generated_Source\PSoC4/I2CM_I2C_MASTER.c **** *          appears as ReStart.
 953:.\Generated_Source\PSoC4/I2CM_I2C_MASTER.c **** *   Note2: the I2C_M_CMD.START is queued if scb IP is disabled.
 954:.\Generated_Source\PSoC4/I2CM_I2C_MASTER.c **** *   Note3: the I2C_STATUS_M_READ is cleared is address was NACKed before.
 955:.\Generated_Source\PSoC4/I2CM_I2C_MASTER.c **** *
 956:.\Generated_Source\PSoC4/I2CM_I2C_MASTER.c **** * Parameters:
 957:.\Generated_Source\PSoC4/I2CM_I2C_MASTER.c **** *  None
 958:.\Generated_Source\PSoC4/I2CM_I2C_MASTER.c **** *
 959:.\Generated_Source\PSoC4/I2CM_I2C_MASTER.c **** * Return:
 960:.\Generated_Source\PSoC4/I2CM_I2C_MASTER.c **** *  None
 961:.\Generated_Source\PSoC4/I2CM_I2C_MASTER.c **** *
 962:.\Generated_Source\PSoC4/I2CM_I2C_MASTER.c **** * Side Effects:
 963:.\Generated_Source\PSoC4/I2CM_I2C_MASTER.c **** *  SCB IP V0: The NACK generation by the GPIO may cause a greater SCL period
 964:.\Generated_Source\PSoC4/I2CM_I2C_MASTER.c **** *             than expected for the selected master data rate.
 965:.\Generated_Source\PSoC4/I2CM_I2C_MASTER.c **** *
ARM GAS  C:\Users\ddemidov\AppData\Local\Temp\ccUDC9zP.s 			page 32


 966:.\Generated_Source\PSoC4/I2CM_I2C_MASTER.c **** *******************************************************************************/
 967:.\Generated_Source\PSoC4/I2CM_I2C_MASTER.c **** void I2CM_I2CReStartGeneration(void)
 968:.\Generated_Source\PSoC4/I2CM_I2C_MASTER.c **** {
 760              		.loc 1 968 0
 761              		.cfi_startproc
 762              	.LVL43:
 969:.\Generated_Source\PSoC4/I2CM_I2C_MASTER.c **** #if(I2CM_CY_SCBIP_V0)
 970:.\Generated_Source\PSoC4/I2CM_I2C_MASTER.c ****     /* Generates Restart use GPIO and scb IP functionality. Ticket ID#143715,
 971:.\Generated_Source\PSoC4/I2CM_I2C_MASTER.c ****     ID#145238 and ID#173656 */
 972:.\Generated_Source\PSoC4/I2CM_I2C_MASTER.c ****     uint32 status = I2CM_I2C_STATUS_REG;
 973:.\Generated_Source\PSoC4/I2CM_I2C_MASTER.c **** 
 974:.\Generated_Source\PSoC4/I2CM_I2C_MASTER.c ****     while(I2CM_WAIT_SDA_SET_HIGH)
 975:.\Generated_Source\PSoC4/I2CM_I2C_MASTER.c ****     {
 976:.\Generated_Source\PSoC4/I2CM_I2C_MASTER.c ****         /* Wait when slave release SDA line: SCL tHIGH is complete */
 977:.\Generated_Source\PSoC4/I2CM_I2C_MASTER.c ****     }
 978:.\Generated_Source\PSoC4/I2CM_I2C_MASTER.c **** 
 979:.\Generated_Source\PSoC4/I2CM_I2C_MASTER.c ****     /* Prepare DR register to drive SCL line */
 980:.\Generated_Source\PSoC4/I2CM_I2C_MASTER.c ****     I2CM_SET_I2C_SCL_DR(I2CM_I2C_SCL_LOW);
 981:.\Generated_Source\PSoC4/I2CM_I2C_MASTER.c **** 
 982:.\Generated_Source\PSoC4/I2CM_I2C_MASTER.c ****     /* Switch HSIOM to GPIO: SCL goes low */
 983:.\Generated_Source\PSoC4/I2CM_I2C_MASTER.c ****     I2CM_SET_I2C_SCL_HSIOM_SEL(I2CM_HSIOM_GPIO_SEL);
 984:.\Generated_Source\PSoC4/I2CM_I2C_MASTER.c **** 
 985:.\Generated_Source\PSoC4/I2CM_I2C_MASTER.c ****     /* Disable SCB block */
 986:.\Generated_Source\PSoC4/I2CM_I2C_MASTER.c ****     I2CM_CTRL_REG &= (uint32) ~I2CM_CTRL_ENABLED;
 987:.\Generated_Source\PSoC4/I2CM_I2C_MASTER.c **** 
 988:.\Generated_Source\PSoC4/I2CM_I2C_MASTER.c ****     if(0u != (status & I2CM_I2C_STATUS_M_READ))
 989:.\Generated_Source\PSoC4/I2CM_I2C_MASTER.c ****     {
 990:.\Generated_Source\PSoC4/I2CM_I2C_MASTER.c ****         /* Generate NACK use GPIO functionality */
 991:.\Generated_Source\PSoC4/I2CM_I2C_MASTER.c ****         I2CM_SET_I2C_SCL_DR(I2CM_I2C_SCL_LOW);
 992:.\Generated_Source\PSoC4/I2CM_I2C_MASTER.c ****         CyDelayUs(I2CM_I2C_TLOW_TIME); /* Count tLOW */
 993:.\Generated_Source\PSoC4/I2CM_I2C_MASTER.c **** 
 994:.\Generated_Source\PSoC4/I2CM_I2C_MASTER.c ****         I2CM_SET_I2C_SCL_DR(I2CM_I2C_SCL_HIGH);
 995:.\Generated_Source\PSoC4/I2CM_I2C_MASTER.c ****         while(I2CM_WAIT_SCL_SET_HIGH)
 996:.\Generated_Source\PSoC4/I2CM_I2C_MASTER.c ****         {
 997:.\Generated_Source\PSoC4/I2CM_I2C_MASTER.c ****             /* Wait until slave releases SCL in case if it stretches */
 998:.\Generated_Source\PSoC4/I2CM_I2C_MASTER.c ****         }
 999:.\Generated_Source\PSoC4/I2CM_I2C_MASTER.c ****         CyDelayUs(I2CM_I2C_THIGH_TIME); /* Count tHIGH */
1000:.\Generated_Source\PSoC4/I2CM_I2C_MASTER.c ****     }
1001:.\Generated_Source\PSoC4/I2CM_I2C_MASTER.c **** 
1002:.\Generated_Source\PSoC4/I2CM_I2C_MASTER.c ****     /* Count tLOW as hold time for write and read */
1003:.\Generated_Source\PSoC4/I2CM_I2C_MASTER.c ****     I2CM_SET_I2C_SCL_DR(I2CM_I2C_SCL_LOW);
1004:.\Generated_Source\PSoC4/I2CM_I2C_MASTER.c ****     CyDelayUs(I2CM_I2C_TLOW_TIME); /* Count tLOW */
1005:.\Generated_Source\PSoC4/I2CM_I2C_MASTER.c **** 
1006:.\Generated_Source\PSoC4/I2CM_I2C_MASTER.c ****     /* Set command for Start generation: it will appear */
1007:.\Generated_Source\PSoC4/I2CM_I2C_MASTER.c ****     I2CM_I2C_MASTER_CMD_REG = I2CM_I2C_MASTER_CMD_M_START;
1008:.\Generated_Source\PSoC4/I2CM_I2C_MASTER.c **** 
1009:.\Generated_Source\PSoC4/I2CM_I2C_MASTER.c ****     /* Enable SCB block */
1010:.\Generated_Source\PSoC4/I2CM_I2C_MASTER.c ****     I2CM_CTRL_REG |= (uint32) I2CM_CTRL_ENABLED;
1011:.\Generated_Source\PSoC4/I2CM_I2C_MASTER.c **** 
1012:.\Generated_Source\PSoC4/I2CM_I2C_MASTER.c ****     /* Switch HSIOM to I2C: */
1013:.\Generated_Source\PSoC4/I2CM_I2C_MASTER.c ****     I2CM_SET_I2C_SCL_HSIOM_SEL(I2CM_HSIOM_I2C_SEL);
1014:.\Generated_Source\PSoC4/I2CM_I2C_MASTER.c **** 
1015:.\Generated_Source\PSoC4/I2CM_I2C_MASTER.c ****     /* Revert SCL DR register */
1016:.\Generated_Source\PSoC4/I2CM_I2C_MASTER.c ****     I2CM_SET_I2C_SCL_DR(I2CM_I2C_SCL_HIGH);
1017:.\Generated_Source\PSoC4/I2CM_I2C_MASTER.c **** #else
1018:.\Generated_Source\PSoC4/I2CM_I2C_MASTER.c ****     uint32 cmd;
1019:.\Generated_Source\PSoC4/I2CM_I2C_MASTER.c **** 
ARM GAS  C:\Users\ddemidov\AppData\Local\Temp\ccUDC9zP.s 			page 33


1020:.\Generated_Source\PSoC4/I2CM_I2C_MASTER.c ****     /* Generates ReStart use scb IP functionality */
1021:.\Generated_Source\PSoC4/I2CM_I2C_MASTER.c ****     cmd  = I2CM_I2C_MASTER_CMD_M_START;
1022:.\Generated_Source\PSoC4/I2CM_I2C_MASTER.c ****     cmd |= I2CM_CHECK_I2C_STATUS(I2CM_I2C_STATUS_M_READ) ?
 763              		.loc 1 1022 0
 764 0000 054B     		ldr	r3, .L84
 765 0002 1A68     		ldr	r2, [r3]
 766 0004 2023     		mov	r3, #32
 767 0006 1340     		and	r3, r2
1023:.\Generated_Source\PSoC4/I2CM_I2C_MASTER.c ****                 (I2CM_I2C_MASTER_CMD_M_NACK) : (0u);
 768              		.loc 1 1023 0
 769 0008 00D0     		beq	.L82
 770 000a 0823     		mov	r3, #8
 771              	.L82:
1022:.\Generated_Source\PSoC4/I2CM_I2C_MASTER.c ****                 (I2CM_I2C_MASTER_CMD_M_NACK) : (0u);
 772              		.loc 1 1022 0 discriminator 4
 773 000c 0122     		mov	r2, #1
 774 000e 1343     		orr	r3, r2
 775              	.LVL44:
1024:.\Generated_Source\PSoC4/I2CM_I2C_MASTER.c **** 
1025:.\Generated_Source\PSoC4/I2CM_I2C_MASTER.c ****     I2CM_I2C_MASTER_CMD_REG = cmd;
 776              		.loc 1 1025 0 discriminator 4
 777 0010 024A     		ldr	r2, .L84+4
1026:.\Generated_Source\PSoC4/I2CM_I2C_MASTER.c **** #endif /* (I2CM_CY_SCBIP_V1) */
1027:.\Generated_Source\PSoC4/I2CM_I2C_MASTER.c **** }
 778              		.loc 1 1027 0 discriminator 4
 779              		@ sp needed
1025:.\Generated_Source\PSoC4/I2CM_I2C_MASTER.c **** #endif /* (I2CM_CY_SCBIP_V1) */
 780              		.loc 1 1025 0 discriminator 4
 781 0012 1360     		str	r3, [r2]
 782              		.loc 1 1027 0 discriminator 4
 783 0014 7047     		bx	lr
 784              	.L85:
 785 0016 C046     		.align	2
 786              	.L84:
 787 0018 64002540 		.word	1076166756
 788 001c 68002540 		.word	1076166760
 789              		.cfi_endproc
 790              	.LFE15:
 791              		.size	I2CM_I2CReStartGeneration, .-I2CM_I2CReStartGeneration
 792              		.section	.text.I2CM_I2CMasterWriteBuf,"ax",%progbits
 793              		.align	1
 794              		.global	I2CM_I2CMasterWriteBuf
 795              		.code	16
 796              		.thumb_func
 797              		.type	I2CM_I2CMasterWriteBuf, %function
 798              	I2CM_I2CMasterWriteBuf:
 799              	.LFB2:
  81:.\Generated_Source\PSoC4/I2CM_I2C_MASTER.c ****     uint32 errStatus;
 800              		.loc 1 81 0
 801              		.cfi_startproc
 802              	.LVL45:
 803 0000 F7B5     		push	{r0, r1, r2, r4, r5, r6, r7, lr}
 804              		.cfi_def_cfa_offset 32
 805              		.cfi_offset 0, -32
 806              		.cfi_offset 1, -28
 807              		.cfi_offset 2, -24
 808              		.cfi_offset 4, -20
ARM GAS  C:\Users\ddemidov\AppData\Local\Temp\ccUDC9zP.s 			page 34


 809              		.cfi_offset 5, -16
 810              		.cfi_offset 6, -12
 811              		.cfi_offset 7, -8
 812              		.cfi_offset 14, -4
  81:.\Generated_Source\PSoC4/I2CM_I2C_MASTER.c ****     uint32 errStatus;
 813              		.loc 1 81 0
 814 0002 061C     		mov	r6, r0
 815 0004 0F1C     		mov	r7, r1
 816 0006 0192     		str	r2, [sp, #4]
 817 0008 0093     		str	r3, [sp]
  84:.\Generated_Source\PSoC4/I2CM_I2C_MASTER.c **** 
 818              		.loc 1 84 0
 819 000a 0424     		mov	r4, #4
  86:.\Generated_Source\PSoC4/I2CM_I2C_MASTER.c ****     {
 820              		.loc 1 86 0
 821 000c 0029     		cmp	r1, #0
 822 000e 44D0     		beq	.L90
  89:.\Generated_Source\PSoC4/I2CM_I2C_MASTER.c ****         {
 823              		.loc 1 89 0
 824 0010 244D     		ldr	r5, .L98
 825 0012 2B78     		ldrb	r3, [r5]
 826              	.LVL46:
 827 0014 102B     		cmp	r3, #16
 828 0016 08D1     		bne	.L88
  91:.\Generated_Source\PSoC4/I2CM_I2C_MASTER.c **** 
 829              		.loc 1 91 0
 830 0018 0A20     		mov	r0, #10
 831              	.LVL47:
 832 001a FFF7FEFF 		bl	CyIntDisable
 833              	.LVL48:
  94:.\Generated_Source\PSoC4/I2CM_I2C_MASTER.c ****                             I2CM_I2C_MSTR_BUS_BUSY : I2CM_I2C_MSTR_NO_ERROR;
 834              		.loc 1 94 0
 835 001e 224B     		ldr	r3, .L98+4
 836 0020 2419     		add	r4, r4, r4
 837 0022 1B68     		ldr	r3, [r3]
 838 0024 DB07     		lsl	r3, r3, #31
 839 0026 38D4     		bmi	.L90
 840 0028 08E0     		b	.L89
 841              	.LVL49:
 842              	.L88:
  97:.\Generated_Source\PSoC4/I2CM_I2C_MASTER.c ****         {
 843              		.loc 1 97 0
 844 002a 2B78     		ldrb	r3, [r5]
  84:.\Generated_Source\PSoC4/I2CM_I2C_MASTER.c **** 
 845              		.loc 1 84 0
 846 002c 0424     		mov	r4, #4
  97:.\Generated_Source\PSoC4/I2CM_I2C_MASTER.c ****         {
 847              		.loc 1 97 0
 848 002e 602B     		cmp	r3, #96
 849 0030 33D1     		bne	.L90
  99:.\Generated_Source\PSoC4/I2CM_I2C_MASTER.c ****                               errStatus  = I2CM_I2C_MSTR_NO_ERROR;
 850              		.loc 1 99 0
 851 0032 0821     		mov	r1, #8
 852              	.LVL50:
 853 0034 1D4A     		ldr	r2, .L98+8
 854              	.LVL51:
 855 0036 1388     		ldrh	r3, [r2]
ARM GAS  C:\Users\ddemidov\AppData\Local\Temp\ccUDC9zP.s 			page 35


 856 0038 8B43     		bic	r3, r1
 857 003a 1380     		strh	r3, [r2]
 858              	.LVL52:
 859              	.L89:
 117:.\Generated_Source\PSoC4/I2CM_I2C_MASTER.c ****         I2CM_mstrWrBufIndexTmp = 0u;
 860              		.loc 1 117 0
 861 003c 2823     		mov	r3, #40
 862 003e 2B70     		strb	r3, [r5]
 118:.\Generated_Source\PSoC4/I2CM_I2C_MASTER.c ****         I2CM_mstrWrBufIndex    = 0u;
 863              		.loc 1 118 0
 864 0040 0025     		mov	r5, #0
 865 0042 1B4B     		ldr	r3, .L98+12
 120:.\Generated_Source\PSoC4/I2CM_I2C_MASTER.c ****         I2CM_mstrWrBufPtr      = (volatile uint8 *) wrData;
 866              		.loc 1 120 0
 867 0044 019A     		ldr	r2, [sp, #4]
 118:.\Generated_Source\PSoC4/I2CM_I2C_MASTER.c ****         I2CM_mstrWrBufIndex    = 0u;
 868              		.loc 1 118 0
 869 0046 1D60     		str	r5, [r3]
 119:.\Generated_Source\PSoC4/I2CM_I2C_MASTER.c ****         I2CM_mstrWrBufSize     = cnt;
 870              		.loc 1 119 0
 871 0048 1A4B     		ldr	r3, .L98+16
 126:.\Generated_Source\PSoC4/I2CM_I2C_MASTER.c **** 
 872              		.loc 1 126 0
 873 004a 1849     		ldr	r1, .L98+8
 119:.\Generated_Source\PSoC4/I2CM_I2C_MASTER.c ****         I2CM_mstrWrBufSize     = cnt;
 874              		.loc 1 119 0
 875 004c 1D60     		str	r5, [r3]
 120:.\Generated_Source\PSoC4/I2CM_I2C_MASTER.c ****         I2CM_mstrWrBufPtr      = (volatile uint8 *) wrData;
 876              		.loc 1 120 0
 877 004e 1A4B     		ldr	r3, .L98+20
 124:.\Generated_Source\PSoC4/I2CM_I2C_MASTER.c **** 
 878              		.loc 1 124 0
 879 0050 7600     		lsl	r6, r6, #1
 880              	.LVL53:
 120:.\Generated_Source\PSoC4/I2CM_I2C_MASTER.c ****         I2CM_mstrWrBufPtr      = (volatile uint8 *) wrData;
 881              		.loc 1 120 0
 882 0052 1A60     		str	r2, [r3]
 121:.\Generated_Source\PSoC4/I2CM_I2C_MASTER.c ****         I2CM_mstrControl       = (uint8) mode;
 883              		.loc 1 121 0
 884 0054 194B     		ldr	r3, .L98+24
 137:.\Generated_Source\PSoC4/I2CM_I2C_MASTER.c ****         {
 885              		.loc 1 137 0
 886 0056 0124     		mov	r4, #1
 121:.\Generated_Source\PSoC4/I2CM_I2C_MASTER.c ****         I2CM_mstrControl       = (uint8) mode;
 887              		.loc 1 121 0
 888 0058 1F60     		str	r7, [r3]
 122:.\Generated_Source\PSoC4/I2CM_I2C_MASTER.c **** 
 889              		.loc 1 122 0
 890 005a 6B46     		mov	r3, sp
 891 005c 1A78     		ldrb	r2, [r3]
 892 005e 184B     		ldr	r3, .L98+28
 893 0060 184F     		ldr	r7, .L98+32
 894              	.LVL54:
 895 0062 1A70     		strb	r2, [r3]
 124:.\Generated_Source\PSoC4/I2CM_I2C_MASTER.c **** 
 896              		.loc 1 124 0
 897 0064 FF23     		mov	r3, #255
ARM GAS  C:\Users\ddemidov\AppData\Local\Temp\ccUDC9zP.s 			page 36


 126:.\Generated_Source\PSoC4/I2CM_I2C_MASTER.c **** 
 898              		.loc 1 126 0
 899 0066 0222     		mov	r2, #2
 124:.\Generated_Source\PSoC4/I2CM_I2C_MASTER.c **** 
 900              		.loc 1 124 0
 901 0068 1E40     		and	r6, r3
 902              	.LVL55:
 126:.\Generated_Source\PSoC4/I2CM_I2C_MASTER.c **** 
 903              		.loc 1 126 0
 904 006a 0B88     		ldrh	r3, [r1]
 905 006c 9343     		bic	r3, r2
 906 006e 0B80     		strh	r3, [r1]
 128:.\Generated_Source\PSoC4/I2CM_I2C_MASTER.c ****         I2CM_ClearTxInterruptSource(I2CM_INTR_TX_UNDERFLOW);
 907              		.loc 1 128 0
 908 0070 1549     		ldr	r1, .L98+36
 909 0072 164B     		ldr	r3, .L98+40
 910 0074 1960     		str	r1, [r3]
 911              	.LVL56:
 129:.\Generated_Source\PSoC4/I2CM_I2C_MASTER.c **** 
 912              		.loc 1 129 0
 913 0076 4023     		mov	r3, #64
 914 0078 1549     		ldr	r1, .L98+44
 915 007a 0B60     		str	r3, [r1]
 134:.\Generated_Source\PSoC4/I2CM_I2C_MASTER.c **** 
 916              		.loc 1 134 0
 917 007c 1549     		ldr	r1, .L98+48
 918 007e 0B60     		str	r3, [r1]
 137:.\Generated_Source\PSoC4/I2CM_I2C_MASTER.c ****         {
 919              		.loc 1 137 0
 920 0080 009B     		ldr	r3, [sp]
 921 0082 2340     		and	r3, r4
 922 0084 1C1E     		sub	r4, r3, #0
 923 0086 AC42     		cmp	r4, r5
 924 0088 04D0     		beq	.L97
 139:.\Generated_Source\PSoC4/I2CM_I2C_MASTER.c ****             I2CM_TX_FIFO_WR_REG = slaveAddress;
 925              		.loc 1 139 0
 926 008a FFF7FEFF 		bl	I2CM_I2CReStartGeneration
 927              	.LVL57:
 928 008e 2C1C     		mov	r4, r5
 140:.\Generated_Source\PSoC4/I2CM_I2C_MASTER.c ****         }
 929              		.loc 1 140 0
 930 0090 3E60     		str	r6, [r7]
 931 0092 02E0     		b	.L90
 932              	.L97:
 145:.\Generated_Source\PSoC4/I2CM_I2C_MASTER.c ****         }
 933              		.loc 1 145 0
 934 0094 104B     		ldr	r3, .L98+52
 144:.\Generated_Source\PSoC4/I2CM_I2C_MASTER.c ****             I2CM_I2C_MASTER_GENERATE_START;
 935              		.loc 1 144 0
 936 0096 3E60     		str	r6, [r7]
 145:.\Generated_Source\PSoC4/I2CM_I2C_MASTER.c ****         }
 937              		.loc 1 145 0
 938 0098 1A60     		str	r2, [r3]
 939              	.LVL58:
 940              	.L90:
 149:.\Generated_Source\PSoC4/I2CM_I2C_MASTER.c **** 
 941              		.loc 1 149 0
ARM GAS  C:\Users\ddemidov\AppData\Local\Temp\ccUDC9zP.s 			page 37


 942 009a 0A20     		mov	r0, #10
 943 009c FFF7FEFF 		bl	CyIntEnable
 944              	.LVL59:
 152:.\Generated_Source\PSoC4/I2CM_I2C_MASTER.c **** 
 945              		.loc 1 152 0
 946              		@ sp needed
 947 00a0 201C     		mov	r0, r4
 948              	.LVL60:
 949 00a2 FEBD     		pop	{r1, r2, r3, r4, r5, r6, r7, pc}
 950              	.L99:
 951              		.align	2
 952              	.L98:
 953 00a4 00000000 		.word	I2CM_state
 954 00a8 64002540 		.word	1076166756
 955 00ac 00000000 		.word	I2CM_mstrStatus
 956 00b0 00000000 		.word	I2CM_mstrWrBufIndexTmp
 957 00b4 00000000 		.word	I2CM_mstrWrBufIndex
 958 00b8 00000000 		.word	I2CM_mstrWrBufSize
 959 00bc 00000000 		.word	I2CM_mstrWrBufPtr
 960 00c0 00000000 		.word	I2CM_mstrControl
 961 00c4 40022540 		.word	1076167232
 962 00c8 17030000 		.word	791
 963 00cc 000F2540 		.word	1076170496
 964 00d0 800F2540 		.word	1076170624
 965 00d4 880F2540 		.word	1076170632
 966 00d8 68002540 		.word	1076166760
 967              		.cfi_endproc
 968              	.LFE2:
 969              		.size	I2CM_I2CMasterWriteBuf, .-I2CM_I2CMasterWriteBuf
 970              		.section	.text.I2CM_I2CMasterReadBuf,"ax",%progbits
 971              		.align	1
 972              		.global	I2CM_I2CMasterReadBuf
 973              		.code	16
 974              		.thumb_func
 975              		.type	I2CM_I2CMasterReadBuf, %function
 976              	I2CM_I2CMasterReadBuf:
 977              	.LFB3:
 188:.\Generated_Source\PSoC4/I2CM_I2C_MASTER.c ****     uint32 errStatus;
 978              		.loc 1 188 0
 979              		.cfi_startproc
 980              	.LVL61:
 981 0000 F7B5     		push	{r0, r1, r2, r4, r5, r6, r7, lr}
 982              		.cfi_def_cfa_offset 32
 983              		.cfi_offset 0, -32
 984              		.cfi_offset 1, -28
 985              		.cfi_offset 2, -24
 986              		.cfi_offset 4, -20
 987              		.cfi_offset 5, -16
 988              		.cfi_offset 6, -12
 989              		.cfi_offset 7, -8
 990              		.cfi_offset 14, -4
 188:.\Generated_Source\PSoC4/I2CM_I2C_MASTER.c ****     uint32 errStatus;
 991              		.loc 1 188 0
 992 0002 061C     		mov	r6, r0
 993 0004 0F1C     		mov	r7, r1
 994 0006 0192     		str	r2, [sp, #4]
 995 0008 0093     		str	r3, [sp]
ARM GAS  C:\Users\ddemidov\AppData\Local\Temp\ccUDC9zP.s 			page 38


 191:.\Generated_Source\PSoC4/I2CM_I2C_MASTER.c **** 
 996              		.loc 1 191 0
 997 000a 0424     		mov	r4, #4
 193:.\Generated_Source\PSoC4/I2CM_I2C_MASTER.c ****     {
 998              		.loc 1 193 0
 999 000c 0029     		cmp	r1, #0
 1000 000e 4CD0     		beq	.L106
 196:.\Generated_Source\PSoC4/I2CM_I2C_MASTER.c ****         {
 1001              		.loc 1 196 0
 1002 0010 284D     		ldr	r5, .L116
 1003 0012 2B78     		ldrb	r3, [r5]
 1004              	.LVL62:
 1005 0014 102B     		cmp	r3, #16
 1006 0016 08D1     		bne	.L102
 198:.\Generated_Source\PSoC4/I2CM_I2C_MASTER.c **** 
 1007              		.loc 1 198 0
 1008 0018 0A20     		mov	r0, #10
 1009              	.LVL63:
 1010 001a FFF7FEFF 		bl	CyIntDisable
 1011              	.LVL64:
 201:.\Generated_Source\PSoC4/I2CM_I2C_MASTER.c ****                             I2CM_I2C_MSTR_BUS_BUSY : I2CM_I2C_MSTR_NO_ERROR;
 1012              		.loc 1 201 0
 1013 001e 264B     		ldr	r3, .L116+4
 1014 0020 2419     		add	r4, r4, r4
 1015 0022 1B68     		ldr	r3, [r3]
 1016 0024 DB07     		lsl	r3, r3, #31
 1017 0026 40D4     		bmi	.L106
 1018 0028 08E0     		b	.L103
 1019              	.LVL65:
 1020              	.L102:
 204:.\Generated_Source\PSoC4/I2CM_I2C_MASTER.c ****         {
 1021              		.loc 1 204 0
 1022 002a 2B78     		ldrb	r3, [r5]
 191:.\Generated_Source\PSoC4/I2CM_I2C_MASTER.c **** 
 1023              		.loc 1 191 0
 1024 002c 0424     		mov	r4, #4
 204:.\Generated_Source\PSoC4/I2CM_I2C_MASTER.c ****         {
 1025              		.loc 1 204 0
 1026 002e 602B     		cmp	r3, #96
 1027 0030 3BD1     		bne	.L106
 206:.\Generated_Source\PSoC4/I2CM_I2C_MASTER.c ****                               errStatus  =  I2CM_I2C_MSTR_NO_ERROR;
 1028              		.loc 1 206 0
 1029 0032 0821     		mov	r1, #8
 1030              	.LVL66:
 1031 0034 214A     		ldr	r2, .L116+8
 1032              	.LVL67:
 1033 0036 1388     		ldrh	r3, [r2]
 1034 0038 8B43     		bic	r3, r1
 1035 003a 1380     		strh	r3, [r2]
 1036              	.LVL68:
 1037              	.L103:
 224:.\Generated_Source\PSoC4/I2CM_I2C_MASTER.c ****         I2CM_mstrRdBufIndex = 0u;
 1038              		.loc 1 224 0
 1039 003c 2923     		mov	r3, #41
 225:.\Generated_Source\PSoC4/I2CM_I2C_MASTER.c ****         I2CM_mstrRdBufSize  = cnt;
 1040              		.loc 1 225 0
 1041 003e 0022     		mov	r2, #0
ARM GAS  C:\Users\ddemidov\AppData\Local\Temp\ccUDC9zP.s 			page 39


 224:.\Generated_Source\PSoC4/I2CM_I2C_MASTER.c ****         I2CM_mstrRdBufIndex = 0u;
 1042              		.loc 1 224 0
 1043 0040 2B70     		strb	r3, [r5]
 225:.\Generated_Source\PSoC4/I2CM_I2C_MASTER.c ****         I2CM_mstrRdBufSize  = cnt;
 1044              		.loc 1 225 0
 1045 0042 1F4B     		ldr	r3, .L116+12
 228:.\Generated_Source\PSoC4/I2CM_I2C_MASTER.c **** 
 1046              		.loc 1 228 0
 1047 0044 1F49     		ldr	r1, .L116+16
 225:.\Generated_Source\PSoC4/I2CM_I2C_MASTER.c ****         I2CM_mstrRdBufSize  = cnt;
 1048              		.loc 1 225 0
 1049 0046 1A60     		str	r2, [r3]
 226:.\Generated_Source\PSoC4/I2CM_I2C_MASTER.c ****         I2CM_mstrRdBufPtr   = (volatile uint8 *) rdData;
 1050              		.loc 1 226 0
 1051 0048 1F4A     		ldr	r2, .L116+20
 1052 004a 019B     		ldr	r3, [sp, #4]
 230:.\Generated_Source\PSoC4/I2CM_I2C_MASTER.c **** 
 1053              		.loc 1 230 0
 1054 004c 0120     		mov	r0, #1
 226:.\Generated_Source\PSoC4/I2CM_I2C_MASTER.c ****         I2CM_mstrRdBufPtr   = (volatile uint8 *) rdData;
 1055              		.loc 1 226 0
 1056 004e 1360     		str	r3, [r2]
 227:.\Generated_Source\PSoC4/I2CM_I2C_MASTER.c ****         I2CM_mstrControl    = (uint8) mode;
 1057              		.loc 1 227 0
 1058 0050 1E4B     		ldr	r3, .L116+24
 230:.\Generated_Source\PSoC4/I2CM_I2C_MASTER.c **** 
 1059              		.loc 1 230 0
 1060 0052 7600     		lsl	r6, r6, #1
 1061              	.LVL69:
 227:.\Generated_Source\PSoC4/I2CM_I2C_MASTER.c ****         I2CM_mstrControl    = (uint8) mode;
 1062              		.loc 1 227 0
 1063 0054 1F60     		str	r7, [r3]
 228:.\Generated_Source\PSoC4/I2CM_I2C_MASTER.c **** 
 1064              		.loc 1 228 0
 1065 0056 6B46     		mov	r3, sp
 1066 0058 1B78     		ldrb	r3, [r3]
 1067 005a 0B70     		strb	r3, [r1]
 230:.\Generated_Source\PSoC4/I2CM_I2C_MASTER.c **** 
 1068              		.loc 1 230 0
 1069 005c FF23     		mov	r3, #255
 232:.\Generated_Source\PSoC4/I2CM_I2C_MASTER.c **** 
 1070              		.loc 1 232 0
 1071 005e 1749     		ldr	r1, .L116+8
 230:.\Generated_Source\PSoC4/I2CM_I2C_MASTER.c **** 
 1072              		.loc 1 230 0
 1073 0060 1E40     		and	r6, r3
 232:.\Generated_Source\PSoC4/I2CM_I2C_MASTER.c **** 
 1074              		.loc 1 232 0
 1075 0062 0B88     		ldrh	r3, [r1]
 230:.\Generated_Source\PSoC4/I2CM_I2C_MASTER.c **** 
 1076              		.loc 1 230 0
 1077 0064 0643     		orr	r6, r0
 1078              	.LVL70:
 232:.\Generated_Source\PSoC4/I2CM_I2C_MASTER.c **** 
 1079              		.loc 1 232 0
 1080 0066 8343     		bic	r3, r0
 1081 0068 0B80     		strh	r3, [r1]
ARM GAS  C:\Users\ddemidov\AppData\Local\Temp\ccUDC9zP.s 			page 40


 234:.\Generated_Source\PSoC4/I2CM_I2C_MASTER.c **** 
 1082              		.loc 1 234 0
 1083 006a 194B     		ldr	r3, .L116+28
 1084 006c 1949     		ldr	r1, .L116+32
 1085 006e 1960     		str	r1, [r3]
 239:.\Generated_Source\PSoC4/I2CM_I2C_MASTER.c ****         {
 1086              		.loc 1 239 0
 1087 0070 1368     		ldr	r3, [r2]
 1088 0072 194A     		ldr	r2, .L116+36
 1089 0074 072B     		cmp	r3, #7
 1090 0076 01D8     		bhi	.L115
 242:.\Generated_Source\PSoC4/I2CM_I2C_MASTER.c ****         }
 1091              		.loc 1 242 0
 1092 0078 0423     		mov	r3, #4
 1093 007a 06E0     		b	.L114
 1094              	.L115:
 247:.\Generated_Source\PSoC4/I2CM_I2C_MASTER.c ****             I2CM_SetRxInterruptMode(I2CM_INTR_RX_FULL);
 1095              		.loc 1 247 0
 1096 007c 8020     		mov	r0, #128
 1097 007e 1749     		ldr	r1, .L116+40
 1098 0080 4000     		lsl	r0, r0, #1
 1099 0082 0B68     		ldr	r3, [r1]
 1100 0084 0343     		orr	r3, r0
 1101 0086 0B60     		str	r3, [r1]
 248:.\Generated_Source\PSoC4/I2CM_I2C_MASTER.c ****         }
 1102              		.loc 1 248 0
 1103 0088 0823     		mov	r3, #8
 1104              	.L114:
 252:.\Generated_Source\PSoC4/I2CM_I2C_MASTER.c ****         {
 1105              		.loc 1 252 0
 1106 008a 0124     		mov	r4, #1
 248:.\Generated_Source\PSoC4/I2CM_I2C_MASTER.c ****         }
 1107              		.loc 1 248 0
 1108 008c 1360     		str	r3, [r2]
 252:.\Generated_Source\PSoC4/I2CM_I2C_MASTER.c ****         {
 1109              		.loc 1 252 0
 1110 008e 009B     		ldr	r3, [sp]
 1111 0090 134D     		ldr	r5, .L116+44
 1112 0092 2340     		and	r3, r4
 1113 0094 1C1E     		sub	r4, r3, #0
 1114 0096 04D0     		beq	.L105
 254:.\Generated_Source\PSoC4/I2CM_I2C_MASTER.c ****             I2CM_TX_FIFO_WR_REG = (slaveAddress);
 1115              		.loc 1 254 0
 1116 0098 FFF7FEFF 		bl	I2CM_I2CReStartGeneration
 1117              	.LVL71:
 1118 009c 0024     		mov	r4, #0
 255:.\Generated_Source\PSoC4/I2CM_I2C_MASTER.c ****         }
 1119              		.loc 1 255 0
 1120 009e 2E60     		str	r6, [r5]
 1121 00a0 03E0     		b	.L106
 1122              	.L105:
 260:.\Generated_Source\PSoC4/I2CM_I2C_MASTER.c ****         }
 1123              		.loc 1 260 0
 1124 00a2 0222     		mov	r2, #2
 1125 00a4 0F4B     		ldr	r3, .L116+48
 259:.\Generated_Source\PSoC4/I2CM_I2C_MASTER.c ****             I2CM_I2C_MASTER_GENERATE_START;
 1126              		.loc 1 259 0
ARM GAS  C:\Users\ddemidov\AppData\Local\Temp\ccUDC9zP.s 			page 41


 1127 00a6 2E60     		str	r6, [r5]
 260:.\Generated_Source\PSoC4/I2CM_I2C_MASTER.c ****         }
 1128              		.loc 1 260 0
 1129 00a8 1A60     		str	r2, [r3]
 1130              	.LVL72:
 1131              	.L106:
 264:.\Generated_Source\PSoC4/I2CM_I2C_MASTER.c **** 
 1132              		.loc 1 264 0
 1133 00aa 0A20     		mov	r0, #10
 1134 00ac FFF7FEFF 		bl	CyIntEnable
 1135              	.LVL73:
 267:.\Generated_Source\PSoC4/I2CM_I2C_MASTER.c **** 
 1136              		.loc 1 267 0
 1137              		@ sp needed
 1138 00b0 201C     		mov	r0, r4
 1139              	.LVL74:
 1140              	.LVL75:
 1141 00b2 FEBD     		pop	{r1, r2, r3, r4, r5, r6, r7, pc}
 1142              	.L117:
 1143              		.align	2
 1144              	.L116:
 1145 00b4 00000000 		.word	I2CM_state
 1146 00b8 64002540 		.word	1076166756
 1147 00bc 00000000 		.word	I2CM_mstrStatus
 1148 00c0 00000000 		.word	I2CM_mstrRdBufIndex
 1149 00c4 00000000 		.word	I2CM_mstrControl
 1150 00c8 00000000 		.word	I2CM_mstrRdBufSize
 1151 00cc 00000000 		.word	I2CM_mstrRdBufPtr
 1152 00d0 000F2540 		.word	1076170496
 1153 00d4 17030000 		.word	791
 1154 00d8 C80F2540 		.word	1076170696
 1155 00dc 60002540 		.word	1076166752
 1156 00e0 40022540 		.word	1076167232
 1157 00e4 68002540 		.word	1076166760
 1158              		.cfi_endproc
 1159              	.LFE3:
 1160              		.size	I2CM_I2CMasterReadBuf, .-I2CM_I2CMasterReadBuf
 1161              		.section	.text.I2CM_I2CMasterSendRestart,"ax",%progbits
 1162              		.align	1
 1163              		.global	I2CM_I2CMasterSendRestart
 1164              		.code	16
 1165              		.thumb_func
 1166              		.type	I2CM_I2CMasterSendRestart, %function
 1167              	I2CM_I2CMasterSendRestart:
 1168              	.LFB5:
 410:.\Generated_Source\PSoC4/I2CM_I2C_MASTER.c ****     uint32 resetIp;
 1169              		.loc 1 410 0
 1170              		.cfi_startproc
 1171              	.LVL76:
 1172 0000 70B5     		push	{r4, r5, r6, lr}
 1173              		.cfi_def_cfa_offset 16
 1174              		.cfi_offset 4, -16
 1175              		.cfi_offset 5, -12
 1176              		.cfi_offset 6, -8
 1177              		.cfi_offset 14, -4
 418:.\Generated_Source\PSoC4/I2CM_I2C_MASTER.c ****     {
 1178              		.loc 1 418 0
ARM GAS  C:\Users\ddemidov\AppData\Local\Temp\ccUDC9zP.s 			page 42


 1179 0002 234C     		ldr	r4, .L134
 415:.\Generated_Source\PSoC4/I2CM_I2C_MASTER.c **** 
 1180              		.loc 1 415 0
 1181 0004 0422     		mov	r2, #4
 418:.\Generated_Source\PSoC4/I2CM_I2C_MASTER.c ****     {
 1182              		.loc 1 418 0
 1183 0006 2378     		ldrb	r3, [r4]
 1184 0008 9B06     		lsl	r3, r3, #26
 1185 000a 3ED5     		bpl	.L119
 420:.\Generated_Source\PSoC4/I2CM_I2C_MASTER.c **** 
 1186              		.loc 1 420 0
 1187 000c FF25     		mov	r5, #255
 1188 000e 4000     		lsl	r0, r0, #1
 1189              	.LVL77:
 1190 0010 0540     		and	r5, r0
 1191              	.LVL78:
 422:.\Generated_Source\PSoC4/I2CM_I2C_MASTER.c ****         {
 1192              		.loc 1 422 0
 1193 0012 0029     		cmp	r1, #0
 1194 0014 02D1     		bne	.L120
 424:.\Generated_Source\PSoC4/I2CM_I2C_MASTER.c ****         }
 1195              		.loc 1 424 0
 1196 0016 2423     		mov	r3, #36
 1197 0018 2370     		strb	r3, [r4]
 1198 001a 03E0     		b	.L121
 1199              	.L120:
 428:.\Generated_Source\PSoC4/I2CM_I2C_MASTER.c ****                       slaveAddress |= I2CM_I2C_READ_FLAG;
 1200              		.loc 1 428 0
 1201 001c 2523     		mov	r3, #37
 1202 001e 2370     		strb	r3, [r4]
 429:.\Generated_Source\PSoC4/I2CM_I2C_MASTER.c ****         }
 1203              		.loc 1 429 0
 1204 0020 243B     		sub	r3, r3, #36
 1205 0022 1D43     		orr	r5, r3
 1206              	.LVL79:
 1207              	.L121:
 435:.\Generated_Source\PSoC4/I2CM_I2C_MASTER.c **** 
 1208              		.loc 1 435 0
 1209 0024 1B4E     		ldr	r6, .L134+4
 1210 0026 1C4B     		ldr	r3, .L134+8
 1211 0028 3360     		str	r3, [r6]
 441:.\Generated_Source\PSoC4/I2CM_I2C_MASTER.c **** 
 1212              		.loc 1 441 0
 1213 002a FFF7FEFF 		bl	I2CM_I2CReStartGeneration
 1214              	.LVL80:
 1215 002e 311C     		mov	r1, r6
 1216              	.L122:
 443:.\Generated_Source\PSoC4/I2CM_I2C_MASTER.c ****         {
 1217              		.loc 1 443 0 discriminator 1
 1218 0030 1A4B     		ldr	r3, .L134+12
 1219 0032 1B68     		ldr	r3, [r3]
 1220 0034 DB07     		lsl	r3, r3, #31
 1221 0036 FBD4     		bmi	.L122
 449:.\Generated_Source\PSoC4/I2CM_I2C_MASTER.c **** 
 1222              		.loc 1 449 0
 1223 0038 194B     		ldr	r3, .L134+16
 1224 003a 1D60     		str	r5, [r3]
ARM GAS  C:\Users\ddemidov\AppData\Local\Temp\ccUDC9zP.s 			page 43


 1225              	.LVL81:
 1226              	.L123:
 1227 003c 0826     		mov	r6, #8
 452:.\Generated_Source\PSoC4/I2CM_I2C_MASTER.c ****                                                   I2CM_INTR_MASTER_I2C_NACK     |
 1228              		.loc 1 452 0 discriminator 1
 1229 003e 0B68     		ldr	r3, [r1]
 1230 0040 FF36     		add	r6, r6, #255
 1231 0042 144D     		ldr	r5, .L134+4
 1232 0044 3342     		tst	r3, r6
 1233 0046 F9D0     		beq	.L123
 461:.\Generated_Source\PSoC4/I2CM_I2C_MASTER.c ****         {
 1234              		.loc 1 461 0
 1235 0048 0423     		mov	r3, #4
 1236 004a 2A68     		ldr	r2, [r5]
 1237 004c 1340     		and	r3, r2
 1238 004e 0DD1     		bne	.L127
 465:.\Generated_Source\PSoC4/I2CM_I2C_MASTER.c ****         {
 1239              		.loc 1 465 0
 1240 0050 0222     		mov	r2, #2
 1241 0052 2868     		ldr	r0, [r5]
 1242 0054 1042     		tst	r0, r2
 1243 0056 0BD1     		bne	.L124
 469:.\Generated_Source\PSoC4/I2CM_I2C_MASTER.c ****         {
 1244              		.loc 1 469 0
 1245 0058 2868     		ldr	r0, [r5]
 1246 005a 0E32     		add	r2, r2, #14
 1247 005c 0133     		add	r3, r3, #1
 471:.\Generated_Source\PSoC4/I2CM_I2C_MASTER.c ****                          errStatus = I2CM_I2C_MSTR_ERR_ARB_LOST;
 1248              		.loc 1 471 0
 1249 005e 2270     		strb	r2, [r4]
 1250              	.LVL82:
 472:.\Generated_Source\PSoC4/I2CM_I2C_MASTER.c ****                          resetIp   = I2CM_I2C_RESET_ERROR;
 1251              		.loc 1 472 0
 1252 0060 1A1C     		mov	r2, r3
 469:.\Generated_Source\PSoC4/I2CM_I2C_MASTER.c ****         {
 1253              		.loc 1 469 0
 1254 0062 1842     		tst	r0, r3
 1255 0064 04D1     		bne	.L124
 1256              	.LVL83:
 478:.\Generated_Source\PSoC4/I2CM_I2C_MASTER.c ****                          resetIp   = I2CM_I2C_RESET_ERROR;
 1257              		.loc 1 478 0
 1258 0066 8022     		mov	r2, #128
 1259 0068 5200     		lsl	r2, r2, #1
 1260 006a 01E0     		b	.L124
 1261              	.LVL84:
 1262              	.L127:
 463:.\Generated_Source\PSoC4/I2CM_I2C_MASTER.c ****         }
 1263              		.loc 1 463 0
 1264 006c 0022     		mov	r2, #0
 414:.\Generated_Source\PSoC4/I2CM_I2C_MASTER.c ****     errStatus = I2CM_I2C_MSTR_NOT_READY;
 1265              		.loc 1 414 0
 1266 006e 131C     		mov	r3, r2
 1267              	.LVL85:
 1268              	.L124:
 482:.\Generated_Source\PSoC4/I2CM_I2C_MASTER.c ****                                                     I2CM_INTR_MASTER_I2C_NACK     |
 1269              		.loc 1 482 0
 1270 0070 0E60     		str	r6, [r1]
ARM GAS  C:\Users\ddemidov\AppData\Local\Temp\ccUDC9zP.s 			page 44


 488:.\Generated_Source\PSoC4/I2CM_I2C_MASTER.c ****         {
 1271              		.loc 1 488 0
 1272 0072 002B     		cmp	r3, #0
 1273 0074 09D0     		beq	.L119
 490:.\Generated_Source\PSoC4/I2CM_I2C_MASTER.c ****         }
 1274              		.loc 1 490 0
 1275 0076 8020     		mov	r0, #128
 1276 0078 0A49     		ldr	r1, .L134+20
 1277 007a 0006     		lsl	r0, r0, #24
 1278 007c 0B68     		ldr	r3, [r1]
 1279 007e 5B00     		lsl	r3, r3, #1
 1280 0080 5B08     		lsr	r3, r3, #1
 1281 0082 0B60     		str	r3, [r1]
 1282 0084 0B68     		ldr	r3, [r1]
 1283 0086 0343     		orr	r3, r0
 1284 0088 0B60     		str	r3, [r1]
 1285              	.LVL86:
 1286              	.L119:
 495:.\Generated_Source\PSoC4/I2CM_I2C_MASTER.c **** 
 1287              		.loc 1 495 0
 1288 008a 101C     		mov	r0, r2
 1289              		@ sp needed
 1290 008c 70BD     		pop	{r4, r5, r6, pc}
 1291              	.L135:
 1292 008e C046     		.align	2
 1293              	.L134:
 1294 0090 00000000 		.word	I2CM_state
 1295 0094 000F2540 		.word	1076170496
 1296 0098 17030000 		.word	791
 1297 009c 68002540 		.word	1076166760
 1298 00a0 40022540 		.word	1076167232
 1299 00a4 00002540 		.word	1076166656
 1300              		.cfi_endproc
 1301              	.LFE5:
 1302              		.size	I2CM_I2CMasterSendRestart, .-I2CM_I2CMasterSendRestart
 1303              		.comm	I2CM_mstrWrBufIndexTmp,4,4
 1304              		.comm	I2CM_mstrWrBufIndex,4,4
 1305              		.comm	I2CM_mstrWrBufSize,4,4
 1306              		.comm	I2CM_mstrWrBufPtr,4,4
 1307              		.comm	I2CM_mstrRdBufIndex,4,4
 1308              		.comm	I2CM_mstrRdBufSize,4,4
 1309              		.comm	I2CM_mstrRdBufPtr,4,4
 1310              		.comm	I2CM_mstrControl,1,1
 1311              		.comm	I2CM_mstrStatus,2,2
 1312              		.text
 1313              	.Letext0:
 1314              		.file 2 "Generated_Source\\PSoC4/cytypes.h"
 1315              		.file 3 ".\\Generated_Source\\PSoC4\\I2CM_I2C_PVT.h"
 1316              		.file 4 "Generated_Source\\PSoC4/CyLib.h"