ARM GAS  C:\Users\ddemidov\AppData\Local\Temp\ccRiQIZu.s 			page 1


   1              		.cpu cortex-m0
   2              		.fpu softvfp
   3              		.eabi_attribute 20, 1
   4              		.eabi_attribute 21, 1
   5              		.eabi_attribute 23, 3
   6              		.eabi_attribute 24, 1
   7              		.eabi_attribute 25, 1
   8              		.eabi_attribute 26, 1
   9              		.eabi_attribute 30, 4
  10              		.eabi_attribute 34, 0
  11              		.eabi_attribute 18, 4
  12              		.code	16
  13              		.file	"main.c"
  14              		.text
  15              	.Ltext0:
  16              		.cfi_sections	.debug_frame
  17              		.section	.text.RTC_PPS_InterruptHandler,"ax",%progbits
  18              		.align	1
  19              		.global	RTC_PPS_InterruptHandler
  20              		.code	16
  21              		.thumb_func
  22              		.type	RTC_PPS_InterruptHandler, %function
  23              	RTC_PPS_InterruptHandler:
  24              	.LFB66:
  25              		.file 1 ".\\main.c"
   1:.\main.c      **** /* ========================================
   2:.\main.c      ****  *
   3:.\main.c      ****  * Copyright YOUR COMPANY, THE YEAR
   4:.\main.c      ****  * All Rights Reserved
   5:.\main.c      ****  * UNPUBLISHED, LICENSED SOFTWARE.
   6:.\main.c      ****  *
   7:.\main.c      ****  * CONFIDENTIAL AND PROPRIETARY INFORMATION
   8:.\main.c      ****  * WHICH IS THE PROPERTY OF your company.
   9:.\main.c      ****  *
  10:.\main.c      ****  * ========================================
  11:.\main.c      **** */
  12:.\main.c      **** #include <project.h>
  13:.\main.c      **** #include <main.h>
  14:.\main.c      **** #include <json/telemetry.h>
  15:.\main.c      **** #include <Sensor_Processes.h>
  16:.\main.c      **** #include <stdio.h>
  17:.\main.c      **** #include <ntp/ntp.h>
  18:.\main.c      **** #include <time/time.h>
  19:.\main.c      **** #include <arrow/connection.h>
  20:.\main.c      **** #include <debug.h>
  21:.\main.c      **** #include <arrow/mqtt.h>
  22:.\main.c      **** 
  23:.\main.c      **** #include <arrow/connection.h>
  24:.\main.c      **** 
  25:.\main.c      **** #define TX_ENABLE
  26:.\main.c      **** #define LED_ON          0
  27:.\main.c      **** #define LED_OFF         1
  28:.\main.c      **** 
  29:.\main.c      **** #define WDT_MATCH_VALUE_1SEC 10*WDT_MATCH_VALUE_100MS
  30:.\main.c      **** static int counter = 0;
  31:.\main.c      **** 
  32:.\main.c      **** void WDT_INT_Handler(void) {
ARM GAS  C:\Users\ddemidov\AppData\Local\Temp\ccRiQIZu.s 			page 2


  33:.\main.c      ****     
  34:.\main.c      ****     if(CySysWdtGetInterruptSource() & CY_SYS_WDT_COUNTER0_INT)
  35:.\main.c      **** 	{
  36:.\main.c      **** 		CySysWdtClearInterrupt(CY_SYS_WDT_COUNTER0_INT);
  37:.\main.c      **** 		CySysWdtUnlock();
  38:.\main.c      ****         BLUE_LED_Write( ~BLUE_LED_Read() );
  39:.\main.c      **** 		CySysWdtDisable(CY_SYS_WDT_COUNTER0_MASK);
  40:.\main.c      **** 		if ( counter < 60 ) {
  41:.\main.c      ****             CySysWdtWriteMode(CY_SYS_WDT_COUNTER0, CY_SYS_WDT_MODE_INT);
  42:.\main.c      **** 		    CySysWdtWriteMatch(CY_SYS_WDT_COUNTER0, WDT_MATCH_VALUE_1SEC);
  43:.\main.c      ****         } else {
  44:.\main.c      ****             CySysWdtWriteMode(CY_SYS_WDT_COUNTER0, CY_SYS_WDT_MODE_RESET);
  45:.\main.c      ****             CySysWdtWriteMatch(CY_SYS_WDT_COUNTER0, 0x0001);
  46:.\main.c      ****             CySysWdtWriteClearOnMatch(CY_SYS_WDT_COUNTER0, TRUE);
  47:.\main.c      ****             
  48:.\main.c      ****         }
  49:.\main.c      **** 		CySysWdtEnable(CY_SYS_WDT_COUNTER0_MASK);
  50:.\main.c      **** 	    CySysWdtLock();
  51:.\main.c      ****         counter++;
  52:.\main.c      **** 	}
  53:.\main.c      **** }
  54:.\main.c      **** 
  55:.\main.c      **** void WDT_Feed() {
  56:.\main.c      ****     counter = 0;
  57:.\main.c      ****     CySysWatchdogFeed(CY_SYS_WDT_COUNTER0); // if this board sent the data
  58:.\main.c      ****     CySysWdtResetCounters(CY_SYS_WDT_COUNTER0);
  59:.\main.c      ****     
  60:.\main.c      **** }
  61:.\main.c      **** 
  62:.\main.c      **** void wdt_init() {
  63:.\main.c      ****     CySysWdtUnlock(); 
  64:.\main.c      ****     CySysWdtWriteMode(CY_SYS_WDT_COUNTER0, CY_SYS_WDT_MODE_INT);
  65:.\main.c      ****     CySysWdtWriteMatch(CY_SYS_WDT_COUNTER0, WDT_MATCH_VALUE_1SEC); // 1 sec
  66:.\main.c      **** 	CySysWdtWriteClearOnMatch(CY_SYS_WDT_COUNTER0, TRUE);
  67:.\main.c      **** 	CyIntSetPriority(WATCHDOG_INT_VEC_NUM, WATCHDOG_INT_VEC_PRIORITY);
  68:.\main.c      ****     CyIntEnable(WATCHDOG_INT_VEC_NUM);
  69:.\main.c      ****     CySysWdtEnable(CY_SYS_WDT_COUNTER0_MASK);
  70:.\main.c      ****     CySysWdtLock();
  71:.\main.c      ****     CyIntSetVector(WATCHDOG_INT_VEC_NUM, &WDT_INT_Handler);
  72:.\main.c      **** }
  73:.\main.c      **** 
  74:.\main.c      **** CY_ISR(RTC_PPS_InterruptHandler) {
  26              		.loc 1 74 0
  27              		.cfi_startproc
  28 0000 08B5     		push	{r3, lr}
  29              		.cfi_def_cfa_offset 8
  30              		.cfi_offset 3, -8
  31              		.cfi_offset 14, -4
  75:.\main.c      ****    	RTC_PPS_STATUS;
  32              		.loc 1 75 0
  33 0002 024B     		ldr	r3, .L2
  76:.\main.c      ****     RTC_Update();
  77:.\main.c      **** }
  34              		.loc 1 77 0
  35              		@ sp needed
  75:.\main.c      ****    	RTC_PPS_STATUS;
  36              		.loc 1 75 0
ARM GAS  C:\Users\ddemidov\AppData\Local\Temp\ccRiQIZu.s 			page 3


  37 0004 1B78     		ldrb	r3, [r3]
  76:.\main.c      ****     RTC_Update();
  38              		.loc 1 76 0
  39 0006 FFF7FEFF 		bl	RTC_Update
  40              	.LVL0:
  41              		.loc 1 77 0
  42 000a 08BD     		pop	{r3, pc}
  43              	.L3:
  44              		.align	2
  45              	.L2:
  46 000c 63000F40 		.word	1074724963
  47              		.cfi_endproc
  48              	.LFE66:
  49              		.size	RTC_PPS_InterruptHandler, .-RTC_PPS_InterruptHandler
  50              		.section	.text.WDT_INT_Handler,"ax",%progbits
  51              		.align	1
  52              		.global	WDT_INT_Handler
  53              		.code	16
  54              		.thumb_func
  55              		.type	WDT_INT_Handler, %function
  56              	WDT_INT_Handler:
  57              	.LFB63:
  32:.\main.c      ****     
  58              		.loc 1 32 0
  59              		.cfi_startproc
  60 0000 10B5     		push	{r4, lr}
  61              		.cfi_def_cfa_offset 8
  62              		.cfi_offset 4, -8
  63              		.cfi_offset 14, -4
  34:.\main.c      **** 	{
  64              		.loc 1 34 0
  65 0002 FFF7FEFF 		bl	CySysWdtGetInterruptSource
  66              	.LVL1:
  67 0006 0423     		mov	r3, #4
  68 0008 1842     		tst	r0, r3
  69 000a 2ED0     		beq	.L4
  70              	.LBB4:
  71              	.LBB5:
  36:.\main.c      **** 		CySysWdtUnlock();
  72              		.loc 1 36 0
  73 000c 181C     		mov	r0, r3
  74 000e FFF7FEFF 		bl	CySysWdtClearInterrupt
  75              	.LVL2:
  37:.\main.c      ****         BLUE_LED_Write( ~BLUE_LED_Read() );
  76              		.loc 1 37 0
  77 0012 FFF7FEFF 		bl	CySysWdtUnlock
  78              	.LVL3:
  38:.\main.c      **** 		CySysWdtDisable(CY_SYS_WDT_COUNTER0_MASK);
  79              		.loc 1 38 0
  80 0016 FFF7FEFF 		bl	BLUE_LED_Read
  81              	.LVL4:
  82 001a C043     		mvn	r0, r0
  83 001c C0B2     		uxtb	r0, r0
  84 001e FFF7FEFF 		bl	BLUE_LED_Write
  85              	.LVL5:
  39:.\main.c      **** 		if ( counter < 60 ) {
  86              		.loc 1 39 0
ARM GAS  C:\Users\ddemidov\AppData\Local\Temp\ccRiQIZu.s 			page 4


  87 0022 0120     		mov	r0, #1
  88 0024 FFF7FEFF 		bl	CySysWdtDisable
  89              	.LVL6:
  40:.\main.c      ****             CySysWdtWriteMode(CY_SYS_WDT_COUNTER0, CY_SYS_WDT_MODE_INT);
  90              		.loc 1 40 0
  91 0028 104C     		ldr	r4, .L12
  41:.\main.c      **** 		    CySysWdtWriteMatch(CY_SYS_WDT_COUNTER0, WDT_MATCH_VALUE_1SEC);
  92              		.loc 1 41 0
  93 002a 0020     		mov	r0, #0
  40:.\main.c      ****             CySysWdtWriteMode(CY_SYS_WDT_COUNTER0, CY_SYS_WDT_MODE_INT);
  94              		.loc 1 40 0
  95 002c 2368     		ldr	r3, [r4]
  96 002e 3B2B     		cmp	r3, #59
  97 0030 08DC     		bgt	.L6
  41:.\main.c      **** 		    CySysWdtWriteMatch(CY_SYS_WDT_COUNTER0, WDT_MATCH_VALUE_1SEC);
  98              		.loc 1 41 0
  99 0032 0121     		mov	r1, #1
 100 0034 FFF7FEFF 		bl	CySysWdtSetMode
 101              	.LVL7:
  42:.\main.c      ****         } else {
 102              		.loc 1 42 0
 103 0038 AF21     		mov	r1, #175
 104 003a 0020     		mov	r0, #0
 105 003c 0902     		lsl	r1, r1, #8
 106 003e FFF7FEFF 		bl	CySysWdtSetMatch
 107              	.LVL8:
 108 0042 0AE0     		b	.L7
 109              	.L6:
  44:.\main.c      ****             CySysWdtWriteMatch(CY_SYS_WDT_COUNTER0, 0x0001);
 110              		.loc 1 44 0
 111 0044 0221     		mov	r1, #2
 112 0046 FFF7FEFF 		bl	CySysWdtSetMode
 113              	.LVL9:
  45:.\main.c      ****             CySysWdtWriteClearOnMatch(CY_SYS_WDT_COUNTER0, TRUE);
 114              		.loc 1 45 0
 115 004a 0020     		mov	r0, #0
 116 004c 0121     		mov	r1, #1
 117 004e FFF7FEFF 		bl	CySysWdtSetMatch
 118              	.LVL10:
  46:.\main.c      ****             
 119              		.loc 1 46 0
 120 0052 0020     		mov	r0, #0
 121 0054 0121     		mov	r1, #1
 122 0056 FFF7FEFF 		bl	CySysWdtSetClearOnMatch
 123              	.LVL11:
 124              	.L7:
  49:.\main.c      **** 	    CySysWdtLock();
 125              		.loc 1 49 0
 126 005a 0120     		mov	r0, #1
 127 005c FFF7FEFF 		bl	CySysWdtEnable
 128              	.LVL12:
  50:.\main.c      ****         counter++;
 129              		.loc 1 50 0
 130 0060 FFF7FEFF 		bl	CySysWdtLock
 131              	.LVL13:
  51:.\main.c      **** 	}
 132              		.loc 1 51 0
ARM GAS  C:\Users\ddemidov\AppData\Local\Temp\ccRiQIZu.s 			page 5


 133 0064 2368     		ldr	r3, [r4]
 134 0066 0133     		add	r3, r3, #1
 135 0068 2360     		str	r3, [r4]
 136              	.L4:
 137              	.LBE5:
 138              	.LBE4:
  53:.\main.c      **** 
 139              		.loc 1 53 0
 140              		@ sp needed
 141 006a 10BD     		pop	{r4, pc}
 142              	.L13:
 143              		.align	2
 144              	.L12:
 145 006c 00000000 		.word	.LANCHOR0
 146              		.cfi_endproc
 147              	.LFE63:
 148              		.size	WDT_INT_Handler, .-WDT_INT_Handler
 149              		.section	.text.WDT_Feed,"ax",%progbits
 150              		.align	1
 151              		.global	WDT_Feed
 152              		.code	16
 153              		.thumb_func
 154              		.type	WDT_Feed, %function
 155              	WDT_Feed:
 156              	.LFB64:
  55:.\main.c      ****     counter = 0;
 157              		.loc 1 55 0
 158              		.cfi_startproc
 159 0000 10B5     		push	{r4, lr}
 160              		.cfi_def_cfa_offset 8
 161              		.cfi_offset 4, -8
 162              		.cfi_offset 14, -4
  56:.\main.c      ****     CySysWatchdogFeed(CY_SYS_WDT_COUNTER0); // if this board sent the data
 163              		.loc 1 56 0
 164 0002 0024     		mov	r4, #0
 165 0004 044B     		ldr	r3, .L15
  57:.\main.c      ****     CySysWdtResetCounters(CY_SYS_WDT_COUNTER0);
 166              		.loc 1 57 0
 167 0006 201C     		mov	r0, r4
  56:.\main.c      ****     CySysWatchdogFeed(CY_SYS_WDT_COUNTER0); // if this board sent the data
 168              		.loc 1 56 0
 169 0008 1C60     		str	r4, [r3]
  57:.\main.c      ****     CySysWdtResetCounters(CY_SYS_WDT_COUNTER0);
 170              		.loc 1 57 0
 171 000a FFF7FEFF 		bl	CySysWatchdogFeed
 172              	.LVL14:
  58:.\main.c      ****     
 173              		.loc 1 58 0
 174 000e 201C     		mov	r0, r4
 175 0010 FFF7FEFF 		bl	CySysWdtResetCounters
 176              	.LVL15:
  60:.\main.c      **** 
 177              		.loc 1 60 0
 178              		@ sp needed
 179 0014 10BD     		pop	{r4, pc}
 180              	.L16:
 181 0016 C046     		.align	2
ARM GAS  C:\Users\ddemidov\AppData\Local\Temp\ccRiQIZu.s 			page 6


 182              	.L15:
 183 0018 00000000 		.word	.LANCHOR0
 184              		.cfi_endproc
 185              	.LFE64:
 186              		.size	WDT_Feed, .-WDT_Feed
 187              		.section	.text.wdt_init,"ax",%progbits
 188              		.align	1
 189              		.global	wdt_init
 190              		.code	16
 191              		.thumb_func
 192              		.type	wdt_init, %function
 193              	wdt_init:
 194              	.LFB65:
  62:.\main.c      ****     CySysWdtUnlock(); 
 195              		.loc 1 62 0
 196              		.cfi_startproc
 197 0000 08B5     		push	{r3, lr}
 198              		.cfi_def_cfa_offset 8
 199              		.cfi_offset 3, -8
 200              		.cfi_offset 14, -4
  63:.\main.c      ****     CySysWdtWriteMode(CY_SYS_WDT_COUNTER0, CY_SYS_WDT_MODE_INT);
 201              		.loc 1 63 0
 202 0002 FFF7FEFF 		bl	CySysWdtUnlock
 203              	.LVL16:
  64:.\main.c      ****     CySysWdtWriteMatch(CY_SYS_WDT_COUNTER0, WDT_MATCH_VALUE_1SEC); // 1 sec
 204              		.loc 1 64 0
 205 0006 0020     		mov	r0, #0
 206 0008 0121     		mov	r1, #1
 207 000a FFF7FEFF 		bl	CySysWdtSetMode
 208              	.LVL17:
  65:.\main.c      **** 	CySysWdtWriteClearOnMatch(CY_SYS_WDT_COUNTER0, TRUE);
 209              		.loc 1 65 0
 210 000e AF21     		mov	r1, #175
 211 0010 0020     		mov	r0, #0
 212 0012 0902     		lsl	r1, r1, #8
 213 0014 FFF7FEFF 		bl	CySysWdtSetMatch
 214              	.LVL18:
  66:.\main.c      **** 	CyIntSetPriority(WATCHDOG_INT_VEC_NUM, WATCHDOG_INT_VEC_PRIORITY);
 215              		.loc 1 66 0
 216 0018 0020     		mov	r0, #0
 217 001a 0121     		mov	r1, #1
 218 001c FFF7FEFF 		bl	CySysWdtSetClearOnMatch
 219              	.LVL19:
  67:.\main.c      ****     CyIntEnable(WATCHDOG_INT_VEC_NUM);
 220              		.loc 1 67 0
 221 0020 0321     		mov	r1, #3
 222 0022 0820     		mov	r0, #8
 223 0024 FFF7FEFF 		bl	CyIntSetPriority
 224              	.LVL20:
  68:.\main.c      ****     CySysWdtEnable(CY_SYS_WDT_COUNTER0_MASK);
 225              		.loc 1 68 0
 226 0028 0820     		mov	r0, #8
 227 002a FFF7FEFF 		bl	CyIntEnable
 228              	.LVL21:
  69:.\main.c      ****     CySysWdtLock();
 229              		.loc 1 69 0
 230 002e 0120     		mov	r0, #1
ARM GAS  C:\Users\ddemidov\AppData\Local\Temp\ccRiQIZu.s 			page 7


 231 0030 FFF7FEFF 		bl	CySysWdtEnable
 232              	.LVL22:
  70:.\main.c      ****     CyIntSetVector(WATCHDOG_INT_VEC_NUM, &WDT_INT_Handler);
 233              		.loc 1 70 0
 234 0034 FFF7FEFF 		bl	CySysWdtLock
 235              	.LVL23:
  71:.\main.c      **** }
 236              		.loc 1 71 0
 237 0038 0820     		mov	r0, #8
 238 003a 0249     		ldr	r1, .L18
 239 003c FFF7FEFF 		bl	CyIntSetVector
 240              	.LVL24:
  72:.\main.c      **** 
 241              		.loc 1 72 0
 242              		@ sp needed
 243 0040 08BD     		pop	{r3, pc}
 244              	.L19:
 245 0042 C046     		.align	2
 246              	.L18:
 247 0044 00000000 		.word	WDT_INT_Handler
 248              		.cfi_endproc
 249              	.LFE65:
 250              		.size	wdt_init, .-wdt_init
 251              		.section	.text.user_init,"ax",%progbits
 252              		.align	1
 253              		.global	user_init
 254              		.code	16
 255              		.thumb_func
 256              		.type	user_init, %function
 257              	user_init:
 258              	.LFB67:
  78:.\main.c      **** 
  79:.\main.c      **** void user_init() {
 259              		.loc 1 79 0
 260              		.cfi_startproc
 261 0000 08B5     		push	{r3, lr}
 262              		.cfi_def_cfa_offset 8
 263              		.cfi_offset 3, -8
 264              		.cfi_offset 14, -4
  80:.\main.c      ****     RED_LED_Write(LED_OFF);
 265              		.loc 1 80 0
 266 0002 0120     		mov	r0, #1
 267 0004 FFF7FEFF 		bl	RED_LED_Write
 268              	.LVL25:
  81:.\main.c      ****     GREEN_LED_Write(LED_OFF);
 269              		.loc 1 81 0
 270 0008 0120     		mov	r0, #1
 271 000a FFF7FEFF 		bl	GREEN_LED_Write
 272              	.LVL26:
  82:.\main.c      ****     BLUE_LED_Write(LED_OFF);
 273              		.loc 1 82 0
 274 000e 0120     		mov	r0, #1
 275 0010 FFF7FEFF 		bl	BLUE_LED_Write
 276              	.LVL27:
  83:.\main.c      **** 
  84:.\main.c      ****     SHD_LED_1_Write(LED_OFF);
 277              		.loc 1 84 0
ARM GAS  C:\Users\ddemidov\AppData\Local\Temp\ccRiQIZu.s 			page 8


 278 0014 0120     		mov	r0, #1
 279 0016 FFF7FEFF 		bl	SHD_LED_1_Write
 280              	.LVL28:
  85:.\main.c      ****     SHD_LED_2_Write(LED_OFF);
 281              		.loc 1 85 0
 282 001a 0120     		mov	r0, #1
 283 001c FFF7FEFF 		bl	SHD_LED_2_Write
 284              	.LVL29:
  86:.\main.c      ****     
  87:.\main.c      **** #ifdef TX_ENABLE
  88:.\main.c      ****     SW_Tx_UART_1_Start();
 285              		.loc 1 88 0
 286 0020 FFF7FEFF 		bl	SW_Tx_UART_1_Start
 287              	.LVL30:
  89:.\main.c      **** #endif
  90:.\main.c      **** 
  91:.\main.c      ****     I2CM_Start();
 288              		.loc 1 91 0
 289 0024 FFF7FEFF 		bl	I2CM_Start
 290              	.LVL31:
  92:.\main.c      ****     I2CM_Enable();
 291              		.loc 1 92 0
 292 0028 FFF7FEFF 		bl	I2CM_Enable
 293              	.LVL32:
  93:.\main.c      ****     I2CM_EnableInt();
 294              		.loc 1 93 0
 295 002c 0A20     		mov	r0, #10
 296 002e FFF7FEFF 		bl	CyIntEnable
 297              	.LVL33:
  94:.\main.c      **** }
 298              		.loc 1 94 0
 299              		@ sp needed
 300 0032 08BD     		pop	{r3, pc}
 301              		.cfi_endproc
 302              	.LFE67:
 303              		.size	user_init, .-user_init
 304              		.section	.text.read_sensor,"ax",%progbits
 305              		.align	1
 306              		.global	read_sensor
 307              		.code	16
 308              		.thumb_func
 309              		.type	read_sensor, %function
 310              	read_sensor:
 311              	.LFB68:
  95:.\main.c      **** 
  96:.\main.c      **** void read_sensor(Sensor_Data_t *sensor_data) {
 312              		.loc 1 96 0
 313              		.cfi_startproc
 314              	.LVL34:
 315 0000 10B5     		push	{r4, lr}
 316              		.cfi_def_cfa_offset 8
 317              		.cfi_offset 4, -8
 318              		.cfi_offset 14, -4
  97:.\main.c      ****     if ( (sensor_data->Status & HUMIDICON_PRESENT_MASK) == 1) {
 319              		.loc 1 97 0
 320 0002 0378     		ldrb	r3, [r0]
  96:.\main.c      ****     if ( (sensor_data->Status & HUMIDICON_PRESENT_MASK) == 1) {
ARM GAS  C:\Users\ddemidov\AppData\Local\Temp\ccRiQIZu.s 			page 9


 321              		.loc 1 96 0
 322 0004 041C     		mov	r4, r0
 323              		.loc 1 97 0
 324 0006 DB07     		lsl	r3, r3, #31
 325 0008 09D5     		bpl	.L23
  98:.\main.c      ****         Start_TH_Measurement();
 326              		.loc 1 98 0
 327 000a FFF7FEFF 		bl	Start_TH_Measurement
 328              	.LVL35:
  99:.\main.c      ****         if ( Read_Temp_and_Humidity(sensor_data) < 0 ) RED_LED_Write(LED_ON);
 329              		.loc 1 99 0
 330 000e 201C     		mov	r0, r4
 331 0010 FFF7FEFF 		bl	Read_Temp_and_Humidity
 332              	.LVL36:
 333 0014 0028     		cmp	r0, #0
 334 0016 02DA     		bge	.L23
 335              		.loc 1 99 0 is_stmt 0 discriminator 1
 336 0018 0020     		mov	r0, #0
 337 001a FFF7FEFF 		bl	RED_LED_Write
 338              	.LVL37:
 339              	.L23:
 100:.\main.c      ****     }
 101:.\main.c      ****     if ( sensor_data->Status & AIRFLOW_PRESENT_MASK) {
 340              		.loc 1 101 0 is_stmt 1
 341 001e 2378     		ldrb	r3, [r4]
 342 0020 9B07     		lsl	r3, r3, #30
 343 0022 09D5     		bpl	.L26
 102:.\main.c      ****         Start_Airflow_Measurement();
 344              		.loc 1 102 0
 345 0024 FFF7FEFF 		bl	Start_Airflow_Measurement
 346              	.LVL38:
 103:.\main.c      ****         if ( Read_Airflow(sensor_data) < 0 ) RED_LED_Write(LED_ON);
 347              		.loc 1 103 0
 348 0028 201C     		mov	r0, r4
 349 002a FFF7FEFF 		bl	Read_Airflow
 350              	.LVL39:
 351 002e 0028     		cmp	r0, #0
 352 0030 02DA     		bge	.L26
 353              		.loc 1 103 0 is_stmt 0 discriminator 1
 354 0032 0020     		mov	r0, #0
 355 0034 FFF7FEFF 		bl	RED_LED_Write
 356              	.LVL40:
 357              	.L26:
 104:.\main.c      ****     }
 105:.\main.c      ****     if ( sensor_data->Status & PRESSURE_PRESENT_MASK) {
 358              		.loc 1 105 0 is_stmt 1
 359 0038 2378     		ldrb	r3, [r4]
 360 003a 5B07     		lsl	r3, r3, #29
 361 003c 07D5     		bpl	.L29
 106:.\main.c      ****         if ( Read_Pressure(sensor_data) < 0) RED_LED_Write(LED_ON);
 362              		.loc 1 106 0
 363 003e 201C     		mov	r0, r4
 364 0040 FFF7FEFF 		bl	Read_Pressure
 365              	.LVL41:
 366 0044 0028     		cmp	r0, #0
 367 0046 02DA     		bge	.L29
 368              		.loc 1 106 0 is_stmt 0 discriminator 1
ARM GAS  C:\Users\ddemidov\AppData\Local\Temp\ccRiQIZu.s 			page 10


 369 0048 0020     		mov	r0, #0
 370 004a FFF7FEFF 		bl	RED_LED_Write
 371              	.LVL42:
 372              	.L29:
 107:.\main.c      ****     }
 108:.\main.c      ****     if ( sensor_data->Status & PRESSURE_PRESENT_MASK) {
 373              		.loc 1 108 0 is_stmt 1
 374 004e 2378     		ldrb	r3, [r4]
 375 0050 5B07     		lsl	r3, r3, #29
 376 0052 02D5     		bpl	.L21
 109:.\main.c      ****         sensor_data->Magnetic_Switch = MAG_SW_IN_Read();
 377              		.loc 1 109 0
 378 0054 FFF7FEFF 		bl	MAG_SW_IN_Read
 379              	.LVL43:
 380 0058 E070     		strb	r0, [r4, #3]
 381              	.L21:
 110:.\main.c      ****     }
 111:.\main.c      **** }
 382              		.loc 1 111 0
 383              		@ sp needed
 384              	.LVL44:
 385 005a 10BD     		pop	{r4, pc}
 386              		.cfi_endproc
 387              	.LFE68:
 388              		.size	read_sensor, .-read_sensor
 389              		.section	.text.startup.main,"ax",%progbits
 390              		.align	1
 391              		.global	main
 392              		.code	16
 393              		.thumb_func
 394              		.type	main, %function
 395              	main:
 396              	.LFB69:
 112:.\main.c      **** 
 113:.\main.c      **** int main() {
 397              		.loc 1 113 0
 398              		.cfi_startproc
 399 0000 10B5     		push	{r4, lr}
 400              		.cfi_def_cfa_offset 8
 401              		.cfi_offset 4, -8
 402              		.cfi_offset 14, -4
 403 0002 94B0     		sub	sp, sp, #80
 404              		.cfi_def_cfa_offset 88
 114:.\main.c      ****     
 115:.\main.c      ****     Sensor_Data_t sensor_data;
 116:.\main.c      ****     arrow_gateway_t gateway;
 117:.\main.c      ****     arrow_gateway_config_t config;
 118:.\main.c      ****     arrow_device_t device;
 119:.\main.c      ****     
 120:.\main.c      ****     wdt_init();
 405              		.loc 1 120 0
 406 0004 FFF7FEFF 		bl	wdt_init
 407              	.LVL45:
 121:.\main.c      ****     CySysTickStart();
 408              		.loc 1 121 0
 409 0008 FFF7FEFF 		bl	CySysTickStart
 410              	.LVL46:
ARM GAS  C:\Users\ddemidov\AppData\Local\Temp\ccRiQIZu.s 			page 11


 122:.\main.c      ****     
 123:.\main.c      ****     PPS_ISR_Enable();
 411              		.loc 1 123 0
 412 000c FFF7FEFF 		bl	PPS_ISR_Enable
 413              	.LVL47:
 124:.\main.c      ****     PPS_ISR_StartEx(RTC_PPS_InterruptHandler);
 414              		.loc 1 124 0
 415 0010 6E48     		ldr	r0, .L58
 416 0012 FFF7FEFF 		bl	PPS_ISR_StartEx
 417              	.LVL48:
 125:.\main.c      ****     RTC_PPS_Start();    
 418              		.loc 1 125 0
 419 0016 FFF7FEFF 		bl	RTC_PPS_Start
 420              	.LVL49:
 126:.\main.c      ****     RTC_Start();
 421              		.loc 1 126 0
 422 001a FFF7FEFF 		bl	RTC_Start
 423              	.LVL50:
 127:.\main.c      ****     RTC_SetUnixTime(build_time());
 424              		.loc 1 127 0
 425 001e FFF7FEFF 		bl	build_time
 426              	.LVL51:
 427 0022 C117     		asr	r1, r0, #31
 428 0024 FFF7FEFF 		bl	RTC_SetUnixTime
 429              	.LVL52:
 128:.\main.c      ****     RTC_SetPeriod(1u, 1u);
 430              		.loc 1 128 0
 431 0028 0120     		mov	r0, #1
 432 002a 011C     		mov	r1, r0
 433 002c FFF7FEFF 		bl	RTC_SetPeriod
 434              	.LVL53:
 129:.\main.c      ****     
 130:.\main.c      ****     
 131:.\main.c      ****     
 132:.\main.c      ****     CyGlobalIntEnable; /* Enable global interrupts. */
 435              		.loc 1 132 0
 436              	@ 132 ".\main.c" 1
 437 0030 62B6     		CPSIE   i
 438              	@ 0 "" 2
 133:.\main.c      ****     
 134:.\main.c      ****     user_init();
 439              		.loc 1 134 0
 440              		.code	16
 441 0032 FFF7FEFF 		bl	user_init
 442              	.LVL54:
 135:.\main.c      ****       
 136:.\main.c      ****     arrow_device_init(&device);
 443              		.loc 1 136 0
 444 0036 07A8     		add	r0, sp, #28
 445 0038 FFF7FEFF 		bl	arrow_device_init
 446              	.LVL55:
 137:.\main.c      ****     arrow_device_set_hid(&device, "7896873687623");
 447              		.loc 1 137 0
 448 003c 07A8     		add	r0, sp, #28
 449 003e 6449     		ldr	r1, .L58+4
 450 0040 FFF7FEFF 		bl	arrow_device_set_hid
 451              	.LVL56:
ARM GAS  C:\Users\ddemidov\AppData\Local\Temp\ccRiQIZu.s 			page 12


 138:.\main.c      ****     
 139:.\main.c      ****     Sensor_Data_init(&sensor_data);
 452              		.loc 1 139 0
 453 0044 05A8     		add	r0, sp, #20
 454 0046 FFF7FEFF 		bl	Sensor_Data_init
 455              	.LVL57:
 140:.\main.c      ****     
 141:.\main.c      ****     if ( Sensor_Present_Test(&sensor_data) < 0 ) {
 456              		.loc 1 141 0
 457 004a 05A8     		add	r0, sp, #20
 458 004c FFF7FEFF 		bl	Sensor_Present_Test
 459              	.LVL58:
 460 0050 0028     		cmp	r0, #0
 461 0052 02DA     		bge	.L36
 142:.\main.c      ****         RED_LED_Write(LED_ON);
 462              		.loc 1 142 0
 463 0054 0020     		mov	r0, #0
 464 0056 FFF7FEFF 		bl	RED_LED_Write
 465              	.LVL59:
 466              	.L36:
 143:.\main.c      ****         //CySysPmSleep();
 144:.\main.c      ****         //return -1;
 145:.\main.c      ****     }
 146:.\main.c      ****     
 147:.\main.c      ****     
 148:.\main.c      ****     volatile time_t now_s = time(NULL);
 467              		.loc 1 148 0
 468 005a 0020     		mov	r0, #0
 469 005c FFF7FEFF 		bl	time
 470              	.LVL60:
 149:.\main.c      ****     DBG("Unix time [%d]", now_s);   
 471              		.loc 1 149 0
 472 0060 5C4C     		ldr	r4, .L58+8
 148:.\main.c      ****     DBG("Unix time [%d]", now_s);   
 473              		.loc 1 148 0
 474 0062 0290     		str	r0, [sp, #8]
 475              		.loc 1 149 0
 476 0064 0299     		ldr	r1, [sp, #8]
 477 0066 201C     		mov	r0, r4
 478 0068 FFF7FEFF 		bl	dbg_line
 479              	.LVL61:
 150:.\main.c      ****     CyDelay(5000);
 480              		.loc 1 150 0
 481 006c 5A48     		ldr	r0, .L58+12
 482 006e FFF7FEFF 		bl	CyDelay
 483              	.LVL62:
 151:.\main.c      ****     
 152:.\main.c      ****     now_s = time(NULL);
 484              		.loc 1 152 0
 485 0072 0020     		mov	r0, #0
 486 0074 FFF7FEFF 		bl	time
 487              	.LVL63:
 488 0078 0290     		str	r0, [sp, #8]
 153:.\main.c      ****     DBG("Unix time [%d]", now_s);
 489              		.loc 1 153 0
 490 007a 0299     		ldr	r1, [sp, #8]
 491 007c 201C     		mov	r0, r4
ARM GAS  C:\Users\ddemidov\AppData\Local\Temp\ccRiQIZu.s 			page 13


 492 007e FFF7FEFF 		bl	dbg_line
 493              	.LVL64:
 154:.\main.c      ****     
 155:.\main.c      ****     DBG("set time...");
 494              		.loc 1 155 0
 495 0082 5648     		ldr	r0, .L58+16
 496 0084 FFF7FEFF 		bl	dbg_line
 497              	.LVL65:
 156:.\main.c      ****     ntp_set_time_cycle();
 498              		.loc 1 156 0
 499 0088 FFF7FEFF 		bl	ntp_set_time_cycle
 500              	.LVL66:
 157:.\main.c      ****     
 158:.\main.c      ****     time_t now = time(NULL);
 501              		.loc 1 158 0
 502 008c 0020     		mov	r0, #0
 503 008e FFF7FEFF 		bl	time
 504              	.LVL67:
 505 0092 0390     		str	r0, [sp, #12]
 159:.\main.c      ****     DBG("date : %s", ctime(&now));
 506              		.loc 1 159 0
 507 0094 03A8     		add	r0, sp, #12
 508 0096 FFF7FEFF 		bl	ctime
 509              	.LVL68:
 510 009a 011C     		mov	r1, r0
 511 009c 5048     		ldr	r0, .L58+20
 512 009e FFF7FEFF 		bl	dbg_line
 513              	.LVL69:
 160:.\main.c      ****     
 161:.\main.c      ****     WDT_Feed();
 514              		.loc 1 161 0
 515 00a2 FFF7FEFF 		bl	WDT_Feed
 516              	.LVL70:
 517              	.L37:
 162:.\main.c      ****     while ( arrow_connect_gateway(&gateway) < 0) {
 518              		.loc 1 162 0
 519 00a6 0CA8     		add	r0, sp, #48
 520 00a8 FFF7FEFF 		bl	arrow_connect_gateway
 521              	.LVL71:
 522 00ac 0028     		cmp	r0, #0
 523 00ae 07DA     		bge	.L53
 163:.\main.c      ****         DBG("arrow gateway connection fail");
 524              		.loc 1 163 0
 525 00b0 4C48     		ldr	r0, .L58+24
 526 00b2 FFF7FEFF 		bl	dbg_line
 527              	.LVL72:
 164:.\main.c      ****         CyDelay(1000);
 528              		.loc 1 164 0
 529 00b6 FA20     		mov	r0, #250
 530 00b8 8000     		lsl	r0, r0, #2
 531 00ba FFF7FEFF 		bl	CyDelay
 532              	.LVL73:
 533 00be F2E7     		b	.L37
 534              	.L53:
 165:.\main.c      ****     }
 166:.\main.c      ****     
 167:.\main.c      ****     WDT_Feed();
ARM GAS  C:\Users\ddemidov\AppData\Local\Temp\ccRiQIZu.s 			page 14


 535              		.loc 1 167 0
 536 00c0 FFF7FEFF 		bl	WDT_Feed
 537              	.LVL74:
 538              	.L39:
 168:.\main.c      ****     while ( arrow_config( &gateway, &config ) < 0 ) {
 539              		.loc 1 168 0
 540 00c4 0CA8     		add	r0, sp, #48
 541 00c6 01A9     		add	r1, sp, #4
 542 00c8 FFF7FEFF 		bl	arrow_config
 543              	.LVL75:
 544 00cc 0028     		cmp	r0, #0
 545 00ce 07DA     		bge	.L54
 169:.\main.c      ****         DBG("arrow gateway config fail");
 546              		.loc 1 169 0
 547 00d0 4548     		ldr	r0, .L58+28
 548 00d2 FFF7FEFF 		bl	dbg_line
 549              	.LVL76:
 170:.\main.c      ****         CyDelay(1000);
 550              		.loc 1 170 0
 551 00d6 FA20     		mov	r0, #250
 552 00d8 8000     		lsl	r0, r0, #2
 553 00da FFF7FEFF 		bl	CyDelay
 554              	.LVL77:
 555 00de F1E7     		b	.L39
 556              	.L54:
 171:.\main.c      ****     }
 172:.\main.c      **** 
 173:.\main.c      ****     WDT_Feed();
 557              		.loc 1 173 0
 558 00e0 FFF7FEFF 		bl	WDT_Feed
 559              	.LVL78:
 174:.\main.c      ****     DBG("init device...");
 560              		.loc 1 174 0
 561 00e4 4148     		ldr	r0, .L58+32
 562 00e6 FFF7FEFF 		bl	dbg_line
 563              	.LVL79:
 564              	.L41:
 175:.\main.c      ****     while ( arrow_connect_device(&gateway, &device) < 0 ) {
 565              		.loc 1 175 0
 566 00ea 0CA8     		add	r0, sp, #48
 567 00ec 07A9     		add	r1, sp, #28
 568 00ee FFF7FEFF 		bl	arrow_connect_device
 569              	.LVL80:
 570 00f2 0028     		cmp	r0, #0
 571 00f4 07DA     		bge	.L55
 176:.\main.c      ****         DBG("arrow device connection fail");
 572              		.loc 1 176 0
 573 00f6 3E48     		ldr	r0, .L58+36
 574 00f8 FFF7FEFF 		bl	dbg_line
 575              	.LVL81:
 177:.\main.c      ****         CyDelay(1000);
 576              		.loc 1 177 0
 577 00fc FA20     		mov	r0, #250
 578 00fe 8000     		lsl	r0, r0, #2
 579 0100 FFF7FEFF 		bl	CyDelay
 580              	.LVL82:
 581 0104 F1E7     		b	.L41
ARM GAS  C:\Users\ddemidov\AppData\Local\Temp\ccRiQIZu.s 			page 15


 582              	.L55:
 178:.\main.c      ****     }
 179:.\main.c      ****     
 180:.\main.c      ****     DBG("send telemetry");
 583              		.loc 1 180 0
 584 0106 3B48     		ldr	r0, .L58+40
 585 0108 FFF7FEFF 		bl	dbg_line
 586              	.LVL83:
 181:.\main.c      ****     
 182:.\main.c      ****     read_sensor(&sensor_data);
 587              		.loc 1 182 0
 588 010c 05A8     		add	r0, sp, #20
 589 010e FFF7FEFF 		bl	read_sensor
 590              	.LVL84:
 183:.\main.c      ****     WDT_Feed();
 591              		.loc 1 183 0
 592 0112 FFF7FEFF 		bl	WDT_Feed
 593              	.LVL85:
 594              	.L43:
 184:.\main.c      ****     while ( arrow_send_telemetry(&device, &sensor_data) < 0 ) { 
 595              		.loc 1 184 0
 596 0116 07A8     		add	r0, sp, #28
 597 0118 05A9     		add	r1, sp, #20
 598 011a FFF7FEFF 		bl	arrow_send_telemetry
 599              	.LVL86:
 600 011e 0028     		cmp	r0, #0
 601 0120 07DA     		bge	.L56
 185:.\main.c      ****         DBG("send telemetry fail");
 602              		.loc 1 185 0
 603 0122 3548     		ldr	r0, .L58+44
 604 0124 FFF7FEFF 		bl	dbg_line
 605              	.LVL87:
 186:.\main.c      ****         CyDelay(1000);
 606              		.loc 1 186 0
 607 0128 FA20     		mov	r0, #250
 608 012a 8000     		lsl	r0, r0, #2
 609 012c FFF7FEFF 		bl	CyDelay
 610              	.LVL88:
 611 0130 F1E7     		b	.L43
 612              	.L56:
 187:.\main.c      ****     }
 188:.\main.c      **** 
 189:.\main.c      ****     DBG("mqtt connecting...");
 613              		.loc 1 189 0
 614 0132 3248     		ldr	r0, .L58+48
 615 0134 FFF7FEFF 		bl	dbg_line
 616              	.LVL89:
 190:.\main.c      ****     WDT_Feed();
 617              		.loc 1 190 0
 618 0138 FFF7FEFF 		bl	WDT_Feed
 619              	.LVL90:
 620              	.L45:
 191:.\main.c      ****     while ( mqtt_connect(&gateway, &device, &config) < 0 ) {
 621              		.loc 1 191 0
 622 013c 0CA8     		add	r0, sp, #48
 623 013e 07A9     		add	r1, sp, #28
 624 0140 01AA     		add	r2, sp, #4
ARM GAS  C:\Users\ddemidov\AppData\Local\Temp\ccRiQIZu.s 			page 16


 625 0142 FFF7FEFF 		bl	mqtt_connect
 626              	.LVL91:
 627 0146 0028     		cmp	r0, #0
 628 0148 04DA     		bge	.L57
 192:.\main.c      ****         CyDelay(1000);
 629              		.loc 1 192 0
 630 014a FA20     		mov	r0, #250
 631 014c 8000     		lsl	r0, r0, #2
 632 014e FFF7FEFF 		bl	CyDelay
 633              	.LVL92:
 634 0152 F3E7     		b	.L45
 635              	.L57:
 193:.\main.c      ****     }
 194:.\main.c      **** 
 195:.\main.c      ****     DBG("telemetry data sending...");
 636              		.loc 1 195 0
 637 0154 2A48     		ldr	r0, .L58+52
 638 0156 FFF7FEFF 		bl	dbg_line
 639              	.LVL93:
 196:.\main.c      ****     
 197:.\main.c      ****     volatile int i=0;
 640              		.loc 1 197 0
 641 015a 0023     		mov	r3, #0
 642 015c 0493     		str	r3, [sp, #16]
 643              	.L52:
 198:.\main.c      ****     for(;;) {
 199:.\main.c      ****         WDT_Feed();
 644              		.loc 1 199 0
 645 015e FFF7FEFF 		bl	WDT_Feed
 646              	.LVL94:
 200:.\main.c      ****         read_sensor(&sensor_data);
 647              		.loc 1 200 0
 648 0162 05A8     		add	r0, sp, #20
 649 0164 FFF7FEFF 		bl	read_sensor
 650              	.LVL95:
 201:.\main.c      ****         SW_Tx_UART_1_PutHexInt(i++);
 651              		.loc 1 201 0
 652 0168 0498     		ldr	r0, [sp, #16]
 653 016a 431C     		add	r3, r0, #1
 654 016c 80B2     		uxth	r0, r0
 655 016e 0493     		str	r3, [sp, #16]
 656 0170 FFF7FEFF 		bl	SW_Tx_UART_1_PutHexInt
 657              	.LVL96:
 202:.\main.c      ****         SW_Tx_UART_1_PutString(": ");
 658              		.loc 1 202 0
 659 0174 2348     		ldr	r0, .L58+56
 660 0176 FFF7FEFF 		bl	SW_Tx_UART_1_PutString
 661              	.LVL97:
 203:.\main.c      ****         SW_Tx_UART_1_PutCRLF();
 662              		.loc 1 203 0
 663 017a FFF7FEFF 		bl	SW_Tx_UART_1_PutCRLF
 664              	.LVL98:
 204:.\main.c      ****         
 205:.\main.c      ****         if ( mqtt_publish(&device, &sensor_data) < 0 ) {
 665              		.loc 1 205 0
 666 017e 07A8     		add	r0, sp, #28
 667 0180 05A9     		add	r1, sp, #20
ARM GAS  C:\Users\ddemidov\AppData\Local\Temp\ccRiQIZu.s 			page 17


 668 0182 FFF7FEFF 		bl	mqtt_publish
 669              	.LVL99:
 670 0186 0028     		cmp	r0, #0
 671 0188 10DA     		bge	.L48
 206:.\main.c      ****             DBG("mqtt publish failure...");
 672              		.loc 1 206 0
 673 018a 1F48     		ldr	r0, .L58+60
 674 018c FFF7FEFF 		bl	dbg_line
 675              	.LVL100:
 207:.\main.c      ****             mqtt_disconnect();
 676              		.loc 1 207 0
 677 0190 FFF7FEFF 		bl	mqtt_disconnect
 678              	.LVL101:
 679              	.L49:
 208:.\main.c      ****             while (mqtt_connect(&gateway, &device, &config) < 0) { CyDelay(1000); }
 680              		.loc 1 208 0 discriminator 1
 681 0194 0CA8     		add	r0, sp, #48
 682 0196 07A9     		add	r1, sp, #28
 683 0198 01AA     		add	r2, sp, #4
 684 019a FFF7FEFF 		bl	mqtt_connect
 685              	.LVL102:
 686 019e 0028     		cmp	r0, #0
 687 01a0 04DA     		bge	.L48
 688              		.loc 1 208 0 is_stmt 0 discriminator 2
 689 01a2 FA20     		mov	r0, #250
 690 01a4 8000     		lsl	r0, r0, #2
 691 01a6 FFF7FEFF 		bl	CyDelay
 692              	.LVL103:
 693 01aa F3E7     		b	.L49
 694              	.L48:
 209:.\main.c      ****         }
 210:.\main.c      ****         DBG("mqtt publish done");
 695              		.loc 1 210 0 is_stmt 1
 696 01ac 1748     		ldr	r0, .L58+64
 697 01ae FFF7FEFF 		bl	dbg_line
 698              	.LVL104:
 211:.\main.c      ****         WDT_Feed();
 699              		.loc 1 211 0
 700 01b2 FFF7FEFF 		bl	WDT_Feed
 701              	.LVL105:
 212:.\main.c      ****         
 213:.\main.c      ****         GREEN_LED_Write(LED_OFF);
 702              		.loc 1 213 0
 703 01b6 0120     		mov	r0, #1
 704 01b8 FFF7FEFF 		bl	GREEN_LED_Write
 705              	.LVL106:
 214:.\main.c      ****         CyDelay(TELEMETRY_DELAY);
 706              		.loc 1 214 0
 707 01bc 0648     		ldr	r0, .L58+12
 708 01be FFF7FEFF 		bl	CyDelay
 709              	.LVL107:
 215:.\main.c      ****         GREEN_LED_Write(LED_ON);
 710              		.loc 1 215 0
 711 01c2 0020     		mov	r0, #0
 712 01c4 FFF7FEFF 		bl	GREEN_LED_Write
 713              	.LVL108:
 216:.\main.c      ****          //CySysPmSleep();  
ARM GAS  C:\Users\ddemidov\AppData\Local\Temp\ccRiQIZu.s 			page 18


 217:.\main.c      ****         
 218:.\main.c      ****     }
 714              		.loc 1 218 0
 715 01c8 C9E7     		b	.L52
 716              	.L59:
 717 01ca C046     		.align	2
 718              	.L58:
 719 01cc 00000000 		.word	RTC_PPS_InterruptHandler
 720 01d0 00000000 		.word	.LC4
 721 01d4 0E000000 		.word	.LC6
 722 01d8 88130000 		.word	5000
 723 01dc 1D000000 		.word	.LC8
 724 01e0 29000000 		.word	.LC10
 725 01e4 33000000 		.word	.LC12
 726 01e8 51000000 		.word	.LC14
 727 01ec 6B000000 		.word	.LC16
 728 01f0 7A000000 		.word	.LC18
 729 01f4 97000000 		.word	.LC20
 730 01f8 A6000000 		.word	.LC22
 731 01fc BA000000 		.word	.LC24
 732 0200 CD000000 		.word	.LC26
 733 0204 E7000000 		.word	.LC28
 734 0208 EA000000 		.word	.LC30
 735 020c 02010000 		.word	.LC32
 736              		.cfi_endproc
 737              	.LFE69:
 738              		.size	main, .-main
 739              		.section	.rodata.str1.1,"aMS",%progbits,1
 740              	.LC4:
 741 0000 37383936 		.ascii	"7896873687623\000"
 741      38373336 
 741      38373632 
 741      3300
 742              	.LC6:
 743 000e 556E6978 		.ascii	"Unix time [%d]\000"
 743      2074696D 
 743      65205B25 
 743      645D00
 744              	.LC8:
 745 001d 73657420 		.ascii	"set time...\000"
 745      74696D65 
 745      2E2E2E00 
 746              	.LC10:
 747 0029 64617465 		.ascii	"date : %s\000"
 747      203A2025 
 747      7300
 748              	.LC12:
 749 0033 6172726F 		.ascii	"arrow gateway connection fail\000"
 749      77206761 
 749      74657761 
 749      7920636F 
 749      6E6E6563 
 750              	.LC14:
 751 0051 6172726F 		.ascii	"arrow gateway config fail\000"
 751      77206761 
 751      74657761 
 751      7920636F 
ARM GAS  C:\Users\ddemidov\AppData\Local\Temp\ccRiQIZu.s 			page 19


 751      6E666967 
 752              	.LC16:
 753 006b 696E6974 		.ascii	"init device...\000"
 753      20646576 
 753      6963652E 
 753      2E2E00
 754              	.LC18:
 755 007a 6172726F 		.ascii	"arrow device connection fail\000"
 755      77206465 
 755      76696365 
 755      20636F6E 
 755      6E656374 
 756              	.LC20:
 757 0097 73656E64 		.ascii	"send telemetry\000"
 757      2074656C 
 757      656D6574 
 757      727900
 758              	.LC22:
 759 00a6 73656E64 		.ascii	"send telemetry fail\000"
 759      2074656C 
 759      656D6574 
 759      72792066 
 759      61696C00 
 760              	.LC24:
 761 00ba 6D717474 		.ascii	"mqtt connecting...\000"
 761      20636F6E 
 761      6E656374 
 761      696E672E 
 761      2E2E00
 762              	.LC26:
 763 00cd 74656C65 		.ascii	"telemetry data sending...\000"
 763      6D657472 
 763      79206461 
 763      74612073 
 763      656E6469 
 764              	.LC28:
 765 00e7 3A2000   		.ascii	": \000"
 766              	.LC30:
 767 00ea 6D717474 		.ascii	"mqtt publish failure...\000"
 767      20707562 
 767      6C697368 
 767      20666169 
 767      6C757265 
 768              	.LC32:
 769 0102 6D717474 		.ascii	"mqtt publish done\000"
 769      20707562 
 769      6C697368 
 769      20646F6E 
 769      6500
 770              		.bss
 771              		.align	2
 772              		.set	.LANCHOR0,. + 0
 773              		.type	counter, %object
 774              		.size	counter, 4
 775              	counter:
 776 0000 00000000 		.space	4
 777              		.text
ARM GAS  C:\Users\ddemidov\AppData\Local\Temp\ccRiQIZu.s 			page 20


 778              	.Letext0:
 779              		.file 2 "Generated_Source\\PSoC4/cytypes.h"
 780              		.file 3 "..\\acn-sdk-c\\include/json/json.h"
 781              		.file 4 "..\\acn-sdk-c\\include/arrow/device.h"
 782              		.file 5 "c:\\program files (x86)\\cypress\\psoc creator\\3.3\\psoc creator\\import\\gnu\\arm\\4.9.
 783              		.file 6 "..\\acn-sdk-c\\include/json/telemetry.h"
 784              		.file 7 "..\\acn-sdk-c\\include/arrow/gateway.h"
 785              		.file 8 "Generated_Source\\PSoC4/RTC.h"
 786              		.file 9 "Generated_Source\\PSoC4/CyLFClk.h"
 787              		.file 10 "Generated_Source\\PSoC4/BLUE_LED.h"
 788              		.file 11 "Generated_Source\\PSoC4/CyLib.h"
 789              		.file 12 "Generated_Source\\PSoC4/RED_LED.h"
 790              		.file 13 "Generated_Source\\PSoC4/GREEN_LED.h"
 791              		.file 14 "Generated_Source\\PSoC4/SHD_LED_1.h"
 792              		.file 15 "Generated_Source\\PSoC4/SHD_LED_2.h"
 793              		.file 16 "Generated_Source\\PSoC4/SW_Tx_UART_1.h"
 794              		.file 17 "Generated_Source\\PSoC4/I2CM.h"
 795              		.file 18 "./Sensor_Processes.h"
 796              		.file 19 "Generated_Source\\PSoC4/MAG_SW_IN.h"
 797              		.file 20 "Generated_Source\\PSoC4/PPS_ISR.h"
 798              		.file 21 "Generated_Source\\PSoC4/RTC_PPS.h"
 799              		.file 22 "..\\acn-sdk-c\\include/time/time.h"
 800              		.file 23 "c:\\program files (x86)\\cypress\\psoc creator\\3.3\\psoc creator\\import\\gnu\\arm\\4.9
 801              		.file 24 "..\\acn-sdk-c/platforms/senseability/trace.h"
 802              		.file 25 "..\\acn-sdk-c\\include/ntp/ntp.h"
 803              		.file 26 "..\\acn-sdk-c\\include/arrow/connection.h"
 804              		.file 27 "..\\acn-sdk-c\\include/arrow/mqtt.h"