ARM GAS  C:\Users\ddemidov\AppData\Local\Temp\ccS5itwd.s 			page 1


   1              		.cpu cortex-m0
   2              		.fpu softvfp
   3              		.eabi_attribute 20, 1
   4              		.eabi_attribute 21, 1
   5              		.eabi_attribute 23, 3
   6              		.eabi_attribute 24, 1
   7              		.eabi_attribute 25, 1
   8              		.eabi_attribute 26, 1
   9              		.eabi_attribute 30, 1
  10              		.eabi_attribute 34, 0
  11              		.eabi_attribute 18, 4
  12              		.code	16
  13              		.file	"md4.c"
  14              		.text
  15              	.Ltext0:
  16              		.cfi_sections	.debug_frame
  17              		.section	.text.Transform,"ax",%progbits
  18              		.align	2
  19              		.code	16
  20              		.thumb_func
  21              		.type	Transform, %function
  22              	Transform:
  23              	.LFB14:
  24              		.file 1 "..\\kronos-c-sdk\\src\\wolfSSL\\wolfcrypt\\src\\md4.c"
   1:..\kronos-c-sdk\src\wolfSSL\wolfcrypt\src/md4.c **** /* md4.c
   2:..\kronos-c-sdk\src\wolfSSL\wolfcrypt\src/md4.c ****  *
   3:..\kronos-c-sdk\src\wolfSSL\wolfcrypt\src/md4.c ****  * Copyright (C) 2006-2016 wolfSSL Inc.
   4:..\kronos-c-sdk\src\wolfSSL\wolfcrypt\src/md4.c ****  *
   5:..\kronos-c-sdk\src\wolfSSL\wolfcrypt\src/md4.c ****  * This file is part of wolfSSL.
   6:..\kronos-c-sdk\src\wolfSSL\wolfcrypt\src/md4.c ****  *
   7:..\kronos-c-sdk\src\wolfSSL\wolfcrypt\src/md4.c ****  * wolfSSL is free software; you can redistribute it and/or modify
   8:..\kronos-c-sdk\src\wolfSSL\wolfcrypt\src/md4.c ****  * it under the terms of the GNU General Public License as published by
   9:..\kronos-c-sdk\src\wolfSSL\wolfcrypt\src/md4.c ****  * the Free Software Foundation; either version 2 of the License, or
  10:..\kronos-c-sdk\src\wolfSSL\wolfcrypt\src/md4.c ****  * (at your option) any later version.
  11:..\kronos-c-sdk\src\wolfSSL\wolfcrypt\src/md4.c ****  *
  12:..\kronos-c-sdk\src\wolfSSL\wolfcrypt\src/md4.c ****  * wolfSSL is distributed in the hope that it will be useful,
  13:..\kronos-c-sdk\src\wolfSSL\wolfcrypt\src/md4.c ****  * but WITHOUT ANY WARRANTY; without even the implied warranty of
  14:..\kronos-c-sdk\src\wolfSSL\wolfcrypt\src/md4.c ****  * MERCHANTABILITY or FITNESS FOR A PARTICULAR PURPOSE.  See the
  15:..\kronos-c-sdk\src\wolfSSL\wolfcrypt\src/md4.c ****  * GNU General Public License for more details.
  16:..\kronos-c-sdk\src\wolfSSL\wolfcrypt\src/md4.c ****  *
  17:..\kronos-c-sdk\src\wolfSSL\wolfcrypt\src/md4.c ****  * You should have received a copy of the GNU General Public License
  18:..\kronos-c-sdk\src\wolfSSL\wolfcrypt\src/md4.c ****  * along with this program; if not, write to the Free Software
  19:..\kronos-c-sdk\src\wolfSSL\wolfcrypt\src/md4.c ****  * Foundation, Inc., 51 Franklin Street, Fifth Floor, Boston, MA 02110-1335, USA
  20:..\kronos-c-sdk\src\wolfSSL\wolfcrypt\src/md4.c ****  */
  21:..\kronos-c-sdk\src\wolfSSL\wolfcrypt\src/md4.c **** 
  22:..\kronos-c-sdk\src\wolfSSL\wolfcrypt\src/md4.c **** 
  23:..\kronos-c-sdk\src\wolfSSL\wolfcrypt\src/md4.c **** #ifdef HAVE_CONFIG_H
  24:..\kronos-c-sdk\src\wolfSSL\wolfcrypt\src/md4.c ****     #include <config.h>
  25:..\kronos-c-sdk\src\wolfSSL\wolfcrypt\src/md4.c **** #endif
  26:..\kronos-c-sdk\src\wolfSSL\wolfcrypt\src/md4.c **** 
  27:..\kronos-c-sdk\src\wolfSSL\wolfcrypt\src/md4.c **** #include <wolfssl/wolfcrypt/settings.h>
  28:..\kronos-c-sdk\src\wolfSSL\wolfcrypt\src/md4.c **** 
  29:..\kronos-c-sdk\src\wolfSSL\wolfcrypt\src/md4.c **** #ifndef NO_MD4
  30:..\kronos-c-sdk\src\wolfSSL\wolfcrypt\src/md4.c **** 
  31:..\kronos-c-sdk\src\wolfSSL\wolfcrypt\src/md4.c **** #include <wolfssl/wolfcrypt/md4.h>
  32:..\kronos-c-sdk\src\wolfSSL\wolfcrypt\src/md4.c **** #ifdef NO_INLINE
  33:..\kronos-c-sdk\src\wolfSSL\wolfcrypt\src/md4.c ****     #include <wolfssl/wolfcrypt/misc.h>
ARM GAS  C:\Users\ddemidov\AppData\Local\Temp\ccS5itwd.s 			page 2


  34:..\kronos-c-sdk\src\wolfSSL\wolfcrypt\src/md4.c **** #else
  35:..\kronos-c-sdk\src\wolfSSL\wolfcrypt\src/md4.c ****     #include <wolfcrypt/src/misc.c>
  36:..\kronos-c-sdk\src\wolfSSL\wolfcrypt\src/md4.c **** #endif
  37:..\kronos-c-sdk\src\wolfSSL\wolfcrypt\src/md4.c **** 
  38:..\kronos-c-sdk\src\wolfSSL\wolfcrypt\src/md4.c **** 
  39:..\kronos-c-sdk\src\wolfSSL\wolfcrypt\src/md4.c **** #ifndef WOLFSSL_HAVE_MIN
  40:..\kronos-c-sdk\src\wolfSSL\wolfcrypt\src/md4.c **** #define WOLFSSL_HAVE_MIN
  41:..\kronos-c-sdk\src\wolfSSL\wolfcrypt\src/md4.c **** 
  42:..\kronos-c-sdk\src\wolfSSL\wolfcrypt\src/md4.c ****     static INLINE word32 min(word32 a, word32 b)
  43:..\kronos-c-sdk\src\wolfSSL\wolfcrypt\src/md4.c ****     {
  44:..\kronos-c-sdk\src\wolfSSL\wolfcrypt\src/md4.c ****         return a > b ? b : a;
  45:..\kronos-c-sdk\src\wolfSSL\wolfcrypt\src/md4.c ****     }
  46:..\kronos-c-sdk\src\wolfSSL\wolfcrypt\src/md4.c **** 
  47:..\kronos-c-sdk\src\wolfSSL\wolfcrypt\src/md4.c **** #endif /* WOLFSSL_HAVE_MIN */
  48:..\kronos-c-sdk\src\wolfSSL\wolfcrypt\src/md4.c **** 
  49:..\kronos-c-sdk\src\wolfSSL\wolfcrypt\src/md4.c **** 
  50:..\kronos-c-sdk\src\wolfSSL\wolfcrypt\src/md4.c **** void wc_InitMd4(Md4* md4)
  51:..\kronos-c-sdk\src\wolfSSL\wolfcrypt\src/md4.c **** {
  52:..\kronos-c-sdk\src\wolfSSL\wolfcrypt\src/md4.c ****     md4->digest[0] = 0x67452301L;
  53:..\kronos-c-sdk\src\wolfSSL\wolfcrypt\src/md4.c ****     md4->digest[1] = 0xefcdab89L;
  54:..\kronos-c-sdk\src\wolfSSL\wolfcrypt\src/md4.c ****     md4->digest[2] = 0x98badcfeL;
  55:..\kronos-c-sdk\src\wolfSSL\wolfcrypt\src/md4.c ****     md4->digest[3] = 0x10325476L;
  56:..\kronos-c-sdk\src\wolfSSL\wolfcrypt\src/md4.c **** 
  57:..\kronos-c-sdk\src\wolfSSL\wolfcrypt\src/md4.c ****     md4->buffLen = 0;
  58:..\kronos-c-sdk\src\wolfSSL\wolfcrypt\src/md4.c ****     md4->loLen   = 0;
  59:..\kronos-c-sdk\src\wolfSSL\wolfcrypt\src/md4.c ****     md4->hiLen   = 0;
  60:..\kronos-c-sdk\src\wolfSSL\wolfcrypt\src/md4.c **** }
  61:..\kronos-c-sdk\src\wolfSSL\wolfcrypt\src/md4.c **** 
  62:..\kronos-c-sdk\src\wolfSSL\wolfcrypt\src/md4.c **** 
  63:..\kronos-c-sdk\src\wolfSSL\wolfcrypt\src/md4.c **** static void Transform(Md4* md4)
  64:..\kronos-c-sdk\src\wolfSSL\wolfcrypt\src/md4.c **** {
  25              		.loc 1 64 0
  26              		.cfi_startproc
  27              	.LVL0:
  28 0000 F0B5     		push	{r4, r5, r6, r7, lr}
  29              		.cfi_def_cfa_offset 20
  30              		.cfi_offset 4, -20
  31              		.cfi_offset 5, -16
  32              		.cfi_offset 6, -12
  33              		.cfi_offset 7, -8
  34              		.cfi_offset 14, -4
  35 0002 5F46     		mov	r7, fp
  36 0004 5646     		mov	r6, r10
  37 0006 4D46     		mov	r5, r9
  38 0008 4446     		mov	r4, r8
  39 000a F0B4     		push	{r4, r5, r6, r7}
  40              		.cfi_def_cfa_offset 36
  41              		.cfi_offset 8, -36
  42              		.cfi_offset 9, -32
  43              		.cfi_offset 10, -28
  44              		.cfi_offset 11, -24
  45              	.LVL1:
  65:..\kronos-c-sdk\src\wolfSSL\wolfcrypt\src/md4.c **** #define F(x, y, z) ((z) ^ ((x) & ((y) ^ (z))))
  66:..\kronos-c-sdk\src\wolfSSL\wolfcrypt\src/md4.c **** #define G(x, y, z) (((x) & (y)) | ((x) & (z)) | ((y) & (z)))
  67:..\kronos-c-sdk\src\wolfSSL\wolfcrypt\src/md4.c **** #define H(x, y, z) ((x) ^ (y) ^ (z))
  68:..\kronos-c-sdk\src\wolfSSL\wolfcrypt\src/md4.c **** 
  69:..\kronos-c-sdk\src\wolfSSL\wolfcrypt\src/md4.c ****     /* Copy context->state[] to working vars  */
ARM GAS  C:\Users\ddemidov\AppData\Local\Temp\ccS5itwd.s 			page 3


  70:..\kronos-c-sdk\src\wolfSSL\wolfcrypt\src/md4.c ****     word32 A = md4->digest[0];
  71:..\kronos-c-sdk\src\wolfSSL\wolfcrypt\src/md4.c ****     word32 B = md4->digest[1];
  72:..\kronos-c-sdk\src\wolfSSL\wolfcrypt\src/md4.c ****     word32 C = md4->digest[2];
  73:..\kronos-c-sdk\src\wolfSSL\wolfcrypt\src/md4.c ****     word32 D = md4->digest[3];
  74:..\kronos-c-sdk\src\wolfSSL\wolfcrypt\src/md4.c **** 
  75:..\kronos-c-sdk\src\wolfSSL\wolfcrypt\src/md4.c **** #define function(a,b,c,d,k,s) a=rotlFixed(a+F(b,c,d)+md4->buffer[k],s);
  76:..\kronos-c-sdk\src\wolfSSL\wolfcrypt\src/md4.c ****     function(A,B,C,D, 0, 3);
  46              		.loc 1 76 0
  47 000c 4369     		ldr	r3, [r0, #20]
  48 000e 8269     		ldr	r2, [r0, #24]
  49 0010 5340     		eor	r3, r2
  50 0012 0269     		ldr	r2, [r0, #16]
  51 0014 1340     		and	r3, r2
  52 0016 8269     		ldr	r2, [r0, #24]
  53 0018 5340     		eor	r3, r2
  54 001a C268     		ldr	r2, [r0, #12]
  55 001c 9446     		mov	ip, r2
  56 001e 6344     		add	r3, r3, ip
  57 0020 C269     		ldr	r2, [r0, #28]
  58 0022 9446     		mov	ip, r2
  59 0024 6344     		add	r3, r3, ip
  60              	.LVL2:
  61              	.LBB105:
  62              	.LBB106:
  63              		.file 2 "..\\kronos-c-sdk\\src\\wolfSSL/wolfcrypt/src/misc.c"
   1:..\kronos-c-sdk\src\wolfSSL\wolfcrypt\src/misc.c **** /* misc.c
   2:..\kronos-c-sdk\src\wolfSSL\wolfcrypt\src/misc.c ****  *
   3:..\kronos-c-sdk\src\wolfSSL\wolfcrypt\src/misc.c ****  * Copyright (C) 2006-2016 wolfSSL Inc.
   4:..\kronos-c-sdk\src\wolfSSL\wolfcrypt\src/misc.c ****  *
   5:..\kronos-c-sdk\src\wolfSSL\wolfcrypt\src/misc.c ****  * This file is part of wolfSSL.
   6:..\kronos-c-sdk\src\wolfSSL\wolfcrypt\src/misc.c ****  *
   7:..\kronos-c-sdk\src\wolfSSL\wolfcrypt\src/misc.c ****  * wolfSSL is free software; you can redistribute it and/or modify
   8:..\kronos-c-sdk\src\wolfSSL\wolfcrypt\src/misc.c ****  * it under the terms of the GNU General Public License as published by
   9:..\kronos-c-sdk\src\wolfSSL\wolfcrypt\src/misc.c ****  * the Free Software Foundation; either version 2 of the License, or
  10:..\kronos-c-sdk\src\wolfSSL\wolfcrypt\src/misc.c ****  * (at your option) any later version.
  11:..\kronos-c-sdk\src\wolfSSL\wolfcrypt\src/misc.c ****  *
  12:..\kronos-c-sdk\src\wolfSSL\wolfcrypt\src/misc.c ****  * wolfSSL is distributed in the hope that it will be useful,
  13:..\kronos-c-sdk\src\wolfSSL\wolfcrypt\src/misc.c ****  * but WITHOUT ANY WARRANTY; without even the implied warranty of
  14:..\kronos-c-sdk\src\wolfSSL\wolfcrypt\src/misc.c ****  * MERCHANTABILITY or FITNESS FOR A PARTICULAR PURPOSE.  See the
  15:..\kronos-c-sdk\src\wolfSSL\wolfcrypt\src/misc.c ****  * GNU General Public License for more details.
  16:..\kronos-c-sdk\src\wolfSSL\wolfcrypt\src/misc.c ****  *
  17:..\kronos-c-sdk\src\wolfSSL\wolfcrypt\src/misc.c ****  * You should have received a copy of the GNU General Public License
  18:..\kronos-c-sdk\src\wolfSSL\wolfcrypt\src/misc.c ****  * along with this program; if not, write to the Free Software
  19:..\kronos-c-sdk\src\wolfSSL\wolfcrypt\src/misc.c ****  * Foundation, Inc., 51 Franklin Street, Fifth Floor, Boston, MA 02110-1335, USA
  20:..\kronos-c-sdk\src\wolfSSL\wolfcrypt\src/misc.c ****  */
  21:..\kronos-c-sdk\src\wolfSSL\wolfcrypt\src/misc.c **** 
  22:..\kronos-c-sdk\src\wolfSSL\wolfcrypt\src/misc.c **** 
  23:..\kronos-c-sdk\src\wolfSSL\wolfcrypt\src/misc.c **** #ifdef HAVE_CONFIG_H
  24:..\kronos-c-sdk\src\wolfSSL\wolfcrypt\src/misc.c ****     #include <config.h>
  25:..\kronos-c-sdk\src\wolfSSL\wolfcrypt\src/misc.c **** #endif
  26:..\kronos-c-sdk\src\wolfSSL\wolfcrypt\src/misc.c **** 
  27:..\kronos-c-sdk\src\wolfSSL\wolfcrypt\src/misc.c **** #include <wolfssl/wolfcrypt/settings.h>
  28:..\kronos-c-sdk\src\wolfSSL\wolfcrypt\src/misc.c **** 
  29:..\kronos-c-sdk\src\wolfSSL\wolfcrypt\src/misc.c **** #ifndef WOLF_CRYPT_MISC_C
  30:..\kronos-c-sdk\src\wolfSSL\wolfcrypt\src/misc.c **** #define WOLF_CRYPT_MISC_C
  31:..\kronos-c-sdk\src\wolfSSL\wolfcrypt\src/misc.c **** 
  32:..\kronos-c-sdk\src\wolfSSL\wolfcrypt\src/misc.c **** #include <wolfssl/wolfcrypt/misc.h>
ARM GAS  C:\Users\ddemidov\AppData\Local\Temp\ccS5itwd.s 			page 4


  33:..\kronos-c-sdk\src\wolfSSL\wolfcrypt\src/misc.c **** 
  34:..\kronos-c-sdk\src\wolfSSL\wolfcrypt\src/misc.c **** /* inlining these functions is a huge speed increase and a small size decrease, 
  35:..\kronos-c-sdk\src\wolfSSL\wolfcrypt\src/misc.c ****    because the functions are smaller than function call setup/cleanup, e.g.,
  36:..\kronos-c-sdk\src\wolfSSL\wolfcrypt\src/misc.c ****    md5 benchmark is twice as fast with inline.  If you don't want it, then
  37:..\kronos-c-sdk\src\wolfSSL\wolfcrypt\src/misc.c ****    define NO_INLINE and compile this file into wolfssl, otherwise it's used as
  38:..\kronos-c-sdk\src\wolfSSL\wolfcrypt\src/misc.c ****    a source header
  39:..\kronos-c-sdk\src\wolfSSL\wolfcrypt\src/misc.c ****  */
  40:..\kronos-c-sdk\src\wolfSSL\wolfcrypt\src/misc.c **** 
  41:..\kronos-c-sdk\src\wolfSSL\wolfcrypt\src/misc.c **** #ifdef NO_INLINE
  42:..\kronos-c-sdk\src\wolfSSL\wolfcrypt\src/misc.c ****     #define STATIC
  43:..\kronos-c-sdk\src\wolfSSL\wolfcrypt\src/misc.c **** #else
  44:..\kronos-c-sdk\src\wolfSSL\wolfcrypt\src/misc.c ****     #define STATIC static
  45:..\kronos-c-sdk\src\wolfSSL\wolfcrypt\src/misc.c **** #endif
  46:..\kronos-c-sdk\src\wolfSSL\wolfcrypt\src/misc.c **** 
  47:..\kronos-c-sdk\src\wolfSSL\wolfcrypt\src/misc.c **** 
  48:..\kronos-c-sdk\src\wolfSSL\wolfcrypt\src/misc.c **** #ifdef INTEL_INTRINSICS
  49:..\kronos-c-sdk\src\wolfSSL\wolfcrypt\src/misc.c **** 
  50:..\kronos-c-sdk\src\wolfSSL\wolfcrypt\src/misc.c ****     #include <stdlib.h>      /* get intrinsic definitions */
  51:..\kronos-c-sdk\src\wolfSSL\wolfcrypt\src/misc.c **** 
  52:..\kronos-c-sdk\src\wolfSSL\wolfcrypt\src/misc.c ****     /* for non visual studio probably need no long version, 32 bit only
  53:..\kronos-c-sdk\src\wolfSSL\wolfcrypt\src/misc.c ****      * i.e., _rotl and _rotr */
  54:..\kronos-c-sdk\src\wolfSSL\wolfcrypt\src/misc.c ****     #pragma intrinsic(_lrotl, _lrotr)
  55:..\kronos-c-sdk\src\wolfSSL\wolfcrypt\src/misc.c **** 
  56:..\kronos-c-sdk\src\wolfSSL\wolfcrypt\src/misc.c ****     STATIC INLINE word32 rotlFixed(word32 x, word32 y)
  57:..\kronos-c-sdk\src\wolfSSL\wolfcrypt\src/misc.c ****     {
  58:..\kronos-c-sdk\src\wolfSSL\wolfcrypt\src/misc.c ****         return y ? _lrotl(x, y) : x;
  59:..\kronos-c-sdk\src\wolfSSL\wolfcrypt\src/misc.c ****     }
  60:..\kronos-c-sdk\src\wolfSSL\wolfcrypt\src/misc.c **** 
  61:..\kronos-c-sdk\src\wolfSSL\wolfcrypt\src/misc.c ****     STATIC INLINE word32 rotrFixed(word32 x, word32 y)
  62:..\kronos-c-sdk\src\wolfSSL\wolfcrypt\src/misc.c ****     {
  63:..\kronos-c-sdk\src\wolfSSL\wolfcrypt\src/misc.c ****         return y ? _lrotr(x, y) : x;
  64:..\kronos-c-sdk\src\wolfSSL\wolfcrypt\src/misc.c ****     }
  65:..\kronos-c-sdk\src\wolfSSL\wolfcrypt\src/misc.c **** 
  66:..\kronos-c-sdk\src\wolfSSL\wolfcrypt\src/misc.c **** #else /* generic */
  67:..\kronos-c-sdk\src\wolfSSL\wolfcrypt\src/misc.c **** 
  68:..\kronos-c-sdk\src\wolfSSL\wolfcrypt\src/misc.c ****     STATIC INLINE word32 rotlFixed(word32 x, word32 y)
  69:..\kronos-c-sdk\src\wolfSSL\wolfcrypt\src/misc.c ****     {
  70:..\kronos-c-sdk\src\wolfSSL\wolfcrypt\src/misc.c ****         return (x << y) | (x >> (sizeof(y) * 8 - y));
  64              		.loc 2 70 0
  65 0026 1D26     		mov	r6, #29
  66 0028 F341     		ror	r3, r3, r6
  67              	.LVL3:
  68              	.LBE106:
  69              	.LBE105:
  77:..\kronos-c-sdk\src\wolfSSL\wolfcrypt\src/md4.c ****     function(D,A,B,C, 1, 7);
  70              		.loc 1 77 0
  71 002a 0569     		ldr	r5, [r0, #16]
  72 002c 4269     		ldr	r2, [r0, #20]
  73              	.LVL4:
  74 002e 5540     		eor	r5, r2
  75 0030 1D40     		and	r5, r3
  76 0032 5540     		eor	r5, r2
  77 0034 8269     		ldr	r2, [r0, #24]
  78 0036 9446     		mov	ip, r2
  79              	.LVL5:
  80 0038 6544     		add	r5, r5, ip
  81 003a 026A     		ldr	r2, [r0, #32]
ARM GAS  C:\Users\ddemidov\AppData\Local\Temp\ccS5itwd.s 			page 5


  82 003c 9446     		mov	ip, r2
  83 003e 6544     		add	r5, r5, ip
  84              	.LVL6:
  85              	.LBB107:
  86              	.LBB108:
  87              		.loc 2 70 0
  88 0040 1922     		mov	r2, #25
  89 0042 9046     		mov	r8, r2
  90 0044 D541     		ror	r5, r5, r2
  91              	.LVL7:
  92              	.LBE108:
  93              	.LBE107:
  78:..\kronos-c-sdk\src\wolfSSL\wolfcrypt\src/md4.c ****     function(C,D,A,B, 2,11);
  94              		.loc 1 78 0
  95 0046 0469     		ldr	r4, [r0, #16]
  96 0048 5C40     		eor	r4, r3
  97 004a 2C40     		and	r4, r5
  98 004c 0269     		ldr	r2, [r0, #16]
  99 004e 5440     		eor	r4, r2
 100 0050 4269     		ldr	r2, [r0, #20]
 101 0052 9446     		mov	ip, r2
 102              	.LVL8:
 103 0054 6444     		add	r4, r4, ip
 104 0056 426A     		ldr	r2, [r0, #36]
 105 0058 9446     		mov	ip, r2
 106 005a 6444     		add	r4, r4, ip
 107              	.LVL9:
 108              	.LBB109:
 109              	.LBB110:
 110              		.loc 2 70 0
 111 005c 1522     		mov	r2, #21
 112 005e D441     		ror	r4, r4, r2
 113              	.LVL10:
 114              	.LBE110:
 115              	.LBE109:
  79:..\kronos-c-sdk\src\wolfSSL\wolfcrypt\src/md4.c ****     function(B,C,D,A, 3,19);
 116              		.loc 1 79 0
 117 0060 191C     		mov	r1, r3
 118 0062 6940     		eor	r1, r5
 119 0064 2140     		and	r1, r4
 120 0066 5940     		eor	r1, r3
 121 0068 0269     		ldr	r2, [r0, #16]
 122 006a 9446     		mov	ip, r2
 123              	.LVL11:
 124 006c 6144     		add	r1, r1, ip
 125 006e 826A     		ldr	r2, [r0, #40]
 126 0070 9446     		mov	ip, r2
 127 0072 6144     		add	r1, r1, ip
 128              	.LVL12:
 129              	.LBB111:
 130              	.LBB112:
 131              		.loc 2 70 0
 132 0074 0D22     		mov	r2, #13
 133 0076 D141     		ror	r1, r1, r2
 134              	.LVL13:
 135              	.LBE112:
 136              	.LBE111:
ARM GAS  C:\Users\ddemidov\AppData\Local\Temp\ccS5itwd.s 			page 6


  80:..\kronos-c-sdk\src\wolfSSL\wolfcrypt\src/md4.c ****     function(A,B,C,D, 4, 3);
 137              		.loc 1 80 0
 138 0078 2F1C     		mov	r7, r5
 139 007a 6740     		eor	r7, r4
 140 007c 0F40     		and	r7, r1
 141 007e 6F40     		eor	r7, r5
 142 0080 BC46     		mov	ip, r7
 143              	.LVL14:
 144 0082 6344     		add	r3, r3, ip
 145              	.LVL15:
 146 0084 C76A     		ldr	r7, [r0, #44]
 147 0086 BC46     		mov	ip, r7
 148 0088 6344     		add	r3, r3, ip
 149              	.LVL16:
 150              	.LBB113:
 151              	.LBB114:
 152              		.loc 2 70 0
 153 008a F341     		ror	r3, r3, r6
 154              	.LVL17:
 155              	.LBE114:
 156              	.LBE113:
  81:..\kronos-c-sdk\src\wolfSSL\wolfcrypt\src/md4.c ****     function(D,A,B,C, 5, 7);
 157              		.loc 1 81 0
 158 008c 271C     		mov	r7, r4
 159              	.LVL18:
 160 008e 4F40     		eor	r7, r1
 161 0090 1F40     		and	r7, r3
 162 0092 6740     		eor	r7, r4
 163 0094 BC46     		mov	ip, r7
 164              	.LVL19:
 165 0096 6544     		add	r5, r5, ip
 166              	.LVL20:
 167 0098 076B     		ldr	r7, [r0, #48]
 168 009a BC46     		mov	ip, r7
 169 009c 6544     		add	r5, r5, ip
 170              	.LVL21:
 171              	.LBB115:
 172              	.LBB116:
 173              		.loc 2 70 0
 174 009e 4746     		mov	r7, r8
 175 00a0 FD41     		ror	r5, r5, r7
 176              	.LVL22:
 177              	.LBE116:
 178              	.LBE115:
  82:..\kronos-c-sdk\src\wolfSSL\wolfcrypt\src/md4.c ****     function(C,D,A,B, 6,11);
 179              		.loc 1 82 0
 180 00a2 0F1C     		mov	r7, r1
 181 00a4 5F40     		eor	r7, r3
 182 00a6 2F40     		and	r7, r5
 183 00a8 4F40     		eor	r7, r1
 184 00aa BC46     		mov	ip, r7
 185 00ac 6444     		add	r4, r4, ip
 186 00ae 476B     		ldr	r7, [r0, #52]
 187 00b0 BC46     		mov	ip, r7
 188 00b2 6444     		add	r4, r4, ip
 189              	.LVL23:
 190              	.LBB117:
ARM GAS  C:\Users\ddemidov\AppData\Local\Temp\ccS5itwd.s 			page 7


 191              	.LBB118:
 192              		.loc 2 70 0
 193 00b4 1527     		mov	r7, #21
 194 00b6 FC41     		ror	r4, r4, r7
 195              	.LVL24:
 196              	.LBE118:
 197              	.LBE117:
  83:..\kronos-c-sdk\src\wolfSSL\wolfcrypt\src/md4.c ****     function(B,C,D,A, 7,19);
 198              		.loc 1 83 0
 199 00b8 1F1C     		mov	r7, r3
 200 00ba 6F40     		eor	r7, r5
 201 00bc 2740     		and	r7, r4
 202 00be 5F40     		eor	r7, r3
 203 00c0 BC46     		mov	ip, r7
 204 00c2 6144     		add	r1, r1, ip
 205 00c4 876B     		ldr	r7, [r0, #56]
 206 00c6 BC46     		mov	ip, r7
 207 00c8 6144     		add	r1, r1, ip
 208              	.LVL25:
 209              	.LBB119:
 210              	.LBB120:
 211              		.loc 2 70 0
 212 00ca D141     		ror	r1, r1, r2
 213              	.LVL26:
 214              	.LBE120:
 215              	.LBE119:
  84:..\kronos-c-sdk\src\wolfSSL\wolfcrypt\src/md4.c ****     function(A,B,C,D, 8, 3);
 216              		.loc 1 84 0
 217 00cc 2F1C     		mov	r7, r5
 218 00ce 6740     		eor	r7, r4
 219 00d0 0F40     		and	r7, r1
 220 00d2 6F40     		eor	r7, r5
 221 00d4 BC46     		mov	ip, r7
 222 00d6 6344     		add	r3, r3, ip
 223 00d8 C76B     		ldr	r7, [r0, #60]
 224 00da BC46     		mov	ip, r7
 225 00dc 6344     		add	r3, r3, ip
 226              	.LVL27:
 227              	.LBB121:
 228              	.LBB122:
 229              		.loc 2 70 0
 230 00de F341     		ror	r3, r3, r6
 231              	.LVL28:
 232              	.LBE122:
 233              	.LBE121:
  85:..\kronos-c-sdk\src\wolfSSL\wolfcrypt\src/md4.c ****     function(D,A,B,C, 9, 7);
 234              		.loc 1 85 0
 235 00e0 271C     		mov	r7, r4
 236 00e2 4F40     		eor	r7, r1
 237 00e4 1F40     		and	r7, r3
 238 00e6 6740     		eor	r7, r4
 239 00e8 BC46     		mov	ip, r7
 240 00ea 6544     		add	r5, r5, ip
 241 00ec 076C     		ldr	r7, [r0, #64]
 242 00ee BC46     		mov	ip, r7
 243 00f0 6544     		add	r5, r5, ip
 244              	.LVL29:
ARM GAS  C:\Users\ddemidov\AppData\Local\Temp\ccS5itwd.s 			page 8


 245              	.LBB123:
 246              	.LBB124:
 247              		.loc 2 70 0
 248 00f2 4746     		mov	r7, r8
 249 00f4 FD41     		ror	r5, r5, r7
 250              	.LVL30:
 251              	.LBE124:
 252              	.LBE123:
  86:..\kronos-c-sdk\src\wolfSSL\wolfcrypt\src/md4.c ****     function(C,D,A,B,10,11);
 253              		.loc 1 86 0
 254 00f6 0F1C     		mov	r7, r1
 255 00f8 5F40     		eor	r7, r3
 256 00fa 2F40     		and	r7, r5
 257 00fc 4F40     		eor	r7, r1
 258 00fe BC46     		mov	ip, r7
 259 0100 6444     		add	r4, r4, ip
 260 0102 476C     		ldr	r7, [r0, #68]
 261 0104 BC46     		mov	ip, r7
 262 0106 6444     		add	r4, r4, ip
 263              	.LVL31:
 264              	.LBB125:
 265              	.LBB126:
 266              		.loc 2 70 0
 267 0108 1527     		mov	r7, #21
 268 010a FC41     		ror	r4, r4, r7
 269              	.LVL32:
 270              	.LBE126:
 271              	.LBE125:
  87:..\kronos-c-sdk\src\wolfSSL\wolfcrypt\src/md4.c ****     function(B,C,D,A,11,19);
 272              		.loc 1 87 0
 273 010c 1F1C     		mov	r7, r3
 274 010e 6F40     		eor	r7, r5
 275 0110 2740     		and	r7, r4
 276 0112 5F40     		eor	r7, r3
 277 0114 BC46     		mov	ip, r7
 278 0116 6144     		add	r1, r1, ip
 279 0118 876C     		ldr	r7, [r0, #72]
 280 011a BC46     		mov	ip, r7
 281 011c 6144     		add	r1, r1, ip
 282              	.LVL33:
 283              	.LBB127:
 284              	.LBB128:
 285              		.loc 2 70 0
 286 011e D141     		ror	r1, r1, r2
 287              	.LVL34:
 288              	.LBE128:
 289              	.LBE127:
  88:..\kronos-c-sdk\src\wolfSSL\wolfcrypt\src/md4.c ****     function(A,B,C,D,12, 3);
 290              		.loc 1 88 0
 291 0120 2F1C     		mov	r7, r5
 292 0122 6740     		eor	r7, r4
 293 0124 0F40     		and	r7, r1
 294 0126 6F40     		eor	r7, r5
 295 0128 BC46     		mov	ip, r7
 296 012a 6344     		add	r3, r3, ip
 297 012c C76C     		ldr	r7, [r0, #76]
 298 012e BC46     		mov	ip, r7
ARM GAS  C:\Users\ddemidov\AppData\Local\Temp\ccS5itwd.s 			page 9


 299 0130 6344     		add	r3, r3, ip
 300              	.LVL35:
 301              	.LBB129:
 302              	.LBB130:
 303              		.loc 2 70 0
 304 0132 F341     		ror	r3, r3, r6
 305              	.LVL36:
 306 0134 9C46     		mov	ip, r3
 307              	.LBE130:
 308              	.LBE129:
  89:..\kronos-c-sdk\src\wolfSSL\wolfcrypt\src/md4.c ****     function(D,A,B,C,13, 7);
 309              		.loc 1 89 0
 310 0136 231C     		mov	r3, r4
 311 0138 4B40     		eor	r3, r1
 312 013a 6746     		mov	r7, ip
 313 013c 3B40     		and	r3, r7
 314 013e 6340     		eor	r3, r4
 315 0140 5B19     		add	r3, r3, r5
 316 0142 056D     		ldr	r5, [r0, #80]
 317 0144 A946     		mov	r9, r5
 318 0146 4B44     		add	r3, r3, r9
 319              	.LVL37:
 320              	.LBB131:
 321              	.LBB132:
 322              		.loc 2 70 0
 323 0148 4546     		mov	r5, r8
 324 014a EB41     		ror	r3, r3, r5
 325              	.LVL38:
 326              	.LBE132:
 327              	.LBE131:
  90:..\kronos-c-sdk\src\wolfSSL\wolfcrypt\src/md4.c ****     function(C,D,A,B,14,11);
 328              		.loc 1 90 0
 329 014c 6546     		mov	r5, ip
 330 014e 4D40     		eor	r5, r1
 331 0150 1D40     		and	r5, r3
 332 0152 4D40     		eor	r5, r1
 333 0154 2C19     		add	r4, r5, r4
 334 0156 456D     		ldr	r5, [r0, #84]
 335 0158 A846     		mov	r8, r5
 336 015a 4444     		add	r4, r4, r8
 337              	.LVL39:
 338              	.LBB133:
 339              	.LBB134:
 340              		.loc 2 70 0
 341 015c 1525     		mov	r5, #21
 342 015e EC41     		ror	r4, r4, r5
 343              	.LVL40:
 344              	.LBE134:
 345              	.LBE133:
  91:..\kronos-c-sdk\src\wolfSSL\wolfcrypt\src/md4.c ****     function(B,C,D,A,15,19);
 346              		.loc 1 91 0
 347 0160 6546     		mov	r5, ip
 348 0162 5D40     		eor	r5, r3
 349 0164 2540     		and	r5, r4
 350 0166 7D40     		eor	r5, r7
 351 0168 6918     		add	r1, r5, r1
 352 016a 856D     		ldr	r5, [r0, #88]
ARM GAS  C:\Users\ddemidov\AppData\Local\Temp\ccS5itwd.s 			page 10


 353 016c A846     		mov	r8, r5
 354 016e 4144     		add	r1, r1, r8
 355              	.LVL41:
 356              	.LBB135:
 357              	.LBB136:
 358              		.loc 2 70 0
 359 0170 D141     		ror	r1, r1, r2
 360              	.LVL42:
 361 0172 0A1C     		mov	r2, r1
 362              	.LBE136:
 363              	.LBE135:
  92:..\kronos-c-sdk\src\wolfSSL\wolfcrypt\src/md4.c **** 
  93:..\kronos-c-sdk\src\wolfSSL\wolfcrypt\src/md4.c **** #undef function	  
  94:..\kronos-c-sdk\src\wolfSSL\wolfcrypt\src/md4.c **** #define function(a,b,c,d,k,s) \
  95:..\kronos-c-sdk\src\wolfSSL\wolfcrypt\src/md4.c ****     a=rotlFixed(a+G(b,c,d)+md4->buffer[k]+0x5a827999,s);
  96:..\kronos-c-sdk\src\wolfSSL\wolfcrypt\src/md4.c **** 
  97:..\kronos-c-sdk\src\wolfSSL\wolfcrypt\src/md4.c ****     function(A,B,C,D, 0, 3);
 364              		.loc 1 97 0
 365 0174 191C     		mov	r1, r3
 366 0176 2143     		orr	r1, r4
 367 0178 1140     		and	r1, r2
 368 017a 0D1C     		mov	r5, r1
 369 017c 211C     		mov	r1, r4
 370 017e 1940     		and	r1, r3
 371 0180 2943     		orr	r1, r5
 372 0182 6144     		add	r1, r1, ip
 373 0184 C569     		ldr	r5, [r0, #28]
 374 0186 AC46     		mov	ip, r5
 375 0188 6144     		add	r1, r1, ip
 376 018a F44D     		ldr	r5, .L2
 377 018c AC46     		mov	ip, r5
 378 018e 6144     		add	r1, r1, ip
 379              	.LVL43:
 380              	.LBB137:
 381              	.LBB138:
 382              		.loc 2 70 0
 383 0190 F141     		ror	r1, r1, r6
 384              	.LVL44:
 385              	.LBE138:
 386              	.LBE137:
  98:..\kronos-c-sdk\src\wolfSSL\wolfcrypt\src/md4.c ****     function(D,A,B,C, 4, 5);
 387              		.loc 1 98 0
 388 0192 251C     		mov	r5, r4
 389              	.LVL45:
 390 0194 1543     		orr	r5, r2
 391 0196 0D40     		and	r5, r1
 392 0198 A846     		mov	r8, r5
 393 019a 151C     		mov	r5, r2
 394 019c 2540     		and	r5, r4
 395 019e 4746     		mov	r7, r8
 396              	.LVL46:
 397 01a0 3D43     		orr	r5, r7
 398 01a2 EB18     		add	r3, r5, r3
 399 01a4 C56A     		ldr	r5, [r0, #44]
 400 01a6 AC46     		mov	ip, r5
 401 01a8 6344     		add	r3, r3, ip
 402 01aa EC4D     		ldr	r5, .L2
ARM GAS  C:\Users\ddemidov\AppData\Local\Temp\ccS5itwd.s 			page 11


 403 01ac AC46     		mov	ip, r5
 404 01ae 6344     		add	r3, r3, ip
 405              	.LVL47:
 406              	.LBB139:
 407              	.LBB140:
 408              		.loc 2 70 0
 409 01b0 1B25     		mov	r5, #27
 410 01b2 A946     		mov	r9, r5
 411 01b4 EB41     		ror	r3, r3, r5
 412              	.LVL48:
 413              	.LBE140:
 414              	.LBE139:
  99:..\kronos-c-sdk\src\wolfSSL\wolfcrypt\src/md4.c ****     function(C,D,A,B, 8, 9);
 415              		.loc 1 99 0
 416 01b6 151C     		mov	r5, r2
 417 01b8 0D43     		orr	r5, r1
 418 01ba 1D40     		and	r5, r3
 419 01bc A846     		mov	r8, r5
 420 01be 0D1C     		mov	r5, r1
 421 01c0 1540     		and	r5, r2
 422 01c2 4746     		mov	r7, r8
 423 01c4 3D43     		orr	r5, r7
 424 01c6 2C19     		add	r4, r5, r4
 425 01c8 C56B     		ldr	r5, [r0, #60]
 426 01ca AC46     		mov	ip, r5
 427 01cc 6444     		add	r4, r4, ip
 428 01ce E34D     		ldr	r5, .L2
 429 01d0 AC46     		mov	ip, r5
 430 01d2 6444     		add	r4, r4, ip
 431              	.LVL49:
 432              	.LBB141:
 433              	.LBB142:
 434              		.loc 2 70 0
 435 01d4 1725     		mov	r5, #23
 436 01d6 EC41     		ror	r4, r4, r5
 437              	.LVL50:
 438              	.LBE142:
 439              	.LBE141:
 100:..\kronos-c-sdk\src\wolfSSL\wolfcrypt\src/md4.c ****     function(B,C,D,A,12,13);
 440              		.loc 1 100 0
 441 01d8 0F1C     		mov	r7, r1
 442 01da 1F43     		orr	r7, r3
 443 01dc 2740     		and	r7, r4
 444 01de BB46     		mov	fp, r7
 445 01e0 1F1C     		mov	r7, r3
 446 01e2 0F40     		and	r7, r1
 447 01e4 B846     		mov	r8, r7
 448 01e6 5F46     		mov	r7, fp
 449 01e8 4546     		mov	r5, r8
 450 01ea 2F43     		orr	r7, r5
 451 01ec B846     		mov	r8, r7
 452 01ee 4244     		add	r2, r2, r8
 453 01f0 C56C     		ldr	r5, [r0, #76]
 454 01f2 AC46     		mov	ip, r5
 455 01f4 6244     		add	r2, r2, ip
 456 01f6 D94D     		ldr	r5, .L2
 457 01f8 AC46     		mov	ip, r5
ARM GAS  C:\Users\ddemidov\AppData\Local\Temp\ccS5itwd.s 			page 12


 458 01fa 6244     		add	r2, r2, ip
 459              	.LVL51:
 460              	.LBB143:
 461              	.LBB144:
 462              		.loc 2 70 0
 463 01fc 1325     		mov	r5, #19
 464 01fe A846     		mov	r8, r5
 465 0200 EA41     		ror	r2, r2, r5
 466              	.LVL52:
 467 0202 9346     		mov	fp, r2
 468              	.LBE144:
 469              	.LBE143:
 101:..\kronos-c-sdk\src\wolfSSL\wolfcrypt\src/md4.c ****     function(A,B,C,D, 1, 3);
 470              		.loc 1 101 0
 471 0204 1A1C     		mov	r2, r3
 472 0206 2243     		orr	r2, r4
 473 0208 5F46     		mov	r7, fp
 474 020a 1740     		and	r7, r2
 475 020c 221C     		mov	r2, r4
 476 020e 1A40     		and	r2, r3
 477 0210 3A43     		orr	r2, r7
 478 0212 5118     		add	r1, r2, r1
 479 0214 026A     		ldr	r2, [r0, #32]
 480 0216 9446     		mov	ip, r2
 481 0218 6144     		add	r1, r1, ip
 482 021a D04A     		ldr	r2, .L2
 483 021c 9446     		mov	ip, r2
 484 021e 6144     		add	r1, r1, ip
 485              	.LVL53:
 486              	.LBB145:
 487              	.LBB146:
 488              		.loc 2 70 0
 489 0220 F141     		ror	r1, r1, r6
 490              	.LVL54:
 491              	.LBE146:
 492              	.LBE145:
 102:..\kronos-c-sdk\src\wolfSSL\wolfcrypt\src/md4.c ****     function(D,A,B,C, 5, 5);
 493              		.loc 1 102 0
 494 0222 5A46     		mov	r2, fp
 495 0224 2243     		orr	r2, r4
 496 0226 0A40     		and	r2, r1
 497 0228 9246     		mov	r10, r2
 498 022a 5A46     		mov	r2, fp
 499 022c 2240     		and	r2, r4
 500 022e 5546     		mov	r5, r10
 501 0230 2A43     		orr	r2, r5
 502 0232 D218     		add	r2, r2, r3
 503 0234 036B     		ldr	r3, [r0, #48]
 504 0236 9C46     		mov	ip, r3
 505 0238 6244     		add	r2, r2, ip
 506 023a C84B     		ldr	r3, .L2
 507 023c 9C46     		mov	ip, r3
 508 023e 6244     		add	r2, r2, ip
 509              	.LVL55:
 510              	.LBB147:
 511              	.LBB148:
 512              		.loc 2 70 0
ARM GAS  C:\Users\ddemidov\AppData\Local\Temp\ccS5itwd.s 			page 13


 513 0240 4B46     		mov	r3, r9
 514 0242 DA41     		ror	r2, r2, r3
 515              	.LVL56:
 516              	.LBE148:
 517              	.LBE147:
 103:..\kronos-c-sdk\src\wolfSSL\wolfcrypt\src/md4.c ****     function(C,D,A,B, 9, 9);
 518              		.loc 1 103 0
 519 0244 5B46     		mov	r3, fp
 520 0246 0B43     		orr	r3, r1
 521 0248 1340     		and	r3, r2
 522 024a 9A46     		mov	r10, r3
 523 024c 5B46     		mov	r3, fp
 524 024e 0B40     		and	r3, r1
 525 0250 5546     		mov	r5, r10
 526 0252 2B43     		orr	r3, r5
 527 0254 1C19     		add	r4, r3, r4
 528 0256 036C     		ldr	r3, [r0, #64]
 529 0258 9C46     		mov	ip, r3
 530 025a 6444     		add	r4, r4, ip
 531 025c BF4B     		ldr	r3, .L2
 532 025e 9C46     		mov	ip, r3
 533 0260 6444     		add	r4, r4, ip
 534              	.LVL57:
 535              	.LBB149:
 536              	.LBB150:
 537              		.loc 2 70 0
 538 0262 1723     		mov	r3, #23
 539 0264 DC41     		ror	r4, r4, r3
 540              	.LVL58:
 541              	.LBE150:
 542              	.LBE149:
 104:..\kronos-c-sdk\src\wolfSSL\wolfcrypt\src/md4.c ****     function(B,C,D,A,13,13);
 543              		.loc 1 104 0
 544 0266 0B1C     		mov	r3, r1
 545 0268 1343     		orr	r3, r2
 546 026a 2340     		and	r3, r4
 547 026c 9A46     		mov	r10, r3
 548 026e 131C     		mov	r3, r2
 549 0270 0B40     		and	r3, r1
 550 0272 5546     		mov	r5, r10
 551 0274 2B43     		orr	r3, r5
 552 0276 5B44     		add	r3, r3, fp
 553 0278 056D     		ldr	r5, [r0, #80]
 554 027a AC46     		mov	ip, r5
 555 027c 6344     		add	r3, r3, ip
 556 027e B74D     		ldr	r5, .L2
 557 0280 AC46     		mov	ip, r5
 558 0282 6344     		add	r3, r3, ip
 559              	.LVL59:
 560              	.LBB151:
 561              	.LBB152:
 562              		.loc 2 70 0
 563 0284 4546     		mov	r5, r8
 564 0286 EB41     		ror	r3, r3, r5
 565              	.LVL60:
 566 0288 9A46     		mov	r10, r3
 567              	.LVL61:
ARM GAS  C:\Users\ddemidov\AppData\Local\Temp\ccS5itwd.s 			page 14


 568              	.LBE152:
 569              	.LBE151:
 105:..\kronos-c-sdk\src\wolfSSL\wolfcrypt\src/md4.c ****     function(A,B,C,D, 2, 3);
 570              		.loc 1 105 0
 571 028a 131C     		mov	r3, r2
 572 028c 2343     		orr	r3, r4
 573 028e 5746     		mov	r7, r10
 574 0290 1F40     		and	r7, r3
 575 0292 231C     		mov	r3, r4
 576 0294 1340     		and	r3, r2
 577 0296 3B43     		orr	r3, r7
 578 0298 5918     		add	r1, r3, r1
 579              	.LVL62:
 580 029a 436A     		ldr	r3, [r0, #36]
 581 029c 9C46     		mov	ip, r3
 582 029e 6144     		add	r1, r1, ip
 583 02a0 AE4B     		ldr	r3, .L2
 584 02a2 9C46     		mov	ip, r3
 585 02a4 6144     		add	r1, r1, ip
 586              	.LVL63:
 587              	.LBB153:
 588              	.LBB154:
 589              		.loc 2 70 0
 590 02a6 F141     		ror	r1, r1, r6
 591              	.LVL64:
 592              	.LBE154:
 593              	.LBE153:
 106:..\kronos-c-sdk\src\wolfSSL\wolfcrypt\src/md4.c ****     function(D,A,B,C, 6, 5);
 594              		.loc 1 106 0
 595 02a8 5346     		mov	r3, r10
 596 02aa 2343     		orr	r3, r4
 597 02ac 0B40     		and	r3, r1
 598 02ae 9B46     		mov	fp, r3
 599 02b0 5346     		mov	r3, r10
 600 02b2 2340     		and	r3, r4
 601 02b4 5D46     		mov	r5, fp
 602 02b6 2B43     		orr	r3, r5
 603 02b8 9B18     		add	r3, r3, r2
 604 02ba 426B     		ldr	r2, [r0, #52]
 605 02bc 9446     		mov	ip, r2
 606 02be 6344     		add	r3, r3, ip
 607 02c0 A64A     		ldr	r2, .L2
 608 02c2 9446     		mov	ip, r2
 609 02c4 6344     		add	r3, r3, ip
 610              	.LVL65:
 611              	.LBB155:
 612              	.LBB156:
 613              		.loc 2 70 0
 614 02c6 4A46     		mov	r2, r9
 615 02c8 D341     		ror	r3, r3, r2
 616              	.LVL66:
 617              	.LBE156:
 618              	.LBE155:
 107:..\kronos-c-sdk\src\wolfSSL\wolfcrypt\src/md4.c ****     function(C,D,A,B,10, 9);
 619              		.loc 1 107 0
 620 02ca 5246     		mov	r2, r10
 621 02cc 0A43     		orr	r2, r1
ARM GAS  C:\Users\ddemidov\AppData\Local\Temp\ccS5itwd.s 			page 15


 622 02ce 1A40     		and	r2, r3
 623 02d0 9346     		mov	fp, r2
 624 02d2 5246     		mov	r2, r10
 625 02d4 0A40     		and	r2, r1
 626 02d6 5D46     		mov	r5, fp
 627 02d8 2A43     		orr	r2, r5
 628 02da 1219     		add	r2, r2, r4
 629 02dc 446C     		ldr	r4, [r0, #68]
 630 02de A446     		mov	ip, r4
 631 02e0 6244     		add	r2, r2, ip
 632 02e2 9E4C     		ldr	r4, .L2
 633 02e4 A446     		mov	ip, r4
 634 02e6 6244     		add	r2, r2, ip
 635              	.LVL67:
 636              	.LBB157:
 637              	.LBB158:
 638              		.loc 2 70 0
 639 02e8 1724     		mov	r4, #23
 640 02ea E241     		ror	r2, r2, r4
 641              	.LVL68:
 642              	.LBE158:
 643              	.LBE157:
 108:..\kronos-c-sdk\src\wolfSSL\wolfcrypt\src/md4.c ****     function(B,C,D,A,14,13);
 644              		.loc 1 108 0
 645 02ec 0C1C     		mov	r4, r1
 646 02ee 1C43     		orr	r4, r3
 647 02f0 1440     		and	r4, r2
 648 02f2 A346     		mov	fp, r4
 649 02f4 1C1C     		mov	r4, r3
 650 02f6 0C40     		and	r4, r1
 651 02f8 5D46     		mov	r5, fp
 652 02fa 2C43     		orr	r4, r5
 653 02fc 5444     		add	r4, r4, r10
 654 02fe 456D     		ldr	r5, [r0, #84]
 655 0300 AC46     		mov	ip, r5
 656 0302 6444     		add	r4, r4, ip
 657 0304 954D     		ldr	r5, .L2
 658 0306 AC46     		mov	ip, r5
 659 0308 6444     		add	r4, r4, ip
 660              	.LVL69:
 661              	.LBB159:
 662              	.LBB160:
 663              		.loc 2 70 0
 664 030a 4546     		mov	r5, r8
 665 030c EC41     		ror	r4, r4, r5
 666              	.LVL70:
 667              	.LBE160:
 668              	.LBE159:
 109:..\kronos-c-sdk\src\wolfSSL\wolfcrypt\src/md4.c ****     function(A,B,C,D, 3, 3);
 669              		.loc 1 109 0
 670 030e 1F1C     		mov	r7, r3
 671 0310 1743     		orr	r7, r2
 672 0312 2740     		and	r7, r4
 673 0314 BB46     		mov	fp, r7
 674              	.LVL71:
 675 0316 171C     		mov	r7, r2
 676 0318 1F40     		and	r7, r3
ARM GAS  C:\Users\ddemidov\AppData\Local\Temp\ccS5itwd.s 			page 16


 677 031a BA46     		mov	r10, r7
 678              	.LVL72:
 679 031c 5F46     		mov	r7, fp
 680 031e 5546     		mov	r5, r10
 681 0320 2F43     		orr	r7, r5
 682 0322 BA46     		mov	r10, r7
 683 0324 5144     		add	r1, r1, r10
 684 0326 856A     		ldr	r5, [r0, #40]
 685 0328 AC46     		mov	ip, r5
 686 032a 6144     		add	r1, r1, ip
 687 032c 8B4D     		ldr	r5, .L2
 688 032e AC46     		mov	ip, r5
 689 0330 6144     		add	r1, r1, ip
 690              	.LVL73:
 691              	.LBB161:
 692              	.LBB162:
 693              		.loc 2 70 0
 694 0332 F141     		ror	r1, r1, r6
 695              	.LVL74:
 696              	.LBE162:
 697              	.LBE161:
 110:..\kronos-c-sdk\src\wolfSSL\wolfcrypt\src/md4.c ****     function(D,A,B,C, 7, 5);
 698              		.loc 1 110 0
 699 0334 171C     		mov	r7, r2
 700 0336 2743     		orr	r7, r4
 701 0338 0F40     		and	r7, r1
 702 033a BB46     		mov	fp, r7
 703 033c 271C     		mov	r7, r4
 704 033e 1740     		and	r7, r2
 705 0340 BA46     		mov	r10, r7
 706 0342 5F46     		mov	r7, fp
 707 0344 5546     		mov	r5, r10
 708 0346 2F43     		orr	r7, r5
 709 0348 BA46     		mov	r10, r7
 710 034a 5344     		add	r3, r3, r10
 711 034c 856B     		ldr	r5, [r0, #56]
 712 034e AC46     		mov	ip, r5
 713 0350 6344     		add	r3, r3, ip
 714 0352 824D     		ldr	r5, .L2
 715 0354 AC46     		mov	ip, r5
 716 0356 6344     		add	r3, r3, ip
 717              	.LVL75:
 718              	.LBB163:
 719              	.LBB164:
 720              		.loc 2 70 0
 721 0358 4D46     		mov	r5, r9
 722 035a EB41     		ror	r3, r3, r5
 723              	.LVL76:
 724              	.LBE164:
 725              	.LBE163:
 111:..\kronos-c-sdk\src\wolfSSL\wolfcrypt\src/md4.c ****     function(C,D,A,B,11, 9);
 726              		.loc 1 111 0
 727 035c 271C     		mov	r7, r4
 728 035e 0F43     		orr	r7, r1
 729 0360 1F40     		and	r7, r3
 730 0362 BA46     		mov	r10, r7
 731 0364 0F1C     		mov	r7, r1
ARM GAS  C:\Users\ddemidov\AppData\Local\Temp\ccS5itwd.s 			page 17


 732 0366 2740     		and	r7, r4
 733 0368 B946     		mov	r9, r7
 734 036a 5746     		mov	r7, r10
 735 036c 4D46     		mov	r5, r9
 736 036e 2F43     		orr	r7, r5
 737 0370 B946     		mov	r9, r7
 738 0372 4A44     		add	r2, r2, r9
 739 0374 856C     		ldr	r5, [r0, #72]
 740 0376 AC46     		mov	ip, r5
 741 0378 6244     		add	r2, r2, ip
 742 037a 784D     		ldr	r5, .L2
 743 037c AC46     		mov	ip, r5
 744 037e 6244     		add	r2, r2, ip
 745              	.LVL77:
 746              	.LBB165:
 747              	.LBB166:
 748              		.loc 2 70 0
 749 0380 1725     		mov	r5, #23
 750 0382 EA41     		ror	r2, r2, r5
 751              	.LVL78:
 752              	.LBE166:
 753              	.LBE165:
 112:..\kronos-c-sdk\src\wolfSSL\wolfcrypt\src/md4.c ****     function(B,C,D,A,15,13);
 754              		.loc 1 112 0
 755 0384 0F1C     		mov	r7, r1
 756 0386 1F43     		orr	r7, r3
 757 0388 1740     		and	r7, r2
 758 038a BA46     		mov	r10, r7
 759 038c 1F1C     		mov	r7, r3
 760 038e 0F40     		and	r7, r1
 761 0390 B946     		mov	r9, r7
 762 0392 5746     		mov	r7, r10
 763 0394 4D46     		mov	r5, r9
 764 0396 2F43     		orr	r7, r5
 765 0398 B946     		mov	r9, r7
 766 039a 4C44     		add	r4, r4, r9
 767 039c 856D     		ldr	r5, [r0, #88]
 768 039e AC46     		mov	ip, r5
 769 03a0 6444     		add	r4, r4, ip
 770 03a2 6E4D     		ldr	r5, .L2
 771 03a4 AC46     		mov	ip, r5
 772 03a6 6444     		add	r4, r4, ip
 773              	.LVL79:
 774              	.LBB167:
 775              	.LBB168:
 776              		.loc 2 70 0
 777 03a8 4546     		mov	r5, r8
 778 03aa EC41     		ror	r4, r4, r5
 779              	.LVL80:
 780              	.LBE168:
 781              	.LBE167:
 113:..\kronos-c-sdk\src\wolfSSL\wolfcrypt\src/md4.c **** 
 114:..\kronos-c-sdk\src\wolfSSL\wolfcrypt\src/md4.c **** #undef function	 
 115:..\kronos-c-sdk\src\wolfSSL\wolfcrypt\src/md4.c **** #define function(a,b,c,d,k,s) \
 116:..\kronos-c-sdk\src\wolfSSL\wolfcrypt\src/md4.c ****     a=rotlFixed(a+H(b,c,d)+md4->buffer[k]+0x6ed9eba1,s);
 117:..\kronos-c-sdk\src\wolfSSL\wolfcrypt\src/md4.c **** 
 118:..\kronos-c-sdk\src\wolfSSL\wolfcrypt\src/md4.c ****     function(A,B,C,D, 0, 3);
ARM GAS  C:\Users\ddemidov\AppData\Local\Temp\ccS5itwd.s 			page 18


 782              		.loc 1 118 0
 783 03ac 171C     		mov	r7, r2
 784 03ae 6740     		eor	r7, r4
 785 03b0 5F40     		eor	r7, r3
 786 03b2 B846     		mov	r8, r7
 787 03b4 4144     		add	r1, r1, r8
 788 03b6 C569     		ldr	r5, [r0, #28]
 789 03b8 AC46     		mov	ip, r5
 790 03ba 6144     		add	r1, r1, ip
 791 03bc 684D     		ldr	r5, .L2+4
 792 03be AC46     		mov	ip, r5
 793 03c0 6144     		add	r1, r1, ip
 794              	.LVL81:
 795              	.LBB169:
 796              	.LBB170:
 797              		.loc 2 70 0
 798 03c2 F141     		ror	r1, r1, r6
 799              	.LVL82:
 800              	.LBE170:
 801              	.LBE169:
 119:..\kronos-c-sdk\src\wolfSSL\wolfcrypt\src/md4.c ****     function(D,A,B,C, 8, 9);
 802              		.loc 1 119 0
 803 03c4 271C     		mov	r7, r4
 804 03c6 4F40     		eor	r7, r1
 805 03c8 5740     		eor	r7, r2
 806 03ca B846     		mov	r8, r7
 807 03cc 4344     		add	r3, r3, r8
 808 03ce C56B     		ldr	r5, [r0, #60]
 809 03d0 AC46     		mov	ip, r5
 810 03d2 6344     		add	r3, r3, ip
 811 03d4 624D     		ldr	r5, .L2+4
 812 03d6 AC46     		mov	ip, r5
 813 03d8 6344     		add	r3, r3, ip
 814              	.LVL83:
 815              	.LBB171:
 816              	.LBB172:
 817              		.loc 2 70 0
 818 03da 1725     		mov	r5, #23
 819 03dc EB41     		ror	r3, r3, r5
 820              	.LVL84:
 821              	.LBE172:
 822              	.LBE171:
 120:..\kronos-c-sdk\src\wolfSSL\wolfcrypt\src/md4.c ****     function(C,D,A,B, 4,11);
 823              		.loc 1 120 0
 824 03de 0F1C     		mov	r7, r1
 825 03e0 5F40     		eor	r7, r3
 826 03e2 6740     		eor	r7, r4
 827 03e4 B846     		mov	r8, r7
 828 03e6 4244     		add	r2, r2, r8
 829 03e8 C56A     		ldr	r5, [r0, #44]
 830 03ea AC46     		mov	ip, r5
 831 03ec 6244     		add	r2, r2, ip
 832 03ee 5C4D     		ldr	r5, .L2+4
 833 03f0 AC46     		mov	ip, r5
 834 03f2 6244     		add	r2, r2, ip
 835              	.LVL85:
 836              	.LBB173:
ARM GAS  C:\Users\ddemidov\AppData\Local\Temp\ccS5itwd.s 			page 19


 837              	.LBB174:
 838              		.loc 2 70 0
 839 03f4 1525     		mov	r5, #21
 840 03f6 EA41     		ror	r2, r2, r5
 841              	.LVL86:
 842              	.LBE174:
 843              	.LBE173:
 121:..\kronos-c-sdk\src\wolfSSL\wolfcrypt\src/md4.c ****     function(B,C,D,A,12,15);
 844              		.loc 1 121 0
 845 03f8 1F1C     		mov	r7, r3
 846 03fa 5740     		eor	r7, r2
 847 03fc 4F40     		eor	r7, r1
 848 03fe B846     		mov	r8, r7
 849 0400 4444     		add	r4, r4, r8
 850 0402 C56C     		ldr	r5, [r0, #76]
 851 0404 AC46     		mov	ip, r5
 852 0406 6444     		add	r4, r4, ip
 853 0408 554D     		ldr	r5, .L2+4
 854 040a AC46     		mov	ip, r5
 855 040c 6444     		add	r4, r4, ip
 856              	.LVL87:
 857              	.LBB175:
 858              	.LBB176:
 859              		.loc 2 70 0
 860 040e 1125     		mov	r5, #17
 861 0410 A846     		mov	r8, r5
 862 0412 EC41     		ror	r4, r4, r5
 863              	.LVL88:
 864              	.LBE176:
 865              	.LBE175:
 122:..\kronos-c-sdk\src\wolfSSL\wolfcrypt\src/md4.c ****     function(A,B,C,D, 2, 3);
 866              		.loc 1 122 0
 867 0414 171C     		mov	r7, r2
 868 0416 6740     		eor	r7, r4
 869 0418 5F40     		eor	r7, r3
 870 041a B946     		mov	r9, r7
 871 041c 4944     		add	r1, r1, r9
 872 041e 456A     		ldr	r5, [r0, #36]
 873 0420 AC46     		mov	ip, r5
 874 0422 6144     		add	r1, r1, ip
 875 0424 4E4D     		ldr	r5, .L2+4
 876 0426 AC46     		mov	ip, r5
 877 0428 6144     		add	r1, r1, ip
 878              	.LVL89:
 879              	.LBB177:
 880              	.LBB178:
 881              		.loc 2 70 0
 882 042a F141     		ror	r1, r1, r6
 883              	.LVL90:
 884              	.LBE178:
 885              	.LBE177:
 123:..\kronos-c-sdk\src\wolfSSL\wolfcrypt\src/md4.c ****     function(D,A,B,C,10, 9);
 886              		.loc 1 123 0
 887 042c 271C     		mov	r7, r4
 888 042e 4F40     		eor	r7, r1
 889 0430 5740     		eor	r7, r2
 890 0432 B946     		mov	r9, r7
ARM GAS  C:\Users\ddemidov\AppData\Local\Temp\ccS5itwd.s 			page 20


 891 0434 4B44     		add	r3, r3, r9
 892 0436 456C     		ldr	r5, [r0, #68]
 893 0438 AC46     		mov	ip, r5
 894 043a 6344     		add	r3, r3, ip
 895 043c 484D     		ldr	r5, .L2+4
 896 043e AC46     		mov	ip, r5
 897 0440 6344     		add	r3, r3, ip
 898              	.LVL91:
 899              	.LBB179:
 900              	.LBB180:
 901              		.loc 2 70 0
 902 0442 1725     		mov	r5, #23
 903 0444 EB41     		ror	r3, r3, r5
 904              	.LVL92:
 905              	.LBE180:
 906              	.LBE179:
 124:..\kronos-c-sdk\src\wolfSSL\wolfcrypt\src/md4.c ****     function(C,D,A,B, 6,11);
 907              		.loc 1 124 0
 908 0446 0F1C     		mov	r7, r1
 909 0448 5F40     		eor	r7, r3
 910 044a 6740     		eor	r7, r4
 911 044c B946     		mov	r9, r7
 912 044e 4A44     		add	r2, r2, r9
 913 0450 456B     		ldr	r5, [r0, #52]
 914 0452 AC46     		mov	ip, r5
 915 0454 6244     		add	r2, r2, ip
 916 0456 424D     		ldr	r5, .L2+4
 917 0458 AC46     		mov	ip, r5
 918 045a 6244     		add	r2, r2, ip
 919              	.LVL93:
 920              	.LBB181:
 921              	.LBB182:
 922              		.loc 2 70 0
 923 045c 1525     		mov	r5, #21
 924 045e EA41     		ror	r2, r2, r5
 925              	.LVL94:
 926              	.LBE182:
 927              	.LBE181:
 125:..\kronos-c-sdk\src\wolfSSL\wolfcrypt\src/md4.c ****     function(B,C,D,A,14,15);
 928              		.loc 1 125 0
 929 0460 1F1C     		mov	r7, r3
 930 0462 5740     		eor	r7, r2
 931 0464 4F40     		eor	r7, r1
 932 0466 B946     		mov	r9, r7
 933 0468 4C44     		add	r4, r4, r9
 934 046a 456D     		ldr	r5, [r0, #84]
 935 046c AC46     		mov	ip, r5
 936 046e 6444     		add	r4, r4, ip
 937 0470 3B4D     		ldr	r5, .L2+4
 938 0472 AC46     		mov	ip, r5
 939 0474 6444     		add	r4, r4, ip
 940              	.LVL95:
 941              	.LBB183:
 942              	.LBB184:
 943              		.loc 2 70 0
 944 0476 4546     		mov	r5, r8
 945 0478 EC41     		ror	r4, r4, r5
ARM GAS  C:\Users\ddemidov\AppData\Local\Temp\ccS5itwd.s 			page 21


 946              	.LVL96:
 947              	.LBE184:
 948              	.LBE183:
 126:..\kronos-c-sdk\src\wolfSSL\wolfcrypt\src/md4.c ****     function(A,B,C,D, 1, 3);
 949              		.loc 1 126 0
 950 047a 171C     		mov	r7, r2
 951 047c 6740     		eor	r7, r4
 952 047e 5F40     		eor	r7, r3
 953 0480 B946     		mov	r9, r7
 954 0482 4944     		add	r1, r1, r9
 955 0484 056A     		ldr	r5, [r0, #32]
 956 0486 AC46     		mov	ip, r5
 957 0488 6144     		add	r1, r1, ip
 958 048a 354D     		ldr	r5, .L2+4
 959 048c AC46     		mov	ip, r5
 960 048e 6144     		add	r1, r1, ip
 961              	.LVL97:
 962              	.LBB185:
 963              	.LBB186:
 964              		.loc 2 70 0
 965 0490 F141     		ror	r1, r1, r6
 966              	.LVL98:
 967              	.LBE186:
 968              	.LBE185:
 127:..\kronos-c-sdk\src\wolfSSL\wolfcrypt\src/md4.c ****     function(D,A,B,C, 9, 9);
 969              		.loc 1 127 0
 970 0492 271C     		mov	r7, r4
 971 0494 4F40     		eor	r7, r1
 972 0496 5740     		eor	r7, r2
 973 0498 B946     		mov	r9, r7
 974 049a 4B44     		add	r3, r3, r9
 975 049c 056C     		ldr	r5, [r0, #64]
 976 049e AC46     		mov	ip, r5
 977 04a0 6344     		add	r3, r3, ip
 978 04a2 2F4D     		ldr	r5, .L2+4
 979 04a4 AC46     		mov	ip, r5
 980 04a6 6344     		add	r3, r3, ip
 981              	.LVL99:
 982              	.LBB187:
 983              	.LBB188:
 984              		.loc 2 70 0
 985 04a8 1725     		mov	r5, #23
 986 04aa EB41     		ror	r3, r3, r5
 987              	.LVL100:
 988              	.LBE188:
 989              	.LBE187:
 128:..\kronos-c-sdk\src\wolfSSL\wolfcrypt\src/md4.c ****     function(C,D,A,B, 5,11);
 990              		.loc 1 128 0
 991 04ac 0F1C     		mov	r7, r1
 992 04ae 5F40     		eor	r7, r3
 993 04b0 6740     		eor	r7, r4
 994 04b2 B946     		mov	r9, r7
 995 04b4 4A44     		add	r2, r2, r9
 996 04b6 056B     		ldr	r5, [r0, #48]
 997 04b8 AC46     		mov	ip, r5
 998 04ba 6244     		add	r2, r2, ip
 999 04bc 284D     		ldr	r5, .L2+4
ARM GAS  C:\Users\ddemidov\AppData\Local\Temp\ccS5itwd.s 			page 22


 1000 04be AC46     		mov	ip, r5
 1001 04c0 6244     		add	r2, r2, ip
 1002              	.LVL101:
 1003              	.LBB189:
 1004              	.LBB190:
 1005              		.loc 2 70 0
 1006 04c2 1525     		mov	r5, #21
 1007 04c4 EA41     		ror	r2, r2, r5
 1008              	.LVL102:
 1009              	.LBE190:
 1010              	.LBE189:
 129:..\kronos-c-sdk\src\wolfSSL\wolfcrypt\src/md4.c ****     function(B,C,D,A,13,15);
 1011              		.loc 1 129 0
 1012 04c6 1F1C     		mov	r7, r3
 1013 04c8 5740     		eor	r7, r2
 1014 04ca 4F40     		eor	r7, r1
 1015 04cc B946     		mov	r9, r7
 1016 04ce 4C44     		add	r4, r4, r9
 1017 04d0 056D     		ldr	r5, [r0, #80]
 1018 04d2 AC46     		mov	ip, r5
 1019 04d4 6444     		add	r4, r4, ip
 1020 04d6 224D     		ldr	r5, .L2+4
 1021 04d8 AC46     		mov	ip, r5
 1022 04da 6444     		add	r4, r4, ip
 1023              	.LVL103:
 1024              	.LBB191:
 1025              	.LBB192:
 1026              		.loc 2 70 0
 1027 04dc 4546     		mov	r5, r8
 1028 04de EC41     		ror	r4, r4, r5
 1029              	.LVL104:
 1030              	.LBE192:
 1031              	.LBE191:
 130:..\kronos-c-sdk\src\wolfSSL\wolfcrypt\src/md4.c ****     function(A,B,C,D, 3, 3);
 1032              		.loc 1 130 0
 1033 04e0 171C     		mov	r7, r2
 1034 04e2 6740     		eor	r7, r4
 1035 04e4 5F40     		eor	r7, r3
 1036 04e6 B946     		mov	r9, r7
 1037 04e8 4944     		add	r1, r1, r9
 1038 04ea 856A     		ldr	r5, [r0, #40]
 1039 04ec AC46     		mov	ip, r5
 1040 04ee 6144     		add	r1, r1, ip
 1041 04f0 1B4D     		ldr	r5, .L2+4
 1042 04f2 AC46     		mov	ip, r5
 1043 04f4 6144     		add	r1, r1, ip
 1044              	.LVL105:
 1045              	.LBB193:
 1046              	.LBB194:
 1047              		.loc 2 70 0
 1048 04f6 F141     		ror	r1, r1, r6
 1049              	.LVL106:
 1050              	.LBE194:
 1051              	.LBE193:
 131:..\kronos-c-sdk\src\wolfSSL\wolfcrypt\src/md4.c ****     function(D,A,B,C,11, 9);
 1052              		.loc 1 131 0
 1053 04f8 261C     		mov	r6, r4
ARM GAS  C:\Users\ddemidov\AppData\Local\Temp\ccS5itwd.s 			page 23


 1054              	.LVL107:
 1055 04fa 4E40     		eor	r6, r1
 1056 04fc 5640     		eor	r6, r2
 1057 04fe F318     		add	r3, r6, r3
 1058 0500 856C     		ldr	r5, [r0, #72]
 1059 0502 AC46     		mov	ip, r5
 1060 0504 6344     		add	r3, r3, ip
 1061 0506 164D     		ldr	r5, .L2+4
 1062 0508 AC46     		mov	ip, r5
 1063 050a 6344     		add	r3, r3, ip
 1064              	.LVL108:
 1065              	.LBB195:
 1066              	.LBB196:
 1067              		.loc 2 70 0
 1068 050c 1725     		mov	r5, #23
 1069 050e EB41     		ror	r3, r3, r5
 1070              	.LVL109:
 1071              	.LBE196:
 1072              	.LBE195:
 132:..\kronos-c-sdk\src\wolfSSL\wolfcrypt\src/md4.c ****     function(C,D,A,B, 7,11);
 1073              		.loc 1 132 0
 1074 0510 0E1C     		mov	r6, r1
 1075 0512 5E40     		eor	r6, r3
 1076 0514 6640     		eor	r6, r4
 1077 0516 B218     		add	r2, r6, r2
 1078 0518 856B     		ldr	r5, [r0, #56]
 1079 051a AC46     		mov	ip, r5
 1080 051c 6244     		add	r2, r2, ip
 1081 051e 104D     		ldr	r5, .L2+4
 1082 0520 AC46     		mov	ip, r5
 1083 0522 6244     		add	r2, r2, ip
 1084              	.LVL110:
 1085              	.LBB197:
 1086              	.LBB198:
 1087              		.loc 2 70 0
 1088 0524 1525     		mov	r5, #21
 1089 0526 EA41     		ror	r2, r2, r5
 1090              	.LVL111:
 1091              	.LBE198:
 1092              	.LBE197:
 133:..\kronos-c-sdk\src\wolfSSL\wolfcrypt\src/md4.c ****     function(B,C,D,A,15,15);
 1093              		.loc 1 133 0
 1094 0528 1E1C     		mov	r6, r3
 1095 052a 5640     		eor	r6, r2
 1096 052c 4E40     		eor	r6, r1
 1097 052e 3419     		add	r4, r6, r4
 1098 0530 856D     		ldr	r5, [r0, #88]
 1099 0532 2D19     		add	r5, r5, r4
 1100 0534 6544     		add	r5, r5, ip
 1101              	.LVL112:
 1102              	.LBB199:
 1103              	.LBB200:
 1104              		.loc 2 70 0
 1105 0536 4446     		mov	r4, r8
 1106 0538 E541     		ror	r5, r5, r4
 1107              	.LVL113:
 1108              	.LBE200:
ARM GAS  C:\Users\ddemidov\AppData\Local\Temp\ccS5itwd.s 			page 24


 1109              	.LBE199:
 134:..\kronos-c-sdk\src\wolfSSL\wolfcrypt\src/md4.c ****     
 135:..\kronos-c-sdk\src\wolfSSL\wolfcrypt\src/md4.c ****     /* Add the working vars back into digest state[]  */
 136:..\kronos-c-sdk\src\wolfSSL\wolfcrypt\src/md4.c ****     md4->digest[0] += A;
 1110              		.loc 1 136 0
 1111 053a C468     		ldr	r4, [r0, #12]
 1112 053c A446     		mov	ip, r4
 1113 053e 6144     		add	r1, r1, ip
 1114 0540 C160     		str	r1, [r0, #12]
 1115              	.LVL114:
 137:..\kronos-c-sdk\src\wolfSSL\wolfcrypt\src/md4.c ****     md4->digest[1] += B;
 1116              		.loc 1 137 0
 1117 0542 0169     		ldr	r1, [r0, #16]
 1118 0544 8C46     		mov	ip, r1
 1119 0546 6544     		add	r5, r5, ip
 1120 0548 0561     		str	r5, [r0, #16]
 1121              	.LVL115:
 138:..\kronos-c-sdk\src\wolfSSL\wolfcrypt\src/md4.c ****     md4->digest[2] += C;
 1122              		.loc 1 138 0
 1123 054a 4169     		ldr	r1, [r0, #20]
 1124              	.LVL116:
 1125 054c 8C46     		mov	ip, r1
 1126              	.LVL117:
 1127 054e 6244     		add	r2, r2, ip
 1128 0550 4261     		str	r2, [r0, #20]
 139:..\kronos-c-sdk\src\wolfSSL\wolfcrypt\src/md4.c ****     md4->digest[3] += D;
 1129              		.loc 1 139 0
 1130 0552 8269     		ldr	r2, [r0, #24]
 1131 0554 9446     		mov	ip, r2
 1132 0556 6344     		add	r3, r3, ip
 1133 0558 8361     		str	r3, [r0, #24]
 140:..\kronos-c-sdk\src\wolfSSL\wolfcrypt\src/md4.c **** }
 1134              		.loc 1 140 0
 1135              		@ sp needed
 1136 055a 03E0     		b	.L3
 1137              	.L4:
 1138              		.align	2
 1139              	.L2:
 1140 055c 9979825A 		.word	1518500249
 1141 0560 A1EBD96E 		.word	1859775393
 1142              	.L3:
 1143 0564 3CBC     		pop	{r2, r3, r4, r5}
 1144 0566 9046     		mov	r8, r2
 1145 0568 9946     		mov	r9, r3
 1146 056a A246     		mov	r10, r4
 1147 056c AB46     		mov	fp, r5
 1148 056e F0BD     		pop	{r4, r5, r6, r7, pc}
 1149              		.cfi_endproc
 1150              	.LFE14:
 1151              		.size	Transform, .-Transform
 1152              		.section	.text.wc_InitMd4,"ax",%progbits
 1153              		.align	2
 1154              		.global	wc_InitMd4
 1155              		.code	16
 1156              		.thumb_func
 1157              		.type	wc_InitMd4, %function
 1158              	wc_InitMd4:
ARM GAS  C:\Users\ddemidov\AppData\Local\Temp\ccS5itwd.s 			page 25


 1159              	.LFB13:
  51:..\kronos-c-sdk\src\wolfSSL\wolfcrypt\src/md4.c ****     md4->digest[0] = 0x67452301L;
 1160              		.loc 1 51 0
 1161              		.cfi_startproc
 1162              	.LVL118:
  52:..\kronos-c-sdk\src\wolfSSL\wolfcrypt\src/md4.c ****     md4->digest[1] = 0xefcdab89L;
 1163              		.loc 1 52 0
 1164 0000 064B     		ldr	r3, .L6
 1165 0002 C360     		str	r3, [r0, #12]
  53:..\kronos-c-sdk\src\wolfSSL\wolfcrypt\src/md4.c ****     md4->digest[2] = 0x98badcfeL;
 1166              		.loc 1 53 0
 1167 0004 064B     		ldr	r3, .L6+4
 1168 0006 0361     		str	r3, [r0, #16]
  54:..\kronos-c-sdk\src\wolfSSL\wolfcrypt\src/md4.c ****     md4->digest[3] = 0x10325476L;
 1169              		.loc 1 54 0
 1170 0008 064B     		ldr	r3, .L6+8
 1171 000a 4361     		str	r3, [r0, #20]
  55:..\kronos-c-sdk\src\wolfSSL\wolfcrypt\src/md4.c **** 
 1172              		.loc 1 55 0
 1173 000c 064B     		ldr	r3, .L6+12
 1174 000e 8361     		str	r3, [r0, #24]
  57:..\kronos-c-sdk\src\wolfSSL\wolfcrypt\src/md4.c ****     md4->loLen   = 0;
 1175              		.loc 1 57 0
 1176 0010 0023     		mov	r3, #0
 1177 0012 0360     		str	r3, [r0]
  58:..\kronos-c-sdk\src\wolfSSL\wolfcrypt\src/md4.c ****     md4->hiLen   = 0;
 1178              		.loc 1 58 0
 1179 0014 4360     		str	r3, [r0, #4]
  59:..\kronos-c-sdk\src\wolfSSL\wolfcrypt\src/md4.c **** }
 1180              		.loc 1 59 0
 1181 0016 8360     		str	r3, [r0, #8]
  60:..\kronos-c-sdk\src\wolfSSL\wolfcrypt\src/md4.c **** 
 1182              		.loc 1 60 0
 1183              		@ sp needed
 1184 0018 7047     		bx	lr
 1185              	.L7:
 1186 001a C046     		.align	2
 1187              	.L6:
 1188 001c 01234567 		.word	1732584193
 1189 0020 89ABCDEF 		.word	-271733879
 1190 0024 FEDCBA98 		.word	-1732584194
 1191 0028 76543210 		.word	271733878
 1192              		.cfi_endproc
 1193              	.LFE13:
 1194              		.size	wc_InitMd4, .-wc_InitMd4
 1195              		.section	.text.wc_Md4Update,"ax",%progbits
 1196              		.align	2
 1197              		.global	wc_Md4Update
 1198              		.code	16
 1199              		.thumb_func
 1200              		.type	wc_Md4Update, %function
 1201              	wc_Md4Update:
 1202              	.LFB16:
 141:..\kronos-c-sdk\src\wolfSSL\wolfcrypt\src/md4.c **** 
 142:..\kronos-c-sdk\src\wolfSSL\wolfcrypt\src/md4.c **** 
 143:..\kronos-c-sdk\src\wolfSSL\wolfcrypt\src/md4.c **** static INLINE void AddLength(Md4* md4, word32 len)
 144:..\kronos-c-sdk\src\wolfSSL\wolfcrypt\src/md4.c **** {
ARM GAS  C:\Users\ddemidov\AppData\Local\Temp\ccS5itwd.s 			page 26


 145:..\kronos-c-sdk\src\wolfSSL\wolfcrypt\src/md4.c ****     word32 tmp = md4->loLen;
 146:..\kronos-c-sdk\src\wolfSSL\wolfcrypt\src/md4.c ****     if ( (md4->loLen += len) < tmp)
 147:..\kronos-c-sdk\src\wolfSSL\wolfcrypt\src/md4.c ****         md4->hiLen++;                       /* carry low to high */
 148:..\kronos-c-sdk\src\wolfSSL\wolfcrypt\src/md4.c **** }
 149:..\kronos-c-sdk\src\wolfSSL\wolfcrypt\src/md4.c **** 
 150:..\kronos-c-sdk\src\wolfSSL\wolfcrypt\src/md4.c **** 
 151:..\kronos-c-sdk\src\wolfSSL\wolfcrypt\src/md4.c **** void wc_Md4Update(Md4* md4, const byte* data, word32 len)
 152:..\kronos-c-sdk\src\wolfSSL\wolfcrypt\src/md4.c **** {
 1203              		.loc 1 152 0
 1204              		.cfi_startproc
 1205              	.LVL119:
 1206 0000 F0B5     		push	{r4, r5, r6, r7, lr}
 1207              		.cfi_def_cfa_offset 20
 1208              		.cfi_offset 4, -20
 1209              		.cfi_offset 5, -16
 1210              		.cfi_offset 6, -12
 1211              		.cfi_offset 7, -8
 1212              		.cfi_offset 14, -4
 1213 0002 4746     		mov	r7, r8
 1214 0004 80B4     		push	{r7}
 1215              		.cfi_def_cfa_offset 24
 1216              		.cfi_offset 8, -24
 1217 0006 061C     		mov	r6, r0
 1218 0008 0F1C     		mov	r7, r1
 1219 000a 151C     		mov	r5, r2
 153:..\kronos-c-sdk\src\wolfSSL\wolfcrypt\src/md4.c ****     /* do block size increments */
 154:..\kronos-c-sdk\src\wolfSSL\wolfcrypt\src/md4.c ****     byte* local = (byte*)md4->buffer;
 1220              		.loc 1 154 0
 1221 000c 1C23     		mov	r3, #28
 1222 000e 9846     		mov	r8, r3
 1223 0010 8044     		add	r8, r8, r0
 1224              	.LVL120:
 155:..\kronos-c-sdk\src\wolfSSL\wolfcrypt\src/md4.c **** 
 156:..\kronos-c-sdk\src\wolfSSL\wolfcrypt\src/md4.c ****     while (len) {
 1225              		.loc 1 156 0
 1226 0012 20E0     		b	.L9
 1227              	.LVL121:
 1228              	.L13:
 1229              	.LBB201:
 157:..\kronos-c-sdk\src\wolfSSL\wolfcrypt\src/md4.c ****         word32 add = min(len, MD4_BLOCK_SIZE - md4->buffLen);
 1230              		.loc 1 157 0
 1231 0014 3068     		ldr	r0, [r6]
 1232 0016 4023     		mov	r3, #64
 1233 0018 1B1A     		sub	r3, r3, r0
 1234              	.LVL122:
 1235              	.LBB202:
 1236              	.LBB203:
  44:..\kronos-c-sdk\src\wolfSSL\wolfcrypt\src/md4.c ****     }
 1237              		.loc 1 44 0
 1238 001a 2C1E     		sub	r4, r5, #0
 1239 001c 9C42     		cmp	r4, r3
 1240 001e 00D9     		bls	.L10
 1241              	.LVL123:
 1242 0020 1C1C     		mov	r4, r3
 1243              	.LVL124:
 1244              	.L10:
 1245              	.LBE203:
ARM GAS  C:\Users\ddemidov\AppData\Local\Temp\ccS5itwd.s 			page 27


 1246              	.LBE202:
 158:..\kronos-c-sdk\src\wolfSSL\wolfcrypt\src/md4.c ****         XMEMCPY(&local[md4->buffLen], data, add);
 1247              		.loc 1 158 0
 1248 0022 4044     		add	r0, r0, r8
 1249 0024 391C     		mov	r1, r7
 1250 0026 221C     		mov	r2, r4
 1251 0028 FFF7FEFF 		bl	memcpy
 1252              	.LVL125:
 159:..\kronos-c-sdk\src\wolfSSL\wolfcrypt\src/md4.c **** 
 160:..\kronos-c-sdk\src\wolfSSL\wolfcrypt\src/md4.c ****         md4->buffLen += add;
 1253              		.loc 1 160 0
 1254 002c 3368     		ldr	r3, [r6]
 1255 002e E318     		add	r3, r4, r3
 1256 0030 3360     		str	r3, [r6]
 161:..\kronos-c-sdk\src\wolfSSL\wolfcrypt\src/md4.c ****         data         += add;
 1257              		.loc 1 161 0
 1258 0032 3F19     		add	r7, r7, r4
 1259              	.LVL126:
 162:..\kronos-c-sdk\src\wolfSSL\wolfcrypt\src/md4.c ****         len          -= add;
 1260              		.loc 1 162 0
 1261 0034 2D1B     		sub	r5, r5, r4
 1262              	.LVL127:
 163:..\kronos-c-sdk\src\wolfSSL\wolfcrypt\src/md4.c **** 
 164:..\kronos-c-sdk\src\wolfSSL\wolfcrypt\src/md4.c ****         if (md4->buffLen == MD4_BLOCK_SIZE) {
 1263              		.loc 1 164 0
 1264 0036 402B     		cmp	r3, #64
 1265 0038 0DD1     		bne	.L9
 165:..\kronos-c-sdk\src\wolfSSL\wolfcrypt\src/md4.c ****             #ifdef BIG_ENDIAN_ORDER
 166:..\kronos-c-sdk\src\wolfSSL\wolfcrypt\src/md4.c ****                 ByteReverseWords(md4->buffer, md4->buffer, MD4_BLOCK_SIZE);
 167:..\kronos-c-sdk\src\wolfSSL\wolfcrypt\src/md4.c ****             #endif
 168:..\kronos-c-sdk\src\wolfSSL\wolfcrypt\src/md4.c ****             Transform(md4);
 1266              		.loc 1 168 0
 1267 003a 301C     		mov	r0, r6
 1268 003c FFF7FEFF 		bl	Transform
 1269              	.LVL128:
 1270              	.LBB204:
 1271              	.LBB205:
 145:..\kronos-c-sdk\src\wolfSSL\wolfcrypt\src/md4.c ****     if ( (md4->loLen += len) < tmp)
 1272              		.loc 1 145 0
 1273 0040 7268     		ldr	r2, [r6, #4]
 1274              	.LVL129:
 146:..\kronos-c-sdk\src\wolfSSL\wolfcrypt\src/md4.c ****         md4->hiLen++;                       /* carry low to high */
 1275              		.loc 1 146 0
 1276 0042 131C     		mov	r3, r2
 1277 0044 4033     		add	r3, r3, #64
 1278 0046 7360     		str	r3, [r6, #4]
 1279 0048 9A42     		cmp	r2, r3
 1280 004a 02D9     		bls	.L12
 147:..\kronos-c-sdk\src\wolfSSL\wolfcrypt\src/md4.c **** }
 1281              		.loc 1 147 0
 1282 004c B368     		ldr	r3, [r6, #8]
 1283 004e 0133     		add	r3, r3, #1
 1284 0050 B360     		str	r3, [r6, #8]
 1285              	.L12:
 1286              	.LBE205:
 1287              	.LBE204:
 169:..\kronos-c-sdk\src\wolfSSL\wolfcrypt\src/md4.c ****             AddLength(md4, MD4_BLOCK_SIZE);
ARM GAS  C:\Users\ddemidov\AppData\Local\Temp\ccS5itwd.s 			page 28


 170:..\kronos-c-sdk\src\wolfSSL\wolfcrypt\src/md4.c ****             md4->buffLen = 0;
 1288              		.loc 1 170 0
 1289 0052 0023     		mov	r3, #0
 1290 0054 3360     		str	r3, [r6]
 1291              	.LVL130:
 1292              	.L9:
 1293              	.LBE201:
 156:..\kronos-c-sdk\src\wolfSSL\wolfcrypt\src/md4.c ****         word32 add = min(len, MD4_BLOCK_SIZE - md4->buffLen);
 1294              		.loc 1 156 0
 1295 0056 002D     		cmp	r5, #0
 1296 0058 DCD1     		bne	.L13
 171:..\kronos-c-sdk\src\wolfSSL\wolfcrypt\src/md4.c ****         }
 172:..\kronos-c-sdk\src\wolfSSL\wolfcrypt\src/md4.c ****     }
 173:..\kronos-c-sdk\src\wolfSSL\wolfcrypt\src/md4.c **** }
 1297              		.loc 1 173 0
 1298              		@ sp needed
 1299              	.LVL131:
 1300              	.LVL132:
 1301              	.LVL133:
 1302              	.LVL134:
 1303 005a 04BC     		pop	{r2}
 1304 005c 9046     		mov	r8, r2
 1305 005e F0BD     		pop	{r4, r5, r6, r7, pc}
 1306              		.cfi_endproc
 1307              	.LFE16:
 1308              		.size	wc_Md4Update, .-wc_Md4Update
 1309              		.section	.text.wc_Md4Final,"ax",%progbits
 1310              		.align	2
 1311              		.global	wc_Md4Final
 1312              		.code	16
 1313              		.thumb_func
 1314              		.type	wc_Md4Final, %function
 1315              	wc_Md4Final:
 1316              	.LFB17:
 174:..\kronos-c-sdk\src\wolfSSL\wolfcrypt\src/md4.c **** 
 175:..\kronos-c-sdk\src\wolfSSL\wolfcrypt\src/md4.c **** 
 176:..\kronos-c-sdk\src\wolfSSL\wolfcrypt\src/md4.c **** void wc_Md4Final(Md4* md4, byte* hash)
 177:..\kronos-c-sdk\src\wolfSSL\wolfcrypt\src/md4.c **** {
 1317              		.loc 1 177 0
 1318              		.cfi_startproc
 1319              	.LVL135:
 1320 0000 F8B5     		push	{r3, r4, r5, r6, r7, lr}
 1321              		.cfi_def_cfa_offset 24
 1322              		.cfi_offset 3, -24
 1323              		.cfi_offset 4, -20
 1324              		.cfi_offset 5, -16
 1325              		.cfi_offset 6, -12
 1326              		.cfi_offset 7, -8
 1327              		.cfi_offset 14, -4
 1328 0002 041C     		mov	r4, r0
 1329 0004 0D1C     		mov	r5, r1
 178:..\kronos-c-sdk\src\wolfSSL\wolfcrypt\src/md4.c ****     byte* local = (byte*)md4->buffer;
 1330              		.loc 1 178 0
 1331 0006 061C     		mov	r6, r0
 1332 0008 1C36     		add	r6, r6, #28
 1333              	.LVL136:
 179:..\kronos-c-sdk\src\wolfSSL\wolfcrypt\src/md4.c **** 
ARM GAS  C:\Users\ddemidov\AppData\Local\Temp\ccS5itwd.s 			page 29


 180:..\kronos-c-sdk\src\wolfSSL\wolfcrypt\src/md4.c ****     AddLength(md4, md4->buffLen);               /* before adding pads */
 1334              		.loc 1 180 0
 1335 000a 0368     		ldr	r3, [r0]
 1336              	.LVL137:
 1337              	.LBB206:
 1338              	.LBB207:
 145:..\kronos-c-sdk\src\wolfSSL\wolfcrypt\src/md4.c ****     if ( (md4->loLen += len) < tmp)
 1339              		.loc 1 145 0
 1340 000c 4168     		ldr	r1, [r0, #4]
 1341              	.LVL138:
 146:..\kronos-c-sdk\src\wolfSSL\wolfcrypt\src/md4.c ****         md4->hiLen++;                       /* carry low to high */
 1342              		.loc 1 146 0
 1343 000e 5A18     		add	r2, r3, r1
 1344 0010 4260     		str	r2, [r0, #4]
 1345 0012 9142     		cmp	r1, r2
 1346 0014 02D9     		bls	.L15
 147:..\kronos-c-sdk\src\wolfSSL\wolfcrypt\src/md4.c **** }
 1347              		.loc 1 147 0
 1348 0016 8268     		ldr	r2, [r0, #8]
 1349 0018 0132     		add	r2, r2, #1
 1350 001a 8260     		str	r2, [r0, #8]
 1351              	.L15:
 1352              	.LBE207:
 1353              	.LBE206:
 181:..\kronos-c-sdk\src\wolfSSL\wolfcrypt\src/md4.c **** 
 182:..\kronos-c-sdk\src\wolfSSL\wolfcrypt\src/md4.c ****     local[md4->buffLen++] = 0x80;  /* add 1 */
 1354              		.loc 1 182 0
 1355 001c 5A1C     		add	r2, r3, #1
 1356 001e 2260     		str	r2, [r4]
 1357 0020 8022     		mov	r2, #128
 1358 0022 F254     		strb	r2, [r6, r3]
 183:..\kronos-c-sdk\src\wolfSSL\wolfcrypt\src/md4.c **** 
 184:..\kronos-c-sdk\src\wolfSSL\wolfcrypt\src/md4.c ****     /* pad with zeros */
 185:..\kronos-c-sdk\src\wolfSSL\wolfcrypt\src/md4.c ****     if (md4->buffLen > MD4_PAD_SIZE) {
 1359              		.loc 1 185 0
 1360 0024 2068     		ldr	r0, [r4]
 1361              	.LVL139:
 1362 0026 3828     		cmp	r0, #56
 1363 0028 0BD9     		bls	.L16
 186:..\kronos-c-sdk\src\wolfSSL\wolfcrypt\src/md4.c ****         XMEMSET(&local[md4->buffLen], 0, MD4_BLOCK_SIZE - md4->buffLen);
 1364              		.loc 1 186 0
 1365 002a 4027     		mov	r7, #64
 1366 002c 3A1A     		sub	r2, r7, r0
 1367 002e 3018     		add	r0, r6, r0
 1368 0030 0021     		mov	r1, #0
 1369              	.LVL140:
 1370 0032 FFF7FEFF 		bl	memset
 1371              	.LVL141:
 187:..\kronos-c-sdk\src\wolfSSL\wolfcrypt\src/md4.c ****         md4->buffLen += MD4_BLOCK_SIZE - md4->buffLen;
 1372              		.loc 1 187 0
 1373 0036 2760     		str	r7, [r4]
 188:..\kronos-c-sdk\src\wolfSSL\wolfcrypt\src/md4.c **** 
 189:..\kronos-c-sdk\src\wolfSSL\wolfcrypt\src/md4.c ****         #ifdef BIG_ENDIAN_ORDER
 190:..\kronos-c-sdk\src\wolfSSL\wolfcrypt\src/md4.c ****             ByteReverseWords(md4->buffer, md4->buffer, MD4_BLOCK_SIZE);
 191:..\kronos-c-sdk\src\wolfSSL\wolfcrypt\src/md4.c ****         #endif
 192:..\kronos-c-sdk\src\wolfSSL\wolfcrypt\src/md4.c ****         Transform(md4);
 1374              		.loc 1 192 0
ARM GAS  C:\Users\ddemidov\AppData\Local\Temp\ccS5itwd.s 			page 30


 1375 0038 201C     		mov	r0, r4
 1376 003a FFF7FEFF 		bl	Transform
 1377              	.LVL142:
 193:..\kronos-c-sdk\src\wolfSSL\wolfcrypt\src/md4.c ****         md4->buffLen = 0;
 1378              		.loc 1 193 0
 1379 003e 0023     		mov	r3, #0
 1380 0040 2360     		str	r3, [r4]
 1381              	.L16:
 194:..\kronos-c-sdk\src\wolfSSL\wolfcrypt\src/md4.c ****     }
 195:..\kronos-c-sdk\src\wolfSSL\wolfcrypt\src/md4.c ****     XMEMSET(&local[md4->buffLen], 0, MD4_PAD_SIZE - md4->buffLen);
 1382              		.loc 1 195 0
 1383 0042 2068     		ldr	r0, [r4]
 1384 0044 3822     		mov	r2, #56
 1385 0046 121A     		sub	r2, r2, r0
 1386 0048 3018     		add	r0, r6, r0
 1387 004a 0021     		mov	r1, #0
 1388 004c FFF7FEFF 		bl	memset
 1389              	.LVL143:
 196:..\kronos-c-sdk\src\wolfSSL\wolfcrypt\src/md4.c ****    
 197:..\kronos-c-sdk\src\wolfSSL\wolfcrypt\src/md4.c ****     /* put lengths in bits */
 198:..\kronos-c-sdk\src\wolfSSL\wolfcrypt\src/md4.c ****     md4->hiLen = (md4->loLen >> (8*sizeof(md4->loLen) - 3)) + 
 1390              		.loc 1 198 0
 1391 0050 6268     		ldr	r2, [r4, #4]
 1392 0052 510F     		lsr	r1, r2, #29
 199:..\kronos-c-sdk\src\wolfSSL\wolfcrypt\src/md4.c ****                  (md4->hiLen << 3);
 1393              		.loc 1 199 0
 1394 0054 A368     		ldr	r3, [r4, #8]
 1395 0056 DB00     		lsl	r3, r3, #3
 198:..\kronos-c-sdk\src\wolfSSL\wolfcrypt\src/md4.c ****                  (md4->hiLen << 3);
 1396              		.loc 1 198 0
 1397 0058 CB18     		add	r3, r1, r3
 1398 005a A360     		str	r3, [r4, #8]
 200:..\kronos-c-sdk\src\wolfSSL\wolfcrypt\src/md4.c ****     md4->loLen = md4->loLen << 3;
 1399              		.loc 1 200 0
 1400 005c D200     		lsl	r2, r2, #3
 1401 005e 6260     		str	r2, [r4, #4]
 201:..\kronos-c-sdk\src\wolfSSL\wolfcrypt\src/md4.c **** 
 202:..\kronos-c-sdk\src\wolfSSL\wolfcrypt\src/md4.c ****     /* store lengths */
 203:..\kronos-c-sdk\src\wolfSSL\wolfcrypt\src/md4.c ****     #ifdef BIG_ENDIAN_ORDER
 204:..\kronos-c-sdk\src\wolfSSL\wolfcrypt\src/md4.c ****         ByteReverseWords(md4->buffer, md4->buffer, MD4_BLOCK_SIZE);
 205:..\kronos-c-sdk\src\wolfSSL\wolfcrypt\src/md4.c ****     #endif
 206:..\kronos-c-sdk\src\wolfSSL\wolfcrypt\src/md4.c ****     /* ! length ordering dependent on digest endian type ! */
 207:..\kronos-c-sdk\src\wolfSSL\wolfcrypt\src/md4.c ****     XMEMCPY(&local[MD4_PAD_SIZE], &md4->loLen, sizeof(word32));
 1402              		.loc 1 207 0
 1403 0060 211D     		add	r1, r4, #4
 1404 0062 201C     		mov	r0, r4
 1405 0064 5430     		add	r0, r0, #84
 1406 0066 0422     		mov	r2, #4
 1407 0068 FFF7FEFF 		bl	memcpy
 1408              	.LVL144:
 208:..\kronos-c-sdk\src\wolfSSL\wolfcrypt\src/md4.c ****     XMEMCPY(&local[MD4_PAD_SIZE + sizeof(word32)], &md4->hiLen, sizeof(word32));
 1409              		.loc 1 208 0
 1410 006c 211C     		mov	r1, r4
 1411 006e 0831     		add	r1, r1, #8
 1412 0070 201C     		mov	r0, r4
 1413 0072 5830     		add	r0, r0, #88
 1414 0074 0422     		mov	r2, #4
ARM GAS  C:\Users\ddemidov\AppData\Local\Temp\ccS5itwd.s 			page 31


 1415 0076 FFF7FEFF 		bl	memcpy
 1416              	.LVL145:
 209:..\kronos-c-sdk\src\wolfSSL\wolfcrypt\src/md4.c **** 
 210:..\kronos-c-sdk\src\wolfSSL\wolfcrypt\src/md4.c ****     Transform(md4);
 1417              		.loc 1 210 0
 1418 007a 201C     		mov	r0, r4
 1419 007c FFF7FEFF 		bl	Transform
 1420              	.LVL146:
 211:..\kronos-c-sdk\src\wolfSSL\wolfcrypt\src/md4.c ****     #ifdef BIG_ENDIAN_ORDER
 212:..\kronos-c-sdk\src\wolfSSL\wolfcrypt\src/md4.c ****         ByteReverseWords(md4->digest, md4->digest, MD4_DIGEST_SIZE);
 213:..\kronos-c-sdk\src\wolfSSL\wolfcrypt\src/md4.c ****     #endif
 214:..\kronos-c-sdk\src\wolfSSL\wolfcrypt\src/md4.c ****     XMEMCPY(hash, md4->digest, MD4_DIGEST_SIZE);
 1421              		.loc 1 214 0
 1422 0080 211C     		mov	r1, r4
 1423 0082 0C31     		add	r1, r1, #12
 1424 0084 281C     		mov	r0, r5
 1425 0086 1022     		mov	r2, #16
 1426 0088 FFF7FEFF 		bl	memcpy
 1427              	.LVL147:
 215:..\kronos-c-sdk\src\wolfSSL\wolfcrypt\src/md4.c **** 
 216:..\kronos-c-sdk\src\wolfSSL\wolfcrypt\src/md4.c ****     wc_InitMd4(md4);  /* reset state */
 1428              		.loc 1 216 0
 1429 008c 201C     		mov	r0, r4
 1430 008e FFF7FEFF 		bl	wc_InitMd4
 1431              	.LVL148:
 217:..\kronos-c-sdk\src\wolfSSL\wolfcrypt\src/md4.c **** }
 1432              		.loc 1 217 0
 1433              		@ sp needed
 1434              	.LVL149:
 1435              	.LVL150:
 1436              	.LVL151:
 1437 0092 F8BD     		pop	{r3, r4, r5, r6, r7, pc}
 1438              		.cfi_endproc
 1439              	.LFE17:
 1440              		.size	wc_Md4Final, .-wc_Md4Final
 1441              		.text
 1442              	.Letext0:
 1443              		.file 3 "..\\kronos-c-sdk\\src\\wolfSSL/wolfssl/wolfcrypt/types.h"
 1444              		.file 4 "..\\kronos-c-sdk\\src\\wolfSSL/wolfssl/wolfcrypt/md4.h"