ARM GAS  C:\Users\ddemidov\AppData\Local\Temp\cclQ0vN6.s 			page 1


   1              		.cpu cortex-m0
   2              		.fpu softvfp
   3              		.eabi_attribute 20, 1
   4              		.eabi_attribute 21, 1
   5              		.eabi_attribute 23, 3
   6              		.eabi_attribute 24, 1
   7              		.eabi_attribute 25, 1
   8              		.eabi_attribute 26, 1
   9              		.eabi_attribute 30, 4
  10              		.eabi_attribute 34, 0
  11              		.eabi_attribute 18, 4
  12              		.code	16
  13              		.file	"memory.c"
  14              		.text
  15              	.Ltext0:
  16              		.cfi_sections	.debug_frame
  17              		.section	.text.wolfSSL_SetAllocators,"ax",%progbits
  18              		.align	1
  19              		.global	wolfSSL_SetAllocators
  20              		.code	16
  21              		.thumb_func
  22              		.type	wolfSSL_SetAllocators, %function
  23              	wolfSSL_SetAllocators:
  24              	.LFB0:
  25              		.file 1 "..\\acn-sdk-c\\src\\wolfSSL\\wolfcrypt\\src\\memory.c"
   1:..\acn-sdk-c\src\wolfSSL\wolfcrypt\src/memory.c **** /* memory.c
   2:..\acn-sdk-c\src\wolfSSL\wolfcrypt\src/memory.c ****  *
   3:..\acn-sdk-c\src\wolfSSL\wolfcrypt\src/memory.c ****  * Copyright (C) 2006-2016 wolfSSL Inc.
   4:..\acn-sdk-c\src\wolfSSL\wolfcrypt\src/memory.c ****  *
   5:..\acn-sdk-c\src\wolfSSL\wolfcrypt\src/memory.c ****  * This file is part of wolfSSL.
   6:..\acn-sdk-c\src\wolfSSL\wolfcrypt\src/memory.c ****  *
   7:..\acn-sdk-c\src\wolfSSL\wolfcrypt\src/memory.c ****  * wolfSSL is free software; you can redistribute it and/or modify
   8:..\acn-sdk-c\src\wolfSSL\wolfcrypt\src/memory.c ****  * it under the terms of the GNU General Public License as published by
   9:..\acn-sdk-c\src\wolfSSL\wolfcrypt\src/memory.c ****  * the Free Software Foundation; either version 2 of the License, or
  10:..\acn-sdk-c\src\wolfSSL\wolfcrypt\src/memory.c ****  * (at your option) any later version.
  11:..\acn-sdk-c\src\wolfSSL\wolfcrypt\src/memory.c ****  *
  12:..\acn-sdk-c\src\wolfSSL\wolfcrypt\src/memory.c ****  * wolfSSL is distributed in the hope that it will be useful,
  13:..\acn-sdk-c\src\wolfSSL\wolfcrypt\src/memory.c ****  * but WITHOUT ANY WARRANTY; without even the implied warranty of
  14:..\acn-sdk-c\src\wolfSSL\wolfcrypt\src/memory.c ****  * MERCHANTABILITY or FITNESS FOR A PARTICULAR PURPOSE.  See the
  15:..\acn-sdk-c\src\wolfSSL\wolfcrypt\src/memory.c ****  * GNU General Public License for more details.
  16:..\acn-sdk-c\src\wolfSSL\wolfcrypt\src/memory.c ****  *
  17:..\acn-sdk-c\src\wolfSSL\wolfcrypt\src/memory.c ****  * You should have received a copy of the GNU General Public License
  18:..\acn-sdk-c\src\wolfSSL\wolfcrypt\src/memory.c ****  * along with this program; if not, write to the Free Software
  19:..\acn-sdk-c\src\wolfSSL\wolfcrypt\src/memory.c ****  * Foundation, Inc., 51 Franklin Street, Fifth Floor, Boston, MA 02110-1335, USA
  20:..\acn-sdk-c\src\wolfSSL\wolfcrypt\src/memory.c ****  */
  21:..\acn-sdk-c\src\wolfSSL\wolfcrypt\src/memory.c **** 
  22:..\acn-sdk-c\src\wolfSSL\wolfcrypt\src/memory.c **** 
  23:..\acn-sdk-c\src\wolfSSL\wolfcrypt\src/memory.c **** #ifdef HAVE_CONFIG_H
  24:..\acn-sdk-c\src\wolfSSL\wolfcrypt\src/memory.c ****     #include <config.h>
  25:..\acn-sdk-c\src\wolfSSL\wolfcrypt\src/memory.c **** #endif
  26:..\acn-sdk-c\src\wolfSSL\wolfcrypt\src/memory.c **** 
  27:..\acn-sdk-c\src\wolfSSL\wolfcrypt\src/memory.c **** #include <wolfssl/wolfcrypt/settings.h>
  28:..\acn-sdk-c\src\wolfSSL\wolfcrypt\src/memory.c **** 
  29:..\acn-sdk-c\src\wolfSSL\wolfcrypt\src/memory.c **** /* check old macros @wc_fips */
  30:..\acn-sdk-c\src\wolfSSL\wolfcrypt\src/memory.c **** #if defined(USE_CYASSL_MEMORY) && !defined(USE_WOLFSSL_MEMORY)
  31:..\acn-sdk-c\src\wolfSSL\wolfcrypt\src/memory.c ****     #define USE_WOLFSSL_MEMORY
  32:..\acn-sdk-c\src\wolfSSL\wolfcrypt\src/memory.c **** #endif
ARM GAS  C:\Users\ddemidov\AppData\Local\Temp\cclQ0vN6.s 			page 2


  33:..\acn-sdk-c\src\wolfSSL\wolfcrypt\src/memory.c **** #if defined(CYASSL_MALLOC_CHECK) && !defined(WOLFSSL_MALLOC_CHECK)
  34:..\acn-sdk-c\src\wolfSSL\wolfcrypt\src/memory.c ****     #define WOLFSSL_MALLOC_CHECK
  35:..\acn-sdk-c\src\wolfSSL\wolfcrypt\src/memory.c **** #endif
  36:..\acn-sdk-c\src\wolfSSL\wolfcrypt\src/memory.c **** 
  37:..\acn-sdk-c\src\wolfSSL\wolfcrypt\src/memory.c **** #ifdef USE_WOLFSSL_MEMORY
  38:..\acn-sdk-c\src\wolfSSL\wolfcrypt\src/memory.c **** 
  39:..\acn-sdk-c\src\wolfSSL\wolfcrypt\src/memory.c **** #include <wolfssl/wolfcrypt/memory.h>
  40:..\acn-sdk-c\src\wolfSSL\wolfcrypt\src/memory.c **** #include <wolfssl/wolfcrypt/error-crypt.h>
  41:..\acn-sdk-c\src\wolfSSL\wolfcrypt\src/memory.c **** 
  42:..\acn-sdk-c\src\wolfSSL\wolfcrypt\src/memory.c **** #ifdef WOLFSSL_MALLOC_CHECK
  43:..\acn-sdk-c\src\wolfSSL\wolfcrypt\src/memory.c ****     #include <stdio.h>
  44:..\acn-sdk-c\src\wolfSSL\wolfcrypt\src/memory.c **** #endif
  45:..\acn-sdk-c\src\wolfSSL\wolfcrypt\src/memory.c **** 
  46:..\acn-sdk-c\src\wolfSSL\wolfcrypt\src/memory.c **** /* Set these to default values initially. */
  47:..\acn-sdk-c\src\wolfSSL\wolfcrypt\src/memory.c **** static wolfSSL_Malloc_cb  malloc_function = 0;
  48:..\acn-sdk-c\src\wolfSSL\wolfcrypt\src/memory.c **** static wolfSSL_Free_cb    free_function = 0;
  49:..\acn-sdk-c\src\wolfSSL\wolfcrypt\src/memory.c **** static wolfSSL_Realloc_cb realloc_function = 0;
  50:..\acn-sdk-c\src\wolfSSL\wolfcrypt\src/memory.c **** 
  51:..\acn-sdk-c\src\wolfSSL\wolfcrypt\src/memory.c **** int wolfSSL_SetAllocators(wolfSSL_Malloc_cb  mf,
  52:..\acn-sdk-c\src\wolfSSL\wolfcrypt\src/memory.c ****                           wolfSSL_Free_cb    ff,
  53:..\acn-sdk-c\src\wolfSSL\wolfcrypt\src/memory.c ****                           wolfSSL_Realloc_cb rf)
  54:..\acn-sdk-c\src\wolfSSL\wolfcrypt\src/memory.c **** {
  26              		.loc 1 54 0
  27              		.cfi_startproc
  28              	.LVL0:
  55:..\acn-sdk-c\src\wolfSSL\wolfcrypt\src/memory.c ****     int res = 0;
  56:..\acn-sdk-c\src\wolfSSL\wolfcrypt\src/memory.c **** 
  57:..\acn-sdk-c\src\wolfSSL\wolfcrypt\src/memory.c ****     if (mf)
  29              		.loc 1 57 0
  30 0000 0028     		cmp	r0, #0
  31 0002 03D0     		beq	.L5
  58:..\acn-sdk-c\src\wolfSSL\wolfcrypt\src/memory.c ****         malloc_function = mf;
  32              		.loc 1 58 0
  33 0004 0A4B     		ldr	r3, .L9
  34 0006 1860     		str	r0, [r3]
  55:..\acn-sdk-c\src\wolfSSL\wolfcrypt\src/memory.c ****     int res = 0;
  35              		.loc 1 55 0
  36 0008 0020     		mov	r0, #0
  37              	.LVL1:
  38 000a 01E0     		b	.L2
  39              	.LVL2:
  40              	.L5:
  59:..\acn-sdk-c\src\wolfSSL\wolfcrypt\src/memory.c ****     else
  60:..\acn-sdk-c\src\wolfSSL\wolfcrypt\src/memory.c ****         res = BAD_FUNC_ARG;
  41              		.loc 1 60 0
  42 000c AD20     		mov	r0, #173
  43              	.LVL3:
  44 000e 4042     		neg	r0, r0
  45              	.L2:
  46              	.LVL4:
  61:..\acn-sdk-c\src\wolfSSL\wolfcrypt\src/memory.c **** 
  62:..\acn-sdk-c\src\wolfSSL\wolfcrypt\src/memory.c ****     if (ff)
  47              		.loc 1 62 0
  48 0010 0029     		cmp	r1, #0
  49 0012 02D0     		beq	.L6
  63:..\acn-sdk-c\src\wolfSSL\wolfcrypt\src/memory.c ****         free_function = ff;
  50              		.loc 1 63 0
ARM GAS  C:\Users\ddemidov\AppData\Local\Temp\cclQ0vN6.s 			page 3


  51 0014 064B     		ldr	r3, .L9
  52 0016 5960     		str	r1, [r3, #4]
  53 0018 01E0     		b	.L3
  54              	.L6:
  64:..\acn-sdk-c\src\wolfSSL\wolfcrypt\src/memory.c ****     else
  65:..\acn-sdk-c\src\wolfSSL\wolfcrypt\src/memory.c ****         res = BAD_FUNC_ARG;
  55              		.loc 1 65 0
  56 001a AD20     		mov	r0, #173
  57              	.LVL5:
  58 001c 4042     		neg	r0, r0
  59              	.L3:
  60              	.LVL6:
  66:..\acn-sdk-c\src\wolfSSL\wolfcrypt\src/memory.c **** 
  67:..\acn-sdk-c\src\wolfSSL\wolfcrypt\src/memory.c ****     if (rf)
  61              		.loc 1 67 0
  62 001e 002A     		cmp	r2, #0
  63 0020 02D0     		beq	.L7
  68:..\acn-sdk-c\src\wolfSSL\wolfcrypt\src/memory.c ****         realloc_function = rf;
  64              		.loc 1 68 0
  65 0022 034B     		ldr	r3, .L9
  66 0024 9A60     		str	r2, [r3, #8]
  67 0026 01E0     		b	.L4
  68              	.L7:
  69:..\acn-sdk-c\src\wolfSSL\wolfcrypt\src/memory.c ****     else
  70:..\acn-sdk-c\src\wolfSSL\wolfcrypt\src/memory.c ****         res = BAD_FUNC_ARG;
  69              		.loc 1 70 0
  70 0028 AD20     		mov	r0, #173
  71              	.LVL7:
  72 002a 4042     		neg	r0, r0
  73              	.L4:
  74              	.LVL8:
  71:..\acn-sdk-c\src\wolfSSL\wolfcrypt\src/memory.c **** 
  72:..\acn-sdk-c\src\wolfSSL\wolfcrypt\src/memory.c ****     return res;
  73:..\acn-sdk-c\src\wolfSSL\wolfcrypt\src/memory.c **** }
  75              		.loc 1 73 0
  76              		@ sp needed
  77 002c 7047     		bx	lr
  78              	.L10:
  79 002e C046     		.align	2
  80              	.L9:
  81 0030 00000000 		.word	.LANCHOR0
  82              		.cfi_endproc
  83              	.LFE0:
  84              		.size	wolfSSL_SetAllocators, .-wolfSSL_SetAllocators
  85              		.section	.text.wolfSSL_Malloc,"ax",%progbits
  86              		.align	1
  87              		.global	wolfSSL_Malloc
  88              		.code	16
  89              		.thumb_func
  90              		.type	wolfSSL_Malloc, %function
  91              	wolfSSL_Malloc:
  92              	.LFB1:
  74:..\acn-sdk-c\src\wolfSSL\wolfcrypt\src/memory.c **** 
  75:..\acn-sdk-c\src\wolfSSL\wolfcrypt\src/memory.c **** 
  76:..\acn-sdk-c\src\wolfSSL\wolfcrypt\src/memory.c **** void* wolfSSL_Malloc(size_t size)
  77:..\acn-sdk-c\src\wolfSSL\wolfcrypt\src/memory.c **** {
  93              		.loc 1 77 0
ARM GAS  C:\Users\ddemidov\AppData\Local\Temp\cclQ0vN6.s 			page 4


  94              		.cfi_startproc
  95              	.LVL9:
  96 0000 08B5     		push	{r3, lr}
  97              		.cfi_def_cfa_offset 8
  98              		.cfi_offset 3, -8
  99              		.cfi_offset 14, -4
  78:..\acn-sdk-c\src\wolfSSL\wolfcrypt\src/memory.c ****     void* res = 0;
  79:..\acn-sdk-c\src\wolfSSL\wolfcrypt\src/memory.c **** 
  80:..\acn-sdk-c\src\wolfSSL\wolfcrypt\src/memory.c ****     if (malloc_function)
 100              		.loc 1 80 0
 101 0002 044B     		ldr	r3, .L14
 102 0004 1B68     		ldr	r3, [r3]
 103 0006 002B     		cmp	r3, #0
 104 0008 01D0     		beq	.L12
  81:..\acn-sdk-c\src\wolfSSL\wolfcrypt\src/memory.c ****         res = malloc_function(size);
 105              		.loc 1 81 0
 106 000a 9847     		blx	r3
 107              	.LVL10:
 108 000c 01E0     		b	.L13
 109              	.LVL11:
 110              	.L12:
  82:..\acn-sdk-c\src\wolfSSL\wolfcrypt\src/memory.c ****     else
  83:..\acn-sdk-c\src\wolfSSL\wolfcrypt\src/memory.c ****         res = malloc(size);
 111              		.loc 1 83 0
 112 000e FFF7FEFF 		bl	malloc
 113              	.LVL12:
 114              	.L13:
  84:..\acn-sdk-c\src\wolfSSL\wolfcrypt\src/memory.c **** 
  85:..\acn-sdk-c\src\wolfSSL\wolfcrypt\src/memory.c ****     #ifdef WOLFSSL_MALLOC_CHECK
  86:..\acn-sdk-c\src\wolfSSL\wolfcrypt\src/memory.c ****         if (res == NULL)
  87:..\acn-sdk-c\src\wolfSSL\wolfcrypt\src/memory.c ****             puts("wolfSSL_malloc failed");
  88:..\acn-sdk-c\src\wolfSSL\wolfcrypt\src/memory.c ****     #endif
  89:..\acn-sdk-c\src\wolfSSL\wolfcrypt\src/memory.c ****                 
  90:..\acn-sdk-c\src\wolfSSL\wolfcrypt\src/memory.c ****     return res;
  91:..\acn-sdk-c\src\wolfSSL\wolfcrypt\src/memory.c **** }
 115              		.loc 1 91 0
 116              		@ sp needed
 117 0012 08BD     		pop	{r3, pc}
 118              	.L15:
 119              		.align	2
 120              	.L14:
 121 0014 00000000 		.word	.LANCHOR0
 122              		.cfi_endproc
 123              	.LFE1:
 124              		.size	wolfSSL_Malloc, .-wolfSSL_Malloc
 125              		.section	.text.wolfSSL_Free,"ax",%progbits
 126              		.align	1
 127              		.global	wolfSSL_Free
 128              		.code	16
 129              		.thumb_func
 130              		.type	wolfSSL_Free, %function
 131              	wolfSSL_Free:
 132              	.LFB2:
  92:..\acn-sdk-c\src\wolfSSL\wolfcrypt\src/memory.c **** 
  93:..\acn-sdk-c\src\wolfSSL\wolfcrypt\src/memory.c **** void wolfSSL_Free(void *ptr)
  94:..\acn-sdk-c\src\wolfSSL\wolfcrypt\src/memory.c **** {
 133              		.loc 1 94 0
ARM GAS  C:\Users\ddemidov\AppData\Local\Temp\cclQ0vN6.s 			page 5


 134              		.cfi_startproc
 135              	.LVL13:
 136 0000 08B5     		push	{r3, lr}
 137              		.cfi_def_cfa_offset 8
 138              		.cfi_offset 3, -8
 139              		.cfi_offset 14, -4
  95:..\acn-sdk-c\src\wolfSSL\wolfcrypt\src/memory.c ****     if (free_function)
 140              		.loc 1 95 0
 141 0002 044B     		ldr	r3, .L19
 142 0004 5B68     		ldr	r3, [r3, #4]
 143 0006 002B     		cmp	r3, #0
 144 0008 01D0     		beq	.L17
  96:..\acn-sdk-c\src\wolfSSL\wolfcrypt\src/memory.c ****         free_function(ptr);
 145              		.loc 1 96 0
 146 000a 9847     		blx	r3
 147              	.LVL14:
 148 000c 01E0     		b	.L16
 149              	.LVL15:
 150              	.L17:
  97:..\acn-sdk-c\src\wolfSSL\wolfcrypt\src/memory.c ****     else
  98:..\acn-sdk-c\src\wolfSSL\wolfcrypt\src/memory.c ****         free(ptr);
 151              		.loc 1 98 0
 152 000e FFF7FEFF 		bl	free
 153              	.LVL16:
 154              	.L16:
  99:..\acn-sdk-c\src\wolfSSL\wolfcrypt\src/memory.c **** }
 155              		.loc 1 99 0
 156              		@ sp needed
 157 0012 08BD     		pop	{r3, pc}
 158              	.L20:
 159              		.align	2
 160              	.L19:
 161 0014 00000000 		.word	.LANCHOR0
 162              		.cfi_endproc
 163              	.LFE2:
 164              		.size	wolfSSL_Free, .-wolfSSL_Free
 165              		.section	.text.wolfSSL_Realloc,"ax",%progbits
 166              		.align	1
 167              		.global	wolfSSL_Realloc
 168              		.code	16
 169              		.thumb_func
 170              		.type	wolfSSL_Realloc, %function
 171              	wolfSSL_Realloc:
 172              	.LFB3:
 100:..\acn-sdk-c\src\wolfSSL\wolfcrypt\src/memory.c **** 
 101:..\acn-sdk-c\src\wolfSSL\wolfcrypt\src/memory.c **** void* wolfSSL_Realloc(void *ptr, size_t size)
 102:..\acn-sdk-c\src\wolfSSL\wolfcrypt\src/memory.c **** {
 173              		.loc 1 102 0
 174              		.cfi_startproc
 175              	.LVL17:
 176 0000 08B5     		push	{r3, lr}
 177              		.cfi_def_cfa_offset 8
 178              		.cfi_offset 3, -8
 179              		.cfi_offset 14, -4
 103:..\acn-sdk-c\src\wolfSSL\wolfcrypt\src/memory.c ****     void* res = 0;
 104:..\acn-sdk-c\src\wolfSSL\wolfcrypt\src/memory.c **** 
 105:..\acn-sdk-c\src\wolfSSL\wolfcrypt\src/memory.c ****     if (realloc_function)
ARM GAS  C:\Users\ddemidov\AppData\Local\Temp\cclQ0vN6.s 			page 6


 180              		.loc 1 105 0
 181 0002 044B     		ldr	r3, .L24
 182 0004 9B68     		ldr	r3, [r3, #8]
 183 0006 002B     		cmp	r3, #0
 184 0008 01D0     		beq	.L22
 106:..\acn-sdk-c\src\wolfSSL\wolfcrypt\src/memory.c ****         res = realloc_function(ptr, size);
 185              		.loc 1 106 0
 186 000a 9847     		blx	r3
 187              	.LVL18:
 188 000c 01E0     		b	.L23
 189              	.LVL19:
 190              	.L22:
 107:..\acn-sdk-c\src\wolfSSL\wolfcrypt\src/memory.c ****     else
 108:..\acn-sdk-c\src\wolfSSL\wolfcrypt\src/memory.c ****         res = realloc(ptr, size);
 191              		.loc 1 108 0
 192 000e FFF7FEFF 		bl	realloc
 193              	.LVL20:
 194              	.L23:
 109:..\acn-sdk-c\src\wolfSSL\wolfcrypt\src/memory.c **** 
 110:..\acn-sdk-c\src\wolfSSL\wolfcrypt\src/memory.c ****     return res;
 111:..\acn-sdk-c\src\wolfSSL\wolfcrypt\src/memory.c **** }
 195              		.loc 1 111 0
 196              		@ sp needed
 197 0012 08BD     		pop	{r3, pc}
 198              	.L25:
 199              		.align	2
 200              	.L24:
 201 0014 00000000 		.word	.LANCHOR0
 202              		.cfi_endproc
 203              	.LFE3:
 204              		.size	wolfSSL_Realloc, .-wolfSSL_Realloc
 205              		.bss
 206              		.align	2
 207              		.set	.LANCHOR0,. + 0
 208              		.type	malloc_function, %object
 209              		.size	malloc_function, 4
 210              	malloc_function:
 211 0000 00000000 		.space	4
 212              		.type	free_function, %object
 213              		.size	free_function, 4
 214              	free_function:
 215 0004 00000000 		.space	4
 216              		.type	realloc_function, %object
 217              		.size	realloc_function, 4
 218              	realloc_function:
 219 0008 00000000 		.space	4
 220              		.text
 221              	.Letext0:
 222              		.file 2 "c:\\program files (x86)\\cypress\\psoc creator\\3.3\\psoc creator\\import\\gnu\\arm\\4.9.
 223              		.file 3 "..\\acn-sdk-c\\src\\wolfSSL/wolfssl/wolfcrypt/memory.h"
 224              		.file 4 "c:\\program files (x86)\\cypress\\psoc creator\\3.3\\psoc creator\\import\\gnu\\arm\\4.9.
 225              		.file 5 "..\\acn-sdk-c\\src\\wolfSSL/wolfssl/wolfcrypt/error-crypt.h"