ARM GAS  C:\Users\ddemidov\AppData\Local\Temp\ccqTEzLh.s 			page 1


   1              		.cpu cortex-m0
   2              		.fpu softvfp
   3              		.eabi_attribute 20, 1
   4              		.eabi_attribute 21, 1
   5              		.eabi_attribute 23, 3
   6              		.eabi_attribute 24, 1
   7              		.eabi_attribute 25, 1
   8              		.eabi_attribute 26, 1
   9              		.eabi_attribute 30, 4
  10              		.eabi_attribute 34, 0
  11              		.eabi_attribute 18, 4
  12              		.code	16
  13              		.file	"MQTTConnectClient.c"
  14              		.text
  15              	.Ltext0:
  16              		.cfi_sections	.debug_frame
  17              		.section	.text.MQTTSerialize_connectLength,"ax",%progbits
  18              		.align	1
  19              		.global	MQTTSerialize_connectLength
  20              		.code	16
  21              		.thumb_func
  22              		.type	MQTTSerialize_connectLength, %function
  23              	MQTTSerialize_connectLength:
  24              	.LFB0:
  25              		.file 1 "..\\acn-sdk-c\\src\\mqtt\\packet\\src\\MQTTConnectClient.c"
   1:..\acn-sdk-c\src\mqtt\packet\src/MQTTConnectClient.c **** /*******************************************************************************
   2:..\acn-sdk-c\src\mqtt\packet\src/MQTTConnectClient.c ****  * Copyright (c) 2014 IBM Corp.
   3:..\acn-sdk-c\src\mqtt\packet\src/MQTTConnectClient.c ****  *
   4:..\acn-sdk-c\src\mqtt\packet\src/MQTTConnectClient.c ****  * All rights reserved. This program and the accompanying materials
   5:..\acn-sdk-c\src\mqtt\packet\src/MQTTConnectClient.c ****  * are made available under the terms of the Eclipse Public License v1.0
   6:..\acn-sdk-c\src\mqtt\packet\src/MQTTConnectClient.c ****  * and Eclipse Distribution License v1.0 which accompany this distribution.
   7:..\acn-sdk-c\src\mqtt\packet\src/MQTTConnectClient.c ****  *
   8:..\acn-sdk-c\src\mqtt\packet\src/MQTTConnectClient.c ****  * The Eclipse Public License is available at
   9:..\acn-sdk-c\src\mqtt\packet\src/MQTTConnectClient.c ****  *    http://www.eclipse.org/legal/epl-v10.html
  10:..\acn-sdk-c\src\mqtt\packet\src/MQTTConnectClient.c ****  * and the Eclipse Distribution License is available at
  11:..\acn-sdk-c\src\mqtt\packet\src/MQTTConnectClient.c ****  *   http://www.eclipse.org/org/documents/edl-v10.php.
  12:..\acn-sdk-c\src\mqtt\packet\src/MQTTConnectClient.c ****  *
  13:..\acn-sdk-c\src\mqtt\packet\src/MQTTConnectClient.c ****  * Contributors:
  14:..\acn-sdk-c\src\mqtt\packet\src/MQTTConnectClient.c ****  *    Ian Craggs - initial API and implementation and/or initial documentation
  15:..\acn-sdk-c\src\mqtt\packet\src/MQTTConnectClient.c ****  *******************************************************************************/
  16:..\acn-sdk-c\src\mqtt\packet\src/MQTTConnectClient.c **** 
  17:..\acn-sdk-c\src\mqtt\packet\src/MQTTConnectClient.c **** #include "mqtt/packet/MQTTConnect.h"
  18:..\acn-sdk-c\src\mqtt\packet\src/MQTTConnectClient.c **** #include "mqtt/packet/StackTrace.h"
  19:..\acn-sdk-c\src\mqtt\packet\src/MQTTConnectClient.c **** #include <string.h>
  20:..\acn-sdk-c\src\mqtt\packet\src/MQTTConnectClient.c **** 
  21:..\acn-sdk-c\src\mqtt\packet\src/MQTTConnectClient.c **** /**
  22:..\acn-sdk-c\src\mqtt\packet\src/MQTTConnectClient.c ****   * Determines the length of the MQTT connect packet that would be produced using the supplied conn
  23:..\acn-sdk-c\src\mqtt\packet\src/MQTTConnectClient.c ****   * @param options the options to be used to build the connect packet
  24:..\acn-sdk-c\src\mqtt\packet\src/MQTTConnectClient.c ****   * @return the length of buffer needed to contain the serialized version of the packet
  25:..\acn-sdk-c\src\mqtt\packet\src/MQTTConnectClient.c ****   */
  26:..\acn-sdk-c\src\mqtt\packet\src/MQTTConnectClient.c **** int MQTTSerialize_connectLength(MQTTPacket_connectData* options)
  27:..\acn-sdk-c\src\mqtt\packet\src/MQTTConnectClient.c **** {
  26              		.loc 1 27 0
  27              		.cfi_startproc
  28              	.LVL0:
  29 0000 70B5     		push	{r4, r5, r6, lr}
  30              		.cfi_def_cfa_offset 16
ARM GAS  C:\Users\ddemidov\AppData\Local\Temp\ccqTEzLh.s 			page 2


  31              		.cfi_offset 4, -16
  32              		.cfi_offset 5, -12
  33              		.cfi_offset 6, -8
  34              		.cfi_offset 14, -4
  28:..\acn-sdk-c\src\mqtt\packet\src/MQTTConnectClient.c **** 	int len = 0;
  29:..\acn-sdk-c\src\mqtt\packet\src/MQTTConnectClient.c **** 
  30:..\acn-sdk-c\src\mqtt\packet\src/MQTTConnectClient.c **** 	FUNC_ENTRY;
  31:..\acn-sdk-c\src\mqtt\packet\src/MQTTConnectClient.c **** 
  32:..\acn-sdk-c\src\mqtt\packet\src/MQTTConnectClient.c **** 	if (options->MQTTVersion == 3)
  35              		.loc 1 32 0
  36 0002 037A     		ldrb	r3, [r0, #8]
  27:..\acn-sdk-c\src\mqtt\packet\src/MQTTConnectClient.c **** 	int len = 0;
  37              		.loc 1 27 0
  38 0004 041C     		mov	r4, r0
  33:..\acn-sdk-c\src\mqtt\packet\src/MQTTConnectClient.c **** 		len = 12; /* variable depending on MQTT or MQIsdp */
  39              		.loc 1 33 0
  40 0006 0C25     		mov	r5, #12
  32:..\acn-sdk-c\src\mqtt\packet\src/MQTTConnectClient.c **** 		len = 12; /* variable depending on MQTT or MQIsdp */
  41              		.loc 1 32 0
  42 0008 032B     		cmp	r3, #3
  43 000a 03D0     		beq	.L2
  28:..\acn-sdk-c\src\mqtt\packet\src/MQTTConnectClient.c **** 
  44              		.loc 1 28 0
  45 000c 0025     		mov	r5, #0
  34:..\acn-sdk-c\src\mqtt\packet\src/MQTTConnectClient.c **** 	else if (options->MQTTVersion == 4)
  46              		.loc 1 34 0
  47 000e 042B     		cmp	r3, #4
  48 0010 00D1     		bne	.L2
  35:..\acn-sdk-c\src\mqtt\packet\src/MQTTConnectClient.c **** 		len = 10;
  49              		.loc 1 35 0
  50 0012 0A35     		add	r5, r5, #10
  51              	.L2:
  52              	.LVL1:
  36:..\acn-sdk-c\src\mqtt\packet\src/MQTTConnectClient.c **** 
  37:..\acn-sdk-c\src\mqtt\packet\src/MQTTConnectClient.c **** 	len += MQTTstrlen(options->clientID)+2;
  53              		.loc 1 37 0
  54 0014 E068     		ldr	r0, [r4, #12]
  55              	.LVL2:
  56 0016 2169     		ldr	r1, [r4, #16]
  57 0018 6269     		ldr	r2, [r4, #20]
  58 001a FFF7FEFF 		bl	MQTTstrlen
  59              	.LVL3:
  38:..\acn-sdk-c\src\mqtt\packet\src/MQTTConnectClient.c **** 	if (options->willFlag)
  60              		.loc 1 38 0
  61 001e E37E     		ldrb	r3, [r4, #27]
  37:..\acn-sdk-c\src\mqtt\packet\src/MQTTConnectClient.c **** 	if (options->willFlag)
  62              		.loc 1 37 0
  63 0020 0230     		add	r0, r0, #2
  64 0022 2D18     		add	r5, r5, r0
  65              	.LVL4:
  66              		.loc 1 38 0
  67 0024 002B     		cmp	r3, #0
  68 0026 0DD0     		beq	.L3
  39:..\acn-sdk-c\src\mqtt\packet\src/MQTTConnectClient.c **** 		len += MQTTstrlen(options->will.topicName)+2 + MQTTstrlen(options->will.message)+2;
  69              		.loc 1 39 0
  70 0028 A16A     		ldr	r1, [r4, #40]
  71 002a E26A     		ldr	r2, [r4, #44]
ARM GAS  C:\Users\ddemidov\AppData\Local\Temp\ccqTEzLh.s 			page 3


  72 002c 606A     		ldr	r0, [r4, #36]
  73 002e FFF7FEFF 		bl	MQTTstrlen
  74              	.LVL5:
  75 0032 616B     		ldr	r1, [r4, #52]
  76 0034 061C     		mov	r6, r0
  77 0036 A26B     		ldr	r2, [r4, #56]
  78 0038 206B     		ldr	r0, [r4, #48]
  79 003a FFF7FEFF 		bl	MQTTstrlen
  80              	.LVL6:
  81 003e 3018     		add	r0, r6, r0
  82 0040 0430     		add	r0, r0, #4
  83 0042 2D18     		add	r5, r5, r0
  84              	.LVL7:
  85              	.L3:
  40:..\acn-sdk-c\src\mqtt\packet\src/MQTTConnectClient.c **** 	if (options->username.cstring || options->username.lenstring.data)
  86              		.loc 1 40 0
  87 0044 236C     		ldr	r3, [r4, #64]
  88 0046 002B     		cmp	r3, #0
  89 0048 02D1     		bne	.L4
  90              		.loc 1 40 0 is_stmt 0 discriminator 1
  91 004a A36C     		ldr	r3, [r4, #72]
  92 004c 002B     		cmp	r3, #0
  93 004e 06D0     		beq	.L5
  94              	.L4:
  41:..\acn-sdk-c\src\mqtt\packet\src/MQTTConnectClient.c **** 		len += MQTTstrlen(options->username)+2;
  95              		.loc 1 41 0 is_stmt 1
  96 0050 206C     		ldr	r0, [r4, #64]
  97 0052 616C     		ldr	r1, [r4, #68]
  98 0054 A26C     		ldr	r2, [r4, #72]
  99 0056 FFF7FEFF 		bl	MQTTstrlen
 100              	.LVL8:
 101 005a 0230     		add	r0, r0, #2
 102 005c 2D18     		add	r5, r5, r0
 103              	.LVL9:
 104              	.L5:
  42:..\acn-sdk-c\src\mqtt\packet\src/MQTTConnectClient.c **** 	if (options->password.cstring || options->password.lenstring.data)
 105              		.loc 1 42 0
 106 005e E36C     		ldr	r3, [r4, #76]
 107 0060 002B     		cmp	r3, #0
 108 0062 02D1     		bne	.L6
 109              		.loc 1 42 0 is_stmt 0 discriminator 1
 110 0064 636D     		ldr	r3, [r4, #84]
 111 0066 002B     		cmp	r3, #0
 112 0068 05D0     		beq	.L7
 113              	.L6:
  43:..\acn-sdk-c\src\mqtt\packet\src/MQTTConnectClient.c **** 		len += MQTTstrlen(options->password)+2;
 114              		.loc 1 43 0 is_stmt 1
 115 006a 4C34     		add	r4, r4, #76
 116              	.LVL10:
 117 006c 07CC     		ldmia	r4!, {r0, r1, r2}
 118              	.LVL11:
 119 006e FFF7FEFF 		bl	MQTTstrlen
 120              	.LVL12:
 121 0072 0230     		add	r0, r0, #2
 122 0074 2D18     		add	r5, r5, r0
 123              	.LVL13:
 124              	.L7:
ARM GAS  C:\Users\ddemidov\AppData\Local\Temp\ccqTEzLh.s 			page 4


  44:..\acn-sdk-c\src\mqtt\packet\src/MQTTConnectClient.c **** 
  45:..\acn-sdk-c\src\mqtt\packet\src/MQTTConnectClient.c **** 	FUNC_EXIT_RC(len);
  46:..\acn-sdk-c\src\mqtt\packet\src/MQTTConnectClient.c **** 	return len;
  47:..\acn-sdk-c\src\mqtt\packet\src/MQTTConnectClient.c **** }
 125              		.loc 1 47 0
 126 0076 281C     		mov	r0, r5
 127              		@ sp needed
 128              	.LVL14:
 129 0078 70BD     		pop	{r4, r5, r6, pc}
 130              		.cfi_endproc
 131              	.LFE0:
 132              		.size	MQTTSerialize_connectLength, .-MQTTSerialize_connectLength
 133              		.section	.text.MQTTSerialize_connect,"ax",%progbits
 134              		.align	1
 135              		.global	MQTTSerialize_connect
 136              		.code	16
 137              		.thumb_func
 138              		.type	MQTTSerialize_connect, %function
 139              	MQTTSerialize_connect:
 140              	.LFB1:
  48:..\acn-sdk-c\src\mqtt\packet\src/MQTTConnectClient.c **** 
  49:..\acn-sdk-c\src\mqtt\packet\src/MQTTConnectClient.c **** 
  50:..\acn-sdk-c\src\mqtt\packet\src/MQTTConnectClient.c **** /**
  51:..\acn-sdk-c\src\mqtt\packet\src/MQTTConnectClient.c ****   * Serializes the connect options into the buffer.
  52:..\acn-sdk-c\src\mqtt\packet\src/MQTTConnectClient.c ****   * @param buf the buffer into which the packet will be serialized
  53:..\acn-sdk-c\src\mqtt\packet\src/MQTTConnectClient.c ****   * @param len the length in bytes of the supplied buffer
  54:..\acn-sdk-c\src\mqtt\packet\src/MQTTConnectClient.c ****   * @param options the options to be used to build the connect packet
  55:..\acn-sdk-c\src\mqtt\packet\src/MQTTConnectClient.c ****   * @return serialized length, or error if 0
  56:..\acn-sdk-c\src\mqtt\packet\src/MQTTConnectClient.c ****   */
  57:..\acn-sdk-c\src\mqtt\packet\src/MQTTConnectClient.c **** int MQTTSerialize_connect(unsigned char* buf, int buflen, MQTTPacket_connectData* options)
  58:..\acn-sdk-c\src\mqtt\packet\src/MQTTConnectClient.c **** {
 141              		.loc 1 58 0
 142              		.cfi_startproc
 143              	.LVL15:
 144 0000 F7B5     		push	{r0, r1, r2, r4, r5, r6, r7, lr}
 145              		.cfi_def_cfa_offset 32
 146              		.cfi_offset 0, -32
 147              		.cfi_offset 1, -28
 148              		.cfi_offset 2, -24
 149              		.cfi_offset 4, -20
 150              		.cfi_offset 5, -16
 151              		.cfi_offset 6, -12
 152              		.cfi_offset 7, -8
 153              		.cfi_offset 14, -4
 154              		.loc 1 58 0
 155 0002 051C     		mov	r5, r0
  59:..\acn-sdk-c\src\mqtt\packet\src/MQTTConnectClient.c **** 	unsigned char *ptr = buf;
 156              		.loc 1 59 0
 157 0004 0190     		str	r0, [sp, #4]
 158              	.LVL16:
  60:..\acn-sdk-c\src\mqtt\packet\src/MQTTConnectClient.c **** 	MQTTHeader header = {0};
  61:..\acn-sdk-c\src\mqtt\packet\src/MQTTConnectClient.c **** 	MQTTConnectFlags flags = {0};
  62:..\acn-sdk-c\src\mqtt\packet\src/MQTTConnectClient.c **** 	int len = 0;
  63:..\acn-sdk-c\src\mqtt\packet\src/MQTTConnectClient.c **** 	int rc = -1;
  64:..\acn-sdk-c\src\mqtt\packet\src/MQTTConnectClient.c **** 
  65:..\acn-sdk-c\src\mqtt\packet\src/MQTTConnectClient.c **** 	FUNC_ENTRY;
  66:..\acn-sdk-c\src\mqtt\packet\src/MQTTConnectClient.c **** 	if (MQTTPacket_len(len = MQTTSerialize_connectLength(options)) > buflen)
ARM GAS  C:\Users\ddemidov\AppData\Local\Temp\ccqTEzLh.s 			page 5


 159              		.loc 1 66 0
 160 0006 101C     		mov	r0, r2
 161              	.LVL17:
  58:..\acn-sdk-c\src\mqtt\packet\src/MQTTConnectClient.c **** 	unsigned char *ptr = buf;
 162              		.loc 1 58 0
 163 0008 0F1C     		mov	r7, r1
 164 000a 141C     		mov	r4, r2
 165              		.loc 1 66 0
 166 000c FFF7FEFF 		bl	MQTTSerialize_connectLength
 167              	.LVL18:
 168 0010 061C     		mov	r6, r0
 169              	.LVL19:
 170 0012 FFF7FEFF 		bl	MQTTPacket_len
 171              	.LVL20:
 172 0016 B842     		cmp	r0, r7
 173 0018 74DC     		bgt	.L32
  67:..\acn-sdk-c\src\mqtt\packet\src/MQTTConnectClient.c **** 	{
  68:..\acn-sdk-c\src\mqtt\packet\src/MQTTConnectClient.c **** 		rc = MQTTPACKET_BUFFER_TOO_SHORT;
  69:..\acn-sdk-c\src\mqtt\packet\src/MQTTConnectClient.c **** 		goto exit;
  70:..\acn-sdk-c\src\mqtt\packet\src/MQTTConnectClient.c **** 	}
  71:..\acn-sdk-c\src\mqtt\packet\src/MQTTConnectClient.c **** 
  72:..\acn-sdk-c\src\mqtt\packet\src/MQTTConnectClient.c **** 	header.byte = 0;
  73:..\acn-sdk-c\src\mqtt\packet\src/MQTTConnectClient.c **** 	header.bits.type = CONNECT;
  74:..\acn-sdk-c\src\mqtt\packet\src/MQTTConnectClient.c **** 	writeChar(&ptr, header.byte); /* write header */
 174              		.loc 1 74 0
 175 001a 01A8     		add	r0, sp, #4
 176 001c 1021     		mov	r1, #16
 177 001e FFF7FEFF 		bl	writeChar
 178              	.LVL21:
  75:..\acn-sdk-c\src\mqtt\packet\src/MQTTConnectClient.c **** 
  76:..\acn-sdk-c\src\mqtt\packet\src/MQTTConnectClient.c **** 	ptr += MQTTPacket_encode(ptr, len); /* write remaining length */
 179              		.loc 1 76 0
 180 0022 311C     		mov	r1, r6
 181 0024 0198     		ldr	r0, [sp, #4]
 182 0026 FFF7FEFF 		bl	MQTTPacket_encode
 183              	.LVL22:
 184 002a 019B     		ldr	r3, [sp, #4]
  77:..\acn-sdk-c\src\mqtt\packet\src/MQTTConnectClient.c **** 
  78:..\acn-sdk-c\src\mqtt\packet\src/MQTTConnectClient.c **** 	if (options->MQTTVersion == 4)
 185              		.loc 1 78 0
 186 002c 267A     		ldrb	r6, [r4, #8]
 187              	.LVL23:
  76:..\acn-sdk-c\src\mqtt\packet\src/MQTTConnectClient.c **** 
 188              		.loc 1 76 0
 189 002e 1818     		add	r0, r3, r0
 190 0030 0190     		str	r0, [sp, #4]
  79:..\acn-sdk-c\src\mqtt\packet\src/MQTTConnectClient.c **** 	{
  80:..\acn-sdk-c\src\mqtt\packet\src/MQTTConnectClient.c **** 		writeCString(&ptr, "MQTT");
 191              		.loc 1 80 0
 192 0032 01A8     		add	r0, sp, #4
  78:..\acn-sdk-c\src\mqtt\packet\src/MQTTConnectClient.c **** 	{
 193              		.loc 1 78 0
 194 0034 042E     		cmp	r6, #4
 195 0036 05D1     		bne	.L22
 196              		.loc 1 80 0
 197 0038 3449     		ldr	r1, .L52
 198 003a FFF7FEFF 		bl	writeCString
ARM GAS  C:\Users\ddemidov\AppData\Local\Temp\ccqTEzLh.s 			page 6


 199              	.LVL24:
  81:..\acn-sdk-c\src\mqtt\packet\src/MQTTConnectClient.c **** 		writeChar(&ptr, (char) 4);
 200              		.loc 1 81 0
 201 003e 01A8     		add	r0, sp, #4
 202 0040 311C     		mov	r1, r6
 203 0042 04E0     		b	.L51
 204              	.L22:
  82:..\acn-sdk-c\src\mqtt\packet\src/MQTTConnectClient.c **** 	}
  83:..\acn-sdk-c\src\mqtt\packet\src/MQTTConnectClient.c **** 	else
  84:..\acn-sdk-c\src\mqtt\packet\src/MQTTConnectClient.c **** 	{
  85:..\acn-sdk-c\src\mqtt\packet\src/MQTTConnectClient.c **** 		writeCString(&ptr, "MQIsdp");
 205              		.loc 1 85 0
 206 0044 3249     		ldr	r1, .L52+4
 207 0046 FFF7FEFF 		bl	writeCString
 208              	.LVL25:
  86:..\acn-sdk-c\src\mqtt\packet\src/MQTTConnectClient.c **** 		writeChar(&ptr, (char) 3);
 209              		.loc 1 86 0
 210 004a 0321     		mov	r1, #3
 211 004c 01A8     		add	r0, sp, #4
 212              	.L51:
 213 004e FFF7FEFF 		bl	writeChar
 214              	.LVL26:
  87:..\acn-sdk-c\src\mqtt\packet\src/MQTTConnectClient.c **** 	}
  88:..\acn-sdk-c\src\mqtt\packet\src/MQTTConnectClient.c **** 
  89:..\acn-sdk-c\src\mqtt\packet\src/MQTTConnectClient.c **** 	flags.all = 0;
  90:..\acn-sdk-c\src\mqtt\packet\src/MQTTConnectClient.c **** 	flags.bits.cleansession = options->cleansession;
 215              		.loc 1 90 0
 216 0052 0122     		mov	r2, #1
  91:..\acn-sdk-c\src\mqtt\packet\src/MQTTConnectClient.c **** 	flags.bits.will = (options->willFlag) ? 1 : 0;
 217              		.loc 1 91 0
 218 0054 E37E     		ldrb	r3, [r4, #27]
  90:..\acn-sdk-c\src\mqtt\packet\src/MQTTConnectClient.c **** 	flags.bits.will = (options->willFlag) ? 1 : 0;
 219              		.loc 1 90 0
 220 0056 A17E     		ldrb	r1, [r4, #26]
 221              		.loc 1 91 0
 222 0058 581E     		sub	r0, r3, #1
 223 005a 8341     		sbc	r3, r3, r0
  90:..\acn-sdk-c\src\mqtt\packet\src/MQTTConnectClient.c **** 	flags.bits.will = (options->willFlag) ? 1 : 0;
 224              		.loc 1 90 0
 225 005c 1140     		and	r1, r2
 226              		.loc 1 91 0
 227 005e 9140     		lsl	r1, r1, r2
 228 0060 1340     		and	r3, r2
 229 0062 9B00     		lsl	r3, r3, #2
 230 0064 1943     		orr	r1, r3
 231              	.LVL27:
  92:..\acn-sdk-c\src\mqtt\packet\src/MQTTConnectClient.c **** 	if (flags.bits.will)
 232              		.loc 1 92 0
 233 0066 002B     		cmp	r3, #0
 234 0068 0CD0     		beq	.L24
  93:..\acn-sdk-c\src\mqtt\packet\src/MQTTConnectClient.c **** 	{
  94:..\acn-sdk-c\src\mqtt\packet\src/MQTTConnectClient.c **** 		flags.bits.willQoS = options->will.qos;
 235              		.loc 1 94 0
 236 006a 231C     		mov	r3, r4
 237 006c 3D33     		add	r3, r3, #61
 238 006e 1878     		ldrb	r0, [r3]
 239 0070 0323     		mov	r3, #3
ARM GAS  C:\Users\ddemidov\AppData\Local\Temp\ccqTEzLh.s 			page 7


 240 0072 0340     		and	r3, r0
  95:..\acn-sdk-c\src\mqtt\packet\src/MQTTConnectClient.c **** 		flags.bits.willRetain = options->will.retained;
 241              		.loc 1 95 0
 242 0074 201C     		mov	r0, r4
 243 0076 3C30     		add	r0, r0, #60
 244 0078 0078     		ldrb	r0, [r0]
  94:..\acn-sdk-c\src\mqtt\packet\src/MQTTConnectClient.c **** 		flags.bits.willRetain = options->will.retained;
 245              		.loc 1 94 0
 246 007a DB00     		lsl	r3, r3, #3
 247              		.loc 1 95 0
 248 007c 0240     		and	r2, r0
 249 007e 5201     		lsl	r2, r2, #5
 250              	.LVL28:
 251 0080 1943     		orr	r1, r3
 252              	.LVL29:
 253 0082 1143     		orr	r1, r2
 254              	.L24:
  96:..\acn-sdk-c\src\mqtt\packet\src/MQTTConnectClient.c **** 	}
  97:..\acn-sdk-c\src\mqtt\packet\src/MQTTConnectClient.c **** 
  98:..\acn-sdk-c\src\mqtt\packet\src/MQTTConnectClient.c **** 	if (options->username.cstring || options->username.lenstring.data)
 255              		.loc 1 98 0
 256 0084 236C     		ldr	r3, [r4, #64]
 257 0086 002B     		cmp	r3, #0
 258 0088 02D1     		bne	.L25
 259              		.loc 1 98 0 is_stmt 0 discriminator 1
 260 008a A36C     		ldr	r3, [r4, #72]
 261 008c 002B     		cmp	r3, #0
 262 008e 01D0     		beq	.L26
 263              	.L25:
  99:..\acn-sdk-c\src\mqtt\packet\src/MQTTConnectClient.c **** 		flags.bits.username = 1;
 264              		.loc 1 99 0 is_stmt 1
 265 0090 8023     		mov	r3, #128
 266              	.LVL30:
 267 0092 1943     		orr	r1, r3
 268              	.LVL31:
 269              	.L26:
 100:..\acn-sdk-c\src\mqtt\packet\src/MQTTConnectClient.c **** 	if (options->password.cstring || options->password.lenstring.data)
 270              		.loc 1 100 0
 271 0094 E36C     		ldr	r3, [r4, #76]
 272 0096 002B     		cmp	r3, #0
 273 0098 02D1     		bne	.L27
 274              		.loc 1 100 0 is_stmt 0 discriminator 1
 275 009a 636D     		ldr	r3, [r4, #84]
 276 009c 002B     		cmp	r3, #0
 277 009e 01D0     		beq	.L28
 278              	.L27:
 101:..\acn-sdk-c\src\mqtt\packet\src/MQTTConnectClient.c **** 		flags.bits.password = 1;
 279              		.loc 1 101 0 is_stmt 1
 280 00a0 4023     		mov	r3, #64
 281              	.LVL32:
 282 00a2 1943     		orr	r1, r3
 283              	.LVL33:
 284              	.L28:
 102:..\acn-sdk-c\src\mqtt\packet\src/MQTTConnectClient.c **** 
 103:..\acn-sdk-c\src\mqtt\packet\src/MQTTConnectClient.c **** 	writeChar(&ptr, flags.all);
 285              		.loc 1 103 0
 286 00a4 CEB2     		uxtb	r6, r1
ARM GAS  C:\Users\ddemidov\AppData\Local\Temp\ccqTEzLh.s 			page 8


 287 00a6 01A8     		add	r0, sp, #4
 288              	.LVL34:
 289 00a8 311C     		mov	r1, r6
 290 00aa FFF7FEFF 		bl	writeChar
 291              	.LVL35:
 104:..\acn-sdk-c\src\mqtt\packet\src/MQTTConnectClient.c **** 	writeInt(&ptr, options->keepAliveInterval);
 292              		.loc 1 104 0
 293 00ae 218B     		ldrh	r1, [r4, #24]
 294 00b0 01A8     		add	r0, sp, #4
 295 00b2 FFF7FEFF 		bl	writeInt
 296              	.LVL36:
 105:..\acn-sdk-c\src\mqtt\packet\src/MQTTConnectClient.c **** 	writeMQTTString(&ptr, options->clientID);
 297              		.loc 1 105 0
 298 00b6 6369     		ldr	r3, [r4, #20]
 299 00b8 01A8     		add	r0, sp, #4
 300 00ba E168     		ldr	r1, [r4, #12]
 301 00bc 2269     		ldr	r2, [r4, #16]
 302 00be FFF7FEFF 		bl	writeMQTTString
 303              	.LVL37:
 106:..\acn-sdk-c\src\mqtt\packet\src/MQTTConnectClient.c **** 	if (options->willFlag)
 304              		.loc 1 106 0
 305 00c2 E37E     		ldrb	r3, [r4, #27]
 306 00c4 002B     		cmp	r3, #0
 307 00c6 0BD0     		beq	.L29
 107:..\acn-sdk-c\src\mqtt\packet\src/MQTTConnectClient.c **** 	{
 108:..\acn-sdk-c\src\mqtt\packet\src/MQTTConnectClient.c **** 		writeMQTTString(&ptr, options->will.topicName);
 308              		.loc 1 108 0
 309 00c8 01A8     		add	r0, sp, #4
 310 00ca 616A     		ldr	r1, [r4, #36]
 311 00cc A26A     		ldr	r2, [r4, #40]
 312 00ce E36A     		ldr	r3, [r4, #44]
 313 00d0 FFF7FEFF 		bl	writeMQTTString
 314              	.LVL38:
 109:..\acn-sdk-c\src\mqtt\packet\src/MQTTConnectClient.c **** 		writeMQTTString(&ptr, options->will.message);
 315              		.loc 1 109 0
 316 00d4 01A8     		add	r0, sp, #4
 317 00d6 216B     		ldr	r1, [r4, #48]
 318 00d8 626B     		ldr	r2, [r4, #52]
 319 00da A36B     		ldr	r3, [r4, #56]
 320 00dc FFF7FEFF 		bl	writeMQTTString
 321              	.LVL39:
 322              	.L29:
 110:..\acn-sdk-c\src\mqtt\packet\src/MQTTConnectClient.c **** 	}
 111:..\acn-sdk-c\src\mqtt\packet\src/MQTTConnectClient.c **** 	if (flags.bits.username)
 323              		.loc 1 111 0
 324 00e0 F309     		lsr	r3, r6, #7
 325 00e2 05D0     		beq	.L30
 112:..\acn-sdk-c\src\mqtt\packet\src/MQTTConnectClient.c **** 		writeMQTTString(&ptr, options->username);
 326              		.loc 1 112 0
 327 00e4 01A8     		add	r0, sp, #4
 328 00e6 216C     		ldr	r1, [r4, #64]
 329 00e8 626C     		ldr	r2, [r4, #68]
 330 00ea A36C     		ldr	r3, [r4, #72]
 331 00ec FFF7FEFF 		bl	writeMQTTString
 332              	.LVL40:
 333              	.L30:
 113:..\acn-sdk-c\src\mqtt\packet\src/MQTTConnectClient.c **** 	if (flags.bits.password)
ARM GAS  C:\Users\ddemidov\AppData\Local\Temp\ccqTEzLh.s 			page 9


 334              		.loc 1 113 0
 335 00f0 7306     		lsl	r3, r6, #25
 336 00f2 04D5     		bpl	.L31
 114:..\acn-sdk-c\src\mqtt\packet\src/MQTTConnectClient.c **** 		writeMQTTString(&ptr, options->password);
 337              		.loc 1 114 0
 338 00f4 4C34     		add	r4, r4, #76
 339              	.LVL41:
 340 00f6 01A8     		add	r0, sp, #4
 341 00f8 0ECC     		ldmia	r4!, {r1, r2, r3}
 342              	.LVL42:
 343 00fa FFF7FEFF 		bl	writeMQTTString
 344              	.LVL43:
 345              	.L31:
 115:..\acn-sdk-c\src\mqtt\packet\src/MQTTConnectClient.c **** 
 116:..\acn-sdk-c\src\mqtt\packet\src/MQTTConnectClient.c **** 	rc = ptr - buf;
 346              		.loc 1 116 0
 347 00fe 019B     		ldr	r3, [sp, #4]
 348 0100 581B     		sub	r0, r3, r5
 349              	.LVL44:
 350 0102 01E0     		b	.L21
 351              	.LVL45:
 352              	.L32:
  68:..\acn-sdk-c\src\mqtt\packet\src/MQTTConnectClient.c **** 		goto exit;
 353              		.loc 1 68 0
 354 0104 0220     		mov	r0, #2
 355 0106 4042     		neg	r0, r0
 356              	.LVL46:
 357              	.L21:
 117:..\acn-sdk-c\src\mqtt\packet\src/MQTTConnectClient.c **** 
 118:..\acn-sdk-c\src\mqtt\packet\src/MQTTConnectClient.c **** 	exit: FUNC_EXIT_RC(rc);
 119:..\acn-sdk-c\src\mqtt\packet\src/MQTTConnectClient.c **** 	return rc;
 120:..\acn-sdk-c\src\mqtt\packet\src/MQTTConnectClient.c **** }
 358              		.loc 1 120 0
 359              		@ sp needed
 360              	.LVL47:
 361              	.LVL48:
 362              	.LVL49:
 363 0108 FEBD     		pop	{r1, r2, r3, r4, r5, r6, r7, pc}
 364              	.L53:
 365 010a C046     		.align	2
 366              	.L52:
 367 010c 00000000 		.word	.LC0
 368 0110 05000000 		.word	.LC2
 369              		.cfi_endproc
 370              	.LFE1:
 371              		.size	MQTTSerialize_connect, .-MQTTSerialize_connect
 372              		.section	.text.MQTTDeserialize_connack,"ax",%progbits
 373              		.align	1
 374              		.global	MQTTDeserialize_connack
 375              		.code	16
 376              		.thumb_func
 377              		.type	MQTTDeserialize_connack, %function
 378              	MQTTDeserialize_connack:
 379              	.LFB2:
 121:..\acn-sdk-c\src\mqtt\packet\src/MQTTConnectClient.c **** 
 122:..\acn-sdk-c\src\mqtt\packet\src/MQTTConnectClient.c **** 
 123:..\acn-sdk-c\src\mqtt\packet\src/MQTTConnectClient.c **** /**
ARM GAS  C:\Users\ddemidov\AppData\Local\Temp\ccqTEzLh.s 			page 10


 124:..\acn-sdk-c\src\mqtt\packet\src/MQTTConnectClient.c ****   * Deserializes the supplied (wire) buffer into connack data - return code
 125:..\acn-sdk-c\src\mqtt\packet\src/MQTTConnectClient.c ****   * @param sessionPresent the session present flag returned (only for MQTT 3.1.1)
 126:..\acn-sdk-c\src\mqtt\packet\src/MQTTConnectClient.c ****   * @param connack_rc returned integer value of the connack return code
 127:..\acn-sdk-c\src\mqtt\packet\src/MQTTConnectClient.c ****   * @param buf the raw buffer data, of the correct length determined by the remaining length field
 128:..\acn-sdk-c\src\mqtt\packet\src/MQTTConnectClient.c ****   * @param len the length in bytes of the data in the supplied buffer
 129:..\acn-sdk-c\src\mqtt\packet\src/MQTTConnectClient.c ****   * @return error code.  1 is success, 0 is failure
 130:..\acn-sdk-c\src\mqtt\packet\src/MQTTConnectClient.c ****   */
 131:..\acn-sdk-c\src\mqtt\packet\src/MQTTConnectClient.c **** int MQTTDeserialize_connack(unsigned char* sessionPresent, unsigned char* connack_rc, unsigned char
 132:..\acn-sdk-c\src\mqtt\packet\src/MQTTConnectClient.c **** {
 380              		.loc 1 132 0
 381              		.cfi_startproc
 382              	.LVL50:
 383 0000 37B5     		push	{r0, r1, r2, r4, r5, lr}
 384              		.cfi_def_cfa_offset 24
 385              		.cfi_offset 0, -24
 386              		.cfi_offset 1, -20
 387              		.cfi_offset 2, -16
 388              		.cfi_offset 4, -12
 389              		.cfi_offset 5, -8
 390              		.cfi_offset 14, -4
 391              		.loc 1 132 0
 392 0002 051C     		mov	r5, r0
 133:..\acn-sdk-c\src\mqtt\packet\src/MQTTConnectClient.c ****   SSP_PARAMETER_NOT_USED(buflen);
 134:..\acn-sdk-c\src\mqtt\packet\src/MQTTConnectClient.c **** 	MQTTHeader header = {0};
 135:..\acn-sdk-c\src\mqtt\packet\src/MQTTConnectClient.c **** 	unsigned char* curdata = buf;
 136:..\acn-sdk-c\src\mqtt\packet\src/MQTTConnectClient.c **** 	unsigned char* enddata = NULL;
 137:..\acn-sdk-c\src\mqtt\packet\src/MQTTConnectClient.c **** 	int rc = 0;
 138:..\acn-sdk-c\src\mqtt\packet\src/MQTTConnectClient.c **** 	int mylen;
 139:..\acn-sdk-c\src\mqtt\packet\src/MQTTConnectClient.c **** 	MQTTConnackFlags flags = {0};
 140:..\acn-sdk-c\src\mqtt\packet\src/MQTTConnectClient.c **** 
 141:..\acn-sdk-c\src\mqtt\packet\src/MQTTConnectClient.c **** 	FUNC_ENTRY;
 142:..\acn-sdk-c\src\mqtt\packet\src/MQTTConnectClient.c **** 	header.byte = readChar(&curdata);
 393              		.loc 1 142 0
 394 0004 6846     		mov	r0, sp
 395              	.LVL51:
 132:..\acn-sdk-c\src\mqtt\packet\src/MQTTConnectClient.c ****   SSP_PARAMETER_NOT_USED(buflen);
 396              		.loc 1 132 0
 397 0006 0C1C     		mov	r4, r1
 135:..\acn-sdk-c\src\mqtt\packet\src/MQTTConnectClient.c **** 	unsigned char* enddata = NULL;
 398              		.loc 1 135 0
 399 0008 0092     		str	r2, [sp]
 400              	.LVL52:
 401              		.loc 1 142 0
 402 000a FFF7FEFF 		bl	readChar
 403              	.LVL53:
 143:..\acn-sdk-c\src\mqtt\packet\src/MQTTConnectClient.c **** 	if (header.bits.type != CONNACK)
 404              		.loc 1 143 0
 405 000e F023     		mov	r3, #240
 406 0010 0340     		and	r3, r0
 137:..\acn-sdk-c\src\mqtt\packet\src/MQTTConnectClient.c **** 	int mylen;
 407              		.loc 1 137 0
 408 0012 0020     		mov	r0, #0
 409              	.LVL54:
 410              		.loc 1 143 0
 411 0014 202B     		cmp	r3, #32
 412 0016 14D1     		bne	.L55
 144:..\acn-sdk-c\src\mqtt\packet\src/MQTTConnectClient.c **** 		goto exit;
ARM GAS  C:\Users\ddemidov\AppData\Local\Temp\ccqTEzLh.s 			page 11


 145:..\acn-sdk-c\src\mqtt\packet\src/MQTTConnectClient.c **** 
 146:..\acn-sdk-c\src\mqtt\packet\src/MQTTConnectClient.c **** 	curdata += (rc = MQTTPacket_decodeBuf(curdata, &mylen)); /* read remaining length */
 413              		.loc 1 146 0
 414 0018 0098     		ldr	r0, [sp]
 415 001a 01A9     		add	r1, sp, #4
 416 001c FFF7FEFF 		bl	MQTTPacket_decodeBuf
 417              	.LVL55:
 418 0020 009B     		ldr	r3, [sp]
 419 0022 1B18     		add	r3, r3, r0
 420 0024 0093     		str	r3, [sp]
 421              	.LVL56:
 147:..\acn-sdk-c\src\mqtt\packet\src/MQTTConnectClient.c **** 	enddata = curdata + mylen;
 148:..\acn-sdk-c\src\mqtt\packet\src/MQTTConnectClient.c **** 	if (enddata - curdata < 2)
 422              		.loc 1 148 0
 423 0026 019B     		ldr	r3, [sp, #4]
 424              	.LVL57:
 425 0028 012B     		cmp	r3, #1
 426 002a 0ADD     		ble	.L55
 149:..\acn-sdk-c\src\mqtt\packet\src/MQTTConnectClient.c **** 		goto exit;
 150:..\acn-sdk-c\src\mqtt\packet\src/MQTTConnectClient.c **** 
 151:..\acn-sdk-c\src\mqtt\packet\src/MQTTConnectClient.c **** 	flags.all = readChar(&curdata);
 427              		.loc 1 151 0
 428 002c 6846     		mov	r0, sp
 429              	.LVL58:
 430 002e FFF7FEFF 		bl	readChar
 431              	.LVL59:
 152:..\acn-sdk-c\src\mqtt\packet\src/MQTTConnectClient.c **** 	*sessionPresent = flags.bits.sessionpresent;
 432              		.loc 1 152 0
 433 0032 0006     		lsl	r0, r0, #24
 434 0034 C00F     		lsr	r0, r0, #31
 435 0036 2870     		strb	r0, [r5]
 153:..\acn-sdk-c\src\mqtt\packet\src/MQTTConnectClient.c **** 	*connack_rc = readChar(&curdata);
 436              		.loc 1 153 0
 437 0038 6846     		mov	r0, sp
 438 003a FFF7FEFF 		bl	readChar
 439              	.LVL60:
 440 003e 2070     		strb	r0, [r4]
 441              	.LVL61:
 154:..\acn-sdk-c\src\mqtt\packet\src/MQTTConnectClient.c **** 
 155:..\acn-sdk-c\src\mqtt\packet\src/MQTTConnectClient.c **** 	rc = 1;
 442              		.loc 1 155 0
 443 0040 0120     		mov	r0, #1
 444              	.LVL62:
 445              	.L55:
 156:..\acn-sdk-c\src\mqtt\packet\src/MQTTConnectClient.c **** exit:
 157:..\acn-sdk-c\src\mqtt\packet\src/MQTTConnectClient.c **** 	FUNC_EXIT_RC(rc);
 158:..\acn-sdk-c\src\mqtt\packet\src/MQTTConnectClient.c **** 	return rc;
 159:..\acn-sdk-c\src\mqtt\packet\src/MQTTConnectClient.c **** }
 446              		.loc 1 159 0
 447              		@ sp needed
 448              	.LVL63:
 449              	.LVL64:
 450 0042 3EBD     		pop	{r1, r2, r3, r4, r5, pc}
 451              		.cfi_endproc
 452              	.LFE2:
 453              		.size	MQTTDeserialize_connack, .-MQTTDeserialize_connack
 454              		.section	.text.MQTTSerialize_zero,"ax",%progbits
ARM GAS  C:\Users\ddemidov\AppData\Local\Temp\ccqTEzLh.s 			page 12


 455              		.align	1
 456              		.global	MQTTSerialize_zero
 457              		.code	16
 458              		.thumb_func
 459              		.type	MQTTSerialize_zero, %function
 460              	MQTTSerialize_zero:
 461              	.LFB3:
 160:..\acn-sdk-c\src\mqtt\packet\src/MQTTConnectClient.c **** 
 161:..\acn-sdk-c\src\mqtt\packet\src/MQTTConnectClient.c **** 
 162:..\acn-sdk-c\src\mqtt\packet\src/MQTTConnectClient.c **** /**
 163:..\acn-sdk-c\src\mqtt\packet\src/MQTTConnectClient.c ****   * Serializes a 0-length packet into the supplied buffer, ready for writing to a socket
 164:..\acn-sdk-c\src\mqtt\packet\src/MQTTConnectClient.c ****   * @param buf the buffer into which the packet will be serialized
 165:..\acn-sdk-c\src\mqtt\packet\src/MQTTConnectClient.c ****   * @param buflen the length in bytes of the supplied buffer, to avoid overruns
 166:..\acn-sdk-c\src\mqtt\packet\src/MQTTConnectClient.c ****   * @param packettype the message type
 167:..\acn-sdk-c\src\mqtt\packet\src/MQTTConnectClient.c ****   * @return serialized length, or error if 0
 168:..\acn-sdk-c\src\mqtt\packet\src/MQTTConnectClient.c ****   */
 169:..\acn-sdk-c\src\mqtt\packet\src/MQTTConnectClient.c **** int MQTTSerialize_zero(unsigned char* buf, int buflen, unsigned char packettype)
 170:..\acn-sdk-c\src\mqtt\packet\src/MQTTConnectClient.c **** {
 462              		.loc 1 170 0
 463              		.cfi_startproc
 464              	.LVL65:
 465 0000 13B5     		push	{r0, r1, r4, lr}
 466              		.cfi_def_cfa_offset 16
 467              		.cfi_offset 0, -16
 468              		.cfi_offset 1, -12
 469              		.cfi_offset 4, -8
 470              		.cfi_offset 14, -4
 171:..\acn-sdk-c\src\mqtt\packet\src/MQTTConnectClient.c **** 	MQTTHeader header = {0};
 172:..\acn-sdk-c\src\mqtt\packet\src/MQTTConnectClient.c **** 	int rc = -1;
 173:..\acn-sdk-c\src\mqtt\packet\src/MQTTConnectClient.c **** 	unsigned char *ptr = buf;
 471              		.loc 1 173 0
 472 0002 0190     		str	r0, [sp, #4]
 174:..\acn-sdk-c\src\mqtt\packet\src/MQTTConnectClient.c **** 
 175:..\acn-sdk-c\src\mqtt\packet\src/MQTTConnectClient.c **** 	FUNC_ENTRY;
 176:..\acn-sdk-c\src\mqtt\packet\src/MQTTConnectClient.c **** 	if (buflen < 2)
 473              		.loc 1 176 0
 474 0004 0129     		cmp	r1, #1
 475 0006 0FDD     		ble	.L59
 177:..\acn-sdk-c\src\mqtt\packet\src/MQTTConnectClient.c **** 	{
 178:..\acn-sdk-c\src\mqtt\packet\src/MQTTConnectClient.c **** 		rc = MQTTPACKET_BUFFER_TOO_SHORT;
 179:..\acn-sdk-c\src\mqtt\packet\src/MQTTConnectClient.c **** 		goto exit;
 180:..\acn-sdk-c\src\mqtt\packet\src/MQTTConnectClient.c **** 	}
 181:..\acn-sdk-c\src\mqtt\packet\src/MQTTConnectClient.c **** 	header.byte = 0;
 182:..\acn-sdk-c\src\mqtt\packet\src/MQTTConnectClient.c **** 	header.bits.type = packettype;
 476              		.loc 1 182 0
 477 0008 0F23     		mov	r3, #15
 478 000a 111C     		mov	r1, r2
 479              	.LVL66:
 480 000c 1940     		and	r1, r3
 481 000e 041C     		mov	r4, r0
 183:..\acn-sdk-c\src\mqtt\packet\src/MQTTConnectClient.c **** 	writeChar(&ptr, header.byte); /* write header */
 482              		.loc 1 183 0
 483 0010 0901     		lsl	r1, r1, #4
 484              	.LVL67:
 485 0012 01A8     		add	r0, sp, #4
 486              	.LVL68:
 487 0014 FFF7FEFF 		bl	writeChar
ARM GAS  C:\Users\ddemidov\AppData\Local\Temp\ccqTEzLh.s 			page 13


 488              	.LVL69:
 184:..\acn-sdk-c\src\mqtt\packet\src/MQTTConnectClient.c **** 
 185:..\acn-sdk-c\src\mqtt\packet\src/MQTTConnectClient.c **** 	ptr += MQTTPacket_encode(ptr, 0); /* write remaining length */
 489              		.loc 1 185 0
 490 0018 0198     		ldr	r0, [sp, #4]
 491 001a 0021     		mov	r1, #0
 492 001c FFF7FEFF 		bl	MQTTPacket_encode
 493              	.LVL70:
 494 0020 019B     		ldr	r3, [sp, #4]
 495 0022 1818     		add	r0, r3, r0
 496              	.LVL71:
 186:..\acn-sdk-c\src\mqtt\packet\src/MQTTConnectClient.c **** 	rc = ptr - buf;
 497              		.loc 1 186 0
 498 0024 001B     		sub	r0, r0, r4
 499              	.LVL72:
 500 0026 01E0     		b	.L58
 501              	.LVL73:
 502              	.L59:
 178:..\acn-sdk-c\src\mqtt\packet\src/MQTTConnectClient.c **** 		goto exit;
 503              		.loc 1 178 0
 504 0028 0220     		mov	r0, #2
 505              	.LVL74:
 506 002a 4042     		neg	r0, r0
 507              	.LVL75:
 508              	.L58:
 187:..\acn-sdk-c\src\mqtt\packet\src/MQTTConnectClient.c **** exit:
 188:..\acn-sdk-c\src\mqtt\packet\src/MQTTConnectClient.c **** 	FUNC_EXIT_RC(rc);
 189:..\acn-sdk-c\src\mqtt\packet\src/MQTTConnectClient.c **** 	return rc;
 190:..\acn-sdk-c\src\mqtt\packet\src/MQTTConnectClient.c **** }
 509              		.loc 1 190 0
 510              		@ sp needed
 511 002c 16BD     		pop	{r1, r2, r4, pc}
 512              		.cfi_endproc
 513              	.LFE3:
 514              		.size	MQTTSerialize_zero, .-MQTTSerialize_zero
 515              		.section	.text.MQTTSerialize_disconnect,"ax",%progbits
 516              		.align	1
 517              		.global	MQTTSerialize_disconnect
 518              		.code	16
 519              		.thumb_func
 520              		.type	MQTTSerialize_disconnect, %function
 521              	MQTTSerialize_disconnect:
 522              	.LFB4:
 191:..\acn-sdk-c\src\mqtt\packet\src/MQTTConnectClient.c **** 
 192:..\acn-sdk-c\src\mqtt\packet\src/MQTTConnectClient.c **** 
 193:..\acn-sdk-c\src\mqtt\packet\src/MQTTConnectClient.c **** /**
 194:..\acn-sdk-c\src\mqtt\packet\src/MQTTConnectClient.c ****   * Serializes a disconnect packet into the supplied buffer, ready for writing to a socket
 195:..\acn-sdk-c\src\mqtt\packet\src/MQTTConnectClient.c ****   * @param buf the buffer into which the packet will be serialized
 196:..\acn-sdk-c\src\mqtt\packet\src/MQTTConnectClient.c ****   * @param buflen the length in bytes of the supplied buffer, to avoid overruns
 197:..\acn-sdk-c\src\mqtt\packet\src/MQTTConnectClient.c ****   * @return serialized length, or error if 0
 198:..\acn-sdk-c\src\mqtt\packet\src/MQTTConnectClient.c ****   */
 199:..\acn-sdk-c\src\mqtt\packet\src/MQTTConnectClient.c **** int MQTTSerialize_disconnect(unsigned char* buf, int buflen)
 200:..\acn-sdk-c\src\mqtt\packet\src/MQTTConnectClient.c **** {
 523              		.loc 1 200 0
 524              		.cfi_startproc
 525              	.LVL76:
 526 0000 08B5     		push	{r3, lr}
ARM GAS  C:\Users\ddemidov\AppData\Local\Temp\ccqTEzLh.s 			page 14


 527              		.cfi_def_cfa_offset 8
 528              		.cfi_offset 3, -8
 529              		.cfi_offset 14, -4
 201:..\acn-sdk-c\src\mqtt\packet\src/MQTTConnectClient.c **** 	return MQTTSerialize_zero(buf, buflen, DISCONNECT);
 530              		.loc 1 201 0
 531 0002 0E22     		mov	r2, #14
 532 0004 FFF7FEFF 		bl	MQTTSerialize_zero
 533              	.LVL77:
 202:..\acn-sdk-c\src\mqtt\packet\src/MQTTConnectClient.c **** }
 534              		.loc 1 202 0
 535              		@ sp needed
 536 0008 08BD     		pop	{r3, pc}
 537              		.cfi_endproc
 538              	.LFE4:
 539              		.size	MQTTSerialize_disconnect, .-MQTTSerialize_disconnect
 540              		.section	.text.MQTTSerialize_pingreq,"ax",%progbits
 541              		.align	1
 542              		.global	MQTTSerialize_pingreq
 543              		.code	16
 544              		.thumb_func
 545              		.type	MQTTSerialize_pingreq, %function
 546              	MQTTSerialize_pingreq:
 547              	.LFB5:
 203:..\acn-sdk-c\src\mqtt\packet\src/MQTTConnectClient.c **** 
 204:..\acn-sdk-c\src\mqtt\packet\src/MQTTConnectClient.c **** 
 205:..\acn-sdk-c\src\mqtt\packet\src/MQTTConnectClient.c **** /**
 206:..\acn-sdk-c\src\mqtt\packet\src/MQTTConnectClient.c ****   * Serializes a disconnect packet into the supplied buffer, ready for writing to a socket
 207:..\acn-sdk-c\src\mqtt\packet\src/MQTTConnectClient.c ****   * @param buf the buffer into which the packet will be serialized
 208:..\acn-sdk-c\src\mqtt\packet\src/MQTTConnectClient.c ****   * @param buflen the length in bytes of the supplied buffer, to avoid overruns
 209:..\acn-sdk-c\src\mqtt\packet\src/MQTTConnectClient.c ****   * @return serialized length, or error if 0
 210:..\acn-sdk-c\src\mqtt\packet\src/MQTTConnectClient.c ****   */
 211:..\acn-sdk-c\src\mqtt\packet\src/MQTTConnectClient.c **** int MQTTSerialize_pingreq(unsigned char* buf, int buflen)
 212:..\acn-sdk-c\src\mqtt\packet\src/MQTTConnectClient.c **** {
 548              		.loc 1 212 0
 549              		.cfi_startproc
 550              	.LVL78:
 551 0000 08B5     		push	{r3, lr}
 552              		.cfi_def_cfa_offset 8
 553              		.cfi_offset 3, -8
 554              		.cfi_offset 14, -4
 213:..\acn-sdk-c\src\mqtt\packet\src/MQTTConnectClient.c **** 	return MQTTSerialize_zero(buf, buflen, PINGREQ);
 555              		.loc 1 213 0
 556 0002 0C22     		mov	r2, #12
 557 0004 FFF7FEFF 		bl	MQTTSerialize_zero
 558              	.LVL79:
 214:..\acn-sdk-c\src\mqtt\packet\src/MQTTConnectClient.c **** }
 559              		.loc 1 214 0
 560              		@ sp needed
 561 0008 08BD     		pop	{r3, pc}
 562              		.cfi_endproc
 563              	.LFE5:
 564              		.size	MQTTSerialize_pingreq, .-MQTTSerialize_pingreq
 565              		.section	.rodata.str1.1,"aMS",%progbits,1
 566              	.LC0:
 567 0000 4D515454 		.ascii	"MQTT\000"
 567      00
 568              	.LC2:
ARM GAS  C:\Users\ddemidov\AppData\Local\Temp\ccqTEzLh.s 			page 15


 569 0005 4D514973 		.ascii	"MQIsdp\000"
 569      647000
 570              		.text
 571              	.Letext0:
 572              		.file 2 "..\\acn-sdk-c\\include/mqtt/packet/MQTTPacket.h"
 573              		.file 3 "..\\acn-sdk-c\\include/mqtt/packet/MQTTConnect.h"