ARM GAS  C:\Users\ddemidov\AppData\Local\Temp\ccOJqKhh.s 			page 1


   1              		.cpu cortex-m0
   2              		.fpu softvfp
   3              		.eabi_attribute 20, 1
   4              		.eabi_attribute 21, 1
   5              		.eabi_attribute 23, 3
   6              		.eabi_attribute 24, 1
   7              		.eabi_attribute 25, 1
   8              		.eabi_attribute 26, 1
   9              		.eabi_attribute 30, 4
  10              		.eabi_attribute 34, 0
  11              		.eabi_attribute 18, 4
  12              		.code	16
  13              		.file	"MQTTFormat.c"
  14              		.text
  15              	.Ltext0:
  16              		.cfi_sections	.debug_frame
  17              		.section	.text.MQTTPacket_getName,"ax",%progbits
  18              		.align	1
  19              		.global	MQTTPacket_getName
  20              		.code	16
  21              		.thumb_func
  22              		.type	MQTTPacket_getName, %function
  23              	MQTTPacket_getName:
  24              	.LFB0:
  25              		.file 1 "..\\acn-sdk-c\\src\\mqtt\\packet\\src\\MQTTFormat.c"
   1:..\acn-sdk-c\src\mqtt\packet\src/MQTTFormat.c **** /*******************************************************************************
   2:..\acn-sdk-c\src\mqtt\packet\src/MQTTFormat.c ****  * Copyright (c) 2014 IBM Corp.
   3:..\acn-sdk-c\src\mqtt\packet\src/MQTTFormat.c ****  *
   4:..\acn-sdk-c\src\mqtt\packet\src/MQTTFormat.c ****  * All rights reserved. This program and the accompanying materials
   5:..\acn-sdk-c\src\mqtt\packet\src/MQTTFormat.c ****  * are made available under the terms of the Eclipse Public License v1.0
   6:..\acn-sdk-c\src\mqtt\packet\src/MQTTFormat.c ****  * and Eclipse Distribution License v1.0 which accompany this distribution.
   7:..\acn-sdk-c\src\mqtt\packet\src/MQTTFormat.c ****  *
   8:..\acn-sdk-c\src\mqtt\packet\src/MQTTFormat.c ****  * The Eclipse Public License is available at
   9:..\acn-sdk-c\src\mqtt\packet\src/MQTTFormat.c ****  *    http://www.eclipse.org/legal/epl-v10.html
  10:..\acn-sdk-c\src\mqtt\packet\src/MQTTFormat.c ****  * and the Eclipse Distribution License is available at
  11:..\acn-sdk-c\src\mqtt\packet\src/MQTTFormat.c ****  *   http://www.eclipse.org/org/documents/edl-v10.php.
  12:..\acn-sdk-c\src\mqtt\packet\src/MQTTFormat.c ****  *
  13:..\acn-sdk-c\src\mqtt\packet\src/MQTTFormat.c ****  * Contributors:
  14:..\acn-sdk-c\src\mqtt\packet\src/MQTTFormat.c ****  *    Ian Craggs - initial API and implementation and/or initial documentation
  15:..\acn-sdk-c\src\mqtt\packet\src/MQTTFormat.c ****  *******************************************************************************/
  16:..\acn-sdk-c\src\mqtt\packet\src/MQTTFormat.c **** 
  17:..\acn-sdk-c\src\mqtt\packet\src/MQTTFormat.c **** #include "mqtt/packet/MQTTFormat.h"
  18:..\acn-sdk-c\src\mqtt\packet\src/MQTTFormat.c **** #include "mqtt/packet/MQTTPublish.h"
  19:..\acn-sdk-c\src\mqtt\packet\src/MQTTFormat.c **** #include "mqtt/packet/MQTTSubscribe.h"
  20:..\acn-sdk-c\src\mqtt\packet\src/MQTTFormat.c **** #include "mqtt/packet/MQTTUnsubscribe.h"
  21:..\acn-sdk-c\src\mqtt\packet\src/MQTTFormat.c **** 
  22:..\acn-sdk-c\src\mqtt\packet\src/MQTTFormat.c **** #include <string.h>
  23:..\acn-sdk-c\src\mqtt\packet\src/MQTTFormat.c **** 
  24:..\acn-sdk-c\src\mqtt\packet\src/MQTTFormat.c **** 
  25:..\acn-sdk-c\src\mqtt\packet\src/MQTTFormat.c **** const char* MQTTPacket_names[] =
  26:..\acn-sdk-c\src\mqtt\packet\src/MQTTFormat.c **** {
  27:..\acn-sdk-c\src\mqtt\packet\src/MQTTFormat.c **** 	"RESERVED", "CONNECT", "CONNACK", "PUBLISH", "PUBACK", "PUBREC", "PUBREL",
  28:..\acn-sdk-c\src\mqtt\packet\src/MQTTFormat.c **** 	"PUBCOMP", "SUBSCRIBE", "SUBACK", "UNSUBSCRIBE", "UNSUBACK",
  29:..\acn-sdk-c\src\mqtt\packet\src/MQTTFormat.c **** 	"PINGREQ", "PINGRESP", "DISCONNECT"
  30:..\acn-sdk-c\src\mqtt\packet\src/MQTTFormat.c **** };
  31:..\acn-sdk-c\src\mqtt\packet\src/MQTTFormat.c **** 
  32:..\acn-sdk-c\src\mqtt\packet\src/MQTTFormat.c **** 
ARM GAS  C:\Users\ddemidov\AppData\Local\Temp\ccOJqKhh.s 			page 2


  33:..\acn-sdk-c\src\mqtt\packet\src/MQTTFormat.c **** const char* MQTTPacket_getName(unsigned short packetid)
  34:..\acn-sdk-c\src\mqtt\packet\src/MQTTFormat.c **** {
  26              		.loc 1 34 0
  27              		.cfi_startproc
  28              	.LVL0:
  35:..\acn-sdk-c\src\mqtt\packet\src/MQTTFormat.c **** 	return MQTTPacket_names[packetid];
  29              		.loc 1 35 0
  30 0000 014B     		ldr	r3, .L2
  31 0002 8000     		lsl	r0, r0, #2
  32              	.LVL1:
  33 0004 C058     		ldr	r0, [r0, r3]
  36:..\acn-sdk-c\src\mqtt\packet\src/MQTTFormat.c **** }
  34              		.loc 1 36 0
  35              		@ sp needed
  36 0006 7047     		bx	lr
  37              	.L3:
  38              		.align	2
  39              	.L2:
  40 0008 00000000 		.word	.LANCHOR0
  41              		.cfi_endproc
  42              	.LFE0:
  43              		.size	MQTTPacket_getName, .-MQTTPacket_getName
  44              		.section	.text.MQTTStringFormat_connect,"ax",%progbits
  45              		.align	1
  46              		.global	MQTTStringFormat_connect
  47              		.code	16
  48              		.thumb_func
  49              		.type	MQTTStringFormat_connect, %function
  50              	MQTTStringFormat_connect:
  51              	.LFB1:
  37:..\acn-sdk-c\src\mqtt\packet\src/MQTTFormat.c **** 
  38:..\acn-sdk-c\src\mqtt\packet\src/MQTTFormat.c **** 
  39:..\acn-sdk-c\src\mqtt\packet\src/MQTTFormat.c **** int MQTTStringFormat_connect(char* strbuf, int strbuflen, MQTTPacket_connectData* data)
  40:..\acn-sdk-c\src\mqtt\packet\src/MQTTFormat.c **** {
  52              		.loc 1 40 0
  53              		.cfi_startproc
  54              	.LVL2:
  55 0000 F0B5     		push	{r4, r5, r6, r7, lr}
  56              		.cfi_def_cfa_offset 20
  57              		.cfi_offset 4, -20
  58              		.cfi_offset 5, -16
  59              		.cfi_offset 6, -12
  60              		.cfi_offset 7, -8
  61              		.cfi_offset 14, -4
  62 0002 141C     		mov	r4, r2
  41:..\acn-sdk-c\src\mqtt\packet\src/MQTTFormat.c **** 	int strindex = 0;
  42:..\acn-sdk-c\src\mqtt\packet\src/MQTTFormat.c **** 
  43:..\acn-sdk-c\src\mqtt\packet\src/MQTTFormat.c **** 	strindex = snprintf(strbuf, strbuflen,
  63              		.loc 1 43 0
  64 0004 137A     		ldrb	r3, [r2, #8]
  65 0006 1269     		ldr	r2, [r2, #16]
  66              	.LVL3:
  40:..\acn-sdk-c\src\mqtt\packet\src/MQTTFormat.c **** 	int strindex = 0;
  67              		.loc 1 40 0
  68 0008 87B0     		sub	sp, sp, #28
  69              		.cfi_def_cfa_offset 48
  70              		.loc 1 43 0
ARM GAS  C:\Users\ddemidov\AppData\Local\Temp\ccOJqKhh.s 			page 3


  71 000a 0092     		str	r2, [sp]
  72 000c 6269     		ldr	r2, [r4, #20]
  40:..\acn-sdk-c\src\mqtt\packet\src/MQTTFormat.c **** 	int strindex = 0;
  73              		.loc 1 40 0
  74 000e 071C     		mov	r7, r0
  75              		.loc 1 43 0
  76 0010 0192     		str	r2, [sp, #4]
  77 0012 A27E     		ldrb	r2, [r4, #26]
  40:..\acn-sdk-c\src\mqtt\packet\src/MQTTFormat.c **** 	int strindex = 0;
  78              		.loc 1 40 0
  79 0014 0E1C     		mov	r6, r1
  80              		.loc 1 43 0
  81 0016 0292     		str	r2, [sp, #8]
  82 0018 228B     		ldrh	r2, [r4, #24]
  83 001a 0392     		str	r2, [sp, #12]
  84 001c 1C4A     		ldr	r2, .L18
  85 001e FFF7FEFF 		bl	snprintf
  86              	.LVL4:
  44:..\acn-sdk-c\src\mqtt\packet\src/MQTTFormat.c **** 			"CONNECT MQTT version %d, client id %.*s, clean session %d, keep alive %d",
  45:..\acn-sdk-c\src\mqtt\packet\src/MQTTFormat.c **** 			(int)data->MQTTVersion, data->clientID.lenstring.len, data->clientID.lenstring.data,
  46:..\acn-sdk-c\src\mqtt\packet\src/MQTTFormat.c **** 			(int)data->cleansession, data->keepAliveInterval);
  47:..\acn-sdk-c\src\mqtt\packet\src/MQTTFormat.c **** 	if (data->willFlag)
  87              		.loc 1 47 0
  88 0022 E37E     		ldrb	r3, [r4, #27]
  43:..\acn-sdk-c\src\mqtt\packet\src/MQTTFormat.c **** 			"CONNECT MQTT version %d, client id %.*s, clean session %d, keep alive %d",
  89              		.loc 1 43 0
  90 0024 051C     		mov	r5, r0
  91              	.LVL5:
  92              		.loc 1 47 0
  93 0026 002B     		cmp	r3, #0
  94 0028 14D0     		beq	.L5
  48:..\acn-sdk-c\src\mqtt\packet\src/MQTTFormat.c **** 		strindex += snprintf(&strbuf[strindex], strbuflen - strindex,
  49:..\acn-sdk-c\src\mqtt\packet\src/MQTTFormat.c **** 				", will QoS %d, will retain %d, will topic %.*s, will message %.*s",
  50:..\acn-sdk-c\src\mqtt\packet\src/MQTTFormat.c **** 				data->will.qos, data->will.retained,
  95              		.loc 1 50 0
  96 002a 221C     		mov	r2, r4
  97 002c 231C     		mov	r3, r4
  98 002e 3C32     		add	r2, r2, #60
  48:..\acn-sdk-c\src\mqtt\packet\src/MQTTFormat.c **** 		strindex += snprintf(&strbuf[strindex], strbuflen - strindex,
  99              		.loc 1 48 0
 100 0030 1278     		ldrb	r2, [r2]
 101              		.loc 1 50 0
 102 0032 3D33     		add	r3, r3, #61
  48:..\acn-sdk-c\src\mqtt\packet\src/MQTTFormat.c **** 		strindex += snprintf(&strbuf[strindex], strbuflen - strindex,
 103              		.loc 1 48 0
 104 0034 1B78     		ldrb	r3, [r3]
 105 0036 0092     		str	r2, [sp]
 106 0038 A26A     		ldr	r2, [r4, #40]
 107 003a 711B     		sub	r1, r6, r5
 108 003c 0192     		str	r2, [sp, #4]
 109 003e E26A     		ldr	r2, [r4, #44]
 110 0040 3818     		add	r0, r7, r0
 111              	.LVL6:
 112 0042 0292     		str	r2, [sp, #8]
 113 0044 626B     		ldr	r2, [r4, #52]
 114 0046 0392     		str	r2, [sp, #12]
 115 0048 A26B     		ldr	r2, [r4, #56]
ARM GAS  C:\Users\ddemidov\AppData\Local\Temp\ccOJqKhh.s 			page 4


 116 004a 0492     		str	r2, [sp, #16]
 117 004c 114A     		ldr	r2, .L18+4
 118 004e FFF7FEFF 		bl	snprintf
 119              	.LVL7:
 120 0052 2D18     		add	r5, r5, r0
 121              	.LVL8:
 122              	.L5:
  51:..\acn-sdk-c\src\mqtt\packet\src/MQTTFormat.c **** 				data->will.topicName.lenstring.len, data->will.topicName.lenstring.data,
  52:..\acn-sdk-c\src\mqtt\packet\src/MQTTFormat.c **** 				data->will.message.lenstring.len, data->will.message.lenstring.data);
  53:..\acn-sdk-c\src\mqtt\packet\src/MQTTFormat.c **** 	if (data->username.lenstring.data && data->username.lenstring.len > 0)
 123              		.loc 1 53 0
 124 0054 A26C     		ldr	r2, [r4, #72]
 125 0056 002A     		cmp	r2, #0
 126 0058 09D0     		beq	.L6
 127              		.loc 1 53 0 is_stmt 0 discriminator 1
 128 005a 636C     		ldr	r3, [r4, #68]
 129 005c 002B     		cmp	r3, #0
 130 005e 06DD     		ble	.L6
  54:..\acn-sdk-c\src\mqtt\packet\src/MQTTFormat.c **** 		strindex += snprintf(&strbuf[strindex], strbuflen - strindex,
 131              		.loc 1 54 0 is_stmt 1
 132 0060 7819     		add	r0, r7, r5
 133 0062 711B     		sub	r1, r6, r5
 134 0064 0092     		str	r2, [sp]
 135 0066 0C4A     		ldr	r2, .L18+8
 136 0068 FFF7FEFF 		bl	snprintf
 137              	.LVL9:
 138 006c 2D18     		add	r5, r5, r0
 139              	.LVL10:
 140              	.L6:
  55:..\acn-sdk-c\src\mqtt\packet\src/MQTTFormat.c **** 				", user name %.*s", data->username.lenstring.len, data->username.lenstring.data);
  56:..\acn-sdk-c\src\mqtt\packet\src/MQTTFormat.c **** 	if (data->password.lenstring.data && data->password.lenstring.len > 0)
 141              		.loc 1 56 0
 142 006e 626D     		ldr	r2, [r4, #84]
 143 0070 002A     		cmp	r2, #0
 144 0072 09D0     		beq	.L7
 145              		.loc 1 56 0 is_stmt 0 discriminator 1
 146 0074 236D     		ldr	r3, [r4, #80]
 147 0076 002B     		cmp	r3, #0
 148 0078 06DD     		ble	.L7
  57:..\acn-sdk-c\src\mqtt\packet\src/MQTTFormat.c **** 		strindex += snprintf(&strbuf[strindex], strbuflen - strindex,
 149              		.loc 1 57 0 is_stmt 1
 150 007a 7819     		add	r0, r7, r5
 151 007c 711B     		sub	r1, r6, r5
 152 007e 0092     		str	r2, [sp]
 153 0080 064A     		ldr	r2, .L18+12
 154 0082 FFF7FEFF 		bl	snprintf
 155              	.LVL11:
 156 0086 2D18     		add	r5, r5, r0
 157              	.LVL12:
 158              	.L7:
  58:..\acn-sdk-c\src\mqtt\packet\src/MQTTFormat.c **** 				", password %.*s", data->password.lenstring.len, data->password.lenstring.data);
  59:..\acn-sdk-c\src\mqtt\packet\src/MQTTFormat.c **** 	return strindex;
  60:..\acn-sdk-c\src\mqtt\packet\src/MQTTFormat.c **** }
 159              		.loc 1 60 0
 160 0088 281C     		mov	r0, r5
 161 008a 07B0     		add	sp, sp, #28
 162              		@ sp needed
ARM GAS  C:\Users\ddemidov\AppData\Local\Temp\ccOJqKhh.s 			page 5


 163              	.LVL13:
 164              	.LVL14:
 165              	.LVL15:
 166              	.LVL16:
 167 008c F0BD     		pop	{r4, r5, r6, r7, pc}
 168              	.L19:
 169 008e C046     		.align	2
 170              	.L18:
 171 0090 00000000 		.word	.LC1
 172 0094 49000000 		.word	.LC3
 173 0098 8B000000 		.word	.LC5
 174 009c 9C000000 		.word	.LC7
 175              		.cfi_endproc
 176              	.LFE1:
 177              		.size	MQTTStringFormat_connect, .-MQTTStringFormat_connect
 178              		.section	.text.MQTTStringFormat_connack,"ax",%progbits
 179              		.align	1
 180              		.global	MQTTStringFormat_connack
 181              		.code	16
 182              		.thumb_func
 183              		.type	MQTTStringFormat_connack, %function
 184              	MQTTStringFormat_connack:
 185              	.LFB2:
  61:..\acn-sdk-c\src\mqtt\packet\src/MQTTFormat.c **** 
  62:..\acn-sdk-c\src\mqtt\packet\src/MQTTFormat.c **** 
  63:..\acn-sdk-c\src\mqtt\packet\src/MQTTFormat.c **** int MQTTStringFormat_connack(char* strbuf, int strbuflen, unsigned char connack_rc, unsigned char s
  64:..\acn-sdk-c\src\mqtt\packet\src/MQTTFormat.c **** {
 186              		.loc 1 64 0
 187              		.cfi_startproc
 188              	.LVL17:
 189 0000 07B5     		push	{r0, r1, r2, lr}
 190              		.cfi_def_cfa_offset 16
 191              		.cfi_offset 0, -16
 192              		.cfi_offset 1, -12
 193              		.cfi_offset 2, -8
 194              		.cfi_offset 14, -4
  65:..\acn-sdk-c\src\mqtt\packet\src/MQTTFormat.c **** 	int strindex = snprintf(strbuf, strbuflen, "CONNACK session present %d, rc %d", sessionPresent, co
 195              		.loc 1 65 0
 196 0002 0092     		str	r2, [sp]
 197 0004 014A     		ldr	r2, .L21
 198              	.LVL18:
 199 0006 FFF7FEFF 		bl	snprintf
 200              	.LVL19:
  66:..\acn-sdk-c\src\mqtt\packet\src/MQTTFormat.c **** 	return strindex;
  67:..\acn-sdk-c\src\mqtt\packet\src/MQTTFormat.c **** }
 201              		.loc 1 67 0
 202              		@ sp needed
 203 000a 0EBD     		pop	{r1, r2, r3, pc}
 204              	.L22:
 205              		.align	2
 206              	.L21:
 207 000c AC000000 		.word	.LC9
 208              		.cfi_endproc
 209              	.LFE2:
 210              		.size	MQTTStringFormat_connack, .-MQTTStringFormat_connack
 211              		.section	.text.MQTTStringFormat_publish,"ax",%progbits
 212              		.align	1
ARM GAS  C:\Users\ddemidov\AppData\Local\Temp\ccOJqKhh.s 			page 6


 213              		.global	MQTTStringFormat_publish
 214              		.code	16
 215              		.thumb_func
 216              		.type	MQTTStringFormat_publish, %function
 217              	MQTTStringFormat_publish:
 218              	.LFB3:
  68:..\acn-sdk-c\src\mqtt\packet\src/MQTTFormat.c **** 
  69:..\acn-sdk-c\src\mqtt\packet\src/MQTTFormat.c **** 
  70:..\acn-sdk-c\src\mqtt\packet\src/MQTTFormat.c **** int MQTTStringFormat_publish(char* strbuf, int strbuflen, unsigned char dup, int qos, unsigned char
  71:..\acn-sdk-c\src\mqtt\packet\src/MQTTFormat.c **** 		unsigned short packetid, MQTTString topicName, unsigned char* payload, int payloadlen)
  72:..\acn-sdk-c\src\mqtt\packet\src/MQTTFormat.c **** {
 219              		.loc 1 72 0
 220              		.cfi_startproc
 221              	.LVL20:
 222 0000 30B5     		push	{r4, r5, lr}
 223              		.cfi_def_cfa_offset 12
 224              		.cfi_offset 4, -12
 225              		.cfi_offset 5, -8
 226              		.cfi_offset 14, -4
 227 0002 89B0     		sub	sp, sp, #36
 228              		.cfi_def_cfa_offset 48
 229              		.loc 1 72 0
 230 0004 141C     		mov	r4, r2
 231 0006 0CAA     		add	r2, sp, #48
 232              	.LVL21:
 233 0008 1578     		ldrb	r5, [r2]
 234 000a 0DAA     		add	r2, sp, #52
 235              	.LVL22:
 236 000c 1288     		ldrh	r2, [r2]
 237              	.LVL23:
  73:..\acn-sdk-c\src\mqtt\packet\src/MQTTFormat.c **** 	int strindex = snprintf(strbuf, strbuflen,
 238              		.loc 1 73 0
 239 000e 0093     		str	r3, [sp]
 240 0010 0F9B     		ldr	r3, [sp, #60]
 241              	.LVL24:
 242 0012 0195     		str	r5, [sp, #4]
 243 0014 0292     		str	r2, [sp, #8]
 244 0016 142B     		cmp	r3, #20
 245 0018 00DD     		ble	.L24
 246 001a 1423     		mov	r3, #20
 247              	.L24:
 248 001c 0393     		str	r3, [sp, #12]
 249 001e 109B     		ldr	r3, [sp, #64]
 250 0020 0493     		str	r3, [sp, #16]
 251 0022 129B     		ldr	r3, [sp, #72]
 252 0024 0593     		str	r3, [sp, #20]
 253 0026 142B     		cmp	r3, #20
 254 0028 00DD     		ble	.L25
 255 002a 1423     		mov	r3, #20
 256              	.L25:
 257 002c 0693     		str	r3, [sp, #24]
 258 002e 119B     		ldr	r3, [sp, #68]
 259 0030 034A     		ldr	r2, .L26
 260 0032 0793     		str	r3, [sp, #28]
 261 0034 231C     		mov	r3, r4
 262 0036 FFF7FEFF 		bl	snprintf
 263              	.LVL25:
ARM GAS  C:\Users\ddemidov\AppData\Local\Temp\ccOJqKhh.s 			page 7


  74:..\acn-sdk-c\src\mqtt\packet\src/MQTTFormat.c **** 				"PUBLISH dup %d, QoS %d, retained %d, packet id %d, topic %.*s, payload length %d, payload %.*s
  75:..\acn-sdk-c\src\mqtt\packet\src/MQTTFormat.c **** 				dup, qos, retained, packetid,
  76:..\acn-sdk-c\src\mqtt\packet\src/MQTTFormat.c **** 				(topicName.lenstring.len < 20) ? topicName.lenstring.len : 20, topicName.lenstring.data,
  77:..\acn-sdk-c\src\mqtt\packet\src/MQTTFormat.c **** 				payloadlen, (payloadlen < 20) ? payloadlen : 20, payload);
  78:..\acn-sdk-c\src\mqtt\packet\src/MQTTFormat.c **** 	return strindex;
  79:..\acn-sdk-c\src\mqtt\packet\src/MQTTFormat.c **** }
 264              		.loc 1 79 0
 265 003a 09B0     		add	sp, sp, #36
 266              		@ sp needed
 267 003c 30BD     		pop	{r4, r5, pc}
 268              	.L27:
 269 003e C046     		.align	2
 270              	.L26:
 271 0040 CE000000 		.word	.LC11
 272              		.cfi_endproc
 273              	.LFE3:
 274              		.size	MQTTStringFormat_publish, .-MQTTStringFormat_publish
 275              		.section	.text.MQTTStringFormat_ack,"ax",%progbits
 276              		.align	1
 277              		.global	MQTTStringFormat_ack
 278              		.code	16
 279              		.thumb_func
 280              		.type	MQTTStringFormat_ack, %function
 281              	MQTTStringFormat_ack:
 282              	.LFB4:
  80:..\acn-sdk-c\src\mqtt\packet\src/MQTTFormat.c **** 
  81:..\acn-sdk-c\src\mqtt\packet\src/MQTTFormat.c **** 
  82:..\acn-sdk-c\src\mqtt\packet\src/MQTTFormat.c **** int MQTTStringFormat_ack(char* strbuf, int strbuflen, unsigned char packettype, unsigned char dup, 
  83:..\acn-sdk-c\src\mqtt\packet\src/MQTTFormat.c **** {
 283              		.loc 1 83 0
 284              		.cfi_startproc
 285              	.LVL26:
 286 0000 F7B5     		push	{r0, r1, r2, r4, r5, r6, r7, lr}
 287              		.cfi_def_cfa_offset 32
 288              		.cfi_offset 0, -32
 289              		.cfi_offset 1, -28
 290              		.cfi_offset 2, -24
 291              		.cfi_offset 4, -20
 292              		.cfi_offset 5, -16
 293              		.cfi_offset 6, -12
 294              		.cfi_offset 7, -8
 295              		.cfi_offset 14, -4
 296              		.loc 1 83 0
 297 0002 0D1C     		mov	r5, r1
 298 0004 1E1C     		mov	r6, r3
 299 0006 08AB     		add	r3, sp, #32
 300              	.LVL27:
 301 0008 1988     		ldrh	r1, [r3]
 302              	.LVL28:
  84:..\acn-sdk-c\src\mqtt\packet\src/MQTTFormat.c **** 	int strindex = snprintf(strbuf, strbuflen, "%s, packet id %d", MQTTPacket_names[packettype], packe
 303              		.loc 1 84 0
 304 000a 0A4C     		ldr	r4, .L33
 305 000c 0091     		str	r1, [sp]
 306 000e 9300     		lsl	r3, r2, #2
 307              	.LVL29:
 308 0010 1B59     		ldr	r3, [r3, r4]
 309 0012 291C     		mov	r1, r5
ARM GAS  C:\Users\ddemidov\AppData\Local\Temp\ccOJqKhh.s 			page 8


 310 0014 084A     		ldr	r2, .L33+4
 311              	.LVL30:
  83:..\acn-sdk-c\src\mqtt\packet\src/MQTTFormat.c **** 	int strindex = snprintf(strbuf, strbuflen, "%s, packet id %d", MQTTPacket_names[packettype], packe
 312              		.loc 1 83 0
 313 0016 071C     		mov	r7, r0
 314              		.loc 1 84 0
 315 0018 FFF7FEFF 		bl	snprintf
 316              	.LVL31:
 317 001c 041C     		mov	r4, r0
 318              	.LVL32:
  85:..\acn-sdk-c\src\mqtt\packet\src/MQTTFormat.c **** 	if (dup)
 319              		.loc 1 85 0
 320 001e 002E     		cmp	r6, #0
 321 0020 06D0     		beq	.L29
  86:..\acn-sdk-c\src\mqtt\packet\src/MQTTFormat.c **** 		strindex += snprintf(strbuf + strindex, strbuflen - strindex, ", dup %d", dup);
 322              		.loc 1 86 0
 323 0022 291B     		sub	r1, r5, r4
 324 0024 3818     		add	r0, r7, r0
 325              	.LVL33:
 326 0026 054A     		ldr	r2, .L33+8
 327 0028 331C     		mov	r3, r6
 328 002a FFF7FEFF 		bl	snprintf
 329              	.LVL34:
 330 002e 2418     		add	r4, r4, r0
 331              	.LVL35:
 332              	.L29:
  87:..\acn-sdk-c\src\mqtt\packet\src/MQTTFormat.c **** 	return strindex;
  88:..\acn-sdk-c\src\mqtt\packet\src/MQTTFormat.c **** }
 333              		.loc 1 88 0
 334 0030 201C     		mov	r0, r4
 335              		@ sp needed
 336              	.LVL36:
 337              	.LVL37:
 338              	.LVL38:
 339 0032 FEBD     		pop	{r1, r2, r3, r4, r5, r6, r7, pc}
 340              	.L34:
 341              		.align	2
 342              	.L33:
 343 0034 00000000 		.word	.LANCHOR0
 344 0038 2D010000 		.word	.LC13
 345 003c 3E010000 		.word	.LC16
 346              		.cfi_endproc
 347              	.LFE4:
 348              		.size	MQTTStringFormat_ack, .-MQTTStringFormat_ack
 349              		.section	.text.MQTTStringFormat_subscribe,"ax",%progbits
 350              		.align	1
 351              		.global	MQTTStringFormat_subscribe
 352              		.code	16
 353              		.thumb_func
 354              		.type	MQTTStringFormat_subscribe, %function
 355              	MQTTStringFormat_subscribe:
 356              	.LFB5:
  89:..\acn-sdk-c\src\mqtt\packet\src/MQTTFormat.c **** 
  90:..\acn-sdk-c\src\mqtt\packet\src/MQTTFormat.c **** 
  91:..\acn-sdk-c\src\mqtt\packet\src/MQTTFormat.c **** int MQTTStringFormat_subscribe(char* strbuf, int strbuflen, unsigned char dup, unsigned short packe
  92:..\acn-sdk-c\src\mqtt\packet\src/MQTTFormat.c **** 		MQTTString topicFilters[], int requestedQoSs[])
  93:..\acn-sdk-c\src\mqtt\packet\src/MQTTFormat.c **** {
ARM GAS  C:\Users\ddemidov\AppData\Local\Temp\ccOJqKhh.s 			page 9


 357              		.loc 1 93 0
 358              		.cfi_startproc
 359              	.LVL39:
 360 0000 10B5     		push	{r4, lr}
 361              		.cfi_def_cfa_offset 8
 362              		.cfi_offset 4, -8
 363              		.cfi_offset 14, -4
 364 0002 141C     		mov	r4, r2
 365 0004 86B0     		sub	sp, sp, #24
 366              		.cfi_def_cfa_offset 32
  94:..\acn-sdk-c\src\mqtt\packet\src/MQTTFormat.c **** 	return snprintf(strbuf, strbuflen,
 367              		.loc 1 94 0
 368 0006 0093     		str	r3, [sp]
 369 0008 089B     		ldr	r3, [sp, #32]
 370              	.LVL40:
  93:..\acn-sdk-c\src\mqtt\packet\src/MQTTFormat.c **** 	return snprintf(strbuf, strbuflen,
 371              		.loc 1 93 0
 372 000a 099A     		ldr	r2, [sp, #36]
 373              	.LVL41:
 374              		.loc 1 94 0
 375 000c 0193     		str	r3, [sp, #4]
 376 000e 5368     		ldr	r3, [r2, #4]
 377 0010 0293     		str	r3, [sp, #8]
 378 0012 9368     		ldr	r3, [r2, #8]
 379 0014 044A     		ldr	r2, .L36
 380 0016 0393     		str	r3, [sp, #12]
 381 0018 0A9B     		ldr	r3, [sp, #40]
 382 001a 1B68     		ldr	r3, [r3]
 383 001c 0493     		str	r3, [sp, #16]
 384 001e 231C     		mov	r3, r4
 385 0020 FFF7FEFF 		bl	snprintf
 386              	.LVL42:
  95:..\acn-sdk-c\src\mqtt\packet\src/MQTTFormat.c **** 		"SUBSCRIBE dup %d, packet id %d count %d topic %.*s qos %d",
  96:..\acn-sdk-c\src\mqtt\packet\src/MQTTFormat.c **** 		dup, packetid, count,
  97:..\acn-sdk-c\src\mqtt\packet\src/MQTTFormat.c **** 		topicFilters[0].lenstring.len, topicFilters[0].lenstring.data,
  98:..\acn-sdk-c\src\mqtt\packet\src/MQTTFormat.c **** 		requestedQoSs[0]);
  99:..\acn-sdk-c\src\mqtt\packet\src/MQTTFormat.c **** }
 387              		.loc 1 99 0
 388 0024 06B0     		add	sp, sp, #24
 389              		@ sp needed
 390 0026 10BD     		pop	{r4, pc}
 391              	.L37:
 392              		.align	2
 393              	.L36:
 394 0028 47010000 		.word	.LC18
 395              		.cfi_endproc
 396              	.LFE5:
 397              		.size	MQTTStringFormat_subscribe, .-MQTTStringFormat_subscribe
 398              		.section	.text.MQTTStringFormat_suback,"ax",%progbits
 399              		.align	1
 400              		.global	MQTTStringFormat_suback
 401              		.code	16
 402              		.thumb_func
 403              		.type	MQTTStringFormat_suback, %function
 404              	MQTTStringFormat_suback:
 405              	.LFB6:
 100:..\acn-sdk-c\src\mqtt\packet\src/MQTTFormat.c **** 
ARM GAS  C:\Users\ddemidov\AppData\Local\Temp\ccOJqKhh.s 			page 10


 101:..\acn-sdk-c\src\mqtt\packet\src/MQTTFormat.c **** 
 102:..\acn-sdk-c\src\mqtt\packet\src/MQTTFormat.c **** int MQTTStringFormat_suback(char* strbuf, int strbuflen, unsigned short packetid, int count, int* g
 103:..\acn-sdk-c\src\mqtt\packet\src/MQTTFormat.c **** {
 406              		.loc 1 103 0
 407              		.cfi_startproc
 408              	.LVL43:
 409 0000 13B5     		push	{r0, r1, r4, lr}
 410              		.cfi_def_cfa_offset 16
 411              		.cfi_offset 0, -16
 412              		.cfi_offset 1, -12
 413              		.cfi_offset 4, -8
 414              		.cfi_offset 14, -4
 415              		.loc 1 103 0
 416 0002 141C     		mov	r4, r2
 104:..\acn-sdk-c\src\mqtt\packet\src/MQTTFormat.c **** 	return snprintf(strbuf, strbuflen,
 417              		.loc 1 104 0
 418 0004 0093     		str	r3, [sp]
 419 0006 049B     		ldr	r3, [sp, #16]
 420              	.LVL44:
 421 0008 034A     		ldr	r2, .L39
 422              	.LVL45:
 423 000a 1B68     		ldr	r3, [r3]
 105:..\acn-sdk-c\src\mqtt\packet\src/MQTTFormat.c **** 		"SUBACK packet id %d count %d granted qos %d", packetid, count, grantedQoSs[0]);
 106:..\acn-sdk-c\src\mqtt\packet\src/MQTTFormat.c **** }
 424              		.loc 1 106 0
 425              		@ sp needed
 104:..\acn-sdk-c\src\mqtt\packet\src/MQTTFormat.c **** 	return snprintf(strbuf, strbuflen,
 426              		.loc 1 104 0
 427 000c 0193     		str	r3, [sp, #4]
 428 000e 231C     		mov	r3, r4
 429 0010 FFF7FEFF 		bl	snprintf
 430              	.LVL46:
 431              		.loc 1 106 0
 432 0014 16BD     		pop	{r1, r2, r4, pc}
 433              	.L40:
 434 0016 C046     		.align	2
 435              	.L39:
 436 0018 81010000 		.word	.LC20
 437              		.cfi_endproc
 438              	.LFE6:
 439              		.size	MQTTStringFormat_suback, .-MQTTStringFormat_suback
 440              		.section	.text.MQTTStringFormat_unsubscribe,"ax",%progbits
 441              		.align	1
 442              		.global	MQTTStringFormat_unsubscribe
 443              		.code	16
 444              		.thumb_func
 445              		.type	MQTTStringFormat_unsubscribe, %function
 446              	MQTTStringFormat_unsubscribe:
 447              	.LFB7:
 107:..\acn-sdk-c\src\mqtt\packet\src/MQTTFormat.c **** 
 108:..\acn-sdk-c\src\mqtt\packet\src/MQTTFormat.c **** 
 109:..\acn-sdk-c\src\mqtt\packet\src/MQTTFormat.c **** int MQTTStringFormat_unsubscribe(char* strbuf, int strbuflen, unsigned char dup, unsigned short pac
 110:..\acn-sdk-c\src\mqtt\packet\src/MQTTFormat.c **** 		int count, MQTTString topicFilters[])
 111:..\acn-sdk-c\src\mqtt\packet\src/MQTTFormat.c **** {
 448              		.loc 1 111 0
 449              		.cfi_startproc
 450              	.LVL47:
ARM GAS  C:\Users\ddemidov\AppData\Local\Temp\ccOJqKhh.s 			page 11


 451 0000 1FB5     		push	{r0, r1, r2, r3, r4, lr}
 452              		.cfi_def_cfa_offset 24
 453              		.cfi_offset 0, -24
 454              		.cfi_offset 1, -20
 455              		.cfi_offset 2, -16
 456              		.cfi_offset 3, -12
 457              		.cfi_offset 4, -8
 458              		.cfi_offset 14, -4
 459              		.loc 1 111 0
 460 0002 141C     		mov	r4, r2
 112:..\acn-sdk-c\src\mqtt\packet\src/MQTTFormat.c **** 	return snprintf(strbuf, strbuflen,
 461              		.loc 1 112 0
 462 0004 0093     		str	r3, [sp]
 463 0006 069B     		ldr	r3, [sp, #24]
 464              	.LVL48:
 111:..\acn-sdk-c\src\mqtt\packet\src/MQTTFormat.c **** 	return snprintf(strbuf, strbuflen,
 465              		.loc 1 111 0
 466 0008 079A     		ldr	r2, [sp, #28]
 467              	.LVL49:
 468              		.loc 1 112 0
 469 000a 0193     		str	r3, [sp, #4]
 470 000c 5368     		ldr	r3, [r2, #4]
 471 000e 0293     		str	r3, [sp, #8]
 472 0010 9368     		ldr	r3, [r2, #8]
 473 0012 034A     		ldr	r2, .L42
 474 0014 0393     		str	r3, [sp, #12]
 475 0016 231C     		mov	r3, r4
 476 0018 FFF7FEFF 		bl	snprintf
 477              	.LVL50:
 113:..\acn-sdk-c\src\mqtt\packet\src/MQTTFormat.c **** 					"UNSUBSCRIBE dup %d, packet id %d count %d topic %.*s",
 114:..\acn-sdk-c\src\mqtt\packet\src/MQTTFormat.c **** 					dup, packetid, count,
 115:..\acn-sdk-c\src\mqtt\packet\src/MQTTFormat.c **** 					topicFilters[0].lenstring.len, topicFilters[0].lenstring.data);
 116:..\acn-sdk-c\src\mqtt\packet\src/MQTTFormat.c **** }
 478              		.loc 1 116 0
 479 001c 04B0     		add	sp, sp, #16
 480              		@ sp needed
 481 001e 10BD     		pop	{r4, pc}
 482              	.L43:
 483              		.align	2
 484              	.L42:
 485 0020 AD010000 		.word	.LC22
 486              		.cfi_endproc
 487              	.LFE7:
 488              		.size	MQTTStringFormat_unsubscribe, .-MQTTStringFormat_unsubscribe
 489              		.section	.text.MQTTFormat_toClientString,"ax",%progbits
 490              		.align	1
 491              		.global	MQTTFormat_toClientString
 492              		.code	16
 493              		.thumb_func
 494              		.type	MQTTFormat_toClientString, %function
 495              	MQTTFormat_toClientString:
 496              	.LFB8:
 117:..\acn-sdk-c\src\mqtt\packet\src/MQTTFormat.c **** 
 118:..\acn-sdk-c\src\mqtt\packet\src/MQTTFormat.c **** 
 119:..\acn-sdk-c\src\mqtt\packet\src/MQTTFormat.c **** char* MQTTFormat_toClientString(char* strbuf, int strbuflen, unsigned char* buf, int buflen)
 120:..\acn-sdk-c\src\mqtt\packet\src/MQTTFormat.c **** {
 497              		.loc 1 120 0
ARM GAS  C:\Users\ddemidov\AppData\Local\Temp\ccOJqKhh.s 			page 12


 498              		.cfi_startproc
 499              	.LVL51:
 500 0000 F0B5     		push	{r4, r5, r6, r7, lr}
 501              		.cfi_def_cfa_offset 20
 502              		.cfi_offset 4, -20
 503              		.cfi_offset 5, -16
 504              		.cfi_offset 6, -12
 505              		.cfi_offset 7, -8
 506              		.cfi_offset 14, -4
 507 0002 93B0     		sub	sp, sp, #76
 508              		.cfi_def_cfa_offset 96
 509              		.loc 1 120 0
 510 0004 0993     		str	r3, [sp, #36]
 121:..\acn-sdk-c\src\mqtt\packet\src/MQTTFormat.c **** 	int index = 0;
 122:..\acn-sdk-c\src\mqtt\packet\src/MQTTFormat.c **** 	int rem_length = 0;
 511              		.loc 1 122 0
 512 0006 0023     		mov	r3, #0
 513              	.LVL52:
 123:..\acn-sdk-c\src\mqtt\packet\src/MQTTFormat.c **** 	MQTTHeader header = {0};
 124:..\acn-sdk-c\src\mqtt\packet\src/MQTTFormat.c **** 	int strindex = 0;
 125:..\acn-sdk-c\src\mqtt\packet\src/MQTTFormat.c **** 
 126:..\acn-sdk-c\src\mqtt\packet\src/MQTTFormat.c **** 	header.byte = buf[index++];
 514              		.loc 1 126 0
 515 0008 1578     		ldrb	r5, [r2]
 120:..\acn-sdk-c\src\mqtt\packet\src/MQTTFormat.c **** 	int index = 0;
 516              		.loc 1 120 0
 517 000a 071C     		mov	r7, r0
 518 000c 0E1C     		mov	r6, r1
 127:..\acn-sdk-c\src\mqtt\packet\src/MQTTFormat.c **** 	index += MQTTPacket_decodeBuf(&buf[index], &rem_length);
 519              		.loc 1 127 0
 520 000e 501C     		add	r0, r2, #1
 521              	.LVL53:
 522 0010 0BA9     		add	r1, sp, #44
 523              	.LVL54:
 128:..\acn-sdk-c\src\mqtt\packet\src/MQTTFormat.c **** 
 129:..\acn-sdk-c\src\mqtt\packet\src/MQTTFormat.c **** 	switch (header.bits.type)
 524              		.loc 1 129 0
 525 0012 2D09     		lsr	r5, r5, #4
 122:..\acn-sdk-c\src\mqtt\packet\src/MQTTFormat.c **** 	MQTTHeader header = {0};
 526              		.loc 1 122 0
 527 0014 0B93     		str	r3, [sp, #44]
 528              	.LVL55:
 120:..\acn-sdk-c\src\mqtt\packet\src/MQTTFormat.c **** 	int index = 0;
 529              		.loc 1 120 0
 530 0016 141C     		mov	r4, r2
 127:..\acn-sdk-c\src\mqtt\packet\src/MQTTFormat.c **** 
 531              		.loc 1 127 0
 532 0018 FFF7FEFF 		bl	MQTTPacket_decodeBuf
 533              	.LVL56:
 534              		.loc 1 129 0
 535 001c A81E     		sub	r0, r5, #2
 536 001e 0023     		mov	r3, #0
 537 0020 0C28     		cmp	r0, #12
 538 0022 00D9     		bls	.LCB564
 539 0024 93E0     		b	.L45	@long jump
 540              	.LCB564:
 541 0026 FFF7FEFF 		bl	__gnu_thumb1_case_uqi
ARM GAS  C:\Users\ddemidov\AppData\Local\Temp\ccOJqKhh.s 			page 13


 542              	.L47:
 543 002a 07       		.byte	(.L46-.L47)/2
 544 002b 1B       		.byte	(.L48-.L47)/2
 545 002c 4D       		.byte	(.L49-.L47)/2
 546 002d 4D       		.byte	(.L49-.L47)/2
 547 002e 4D       		.byte	(.L49-.L47)/2
 548 002f 4D       		.byte	(.L49-.L47)/2
 549 0030 92       		.byte	(.L45-.L47)/2
 550 0031 63       		.byte	(.L50-.L47)/2
 551 0032 92       		.byte	(.L45-.L47)/2
 552 0033 79       		.byte	(.L51-.L47)/2
 553 0034 8A       		.byte	(.L52-.L47)/2
 554 0035 8A       		.byte	(.L52-.L47)/2
 555 0036 8A       		.byte	(.L52-.L47)/2
 556 0037 00       		.p2align 1
 557              	.L46:
 558              	.LBB2:
 130:..\acn-sdk-c\src\mqtt\packet\src/MQTTFormat.c **** 	{
 131:..\acn-sdk-c\src\mqtt\packet\src/MQTTFormat.c **** 	case CONNACK:
 132:..\acn-sdk-c\src\mqtt\packet\src/MQTTFormat.c **** 	{
 133:..\acn-sdk-c\src\mqtt\packet\src/MQTTFormat.c **** 		unsigned char sessionPresent, connack_rc;
 134:..\acn-sdk-c\src\mqtt\packet\src/MQTTFormat.c **** 		if (MQTTDeserialize_connack(&sessionPresent, &connack_rc, buf, buflen) == 1)
 559              		.loc 1 134 0
 560 0038 0FAD     		add	r5, sp, #60
 561 003a 0EA8     		add	r0, sp, #56
 562 003c 291C     		mov	r1, r5
 563 003e 221C     		mov	r2, r4
 564 0040 099B     		ldr	r3, [sp, #36]
 565 0042 FFF7FEFF 		bl	MQTTDeserialize_connack
 566              	.LVL57:
 567 0046 0128     		cmp	r0, #1
 568 0048 00D0     		beq	.LCB581
 569 004a 80E0     		b	.L45	@long jump
 570              	.LCB581:
 135:..\acn-sdk-c\src\mqtt\packet\src/MQTTFormat.c **** 			strindex = MQTTStringFormat_connack(strbuf, strbuflen, connack_rc, sessionPresent);
 571              		.loc 1 135 0
 572 004c 3021     		mov	r1, #48
 573 004e 02AB     		add	r3, sp, #8
 574 0050 5B18     		add	r3, r3, r1
 575 0052 2A78     		ldrb	r2, [r5]
 576 0054 1B78     		ldrb	r3, [r3]
 577 0056 381C     		mov	r0, r7
 578 0058 311C     		mov	r1, r6
 579 005a FFF7FEFF 		bl	MQTTStringFormat_connack
 580              	.LVL58:
 581              	.LBE2:
 136:..\acn-sdk-c\src\mqtt\packet\src/MQTTFormat.c **** 	}
 137:..\acn-sdk-c\src\mqtt\packet\src/MQTTFormat.c **** 	break;
 582              		.loc 1 137 0
 583 005e 76E0     		b	.L45
 584              	.LVL59:
 585              	.L48:
 586              	.LBB3:
 138:..\acn-sdk-c\src\mqtt\packet\src/MQTTFormat.c **** 	case PUBLISH:
 139:..\acn-sdk-c\src\mqtt\packet\src/MQTTFormat.c **** 	{
 140:..\acn-sdk-c\src\mqtt\packet\src/MQTTFormat.c **** 		unsigned char dup, retained, *payload;
 141:..\acn-sdk-c\src\mqtt\packet\src/MQTTFormat.c **** 		unsigned short packetid;
ARM GAS  C:\Users\ddemidov\AppData\Local\Temp\ccOJqKhh.s 			page 14


 142:..\acn-sdk-c\src\mqtt\packet\src/MQTTFormat.c **** 		int qos, payloadlen;
 143:..\acn-sdk-c\src\mqtt\packet\src/MQTTFormat.c **** 		MQTTString topicName = MQTTString_initializer;
 587              		.loc 1 143 0
 588 0060 0F93     		str	r3, [sp, #60]
 589 0062 1093     		str	r3, [sp, #64]
 590 0064 1193     		str	r3, [sp, #68]
 144:..\acn-sdk-c\src\mqtt\packet\src/MQTTFormat.c **** 		if (MQTTDeserialize_publish(&dup, &qos, &retained, &packetid, &topicName,
 591              		.loc 1 144 0
 592 0066 0CAB     		add	r3, sp, #48
 593 0068 0193     		str	r3, [sp, #4]
 594 006a 0EAB     		add	r3, sp, #56
 595 006c 0293     		str	r3, [sp, #8]
 596 006e 099B     		ldr	r3, [sp, #36]
 597 0070 02AA     		add	r2, sp, #8
 598 0072 0493     		str	r3, [sp, #16]
 599 0074 2123     		mov	r3, #33
 600 0076 9B18     		add	r3, r3, r2
 601 0078 1A1C     		mov	r2, r3
 602 007a 2223     		mov	r3, #34
 143:..\acn-sdk-c\src\mqtt\packet\src/MQTTFormat.c **** 		if (MQTTDeserialize_publish(&dup, &qos, &retained, &packetid, &topicName,
 603              		.loc 1 143 0
 604 007c 0FAD     		add	r5, sp, #60
 605              		.loc 1 144 0
 606 007e 0394     		str	r4, [sp, #12]
 607 0080 02AC     		add	r4, sp, #8
 608              	.LVL60:
 609 0082 0095     		str	r5, [sp]
 610 0084 0AA8     		add	r0, sp, #40
 611 0086 0DA9     		add	r1, sp, #52
 612 0088 1B19     		add	r3, r3, r4
 613 008a FFF7FEFF 		bl	MQTTDeserialize_publish
 614              	.LVL61:
 615 008e 0128     		cmp	r0, #1
 616 0090 5DD1     		bne	.L45
 145:..\acn-sdk-c\src\mqtt\packet\src/MQTTFormat.c **** 				&payload, &payloadlen, buf, buflen) == 1)
 146:..\acn-sdk-c\src\mqtt\packet\src/MQTTFormat.c **** 			strindex = MQTTStringFormat_publish(strbuf, strbuflen, dup, qos, retained, packetid,
 617              		.loc 1 146 0
 618 0092 2022     		mov	r2, #32
 619 0094 2121     		mov	r1, #33
 620 0096 02AB     		add	r3, sp, #8
 621 0098 9B18     		add	r3, r3, r2
 622 009a 1A78     		ldrb	r2, [r3]
 623 009c 02AB     		add	r3, sp, #8
 624 009e 5B18     		add	r3, r3, r1
 625 00a0 1B78     		ldrb	r3, [r3]
 626 00a2 0093     		str	r3, [sp]
 627 00a4 02AB     		add	r3, sp, #8
 628 00a6 5B8C     		ldrh	r3, [r3, #34]
 629 00a8 0193     		str	r3, [sp, #4]
 630 00aa 02AB     		add	r3, sp, #8
 631 00ac 13CD     		ldmia	r5!, {r0, r1, r4}
 632 00ae 13C3     		stmia	r3!, {r0, r1, r4}
 633 00b0 0C9B     		ldr	r3, [sp, #48]
 634 00b2 381C     		mov	r0, r7
 635 00b4 0593     		str	r3, [sp, #20]
 636 00b6 0E9B     		ldr	r3, [sp, #56]
 637 00b8 311C     		mov	r1, r6
ARM GAS  C:\Users\ddemidov\AppData\Local\Temp\ccOJqKhh.s 			page 15


 638 00ba 0693     		str	r3, [sp, #24]
 639 00bc 0D9B     		ldr	r3, [sp, #52]
 640 00be FFF7FEFF 		bl	MQTTStringFormat_publish
 641              	.LVL62:
 642              	.LBE3:
 147:..\acn-sdk-c\src\mqtt\packet\src/MQTTFormat.c **** 					topicName, payload, payloadlen);
 148:..\acn-sdk-c\src\mqtt\packet\src/MQTTFormat.c **** 	}
 149:..\acn-sdk-c\src\mqtt\packet\src/MQTTFormat.c **** 	break;
 643              		.loc 1 149 0
 644 00c2 44E0     		b	.L45
 645              	.LVL63:
 646              	.L49:
 647              	.LBB4:
 150:..\acn-sdk-c\src\mqtt\packet\src/MQTTFormat.c **** 	case PUBACK:
 151:..\acn-sdk-c\src\mqtt\packet\src/MQTTFormat.c **** 	case PUBREC:
 152:..\acn-sdk-c\src\mqtt\packet\src/MQTTFormat.c **** 	case PUBREL:
 153:..\acn-sdk-c\src\mqtt\packet\src/MQTTFormat.c **** 	case PUBCOMP:
 154:..\acn-sdk-c\src\mqtt\packet\src/MQTTFormat.c **** 	{
 155:..\acn-sdk-c\src\mqtt\packet\src/MQTTFormat.c **** 		unsigned char packettype, dup;
 156:..\acn-sdk-c\src\mqtt\packet\src/MQTTFormat.c **** 		unsigned short packetid;
 157:..\acn-sdk-c\src\mqtt\packet\src/MQTTFormat.c **** 		if (MQTTDeserialize_ack(&packettype, &dup, &packetid, buf, buflen) == 1)
 648              		.loc 1 157 0
 649 00c4 099B     		ldr	r3, [sp, #36]
 650 00c6 0DAD     		add	r5, sp, #52
 651 00c8 0093     		str	r3, [sp]
 652 00ca 281C     		mov	r0, r5
 653 00cc 0EA9     		add	r1, sp, #56
 654 00ce 0FAA     		add	r2, sp, #60
 655 00d0 231C     		mov	r3, r4
 656 00d2 FFF7FEFF 		bl	MQTTDeserialize_ack
 657              	.LVL64:
 658 00d6 0128     		cmp	r0, #1
 659 00d8 39D1     		bne	.L45
 158:..\acn-sdk-c\src\mqtt\packet\src/MQTTFormat.c **** 			strindex = MQTTStringFormat_ack(strbuf, strbuflen, packettype, dup, packetid);
 660              		.loc 1 158 0
 661 00da 3021     		mov	r1, #48
 662 00dc 02AB     		add	r3, sp, #8
 663 00de 5B18     		add	r3, r3, r1
 664 00e0 02A9     		add	r1, sp, #8
 665 00e2 898E     		ldrh	r1, [r1, #52]
 666 00e4 2A78     		ldrb	r2, [r5]
 667 00e6 1B78     		ldrb	r3, [r3]
 668 00e8 381C     		mov	r0, r7
 669 00ea 0091     		str	r1, [sp]
 670 00ec 311C     		mov	r1, r6
 671 00ee 23E0     		b	.L58
 672              	.L50:
 673              	.LVL65:
 674              	.LBE4:
 675              	.LBB5:
 159:..\acn-sdk-c\src\mqtt\packet\src/MQTTFormat.c **** 	}
 160:..\acn-sdk-c\src\mqtt\packet\src/MQTTFormat.c **** 	break;
 161:..\acn-sdk-c\src\mqtt\packet\src/MQTTFormat.c **** 	case SUBACK:
 162:..\acn-sdk-c\src\mqtt\packet\src/MQTTFormat.c **** 	{
 163:..\acn-sdk-c\src\mqtt\packet\src/MQTTFormat.c **** 		unsigned short packetid;
 164:..\acn-sdk-c\src\mqtt\packet\src/MQTTFormat.c **** 		int maxcount = 1, count = 0;
 676              		.loc 1 164 0
ARM GAS  C:\Users\ddemidov\AppData\Local\Temp\ccOJqKhh.s 			page 16


 677 00f0 0E93     		str	r3, [sp, #56]
 165:..\acn-sdk-c\src\mqtt\packet\src/MQTTFormat.c **** 		int grantedQoSs[1];
 166:..\acn-sdk-c\src\mqtt\packet\src/MQTTFormat.c **** 		if (MQTTDeserialize_suback(&packetid, maxcount, &count, grantedQoSs, buf, buflen) == 1)
 678              		.loc 1 166 0
 679 00f2 099B     		ldr	r3, [sp, #36]
 680 00f4 0DAD     		add	r5, sp, #52
 681 00f6 0193     		str	r3, [sp, #4]
 682 00f8 0094     		str	r4, [sp]
 683 00fa 281C     		mov	r0, r5
 684 00fc 0121     		mov	r1, #1
 685 00fe 0EAA     		add	r2, sp, #56
 686 0100 0FAB     		add	r3, sp, #60
 687 0102 FFF7FEFF 		bl	MQTTDeserialize_suback
 688              	.LVL66:
 689 0106 0128     		cmp	r0, #1
 690 0108 21D1     		bne	.L45
 167:..\acn-sdk-c\src\mqtt\packet\src/MQTTFormat.c **** 			strindex = MQTTStringFormat_suback(strbuf, strbuflen, packetid, count, grantedQoSs);
 691              		.loc 1 167 0
 692 010a 0FAB     		add	r3, sp, #60
 693 010c 2A88     		ldrh	r2, [r5]
 694 010e 381C     		mov	r0, r7
 695 0110 0093     		str	r3, [sp]
 696 0112 311C     		mov	r1, r6
 697 0114 0E9B     		ldr	r3, [sp, #56]
 698 0116 FFF7FEFF 		bl	MQTTStringFormat_suback
 699              	.LVL67:
 700              	.LBE5:
 168:..\acn-sdk-c\src\mqtt\packet\src/MQTTFormat.c **** 	}
 169:..\acn-sdk-c\src\mqtt\packet\src/MQTTFormat.c **** 	break;
 701              		.loc 1 169 0
 702 011a 18E0     		b	.L45
 703              	.LVL68:
 704              	.L51:
 705              	.LBB6:
 170:..\acn-sdk-c\src\mqtt\packet\src/MQTTFormat.c **** 	case UNSUBACK:
 171:..\acn-sdk-c\src\mqtt\packet\src/MQTTFormat.c **** 	{
 172:..\acn-sdk-c\src\mqtt\packet\src/MQTTFormat.c **** 		unsigned short packetid;
 173:..\acn-sdk-c\src\mqtt\packet\src/MQTTFormat.c **** 		if (MQTTDeserialize_unsuback(&packetid, buf, buflen) == 1)
 706              		.loc 1 173 0
 707 011c 0FAD     		add	r5, sp, #60
 708 011e 281C     		mov	r0, r5
 709 0120 211C     		mov	r1, r4
 710 0122 099A     		ldr	r2, [sp, #36]
 711 0124 FFF7FEFF 		bl	MQTTDeserialize_unsuback
 712              	.LVL69:
 713 0128 0128     		cmp	r0, #1
 714 012a 10D1     		bne	.L45
 174:..\acn-sdk-c\src\mqtt\packet\src/MQTTFormat.c **** 			strindex = MQTTStringFormat_ack(strbuf, strbuflen, UNSUBACK, 0, packetid);
 715              		.loc 1 174 0
 716 012c 2B88     		ldrh	r3, [r5]
 717 012e 381C     		mov	r0, r7
 718 0130 0093     		str	r3, [sp]
 719 0132 311C     		mov	r1, r6
 720 0134 0B22     		mov	r2, #11
 721 0136 0023     		mov	r3, #0
 722              	.LVL70:
 723              	.L58:
ARM GAS  C:\Users\ddemidov\AppData\Local\Temp\ccOJqKhh.s 			page 17


 724 0138 FFF7FEFF 		bl	MQTTStringFormat_ack
 725              	.LVL71:
 726              	.LBE6:
 175:..\acn-sdk-c\src\mqtt\packet\src/MQTTFormat.c **** 	}
 176:..\acn-sdk-c\src\mqtt\packet\src/MQTTFormat.c **** 	break;
 727              		.loc 1 176 0
 728 013c 07E0     		b	.L45
 729              	.LVL72:
 730              	.L52:
 177:..\acn-sdk-c\src\mqtt\packet\src/MQTTFormat.c **** 	case PINGREQ:
 178:..\acn-sdk-c\src\mqtt\packet\src/MQTTFormat.c **** 	case PINGRESP:
 179:..\acn-sdk-c\src\mqtt\packet\src/MQTTFormat.c **** 	case DISCONNECT:
 180:..\acn-sdk-c\src\mqtt\packet\src/MQTTFormat.c **** 		strindex = snprintf(strbuf, strbuflen, "%s", MQTTPacket_names[header.bits.type]);
 731              		.loc 1 180 0
 732 013e 054B     		ldr	r3, .L59
 733 0140 AD00     		lsl	r5, r5, #2
 734 0142 381C     		mov	r0, r7
 735 0144 311C     		mov	r1, r6
 736 0146 044A     		ldr	r2, .L59+4
 737 0148 EB58     		ldr	r3, [r5, r3]
 738 014a FFF7FEFF 		bl	snprintf
 739              	.LVL73:
 740              	.L45:
 181:..\acn-sdk-c\src\mqtt\packet\src/MQTTFormat.c **** 		break;
 182:..\acn-sdk-c\src\mqtt\packet\src/MQTTFormat.c **** 	}
 183:..\acn-sdk-c\src\mqtt\packet\src/MQTTFormat.c **** 	return strbuf;
 184:..\acn-sdk-c\src\mqtt\packet\src/MQTTFormat.c **** }
 741              		.loc 1 184 0
 742 014e 381C     		mov	r0, r7
 743 0150 13B0     		add	sp, sp, #76
 744              		@ sp needed
 745              	.LVL74:
 746              	.LVL75:
 747 0152 F0BD     		pop	{r4, r5, r6, r7, pc}
 748              	.L60:
 749              		.align	2
 750              	.L59:
 751 0154 00000000 		.word	.LANCHOR0
 752 0158 E2010000 		.word	.LC24
 753              		.cfi_endproc
 754              	.LFE8:
 755              		.size	MQTTFormat_toClientString, .-MQTTFormat_toClientString
 756              		.section	.text.MQTTFormat_toServerString,"ax",%progbits
 757              		.align	1
 758              		.global	MQTTFormat_toServerString
 759              		.code	16
 760              		.thumb_func
 761              		.type	MQTTFormat_toServerString, %function
 762              	MQTTFormat_toServerString:
 763              	.LFB9:
 185:..\acn-sdk-c\src\mqtt\packet\src/MQTTFormat.c **** 
 186:..\acn-sdk-c\src\mqtt\packet\src/MQTTFormat.c **** 
 187:..\acn-sdk-c\src\mqtt\packet\src/MQTTFormat.c **** char* MQTTFormat_toServerString(char* strbuf, int strbuflen, unsigned char* buf, int buflen)
 188:..\acn-sdk-c\src\mqtt\packet\src/MQTTFormat.c **** {
 764              		.loc 1 188 0
 765              		.cfi_startproc
 766              	.LVL76:
ARM GAS  C:\Users\ddemidov\AppData\Local\Temp\ccOJqKhh.s 			page 18


 767 0000 F0B5     		push	{r4, r5, r6, r7, lr}
 768              		.cfi_def_cfa_offset 20
 769              		.cfi_offset 4, -20
 770              		.cfi_offset 5, -16
 771              		.cfi_offset 6, -12
 772              		.cfi_offset 7, -8
 773              		.cfi_offset 14, -4
 189:..\acn-sdk-c\src\mqtt\packet\src/MQTTFormat.c **** 	int index = 0;
 190:..\acn-sdk-c\src\mqtt\packet\src/MQTTFormat.c **** 	int rem_length = 0;
 774              		.loc 1 190 0
 775 0002 0026     		mov	r6, #0
 191:..\acn-sdk-c\src\mqtt\packet\src/MQTTFormat.c **** 	MQTTHeader header = {0};
 192:..\acn-sdk-c\src\mqtt\packet\src/MQTTFormat.c **** 	int strindex = 0;
 193:..\acn-sdk-c\src\mqtt\packet\src/MQTTFormat.c **** 
 194:..\acn-sdk-c\src\mqtt\packet\src/MQTTFormat.c **** 	header.byte = buf[index++];
 776              		.loc 1 194 0
 777 0004 1778     		ldrb	r7, [r2]
 188:..\acn-sdk-c\src\mqtt\packet\src/MQTTFormat.c **** 	int index = 0;
 778              		.loc 1 188 0
 779 0006 A7B0     		sub	sp, sp, #156
 780              		.cfi_def_cfa_offset 176
 188:..\acn-sdk-c\src\mqtt\packet\src/MQTTFormat.c **** 	int index = 0;
 781              		.loc 1 188 0
 782 0008 0891     		str	r1, [sp, #32]
 783 000a 051C     		mov	r5, r0
 195:..\acn-sdk-c\src\mqtt\packet\src/MQTTFormat.c **** 	index += MQTTPacket_decodeBuf(&buf[index], &rem_length);
 784              		.loc 1 195 0
 785 000c 0CA9     		add	r1, sp, #48
 786              	.LVL77:
 787 000e 501C     		add	r0, r2, #1
 788              	.LVL78:
 196:..\acn-sdk-c\src\mqtt\packet\src/MQTTFormat.c **** 
 197:..\acn-sdk-c\src\mqtt\packet\src/MQTTFormat.c **** 	switch (header.bits.type)
 789              		.loc 1 197 0
 790 0010 3F09     		lsr	r7, r7, #4
 188:..\acn-sdk-c\src\mqtt\packet\src/MQTTFormat.c **** 	int index = 0;
 791              		.loc 1 188 0
 792 0012 141C     		mov	r4, r2
 793 0014 0993     		str	r3, [sp, #36]
 190:..\acn-sdk-c\src\mqtt\packet\src/MQTTFormat.c **** 	MQTTHeader header = {0};
 794              		.loc 1 190 0
 795 0016 0C96     		str	r6, [sp, #48]
 796              	.LVL79:
 195:..\acn-sdk-c\src\mqtt\packet\src/MQTTFormat.c **** 
 797              		.loc 1 195 0
 798 0018 FFF7FEFF 		bl	MQTTPacket_decodeBuf
 799              	.LVL80:
 800              		.loc 1 197 0
 801 001c 781E     		sub	r0, r7, #1
 802 001e 0D28     		cmp	r0, #13
 803 0020 00D9     		bls	.LCB846
 804 0022 A0E0     		b	.L62	@long jump
 805              	.LCB846:
 806 0024 FFF7FEFF 		bl	__gnu_thumb1_case_uqi
 807              	.L64:
 808 0028 07       		.byte	(.L63-.L64)/2
 809 0029 9F       		.byte	(.L62-.L64)/2
ARM GAS  C:\Users\ddemidov\AppData\Local\Temp\ccOJqKhh.s 			page 19


 810 002a 15       		.byte	(.L65-.L64)/2
 811 002b 45       		.byte	(.L66-.L64)/2
 812 002c 45       		.byte	(.L66-.L64)/2
 813 002d 45       		.byte	(.L66-.L64)/2
 814 002e 45       		.byte	(.L66-.L64)/2
 815 002f 5B       		.byte	(.L67-.L64)/2
 816 0030 9F       		.byte	(.L62-.L64)/2
 817 0031 7D       		.byte	(.L68-.L64)/2
 818 0032 9F       		.byte	(.L62-.L64)/2
 819 0033 97       		.byte	(.L69-.L64)/2
 820 0034 97       		.byte	(.L69-.L64)/2
 821 0035 97       		.byte	(.L69-.L64)/2
 822              		.p2align 1
 823              	.L63:
 824              	.LBB7:
 198:..\acn-sdk-c\src\mqtt\packet\src/MQTTFormat.c **** 	{
 199:..\acn-sdk-c\src\mqtt\packet\src/MQTTFormat.c **** 	case CONNECT:
 200:..\acn-sdk-c\src\mqtt\packet\src/MQTTFormat.c **** 	{
 201:..\acn-sdk-c\src\mqtt\packet\src/MQTTFormat.c **** 		MQTTPacket_connectData data;
 202:..\acn-sdk-c\src\mqtt\packet\src/MQTTFormat.c **** 		int rc;
 203:..\acn-sdk-c\src\mqtt\packet\src/MQTTFormat.c **** 		if ((rc = MQTTDeserialize_connect(&data, buf, buflen)) == 1)
 825              		.loc 1 203 0
 826 0036 10A8     		add	r0, sp, #64
 827 0038 211C     		mov	r1, r4
 828 003a 099A     		ldr	r2, [sp, #36]
 829 003c FFF7FEFF 		bl	MQTTDeserialize_connect
 830              	.LVL81:
 831 0040 0128     		cmp	r0, #1
 832 0042 00D0     		beq	.LCB862
 833 0044 8FE0     		b	.L62	@long jump
 834              	.LCB862:
 204:..\acn-sdk-c\src\mqtt\packet\src/MQTTFormat.c **** 			strindex = MQTTStringFormat_connect(strbuf, strbuflen, &data);
 835              		.loc 1 204 0
 836 0046 281C     		mov	r0, r5
 837              	.LVL82:
 838 0048 0899     		ldr	r1, [sp, #32]
 839 004a 10AA     		add	r2, sp, #64
 840 004c FFF7FEFF 		bl	MQTTStringFormat_connect
 841              	.LVL83:
 842              	.LBE7:
 205:..\acn-sdk-c\src\mqtt\packet\src/MQTTFormat.c **** 	}
 206:..\acn-sdk-c\src\mqtt\packet\src/MQTTFormat.c **** 	break;
 843              		.loc 1 206 0
 844 0050 89E0     		b	.L62
 845              	.LVL84:
 846              	.L65:
 847              	.LBB8:
 207:..\acn-sdk-c\src\mqtt\packet\src/MQTTFormat.c **** 	case PUBLISH:
 208:..\acn-sdk-c\src\mqtt\packet\src/MQTTFormat.c **** 	{
 209:..\acn-sdk-c\src\mqtt\packet\src/MQTTFormat.c **** 		unsigned char dup, retained, *payload;
 210:..\acn-sdk-c\src\mqtt\packet\src/MQTTFormat.c **** 		unsigned short packetid;
 211:..\acn-sdk-c\src\mqtt\packet\src/MQTTFormat.c **** 		int qos, payloadlen;
 212:..\acn-sdk-c\src\mqtt\packet\src/MQTTFormat.c **** 		MQTTString topicName = MQTTString_initializer;
 213:..\acn-sdk-c\src\mqtt\packet\src/MQTTFormat.c **** 		if (MQTTDeserialize_publish(&dup, &qos, &retained, &packetid, &topicName,
 848              		.loc 1 213 0
 849 0052 0DAB     		add	r3, sp, #52
 850 0054 0193     		str	r3, [sp, #4]
ARM GAS  C:\Users\ddemidov\AppData\Local\Temp\ccOJqKhh.s 			page 20


 851 0056 0FAB     		add	r3, sp, #60
 852 0058 0293     		str	r3, [sp, #8]
 853 005a 099B     		ldr	r3, [sp, #36]
 854 005c 02AA     		add	r2, sp, #8
 855 005e 0493     		str	r3, [sp, #16]
 856 0060 2523     		mov	r3, #37
 857 0062 9B18     		add	r3, r3, r2
 858 0064 1A1C     		mov	r2, r3
 859 0066 2623     		mov	r3, #38
 212:..\acn-sdk-c\src\mqtt\packet\src/MQTTFormat.c **** 		if (MQTTDeserialize_publish(&dup, &qos, &retained, &packetid, &topicName,
 860              		.loc 1 212 0
 861 0068 10AF     		add	r7, sp, #64
 862 006a 1096     		str	r6, [sp, #64]
 863 006c 1196     		str	r6, [sp, #68]
 864 006e 1296     		str	r6, [sp, #72]
 865              		.loc 1 213 0
 866 0070 0394     		str	r4, [sp, #12]
 867 0072 0BAE     		add	r6, sp, #44
 868 0074 02AC     		add	r4, sp, #8
 869              	.LVL85:
 870 0076 0097     		str	r7, [sp]
 871 0078 301C     		mov	r0, r6
 872 007a 0EA9     		add	r1, sp, #56
 873 007c 1B19     		add	r3, r3, r4
 874 007e FFF7FEFF 		bl	MQTTDeserialize_publish
 875              	.LVL86:
 876 0082 0128     		cmp	r0, #1
 877 0084 6FD1     		bne	.L62
 214:..\acn-sdk-c\src\mqtt\packet\src/MQTTFormat.c **** 				&payload, &payloadlen, buf, buflen) == 1)
 215:..\acn-sdk-c\src\mqtt\packet\src/MQTTFormat.c **** 			strindex = MQTTStringFormat_publish(strbuf, strbuflen, dup, qos, retained, packetid,
 878              		.loc 1 215 0
 879 0086 2521     		mov	r1, #37
 880 0088 02AB     		add	r3, sp, #8
 881 008a 5B18     		add	r3, r3, r1
 882 008c 1B78     		ldrb	r3, [r3]
 883 008e 3278     		ldrb	r2, [r6]
 884 0090 0093     		str	r3, [sp]
 885 0092 02AB     		add	r3, sp, #8
 886 0094 DB8C     		ldrh	r3, [r3, #38]
 887 0096 0193     		str	r3, [sp, #4]
 888 0098 02AB     		add	r3, sp, #8
 889 009a 13CF     		ldmia	r7!, {r0, r1, r4}
 890 009c 13C3     		stmia	r3!, {r0, r1, r4}
 891 009e 0D9B     		ldr	r3, [sp, #52]
 892 00a0 281C     		mov	r0, r5
 893 00a2 0593     		str	r3, [sp, #20]
 894 00a4 0F9B     		ldr	r3, [sp, #60]
 895 00a6 0899     		ldr	r1, [sp, #32]
 896 00a8 0693     		str	r3, [sp, #24]
 897 00aa 0E9B     		ldr	r3, [sp, #56]
 898 00ac FFF7FEFF 		bl	MQTTStringFormat_publish
 899              	.LVL87:
 900              	.LBE8:
 216:..\acn-sdk-c\src\mqtt\packet\src/MQTTFormat.c **** 					topicName, payload, payloadlen);
 217:..\acn-sdk-c\src\mqtt\packet\src/MQTTFormat.c **** 	}
 218:..\acn-sdk-c\src\mqtt\packet\src/MQTTFormat.c **** 	break;
 901              		.loc 1 218 0
ARM GAS  C:\Users\ddemidov\AppData\Local\Temp\ccOJqKhh.s 			page 21


 902 00b0 59E0     		b	.L62
 903              	.LVL88:
 904              	.L66:
 905              	.LBB9:
 219:..\acn-sdk-c\src\mqtt\packet\src/MQTTFormat.c **** 	case PUBACK:
 220:..\acn-sdk-c\src\mqtt\packet\src/MQTTFormat.c **** 	case PUBREC:
 221:..\acn-sdk-c\src\mqtt\packet\src/MQTTFormat.c **** 	case PUBREL:
 222:..\acn-sdk-c\src\mqtt\packet\src/MQTTFormat.c **** 	case PUBCOMP:
 223:..\acn-sdk-c\src\mqtt\packet\src/MQTTFormat.c **** 	{
 224:..\acn-sdk-c\src\mqtt\packet\src/MQTTFormat.c **** 		unsigned char packettype, dup;
 225:..\acn-sdk-c\src\mqtt\packet\src/MQTTFormat.c **** 		unsigned short packetid;
 226:..\acn-sdk-c\src\mqtt\packet\src/MQTTFormat.c **** 		if (MQTTDeserialize_ack(&packettype, &dup, &packetid, buf, buflen) == 1)
 906              		.loc 1 226 0
 907 00b2 099B     		ldr	r3, [sp, #36]
 908 00b4 0EAF     		add	r7, sp, #56
 909 00b6 0FAE     		add	r6, sp, #60
 910 00b8 0093     		str	r3, [sp]
 911 00ba 381C     		mov	r0, r7
 912 00bc 311C     		mov	r1, r6
 913 00be 10AA     		add	r2, sp, #64
 914 00c0 231C     		mov	r3, r4
 915 00c2 FFF7FEFF 		bl	MQTTDeserialize_ack
 916              	.LVL89:
 917 00c6 0128     		cmp	r0, #1
 918 00c8 4DD1     		bne	.L62
 227:..\acn-sdk-c\src\mqtt\packet\src/MQTTFormat.c **** 			strindex = MQTTStringFormat_ack(strbuf, strbuflen, packettype, dup, packetid);
 919              		.loc 1 227 0
 920 00ca 02A9     		add	r1, sp, #8
 921 00cc 098F     		ldrh	r1, [r1, #56]
 922 00ce 3A78     		ldrb	r2, [r7]
 923 00d0 3378     		ldrb	r3, [r6]
 924 00d2 281C     		mov	r0, r5
 925 00d4 0091     		str	r1, [sp]
 926 00d6 0899     		ldr	r1, [sp, #32]
 927 00d8 FFF7FEFF 		bl	MQTTStringFormat_ack
 928              	.LVL90:
 929              	.LBE9:
 228:..\acn-sdk-c\src\mqtt\packet\src/MQTTFormat.c **** 	}
 229:..\acn-sdk-c\src\mqtt\packet\src/MQTTFormat.c **** 	break;
 930              		.loc 1 229 0
 931 00dc 43E0     		b	.L62
 932              	.LVL91:
 933              	.L67:
 934              	.LBB10:
 230:..\acn-sdk-c\src\mqtt\packet\src/MQTTFormat.c **** 	case SUBSCRIBE:
 231:..\acn-sdk-c\src\mqtt\packet\src/MQTTFormat.c **** 	{
 232:..\acn-sdk-c\src\mqtt\packet\src/MQTTFormat.c **** 		unsigned char dup;
 233:..\acn-sdk-c\src\mqtt\packet\src/MQTTFormat.c **** 		unsigned short packetid;
 234:..\acn-sdk-c\src\mqtt\packet\src/MQTTFormat.c **** 		int maxcount = 1, count = 0;
 235:..\acn-sdk-c\src\mqtt\packet\src/MQTTFormat.c **** 		MQTTString topicFilters[1];
 236:..\acn-sdk-c\src\mqtt\packet\src/MQTTFormat.c **** 		int requestedQoSs[1];
 237:..\acn-sdk-c\src\mqtt\packet\src/MQTTFormat.c **** 		if (MQTTDeserialize_subscribe(&dup, &packetid, maxcount, &count,
 935              		.loc 1 237 0
 936 00de 099B     		ldr	r3, [sp, #36]
 937 00e0 02AA     		add	r2, sp, #8
 938 00e2 0393     		str	r3, [sp, #12]
 939 00e4 2623     		mov	r3, #38
ARM GAS  C:\Users\ddemidov\AppData\Local\Temp\ccOJqKhh.s 			page 22


 234:..\acn-sdk-c\src\mqtt\packet\src/MQTTFormat.c **** 		MQTTString topicFilters[1];
 940              		.loc 1 234 0
 941 00e6 0E96     		str	r6, [sp, #56]
 942              		.loc 1 237 0
 943 00e8 9B18     		add	r3, r3, r2
 944 00ea 10AF     		add	r7, sp, #64
 945 00ec 0FAE     		add	r6, sp, #60
 946 00ee 181C     		mov	r0, r3
 947 00f0 0097     		str	r7, [sp]
 948 00f2 0196     		str	r6, [sp, #4]
 949 00f4 0294     		str	r4, [sp, #8]
 950 00f6 0DA9     		add	r1, sp, #52
 951 00f8 0122     		mov	r2, #1
 952 00fa 0EAB     		add	r3, sp, #56
 953 00fc FFF7FEFF 		bl	MQTTDeserialize_subscribe
 954              	.LVL92:
 955 0100 0128     		cmp	r0, #1
 956 0102 30D1     		bne	.L62
 238:..\acn-sdk-c\src\mqtt\packet\src/MQTTFormat.c **** 				topicFilters, requestedQoSs, buf, buflen) == 1)
 239:..\acn-sdk-c\src\mqtt\packet\src/MQTTFormat.c **** 			strindex = MQTTStringFormat_subscribe(strbuf, strbuflen, dup, packetid, count, topicFilters, req
 957              		.loc 1 239 0
 958 0104 2622     		mov	r2, #38
 959 0106 02AB     		add	r3, sp, #8
 960 0108 0E99     		ldr	r1, [sp, #56]
 961 010a 9B18     		add	r3, r3, r2
 962 010c 1A78     		ldrb	r2, [r3]
 963 010e 02AB     		add	r3, sp, #8
 964 0110 9B8D     		ldrh	r3, [r3, #44]
 965 0112 281C     		mov	r0, r5
 966 0114 0091     		str	r1, [sp]
 967 0116 0197     		str	r7, [sp, #4]
 968 0118 0296     		str	r6, [sp, #8]
 969 011a 0899     		ldr	r1, [sp, #32]
 970 011c FFF7FEFF 		bl	MQTTStringFormat_subscribe
 971              	.LVL93:
 972              	.LBE10:
 240:..\acn-sdk-c\src\mqtt\packet\src/MQTTFormat.c **** 	}
 241:..\acn-sdk-c\src\mqtt\packet\src/MQTTFormat.c **** 	break;
 973              		.loc 1 241 0
 974 0120 21E0     		b	.L62
 975              	.LVL94:
 976              	.L68:
 977              	.LBB11:
 242:..\acn-sdk-c\src\mqtt\packet\src/MQTTFormat.c **** 	case UNSUBSCRIBE:
 243:..\acn-sdk-c\src\mqtt\packet\src/MQTTFormat.c **** 	{
 244:..\acn-sdk-c\src\mqtt\packet\src/MQTTFormat.c **** 		unsigned char dup;
 245:..\acn-sdk-c\src\mqtt\packet\src/MQTTFormat.c **** 		unsigned short packetid;
 246:..\acn-sdk-c\src\mqtt\packet\src/MQTTFormat.c **** 		int maxcount = 1, count = 0;
 247:..\acn-sdk-c\src\mqtt\packet\src/MQTTFormat.c **** 		MQTTString topicFilters[1];
 248:..\acn-sdk-c\src\mqtt\packet\src/MQTTFormat.c **** 		if (MQTTDeserialize_unsubscribe(&dup, &packetid, maxcount, &count, topicFilters, buf, buflen) == 
 978              		.loc 1 248 0
 979 0122 099B     		ldr	r3, [sp, #36]
 246:..\acn-sdk-c\src\mqtt\packet\src/MQTTFormat.c **** 		MQTTString topicFilters[1];
 980              		.loc 1 246 0
 981 0124 0F96     		str	r6, [sp, #60]
 982              		.loc 1 248 0
 983 0126 0DAF     		add	r7, sp, #52
ARM GAS  C:\Users\ddemidov\AppData\Local\Temp\ccOJqKhh.s 			page 23


 984 0128 10AE     		add	r6, sp, #64
 985 012a 0293     		str	r3, [sp, #8]
 986 012c 0096     		str	r6, [sp]
 987 012e 0194     		str	r4, [sp, #4]
 988 0130 381C     		mov	r0, r7
 989 0132 0EA9     		add	r1, sp, #56
 990 0134 0122     		mov	r2, #1
 991 0136 0FAB     		add	r3, sp, #60
 992 0138 FFF7FEFF 		bl	MQTTDeserialize_unsubscribe
 993              	.LVL95:
 994 013c 0128     		cmp	r0, #1
 995 013e 12D1     		bne	.L62
 249:..\acn-sdk-c\src\mqtt\packet\src/MQTTFormat.c **** 			strindex =  MQTTStringFormat_unsubscribe(strbuf, strbuflen, dup, packetid, count, topicFilters);
 996              		.loc 1 249 0
 997 0140 0F99     		ldr	r1, [sp, #60]
 998 0142 02AB     		add	r3, sp, #8
 999 0144 3A78     		ldrb	r2, [r7]
 1000 0146 1B8E     		ldrh	r3, [r3, #48]
 1001 0148 281C     		mov	r0, r5
 1002 014a 0091     		str	r1, [sp]
 1003 014c 0196     		str	r6, [sp, #4]
 1004 014e 0899     		ldr	r1, [sp, #32]
 1005 0150 FFF7FEFF 		bl	MQTTStringFormat_unsubscribe
 1006              	.LVL96:
 1007              	.LBE11:
 250:..\acn-sdk-c\src\mqtt\packet\src/MQTTFormat.c **** 	}
 251:..\acn-sdk-c\src\mqtt\packet\src/MQTTFormat.c **** 	break;
 1008              		.loc 1 251 0
 1009 0154 07E0     		b	.L62
 1010              	.LVL97:
 1011              	.L69:
 252:..\acn-sdk-c\src\mqtt\packet\src/MQTTFormat.c **** 	case PINGREQ:
 253:..\acn-sdk-c\src\mqtt\packet\src/MQTTFormat.c **** 	case PINGRESP:
 254:..\acn-sdk-c\src\mqtt\packet\src/MQTTFormat.c **** 	case DISCONNECT:
 255:..\acn-sdk-c\src\mqtt\packet\src/MQTTFormat.c **** 		strindex = snprintf(strbuf, strbuflen, "%s", MQTTPacket_names[header.bits.type]);
 1012              		.loc 1 255 0
 1013 0156 074B     		ldr	r3, .L75
 1014 0158 BF00     		lsl	r7, r7, #2
 1015 015a 281C     		mov	r0, r5
 1016 015c 0899     		ldr	r1, [sp, #32]
 1017 015e 064A     		ldr	r2, .L75+4
 1018 0160 FB58     		ldr	r3, [r7, r3]
 1019 0162 FFF7FEFF 		bl	snprintf
 1020              	.LVL98:
 1021              	.L62:
 256:..\acn-sdk-c\src\mqtt\packet\src/MQTTFormat.c **** 		break;
 257:..\acn-sdk-c\src\mqtt\packet\src/MQTTFormat.c **** 	}
 258:..\acn-sdk-c\src\mqtt\packet\src/MQTTFormat.c **** 	strbuf[strbuflen] = '\0';
 1022              		.loc 1 258 0
 1023 0166 0023     		mov	r3, #0
 259:..\acn-sdk-c\src\mqtt\packet\src/MQTTFormat.c **** 	return strbuf;
 260:..\acn-sdk-c\src\mqtt\packet\src/MQTTFormat.c **** }
 1024              		.loc 1 260 0
 1025 0168 281C     		mov	r0, r5
 258:..\acn-sdk-c\src\mqtt\packet\src/MQTTFormat.c **** 	return strbuf;
 1026              		.loc 1 258 0
 1027 016a 089A     		ldr	r2, [sp, #32]
ARM GAS  C:\Users\ddemidov\AppData\Local\Temp\ccOJqKhh.s 			page 24


 1028 016c AB54     		strb	r3, [r5, r2]
 1029              		.loc 1 260 0
 1030 016e 27B0     		add	sp, sp, #156
 1031              		@ sp needed
 1032              	.LVL99:
 1033 0170 F0BD     		pop	{r4, r5, r6, r7, pc}
 1034              	.L76:
 1035 0172 C046     		.align	2
 1036              	.L75:
 1037 0174 00000000 		.word	.LANCHOR0
 1038 0178 E2010000 		.word	.LC24
 1039              		.cfi_endproc
 1040              	.LFE9:
 1041              		.size	MQTTFormat_toServerString, .-MQTTFormat_toServerString
 1042              		.global	MQTTPacket_names
 1043              		.section	.rodata.str1.1,"aMS",%progbits,1
 1044              	.LC1:
 1045 0000 434F4E4E 		.ascii	"CONNECT MQTT version %d, client id %.*s, clean sess"
 1045      45435420 
 1045      4D515454 
 1045      20766572 
 1045      73696F6E 
 1046 0033 696F6E20 		.ascii	"ion %d, keep alive %d\000"
 1046      25642C20 
 1046      6B656570 
 1046      20616C69 
 1046      76652025 
 1047              	.LC3:
 1048 0049 2C207769 		.ascii	", will QoS %d, will retain %d, will topic %.*s, wil"
 1048      6C6C2051 
 1048      6F532025 
 1048      642C2077 
 1048      696C6C20 
 1049 007c 6C206D65 		.ascii	"l message %.*s\000"
 1049      73736167 
 1049      6520252E 
 1049      2A7300
 1050              	.LC5:
 1051 008b 2C207573 		.ascii	", user name %.*s\000"
 1051      6572206E 
 1051      616D6520 
 1051      252E2A73 
 1051      00
 1052              	.LC7:
 1053 009c 2C207061 		.ascii	", password %.*s\000"
 1053      7373776F 
 1053      72642025 
 1053      2E2A7300 
 1054              	.LC9:
 1055 00ac 434F4E4E 		.ascii	"CONNACK session present %d, rc %d\000"
 1055      41434B20 
 1055      73657373 
 1055      696F6E20 
 1055      70726573 
 1056              	.LC11:
 1057 00ce 5055424C 		.ascii	"PUBLISH dup %d, QoS %d, retained %d, packet id %d, "
 1057      49534820 
ARM GAS  C:\Users\ddemidov\AppData\Local\Temp\ccOJqKhh.s 			page 25


 1057      64757020 
 1057      25642C20 
 1057      516F5320 
 1058 0101 746F7069 		.ascii	"topic %.*s, payload length %d, payload %.*s\000"
 1058      6320252E 
 1058      2A732C20 
 1058      7061796C 
 1058      6F616420 
 1059              	.LC13:
 1060 012d 25732C20 		.ascii	"%s, packet id %d\000"
 1060      7061636B 
 1060      65742069 
 1060      64202564 
 1060      00
 1061              	.LC16:
 1062 013e 2C206475 		.ascii	", dup %d\000"
 1062      70202564 
 1062      00
 1063              	.LC18:
 1064 0147 53554253 		.ascii	"SUBSCRIBE dup %d, packet id %d count %d topic %.*s "
 1064      43524942 
 1064      45206475 
 1064      70202564 
 1064      2C207061 
 1065 017a 716F7320 		.ascii	"qos %d\000"
 1065      256400
 1066              	.LC20:
 1067 0181 53554241 		.ascii	"SUBACK packet id %d count %d granted qos %d\000"
 1067      434B2070 
 1067      61636B65 
 1067      74206964 
 1067      20256420 
 1068              	.LC22:
 1069 01ad 554E5355 		.ascii	"UNSUBSCRIBE dup %d, packet id %d count %d topic %.*"
 1069      42534352 
 1069      49424520 
 1069      64757020 
 1069      25642C20 
 1070 01e0 7300     		.ascii	"s\000"
 1071              	.LC24:
 1072 01e2 257300   		.ascii	"%s\000"
 1073              	.LC29:
 1074 01e5 52455345 		.ascii	"RESERVED\000"
 1074      52564544 
 1074      00
 1075              	.LC30:
 1076 01ee 434F4E4E 		.ascii	"CONNECT\000"
 1076      45435400 
 1077              	.LC31:
 1078 01f6 434F4E4E 		.ascii	"CONNACK\000"
 1078      41434B00 
 1079              	.LC32:
 1080 01fe 5055424C 		.ascii	"PUBLISH\000"
 1080      49534800 
 1081              	.LC33:
 1082 0206 50554241 		.ascii	"PUBACK\000"
 1082      434B00
ARM GAS  C:\Users\ddemidov\AppData\Local\Temp\ccOJqKhh.s 			page 26


 1083              	.LC34:
 1084 020d 50554252 		.ascii	"PUBREC\000"
 1084      454300
 1085              	.LC35:
 1086 0214 50554252 		.ascii	"PUBREL\000"
 1086      454C00
 1087              	.LC36:
 1088 021b 50554243 		.ascii	"PUBCOMP\000"
 1088      4F4D5000 
 1089              	.LC37:
 1090 0223 53554253 		.ascii	"SUBSCRIBE\000"
 1090      43524942 
 1090      4500
 1091              	.LC38:
 1092 022d 53554241 		.ascii	"SUBACK\000"
 1092      434B00
 1093              	.LC39:
 1094 0234 554E5355 		.ascii	"UNSUBSCRIBE\000"
 1094      42534352 
 1094      49424500 
 1095              	.LC40:
 1096 0240 554E5355 		.ascii	"UNSUBACK\000"
 1096      4241434B 
 1096      00
 1097              	.LC41:
 1098 0249 50494E47 		.ascii	"PINGREQ\000"
 1098      52455100 
 1099              	.LC42:
 1100 0251 50494E47 		.ascii	"PINGRESP\000"
 1100      52455350 
 1100      00
 1101              	.LC43:
 1102 025a 44495343 		.ascii	"DISCONNECT\000"
 1102      4F4E4E45 
 1102      435400
 1103              		.data
 1104              		.align	2
 1105              		.set	.LANCHOR0,. + 0
 1106              		.type	MQTTPacket_names, %object
 1107              		.size	MQTTPacket_names, 60
 1108              	MQTTPacket_names:
 1109 0000 E5010000 		.word	.LC29
 1110 0004 EE010000 		.word	.LC30
 1111 0008 F6010000 		.word	.LC31
 1112 000c FE010000 		.word	.LC32
 1113 0010 06020000 		.word	.LC33
 1114 0014 0D020000 		.word	.LC34
 1115 0018 14020000 		.word	.LC35
 1116 001c 1B020000 		.word	.LC36
 1117 0020 23020000 		.word	.LC37
 1118 0024 2D020000 		.word	.LC38
 1119 0028 34020000 		.word	.LC39
 1120 002c 40020000 		.word	.LC40
 1121 0030 49020000 		.word	.LC41
 1122 0034 51020000 		.word	.LC42
 1123 0038 5A020000 		.word	.LC43
 1124              		.text
ARM GAS  C:\Users\ddemidov\AppData\Local\Temp\ccOJqKhh.s 			page 27


 1125              	.Letext0:
 1126              		.file 2 "..\\acn-sdk-c\\include/mqtt/packet/MQTTPacket.h"
 1127              		.file 3 "c:\\program files (x86)\\cypress\\psoc creator\\3.3\\psoc creator\\import\\gnu\\arm\\4.9.
 1128              		.file 4 "..\\acn-sdk-c\\include/mqtt/packet/MQTTConnect.h"
 1129              		.file 5 "c:\\program files (x86)\\cypress\\psoc creator\\3.3\\psoc creator\\import\\gnu\\arm\\4.9.
 1130              		.file 6 "..\\acn-sdk-c\\include/mqtt/packet/MQTTPublish.h"
 1131              		.file 7 "..\\acn-sdk-c\\include/mqtt/packet/MQTTSubscribe.h"
 1132              		.file 8 "..\\acn-sdk-c\\include/mqtt/packet/MQTTUnsubscribe.h"