ARM GAS  C:\Users\ddemidov\AppData\Local\Temp\ccEyGOUV.s 			page 1


   1              		.cpu cortex-m0
   2              		.fpu softvfp
   3              		.eabi_attribute 20, 1
   4              		.eabi_attribute 21, 1
   5              		.eabi_attribute 23, 3
   6              		.eabi_attribute 24, 1
   7              		.eabi_attribute 25, 1
   8              		.eabi_attribute 26, 1
   9              		.eabi_attribute 30, 4
  10              		.eabi_attribute 34, 0
  11              		.eabi_attribute 18, 4
  12              		.code	16
  13              		.file	"MQTTDeserializePublish.c"
  14              		.text
  15              	.Ltext0:
  16              		.cfi_sections	.debug_frame
  17              		.section	.text.MQTTDeserialize_publish,"ax",%progbits
  18              		.align	1
  19              		.global	MQTTDeserialize_publish
  20              		.code	16
  21              		.thumb_func
  22              		.type	MQTTDeserialize_publish, %function
  23              	MQTTDeserialize_publish:
  24              	.LFB0:
  25              		.file 1 "..\\acn-sdk-c\\src\\mqtt\\packet\\src\\MQTTDeserializePublish.c"
   1:..\acn-sdk-c\src\mqtt\packet\src/MQTTDeserializePublish.c **** /*******************************************************************************
   2:..\acn-sdk-c\src\mqtt\packet\src/MQTTDeserializePublish.c ****  * Copyright (c) 2014 IBM Corp.
   3:..\acn-sdk-c\src\mqtt\packet\src/MQTTDeserializePublish.c ****  *
   4:..\acn-sdk-c\src\mqtt\packet\src/MQTTDeserializePublish.c ****  * All rights reserved. This program and the accompanying materials
   5:..\acn-sdk-c\src\mqtt\packet\src/MQTTDeserializePublish.c ****  * are made available under the terms of the Eclipse Public License v1.0
   6:..\acn-sdk-c\src\mqtt\packet\src/MQTTDeserializePublish.c ****  * and Eclipse Distribution License v1.0 which accompany this distribution.
   7:..\acn-sdk-c\src\mqtt\packet\src/MQTTDeserializePublish.c ****  *
   8:..\acn-sdk-c\src\mqtt\packet\src/MQTTDeserializePublish.c ****  * The Eclipse Public License is available at
   9:..\acn-sdk-c\src\mqtt\packet\src/MQTTDeserializePublish.c ****  *    http://www.eclipse.org/legal/epl-v10.html
  10:..\acn-sdk-c\src\mqtt\packet\src/MQTTDeserializePublish.c ****  * and the Eclipse Distribution License is available at
  11:..\acn-sdk-c\src\mqtt\packet\src/MQTTDeserializePublish.c ****  *   http://www.eclipse.org/org/documents/edl-v10.php.
  12:..\acn-sdk-c\src\mqtt\packet\src/MQTTDeserializePublish.c ****  *
  13:..\acn-sdk-c\src\mqtt\packet\src/MQTTDeserializePublish.c ****  * Contributors:
  14:..\acn-sdk-c\src\mqtt\packet\src/MQTTDeserializePublish.c ****  *    Ian Craggs - initial API and implementation and/or initial documentation
  15:..\acn-sdk-c\src\mqtt\packet\src/MQTTDeserializePublish.c ****  *******************************************************************************/
  16:..\acn-sdk-c\src\mqtt\packet\src/MQTTDeserializePublish.c **** 
  17:..\acn-sdk-c\src\mqtt\packet\src/MQTTDeserializePublish.c **** #include <mqtt/packet/StackTrace.h>
  18:..\acn-sdk-c\src\mqtt\packet\src/MQTTDeserializePublish.c **** #include "mqtt/packet/MQTTPacket.h"
  19:..\acn-sdk-c\src\mqtt\packet\src/MQTTDeserializePublish.c **** #include <string.h>
  20:..\acn-sdk-c\src\mqtt\packet\src/MQTTDeserializePublish.c **** 
  21:..\acn-sdk-c\src\mqtt\packet\src/MQTTDeserializePublish.c **** #define min(a, b) ((a < b) ? 1 : 0)
  22:..\acn-sdk-c\src\mqtt\packet\src/MQTTDeserializePublish.c **** 
  23:..\acn-sdk-c\src\mqtt\packet\src/MQTTDeserializePublish.c **** /**
  24:..\acn-sdk-c\src\mqtt\packet\src/MQTTDeserializePublish.c ****   * Deserializes the supplied (wire) buffer into publish data
  25:..\acn-sdk-c\src\mqtt\packet\src/MQTTDeserializePublish.c ****   * @param dup returned integer - the MQTT dup flag
  26:..\acn-sdk-c\src\mqtt\packet\src/MQTTDeserializePublish.c ****   * @param qos returned integer - the MQTT QoS value
  27:..\acn-sdk-c\src\mqtt\packet\src/MQTTDeserializePublish.c ****   * @param retained returned integer - the MQTT retained flag
  28:..\acn-sdk-c\src\mqtt\packet\src/MQTTDeserializePublish.c ****   * @param packetid returned integer - the MQTT packet identifier
  29:..\acn-sdk-c\src\mqtt\packet\src/MQTTDeserializePublish.c ****   * @param topicName returned MQTTString - the MQTT topic in the publish
  30:..\acn-sdk-c\src\mqtt\packet\src/MQTTDeserializePublish.c ****   * @param payload returned byte buffer - the MQTT publish payload
  31:..\acn-sdk-c\src\mqtt\packet\src/MQTTDeserializePublish.c ****   * @param payloadlen returned integer - the length of the MQTT payload
  32:..\acn-sdk-c\src\mqtt\packet\src/MQTTDeserializePublish.c ****   * @param buf the raw buffer data, of the correct length determined by the remaining length field
ARM GAS  C:\Users\ddemidov\AppData\Local\Temp\ccEyGOUV.s 			page 2


  33:..\acn-sdk-c\src\mqtt\packet\src/MQTTDeserializePublish.c ****   * @param buflen the length in bytes of the data in the supplied buffer
  34:..\acn-sdk-c\src\mqtt\packet\src/MQTTDeserializePublish.c ****   * @return error code.  1 is success
  35:..\acn-sdk-c\src\mqtt\packet\src/MQTTDeserializePublish.c ****   */
  36:..\acn-sdk-c\src\mqtt\packet\src/MQTTDeserializePublish.c **** int MQTTDeserialize_publish(unsigned char* dup, int* qos, unsigned char* retained, unsigned short* 
  37:..\acn-sdk-c\src\mqtt\packet\src/MQTTDeserializePublish.c **** 		unsigned char** payload, int* payloadlen, unsigned char* buf, int buflen)
  38:..\acn-sdk-c\src\mqtt\packet\src/MQTTDeserializePublish.c **** {
  26              		.loc 1 38 0
  27              		.cfi_startproc
  28              	.LVL0:
  29 0000 F0B5     		push	{r4, r5, r6, r7, lr}
  30              		.cfi_def_cfa_offset 20
  31              		.cfi_offset 4, -20
  32              		.cfi_offset 5, -16
  33              		.cfi_offset 6, -12
  34              		.cfi_offset 7, -8
  35              		.cfi_offset 14, -4
  39:..\acn-sdk-c\src\mqtt\packet\src/MQTTDeserializePublish.c ****   SSP_PARAMETER_NOT_USED(buflen);
  40:..\acn-sdk-c\src\mqtt\packet\src/MQTTDeserializePublish.c **** 	MQTTHeader header = {0};
  41:..\acn-sdk-c\src\mqtt\packet\src/MQTTDeserializePublish.c **** 	unsigned char* curdata = buf;
  42:..\acn-sdk-c\src\mqtt\packet\src/MQTTDeserializePublish.c **** 	unsigned char* enddata = NULL;
  43:..\acn-sdk-c\src\mqtt\packet\src/MQTTDeserializePublish.c **** 	int rc = 0;
  44:..\acn-sdk-c\src\mqtt\packet\src/MQTTDeserializePublish.c **** 	int mylen = 0;
  36              		.loc 1 44 0
  37 0002 0024     		mov	r4, #0
  38:..\acn-sdk-c\src\mqtt\packet\src/MQTTDeserializePublish.c ****   SSP_PARAMETER_NOT_USED(buflen);
  38              		.loc 1 38 0
  39 0004 85B0     		sub	sp, sp, #20
  40              		.cfi_def_cfa_offset 40
  38:..\acn-sdk-c\src\mqtt\packet\src/MQTTDeserializePublish.c ****   SSP_PARAMETER_NOT_USED(buflen);
  41              		.loc 1 38 0
  42 0006 0193     		str	r3, [sp, #4]
  41:..\acn-sdk-c\src\mqtt\packet\src/MQTTDeserializePublish.c **** 	unsigned char* enddata = NULL;
  43              		.loc 1 41 0
  44 0008 0D9B     		ldr	r3, [sp, #52]
  45              	.LVL1:
  38:..\acn-sdk-c\src\mqtt\packet\src/MQTTDeserializePublish.c ****   SSP_PARAMETER_NOT_USED(buflen);
  46              		.loc 1 38 0
  47 000a 071C     		mov	r7, r0
  45:..\acn-sdk-c\src\mqtt\packet\src/MQTTDeserializePublish.c **** 
  46:..\acn-sdk-c\src\mqtt\packet\src/MQTTDeserializePublish.c **** 	FUNC_ENTRY;
  47:..\acn-sdk-c\src\mqtt\packet\src/MQTTDeserializePublish.c **** 	header.byte = readChar(&curdata);
  48              		.loc 1 47 0
  49 000c 02A8     		add	r0, sp, #8
  50              	.LVL2:
  41:..\acn-sdk-c\src\mqtt\packet\src/MQTTDeserializePublish.c **** 	unsigned char* enddata = NULL;
  51              		.loc 1 41 0
  52 000e 0293     		str	r3, [sp, #8]
  53              	.LVL3:
  38:..\acn-sdk-c\src\mqtt\packet\src/MQTTDeserializePublish.c ****   SSP_PARAMETER_NOT_USED(buflen);
  54              		.loc 1 38 0
  55 0010 0D1C     		mov	r5, r1
  56 0012 161C     		mov	r6, r2
  44:..\acn-sdk-c\src\mqtt\packet\src/MQTTDeserializePublish.c **** 
  57              		.loc 1 44 0
  58 0014 0394     		str	r4, [sp, #12]
  59              		.loc 1 47 0
  60 0016 FFF7FEFF 		bl	readChar
ARM GAS  C:\Users\ddemidov\AppData\Local\Temp\ccEyGOUV.s 			page 3


  61              	.LVL4:
  48:..\acn-sdk-c\src\mqtt\packet\src/MQTTDeserializePublish.c **** 	if (header.bits.type != PUBLISH)
  62              		.loc 1 48 0
  63 001a F023     		mov	r3, #240
  64 001c 0340     		and	r3, r0
  65 001e 302B     		cmp	r3, #48
  66 0020 2BD1     		bne	.L2
  49:..\acn-sdk-c\src\mqtt\packet\src/MQTTDeserializePublish.c **** 		goto exit;
  50:..\acn-sdk-c\src\mqtt\packet\src/MQTTDeserializePublish.c **** 	*dup = header.bits.dup;
  67              		.loc 1 50 0
  68 0022 0307     		lsl	r3, r0, #28
  69 0024 DB0F     		lsr	r3, r3, #31
  70 0026 3B70     		strb	r3, [r7]
  51:..\acn-sdk-c\src\mqtt\packet\src/MQTTDeserializePublish.c **** 	*qos = header.bits.qos;
  71              		.loc 1 51 0
  72 0028 4307     		lsl	r3, r0, #29
  52:..\acn-sdk-c\src\mqtt\packet\src/MQTTDeserializePublish.c **** 	*retained = header.bits.retain;
  73              		.loc 1 52 0
  74 002a C007     		lsl	r0, r0, #31
  51:..\acn-sdk-c\src\mqtt\packet\src/MQTTDeserializePublish.c **** 	*qos = header.bits.qos;
  75              		.loc 1 51 0
  76 002c 9B0F     		lsr	r3, r3, #30
  77              		.loc 1 52 0
  78 002e C00F     		lsr	r0, r0, #31
  51:..\acn-sdk-c\src\mqtt\packet\src/MQTTDeserializePublish.c **** 	*qos = header.bits.qos;
  79              		.loc 1 51 0
  80 0030 2B60     		str	r3, [r5]
  53:..\acn-sdk-c\src\mqtt\packet\src/MQTTDeserializePublish.c **** 
  54:..\acn-sdk-c\src\mqtt\packet\src/MQTTDeserializePublish.c **** 	curdata += (rc = MQTTPacket_decodeBuf(curdata, &mylen)); /* read remaining length */
  81              		.loc 1 54 0
  82 0032 03A9     		add	r1, sp, #12
  52:..\acn-sdk-c\src\mqtt\packet\src/MQTTDeserializePublish.c **** 	*retained = header.bits.retain;
  83              		.loc 1 52 0
  84 0034 3070     		strb	r0, [r6]
  85              		.loc 1 54 0
  86 0036 0298     		ldr	r0, [sp, #8]
  87 0038 FFF7FEFF 		bl	MQTTPacket_decodeBuf
  88              	.LVL5:
  89 003c 029B     		ldr	r3, [sp, #8]
  90 003e 041C     		mov	r4, r0
  91              	.LVL6:
  92 0040 1E18     		add	r6, r3, r0
  93              	.LVL7:
  55:..\acn-sdk-c\src\mqtt\packet\src/MQTTDeserializePublish.c **** 	enddata = curdata + mylen;
  94              		.loc 1 55 0
  95 0042 039B     		ldr	r3, [sp, #12]
  54:..\acn-sdk-c\src\mqtt\packet\src/MQTTDeserializePublish.c **** 	enddata = curdata + mylen;
  96              		.loc 1 54 0
  97 0044 0296     		str	r6, [sp, #8]
  98              		.loc 1 55 0
  99 0046 F618     		add	r6, r6, r3
 100              	.LVL8:
  56:..\acn-sdk-c\src\mqtt\packet\src/MQTTDeserializePublish.c **** 
  57:..\acn-sdk-c\src\mqtt\packet\src/MQTTDeserializePublish.c **** 	if (!readMQTTLenString(topicName, &curdata, enddata) ||
 101              		.loc 1 57 0
 102 0048 0A98     		ldr	r0, [sp, #40]
 103              	.LVL9:
ARM GAS  C:\Users\ddemidov\AppData\Local\Temp\ccEyGOUV.s 			page 4


 104 004a 02A9     		add	r1, sp, #8
 105 004c 321C     		mov	r2, r6
 106 004e FFF7FEFF 		bl	readMQTTLenString
 107              	.LVL10:
 108 0052 0028     		cmp	r0, #0
 109 0054 11D0     		beq	.L2
  58:..\acn-sdk-c\src\mqtt\packet\src/MQTTDeserializePublish.c **** 		enddata - curdata < 0) /* do we have enough data to read the protocol version byte? */
 110              		.loc 1 58 0 discriminator 1
 111 0056 029B     		ldr	r3, [sp, #8]
 112 0058 F31A     		sub	r3, r6, r3
  57:..\acn-sdk-c\src\mqtt\packet\src/MQTTDeserializePublish.c **** 		enddata - curdata < 0) /* do we have enough data to read the protocol version byte? */
 113              		.loc 1 57 0 discriminator 1
 114 005a 0ED4     		bmi	.L2
  59:..\acn-sdk-c\src\mqtt\packet\src/MQTTDeserializePublish.c **** 		goto exit;
  60:..\acn-sdk-c\src\mqtt\packet\src/MQTTDeserializePublish.c **** 
  61:..\acn-sdk-c\src\mqtt\packet\src/MQTTDeserializePublish.c **** 	if (*qos > 0)
 115              		.loc 1 61 0
 116 005c 2B68     		ldr	r3, [r5]
 117 005e 002B     		cmp	r3, #0
 118 0060 04DD     		ble	.L3
  62:..\acn-sdk-c\src\mqtt\packet\src/MQTTDeserializePublish.c **** 		*packetid = readInt(&curdata);
 119              		.loc 1 62 0
 120 0062 02A8     		add	r0, sp, #8
 121 0064 FFF7FEFF 		bl	readInt
 122              	.LVL11:
 123 0068 019B     		ldr	r3, [sp, #4]
 124 006a 1880     		strh	r0, [r3]
 125              	.L3:
  63:..\acn-sdk-c\src\mqtt\packet\src/MQTTDeserializePublish.c **** 
  64:..\acn-sdk-c\src\mqtt\packet\src/MQTTDeserializePublish.c **** 	*payloadlen = enddata - curdata;
  65:..\acn-sdk-c\src\mqtt\packet\src/MQTTDeserializePublish.c **** 	*payload = curdata;
  66:..\acn-sdk-c\src\mqtt\packet\src/MQTTDeserializePublish.c **** 	rc = 1;
 126              		.loc 1 66 0
 127 006c 0124     		mov	r4, #1
 128              	.LVL12:
  64:..\acn-sdk-c\src\mqtt\packet\src/MQTTDeserializePublish.c **** 	*payload = curdata;
 129              		.loc 1 64 0
 130 006e 029B     		ldr	r3, [sp, #8]
 131 0070 0C9A     		ldr	r2, [sp, #48]
 132 0072 F61A     		sub	r6, r6, r3
 133              	.LVL13:
 134 0074 1660     		str	r6, [r2]
  65:..\acn-sdk-c\src\mqtt\packet\src/MQTTDeserializePublish.c **** 	rc = 1;
 135              		.loc 1 65 0
 136 0076 0B9A     		ldr	r2, [sp, #44]
 137 0078 1360     		str	r3, [r2]
 138              	.LVL14:
 139              	.L2:
  67:..\acn-sdk-c\src\mqtt\packet\src/MQTTDeserializePublish.c **** exit:
  68:..\acn-sdk-c\src\mqtt\packet\src/MQTTDeserializePublish.c **** 	FUNC_EXIT_RC(rc);
  69:..\acn-sdk-c\src\mqtt\packet\src/MQTTDeserializePublish.c **** 	return rc;
  70:..\acn-sdk-c\src\mqtt\packet\src/MQTTDeserializePublish.c **** }
 140              		.loc 1 70 0
 141 007a 201C     		mov	r0, r4
 142 007c 05B0     		add	sp, sp, #20
 143              		@ sp needed
 144              	.LVL15:
ARM GAS  C:\Users\ddemidov\AppData\Local\Temp\ccEyGOUV.s 			page 5


 145              	.LVL16:
 146              	.LVL17:
 147 007e F0BD     		pop	{r4, r5, r6, r7, pc}
 148              		.cfi_endproc
 149              	.LFE0:
 150              		.size	MQTTDeserialize_publish, .-MQTTDeserialize_publish
 151              		.section	.text.MQTTDeserialize_ack,"ax",%progbits
 152              		.align	1
 153              		.global	MQTTDeserialize_ack
 154              		.code	16
 155              		.thumb_func
 156              		.type	MQTTDeserialize_ack, %function
 157              	MQTTDeserialize_ack:
 158              	.LFB1:
  71:..\acn-sdk-c\src\mqtt\packet\src/MQTTDeserializePublish.c **** 
  72:..\acn-sdk-c\src\mqtt\packet\src/MQTTDeserializePublish.c **** 
  73:..\acn-sdk-c\src\mqtt\packet\src/MQTTDeserializePublish.c **** 
  74:..\acn-sdk-c\src\mqtt\packet\src/MQTTDeserializePublish.c **** /**
  75:..\acn-sdk-c\src\mqtt\packet\src/MQTTDeserializePublish.c ****   * Deserializes the supplied (wire) buffer into an ack
  76:..\acn-sdk-c\src\mqtt\packet\src/MQTTDeserializePublish.c ****   * @param packettype returned integer - the MQTT packet type
  77:..\acn-sdk-c\src\mqtt\packet\src/MQTTDeserializePublish.c ****   * @param dup returned integer - the MQTT dup flag
  78:..\acn-sdk-c\src\mqtt\packet\src/MQTTDeserializePublish.c ****   * @param packetid returned integer - the MQTT packet identifier
  79:..\acn-sdk-c\src\mqtt\packet\src/MQTTDeserializePublish.c ****   * @param buf the raw buffer data, of the correct length determined by the remaining length field
  80:..\acn-sdk-c\src\mqtt\packet\src/MQTTDeserializePublish.c ****   * @param buflen the length in bytes of the data in the supplied buffer
  81:..\acn-sdk-c\src\mqtt\packet\src/MQTTDeserializePublish.c ****   * @return error code.  1 is success, 0 is failure
  82:..\acn-sdk-c\src\mqtt\packet\src/MQTTDeserializePublish.c ****   */
  83:..\acn-sdk-c\src\mqtt\packet\src/MQTTDeserializePublish.c **** int MQTTDeserialize_ack(unsigned char* packettype, unsigned char* dup, unsigned short* packetid, un
  84:..\acn-sdk-c\src\mqtt\packet\src/MQTTDeserializePublish.c **** {
 159              		.loc 1 84 0
 160              		.cfi_startproc
 161              	.LVL18:
 162 0000 73B5     		push	{r0, r1, r4, r5, r6, lr}
 163              		.cfi_def_cfa_offset 24
 164              		.cfi_offset 0, -24
 165              		.cfi_offset 1, -20
 166              		.cfi_offset 4, -16
 167              		.cfi_offset 5, -12
 168              		.cfi_offset 6, -8
 169              		.cfi_offset 14, -4
 170              		.loc 1 84 0
 171 0002 051C     		mov	r5, r0
  85:..\acn-sdk-c\src\mqtt\packet\src/MQTTDeserializePublish.c ****   SSP_PARAMETER_NOT_USED(buflen);
  86:..\acn-sdk-c\src\mqtt\packet\src/MQTTDeserializePublish.c **** 	MQTTHeader header = {0};
  87:..\acn-sdk-c\src\mqtt\packet\src/MQTTDeserializePublish.c **** 	unsigned char* curdata = buf;
  88:..\acn-sdk-c\src\mqtt\packet\src/MQTTDeserializePublish.c **** 	unsigned char* enddata = NULL;
  89:..\acn-sdk-c\src\mqtt\packet\src/MQTTDeserializePublish.c **** 	int rc = 0;
  90:..\acn-sdk-c\src\mqtt\packet\src/MQTTDeserializePublish.c **** 	int mylen;
  91:..\acn-sdk-c\src\mqtt\packet\src/MQTTDeserializePublish.c **** 
  92:..\acn-sdk-c\src\mqtt\packet\src/MQTTDeserializePublish.c **** 	FUNC_ENTRY;
  93:..\acn-sdk-c\src\mqtt\packet\src/MQTTDeserializePublish.c **** 	header.byte = readChar(&curdata);
 172              		.loc 1 93 0
 173 0004 6846     		mov	r0, sp
 174              	.LVL19:
  84:..\acn-sdk-c\src\mqtt\packet\src/MQTTDeserializePublish.c ****   SSP_PARAMETER_NOT_USED(buflen);
 175              		.loc 1 84 0
 176 0006 0E1C     		mov	r6, r1
 177 0008 141C     		mov	r4, r2
ARM GAS  C:\Users\ddemidov\AppData\Local\Temp\ccEyGOUV.s 			page 6


  87:..\acn-sdk-c\src\mqtt\packet\src/MQTTDeserializePublish.c **** 	unsigned char* enddata = NULL;
 178              		.loc 1 87 0
 179 000a 0093     		str	r3, [sp]
 180              	.LVL20:
 181              		.loc 1 93 0
 182 000c FFF7FEFF 		bl	readChar
 183              	.LVL21:
  94:..\acn-sdk-c\src\mqtt\packet\src/MQTTDeserializePublish.c **** 	*dup = header.bits.dup;
 184              		.loc 1 94 0
 185 0010 0307     		lsl	r3, r0, #28
  95:..\acn-sdk-c\src\mqtt\packet\src/MQTTDeserializePublish.c **** 	*packettype = header.bits.type;
 186              		.loc 1 95 0
 187 0012 0006     		lsl	r0, r0, #24
  94:..\acn-sdk-c\src\mqtt\packet\src/MQTTDeserializePublish.c **** 	*dup = header.bits.dup;
 188              		.loc 1 94 0
 189 0014 DB0F     		lsr	r3, r3, #31
 190              		.loc 1 95 0
 191 0016 000F     		lsr	r0, r0, #28
  94:..\acn-sdk-c\src\mqtt\packet\src/MQTTDeserializePublish.c **** 	*dup = header.bits.dup;
 192              		.loc 1 94 0
 193 0018 3370     		strb	r3, [r6]
  96:..\acn-sdk-c\src\mqtt\packet\src/MQTTDeserializePublish.c **** 
  97:..\acn-sdk-c\src\mqtt\packet\src/MQTTDeserializePublish.c **** 	curdata += (rc = MQTTPacket_decodeBuf(curdata, &mylen)); /* read remaining length */
 194              		.loc 1 97 0
 195 001a 01A9     		add	r1, sp, #4
  95:..\acn-sdk-c\src\mqtt\packet\src/MQTTDeserializePublish.c **** 	*packettype = header.bits.type;
 196              		.loc 1 95 0
 197 001c 2870     		strb	r0, [r5]
 198              		.loc 1 97 0
 199 001e 0098     		ldr	r0, [sp]
 200 0020 FFF7FEFF 		bl	MQTTPacket_decodeBuf
 201              	.LVL22:
 202 0024 009B     		ldr	r3, [sp]
 203 0026 1B18     		add	r3, r3, r0
 204 0028 0093     		str	r3, [sp]
 205              	.LVL23:
  98:..\acn-sdk-c\src\mqtt\packet\src/MQTTDeserializePublish.c **** 	enddata = curdata + mylen;
  99:..\acn-sdk-c\src\mqtt\packet\src/MQTTDeserializePublish.c **** 
 100:..\acn-sdk-c\src\mqtt\packet\src/MQTTDeserializePublish.c **** 	if (enddata - curdata < 2)
 206              		.loc 1 100 0
 207 002a 019B     		ldr	r3, [sp, #4]
 208              	.LVL24:
 209 002c 012B     		cmp	r3, #1
 210 002e 04DD     		ble	.L10
 101:..\acn-sdk-c\src\mqtt\packet\src/MQTTDeserializePublish.c **** 		goto exit;
 102:..\acn-sdk-c\src\mqtt\packet\src/MQTTDeserializePublish.c **** 	*packetid = readInt(&curdata);
 211              		.loc 1 102 0
 212 0030 6846     		mov	r0, sp
 213              	.LVL25:
 214 0032 FFF7FEFF 		bl	readInt
 215              	.LVL26:
 216 0036 2080     		strh	r0, [r4]
 217              	.LVL27:
 103:..\acn-sdk-c\src\mqtt\packet\src/MQTTDeserializePublish.c **** 
 104:..\acn-sdk-c\src\mqtt\packet\src/MQTTDeserializePublish.c **** 	rc = 1;
 218              		.loc 1 104 0
 219 0038 0120     		mov	r0, #1
ARM GAS  C:\Users\ddemidov\AppData\Local\Temp\ccEyGOUV.s 			page 7


 220              	.LVL28:
 221              	.L10:
 105:..\acn-sdk-c\src\mqtt\packet\src/MQTTDeserializePublish.c **** exit:
 106:..\acn-sdk-c\src\mqtt\packet\src/MQTTDeserializePublish.c **** 	FUNC_EXIT_RC(rc);
 107:..\acn-sdk-c\src\mqtt\packet\src/MQTTDeserializePublish.c **** 	return rc;
 108:..\acn-sdk-c\src\mqtt\packet\src/MQTTDeserializePublish.c **** }
 222              		.loc 1 108 0
 223              		@ sp needed
 224              	.LVL29:
 225              	.LVL30:
 226              	.LVL31:
 227 003a 76BD     		pop	{r1, r2, r4, r5, r6, pc}
 228              		.cfi_endproc
 229              	.LFE1:
 230              		.size	MQTTDeserialize_ack, .-MQTTDeserialize_ack
 231              		.text
 232              	.Letext0:
 233              		.file 2 "..\\acn-sdk-c\\include/mqtt/packet/MQTTPacket.h"