ARM GAS  C:\Users\ddemidov\AppData\Local\Temp\ccmW2Aop.s 			page 1


   1              		.cpu cortex-m0
   2              		.fpu softvfp
   3              		.eabi_attribute 20, 1
   4              		.eabi_attribute 21, 1
   5              		.eabi_attribute 23, 3
   6              		.eabi_attribute 24, 1
   7              		.eabi_attribute 25, 1
   8              		.eabi_attribute 26, 1
   9              		.eabi_attribute 30, 4
  10              		.eabi_attribute 34, 0
  11              		.eabi_attribute 18, 4
  12              		.code	16
  13              		.file	"MQTTSubscribeServer.c"
  14              		.text
  15              	.Ltext0:
  16              		.cfi_sections	.debug_frame
  17              		.section	.text.MQTTDeserialize_subscribe,"ax",%progbits
  18              		.align	1
  19              		.global	MQTTDeserialize_subscribe
  20              		.code	16
  21              		.thumb_func
  22              		.type	MQTTDeserialize_subscribe, %function
  23              	MQTTDeserialize_subscribe:
  24              	.LFB0:
  25              		.file 1 "..\\acn-sdk-c\\src\\mqtt\\packet\\src\\MQTTSubscribeServer.c"
   1:..\acn-sdk-c\src\mqtt\packet\src/MQTTSubscribeServer.c **** /*******************************************************************************
   2:..\acn-sdk-c\src\mqtt\packet\src/MQTTSubscribeServer.c ****  * Copyright (c) 2014 IBM Corp.
   3:..\acn-sdk-c\src\mqtt\packet\src/MQTTSubscribeServer.c ****  *
   4:..\acn-sdk-c\src\mqtt\packet\src/MQTTSubscribeServer.c ****  * All rights reserved. This program and the accompanying materials
   5:..\acn-sdk-c\src\mqtt\packet\src/MQTTSubscribeServer.c ****  * are made available under the terms of the Eclipse Public License v1.0
   6:..\acn-sdk-c\src\mqtt\packet\src/MQTTSubscribeServer.c ****  * and Eclipse Distribution License v1.0 which accompany this distribution.
   7:..\acn-sdk-c\src\mqtt\packet\src/MQTTSubscribeServer.c ****  *
   8:..\acn-sdk-c\src\mqtt\packet\src/MQTTSubscribeServer.c ****  * The Eclipse Public License is available at
   9:..\acn-sdk-c\src\mqtt\packet\src/MQTTSubscribeServer.c ****  *    http://www.eclipse.org/legal/epl-v10.html
  10:..\acn-sdk-c\src\mqtt\packet\src/MQTTSubscribeServer.c ****  * and the Eclipse Distribution License is available at
  11:..\acn-sdk-c\src\mqtt\packet\src/MQTTSubscribeServer.c ****  *   http://www.eclipse.org/org/documents/edl-v10.php.
  12:..\acn-sdk-c\src\mqtt\packet\src/MQTTSubscribeServer.c ****  *
  13:..\acn-sdk-c\src\mqtt\packet\src/MQTTSubscribeServer.c ****  * Contributors:
  14:..\acn-sdk-c\src\mqtt\packet\src/MQTTSubscribeServer.c ****  *    Ian Craggs - initial API and implementation and/or initial documentation
  15:..\acn-sdk-c\src\mqtt\packet\src/MQTTSubscribeServer.c ****  *******************************************************************************/
  16:..\acn-sdk-c\src\mqtt\packet\src/MQTTSubscribeServer.c **** 
  17:..\acn-sdk-c\src\mqtt\packet\src/MQTTSubscribeServer.c **** #include "mqtt/packet/MQTTPacket.h"
  18:..\acn-sdk-c\src\mqtt\packet\src/MQTTSubscribeServer.c **** #include "mqtt/packet/StackTrace.h"
  19:..\acn-sdk-c\src\mqtt\packet\src/MQTTSubscribeServer.c **** 
  20:..\acn-sdk-c\src\mqtt\packet\src/MQTTSubscribeServer.c **** #include <string.h>
  21:..\acn-sdk-c\src\mqtt\packet\src/MQTTSubscribeServer.c **** 
  22:..\acn-sdk-c\src\mqtt\packet\src/MQTTSubscribeServer.c **** 
  23:..\acn-sdk-c\src\mqtt\packet\src/MQTTSubscribeServer.c **** /**
  24:..\acn-sdk-c\src\mqtt\packet\src/MQTTSubscribeServer.c ****   * Deserializes the supplied (wire) buffer into subscribe data
  25:..\acn-sdk-c\src\mqtt\packet\src/MQTTSubscribeServer.c ****   * @param dup integer returned - the MQTT dup flag
  26:..\acn-sdk-c\src\mqtt\packet\src/MQTTSubscribeServer.c ****   * @param packetid integer returned - the MQTT packet identifier
  27:..\acn-sdk-c\src\mqtt\packet\src/MQTTSubscribeServer.c ****   * @param maxcount - the maximum number of members allowed in the topicFilters and requestedQoSs a
  28:..\acn-sdk-c\src\mqtt\packet\src/MQTTSubscribeServer.c ****   * @param count - number of members in the topicFilters and requestedQoSs arrays
  29:..\acn-sdk-c\src\mqtt\packet\src/MQTTSubscribeServer.c ****   * @param topicFilters - array of topic filter names
  30:..\acn-sdk-c\src\mqtt\packet\src/MQTTSubscribeServer.c ****   * @param requestedQoSs - array of requested QoS
  31:..\acn-sdk-c\src\mqtt\packet\src/MQTTSubscribeServer.c ****   * @param buf the raw buffer data, of the correct length determined by the remaining length field
  32:..\acn-sdk-c\src\mqtt\packet\src/MQTTSubscribeServer.c ****   * @param buflen the length in bytes of the data in the supplied buffer
ARM GAS  C:\Users\ddemidov\AppData\Local\Temp\ccmW2Aop.s 			page 2


  33:..\acn-sdk-c\src\mqtt\packet\src/MQTTSubscribeServer.c ****   * @return the length of the serialized data.  <= 0 indicates error
  34:..\acn-sdk-c\src\mqtt\packet\src/MQTTSubscribeServer.c ****   */
  35:..\acn-sdk-c\src\mqtt\packet\src/MQTTSubscribeServer.c **** int MQTTDeserialize_subscribe(unsigned char* dup, unsigned short* packetid, int maxcount, int* coun
  36:..\acn-sdk-c\src\mqtt\packet\src/MQTTSubscribeServer.c **** 	int requestedQoSs[], unsigned char* buf, int buflen)
  37:..\acn-sdk-c\src\mqtt\packet\src/MQTTSubscribeServer.c **** {
  26              		.loc 1 37 0
  27              		.cfi_startproc
  28              	.LVL0:
  29 0000 F0B5     		push	{r4, r5, r6, r7, lr}
  30              		.cfi_def_cfa_offset 20
  31              		.cfi_offset 4, -20
  32              		.cfi_offset 5, -16
  33              		.cfi_offset 6, -12
  34              		.cfi_offset 7, -8
  35              		.cfi_offset 14, -4
  38:..\acn-sdk-c\src\mqtt\packet\src/MQTTSubscribeServer.c ****   SSP_PARAMETER_NOT_USED(maxcount);
  39:..\acn-sdk-c\src\mqtt\packet\src/MQTTSubscribeServer.c ****   SSP_PARAMETER_NOT_USED(buflen);
  40:..\acn-sdk-c\src\mqtt\packet\src/MQTTSubscribeServer.c **** 	MQTTHeader header = {0};
  41:..\acn-sdk-c\src\mqtt\packet\src/MQTTSubscribeServer.c **** 	unsigned char* curdata = buf;
  42:..\acn-sdk-c\src\mqtt\packet\src/MQTTSubscribeServer.c **** 	unsigned char* enddata = NULL;
  43:..\acn-sdk-c\src\mqtt\packet\src/MQTTSubscribeServer.c **** 	int rc = -1;
  44:..\acn-sdk-c\src\mqtt\packet\src/MQTTSubscribeServer.c **** 	int mylen = 0;
  36              		.loc 1 44 0
  37 0002 0027     		mov	r7, #0
  37:..\acn-sdk-c\src\mqtt\packet\src/MQTTSubscribeServer.c ****   SSP_PARAMETER_NOT_USED(maxcount);
  38              		.loc 1 37 0
  39 0004 85B0     		sub	sp, sp, #20
  40              		.cfi_def_cfa_offset 40
  37:..\acn-sdk-c\src\mqtt\packet\src/MQTTSubscribeServer.c ****   SSP_PARAMETER_NOT_USED(maxcount);
  41              		.loc 1 37 0
  42 0006 1D1C     		mov	r5, r3
  41:..\acn-sdk-c\src\mqtt\packet\src/MQTTSubscribeServer.c **** 	unsigned char* enddata = NULL;
  43              		.loc 1 41 0
  44 0008 0C9B     		ldr	r3, [sp, #48]
  45              	.LVL1:
  37:..\acn-sdk-c\src\mqtt\packet\src/MQTTSubscribeServer.c ****   SSP_PARAMETER_NOT_USED(maxcount);
  46              		.loc 1 37 0
  47 000a 041C     		mov	r4, r0
  45:..\acn-sdk-c\src\mqtt\packet\src/MQTTSubscribeServer.c **** 
  46:..\acn-sdk-c\src\mqtt\packet\src/MQTTSubscribeServer.c **** 	FUNC_ENTRY;
  47:..\acn-sdk-c\src\mqtt\packet\src/MQTTSubscribeServer.c **** 	header.byte = readChar(&curdata);
  48              		.loc 1 47 0
  49 000c 02A8     		add	r0, sp, #8
  50              	.LVL2:
  41:..\acn-sdk-c\src\mqtt\packet\src/MQTTSubscribeServer.c **** 	unsigned char* enddata = NULL;
  51              		.loc 1 41 0
  52 000e 0293     		str	r3, [sp, #8]
  53              	.LVL3:
  37:..\acn-sdk-c\src\mqtt\packet\src/MQTTSubscribeServer.c ****   SSP_PARAMETER_NOT_USED(maxcount);
  54              		.loc 1 37 0
  55 0010 0191     		str	r1, [sp, #4]
  44:..\acn-sdk-c\src\mqtt\packet\src/MQTTSubscribeServer.c **** 
  56              		.loc 1 44 0
  57 0012 0397     		str	r7, [sp, #12]
  58              		.loc 1 47 0
  59 0014 FFF7FEFF 		bl	readChar
  60              	.LVL4:
ARM GAS  C:\Users\ddemidov\AppData\Local\Temp\ccmW2Aop.s 			page 3


  48:..\acn-sdk-c\src\mqtt\packet\src/MQTTSubscribeServer.c **** 	if (header.bits.type != SUBSCRIBE)
  61              		.loc 1 48 0
  62 0018 F023     		mov	r3, #240
  63 001a 0340     		and	r3, r0
  64 001c 802B     		cmp	r3, #128
  65 001e 31D1     		bne	.L5
  49:..\acn-sdk-c\src\mqtt\packet\src/MQTTSubscribeServer.c **** 		goto exit;
  50:..\acn-sdk-c\src\mqtt\packet\src/MQTTSubscribeServer.c **** 	*dup = header.bits.dup;
  66              		.loc 1 50 0
  67 0020 0007     		lsl	r0, r0, #28
  68 0022 C00F     		lsr	r0, r0, #31
  69 0024 2070     		strb	r0, [r4]
  51:..\acn-sdk-c\src\mqtt\packet\src/MQTTSubscribeServer.c **** 
  52:..\acn-sdk-c\src\mqtt\packet\src/MQTTSubscribeServer.c **** 	curdata += (rc = MQTTPacket_decodeBuf(curdata, &mylen)); /* read remaining length */
  70              		.loc 1 52 0
  71 0026 03A9     		add	r1, sp, #12
  72 0028 0298     		ldr	r0, [sp, #8]
  73 002a FFF7FEFF 		bl	MQTTPacket_decodeBuf
  74              	.LVL5:
  75 002e 029B     		ldr	r3, [sp, #8]
  76 0030 061C     		mov	r6, r0
  77              	.LVL6:
  78 0032 1C18     		add	r4, r3, r0
  79              	.LVL7:
  53:..\acn-sdk-c\src\mqtt\packet\src/MQTTSubscribeServer.c **** 	enddata = curdata + mylen;
  80              		.loc 1 53 0
  81 0034 039B     		ldr	r3, [sp, #12]
  54:..\acn-sdk-c\src\mqtt\packet\src/MQTTSubscribeServer.c **** 
  55:..\acn-sdk-c\src\mqtt\packet\src/MQTTSubscribeServer.c **** 	*packetid = readInt(&curdata);
  82              		.loc 1 55 0
  83 0036 02A8     		add	r0, sp, #8
  84              	.LVL8:
  52:..\acn-sdk-c\src\mqtt\packet\src/MQTTSubscribeServer.c **** 	enddata = curdata + mylen;
  85              		.loc 1 52 0
  86 0038 0294     		str	r4, [sp, #8]
  53:..\acn-sdk-c\src\mqtt\packet\src/MQTTSubscribeServer.c **** 	enddata = curdata + mylen;
  87              		.loc 1 53 0
  88 003a E418     		add	r4, r4, r3
  89              	.LVL9:
  90              		.loc 1 55 0
  91 003c FFF7FEFF 		bl	readInt
  92              	.LVL10:
  93 0040 019B     		ldr	r3, [sp, #4]
  94 0042 1880     		strh	r0, [r3]
  56:..\acn-sdk-c\src\mqtt\packet\src/MQTTSubscribeServer.c **** 
  57:..\acn-sdk-c\src\mqtt\packet\src/MQTTSubscribeServer.c **** 	*count = 0;
  95              		.loc 1 57 0
  96 0044 2F60     		str	r7, [r5]
  97              	.L3:
  58:..\acn-sdk-c\src\mqtt\packet\src/MQTTSubscribeServer.c **** 	while (curdata < enddata)
  98              		.loc 1 58 0
  99 0046 029B     		ldr	r3, [sp, #8]
 100 0048 A342     		cmp	r3, r4
 101 004a 19D2     		bcs	.L10
  59:..\acn-sdk-c\src\mqtt\packet\src/MQTTSubscribeServer.c **** 	{
  60:..\acn-sdk-c\src\mqtt\packet\src/MQTTSubscribeServer.c **** 		if (!readMQTTLenString(&topicFilters[*count], &curdata, enddata))
 102              		.loc 1 60 0
ARM GAS  C:\Users\ddemidov\AppData\Local\Temp\ccmW2Aop.s 			page 4


 103 004c 0C20     		mov	r0, #12
 104 004e 2B68     		ldr	r3, [r5]
 105 0050 02A9     		add	r1, sp, #8
 106 0052 5843     		mul	r0, r3
 107 0054 0A9B     		ldr	r3, [sp, #40]
 108 0056 221C     		mov	r2, r4
 109 0058 1818     		add	r0, r3, r0
 110 005a FFF7FEFF 		bl	readMQTTLenString
 111              	.LVL11:
 112 005e 0028     		cmp	r0, #0
 113 0060 12D0     		beq	.L2
  61:..\acn-sdk-c\src\mqtt\packet\src/MQTTSubscribeServer.c **** 			goto exit;
  62:..\acn-sdk-c\src\mqtt\packet\src/MQTTSubscribeServer.c **** 		if (curdata >= enddata) /* do we have enough data to read the req_qos version byte? */
 114              		.loc 1 62 0
 115 0062 029B     		ldr	r3, [sp, #8]
 116 0064 A342     		cmp	r3, r4
 117 0066 0FD2     		bcs	.L2
  63:..\acn-sdk-c\src\mqtt\packet\src/MQTTSubscribeServer.c **** 			goto exit;
  64:..\acn-sdk-c\src\mqtt\packet\src/MQTTSubscribeServer.c **** 		requestedQoSs[*count] = readChar(&curdata);
 118              		.loc 1 64 0
 119 0068 2B68     		ldr	r3, [r5]
 120 006a 02A8     		add	r0, sp, #8
 121 006c 9F00     		lsl	r7, r3, #2
 122 006e 0B9B     		ldr	r3, [sp, #44]
 123 0070 DF19     		add	r7, r3, r7
 124 0072 FFF7FEFF 		bl	readChar
 125              	.LVL12:
 126 0076 3860     		str	r0, [r7]
  65:..\acn-sdk-c\src\mqtt\packet\src/MQTTSubscribeServer.c **** 		(*count)++;
 127              		.loc 1 65 0
 128 0078 2B68     		ldr	r3, [r5]
 129 007a 0133     		add	r3, r3, #1
 130 007c 2B60     		str	r3, [r5]
 131 007e E2E7     		b	.L3
 132              	.L10:
  66:..\acn-sdk-c\src\mqtt\packet\src/MQTTSubscribeServer.c **** 	}
  67:..\acn-sdk-c\src\mqtt\packet\src/MQTTSubscribeServer.c **** 
  68:..\acn-sdk-c\src\mqtt\packet\src/MQTTSubscribeServer.c **** 	rc = 1;
 133              		.loc 1 68 0
 134 0080 0126     		mov	r6, #1
 135              	.LVL13:
 136 0082 01E0     		b	.L2
 137              	.LVL14:
 138              	.L5:
  43:..\acn-sdk-c\src\mqtt\packet\src/MQTTSubscribeServer.c **** 	int mylen = 0;
 139              		.loc 1 43 0
 140 0084 0126     		mov	r6, #1
 141 0086 7642     		neg	r6, r6
 142              	.LVL15:
 143              	.L2:
  69:..\acn-sdk-c\src\mqtt\packet\src/MQTTSubscribeServer.c **** exit:
  70:..\acn-sdk-c\src\mqtt\packet\src/MQTTSubscribeServer.c **** 	FUNC_EXIT_RC(rc);
  71:..\acn-sdk-c\src\mqtt\packet\src/MQTTSubscribeServer.c **** 	return rc;
  72:..\acn-sdk-c\src\mqtt\packet\src/MQTTSubscribeServer.c **** }
 144              		.loc 1 72 0
 145 0088 301C     		mov	r0, r6
 146 008a 05B0     		add	sp, sp, #20
ARM GAS  C:\Users\ddemidov\AppData\Local\Temp\ccmW2Aop.s 			page 5


 147              		@ sp needed
 148              	.LVL16:
 149              	.LVL17:
 150 008c F0BD     		pop	{r4, r5, r6, r7, pc}
 151              		.cfi_endproc
 152              	.LFE0:
 153              		.size	MQTTDeserialize_subscribe, .-MQTTDeserialize_subscribe
 154              		.section	.text.MQTTSerialize_suback,"ax",%progbits
 155              		.align	1
 156              		.global	MQTTSerialize_suback
 157              		.code	16
 158              		.thumb_func
 159              		.type	MQTTSerialize_suback, %function
 160              	MQTTSerialize_suback:
 161              	.LFB1:
  73:..\acn-sdk-c\src\mqtt\packet\src/MQTTSubscribeServer.c **** 
  74:..\acn-sdk-c\src\mqtt\packet\src/MQTTSubscribeServer.c **** 
  75:..\acn-sdk-c\src\mqtt\packet\src/MQTTSubscribeServer.c **** /**
  76:..\acn-sdk-c\src\mqtt\packet\src/MQTTSubscribeServer.c ****   * Serializes the supplied suback data into the supplied buffer, ready for sending
  77:..\acn-sdk-c\src\mqtt\packet\src/MQTTSubscribeServer.c ****   * @param buf the buffer into which the packet will be serialized
  78:..\acn-sdk-c\src\mqtt\packet\src/MQTTSubscribeServer.c ****   * @param buflen the length in bytes of the supplied buffer
  79:..\acn-sdk-c\src\mqtt\packet\src/MQTTSubscribeServer.c ****   * @param packetid integer - the MQTT packet identifier
  80:..\acn-sdk-c\src\mqtt\packet\src/MQTTSubscribeServer.c ****   * @param count - number of members in the grantedQoSs array
  81:..\acn-sdk-c\src\mqtt\packet\src/MQTTSubscribeServer.c ****   * @param grantedQoSs - array of granted QoS
  82:..\acn-sdk-c\src\mqtt\packet\src/MQTTSubscribeServer.c ****   * @return the length of the serialized data.  <= 0 indicates error
  83:..\acn-sdk-c\src\mqtt\packet\src/MQTTSubscribeServer.c ****   */
  84:..\acn-sdk-c\src\mqtt\packet\src/MQTTSubscribeServer.c **** int MQTTSerialize_suback(unsigned char* buf, int buflen, unsigned short packetid, int count, int* g
  85:..\acn-sdk-c\src\mqtt\packet\src/MQTTSubscribeServer.c **** {
 162              		.loc 1 85 0
 163              		.cfi_startproc
 164              	.LVL18:
 165 0000 73B5     		push	{r0, r1, r4, r5, r6, lr}
 166              		.cfi_def_cfa_offset 24
 167              		.cfi_offset 0, -24
 168              		.cfi_offset 1, -20
 169              		.cfi_offset 4, -16
 170              		.cfi_offset 5, -12
 171              		.cfi_offset 6, -8
 172              		.cfi_offset 14, -4
  86:..\acn-sdk-c\src\mqtt\packet\src/MQTTSubscribeServer.c **** 	MQTTHeader header = {0};
  87:..\acn-sdk-c\src\mqtt\packet\src/MQTTSubscribeServer.c **** 	int rc = -1;
  88:..\acn-sdk-c\src\mqtt\packet\src/MQTTSubscribeServer.c **** 	unsigned char *ptr = buf;
  89:..\acn-sdk-c\src\mqtt\packet\src/MQTTSubscribeServer.c **** 	int i;
  90:..\acn-sdk-c\src\mqtt\packet\src/MQTTSubscribeServer.c **** 
  91:..\acn-sdk-c\src\mqtt\packet\src/MQTTSubscribeServer.c **** 	FUNC_ENTRY;
  92:..\acn-sdk-c\src\mqtt\packet\src/MQTTSubscribeServer.c **** 	if (buflen < 2 + count)
 173              		.loc 1 92 0
 174 0002 5C1C     		add	r4, r3, #1
  88:..\acn-sdk-c\src\mqtt\packet\src/MQTTSubscribeServer.c **** 	int i;
 175              		.loc 1 88 0
 176 0004 0190     		str	r0, [sp, #4]
 177              		.loc 1 92 0
 178 0006 8C42     		cmp	r4, r1
 179 0008 20DA     		bge	.L15
 180 000a 1C1C     		mov	r4, r3
  93:..\acn-sdk-c\src\mqtt\packet\src/MQTTSubscribeServer.c **** 	{
  94:..\acn-sdk-c\src\mqtt\packet\src/MQTTSubscribeServer.c **** 		rc = MQTTPACKET_BUFFER_TOO_SHORT;
ARM GAS  C:\Users\ddemidov\AppData\Local\Temp\ccmW2Aop.s 			page 6


  95:..\acn-sdk-c\src\mqtt\packet\src/MQTTSubscribeServer.c **** 		goto exit;
  96:..\acn-sdk-c\src\mqtt\packet\src/MQTTSubscribeServer.c **** 	}
  97:..\acn-sdk-c\src\mqtt\packet\src/MQTTSubscribeServer.c **** 	header.byte = 0;
  98:..\acn-sdk-c\src\mqtt\packet\src/MQTTSubscribeServer.c **** 	header.bits.type = SUBACK;
  99:..\acn-sdk-c\src\mqtt\packet\src/MQTTSubscribeServer.c **** 	writeChar(&ptr, header.byte); /* write header */
 181              		.loc 1 99 0
 182 000c 9021     		mov	r1, #144
 183              	.LVL19:
 184 000e 051C     		mov	r5, r0
 185 0010 01A8     		add	r0, sp, #4
 186              	.LVL20:
 187 0012 161C     		mov	r6, r2
 188 0014 FFF7FEFF 		bl	writeChar
 189              	.LVL21:
 100:..\acn-sdk-c\src\mqtt\packet\src/MQTTSubscribeServer.c **** 
 101:..\acn-sdk-c\src\mqtt\packet\src/MQTTSubscribeServer.c **** 	ptr += MQTTPacket_encode(ptr, 2 + count); /* write remaining length */
 190              		.loc 1 101 0
 191 0018 A11C     		add	r1, r4, #2
 192 001a 0198     		ldr	r0, [sp, #4]
 193 001c FFF7FEFF 		bl	MQTTPacket_encode
 194              	.LVL22:
 195 0020 019B     		ldr	r3, [sp, #4]
 102:..\acn-sdk-c\src\mqtt\packet\src/MQTTSubscribeServer.c **** 
 103:..\acn-sdk-c\src\mqtt\packet\src/MQTTSubscribeServer.c **** 	writeInt(&ptr, packetid);
 196              		.loc 1 103 0
 197 0022 311C     		mov	r1, r6
 101:..\acn-sdk-c\src\mqtt\packet\src/MQTTSubscribeServer.c **** 
 198              		.loc 1 101 0
 199 0024 1818     		add	r0, r3, r0
 200 0026 0190     		str	r0, [sp, #4]
 201              		.loc 1 103 0
 202 0028 01A8     		add	r0, sp, #4
 203 002a FFF7FEFF 		bl	writeInt
 204              	.LVL23:
 104:..\acn-sdk-c\src\mqtt\packet\src/MQTTSubscribeServer.c **** 
 105:..\acn-sdk-c\src\mqtt\packet\src/MQTTSubscribeServer.c **** 	for (i = 0; i < count; ++i)
 205              		.loc 1 105 0
 206 002e 0026     		mov	r6, #0
 207              	.LVL24:
 208              	.L13:
 209              		.loc 1 105 0 is_stmt 0 discriminator 1
 210 0030 A642     		cmp	r6, r4
 211 0032 08DA     		bge	.L16
 106:..\acn-sdk-c\src\mqtt\packet\src/MQTTSubscribeServer.c **** 		writeChar(&ptr, grantedQoSs[i]);
 212              		.loc 1 106 0 is_stmt 1 discriminator 3
 213 0034 069A     		ldr	r2, [sp, #24]
 214 0036 B300     		lsl	r3, r6, #2
 215 0038 D158     		ldr	r1, [r2, r3]
 216 003a 01A8     		add	r0, sp, #4
 217 003c C9B2     		uxtb	r1, r1
 218 003e FFF7FEFF 		bl	writeChar
 219              	.LVL25:
 105:..\acn-sdk-c\src\mqtt\packet\src/MQTTSubscribeServer.c **** 		writeChar(&ptr, grantedQoSs[i]);
 220              		.loc 1 105 0 discriminator 3
 221 0042 0136     		add	r6, r6, #1
 222              	.LVL26:
 223 0044 F4E7     		b	.L13
ARM GAS  C:\Users\ddemidov\AppData\Local\Temp\ccmW2Aop.s 			page 7


 224              	.L16:
 107:..\acn-sdk-c\src\mqtt\packet\src/MQTTSubscribeServer.c **** 
 108:..\acn-sdk-c\src\mqtt\packet\src/MQTTSubscribeServer.c **** 	rc = ptr - buf;
 225              		.loc 1 108 0
 226 0046 019B     		ldr	r3, [sp, #4]
 227 0048 581B     		sub	r0, r3, r5
 228              	.LVL27:
 229 004a 01E0     		b	.L12
 230              	.LVL28:
 231              	.L15:
  94:..\acn-sdk-c\src\mqtt\packet\src/MQTTSubscribeServer.c **** 		goto exit;
 232              		.loc 1 94 0
 233 004c 0220     		mov	r0, #2
 234              	.LVL29:
 235 004e 4042     		neg	r0, r0
 236              	.LVL30:
 237              	.L12:
 109:..\acn-sdk-c\src\mqtt\packet\src/MQTTSubscribeServer.c **** exit:
 110:..\acn-sdk-c\src\mqtt\packet\src/MQTTSubscribeServer.c **** 	FUNC_EXIT_RC(rc);
 111:..\acn-sdk-c\src\mqtt\packet\src/MQTTSubscribeServer.c **** 	return rc;
 112:..\acn-sdk-c\src\mqtt\packet\src/MQTTSubscribeServer.c **** }
 238              		.loc 1 112 0
 239              		@ sp needed
 240 0050 76BD     		pop	{r1, r2, r4, r5, r6, pc}
 241              		.cfi_endproc
 242              	.LFE1:
 243              		.size	MQTTSerialize_suback, .-MQTTSerialize_suback
 244              		.text
 245              	.Letext0:
 246              		.file 2 "..\\acn-sdk-c\\include/mqtt/packet/MQTTPacket.h"