ARM GAS  C:\Users\ddemidov\AppData\Local\Temp\cc8P5geE.s 			page 1


   1              		.cpu cortex-m0
   2              		.fpu softvfp
   3              		.eabi_attribute 20, 1
   4              		.eabi_attribute 21, 1
   5              		.eabi_attribute 23, 3
   6              		.eabi_attribute 24, 1
   7              		.eabi_attribute 25, 1
   8              		.eabi_attribute 26, 1
   9              		.eabi_attribute 30, 4
  10              		.eabi_attribute 34, 0
  11              		.eabi_attribute 18, 4
  12              		.code	16
  13              		.file	"MQTTConnectServer.c"
  14              		.text
  15              	.Ltext0:
  16              		.cfi_sections	.debug_frame
  17              		.section	.text.MQTTPacket_checkVersion,"ax",%progbits
  18              		.align	1
  19              		.global	MQTTPacket_checkVersion
  20              		.code	16
  21              		.thumb_func
  22              		.type	MQTTPacket_checkVersion, %function
  23              	MQTTPacket_checkVersion:
  24              	.LFB0:
  25              		.file 1 "..\\acn-sdk-c\\src\\mqtt\\packet\\src\\MQTTConnectServer.c"
   1:..\acn-sdk-c\src\mqtt\packet\src/MQTTConnectServer.c **** /*******************************************************************************
   2:..\acn-sdk-c\src\mqtt\packet\src/MQTTConnectServer.c ****  * Copyright (c) 2014 IBM Corp.
   3:..\acn-sdk-c\src\mqtt\packet\src/MQTTConnectServer.c ****  *
   4:..\acn-sdk-c\src\mqtt\packet\src/MQTTConnectServer.c ****  * All rights reserved. This program and the accompanying materials
   5:..\acn-sdk-c\src\mqtt\packet\src/MQTTConnectServer.c ****  * are made available under the terms of the Eclipse Public License v1.0
   6:..\acn-sdk-c\src\mqtt\packet\src/MQTTConnectServer.c ****  * and Eclipse Distribution License v1.0 which accompany this distribution.
   7:..\acn-sdk-c\src\mqtt\packet\src/MQTTConnectServer.c ****  *
   8:..\acn-sdk-c\src\mqtt\packet\src/MQTTConnectServer.c ****  * The Eclipse Public License is available at
   9:..\acn-sdk-c\src\mqtt\packet\src/MQTTConnectServer.c ****  *    http://www.eclipse.org/legal/epl-v10.html
  10:..\acn-sdk-c\src\mqtt\packet\src/MQTTConnectServer.c ****  * and the Eclipse Distribution License is available at
  11:..\acn-sdk-c\src\mqtt\packet\src/MQTTConnectServer.c ****  *   http://www.eclipse.org/org/documents/edl-v10.php.
  12:..\acn-sdk-c\src\mqtt\packet\src/MQTTConnectServer.c ****  *
  13:..\acn-sdk-c\src\mqtt\packet\src/MQTTConnectServer.c ****  * Contributors:
  14:..\acn-sdk-c\src\mqtt\packet\src/MQTTConnectServer.c ****  *    Ian Craggs - initial API and implementation and/or initial documentation
  15:..\acn-sdk-c\src\mqtt\packet\src/MQTTConnectServer.c ****  *******************************************************************************/
  16:..\acn-sdk-c\src\mqtt\packet\src/MQTTConnectServer.c **** 
  17:..\acn-sdk-c\src\mqtt\packet\src/MQTTConnectServer.c **** #include "mqtt/packet/StackTrace.h"
  18:..\acn-sdk-c\src\mqtt\packet\src/MQTTConnectServer.c **** #include "mqtt/packet/MQTTConnect.h"
  19:..\acn-sdk-c\src\mqtt\packet\src/MQTTConnectServer.c **** #include <string.h>
  20:..\acn-sdk-c\src\mqtt\packet\src/MQTTConnectServer.c **** 
  21:..\acn-sdk-c\src\mqtt\packet\src/MQTTConnectServer.c **** #define min(a, b) ((a < b) ? a : b)
  22:..\acn-sdk-c\src\mqtt\packet\src/MQTTConnectServer.c **** 
  23:..\acn-sdk-c\src\mqtt\packet\src/MQTTConnectServer.c **** 
  24:..\acn-sdk-c\src\mqtt\packet\src/MQTTConnectServer.c **** /**
  25:..\acn-sdk-c\src\mqtt\packet\src/MQTTConnectServer.c ****   * Validates MQTT protocol name and version combinations
  26:..\acn-sdk-c\src\mqtt\packet\src/MQTTConnectServer.c ****   * @param protocol the MQTT protocol name as an MQTTString
  27:..\acn-sdk-c\src\mqtt\packet\src/MQTTConnectServer.c ****   * @param version the MQTT protocol version number, as in the connect packet
  28:..\acn-sdk-c\src\mqtt\packet\src/MQTTConnectServer.c ****   * @return correct MQTT combination?  1 is true, 0 is false
  29:..\acn-sdk-c\src\mqtt\packet\src/MQTTConnectServer.c ****   */
  30:..\acn-sdk-c\src\mqtt\packet\src/MQTTConnectServer.c **** int MQTTPacket_checkVersion(MQTTString* protocol, int version)
  31:..\acn-sdk-c\src\mqtt\packet\src/MQTTConnectServer.c **** {
  26              		.loc 1 31 0
ARM GAS  C:\Users\ddemidov\AppData\Local\Temp\cc8P5geE.s 			page 2


  27              		.cfi_startproc
  28              	.LVL0:
  29 0000 08B5     		push	{r3, lr}
  30              		.cfi_def_cfa_offset 8
  31              		.cfi_offset 3, -8
  32              		.cfi_offset 14, -4
  32:..\acn-sdk-c\src\mqtt\packet\src/MQTTConnectServer.c **** 	int rc = 0;
  33:..\acn-sdk-c\src\mqtt\packet\src/MQTTConnectServer.c **** 
  34:..\acn-sdk-c\src\mqtt\packet\src/MQTTConnectServer.c **** 	if (version == 3 && memcmp(protocol->lenstring.data, "MQIsdp",
  33              		.loc 1 34 0
  34 0002 0329     		cmp	r1, #3
  35 0004 06D1     		bne	.L2
  35:..\acn-sdk-c\src\mqtt\packet\src/MQTTConnectServer.c **** 			(size_t)min(6, protocol->lenstring.len)) == 0)
  36              		.loc 1 35 0 discriminator 1
  37 0006 4268     		ldr	r2, [r0, #4]
  38 0008 062A     		cmp	r2, #6
  39 000a 00DD     		ble	.L3
  40 000c 0622     		mov	r2, #6
  41              	.L3:
  34:..\acn-sdk-c\src\mqtt\packet\src/MQTTConnectServer.c **** 			(size_t)min(6, protocol->lenstring.len)) == 0)
  42              		.loc 1 34 0 discriminator 1
  43 000e 8068     		ldr	r0, [r0, #8]
  44              	.LVL1:
  45 0010 0849     		ldr	r1, .L9
  46              	.LVL2:
  47 0012 08E0     		b	.L7
  48              	.LVL3:
  49              	.L2:
  32:..\acn-sdk-c\src\mqtt\packet\src/MQTTConnectServer.c **** 	int rc = 0;
  50              		.loc 1 32 0
  51 0014 0023     		mov	r3, #0
  36:..\acn-sdk-c\src\mqtt\packet\src/MQTTConnectServer.c **** 		rc = 1;
  37:..\acn-sdk-c\src\mqtt\packet\src/MQTTConnectServer.c **** 	else if (version == 4 && memcmp(protocol->lenstring.data, "MQTT",
  52              		.loc 1 37 0
  53 0016 0429     		cmp	r1, #4
  54 0018 09D1     		bne	.L4
  55              	.LVL4:
  56              	.LBB4:
  57              	.LBB5:
  38:..\acn-sdk-c\src\mqtt\packet\src/MQTTConnectServer.c **** 			(size_t)min(4, protocol->lenstring.len)) == 0)
  58              		.loc 1 38 0
  59 001a 4268     		ldr	r2, [r0, #4]
  60 001c 042A     		cmp	r2, #4
  61 001e 00DD     		ble	.L5
  62 0020 0A1C     		mov	r2, r1
  63              	.L5:
  37:..\acn-sdk-c\src\mqtt\packet\src/MQTTConnectServer.c **** 			(size_t)min(4, protocol->lenstring.len)) == 0)
  64              		.loc 1 37 0
  65 0022 8068     		ldr	r0, [r0, #8]
  66              	.LVL5:
  67 0024 0449     		ldr	r1, .L9+4
  68              	.LVL6:
  69              	.L7:
  70 0026 FFF7FEFF 		bl	memcmp
  71              	.LVL7:
  72              	.LBE5:
  73              	.LBE4:
ARM GAS  C:\Users\ddemidov\AppData\Local\Temp\cc8P5geE.s 			page 3


  36:..\acn-sdk-c\src\mqtt\packet\src/MQTTConnectServer.c **** 		rc = 1;
  74              		.loc 1 36 0
  75 002a 4342     		neg	r3, r0
  76 002c 4341     		adc	r3, r3, r0
  77              	.L4:
  78              	.LVL8:
  39:..\acn-sdk-c\src\mqtt\packet\src/MQTTConnectServer.c **** 		rc = 1;
  40:..\acn-sdk-c\src\mqtt\packet\src/MQTTConnectServer.c **** 	return rc;
  41:..\acn-sdk-c\src\mqtt\packet\src/MQTTConnectServer.c **** }
  79              		.loc 1 41 0
  80 002e 181C     		mov	r0, r3
  81              		@ sp needed
  82 0030 08BD     		pop	{r3, pc}
  83              	.L10:
  84 0032 C046     		.align	2
  85              	.L9:
  86 0034 00000000 		.word	.LC0
  87 0038 07000000 		.word	.LC2
  88              		.cfi_endproc
  89              	.LFE0:
  90              		.size	MQTTPacket_checkVersion, .-MQTTPacket_checkVersion
  91              		.section	.text.MQTTDeserialize_connect,"ax",%progbits
  92              		.align	1
  93              		.global	MQTTDeserialize_connect
  94              		.code	16
  95              		.thumb_func
  96              		.type	MQTTDeserialize_connect, %function
  97              	MQTTDeserialize_connect:
  98              	.LFB1:
  42:..\acn-sdk-c\src\mqtt\packet\src/MQTTConnectServer.c **** 
  43:..\acn-sdk-c\src\mqtt\packet\src/MQTTConnectServer.c **** 
  44:..\acn-sdk-c\src\mqtt\packet\src/MQTTConnectServer.c **** /**
  45:..\acn-sdk-c\src\mqtt\packet\src/MQTTConnectServer.c ****   * Deserializes the supplied (wire) buffer into connect data structure
  46:..\acn-sdk-c\src\mqtt\packet\src/MQTTConnectServer.c ****   * @param data the connect data structure to be filled out
  47:..\acn-sdk-c\src\mqtt\packet\src/MQTTConnectServer.c ****   * @param buf the raw buffer data, of the correct length determined by the remaining length field
  48:..\acn-sdk-c\src\mqtt\packet\src/MQTTConnectServer.c ****   * @param len the length in bytes of the data in the supplied buffer
  49:..\acn-sdk-c\src\mqtt\packet\src/MQTTConnectServer.c ****   * @return error code.  1 is success, 0 is failure
  50:..\acn-sdk-c\src\mqtt\packet\src/MQTTConnectServer.c ****   */
  51:..\acn-sdk-c\src\mqtt\packet\src/MQTTConnectServer.c **** int MQTTDeserialize_connect(MQTTPacket_connectData* data, unsigned char* buf, int len)
  52:..\acn-sdk-c\src\mqtt\packet\src/MQTTConnectServer.c **** {
  99              		.loc 1 52 0
 100              		.cfi_startproc
 101              	.LVL9:
  53:..\acn-sdk-c\src\mqtt\packet\src/MQTTConnectServer.c **** 	MQTTHeader header = {0};
  54:..\acn-sdk-c\src\mqtt\packet\src/MQTTConnectServer.c **** 	MQTTConnectFlags flags = {0};
  55:..\acn-sdk-c\src\mqtt\packet\src/MQTTConnectServer.c **** 	unsigned char* curdata = buf;
  56:..\acn-sdk-c\src\mqtt\packet\src/MQTTConnectServer.c **** 	unsigned char* enddata = &buf[len];
  57:..\acn-sdk-c\src\mqtt\packet\src/MQTTConnectServer.c **** 	int rc = 0;
  58:..\acn-sdk-c\src\mqtt\packet\src/MQTTConnectServer.c **** 	MQTTString Protocol;
  59:..\acn-sdk-c\src\mqtt\packet\src/MQTTConnectServer.c **** 	int version;
  60:..\acn-sdk-c\src\mqtt\packet\src/MQTTConnectServer.c **** 	int mylen = 0;
 102              		.loc 1 60 0
 103 0000 0023     		mov	r3, #0
  52:..\acn-sdk-c\src\mqtt\packet\src/MQTTConnectServer.c **** 	MQTTHeader header = {0};
 104              		.loc 1 52 0
 105 0002 F0B5     		push	{r4, r5, r6, r7, lr}
 106              		.cfi_def_cfa_offset 20
ARM GAS  C:\Users\ddemidov\AppData\Local\Temp\cc8P5geE.s 			page 4


 107              		.cfi_offset 4, -20
 108              		.cfi_offset 5, -16
 109              		.cfi_offset 6, -12
 110              		.cfi_offset 7, -8
 111              		.cfi_offset 14, -4
 112 0004 87B0     		sub	sp, sp, #28
 113              		.cfi_def_cfa_offset 48
  52:..\acn-sdk-c\src\mqtt\packet\src/MQTTConnectServer.c **** 	MQTTHeader header = {0};
 114              		.loc 1 52 0
 115 0006 041C     		mov	r4, r0
  61:..\acn-sdk-c\src\mqtt\packet\src/MQTTConnectServer.c **** 
  62:..\acn-sdk-c\src\mqtt\packet\src/MQTTConnectServer.c **** 	FUNC_ENTRY;
  63:..\acn-sdk-c\src\mqtt\packet\src/MQTTConnectServer.c **** 	header.byte = readChar(&curdata);
 116              		.loc 1 63 0
 117 0008 01A8     		add	r0, sp, #4
 118              	.LVL10:
  60:..\acn-sdk-c\src\mqtt\packet\src/MQTTConnectServer.c **** 
 119              		.loc 1 60 0
 120 000a 0293     		str	r3, [sp, #8]
  52:..\acn-sdk-c\src\mqtt\packet\src/MQTTConnectServer.c **** 	MQTTHeader header = {0};
 121              		.loc 1 52 0
 122 000c 0D1C     		mov	r5, r1
 123 000e 161C     		mov	r6, r2
  55:..\acn-sdk-c\src\mqtt\packet\src/MQTTConnectServer.c **** 	unsigned char* enddata = &buf[len];
 124              		.loc 1 55 0
 125 0010 0191     		str	r1, [sp, #4]
 126              	.LVL11:
 127              		.loc 1 63 0
 128 0012 FFF7FEFF 		bl	readChar
 129              	.LVL12:
  64:..\acn-sdk-c\src\mqtt\packet\src/MQTTConnectServer.c **** 	if (header.bits.type != CONNECT)
 130              		.loc 1 64 0
 131 0016 F023     		mov	r3, #240
 132 0018 1840     		and	r0, r3
 133              	.LVL13:
 134 001a 1028     		cmp	r0, #16
 135 001c 01D0     		beq	.L12
 136              	.LVL14:
 137              	.L14:
  57:..\acn-sdk-c\src\mqtt\packet\src/MQTTConnectServer.c **** 	MQTTString Protocol;
 138              		.loc 1 57 0
 139 001e 0020     		mov	r0, #0
 140 0020 70E0     		b	.L13
 141              	.LVL15:
 142              	.L12:
  65:..\acn-sdk-c\src\mqtt\packet\src/MQTTConnectServer.c **** 		goto exit;
  66:..\acn-sdk-c\src\mqtt\packet\src/MQTTConnectServer.c **** 
  67:..\acn-sdk-c\src\mqtt\packet\src/MQTTConnectServer.c **** 	curdata += MQTTPacket_decodeBuf(curdata, &mylen); /* read remaining length */
 143              		.loc 1 67 0
 144 0022 02A9     		add	r1, sp, #8
 145 0024 0198     		ldr	r0, [sp, #4]
 146 0026 FFF7FEFF 		bl	MQTTPacket_decodeBuf
 147              	.LVL16:
 148 002a 019B     		ldr	r3, [sp, #4]
  56:..\acn-sdk-c\src\mqtt\packet\src/MQTTConnectServer.c **** 	int rc = 0;
 149              		.loc 1 56 0
 150 002c AD19     		add	r5, r5, r6
ARM GAS  C:\Users\ddemidov\AppData\Local\Temp\cc8P5geE.s 			page 5


 151              	.LVL17:
 152              		.loc 1 67 0
 153 002e 1818     		add	r0, r3, r0
 154 0030 0190     		str	r0, [sp, #4]
  68:..\acn-sdk-c\src\mqtt\packet\src/MQTTConnectServer.c **** 
  69:..\acn-sdk-c\src\mqtt\packet\src/MQTTConnectServer.c **** 	if (!readMQTTLenString(&Protocol, &curdata, enddata) ||
 155              		.loc 1 69 0
 156 0032 01A9     		add	r1, sp, #4
 157 0034 03A8     		add	r0, sp, #12
 158 0036 2A1C     		mov	r2, r5
 159 0038 FFF7FEFF 		bl	readMQTTLenString
 160              	.LVL18:
 161 003c 0028     		cmp	r0, #0
 162 003e EED0     		beq	.L14
  70:..\acn-sdk-c\src\mqtt\packet\src/MQTTConnectServer.c **** 		enddata - curdata < 0) /* do we have enough data to read the protocol version byte? */
 163              		.loc 1 70 0 discriminator 1
 164 0040 019B     		ldr	r3, [sp, #4]
 165 0042 EB1A     		sub	r3, r5, r3
  69:..\acn-sdk-c\src\mqtt\packet\src/MQTTConnectServer.c **** 		enddata - curdata < 0) /* do we have enough data to read the protocol version byte? */
 166              		.loc 1 69 0 discriminator 1
 167 0044 EBD4     		bmi	.L14
  71:..\acn-sdk-c\src\mqtt\packet\src/MQTTConnectServer.c **** 		goto exit;
  72:..\acn-sdk-c\src\mqtt\packet\src/MQTTConnectServer.c **** 
  73:..\acn-sdk-c\src\mqtt\packet\src/MQTTConnectServer.c **** 	version = (int)readChar(&curdata); /* Protocol version */
 168              		.loc 1 73 0
 169 0046 01A8     		add	r0, sp, #4
 170 0048 FFF7FEFF 		bl	readChar
 171              	.LVL19:
 172 004c 011C     		mov	r1, r0
 173              	.LVL20:
  74:..\acn-sdk-c\src\mqtt\packet\src/MQTTConnectServer.c **** 	/* If we don't recognize the protocol version, we don't parse the connect packet on the
  75:..\acn-sdk-c\src\mqtt\packet\src/MQTTConnectServer.c **** 	 * basis that we don't know what the format will be.
  76:..\acn-sdk-c\src\mqtt\packet\src/MQTTConnectServer.c **** 	 */
  77:..\acn-sdk-c\src\mqtt\packet\src/MQTTConnectServer.c **** 	if (MQTTPacket_checkVersion(&Protocol, version))
 174              		.loc 1 77 0
 175 004e 03A8     		add	r0, sp, #12
 176 0050 FFF7FEFF 		bl	MQTTPacket_checkVersion
 177              	.LVL21:
 178 0054 0028     		cmp	r0, #0
 179 0056 E2D0     		beq	.L14
  78:..\acn-sdk-c\src\mqtt\packet\src/MQTTConnectServer.c **** 	{
  79:..\acn-sdk-c\src\mqtt\packet\src/MQTTConnectServer.c **** 		flags.all = readChar(&curdata);
 180              		.loc 1 79 0
 181 0058 01A8     		add	r0, sp, #4
 182 005a FFF7FEFF 		bl	readChar
 183              	.LVL22:
  80:..\acn-sdk-c\src\mqtt\packet\src/MQTTConnectServer.c **** 		data->cleansession = flags.bits.cleansession;
 184              		.loc 1 80 0
 185 005e 8307     		lsl	r3, r0, #30
 186 0060 DB0F     		lsr	r3, r3, #31
  79:..\acn-sdk-c\src\mqtt\packet\src/MQTTConnectServer.c **** 		data->cleansession = flags.bits.cleansession;
 187              		.loc 1 79 0
 188 0062 061C     		mov	r6, r0
 189              	.LVL23:
 190              		.loc 1 80 0
 191 0064 A376     		strb	r3, [r4, #26]
  81:..\acn-sdk-c\src\mqtt\packet\src/MQTTConnectServer.c **** 		data->keepAliveInterval = readInt(&curdata);
ARM GAS  C:\Users\ddemidov\AppData\Local\Temp\cc8P5geE.s 			page 6


 192              		.loc 1 81 0
 193 0066 01A8     		add	r0, sp, #4
 194 0068 FFF7FEFF 		bl	readInt
 195              	.LVL24:
 196 006c 2083     		strh	r0, [r4, #24]
  82:..\acn-sdk-c\src\mqtt\packet\src/MQTTConnectServer.c **** 		if (!readMQTTLenString(&data->clientID, &curdata, enddata))
 197              		.loc 1 82 0
 198 006e 201C     		mov	r0, r4
 199 0070 01A9     		add	r1, sp, #4
 200 0072 0C30     		add	r0, r0, #12
 201 0074 2A1C     		mov	r2, r5
 202 0076 FFF7FEFF 		bl	readMQTTLenString
 203              	.LVL25:
 204 007a 0028     		cmp	r0, #0
 205 007c CFD0     		beq	.L14
  83:..\acn-sdk-c\src\mqtt\packet\src/MQTTConnectServer.c **** 			goto exit;
  84:..\acn-sdk-c\src\mqtt\packet\src/MQTTConnectServer.c **** 		data->willFlag = flags.bits.will;
 206              		.loc 1 84 0
 207 007e 7307     		lsl	r3, r6, #29
 208 0080 DB0F     		lsr	r3, r3, #31
  85:..\acn-sdk-c\src\mqtt\packet\src/MQTTConnectServer.c **** 		if (flags.bits.will)
 209              		.loc 1 85 0
 210 0082 F7B2     		uxtb	r7, r6
  84:..\acn-sdk-c\src\mqtt\packet\src/MQTTConnectServer.c **** 		if (flags.bits.will)
 211              		.loc 1 84 0
 212 0084 E376     		strb	r3, [r4, #27]
 213              		.loc 1 85 0
 214 0086 7B07     		lsl	r3, r7, #29
 215 0088 02D4     		bmi	.L15
 216              	.L18:
  86:..\acn-sdk-c\src\mqtt\packet\src/MQTTConnectServer.c **** 		{
  87:..\acn-sdk-c\src\mqtt\packet\src/MQTTConnectServer.c **** 			data->will.qos = flags.bits.willQoS;
  88:..\acn-sdk-c\src\mqtt\packet\src/MQTTConnectServer.c **** 			data->will.retained = flags.bits.willRetain;
  89:..\acn-sdk-c\src\mqtt\packet\src/MQTTConnectServer.c **** 			if (!readMQTTLenString(&data->will.topicName, &curdata, enddata) ||
  90:..\acn-sdk-c\src\mqtt\packet\src/MQTTConnectServer.c **** 				  !readMQTTLenString(&data->will.message, &curdata, enddata))
  91:..\acn-sdk-c\src\mqtt\packet\src/MQTTConnectServer.c **** 				goto exit;
  92:..\acn-sdk-c\src\mqtt\packet\src/MQTTConnectServer.c **** 		}
  93:..\acn-sdk-c\src\mqtt\packet\src/MQTTConnectServer.c **** 		if (flags.bits.username)
 217              		.loc 1 93 0
 218 008a FB09     		lsr	r3, r7, #7
 219 008c 1BD1     		bne	.L16
 220 008e 36E0     		b	.L40
 221              	.L15:
  87:..\acn-sdk-c\src\mqtt\packet\src/MQTTConnectServer.c **** 			data->will.retained = flags.bits.willRetain;
 222              		.loc 1 87 0
 223 0090 221C     		mov	r2, r4
 224 0092 F306     		lsl	r3, r6, #27
 225 0094 9B0F     		lsr	r3, r3, #30
 226 0096 3D32     		add	r2, r2, #61
 227 0098 1370     		strb	r3, [r2]
  88:..\acn-sdk-c\src\mqtt\packet\src/MQTTConnectServer.c **** 			if (!readMQTTLenString(&data->will.topicName, &curdata, enddata) ||
 228              		.loc 1 88 0
 229 009a 231C     		mov	r3, r4
  89:..\acn-sdk-c\src\mqtt\packet\src/MQTTConnectServer.c **** 				  !readMQTTLenString(&data->will.message, &curdata, enddata))
 230              		.loc 1 89 0
 231 009c 201C     		mov	r0, r4
  88:..\acn-sdk-c\src\mqtt\packet\src/MQTTConnectServer.c **** 			if (!readMQTTLenString(&data->will.topicName, &curdata, enddata) ||
ARM GAS  C:\Users\ddemidov\AppData\Local\Temp\cc8P5geE.s 			page 7


 232              		.loc 1 88 0
 233 009e B606     		lsl	r6, r6, #26
 234 00a0 F60F     		lsr	r6, r6, #31
 235 00a2 3C33     		add	r3, r3, #60
 236 00a4 1E70     		strb	r6, [r3]
  89:..\acn-sdk-c\src\mqtt\packet\src/MQTTConnectServer.c **** 				  !readMQTTLenString(&data->will.message, &curdata, enddata))
 237              		.loc 1 89 0
 238 00a6 2430     		add	r0, r0, #36
 239 00a8 01A9     		add	r1, sp, #4
 240 00aa 2A1C     		mov	r2, r5
 241 00ac FFF7FEFF 		bl	readMQTTLenString
 242              	.LVL26:
 243 00b0 0028     		cmp	r0, #0
 244 00b2 B4D0     		beq	.L14
  90:..\acn-sdk-c\src\mqtt\packet\src/MQTTConnectServer.c **** 				goto exit;
 245              		.loc 1 90 0 discriminator 1
 246 00b4 201C     		mov	r0, r4
 247 00b6 01A9     		add	r1, sp, #4
 248 00b8 3030     		add	r0, r0, #48
 249 00ba 2A1C     		mov	r2, r5
 250 00bc FFF7FEFF 		bl	readMQTTLenString
 251              	.LVL27:
  89:..\acn-sdk-c\src\mqtt\packet\src/MQTTConnectServer.c **** 				  !readMQTTLenString(&data->will.message, &curdata, enddata))
 252              		.loc 1 89 0 discriminator 1
 253 00c0 0028     		cmp	r0, #0
 254 00c2 E2D1     		bne	.L18
 255 00c4 ABE7     		b	.L14
 256              	.L16:
  94:..\acn-sdk-c\src\mqtt\packet\src/MQTTConnectServer.c **** 		{
  95:..\acn-sdk-c\src\mqtt\packet\src/MQTTConnectServer.c **** 			if (enddata - curdata < 3 || !readMQTTLenString(&data->username, &curdata, enddata))
 257              		.loc 1 95 0
 258 00c6 019B     		ldr	r3, [sp, #4]
 259 00c8 EB1A     		sub	r3, r5, r3
 260 00ca 022B     		cmp	r3, #2
 261 00cc A7DD     		ble	.L14
 262              		.loc 1 95 0 is_stmt 0 discriminator 1
 263 00ce 201C     		mov	r0, r4
 264 00d0 01A9     		add	r1, sp, #4
 265 00d2 4030     		add	r0, r0, #64
 266 00d4 2A1C     		mov	r2, r5
 267 00d6 FFF7FEFF 		bl	readMQTTLenString
 268              	.LVL28:
 269 00da 0028     		cmp	r0, #0
 270 00dc 9FD0     		beq	.L14
  96:..\acn-sdk-c\src\mqtt\packet\src/MQTTConnectServer.c **** 				goto exit; /* username flag set, but no username supplied - invalid */
  97:..\acn-sdk-c\src\mqtt\packet\src/MQTTConnectServer.c **** 			if (flags.bits.password &&
  98:..\acn-sdk-c\src\mqtt\packet\src/MQTTConnectServer.c **** 				(enddata - curdata < 3 || !readMQTTLenString(&data->password, &curdata, enddata)))
  99:..\acn-sdk-c\src\mqtt\packet\src/MQTTConnectServer.c **** 				goto exit; /* password flag set, but no password supplied - invalid */
 100:..\acn-sdk-c\src\mqtt\packet\src/MQTTConnectServer.c **** 		}
 101:..\acn-sdk-c\src\mqtt\packet\src/MQTTConnectServer.c **** 		else if (flags.bits.password)
 102:..\acn-sdk-c\src\mqtt\packet\src/MQTTConnectServer.c **** 			goto exit; /* password flag set without username - invalid */
 103:..\acn-sdk-c\src\mqtt\packet\src/MQTTConnectServer.c **** 		rc = 1;
 271              		.loc 1 103 0 is_stmt 1
 272 00de 0120     		mov	r0, #1
  97:..\acn-sdk-c\src\mqtt\packet\src/MQTTConnectServer.c **** 				(enddata - curdata < 3 || !readMQTTLenString(&data->password, &curdata, enddata)))
 273              		.loc 1 97 0
 274 00e0 7B06     		lsl	r3, r7, #25
ARM GAS  C:\Users\ddemidov\AppData\Local\Temp\cc8P5geE.s 			page 8


 275 00e2 0FD5     		bpl	.L13
  98:..\acn-sdk-c\src\mqtt\packet\src/MQTTConnectServer.c **** 				goto exit; /* password flag set, but no password supplied - invalid */
 276              		.loc 1 98 0 discriminator 1
 277 00e4 019B     		ldr	r3, [sp, #4]
 278 00e6 EB1A     		sub	r3, r5, r3
  97:..\acn-sdk-c\src\mqtt\packet\src/MQTTConnectServer.c **** 				(enddata - curdata < 3 || !readMQTTLenString(&data->password, &curdata, enddata)))
 279              		.loc 1 97 0 discriminator 1
 280 00e8 022B     		cmp	r3, #2
 281 00ea 98DD     		ble	.L14
  98:..\acn-sdk-c\src\mqtt\packet\src/MQTTConnectServer.c **** 				goto exit; /* password flag set, but no password supplied - invalid */
 282              		.loc 1 98 0
 283 00ec 201C     		mov	r0, r4
 284 00ee 01A9     		add	r1, sp, #4
 285 00f0 4C30     		add	r0, r0, #76
 286 00f2 2A1C     		mov	r2, r5
 287 00f4 FFF7FEFF 		bl	readMQTTLenString
 288              	.LVL29:
  57:..\acn-sdk-c\src\mqtt\packet\src/MQTTConnectServer.c **** 	MQTTString Protocol;
 289              		.loc 1 57 0
 290 00f8 431E     		sub	r3, r0, #1
 291 00fa 9841     		sbc	r0, r0, r3
 292 00fc 02E0     		b	.L13
 293              	.L40:
 101:..\acn-sdk-c\src\mqtt\packet\src/MQTTConnectServer.c **** 			goto exit; /* password flag set without username - invalid */
 294              		.loc 1 101 0
 295 00fe 0120     		mov	r0, #1
 296 0100 BF09     		lsr	r7, r7, #6
 297 0102 B843     		bic	r0, r7
 298              	.L13:
 299              	.LVL30:
 104:..\acn-sdk-c\src\mqtt\packet\src/MQTTConnectServer.c **** 	}
 105:..\acn-sdk-c\src\mqtt\packet\src/MQTTConnectServer.c **** exit:
 106:..\acn-sdk-c\src\mqtt\packet\src/MQTTConnectServer.c **** 	FUNC_EXIT_RC(rc);
 107:..\acn-sdk-c\src\mqtt\packet\src/MQTTConnectServer.c **** 	return rc;
 108:..\acn-sdk-c\src\mqtt\packet\src/MQTTConnectServer.c **** }
 300              		.loc 1 108 0
 301 0104 07B0     		add	sp, sp, #28
 302              		@ sp needed
 303              	.LVL31:
 304 0106 F0BD     		pop	{r4, r5, r6, r7, pc}
 305              		.cfi_endproc
 306              	.LFE1:
 307              		.size	MQTTDeserialize_connect, .-MQTTDeserialize_connect
 308              		.section	.text.MQTTSerialize_connack,"ax",%progbits
 309              		.align	1
 310              		.global	MQTTSerialize_connack
 311              		.code	16
 312              		.thumb_func
 313              		.type	MQTTSerialize_connack, %function
 314              	MQTTSerialize_connack:
 315              	.LFB2:
 109:..\acn-sdk-c\src\mqtt\packet\src/MQTTConnectServer.c **** 
 110:..\acn-sdk-c\src\mqtt\packet\src/MQTTConnectServer.c **** 
 111:..\acn-sdk-c\src\mqtt\packet\src/MQTTConnectServer.c **** /**
 112:..\acn-sdk-c\src\mqtt\packet\src/MQTTConnectServer.c ****   * Serializes the connack packet into the supplied buffer.
 113:..\acn-sdk-c\src\mqtt\packet\src/MQTTConnectServer.c ****   * @param buf the buffer into which the packet will be serialized
 114:..\acn-sdk-c\src\mqtt\packet\src/MQTTConnectServer.c ****   * @param buflen the length in bytes of the supplied buffer
ARM GAS  C:\Users\ddemidov\AppData\Local\Temp\cc8P5geE.s 			page 9


 115:..\acn-sdk-c\src\mqtt\packet\src/MQTTConnectServer.c ****   * @param connack_rc the integer connack return code to be used 
 116:..\acn-sdk-c\src\mqtt\packet\src/MQTTConnectServer.c ****   * @param sessionPresent the MQTT 3.1.1 sessionPresent flag
 117:..\acn-sdk-c\src\mqtt\packet\src/MQTTConnectServer.c ****   * @return serialized length, or error if 0
 118:..\acn-sdk-c\src\mqtt\packet\src/MQTTConnectServer.c ****   */
 119:..\acn-sdk-c\src\mqtt\packet\src/MQTTConnectServer.c **** int MQTTSerialize_connack(unsigned char* buf, int buflen, unsigned char connack_rc, unsigned char s
 120:..\acn-sdk-c\src\mqtt\packet\src/MQTTConnectServer.c **** {
 316              		.loc 1 120 0
 317              		.cfi_startproc
 318              	.LVL32:
 319 0000 73B5     		push	{r0, r1, r4, r5, r6, lr}
 320              		.cfi_def_cfa_offset 24
 321              		.cfi_offset 0, -24
 322              		.cfi_offset 1, -20
 323              		.cfi_offset 4, -16
 324              		.cfi_offset 5, -12
 325              		.cfi_offset 6, -8
 326              		.cfi_offset 14, -4
 121:..\acn-sdk-c\src\mqtt\packet\src/MQTTConnectServer.c **** 	MQTTHeader header = {0};
 122:..\acn-sdk-c\src\mqtt\packet\src/MQTTConnectServer.c **** 	int rc = 0;
 123:..\acn-sdk-c\src\mqtt\packet\src/MQTTConnectServer.c **** 	unsigned char *ptr = buf;
 327              		.loc 1 123 0
 328 0002 0190     		str	r0, [sp, #4]
 124:..\acn-sdk-c\src\mqtt\packet\src/MQTTConnectServer.c **** 	MQTTConnackFlags flags = {0};
 125:..\acn-sdk-c\src\mqtt\packet\src/MQTTConnectServer.c **** 
 126:..\acn-sdk-c\src\mqtt\packet\src/MQTTConnectServer.c **** 	FUNC_ENTRY;
 127:..\acn-sdk-c\src\mqtt\packet\src/MQTTConnectServer.c **** 	if (buflen < 2)
 329              		.loc 1 127 0
 330 0004 0129     		cmp	r1, #1
 331 0006 1BDD     		ble	.L43
 332 0008 041C     		mov	r4, r0
 128:..\acn-sdk-c\src\mqtt\packet\src/MQTTConnectServer.c **** 	{
 129:..\acn-sdk-c\src\mqtt\packet\src/MQTTConnectServer.c **** 		rc = MQTTPACKET_BUFFER_TOO_SHORT;
 130:..\acn-sdk-c\src\mqtt\packet\src/MQTTConnectServer.c **** 		goto exit;
 131:..\acn-sdk-c\src\mqtt\packet\src/MQTTConnectServer.c **** 	}
 132:..\acn-sdk-c\src\mqtt\packet\src/MQTTConnectServer.c **** 	header.byte = 0;
 133:..\acn-sdk-c\src\mqtt\packet\src/MQTTConnectServer.c **** 	header.bits.type = CONNACK;
 134:..\acn-sdk-c\src\mqtt\packet\src/MQTTConnectServer.c **** 	writeChar(&ptr, header.byte); /* write header */
 333              		.loc 1 134 0
 334 000a 2021     		mov	r1, #32
 335              	.LVL33:
 336 000c 01A8     		add	r0, sp, #4
 337              	.LVL34:
 338 000e 151C     		mov	r5, r2
 339 0010 1E1C     		mov	r6, r3
 340 0012 FFF7FEFF 		bl	writeChar
 341              	.LVL35:
 135:..\acn-sdk-c\src\mqtt\packet\src/MQTTConnectServer.c **** 
 136:..\acn-sdk-c\src\mqtt\packet\src/MQTTConnectServer.c **** 	ptr += MQTTPacket_encode(ptr, 2); /* write remaining length */
 342              		.loc 1 136 0
 343 0016 0221     		mov	r1, #2
 344 0018 0198     		ldr	r0, [sp, #4]
 345 001a FFF7FEFF 		bl	MQTTPacket_encode
 346              	.LVL36:
 137:..\acn-sdk-c\src\mqtt\packet\src/MQTTConnectServer.c **** 
 138:..\acn-sdk-c\src\mqtt\packet\src/MQTTConnectServer.c **** 	flags.all = 0;
 139:..\acn-sdk-c\src\mqtt\packet\src/MQTTConnectServer.c **** 	flags.bits.sessionpresent = sessionPresent;
 347              		.loc 1 139 0
ARM GAS  C:\Users\ddemidov\AppData\Local\Temp\cc8P5geE.s 			page 10


 348 001e 0121     		mov	r1, #1
 136:..\acn-sdk-c\src\mqtt\packet\src/MQTTConnectServer.c **** 
 349              		.loc 1 136 0
 350 0020 019B     		ldr	r3, [sp, #4]
 351              		.loc 1 139 0
 352 0022 3140     		and	r1, r6
 136:..\acn-sdk-c\src\mqtt\packet\src/MQTTConnectServer.c **** 
 353              		.loc 1 136 0
 354 0024 1818     		add	r0, r3, r0
 355              		.loc 1 139 0
 356 0026 C901     		lsl	r1, r1, #7
 136:..\acn-sdk-c\src\mqtt\packet\src/MQTTConnectServer.c **** 
 357              		.loc 1 136 0
 358 0028 0190     		str	r0, [sp, #4]
 140:..\acn-sdk-c\src\mqtt\packet\src/MQTTConnectServer.c **** 	writeChar(&ptr, flags.all); 
 359              		.loc 1 140 0
 360 002a C9B2     		uxtb	r1, r1
 361              	.LVL37:
 362 002c 01A8     		add	r0, sp, #4
 363 002e FFF7FEFF 		bl	writeChar
 364              	.LVL38:
 141:..\acn-sdk-c\src\mqtt\packet\src/MQTTConnectServer.c **** 	writeChar(&ptr, connack_rc);
 365              		.loc 1 141 0
 366 0032 01A8     		add	r0, sp, #4
 367 0034 291C     		mov	r1, r5
 368 0036 FFF7FEFF 		bl	writeChar
 369              	.LVL39:
 142:..\acn-sdk-c\src\mqtt\packet\src/MQTTConnectServer.c **** 
 143:..\acn-sdk-c\src\mqtt\packet\src/MQTTConnectServer.c **** 	rc = ptr - buf;
 370              		.loc 1 143 0
 371 003a 019B     		ldr	r3, [sp, #4]
 372 003c 181B     		sub	r0, r3, r4
 373              	.LVL40:
 374 003e 01E0     		b	.L42
 375              	.LVL41:
 376              	.L43:
 129:..\acn-sdk-c\src\mqtt\packet\src/MQTTConnectServer.c **** 		goto exit;
 377              		.loc 1 129 0
 378 0040 0220     		mov	r0, #2
 379              	.LVL42:
 380 0042 4042     		neg	r0, r0
 381              	.LVL43:
 382              	.L42:
 144:..\acn-sdk-c\src\mqtt\packet\src/MQTTConnectServer.c **** exit:
 145:..\acn-sdk-c\src\mqtt\packet\src/MQTTConnectServer.c **** 	FUNC_EXIT_RC(rc);
 146:..\acn-sdk-c\src\mqtt\packet\src/MQTTConnectServer.c **** 	return rc;
 147:..\acn-sdk-c\src\mqtt\packet\src/MQTTConnectServer.c **** }
 383              		.loc 1 147 0
 384              		@ sp needed
 385 0044 76BD     		pop	{r1, r2, r4, r5, r6, pc}
 386              		.cfi_endproc
 387              	.LFE2:
 388              		.size	MQTTSerialize_connack, .-MQTTSerialize_connack
 389              		.section	.rodata.str1.1,"aMS",%progbits,1
 390              	.LC0:
 391 0000 4D514973 		.ascii	"MQIsdp\000"
 391      647000
ARM GAS  C:\Users\ddemidov\AppData\Local\Temp\cc8P5geE.s 			page 11


 392              	.LC2:
 393 0007 4D515454 		.ascii	"MQTT\000"
 393      00
 394              		.text
 395              	.Letext0:
 396              		.file 2 "..\\acn-sdk-c\\include/mqtt/packet/MQTTPacket.h"
 397              		.file 3 "c:\\program files (x86)\\cypress\\psoc creator\\3.3\\psoc creator\\import\\gnu\\arm\\4.9.
 398              		.file 4 "..\\acn-sdk-c\\include/mqtt/packet/MQTTConnect.h"
 399              		.file 5 "c:\\program files (x86)\\cypress\\psoc creator\\3.3\\psoc creator\\import\\gnu\\arm\\4.9.