ARM GAS  C:\Users\ddemidov\AppData\Local\Temp\ccVAAkHe.s 			page 1


   1              		.cpu cortex-m0
   2              		.fpu softvfp
   3              		.eabi_attribute 20, 1
   4              		.eabi_attribute 21, 1
   5              		.eabi_attribute 23, 3
   6              		.eabi_attribute 24, 1
   7              		.eabi_attribute 25, 1
   8              		.eabi_attribute 26, 1
   9              		.eabi_attribute 30, 4
  10              		.eabi_attribute 34, 0
  11              		.eabi_attribute 18, 4
  12              		.code	16
  13              		.file	"MQTTSubscribeClient.c"
  14              		.text
  15              	.Ltext0:
  16              		.cfi_sections	.debug_frame
  17              		.section	.text.MQTTSerialize_subscribeLength,"ax",%progbits
  18              		.align	1
  19              		.global	MQTTSerialize_subscribeLength
  20              		.code	16
  21              		.thumb_func
  22              		.type	MQTTSerialize_subscribeLength, %function
  23              	MQTTSerialize_subscribeLength:
  24              	.LFB0:
  25              		.file 1 "..\\acn-sdk-c\\src\\mqtt\\packet\\src\\MQTTSubscribeClient.c"
   1:..\acn-sdk-c\src\mqtt\packet\src/MQTTSubscribeClient.c **** /*******************************************************************************
   2:..\acn-sdk-c\src\mqtt\packet\src/MQTTSubscribeClient.c ****  * Copyright (c) 2014 IBM Corp.
   3:..\acn-sdk-c\src\mqtt\packet\src/MQTTSubscribeClient.c ****  *
   4:..\acn-sdk-c\src\mqtt\packet\src/MQTTSubscribeClient.c ****  * All rights reserved. This program and the accompanying materials
   5:..\acn-sdk-c\src\mqtt\packet\src/MQTTSubscribeClient.c ****  * are made available under the terms of the Eclipse Public License v1.0
   6:..\acn-sdk-c\src\mqtt\packet\src/MQTTSubscribeClient.c ****  * and Eclipse Distribution License v1.0 which accompany this distribution.
   7:..\acn-sdk-c\src\mqtt\packet\src/MQTTSubscribeClient.c ****  *
   8:..\acn-sdk-c\src\mqtt\packet\src/MQTTSubscribeClient.c ****  * The Eclipse Public License is available at
   9:..\acn-sdk-c\src\mqtt\packet\src/MQTTSubscribeClient.c ****  *    http://www.eclipse.org/legal/epl-v10.html
  10:..\acn-sdk-c\src\mqtt\packet\src/MQTTSubscribeClient.c ****  * and the Eclipse Distribution License is available at
  11:..\acn-sdk-c\src\mqtt\packet\src/MQTTSubscribeClient.c ****  *   http://www.eclipse.org/org/documents/edl-v10.php.
  12:..\acn-sdk-c\src\mqtt\packet\src/MQTTSubscribeClient.c ****  *
  13:..\acn-sdk-c\src\mqtt\packet\src/MQTTSubscribeClient.c ****  * Contributors:
  14:..\acn-sdk-c\src\mqtt\packet\src/MQTTSubscribeClient.c ****  *    Ian Craggs - initial API and implementation and/or initial documentation
  15:..\acn-sdk-c\src\mqtt\packet\src/MQTTSubscribeClient.c ****  *******************************************************************************/
  16:..\acn-sdk-c\src\mqtt\packet\src/MQTTSubscribeClient.c **** 
  17:..\acn-sdk-c\src\mqtt\packet\src/MQTTSubscribeClient.c **** #include <mqtt/packet/StackTrace.h>
  18:..\acn-sdk-c\src\mqtt\packet\src/MQTTSubscribeClient.c **** #include "mqtt/packet/MQTTPacket.h"
  19:..\acn-sdk-c\src\mqtt\packet\src/MQTTSubscribeClient.c **** #include <string.h>
  20:..\acn-sdk-c\src\mqtt\packet\src/MQTTSubscribeClient.c **** 
  21:..\acn-sdk-c\src\mqtt\packet\src/MQTTSubscribeClient.c **** /**
  22:..\acn-sdk-c\src\mqtt\packet\src/MQTTSubscribeClient.c ****   * Determines the length of the MQTT subscribe packet that would be produced using the supplied pa
  23:..\acn-sdk-c\src\mqtt\packet\src/MQTTSubscribeClient.c ****   * @param count the number of topic filter strings in topicFilters
  24:..\acn-sdk-c\src\mqtt\packet\src/MQTTSubscribeClient.c ****   * @param topicFilters the array of topic filter strings to be used in the publish
  25:..\acn-sdk-c\src\mqtt\packet\src/MQTTSubscribeClient.c ****   * @return the length of buffer needed to contain the serialized version of the packet
  26:..\acn-sdk-c\src\mqtt\packet\src/MQTTSubscribeClient.c ****   */
  27:..\acn-sdk-c\src\mqtt\packet\src/MQTTSubscribeClient.c **** int MQTTSerialize_subscribeLength(int count, MQTTString topicFilters[])
  28:..\acn-sdk-c\src\mqtt\packet\src/MQTTSubscribeClient.c **** {
  26              		.loc 1 28 0
  27              		.cfi_startproc
  28              	.LVL0:
  29 0000 F8B5     		push	{r3, r4, r5, r6, r7, lr}
ARM GAS  C:\Users\ddemidov\AppData\Local\Temp\ccVAAkHe.s 			page 2


  30              		.cfi_def_cfa_offset 24
  31              		.cfi_offset 3, -24
  32              		.cfi_offset 4, -20
  33              		.cfi_offset 5, -16
  34              		.cfi_offset 6, -12
  35              		.cfi_offset 7, -8
  36              		.cfi_offset 14, -4
  37              		.loc 1 28 0
  38 0002 071C     		mov	r7, r0
  39 0004 0E1C     		mov	r6, r1
  29:..\acn-sdk-c\src\mqtt\packet\src/MQTTSubscribeClient.c **** 	int i;
  30:..\acn-sdk-c\src\mqtt\packet\src/MQTTSubscribeClient.c **** 	int len = 2; /* packetid */
  40              		.loc 1 30 0
  41 0006 0225     		mov	r5, #2
  31:..\acn-sdk-c\src\mqtt\packet\src/MQTTSubscribeClient.c **** 
  32:..\acn-sdk-c\src\mqtt\packet\src/MQTTSubscribeClient.c **** 	for (i = 0; i < count; ++i)
  42              		.loc 1 32 0
  43 0008 0024     		mov	r4, #0
  44              	.LVL1:
  45              	.L2:
  46              		.loc 1 32 0 is_stmt 0 discriminator 1
  47 000a BC42     		cmp	r4, r7
  48 000c 0BDA     		bge	.L5
  33:..\acn-sdk-c\src\mqtt\packet\src/MQTTSubscribeClient.c **** 		len += 2 + MQTTstrlen(topicFilters[i]) + 1; /* length + topic + req_qos */
  49              		.loc 1 33 0 is_stmt 1 discriminator 3
  50 000e 0C23     		mov	r3, #12
  51 0010 6343     		mul	r3, r4
  52 0012 9859     		ldr	r0, [r3, r6]
  53 0014 F318     		add	r3, r6, r3
  54 0016 5968     		ldr	r1, [r3, #4]
  55 0018 9A68     		ldr	r2, [r3, #8]
  56 001a FFF7FEFF 		bl	MQTTstrlen
  57              	.LVL2:
  58 001e 0330     		add	r0, r0, #3
  59 0020 2D18     		add	r5, r5, r0
  60              	.LVL3:
  32:..\acn-sdk-c\src\mqtt\packet\src/MQTTSubscribeClient.c **** 		len += 2 + MQTTstrlen(topicFilters[i]) + 1; /* length + topic + req_qos */
  61              		.loc 1 32 0 discriminator 3
  62 0022 0134     		add	r4, r4, #1
  63              	.LVL4:
  64 0024 F1E7     		b	.L2
  65              	.L5:
  34:..\acn-sdk-c\src\mqtt\packet\src/MQTTSubscribeClient.c **** 	return len;
  35:..\acn-sdk-c\src\mqtt\packet\src/MQTTSubscribeClient.c **** }
  66              		.loc 1 35 0
  67 0026 281C     		mov	r0, r5
  68              		@ sp needed
  69              	.LVL5:
  70              	.LVL6:
  71              	.LVL7:
  72              	.LVL8:
  73 0028 F8BD     		pop	{r3, r4, r5, r6, r7, pc}
  74              		.cfi_endproc
  75              	.LFE0:
  76              		.size	MQTTSerialize_subscribeLength, .-MQTTSerialize_subscribeLength
  77              		.section	.text.MQTTSerialize_subscribe,"ax",%progbits
  78              		.align	1
ARM GAS  C:\Users\ddemidov\AppData\Local\Temp\ccVAAkHe.s 			page 3


  79              		.global	MQTTSerialize_subscribe
  80              		.code	16
  81              		.thumb_func
  82              		.type	MQTTSerialize_subscribe, %function
  83              	MQTTSerialize_subscribe:
  84              	.LFB1:
  36:..\acn-sdk-c\src\mqtt\packet\src/MQTTSubscribeClient.c **** 
  37:..\acn-sdk-c\src\mqtt\packet\src/MQTTSubscribeClient.c **** 
  38:..\acn-sdk-c\src\mqtt\packet\src/MQTTSubscribeClient.c **** /**
  39:..\acn-sdk-c\src\mqtt\packet\src/MQTTSubscribeClient.c ****   * Serializes the supplied subscribe data into the supplied buffer, ready for sending
  40:..\acn-sdk-c\src\mqtt\packet\src/MQTTSubscribeClient.c ****   * @param buf the buffer into which the packet will be serialized
  41:..\acn-sdk-c\src\mqtt\packet\src/MQTTSubscribeClient.c ****   * @param buflen the length in bytes of the supplied bufferr
  42:..\acn-sdk-c\src\mqtt\packet\src/MQTTSubscribeClient.c ****   * @param dup integer - the MQTT dup flag
  43:..\acn-sdk-c\src\mqtt\packet\src/MQTTSubscribeClient.c ****   * @param packetid integer - the MQTT packet identifier
  44:..\acn-sdk-c\src\mqtt\packet\src/MQTTSubscribeClient.c ****   * @param count - number of members in the topicFilters and reqQos arrays
  45:..\acn-sdk-c\src\mqtt\packet\src/MQTTSubscribeClient.c ****   * @param topicFilters - array of topic filter names
  46:..\acn-sdk-c\src\mqtt\packet\src/MQTTSubscribeClient.c ****   * @param requestedQoSs - array of requested QoS
  47:..\acn-sdk-c\src\mqtt\packet\src/MQTTSubscribeClient.c ****   * @return the length of the serialized data.  <= 0 indicates error
  48:..\acn-sdk-c\src\mqtt\packet\src/MQTTSubscribeClient.c ****   */
  49:..\acn-sdk-c\src\mqtt\packet\src/MQTTSubscribeClient.c **** int MQTTSerialize_subscribe(unsigned char* buf, int buflen, unsigned char dup, unsigned short packe
  50:..\acn-sdk-c\src\mqtt\packet\src/MQTTSubscribeClient.c **** 		MQTTString topicFilters[], int requestedQoSs[])
  51:..\acn-sdk-c\src\mqtt\packet\src/MQTTSubscribeClient.c **** {
  85              		.loc 1 51 0
  86              		.cfi_startproc
  87              	.LVL9:
  88 0000 F0B5     		push	{r4, r5, r6, r7, lr}
  89              		.cfi_def_cfa_offset 20
  90              		.cfi_offset 4, -20
  91              		.cfi_offset 5, -16
  92              		.cfi_offset 6, -12
  93              		.cfi_offset 7, -8
  94              		.cfi_offset 14, -4
  95 0002 85B0     		sub	sp, sp, #20
  96              		.cfi_def_cfa_offset 40
  97              		.loc 1 51 0
  98 0004 0F1C     		mov	r7, r1
  52:..\acn-sdk-c\src\mqtt\packet\src/MQTTSubscribeClient.c **** 	unsigned char *ptr = buf;
  99              		.loc 1 52 0
 100 0006 0390     		str	r0, [sp, #12]
 101              	.LVL10:
  51:..\acn-sdk-c\src\mqtt\packet\src/MQTTSubscribeClient.c **** 	unsigned char *ptr = buf;
 102              		.loc 1 51 0
 103 0008 051C     		mov	r5, r0
  53:..\acn-sdk-c\src\mqtt\packet\src/MQTTSubscribeClient.c **** 	MQTTHeader header = {0};
  54:..\acn-sdk-c\src\mqtt\packet\src/MQTTSubscribeClient.c **** 	int rem_len = 0;
  55:..\acn-sdk-c\src\mqtt\packet\src/MQTTSubscribeClient.c **** 	int rc = 0;
  56:..\acn-sdk-c\src\mqtt\packet\src/MQTTSubscribeClient.c **** 	int i = 0;
  57:..\acn-sdk-c\src\mqtt\packet\src/MQTTSubscribeClient.c **** 
  58:..\acn-sdk-c\src\mqtt\packet\src/MQTTSubscribeClient.c **** 	FUNC_ENTRY;
  59:..\acn-sdk-c\src\mqtt\packet\src/MQTTSubscribeClient.c **** 	if (MQTTPacket_len(rem_len = MQTTSerialize_subscribeLength(count, topicFilters)) > buflen)
 104              		.loc 1 59 0
 105 000a 0B99     		ldr	r1, [sp, #44]
 106              	.LVL11:
 107 000c 0A98     		ldr	r0, [sp, #40]
 108              	.LVL12:
  51:..\acn-sdk-c\src\mqtt\packet\src/MQTTSubscribeClient.c **** 	unsigned char *ptr = buf;
 109              		.loc 1 51 0
ARM GAS  C:\Users\ddemidov\AppData\Local\Temp\ccVAAkHe.s 			page 4


 110 000e 0192     		str	r2, [sp, #4]
 111 0010 1C1C     		mov	r4, r3
 112              		.loc 1 59 0
 113 0012 FFF7FEFF 		bl	MQTTSerialize_subscribeLength
 114              	.LVL13:
 115 0016 061C     		mov	r6, r0
 116              	.LVL14:
 117 0018 FFF7FEFF 		bl	MQTTPacket_len
 118              	.LVL15:
 119 001c B842     		cmp	r0, r7
 120 001e 2FDC     		bgt	.L10
  60:..\acn-sdk-c\src\mqtt\packet\src/MQTTSubscribeClient.c **** 	{
  61:..\acn-sdk-c\src\mqtt\packet\src/MQTTSubscribeClient.c **** 		rc = MQTTPACKET_BUFFER_TOO_SHORT;
  62:..\acn-sdk-c\src\mqtt\packet\src/MQTTSubscribeClient.c **** 		goto exit;
  63:..\acn-sdk-c\src\mqtt\packet\src/MQTTSubscribeClient.c **** 	}
  64:..\acn-sdk-c\src\mqtt\packet\src/MQTTSubscribeClient.c **** 
  65:..\acn-sdk-c\src\mqtt\packet\src/MQTTSubscribeClient.c **** 	header.byte = 0;
  66:..\acn-sdk-c\src\mqtt\packet\src/MQTTSubscribeClient.c **** 	header.bits.type = SUBSCRIBE;
  67:..\acn-sdk-c\src\mqtt\packet\src/MQTTSubscribeClient.c **** 	header.bits.dup = dup;
 121              		.loc 1 67 0
 122 0020 0121     		mov	r1, #1
 123 0022 019B     		ldr	r3, [sp, #4]
  68:..\acn-sdk-c\src\mqtt\packet\src/MQTTSubscribeClient.c **** 	header.bits.qos = 1;
  69:..\acn-sdk-c\src\mqtt\packet\src/MQTTSubscribeClient.c **** 	writeChar(&ptr, header.byte); /* write header */
 124              		.loc 1 69 0
 125 0024 03A8     		add	r0, sp, #12
  67:..\acn-sdk-c\src\mqtt\packet\src/MQTTSubscribeClient.c **** 	header.bits.qos = 1;
 126              		.loc 1 67 0
 127 0026 0B40     		and	r3, r1
 128 0028 D900     		lsl	r1, r3, #3
  68:..\acn-sdk-c\src\mqtt\packet\src/MQTTSubscribeClient.c **** 	header.bits.qos = 1;
 129              		.loc 1 68 0
 130 002a 8023     		mov	r3, #128
 131 002c 1943     		orr	r1, r3
 132              		.loc 1 69 0
 133 002e 7E3B     		sub	r3, r3, #126
 134 0030 1943     		orr	r1, r3
 135              	.LVL16:
 136 0032 FFF7FEFF 		bl	writeChar
 137              	.LVL17:
  70:..\acn-sdk-c\src\mqtt\packet\src/MQTTSubscribeClient.c **** 
  71:..\acn-sdk-c\src\mqtt\packet\src/MQTTSubscribeClient.c **** 	ptr += MQTTPacket_encode(ptr, rem_len); /* write remaining length */;
 138              		.loc 1 71 0
 139 0036 311C     		mov	r1, r6
 140 0038 0398     		ldr	r0, [sp, #12]
 141 003a FFF7FEFF 		bl	MQTTPacket_encode
 142              	.LVL18:
 143 003e 039B     		ldr	r3, [sp, #12]
  72:..\acn-sdk-c\src\mqtt\packet\src/MQTTSubscribeClient.c **** 
  73:..\acn-sdk-c\src\mqtt\packet\src/MQTTSubscribeClient.c **** 	writeInt(&ptr, packetid);
 144              		.loc 1 73 0
 145 0040 211C     		mov	r1, r4
  71:..\acn-sdk-c\src\mqtt\packet\src/MQTTSubscribeClient.c **** 
 146              		.loc 1 71 0
 147 0042 1818     		add	r0, r3, r0
 148 0044 0390     		str	r0, [sp, #12]
 149              		.loc 1 73 0
ARM GAS  C:\Users\ddemidov\AppData\Local\Temp\ccVAAkHe.s 			page 5


 150 0046 03A8     		add	r0, sp, #12
 151 0048 FFF7FEFF 		bl	writeInt
 152              	.LVL19:
  74:..\acn-sdk-c\src\mqtt\packet\src/MQTTSubscribeClient.c **** 
  75:..\acn-sdk-c\src\mqtt\packet\src/MQTTSubscribeClient.c **** 	for (i = 0; i < count; ++i)
 153              		.loc 1 75 0
 154 004c 0026     		mov	r6, #0
 155              	.LVL20:
 156              	.L8:
 157              		.loc 1 75 0 is_stmt 0 discriminator 1
 158 004e 0A9B     		ldr	r3, [sp, #40]
 159 0050 9E42     		cmp	r6, r3
 160 0052 12DA     		bge	.L11
  76:..\acn-sdk-c\src\mqtt\packet\src/MQTTSubscribeClient.c **** 	{
  77:..\acn-sdk-c\src\mqtt\packet\src/MQTTSubscribeClient.c **** 		writeMQTTString(&ptr, topicFilters[i]);
 161              		.loc 1 77 0 is_stmt 1 discriminator 3
 162 0054 0C23     		mov	r3, #12
 163 0056 7343     		mul	r3, r6
 164 0058 0B9A     		ldr	r2, [sp, #44]
 165 005a 03A8     		add	r0, sp, #12
 166 005c 9958     		ldr	r1, [r3, r2]
 167 005e D318     		add	r3, r2, r3
 168 0060 5A68     		ldr	r2, [r3, #4]
 169 0062 9B68     		ldr	r3, [r3, #8]
 170 0064 FFF7FEFF 		bl	writeMQTTString
 171              	.LVL21:
  78:..\acn-sdk-c\src\mqtt\packet\src/MQTTSubscribeClient.c **** 		writeChar(&ptr, requestedQoSs[i]);
 172              		.loc 1 78 0 discriminator 3
 173 0068 0C9A     		ldr	r2, [sp, #48]
 174 006a B300     		lsl	r3, r6, #2
 175 006c D158     		ldr	r1, [r2, r3]
 176 006e 03A8     		add	r0, sp, #12
 177 0070 C9B2     		uxtb	r1, r1
 178 0072 FFF7FEFF 		bl	writeChar
 179              	.LVL22:
  75:..\acn-sdk-c\src\mqtt\packet\src/MQTTSubscribeClient.c **** 	{
 180              		.loc 1 75 0 discriminator 3
 181 0076 0136     		add	r6, r6, #1
 182              	.LVL23:
 183 0078 E9E7     		b	.L8
 184              	.L11:
  79:..\acn-sdk-c\src\mqtt\packet\src/MQTTSubscribeClient.c **** 	}
  80:..\acn-sdk-c\src\mqtt\packet\src/MQTTSubscribeClient.c **** 
  81:..\acn-sdk-c\src\mqtt\packet\src/MQTTSubscribeClient.c **** 	rc = ptr - buf;
 185              		.loc 1 81 0
 186 007a 039B     		ldr	r3, [sp, #12]
 187 007c 581B     		sub	r0, r3, r5
 188              	.LVL24:
 189 007e 01E0     		b	.L7
 190              	.LVL25:
 191              	.L10:
  61:..\acn-sdk-c\src\mqtt\packet\src/MQTTSubscribeClient.c **** 		goto exit;
 192              		.loc 1 61 0
 193 0080 0220     		mov	r0, #2
 194 0082 4042     		neg	r0, r0
 195              	.LVL26:
 196              	.L7:
ARM GAS  C:\Users\ddemidov\AppData\Local\Temp\ccVAAkHe.s 			page 6


  82:..\acn-sdk-c\src\mqtt\packet\src/MQTTSubscribeClient.c **** exit:
  83:..\acn-sdk-c\src\mqtt\packet\src/MQTTSubscribeClient.c **** 	FUNC_EXIT_RC(rc);
  84:..\acn-sdk-c\src\mqtt\packet\src/MQTTSubscribeClient.c **** 	return rc;
  85:..\acn-sdk-c\src\mqtt\packet\src/MQTTSubscribeClient.c **** }
 197              		.loc 1 85 0
 198 0084 05B0     		add	sp, sp, #20
 199              		@ sp needed
 200              	.LVL27:
 201              	.LVL28:
 202 0086 F0BD     		pop	{r4, r5, r6, r7, pc}
 203              		.cfi_endproc
 204              	.LFE1:
 205              		.size	MQTTSerialize_subscribe, .-MQTTSerialize_subscribe
 206              		.section	.text.MQTTDeserialize_suback,"ax",%progbits
 207              		.align	1
 208              		.global	MQTTDeserialize_suback
 209              		.code	16
 210              		.thumb_func
 211              		.type	MQTTDeserialize_suback, %function
 212              	MQTTDeserialize_suback:
 213              	.LFB2:
  86:..\acn-sdk-c\src\mqtt\packet\src/MQTTSubscribeClient.c **** 
  87:..\acn-sdk-c\src\mqtt\packet\src/MQTTSubscribeClient.c **** 
  88:..\acn-sdk-c\src\mqtt\packet\src/MQTTSubscribeClient.c **** 
  89:..\acn-sdk-c\src\mqtt\packet\src/MQTTSubscribeClient.c **** /**
  90:..\acn-sdk-c\src\mqtt\packet\src/MQTTSubscribeClient.c ****   * Deserializes the supplied (wire) buffer into suback data
  91:..\acn-sdk-c\src\mqtt\packet\src/MQTTSubscribeClient.c ****   * @param packetid returned integer - the MQTT packet identifier
  92:..\acn-sdk-c\src\mqtt\packet\src/MQTTSubscribeClient.c ****   * @param maxcount - the maximum number of members allowed in the grantedQoSs array
  93:..\acn-sdk-c\src\mqtt\packet\src/MQTTSubscribeClient.c ****   * @param count returned integer - number of members in the grantedQoSs array
  94:..\acn-sdk-c\src\mqtt\packet\src/MQTTSubscribeClient.c ****   * @param grantedQoSs returned array of integers - the granted qualities of service
  95:..\acn-sdk-c\src\mqtt\packet\src/MQTTSubscribeClient.c ****   * @param buf the raw buffer data, of the correct length determined by the remaining length field
  96:..\acn-sdk-c\src\mqtt\packet\src/MQTTSubscribeClient.c ****   * @param buflen the length in bytes of the data in the supplied buffer
  97:..\acn-sdk-c\src\mqtt\packet\src/MQTTSubscribeClient.c ****   * @return error code.  1 is success, 0 is failure
  98:..\acn-sdk-c\src\mqtt\packet\src/MQTTSubscribeClient.c ****   */
  99:..\acn-sdk-c\src\mqtt\packet\src/MQTTSubscribeClient.c **** int MQTTDeserialize_suback(unsigned short* packetid, int maxcount, int* count, int grantedQoSs[], u
 100:..\acn-sdk-c\src\mqtt\packet\src/MQTTSubscribeClient.c **** {
 214              		.loc 1 100 0
 215              		.cfi_startproc
 216              	.LVL29:
 217 0000 F0B5     		push	{r4, r5, r6, r7, lr}
 218              		.cfi_def_cfa_offset 20
 219              		.cfi_offset 4, -20
 220              		.cfi_offset 5, -16
 221              		.cfi_offset 6, -12
 222              		.cfi_offset 7, -8
 223              		.cfi_offset 14, -4
 224 0002 85B0     		sub	sp, sp, #20
 225              		.cfi_def_cfa_offset 40
 226              		.loc 1 100 0
 227 0004 0193     		str	r3, [sp, #4]
 101:..\acn-sdk-c\src\mqtt\packet\src/MQTTSubscribeClient.c ****   SSP_PARAMETER_NOT_USED(buflen);
 102:..\acn-sdk-c\src\mqtt\packet\src/MQTTSubscribeClient.c **** 	MQTTHeader header = {0};
 103:..\acn-sdk-c\src\mqtt\packet\src/MQTTSubscribeClient.c **** 	unsigned char* curdata = buf;
 228              		.loc 1 103 0
 229 0006 0A9B     		ldr	r3, [sp, #40]
 230              	.LVL30:
 100:..\acn-sdk-c\src\mqtt\packet\src/MQTTSubscribeClient.c ****   SSP_PARAMETER_NOT_USED(buflen);
ARM GAS  C:\Users\ddemidov\AppData\Local\Temp\ccVAAkHe.s 			page 7


 231              		.loc 1 100 0
 232 0008 041C     		mov	r4, r0
 104:..\acn-sdk-c\src\mqtt\packet\src/MQTTSubscribeClient.c **** 	unsigned char* enddata = NULL;
 105:..\acn-sdk-c\src\mqtt\packet\src/MQTTSubscribeClient.c **** 	int rc = 0;
 106:..\acn-sdk-c\src\mqtt\packet\src/MQTTSubscribeClient.c **** 	int mylen;
 107:..\acn-sdk-c\src\mqtt\packet\src/MQTTSubscribeClient.c **** 
 108:..\acn-sdk-c\src\mqtt\packet\src/MQTTSubscribeClient.c **** 	FUNC_ENTRY;
 109:..\acn-sdk-c\src\mqtt\packet\src/MQTTSubscribeClient.c **** 	header.byte = readChar(&curdata);
 233              		.loc 1 109 0
 234 000a 02A8     		add	r0, sp, #8
 235              	.LVL31:
 103:..\acn-sdk-c\src\mqtt\packet\src/MQTTSubscribeClient.c **** 	unsigned char* enddata = NULL;
 236              		.loc 1 103 0
 237 000c 0293     		str	r3, [sp, #8]
 238              	.LVL32:
 100:..\acn-sdk-c\src\mqtt\packet\src/MQTTSubscribeClient.c ****   SSP_PARAMETER_NOT_USED(buflen);
 239              		.loc 1 100 0
 240 000e 0091     		str	r1, [sp]
 241 0010 161C     		mov	r6, r2
 242              		.loc 1 109 0
 243 0012 FFF7FEFF 		bl	readChar
 244              	.LVL33:
 110:..\acn-sdk-c\src\mqtt\packet\src/MQTTSubscribeClient.c **** 	if (header.bits.type != SUBACK)
 245              		.loc 1 110 0
 246 0016 F023     		mov	r3, #240
 247 0018 0340     		and	r3, r0
 105:..\acn-sdk-c\src\mqtt\packet\src/MQTTSubscribeClient.c **** 	int mylen;
 248              		.loc 1 105 0
 249 001a 0020     		mov	r0, #0
 250              	.LVL34:
 251              		.loc 1 110 0
 252 001c 902B     		cmp	r3, #144
 253 001e 25D1     		bne	.L13
 111:..\acn-sdk-c\src\mqtt\packet\src/MQTTSubscribeClient.c **** 		goto exit;
 112:..\acn-sdk-c\src\mqtt\packet\src/MQTTSubscribeClient.c **** 
 113:..\acn-sdk-c\src\mqtt\packet\src/MQTTSubscribeClient.c **** 	curdata += (rc = MQTTPacket_decodeBuf(curdata, &mylen)); /* read remaining length */
 254              		.loc 1 113 0
 255 0020 0298     		ldr	r0, [sp, #8]
 256 0022 03A9     		add	r1, sp, #12
 257 0024 FFF7FEFF 		bl	MQTTPacket_decodeBuf
 258              	.LVL35:
 259 0028 029B     		ldr	r3, [sp, #8]
 114:..\acn-sdk-c\src\mqtt\packet\src/MQTTSubscribeClient.c **** 	enddata = curdata + mylen;
 260              		.loc 1 114 0
 261 002a 039F     		ldr	r7, [sp, #12]
 113:..\acn-sdk-c\src\mqtt\packet\src/MQTTSubscribeClient.c **** 	enddata = curdata + mylen;
 262              		.loc 1 113 0
 263 002c 1D18     		add	r5, r3, r0
 264              	.LVL36:
 265 002e 0295     		str	r5, [sp, #8]
 115:..\acn-sdk-c\src\mqtt\packet\src/MQTTSubscribeClient.c **** 	if (enddata - curdata < 2)
 266              		.loc 1 115 0
 267 0030 012F     		cmp	r7, #1
 268 0032 1BDD     		ble	.L13
 116:..\acn-sdk-c\src\mqtt\packet\src/MQTTSubscribeClient.c **** 		goto exit;
 117:..\acn-sdk-c\src\mqtt\packet\src/MQTTSubscribeClient.c **** 
 118:..\acn-sdk-c\src\mqtt\packet\src/MQTTSubscribeClient.c **** 	*packetid = readInt(&curdata);
ARM GAS  C:\Users\ddemidov\AppData\Local\Temp\ccVAAkHe.s 			page 8


 269              		.loc 1 118 0
 270 0034 02A8     		add	r0, sp, #8
 271              	.LVL37:
 272 0036 FFF7FEFF 		bl	readInt
 273              	.LVL38:
 119:..\acn-sdk-c\src\mqtt\packet\src/MQTTSubscribeClient.c **** 
 120:..\acn-sdk-c\src\mqtt\packet\src/MQTTSubscribeClient.c **** 	*count = 0;
 274              		.loc 1 120 0
 275 003a 0023     		mov	r3, #0
 118:..\acn-sdk-c\src\mqtt\packet\src/MQTTSubscribeClient.c **** 
 276              		.loc 1 118 0
 277 003c 2080     		strh	r0, [r4]
 278              		.loc 1 120 0
 279 003e 3360     		str	r3, [r6]
 280              	.LVL39:
 281              	.L14:
 121:..\acn-sdk-c\src\mqtt\packet\src/MQTTSubscribeClient.c **** 	while (curdata < enddata)
 282              		.loc 1 121 0
 283 0040 029A     		ldr	r2, [sp, #8]
 114:..\acn-sdk-c\src\mqtt\packet\src/MQTTSubscribeClient.c **** 	if (enddata - curdata < 2)
 284              		.loc 1 114 0
 285 0042 EB19     		add	r3, r5, r7
 286              		.loc 1 121 0
 287 0044 9A42     		cmp	r2, r3
 288 0046 0DD2     		bcs	.L18
 122:..\acn-sdk-c\src\mqtt\packet\src/MQTTSubscribeClient.c **** 	{
 123:..\acn-sdk-c\src\mqtt\packet\src/MQTTSubscribeClient.c **** 		if (*count > maxcount)
 289              		.loc 1 123 0
 290 0048 3468     		ldr	r4, [r6]
 291 004a 009B     		ldr	r3, [sp]
 292 004c 9C42     		cmp	r4, r3
 293 004e 0BDC     		bgt	.L17
 124:..\acn-sdk-c\src\mqtt\packet\src/MQTTSubscribeClient.c **** 		{
 125:..\acn-sdk-c\src\mqtt\packet\src/MQTTSubscribeClient.c **** 			rc = -1;
 126:..\acn-sdk-c\src\mqtt\packet\src/MQTTSubscribeClient.c **** 			goto exit;
 127:..\acn-sdk-c\src\mqtt\packet\src/MQTTSubscribeClient.c **** 		}
 128:..\acn-sdk-c\src\mqtt\packet\src/MQTTSubscribeClient.c **** 		grantedQoSs[(*count)++] = readChar(&curdata);
 294              		.loc 1 128 0
 295 0050 631C     		add	r3, r4, #1
 296 0052 3360     		str	r3, [r6]
 297 0054 019B     		ldr	r3, [sp, #4]
 298 0056 A400     		lsl	r4, r4, #2
 299 0058 02A8     		add	r0, sp, #8
 300 005a 1C19     		add	r4, r3, r4
 301 005c FFF7FEFF 		bl	readChar
 302              	.LVL40:
 303 0060 2060     		str	r0, [r4]
 304 0062 EDE7     		b	.L14
 305              	.L18:
 129:..\acn-sdk-c\src\mqtt\packet\src/MQTTSubscribeClient.c **** 	}
 130:..\acn-sdk-c\src\mqtt\packet\src/MQTTSubscribeClient.c **** 
 131:..\acn-sdk-c\src\mqtt\packet\src/MQTTSubscribeClient.c **** 	rc = 1;
 306              		.loc 1 131 0
 307 0064 0120     		mov	r0, #1
 308 0066 01E0     		b	.L13
 309              	.L17:
 125:..\acn-sdk-c\src\mqtt\packet\src/MQTTSubscribeClient.c **** 			goto exit;
ARM GAS  C:\Users\ddemidov\AppData\Local\Temp\ccVAAkHe.s 			page 9


 310              		.loc 1 125 0
 311 0068 0120     		mov	r0, #1
 312 006a 4042     		neg	r0, r0
 313              	.LVL41:
 314              	.L13:
 132:..\acn-sdk-c\src\mqtt\packet\src/MQTTSubscribeClient.c **** exit:
 133:..\acn-sdk-c\src\mqtt\packet\src/MQTTSubscribeClient.c **** 	FUNC_EXIT_RC(rc);
 134:..\acn-sdk-c\src\mqtt\packet\src/MQTTSubscribeClient.c **** 	return rc;
 135:..\acn-sdk-c\src\mqtt\packet\src/MQTTSubscribeClient.c **** }
 315              		.loc 1 135 0
 316 006c 05B0     		add	sp, sp, #20
 317              	.LVL42:
 318              		@ sp needed
 319              	.LVL43:
 320 006e F0BD     		pop	{r4, r5, r6, r7, pc}
 321              		.cfi_endproc
 322              	.LFE2:
 323              		.size	MQTTDeserialize_suback, .-MQTTDeserialize_suback
 324              		.text
 325              	.Letext0:
 326              		.file 2 "..\\acn-sdk-c\\include/mqtt/packet/MQTTPacket.h"