ARM GAS  C:\Users\ddemidov\AppData\Local\Temp\ccwZ1bXK.s 			page 1


   1              		.cpu cortex-m0
   2              		.fpu softvfp
   3              		.eabi_attribute 20, 1
   4              		.eabi_attribute 21, 1
   5              		.eabi_attribute 23, 3
   6              		.eabi_attribute 24, 1
   7              		.eabi_attribute 25, 1
   8              		.eabi_attribute 26, 1
   9              		.eabi_attribute 30, 4
  10              		.eabi_attribute 34, 0
  11              		.eabi_attribute 18, 4
  12              		.code	16
  13              		.file	"MQTTUnsubscribeClient.c"
  14              		.text
  15              	.Ltext0:
  16              		.cfi_sections	.debug_frame
  17              		.section	.text.MQTTSerialize_unsubscribe,"ax",%progbits
  18              		.align	1
  19              		.global	MQTTSerialize_unsubscribe
  20              		.code	16
  21              		.thumb_func
  22              		.type	MQTTSerialize_unsubscribe, %function
  23              	MQTTSerialize_unsubscribe:
  24              	.LFB1:
  25              		.file 1 "..\\acn-sdk-c\\src\\mqtt\\packet\\src\\MQTTUnsubscribeClient.c"
   1:..\acn-sdk-c\src\mqtt\packet\src/MQTTUnsubscribeClient.c **** /*******************************************************************************
   2:..\acn-sdk-c\src\mqtt\packet\src/MQTTUnsubscribeClient.c ****  * Copyright (c) 2014 IBM Corp.
   3:..\acn-sdk-c\src\mqtt\packet\src/MQTTUnsubscribeClient.c ****  *
   4:..\acn-sdk-c\src\mqtt\packet\src/MQTTUnsubscribeClient.c ****  * All rights reserved. This program and the accompanying materials
   5:..\acn-sdk-c\src\mqtt\packet\src/MQTTUnsubscribeClient.c ****  * are made available under the terms of the Eclipse Public License v1.0
   6:..\acn-sdk-c\src\mqtt\packet\src/MQTTUnsubscribeClient.c ****  * and Eclipse Distribution License v1.0 which accompany this distribution.
   7:..\acn-sdk-c\src\mqtt\packet\src/MQTTUnsubscribeClient.c ****  *
   8:..\acn-sdk-c\src\mqtt\packet\src/MQTTUnsubscribeClient.c ****  * The Eclipse Public License is available at
   9:..\acn-sdk-c\src\mqtt\packet\src/MQTTUnsubscribeClient.c ****  *    http://www.eclipse.org/legal/epl-v10.html
  10:..\acn-sdk-c\src\mqtt\packet\src/MQTTUnsubscribeClient.c ****  * and the Eclipse Distribution License is available at
  11:..\acn-sdk-c\src\mqtt\packet\src/MQTTUnsubscribeClient.c ****  *   http://www.eclipse.org/org/documents/edl-v10.php.
  12:..\acn-sdk-c\src\mqtt\packet\src/MQTTUnsubscribeClient.c ****  *
  13:..\acn-sdk-c\src\mqtt\packet\src/MQTTUnsubscribeClient.c ****  * Contributors:
  14:..\acn-sdk-c\src\mqtt\packet\src/MQTTUnsubscribeClient.c ****  *    Ian Craggs - initial API and implementation and/or initial documentation
  15:..\acn-sdk-c\src\mqtt\packet\src/MQTTUnsubscribeClient.c ****  *******************************************************************************/
  16:..\acn-sdk-c\src\mqtt\packet\src/MQTTUnsubscribeClient.c **** 
  17:..\acn-sdk-c\src\mqtt\packet\src/MQTTUnsubscribeClient.c **** #include "mqtt/packet/MQTTPacket.h"
  18:..\acn-sdk-c\src\mqtt\packet\src/MQTTUnsubscribeClient.c **** #include "mqtt/packet/StackTrace.h"
  19:..\acn-sdk-c\src\mqtt\packet\src/MQTTUnsubscribeClient.c **** #include "mqtt/packet/MQTTUnsubscribe.h"
  20:..\acn-sdk-c\src\mqtt\packet\src/MQTTUnsubscribeClient.c **** 
  21:..\acn-sdk-c\src\mqtt\packet\src/MQTTUnsubscribeClient.c **** #if defined(__USE_STD__)
  22:..\acn-sdk-c\src\mqtt\packet\src/MQTTUnsubscribeClient.c **** # include <string.h>
  23:..\acn-sdk-c\src\mqtt\packet\src/MQTTUnsubscribeClient.c **** #endif
  24:..\acn-sdk-c\src\mqtt\packet\src/MQTTUnsubscribeClient.c **** 
  25:..\acn-sdk-c\src\mqtt\packet\src/MQTTUnsubscribeClient.c **** /**
  26:..\acn-sdk-c\src\mqtt\packet\src/MQTTUnsubscribeClient.c ****   * Determines the length of the MQTT unsubscribe packet that would be produced using the supplied 
  27:..\acn-sdk-c\src\mqtt\packet\src/MQTTUnsubscribeClient.c ****   * @param count the number of topic filter strings in topicFilters
  28:..\acn-sdk-c\src\mqtt\packet\src/MQTTUnsubscribeClient.c ****   * @param topicFilters the array of topic filter strings to be used in the publish
  29:..\acn-sdk-c\src\mqtt\packet\src/MQTTUnsubscribeClient.c ****   * @return the length of buffer needed to contain the serialized version of the packet
  30:..\acn-sdk-c\src\mqtt\packet\src/MQTTUnsubscribeClient.c ****   */
  31:..\acn-sdk-c\src\mqtt\packet\src/MQTTUnsubscribeClient.c **** static int MQTTSerialize_unsubscribeLength(int count, MQTTString topicFilters[])
  32:..\acn-sdk-c\src\mqtt\packet\src/MQTTUnsubscribeClient.c **** {
ARM GAS  C:\Users\ddemidov\AppData\Local\Temp\ccwZ1bXK.s 			page 2


  33:..\acn-sdk-c\src\mqtt\packet\src/MQTTUnsubscribeClient.c **** 	int i;
  34:..\acn-sdk-c\src\mqtt\packet\src/MQTTUnsubscribeClient.c **** 	int len = 2; /* packetid */
  35:..\acn-sdk-c\src\mqtt\packet\src/MQTTUnsubscribeClient.c **** 
  36:..\acn-sdk-c\src\mqtt\packet\src/MQTTUnsubscribeClient.c **** 	for (i = 0; i < count; ++i)
  37:..\acn-sdk-c\src\mqtt\packet\src/MQTTUnsubscribeClient.c **** 		len += 2 + MQTTstrlen(topicFilters[i]); /* length + topic*/
  38:..\acn-sdk-c\src\mqtt\packet\src/MQTTUnsubscribeClient.c **** 	return len;
  39:..\acn-sdk-c\src\mqtt\packet\src/MQTTUnsubscribeClient.c **** }
  40:..\acn-sdk-c\src\mqtt\packet\src/MQTTUnsubscribeClient.c **** 
  41:..\acn-sdk-c\src\mqtt\packet\src/MQTTUnsubscribeClient.c **** 
  42:..\acn-sdk-c\src\mqtt\packet\src/MQTTUnsubscribeClient.c **** /**
  43:..\acn-sdk-c\src\mqtt\packet\src/MQTTUnsubscribeClient.c ****   * Serializes the supplied unsubscribe data into the supplied buffer, ready for sending
  44:..\acn-sdk-c\src\mqtt\packet\src/MQTTUnsubscribeClient.c ****   * @param buf the raw buffer data, of the correct length determined by the remaining length field
  45:..\acn-sdk-c\src\mqtt\packet\src/MQTTUnsubscribeClient.c ****   * @param buflen the length in bytes of the data in the supplied buffer
  46:..\acn-sdk-c\src\mqtt\packet\src/MQTTUnsubscribeClient.c ****   * @param dup integer - the MQTT dup flag
  47:..\acn-sdk-c\src\mqtt\packet\src/MQTTUnsubscribeClient.c ****   * @param packetid integer - the MQTT packet identifier
  48:..\acn-sdk-c\src\mqtt\packet\src/MQTTUnsubscribeClient.c ****   * @param count - number of members in the topicFilters array
  49:..\acn-sdk-c\src\mqtt\packet\src/MQTTUnsubscribeClient.c ****   * @param topicFilters - array of topic filter names
  50:..\acn-sdk-c\src\mqtt\packet\src/MQTTUnsubscribeClient.c ****   * @return the length of the serialized data.  <= 0 indicates error
  51:..\acn-sdk-c\src\mqtt\packet\src/MQTTUnsubscribeClient.c ****   */
  52:..\acn-sdk-c\src\mqtt\packet\src/MQTTUnsubscribeClient.c **** int MQTTSerialize_unsubscribe(unsigned char* buf, int buflen, unsigned char dup, unsigned short pac
  53:..\acn-sdk-c\src\mqtt\packet\src/MQTTUnsubscribeClient.c **** 		int count, MQTTString topicFilters[])
  54:..\acn-sdk-c\src\mqtt\packet\src/MQTTUnsubscribeClient.c **** {
  26              		.loc 1 54 0
  27              		.cfi_startproc
  28              	.LVL0:
  29 0000 F0B5     		push	{r4, r5, r6, r7, lr}
  30              		.cfi_def_cfa_offset 20
  31              		.cfi_offset 4, -20
  32              		.cfi_offset 5, -16
  33              		.cfi_offset 6, -12
  34              		.cfi_offset 7, -8
  35              		.cfi_offset 14, -4
  36 0002 071C     		mov	r7, r0
  37              	.LBB4:
  38              	.LBB5:
  34:..\acn-sdk-c\src\mqtt\packet\src/MQTTUnsubscribeClient.c **** 
  39              		.loc 1 34 0
  40 0004 0225     		mov	r5, #2
  36:..\acn-sdk-c\src\mqtt\packet\src/MQTTUnsubscribeClient.c **** 		len += 2 + MQTTstrlen(topicFilters[i]); /* length + topic*/
  41              		.loc 1 36 0
  42 0006 0026     		mov	r6, #0
  43              	.LBE5:
  44              	.LBE4:
  45              		.loc 1 54 0
  46 0008 87B0     		sub	sp, sp, #28
  47              		.cfi_def_cfa_offset 48
  48              		.loc 1 54 0
  49 000a 0D9C     		ldr	r4, [sp, #52]
  50 000c 0191     		str	r1, [sp, #4]
  51 000e 0292     		str	r2, [sp, #8]
  52 0010 0393     		str	r3, [sp, #12]
  55:..\acn-sdk-c\src\mqtt\packet\src/MQTTUnsubscribeClient.c **** 	unsigned char *ptr = buf;
  53              		.loc 1 55 0
  54 0012 0590     		str	r0, [sp, #20]
  55              	.LVL1:
  56              	.L2:
  57              	.LBB7:
ARM GAS  C:\Users\ddemidov\AppData\Local\Temp\ccwZ1bXK.s 			page 3


  58              	.LBB6:
  36:..\acn-sdk-c\src\mqtt\packet\src/MQTTUnsubscribeClient.c **** 		len += 2 + MQTTstrlen(topicFilters[i]); /* length + topic*/
  59              		.loc 1 36 0
  60 0014 0C9B     		ldr	r3, [sp, #48]
  61 0016 9E42     		cmp	r6, r3
  62 0018 0BDA     		bge	.L9
  37:..\acn-sdk-c\src\mqtt\packet\src/MQTTUnsubscribeClient.c **** 	return len;
  63              		.loc 1 37 0
  64 001a 0C23     		mov	r3, #12
  65 001c 7343     		mul	r3, r6
  66 001e 1859     		ldr	r0, [r3, r4]
  67 0020 E318     		add	r3, r4, r3
  68 0022 5968     		ldr	r1, [r3, #4]
  69 0024 9A68     		ldr	r2, [r3, #8]
  70 0026 FFF7FEFF 		bl	MQTTstrlen
  71              	.LVL2:
  72 002a 0230     		add	r0, r0, #2
  73 002c 2D18     		add	r5, r5, r0
  74              	.LVL3:
  36:..\acn-sdk-c\src\mqtt\packet\src/MQTTUnsubscribeClient.c **** 		len += 2 + MQTTstrlen(topicFilters[i]); /* length + topic*/
  75              		.loc 1 36 0
  76 002e 0136     		add	r6, r6, #1
  77              	.LVL4:
  78 0030 F0E7     		b	.L2
  79              	.L9:
  80              	.LVL5:
  81              	.LBE6:
  82              	.LBE7:
  56:..\acn-sdk-c\src\mqtt\packet\src/MQTTUnsubscribeClient.c **** 	MQTTHeader header = {0};
  57:..\acn-sdk-c\src\mqtt\packet\src/MQTTUnsubscribeClient.c **** 	int rem_len = 0;
  58:..\acn-sdk-c\src\mqtt\packet\src/MQTTUnsubscribeClient.c **** 	int rc = -1;
  59:..\acn-sdk-c\src\mqtt\packet\src/MQTTUnsubscribeClient.c **** 	int i = 0;
  60:..\acn-sdk-c\src\mqtt\packet\src/MQTTUnsubscribeClient.c **** 
  61:..\acn-sdk-c\src\mqtt\packet\src/MQTTUnsubscribeClient.c **** 	FUNC_ENTRY;
  62:..\acn-sdk-c\src\mqtt\packet\src/MQTTUnsubscribeClient.c **** 	if (MQTTPacket_len(rem_len = MQTTSerialize_unsubscribeLength(count, topicFilters)) > buflen)
  83              		.loc 1 62 0
  84 0032 281C     		mov	r0, r5
  85 0034 FFF7FEFF 		bl	MQTTPacket_len
  86              	.LVL6:
  87 0038 019B     		ldr	r3, [sp, #4]
  88 003a 9842     		cmp	r0, r3
  89 003c 27DC     		bgt	.L7
  63:..\acn-sdk-c\src\mqtt\packet\src/MQTTUnsubscribeClient.c **** 	{
  64:..\acn-sdk-c\src\mqtt\packet\src/MQTTUnsubscribeClient.c **** 		rc = MQTTPACKET_BUFFER_TOO_SHORT;
  65:..\acn-sdk-c\src\mqtt\packet\src/MQTTUnsubscribeClient.c **** 		goto exit;
  66:..\acn-sdk-c\src\mqtt\packet\src/MQTTUnsubscribeClient.c **** 	}
  67:..\acn-sdk-c\src\mqtt\packet\src/MQTTUnsubscribeClient.c **** 
  68:..\acn-sdk-c\src\mqtt\packet\src/MQTTUnsubscribeClient.c **** 	header.byte = 0;
  69:..\acn-sdk-c\src\mqtt\packet\src/MQTTUnsubscribeClient.c **** 	header.bits.type = UNSUBSCRIBE;
  70:..\acn-sdk-c\src\mqtt\packet\src/MQTTUnsubscribeClient.c **** 	header.bits.dup = dup;
  90              		.loc 1 70 0
  91 003e 0121     		mov	r1, #1
  92 0040 029B     		ldr	r3, [sp, #8]
  71:..\acn-sdk-c\src\mqtt\packet\src/MQTTUnsubscribeClient.c **** 	header.bits.qos = 1;
  72:..\acn-sdk-c\src\mqtt\packet\src/MQTTUnsubscribeClient.c **** 	writeChar(&ptr, (char)header.byte); /* write header */
  93              		.loc 1 72 0
  94 0042 05A8     		add	r0, sp, #20
ARM GAS  C:\Users\ddemidov\AppData\Local\Temp\ccwZ1bXK.s 			page 4


  70:..\acn-sdk-c\src\mqtt\packet\src/MQTTUnsubscribeClient.c **** 	header.bits.qos = 1;
  95              		.loc 1 70 0
  96 0044 0B40     		and	r3, r1
  97 0046 D900     		lsl	r1, r3, #3
  71:..\acn-sdk-c\src\mqtt\packet\src/MQTTUnsubscribeClient.c **** 	header.bits.qos = 1;
  98              		.loc 1 71 0
  99 0048 A023     		mov	r3, #160
 100 004a 1943     		orr	r1, r3
 101              		.loc 1 72 0
 102 004c 9E3B     		sub	r3, r3, #158
 103 004e 1943     		orr	r1, r3
 104              	.LVL7:
 105 0050 FFF7FEFF 		bl	writeChar
 106              	.LVL8:
  73:..\acn-sdk-c\src\mqtt\packet\src/MQTTUnsubscribeClient.c **** 
  74:..\acn-sdk-c\src\mqtt\packet\src/MQTTUnsubscribeClient.c **** 	ptr += MQTTPacket_encode(ptr, rem_len); /* write remaining length */;
 107              		.loc 1 74 0
 108 0054 291C     		mov	r1, r5
 109 0056 0598     		ldr	r0, [sp, #20]
 110 0058 FFF7FEFF 		bl	MQTTPacket_encode
 111              	.LVL9:
 112 005c 059B     		ldr	r3, [sp, #20]
  75:..\acn-sdk-c\src\mqtt\packet\src/MQTTUnsubscribeClient.c **** 
  76:..\acn-sdk-c\src\mqtt\packet\src/MQTTUnsubscribeClient.c **** 	writeInt(&ptr, packetid);
 113              		.loc 1 76 0
 114 005e 0399     		ldr	r1, [sp, #12]
  74:..\acn-sdk-c\src\mqtt\packet\src/MQTTUnsubscribeClient.c **** 
 115              		.loc 1 74 0
 116 0060 1818     		add	r0, r3, r0
 117 0062 0590     		str	r0, [sp, #20]
 118              		.loc 1 76 0
 119 0064 05A8     		add	r0, sp, #20
 120 0066 FFF7FEFF 		bl	writeInt
 121              	.LVL10:
  77:..\acn-sdk-c\src\mqtt\packet\src/MQTTUnsubscribeClient.c **** 
  78:..\acn-sdk-c\src\mqtt\packet\src/MQTTUnsubscribeClient.c **** 	for (i = 0; i < count; ++i)
 122              		.loc 1 78 0
 123 006a 0025     		mov	r5, #0
 124              	.LVL11:
 125              	.L5:
 126              		.loc 1 78 0 is_stmt 0 discriminator 1
 127 006c 0C9B     		ldr	r3, [sp, #48]
 128 006e 9D42     		cmp	r5, r3
 129 0070 0ADA     		bge	.L10
  79:..\acn-sdk-c\src\mqtt\packet\src/MQTTUnsubscribeClient.c **** 		writeMQTTString(&ptr, topicFilters[i]);
 130              		.loc 1 79 0 is_stmt 1 discriminator 3
 131 0072 0C23     		mov	r3, #12
 132 0074 6B43     		mul	r3, r5
 133 0076 1959     		ldr	r1, [r3, r4]
 134 0078 E318     		add	r3, r4, r3
 135 007a 5A68     		ldr	r2, [r3, #4]
 136 007c 05A8     		add	r0, sp, #20
 137 007e 9B68     		ldr	r3, [r3, #8]
 138 0080 FFF7FEFF 		bl	writeMQTTString
 139              	.LVL12:
  78:..\acn-sdk-c\src\mqtt\packet\src/MQTTUnsubscribeClient.c **** 		writeMQTTString(&ptr, topicFilters[i]);
 140              		.loc 1 78 0 discriminator 3
ARM GAS  C:\Users\ddemidov\AppData\Local\Temp\ccwZ1bXK.s 			page 5


 141 0084 0135     		add	r5, r5, #1
 142              	.LVL13:
 143 0086 F1E7     		b	.L5
 144              	.L10:
  80:..\acn-sdk-c\src\mqtt\packet\src/MQTTUnsubscribeClient.c **** 
  81:..\acn-sdk-c\src\mqtt\packet\src/MQTTUnsubscribeClient.c **** 	rc = ptr - buf;
 145              		.loc 1 81 0
 146 0088 059B     		ldr	r3, [sp, #20]
 147 008a D81B     		sub	r0, r3, r7
 148              	.LVL14:
 149 008c 01E0     		b	.L4
 150              	.LVL15:
 151              	.L7:
  64:..\acn-sdk-c\src\mqtt\packet\src/MQTTUnsubscribeClient.c **** 		goto exit;
 152              		.loc 1 64 0
 153 008e 0220     		mov	r0, #2
 154 0090 4042     		neg	r0, r0
 155              	.LVL16:
 156              	.L4:
  82:..\acn-sdk-c\src\mqtt\packet\src/MQTTUnsubscribeClient.c **** exit:
  83:..\acn-sdk-c\src\mqtt\packet\src/MQTTUnsubscribeClient.c **** 	FUNC_EXIT_RC(rc);
  84:..\acn-sdk-c\src\mqtt\packet\src/MQTTUnsubscribeClient.c **** 	return rc;
  85:..\acn-sdk-c\src\mqtt\packet\src/MQTTUnsubscribeClient.c **** }
 157              		.loc 1 85 0
 158 0092 07B0     		add	sp, sp, #28
 159              		@ sp needed
 160              	.LVL17:
 161              	.LVL18:
 162              	.LVL19:
 163 0094 F0BD     		pop	{r4, r5, r6, r7, pc}
 164              		.cfi_endproc
 165              	.LFE1:
 166              		.size	MQTTSerialize_unsubscribe, .-MQTTSerialize_unsubscribe
 167              		.section	.text.MQTTDeserialize_unsuback,"ax",%progbits
 168              		.align	1
 169              		.global	MQTTDeserialize_unsuback
 170              		.code	16
 171              		.thumb_func
 172              		.type	MQTTDeserialize_unsuback, %function
 173              	MQTTDeserialize_unsuback:
 174              	.LFB2:
  86:..\acn-sdk-c\src\mqtt\packet\src/MQTTUnsubscribeClient.c **** 
  87:..\acn-sdk-c\src\mqtt\packet\src/MQTTUnsubscribeClient.c **** 
  88:..\acn-sdk-c\src\mqtt\packet\src/MQTTUnsubscribeClient.c **** /**
  89:..\acn-sdk-c\src\mqtt\packet\src/MQTTUnsubscribeClient.c ****   * Deserializes the supplied (wire) buffer into unsuback data
  90:..\acn-sdk-c\src\mqtt\packet\src/MQTTUnsubscribeClient.c ****   * @param packetid returned integer - the MQTT packet identifier
  91:..\acn-sdk-c\src\mqtt\packet\src/MQTTUnsubscribeClient.c ****   * @param buf the raw buffer data, of the correct length determined by the remaining length field
  92:..\acn-sdk-c\src\mqtt\packet\src/MQTTUnsubscribeClient.c ****   * @param buflen the length in bytes of the data in the supplied buffer
  93:..\acn-sdk-c\src\mqtt\packet\src/MQTTUnsubscribeClient.c ****   * @return error code.  1 is success, 0 is failure
  94:..\acn-sdk-c\src\mqtt\packet\src/MQTTUnsubscribeClient.c ****   */
  95:..\acn-sdk-c\src\mqtt\packet\src/MQTTUnsubscribeClient.c **** int MQTTDeserialize_unsuback(unsigned short* packetid, unsigned char* buf, int buflen)
  96:..\acn-sdk-c\src\mqtt\packet\src/MQTTUnsubscribeClient.c **** {
 175              		.loc 1 96 0
 176              		.cfi_startproc
 177              	.LVL20:
 178 0000 30B5     		push	{r4, r5, lr}
 179              		.cfi_def_cfa_offset 12
ARM GAS  C:\Users\ddemidov\AppData\Local\Temp\ccwZ1bXK.s 			page 6


 180              		.cfi_offset 4, -12
 181              		.cfi_offset 5, -8
 182              		.cfi_offset 14, -4
 183 0002 0B1C     		mov	r3, r1
  97:..\acn-sdk-c\src\mqtt\packet\src/MQTTUnsubscribeClient.c **** 	unsigned char type = 0;
 184              		.loc 1 97 0
 185 0004 0E24     		mov	r4, #14
  98:..\acn-sdk-c\src\mqtt\packet\src/MQTTUnsubscribeClient.c **** 	unsigned char dup = 0;
 186              		.loc 1 98 0
 187 0006 0F21     		mov	r1, #15
 188              	.LVL21:
  96:..\acn-sdk-c\src\mqtt\packet\src/MQTTUnsubscribeClient.c **** 	unsigned char type = 0;
 189              		.loc 1 96 0
 190 0008 051C     		mov	r5, r0
  97:..\acn-sdk-c\src\mqtt\packet\src/MQTTUnsubscribeClient.c **** 	unsigned char type = 0;
 191              		.loc 1 97 0
 192 000a 0020     		mov	r0, #0
 193              	.LVL22:
  96:..\acn-sdk-c\src\mqtt\packet\src/MQTTUnsubscribeClient.c **** 	unsigned char type = 0;
 194              		.loc 1 96 0
 195 000c 85B0     		sub	sp, sp, #20
 196              		.cfi_def_cfa_offset 32
  97:..\acn-sdk-c\src\mqtt\packet\src/MQTTUnsubscribeClient.c **** 	unsigned char type = 0;
 197              		.loc 1 97 0
 198 000e 6C44     		add	r4, r4, sp
 199              		.loc 1 98 0
 200 0010 6944     		add	r1, r1, sp
  97:..\acn-sdk-c\src\mqtt\packet\src/MQTTUnsubscribeClient.c **** 	unsigned char type = 0;
 201              		.loc 1 97 0
 202 0012 2070     		strb	r0, [r4]
 203              		.loc 1 98 0
 204 0014 0870     		strb	r0, [r1]
 205              	.LVL23:
  99:..\acn-sdk-c\src\mqtt\packet\src/MQTTUnsubscribeClient.c **** 	int rc = 0;
 100:..\acn-sdk-c\src\mqtt\packet\src/MQTTUnsubscribeClient.c **** 
 101:..\acn-sdk-c\src\mqtt\packet\src/MQTTUnsubscribeClient.c **** 	FUNC_ENTRY;
 102:..\acn-sdk-c\src\mqtt\packet\src/MQTTUnsubscribeClient.c **** 	rc = MQTTDeserialize_ack(&type, &dup, packetid, buf, buflen);
 206              		.loc 1 102 0
 207 0016 0092     		str	r2, [sp]
 208 0018 201C     		mov	r0, r4
 209 001a 2A1C     		mov	r2, r5
 210              	.LVL24:
 211 001c FFF7FEFF 		bl	MQTTDeserialize_ack
 212              	.LVL25:
 103:..\acn-sdk-c\src\mqtt\packet\src/MQTTUnsubscribeClient.c **** 	if (type == UNSUBACK)
 213              		.loc 1 103 0
 214 0020 2378     		ldrb	r3, [r4]
 215 0022 0B2B     		cmp	r3, #11
 216 0024 00D1     		bne	.L12
 104:..\acn-sdk-c\src\mqtt\packet\src/MQTTUnsubscribeClient.c **** 		rc = 1;
 217              		.loc 1 104 0
 218 0026 0120     		mov	r0, #1
 219              	.LVL26:
 220              	.L12:
 105:..\acn-sdk-c\src\mqtt\packet\src/MQTTUnsubscribeClient.c **** 	FUNC_EXIT_RC(rc);
 106:..\acn-sdk-c\src\mqtt\packet\src/MQTTUnsubscribeClient.c **** 	return rc;
 107:..\acn-sdk-c\src\mqtt\packet\src/MQTTUnsubscribeClient.c **** }
ARM GAS  C:\Users\ddemidov\AppData\Local\Temp\ccwZ1bXK.s 			page 7


 221              		.loc 1 107 0
 222 0028 05B0     		add	sp, sp, #20
 223              		@ sp needed
 224              	.LVL27:
 225 002a 30BD     		pop	{r4, r5, pc}
 226              		.cfi_endproc
 227              	.LFE2:
 228              		.size	MQTTDeserialize_unsuback, .-MQTTDeserialize_unsuback
 229              		.text
 230              	.Letext0:
 231              		.file 2 "..\\acn-sdk-c\\include/mqtt/packet/MQTTPacket.h"