ARM GAS  C:\Users\ddemidov\AppData\Local\Temp\cc7xZMtg.s 			page 1


   1              		.cpu cortex-m0
   2              		.fpu softvfp
   3              		.eabi_attribute 20, 1
   4              		.eabi_attribute 21, 1
   5              		.eabi_attribute 23, 3
   6              		.eabi_attribute 24, 1
   7              		.eabi_attribute 25, 1
   8              		.eabi_attribute 26, 1
   9              		.eabi_attribute 30, 4
  10              		.eabi_attribute 34, 0
  11              		.eabi_attribute 18, 4
  12              		.code	16
  13              		.file	"MQTTClient.c"
  14              		.text
  15              	.Ltext0:
  16              		.cfi_sections	.debug_frame
  17              		.section	.text.sendPacket,"ax",%progbits
  18              		.align	1
  19              		.code	16
  20              		.thumb_func
  21              		.type	sendPacket, %function
  22              	sendPacket:
  23              	.LFB2:
  24              		.file 1 "..\\acn-sdk-c\\src\\mqtt\\client\\src\\MQTTClient.c"
   1:..\acn-sdk-c\src\mqtt\client\src/MQTTClient.c **** /*******************************************************************************
   2:..\acn-sdk-c\src\mqtt\client\src/MQTTClient.c ****  * Copyright (c) 2014, 2015 IBM Corp.
   3:..\acn-sdk-c\src\mqtt\client\src/MQTTClient.c ****  *
   4:..\acn-sdk-c\src\mqtt\client\src/MQTTClient.c ****  * All rights reserved. This program and the accompanying materials
   5:..\acn-sdk-c\src\mqtt\client\src/MQTTClient.c ****  * are made available under the terms of the Eclipse Public License v1.0
   6:..\acn-sdk-c\src\mqtt\client\src/MQTTClient.c ****  * and Eclipse Distribution License v1.0 which accompany this distribution.
   7:..\acn-sdk-c\src\mqtt\client\src/MQTTClient.c ****  *
   8:..\acn-sdk-c\src\mqtt\client\src/MQTTClient.c ****  * The Eclipse Public License is available at
   9:..\acn-sdk-c\src\mqtt\client\src/MQTTClient.c ****  *    http://www.eclipse.org/legal/epl-v10.html
  10:..\acn-sdk-c\src\mqtt\client\src/MQTTClient.c ****  * and the Eclipse Distribution License is available at
  11:..\acn-sdk-c\src\mqtt\client\src/MQTTClient.c ****  *   http://www.eclipse.org/org/documents/edl-v10.php.
  12:..\acn-sdk-c\src\mqtt\client\src/MQTTClient.c ****  *
  13:..\acn-sdk-c\src\mqtt\client\src/MQTTClient.c ****  * Contributors:
  14:..\acn-sdk-c\src\mqtt\client\src/MQTTClient.c ****  *    Allan Stockdill-Mander/Ian Craggs - initial API and implementation and/or initial documentati
  15:..\acn-sdk-c\src\mqtt\client\src/MQTTClient.c ****  *******************************************************************************/
  16:..\acn-sdk-c\src\mqtt\client\src/MQTTClient.c **** #include "mqtt/client/MQTTClient.h"
  17:..\acn-sdk-c\src\mqtt\client\src/MQTTClient.c **** #include "mqtt/packet/MQTTPublish.h"
  18:..\acn-sdk-c\src\mqtt\client\src/MQTTClient.c **** #include "mqtt/packet/MQTTSubscribe.h"
  19:..\acn-sdk-c\src\mqtt\client\src/MQTTClient.c **** #include "mqtt/packet/MQTTUnsubscribe.h"
  20:..\acn-sdk-c\src\mqtt\client\src/MQTTClient.c **** 
  21:..\acn-sdk-c\src\mqtt\client\src/MQTTClient.c **** static void NewMessageData(MessageData* md, MQTTString* aTopicName, MQTTMessage* aMessage) {
  22:..\acn-sdk-c\src\mqtt\client\src/MQTTClient.c ****     md->topicName = aTopicName;
  23:..\acn-sdk-c\src\mqtt\client\src/MQTTClient.c ****     md->message = aMessage;
  24:..\acn-sdk-c\src\mqtt\client\src/MQTTClient.c **** }
  25:..\acn-sdk-c\src\mqtt\client\src/MQTTClient.c **** 
  26:..\acn-sdk-c\src\mqtt\client\src/MQTTClient.c **** 
  27:..\acn-sdk-c\src\mqtt\client\src/MQTTClient.c **** static unsigned short getNextPacketId(MQTTClient *c) {
  28:..\acn-sdk-c\src\mqtt\client\src/MQTTClient.c ****     return c->next_packetid = (unsigned short int)((c->next_packetid == MAX_PACKET_ID) ? 1 : c->nex
  29:..\acn-sdk-c\src\mqtt\client\src/MQTTClient.c **** }
  30:..\acn-sdk-c\src\mqtt\client\src/MQTTClient.c **** 
  31:..\acn-sdk-c\src\mqtt\client\src/MQTTClient.c **** static int sendPacket(MQTTClient* c, int length, TimerInterval* timer)
  32:..\acn-sdk-c\src\mqtt\client\src/MQTTClient.c **** {
  25              		.loc 1 32 0
ARM GAS  C:\Users\ddemidov\AppData\Local\Temp\cc7xZMtg.s 			page 2


  26              		.cfi_startproc
  27              	.LVL0:
  28 0000 F0B5     		push	{r4, r5, r6, r7, lr}
  29              		.cfi_def_cfa_offset 20
  30              		.cfi_offset 4, -20
  31              		.cfi_offset 5, -16
  32              		.cfi_offset 6, -12
  33              		.cfi_offset 7, -8
  34              		.cfi_offset 14, -4
  35 0002 051C     		mov	r5, r0
  36 0004 0E1C     		mov	r6, r1
  33:..\acn-sdk-c\src\mqtt\client\src/MQTTClient.c ****     int rc = FAILURE,
  34:..\acn-sdk-c\src\mqtt\client\src/MQTTClient.c ****         sent = 0;
  37              		.loc 1 34 0
  38 0006 0024     		mov	r4, #0
  32:..\acn-sdk-c\src\mqtt\client\src/MQTTClient.c ****     int rc = FAILURE,
  39              		.loc 1 32 0
  40 0008 85B0     		sub	sp, sp, #20
  41              		.cfi_def_cfa_offset 40
  32:..\acn-sdk-c\src\mqtt\client\src/MQTTClient.c ****     int rc = FAILURE,
  42              		.loc 1 32 0
  43 000a 0192     		str	r2, [sp, #4]
  44              	.LVL1:
  45              	.L2:
  35:..\acn-sdk-c\src\mqtt\client\src/MQTTClient.c **** 
  36:..\acn-sdk-c\src\mqtt\client\src/MQTTClient.c ****     while (sent < length && !TimerIsExpired(timer))
  46              		.loc 1 36 0
  47 000c B442     		cmp	r4, r6
  48 000e 17DA     		bge	.L4
  49              		.loc 1 36 0 is_stmt 0 discriminator 1
  50 0010 0198     		ldr	r0, [sp, #4]
  51 0012 FFF7FEFF 		bl	TimerIsExpired
  52              	.LVL2:
  53 0016 0028     		cmp	r0, #0
  54 0018 1BD1     		bne	.L3
  37:..\acn-sdk-c\src\mqtt\client\src/MQTTClient.c ****     {
  38:..\acn-sdk-c\src\mqtt\client\src/MQTTClient.c ****         rc = c->ipstack->mqttwrite(c->ipstack, &c->buf[sent], length, TimerLeftMS(timer));
  55              		.loc 1 38 0 is_stmt 1
  56 001a 2F6D     		ldr	r7, [r5, #80]
  57 001c 0198     		ldr	r0, [sp, #4]
  58 001e BB68     		ldr	r3, [r7, #8]
  59 0020 0293     		str	r3, [sp, #8]
  60 0022 2B69     		ldr	r3, [r5, #16]
  61 0024 1B19     		add	r3, r3, r4
  62 0026 0393     		str	r3, [sp, #12]
  63 0028 FFF7FEFF 		bl	TimerLeftMS
  64              	.LVL3:
  65 002c 0399     		ldr	r1, [sp, #12]
  66 002e 031C     		mov	r3, r0
  67 0030 321C     		mov	r2, r6
  68 0032 381C     		mov	r0, r7
  69 0034 029F     		ldr	r7, [sp, #8]
  70 0036 B847     		blx	r7
  71              	.LVL4:
  39:..\acn-sdk-c\src\mqtt\client\src/MQTTClient.c ****         if (rc < 0)  // there was an error writing the data
  72              		.loc 1 39 0
  73 0038 0028     		cmp	r0, #0
ARM GAS  C:\Users\ddemidov\AppData\Local\Temp\cc7xZMtg.s 			page 3


  74 003a 0ADB     		blt	.L3
  40:..\acn-sdk-c\src\mqtt\client\src/MQTTClient.c ****             break;
  41:..\acn-sdk-c\src\mqtt\client\src/MQTTClient.c ****         sent += rc;
  75              		.loc 1 41 0
  76 003c 2418     		add	r4, r4, r0
  77              	.LVL5:
  78 003e E5E7     		b	.L2
  79              	.LVL6:
  80              	.L4:
  42:..\acn-sdk-c\src\mqtt\client\src/MQTTClient.c ****     }
  43:..\acn-sdk-c\src\mqtt\client\src/MQTTClient.c ****     if (sent == length)
  81              		.loc 1 43 0
  82 0040 B442     		cmp	r4, r6
  83 0042 06D1     		bne	.L3
  44:..\acn-sdk-c\src\mqtt\client\src/MQTTClient.c ****     {
  45:..\acn-sdk-c\src\mqtt\client\src/MQTTClient.c ****         TimerCountdown(&c->ping_timer, c->keepAliveInterval); // record the fact that we have succe
  84              		.loc 1 45 0
  85 0044 281C     		mov	r0, r5
  86 0046 A969     		ldr	r1, [r5, #24]
  87 0048 5430     		add	r0, r0, #84
  88 004a FFF7FEFF 		bl	TimerCountdown
  89              	.LVL7:
  46:..\acn-sdk-c\src\mqtt\client\src/MQTTClient.c ****         rc = MQTT_SUCCESS;
  90              		.loc 1 46 0
  91 004e 0020     		mov	r0, #0
  92 0050 01E0     		b	.L8
  93              	.LVL8:
  94              	.L3:
  47:..\acn-sdk-c\src\mqtt\client\src/MQTTClient.c ****     }
  48:..\acn-sdk-c\src\mqtt\client\src/MQTTClient.c ****     else
  49:..\acn-sdk-c\src\mqtt\client\src/MQTTClient.c ****         rc = FAILURE;
  95              		.loc 1 49 0
  96 0052 0120     		mov	r0, #1
  97 0054 4042     		neg	r0, r0
  98              	.LVL9:
  99              	.L8:
  50:..\acn-sdk-c\src\mqtt\client\src/MQTTClient.c ****     return rc;
  51:..\acn-sdk-c\src\mqtt\client\src/MQTTClient.c **** }
 100              		.loc 1 51 0
 101 0056 05B0     		add	sp, sp, #20
 102              		@ sp needed
 103              	.LVL10:
 104              	.LVL11:
 105              	.LVL12:
 106 0058 F0BD     		pop	{r4, r5, r6, r7, pc}
 107              		.cfi_endproc
 108              	.LFE2:
 109              		.size	sendPacket, .-sendPacket
 110              		.section	.text.cycle,"ax",%progbits
 111              		.align	1
 112              		.code	16
 113              		.thumb_func
 114              		.type	cycle, %function
 115              	cycle:
 116              	.LFB9:
  52:..\acn-sdk-c\src\mqtt\client\src/MQTTClient.c **** 
  53:..\acn-sdk-c\src\mqtt\client\src/MQTTClient.c **** 
ARM GAS  C:\Users\ddemidov\AppData\Local\Temp\cc7xZMtg.s 			page 4


  54:..\acn-sdk-c\src\mqtt\client\src/MQTTClient.c **** void MQTTClientInit(MQTTClient* c, Network* network, unsigned int command_timeout_ms,
  55:..\acn-sdk-c\src\mqtt\client\src/MQTTClient.c ****     unsigned char* sendbuf, size_t sendbuf_size, unsigned char* readbuf, size_t readbuf_size)
  56:..\acn-sdk-c\src\mqtt\client\src/MQTTClient.c **** {
  57:..\acn-sdk-c\src\mqtt\client\src/MQTTClient.c ****     int i;
  58:..\acn-sdk-c\src\mqtt\client\src/MQTTClient.c ****     c->ipstack = network;
  59:..\acn-sdk-c\src\mqtt\client\src/MQTTClient.c **** 
  60:..\acn-sdk-c\src\mqtt\client\src/MQTTClient.c ****     for (i = 0; i < MAX_MESSAGE_HANDLERS; ++i)
  61:..\acn-sdk-c\src\mqtt\client\src/MQTTClient.c ****         c->messageHandlers[i].topicFilter = 0;
  62:..\acn-sdk-c\src\mqtt\client\src/MQTTClient.c ****     c->command_timeout_ms = command_timeout_ms;
  63:..\acn-sdk-c\src\mqtt\client\src/MQTTClient.c ****     c->buf = sendbuf;
  64:..\acn-sdk-c\src\mqtt\client\src/MQTTClient.c ****     c->buf_size = sendbuf_size;
  65:..\acn-sdk-c\src\mqtt\client\src/MQTTClient.c ****     c->readbuf = readbuf;
  66:..\acn-sdk-c\src\mqtt\client\src/MQTTClient.c ****     c->readbuf_size = readbuf_size;
  67:..\acn-sdk-c\src\mqtt\client\src/MQTTClient.c ****     c->isconnected = 0;
  68:..\acn-sdk-c\src\mqtt\client\src/MQTTClient.c ****     c->ping_outstanding = 0;
  69:..\acn-sdk-c\src\mqtt\client\src/MQTTClient.c ****     c->defaultMessageHandler = NULL;
  70:..\acn-sdk-c\src\mqtt\client\src/MQTTClient.c ****   c->next_packetid = 1;
  71:..\acn-sdk-c\src\mqtt\client\src/MQTTClient.c ****     TimerInit(&c->ping_timer);
  72:..\acn-sdk-c\src\mqtt\client\src/MQTTClient.c **** #if defined(MQTT_TASK)
  73:..\acn-sdk-c\src\mqtt\client\src/MQTTClient.c ****   MutexInit(&c->mutex);
  74:..\acn-sdk-c\src\mqtt\client\src/MQTTClient.c **** #endif
  75:..\acn-sdk-c\src\mqtt\client\src/MQTTClient.c **** }
  76:..\acn-sdk-c\src\mqtt\client\src/MQTTClient.c **** 
  77:..\acn-sdk-c\src\mqtt\client\src/MQTTClient.c **** 
  78:..\acn-sdk-c\src\mqtt\client\src/MQTTClient.c **** static int decodePacket(MQTTClient* c, int* value, int timeout)
  79:..\acn-sdk-c\src\mqtt\client\src/MQTTClient.c **** {
  80:..\acn-sdk-c\src\mqtt\client\src/MQTTClient.c ****     unsigned char i;
  81:..\acn-sdk-c\src\mqtt\client\src/MQTTClient.c ****     int multiplier = 1;
  82:..\acn-sdk-c\src\mqtt\client\src/MQTTClient.c ****     int len = 0;
  83:..\acn-sdk-c\src\mqtt\client\src/MQTTClient.c ****     const int MAX_NO_OF_REMAINING_LENGTH_BYTES = 4;
  84:..\acn-sdk-c\src\mqtt\client\src/MQTTClient.c **** 
  85:..\acn-sdk-c\src\mqtt\client\src/MQTTClient.c ****     *value = 0;
  86:..\acn-sdk-c\src\mqtt\client\src/MQTTClient.c ****     do
  87:..\acn-sdk-c\src\mqtt\client\src/MQTTClient.c ****     {
  88:..\acn-sdk-c\src\mqtt\client\src/MQTTClient.c ****         int rc = MQTTPACKET_READ_ERROR;
  89:..\acn-sdk-c\src\mqtt\client\src/MQTTClient.c **** 
  90:..\acn-sdk-c\src\mqtt\client\src/MQTTClient.c ****         if (++len > MAX_NO_OF_REMAINING_LENGTH_BYTES)
  91:..\acn-sdk-c\src\mqtt\client\src/MQTTClient.c ****         {
  92:..\acn-sdk-c\src\mqtt\client\src/MQTTClient.c ****             rc = MQTTPACKET_READ_ERROR; /* bad data */
  93:..\acn-sdk-c\src\mqtt\client\src/MQTTClient.c ****             goto exit;
  94:..\acn-sdk-c\src\mqtt\client\src/MQTTClient.c ****         }
  95:..\acn-sdk-c\src\mqtt\client\src/MQTTClient.c ****         rc = c->ipstack->mqttread(c->ipstack, &i, 1, timeout);
  96:..\acn-sdk-c\src\mqtt\client\src/MQTTClient.c ****         if (rc != 1)
  97:..\acn-sdk-c\src\mqtt\client\src/MQTTClient.c ****             goto exit;
  98:..\acn-sdk-c\src\mqtt\client\src/MQTTClient.c ****         *value += (i & 127) * multiplier;
  99:..\acn-sdk-c\src\mqtt\client\src/MQTTClient.c ****         multiplier *= 128;
 100:..\acn-sdk-c\src\mqtt\client\src/MQTTClient.c ****     } while ((i & 128) != 0);
 101:..\acn-sdk-c\src\mqtt\client\src/MQTTClient.c **** exit:
 102:..\acn-sdk-c\src\mqtt\client\src/MQTTClient.c ****     return len;
 103:..\acn-sdk-c\src\mqtt\client\src/MQTTClient.c **** }
 104:..\acn-sdk-c\src\mqtt\client\src/MQTTClient.c **** 
 105:..\acn-sdk-c\src\mqtt\client\src/MQTTClient.c **** 
 106:..\acn-sdk-c\src\mqtt\client\src/MQTTClient.c **** static int readPacket(MQTTClient* c, TimerInterval* timer)
 107:..\acn-sdk-c\src\mqtt\client\src/MQTTClient.c **** {
 108:..\acn-sdk-c\src\mqtt\client\src/MQTTClient.c ****     int rc = FAILURE;
 109:..\acn-sdk-c\src\mqtt\client\src/MQTTClient.c ****     MQTTHeader header = {0};
 110:..\acn-sdk-c\src\mqtt\client\src/MQTTClient.c ****     int len = 0;
ARM GAS  C:\Users\ddemidov\AppData\Local\Temp\cc7xZMtg.s 			page 5


 111:..\acn-sdk-c\src\mqtt\client\src/MQTTClient.c ****     int rem_len = 0;
 112:..\acn-sdk-c\src\mqtt\client\src/MQTTClient.c **** 
 113:..\acn-sdk-c\src\mqtt\client\src/MQTTClient.c ****     /* 1. read the header byte.  This has the packet type in it */
 114:..\acn-sdk-c\src\mqtt\client\src/MQTTClient.c ****     if (c->ipstack->mqttread(c->ipstack, c->readbuf, 1, TimerLeftMS(timer)) != 1)
 115:..\acn-sdk-c\src\mqtt\client\src/MQTTClient.c ****         goto exit;
 116:..\acn-sdk-c\src\mqtt\client\src/MQTTClient.c **** 
 117:..\acn-sdk-c\src\mqtt\client\src/MQTTClient.c ****     len = 1;
 118:..\acn-sdk-c\src\mqtt\client\src/MQTTClient.c ****     /* 2. read the remaining length.  This is variable in itself */
 119:..\acn-sdk-c\src\mqtt\client\src/MQTTClient.c ****     decodePacket(c, &rem_len, TimerLeftMS(timer));
 120:..\acn-sdk-c\src\mqtt\client\src/MQTTClient.c ****     len += MQTTPacket_encode(c->readbuf + 1, rem_len); /* put the original remaining length back in
 121:..\acn-sdk-c\src\mqtt\client\src/MQTTClient.c **** 
 122:..\acn-sdk-c\src\mqtt\client\src/MQTTClient.c ****     /* 3. read the rest of the buffer using a callback to supply the rest of the data */
 123:..\acn-sdk-c\src\mqtt\client\src/MQTTClient.c ****     if (rem_len > 0 && (c->ipstack->mqttread(c->ipstack, c->readbuf + len, rem_len, TimerLeftMS(tim
 124:..\acn-sdk-c\src\mqtt\client\src/MQTTClient.c ****         goto exit;
 125:..\acn-sdk-c\src\mqtt\client\src/MQTTClient.c **** 
 126:..\acn-sdk-c\src\mqtt\client\src/MQTTClient.c ****     header.byte = c->readbuf[0];
 127:..\acn-sdk-c\src\mqtt\client\src/MQTTClient.c ****     rc = header.bits.type;
 128:..\acn-sdk-c\src\mqtt\client\src/MQTTClient.c **** exit:
 129:..\acn-sdk-c\src\mqtt\client\src/MQTTClient.c ****     return rc;
 130:..\acn-sdk-c\src\mqtt\client\src/MQTTClient.c **** }
 131:..\acn-sdk-c\src\mqtt\client\src/MQTTClient.c **** 
 132:..\acn-sdk-c\src\mqtt\client\src/MQTTClient.c **** 
 133:..\acn-sdk-c\src\mqtt\client\src/MQTTClient.c **** // assume topic filter and name is in correct format
 134:..\acn-sdk-c\src\mqtt\client\src/MQTTClient.c **** // # can only be at end
 135:..\acn-sdk-c\src\mqtt\client\src/MQTTClient.c **** // + and # can only be next to separator
 136:..\acn-sdk-c\src\mqtt\client\src/MQTTClient.c **** static char isTopicMatched(char* topicFilter, MQTTString* topicName)
 137:..\acn-sdk-c\src\mqtt\client\src/MQTTClient.c **** {
 138:..\acn-sdk-c\src\mqtt\client\src/MQTTClient.c ****     char* curf = topicFilter;
 139:..\acn-sdk-c\src\mqtt\client\src/MQTTClient.c ****     char* curn = topicName->lenstring.data;
 140:..\acn-sdk-c\src\mqtt\client\src/MQTTClient.c ****     char* curn_end = curn + topicName->lenstring.len;
 141:..\acn-sdk-c\src\mqtt\client\src/MQTTClient.c **** 
 142:..\acn-sdk-c\src\mqtt\client\src/MQTTClient.c ****     while (*curf && curn < curn_end)
 143:..\acn-sdk-c\src\mqtt\client\src/MQTTClient.c ****     {
 144:..\acn-sdk-c\src\mqtt\client\src/MQTTClient.c ****         if (*curn == '/' && *curf != '/')
 145:..\acn-sdk-c\src\mqtt\client\src/MQTTClient.c ****             break;
 146:..\acn-sdk-c\src\mqtt\client\src/MQTTClient.c ****         if (*curf != '+' && *curf != '#' && *curf != *curn)
 147:..\acn-sdk-c\src\mqtt\client\src/MQTTClient.c ****             break;
 148:..\acn-sdk-c\src\mqtt\client\src/MQTTClient.c ****         if (*curf == '+')
 149:..\acn-sdk-c\src\mqtt\client\src/MQTTClient.c ****         {   // skip until we meet the next separator, or end of string
 150:..\acn-sdk-c\src\mqtt\client\src/MQTTClient.c ****             char* nextpos = curn + 1;
 151:..\acn-sdk-c\src\mqtt\client\src/MQTTClient.c ****             while (nextpos < curn_end && *nextpos != '/')
 152:..\acn-sdk-c\src\mqtt\client\src/MQTTClient.c ****                 nextpos = ++curn + 1;
 153:..\acn-sdk-c\src\mqtt\client\src/MQTTClient.c ****         }
 154:..\acn-sdk-c\src\mqtt\client\src/MQTTClient.c ****         else if (*curf == '#')
 155:..\acn-sdk-c\src\mqtt\client\src/MQTTClient.c ****             curn = curn_end - 1;    // skip until end of string
 156:..\acn-sdk-c\src\mqtt\client\src/MQTTClient.c ****         curf++;
 157:..\acn-sdk-c\src\mqtt\client\src/MQTTClient.c ****         curn++;
 158:..\acn-sdk-c\src\mqtt\client\src/MQTTClient.c ****     };
 159:..\acn-sdk-c\src\mqtt\client\src/MQTTClient.c **** 
 160:..\acn-sdk-c\src\mqtt\client\src/MQTTClient.c ****     return (curn == curn_end) && (*curf == '\0');
 161:..\acn-sdk-c\src\mqtt\client\src/MQTTClient.c **** }
 162:..\acn-sdk-c\src\mqtt\client\src/MQTTClient.c **** 
 163:..\acn-sdk-c\src\mqtt\client\src/MQTTClient.c **** 
 164:..\acn-sdk-c\src\mqtt\client\src/MQTTClient.c **** static int deliverMessage(MQTTClient* c, MQTTString* topicName, MQTTMessage* message)
 165:..\acn-sdk-c\src\mqtt\client\src/MQTTClient.c **** {
 166:..\acn-sdk-c\src\mqtt\client\src/MQTTClient.c ****     int i;
 167:..\acn-sdk-c\src\mqtt\client\src/MQTTClient.c ****     int rc = FAILURE;
ARM GAS  C:\Users\ddemidov\AppData\Local\Temp\cc7xZMtg.s 			page 6


 168:..\acn-sdk-c\src\mqtt\client\src/MQTTClient.c **** 
 169:..\acn-sdk-c\src\mqtt\client\src/MQTTClient.c ****     // we have to find the right message handler - indexed by topic
 170:..\acn-sdk-c\src\mqtt\client\src/MQTTClient.c ****     for (i = 0; i < MAX_MESSAGE_HANDLERS; ++i)
 171:..\acn-sdk-c\src\mqtt\client\src/MQTTClient.c ****     {
 172:..\acn-sdk-c\src\mqtt\client\src/MQTTClient.c ****         if (c->messageHandlers[i].topicFilter != 0 && (MQTTPacket_equals(topicName, (char*)c->messa
 173:..\acn-sdk-c\src\mqtt\client\src/MQTTClient.c ****                 isTopicMatched((char*)c->messageHandlers[i].topicFilter, topicName)))
 174:..\acn-sdk-c\src\mqtt\client\src/MQTTClient.c ****         {
 175:..\acn-sdk-c\src\mqtt\client\src/MQTTClient.c ****             if (c->messageHandlers[i].fp != NULL)
 176:..\acn-sdk-c\src\mqtt\client\src/MQTTClient.c ****             {
 177:..\acn-sdk-c\src\mqtt\client\src/MQTTClient.c ****                 MessageData md;
 178:..\acn-sdk-c\src\mqtt\client\src/MQTTClient.c ****                 NewMessageData(&md, topicName, message);
 179:..\acn-sdk-c\src\mqtt\client\src/MQTTClient.c ****                 c->messageHandlers[i].fp(&md);
 180:..\acn-sdk-c\src\mqtt\client\src/MQTTClient.c ****                 rc = MQTT_SUCCESS;
 181:..\acn-sdk-c\src\mqtt\client\src/MQTTClient.c ****             }
 182:..\acn-sdk-c\src\mqtt\client\src/MQTTClient.c ****         }
 183:..\acn-sdk-c\src\mqtt\client\src/MQTTClient.c ****     }
 184:..\acn-sdk-c\src\mqtt\client\src/MQTTClient.c **** 
 185:..\acn-sdk-c\src\mqtt\client\src/MQTTClient.c ****     if (rc == FAILURE && c->defaultMessageHandler != NULL)
 186:..\acn-sdk-c\src\mqtt\client\src/MQTTClient.c ****     {
 187:..\acn-sdk-c\src\mqtt\client\src/MQTTClient.c ****         MessageData md;
 188:..\acn-sdk-c\src\mqtt\client\src/MQTTClient.c ****         NewMessageData(&md, topicName, message);
 189:..\acn-sdk-c\src\mqtt\client\src/MQTTClient.c ****         c->defaultMessageHandler(&md);
 190:..\acn-sdk-c\src\mqtt\client\src/MQTTClient.c ****         rc = MQTT_SUCCESS;
 191:..\acn-sdk-c\src\mqtt\client\src/MQTTClient.c ****     }
 192:..\acn-sdk-c\src\mqtt\client\src/MQTTClient.c **** 
 193:..\acn-sdk-c\src\mqtt\client\src/MQTTClient.c ****     return rc;
 194:..\acn-sdk-c\src\mqtt\client\src/MQTTClient.c **** }
 195:..\acn-sdk-c\src\mqtt\client\src/MQTTClient.c **** 
 196:..\acn-sdk-c\src\mqtt\client\src/MQTTClient.c **** 
 197:..\acn-sdk-c\src\mqtt\client\src/MQTTClient.c **** static int keepalive(MQTTClient* c)
 198:..\acn-sdk-c\src\mqtt\client\src/MQTTClient.c **** {
 199:..\acn-sdk-c\src\mqtt\client\src/MQTTClient.c ****     int rc = FAILURE;
 200:..\acn-sdk-c\src\mqtt\client\src/MQTTClient.c **** 
 201:..\acn-sdk-c\src\mqtt\client\src/MQTTClient.c ****     if (c->keepAliveInterval == 0)
 202:..\acn-sdk-c\src\mqtt\client\src/MQTTClient.c ****     {
 203:..\acn-sdk-c\src\mqtt\client\src/MQTTClient.c ****         rc = MQTT_SUCCESS;
 204:..\acn-sdk-c\src\mqtt\client\src/MQTTClient.c ****         goto exit;
 205:..\acn-sdk-c\src\mqtt\client\src/MQTTClient.c ****     }
 206:..\acn-sdk-c\src\mqtt\client\src/MQTTClient.c **** 
 207:..\acn-sdk-c\src\mqtt\client\src/MQTTClient.c ****     if (TimerIsExpired(&c->ping_timer))
 208:..\acn-sdk-c\src\mqtt\client\src/MQTTClient.c ****     {
 209:..\acn-sdk-c\src\mqtt\client\src/MQTTClient.c ****         if (!c->ping_outstanding)
 210:..\acn-sdk-c\src\mqtt\client\src/MQTTClient.c ****         {
 211:..\acn-sdk-c\src\mqtt\client\src/MQTTClient.c ****             TimerInterval timer;
 212:..\acn-sdk-c\src\mqtt\client\src/MQTTClient.c ****             TimerInit(&timer);
 213:..\acn-sdk-c\src\mqtt\client\src/MQTTClient.c ****             TimerCountdownMS(&timer, 1000);
 214:..\acn-sdk-c\src\mqtt\client\src/MQTTClient.c ****             int len = MQTTSerialize_pingreq(c->buf, (int)c->buf_size);
 215:..\acn-sdk-c\src\mqtt\client\src/MQTTClient.c ****             if (len > 0 && (rc = sendPacket(c, len, &timer)) == MQTT_SUCCESS) // send the ping pack
 216:..\acn-sdk-c\src\mqtt\client\src/MQTTClient.c ****                 c->ping_outstanding = 1;
 217:..\acn-sdk-c\src\mqtt\client\src/MQTTClient.c ****         }
 218:..\acn-sdk-c\src\mqtt\client\src/MQTTClient.c ****     }
 219:..\acn-sdk-c\src\mqtt\client\src/MQTTClient.c **** 
 220:..\acn-sdk-c\src\mqtt\client\src/MQTTClient.c **** exit:
 221:..\acn-sdk-c\src\mqtt\client\src/MQTTClient.c ****     return rc;
 222:..\acn-sdk-c\src\mqtt\client\src/MQTTClient.c **** }
 223:..\acn-sdk-c\src\mqtt\client\src/MQTTClient.c **** 
 224:..\acn-sdk-c\src\mqtt\client\src/MQTTClient.c **** 
ARM GAS  C:\Users\ddemidov\AppData\Local\Temp\cc7xZMtg.s 			page 7


 225:..\acn-sdk-c\src\mqtt\client\src/MQTTClient.c **** static int cycle(MQTTClient* c, TimerInterval* timer)
 226:..\acn-sdk-c\src\mqtt\client\src/MQTTClient.c **** {
 117              		.loc 1 226 0
 118              		.cfi_startproc
 119              	.LVL13:
 120 0000 F0B5     		push	{r4, r5, r6, r7, lr}
 121              		.cfi_def_cfa_offset 20
 122              		.cfi_offset 4, -20
 123              		.cfi_offset 5, -16
 124              		.cfi_offset 6, -12
 125              		.cfi_offset 7, -8
 126              		.cfi_offset 14, -4
 127              	.LBB30:
 128              	.LBB31:
 114:..\acn-sdk-c\src\mqtt\client\src/MQTTClient.c ****         goto exit;
 129              		.loc 1 114 0
 130 0002 056D     		ldr	r5, [r0, #80]
 131              	.LBE31:
 132              	.LBE30:
 133              		.loc 1 226 0
 134 0004 95B0     		sub	sp, sp, #84
 135              		.cfi_def_cfa_offset 104
 136              	.LVL14:
 137              	.LBB42:
 138              	.LBB38:
 114:..\acn-sdk-c\src\mqtt\client\src/MQTTClient.c ****         goto exit;
 139              		.loc 1 114 0
 140 0006 4769     		ldr	r7, [r0, #20]
 141              	.LBE38:
 142              	.LBE42:
 143              		.loc 1 226 0
 144 0008 041C     		mov	r4, r0
 145              	.LBB43:
 146              	.LBB39:
 114:..\acn-sdk-c\src\mqtt\client\src/MQTTClient.c ****         goto exit;
 147              		.loc 1 114 0
 148 000a 081C     		mov	r0, r1
 149              	.LVL15:
 150 000c 6E68     		ldr	r6, [r5, #4]
 151              	.LBE39:
 152              	.LBE43:
 153              		.loc 1 226 0
 154 000e 0691     		str	r1, [sp, #24]
 155              	.LVL16:
 156              	.LBB44:
 157              	.LBB40:
 114:..\acn-sdk-c\src\mqtt\client\src/MQTTClient.c ****         goto exit;
 158              		.loc 1 114 0
 159 0010 FFF7FEFF 		bl	TimerLeftMS
 160              	.LVL17:
 161 0014 391C     		mov	r1, r7
 162 0016 031C     		mov	r3, r0
 163 0018 0122     		mov	r2, #1
 164 001a 281C     		mov	r0, r5
 165 001c B047     		blx	r6
 166              	.LVL18:
 167 001e 051E     		sub	r5, r0, #0
ARM GAS  C:\Users\ddemidov\AppData\Local\Temp\cc7xZMtg.s 			page 8


 168 0020 012D     		cmp	r5, #1
 169 0022 02D0     		beq	.L11
 170              	.LVL19:
 171              	.L16:
 108:..\acn-sdk-c\src\mqtt\client\src/MQTTClient.c ****     MQTTHeader header = {0};
 172              		.loc 1 108 0
 173 0024 0125     		mov	r5, #1
 174 0026 6D42     		neg	r5, r5
 175 0028 EDE0     		b	.L78
 176              	.LVL20:
 177              	.L11:
 119:..\acn-sdk-c\src\mqtt\client\src/MQTTClient.c ****     len += MQTTPacket_encode(c->readbuf + 1, rem_len); /* put the original remaining length back in
 178              		.loc 1 119 0
 179 002a 0698     		ldr	r0, [sp, #24]
 180 002c FFF7FEFF 		bl	TimerLeftMS
 181              	.LVL21:
 182 0030 0526     		mov	r6, #5
 183              	.LBB32:
 184              	.LBB33:
  85:..\acn-sdk-c\src\mqtt\client\src/MQTTClient.c ****     do
 185              		.loc 1 85 0
 186 0032 0027     		mov	r7, #0
 187              	.LBE33:
 188              	.LBE32:
 119:..\acn-sdk-c\src\mqtt\client\src/MQTTClient.c ****     len += MQTTPacket_encode(c->readbuf + 1, rem_len); /* put the original remaining length back in
 189              		.loc 1 119 0
 190 0034 0790     		str	r0, [sp, #28]
 191              	.LVL22:
 192              	.L14:
 193 0036 013E     		sub	r6, r6, #1
 194              	.LVL23:
 195              	.LBB37:
 196              	.LBB36:
 197              	.LBB34:
  90:..\acn-sdk-c\src\mqtt\client\src/MQTTClient.c ****         {
 198              		.loc 1 90 0
 199 0038 002E     		cmp	r6, #0
 200 003a 14D0     		beq	.L13
 201              	.LVL24:
  95:..\acn-sdk-c\src\mqtt\client\src/MQTTClient.c ****         if (rc != 1)
 202              		.loc 1 95 0
 203 003c 206D     		ldr	r0, [r4, #80]
 204 003e 10A9     		add	r1, sp, #64
 205 0040 4368     		ldr	r3, [r0, #4]
 206 0042 0122     		mov	r2, #1
 207 0044 9C46     		mov	ip, r3
 208 0046 079B     		ldr	r3, [sp, #28]
 209 0048 E047     		blx	ip
 210              	.LVL25:
  96:..\acn-sdk-c\src\mqtt\client\src/MQTTClient.c ****             goto exit;
 211              		.loc 1 96 0
 212 004a 0128     		cmp	r0, #1
 213 004c 0BD1     		bne	.L13
  98:..\acn-sdk-c\src\mqtt\client\src/MQTTClient.c ****         multiplier *= 128;
 214              		.loc 1 98 0
 215 004e 3022     		mov	r2, #48
 216 0050 04AB     		add	r3, sp, #16
ARM GAS  C:\Users\ddemidov\AppData\Local\Temp\cc7xZMtg.s 			page 9


 217 0052 9B18     		add	r3, r3, r2
 218 0054 1A78     		ldrb	r2, [r3]
 219 0056 7F23     		mov	r3, #127
 220 0058 1340     		and	r3, r2
 221 005a 6B43     		mul	r3, r5
 222              	.LBE34:
 100:..\acn-sdk-c\src\mqtt\client\src/MQTTClient.c **** exit:
 223              		.loc 1 100 0
 224 005c 52B2     		sxtb	r2, r2
 225              	.LBB35:
  98:..\acn-sdk-c\src\mqtt\client\src/MQTTClient.c ****         multiplier *= 128;
 226              		.loc 1 98 0
 227 005e FF18     		add	r7, r7, r3
 228              	.LVL26:
  99:..\acn-sdk-c\src\mqtt\client\src/MQTTClient.c ****     } while ((i & 128) != 0);
 229              		.loc 1 99 0
 230 0060 ED01     		lsl	r5, r5, #7
 231              	.LVL27:
 232              	.LBE35:
 100:..\acn-sdk-c\src\mqtt\client\src/MQTTClient.c **** exit:
 233              		.loc 1 100 0
 234 0062 002A     		cmp	r2, #0
 235 0064 E7DB     		blt	.L14
 236              	.LVL28:
 237              	.L13:
 238              	.LBE36:
 239              	.LBE37:
 120:..\acn-sdk-c\src\mqtt\client\src/MQTTClient.c **** 
 240              		.loc 1 120 0
 241 0066 6369     		ldr	r3, [r4, #20]
 242 0068 391C     		mov	r1, r7
 243 006a 581C     		add	r0, r3, #1
 244 006c FFF7FEFF 		bl	MQTTPacket_encode
 245              	.LVL29:
 123:..\acn-sdk-c\src\mqtt\client\src/MQTTClient.c ****         goto exit;
 246              		.loc 1 123 0
 247 0070 002F     		cmp	r7, #0
 248 0072 05DC     		bgt	.L15
 249              	.LVL30:
 250              	.L17:
 251              	.L12:
 126:..\acn-sdk-c\src\mqtt\client\src/MQTTClient.c ****     rc = header.bits.type;
 252              		.loc 1 126 0
 253 0074 6369     		ldr	r3, [r4, #20]
 254 0076 1D78     		ldrb	r5, [r3]
 127:..\acn-sdk-c\src\mqtt\client\src/MQTTClient.c **** exit:
 255              		.loc 1 127 0
 256 0078 2D09     		lsr	r5, r5, #4
 257              	.LVL31:
 258              	.LBE40:
 259              	.LBE44:
 227:..\acn-sdk-c\src\mqtt\client\src/MQTTClient.c ****     // read the socket, see what work is due
 228:..\acn-sdk-c\src\mqtt\client\src/MQTTClient.c ****     int packet_type = readPacket(c, timer);
 229:..\acn-sdk-c\src\mqtt\client\src/MQTTClient.c **** 
 230:..\acn-sdk-c\src\mqtt\client\src/MQTTClient.c ****     int len = 0,
 231:..\acn-sdk-c\src\mqtt\client\src/MQTTClient.c ****         rc = MQTT_SUCCESS;
 232:..\acn-sdk-c\src\mqtt\client\src/MQTTClient.c **** 
ARM GAS  C:\Users\ddemidov\AppData\Local\Temp\cc7xZMtg.s 			page 10


 233:..\acn-sdk-c\src\mqtt\client\src/MQTTClient.c ****     switch (packet_type)
 260              		.loc 1 233 0
 261 007a 052D     		cmp	r5, #5
 262 007c 12D1     		bne	.L79
 263 007e A4E0     		b	.L81
 264              	.LVL32:
 265              	.L15:
 266              	.LBB45:
 267              	.LBB41:
 123:..\acn-sdk-c\src\mqtt\client\src/MQTTClient.c ****         goto exit;
 268              		.loc 1 123 0
 269 0080 266D     		ldr	r6, [r4, #80]
 120:..\acn-sdk-c\src\mqtt\client\src/MQTTClient.c **** 
 270              		.loc 1 120 0
 271 0082 0130     		add	r0, r0, #1
 272              	.LVL33:
 123:..\acn-sdk-c\src\mqtt\client\src/MQTTClient.c ****         goto exit;
 273              		.loc 1 123 0
 274 0084 7368     		ldr	r3, [r6, #4]
 275 0086 0793     		str	r3, [sp, #28]
 276              	.LVL34:
 277 0088 6369     		ldr	r3, [r4, #20]
 278 008a 1D18     		add	r5, r3, r0
 279              	.LVL35:
 280 008c 0698     		ldr	r0, [sp, #24]
 281              	.LVL36:
 282 008e FFF7FEFF 		bl	TimerLeftMS
 283              	.LVL37:
 284 0092 291C     		mov	r1, r5
 285 0094 031C     		mov	r3, r0
 286 0096 3A1C     		mov	r2, r7
 287 0098 301C     		mov	r0, r6
 288 009a 079D     		ldr	r5, [sp, #28]
 289 009c A847     		blx	r5
 290              	.LVL38:
 291 009e B842     		cmp	r0, r7
 292 00a0 E8D0     		beq	.L17
 293 00a2 BFE7     		b	.L16
 294              	.LVL39:
 295              	.L79:
 296              	.LBE41:
 297              	.LBE45:
 298              		.loc 1 233 0
 299 00a4 0D2D     		cmp	r5, #13
 300 00a6 00D1     		bne	.LCB334
 301 00a8 AAE0     		b	.L20	@long jump
 302              	.LCB334:
 303 00aa 032D     		cmp	r5, #3
 304 00ac 00D0     		beq	.LCB336
 305 00ae AAE0     		b	.L78	@long jump
 306              	.LCB336:
 307              	.LBB46:
 234:..\acn-sdk-c\src\mqtt\client\src/MQTTClient.c ****     {
 235:..\acn-sdk-c\src\mqtt\client\src/MQTTClient.c ****         case CONNACK:
 236:..\acn-sdk-c\src\mqtt\client\src/MQTTClient.c ****         case PUBACK:
 237:..\acn-sdk-c\src\mqtt\client\src/MQTTClient.c ****         case SUBACK:
 238:..\acn-sdk-c\src\mqtt\client\src/MQTTClient.c ****             break;
ARM GAS  C:\Users\ddemidov\AppData\Local\Temp\cc7xZMtg.s 			page 11


 239:..\acn-sdk-c\src\mqtt\client\src/MQTTClient.c ****         case PUBLISH:
 240:..\acn-sdk-c\src\mqtt\client\src/MQTTClient.c ****         {
 241:..\acn-sdk-c\src\mqtt\client\src/MQTTClient.c ****             MQTTString topicName;
 242:..\acn-sdk-c\src\mqtt\client\src/MQTTClient.c ****             MQTTMessage msg;
 243:..\acn-sdk-c\src\mqtt\client\src/MQTTClient.c ****             int intQoS;
 244:..\acn-sdk-c\src\mqtt\client\src/MQTTClient.c ****             if (MQTTDeserialize_publish(&msg.dup, &intQoS, &msg.retained, &msg.id, &topicName,
 308              		.loc 1 244 0
 309 00b0 0DAA     		add	r2, sp, #52
 310 00b2 0092     		str	r2, [sp]
 311 00b4 12AA     		add	r2, sp, #72
 312 00b6 0192     		str	r2, [sp, #4]
 313 00b8 13AA     		add	r2, sp, #76
 314 00ba 0292     		str	r2, [sp, #8]
 315 00bc 3220     		mov	r0, #50
 316 00be 3122     		mov	r2, #49
 317 00c0 0393     		str	r3, [sp, #12]
 318 00c2 E368     		ldr	r3, [r4, #12]
 319 00c4 0AA9     		add	r1, sp, #40
 320 00c6 0493     		str	r3, [sp, #16]
 321 00c8 04AB     		add	r3, sp, #16
 322 00ca C018     		add	r0, r0, r3
 323 00cc D218     		add	r2, r2, r3
 324 00ce 11AB     		add	r3, sp, #68
 325 00d0 FFF7FEFF 		bl	MQTTDeserialize_publish
 326              	.LVL40:
 327 00d4 0128     		cmp	r0, #1
 328 00d6 00D0     		beq	.LCB358
 329 00d8 BFE0     		b	.L61	@long jump
 330              	.LCB358:
 245:..\acn-sdk-c\src\mqtt\client\src/MQTTClient.c ****                (unsigned char**)&msg.payload, (int*)&msg.payloadlen, c->readbuf, (int)c->readbuf_si
 246:..\acn-sdk-c\src\mqtt\client\src/MQTTClient.c ****                 goto exit;
 247:..\acn-sdk-c\src\mqtt\client\src/MQTTClient.c ****             msg.qos = (enum QoS)intQoS;
 331              		.loc 1 247 0
 332 00da 0A9A     		ldr	r2, [sp, #40]
 333 00dc 10AB     		add	r3, sp, #64
 334 00de 1A70     		strb	r2, [r3]
 335              	.LVL41:
 336 00e0 231C     		mov	r3, r4
 337              	.LVL42:
 338 00e2 4C33     		add	r3, r3, #76
 339 00e4 0993     		str	r3, [sp, #36]
 340              	.LBB47:
 341              	.LBB48:
 167:..\acn-sdk-c\src\mqtt\client\src/MQTTClient.c **** 
 342              		.loc 1 167 0
 343 00e6 0123     		mov	r3, #1
 344 00e8 261C     		mov	r6, r4
 345 00ea 5B42     		neg	r3, r3
 346 00ec 2436     		add	r6, r6, #36
 347 00ee 0893     		str	r3, [sp, #32]
 348              	.LVL43:
 349              	.L34:
 172:..\acn-sdk-c\src\mqtt\client\src/MQTTClient.c ****                 isTopicMatched((char*)c->messageHandlers[i].topicFilter, topicName)))
 350              		.loc 1 172 0
 351 00f0 3168     		ldr	r1, [r6]
 352 00f2 0029     		cmp	r1, #0
 353 00f4 38D0     		beq	.L23
ARM GAS  C:\Users\ddemidov\AppData\Local\Temp\cc7xZMtg.s 			page 12


 354 00f6 0DAF     		add	r7, sp, #52
 355              	.LVL44:
 356 00f8 381C     		mov	r0, r7
 357 00fa FFF7FEFF 		bl	MQTTPacket_equals
 358              	.LVL45:
 359 00fe 0028     		cmp	r0, #0
 360 0100 28D1     		bne	.L24
 173:..\acn-sdk-c\src\mqtt\client\src/MQTTClient.c ****         {
 361              		.loc 1 173 0
 362 0102 3368     		ldr	r3, [r6]
 363              	.LBB49:
 364              	.LBB50:
 140:..\acn-sdk-c\src\mqtt\client\src/MQTTClient.c **** 
 365              		.loc 1 140 0
 366 0104 7A68     		ldr	r2, [r7, #4]
 367              	.LBE50:
 368              	.LBE49:
 173:..\acn-sdk-c\src\mqtt\client\src/MQTTClient.c ****         {
 369              		.loc 1 173 0
 370 0106 0793     		str	r3, [sp, #28]
 371              	.LVL46:
 372              	.LBB53:
 373              	.LBB52:
 139:..\acn-sdk-c\src\mqtt\client\src/MQTTClient.c ****     char* curn_end = curn + topicName->lenstring.len;
 374              		.loc 1 139 0
 375 0108 BB68     		ldr	r3, [r7, #8]
 376              	.LVL47:
 140:..\acn-sdk-c\src\mqtt\client\src/MQTTClient.c **** 
 377              		.loc 1 140 0
 378 010a 9A18     		add	r2, r3, r2
 379              	.LVL48:
 380              	.L25:
 142:..\acn-sdk-c\src\mqtt\client\src/MQTTClient.c ****     {
 381              		.loc 1 142 0
 382 010c 0799     		ldr	r1, [sp, #28]
 383 010e 0978     		ldrb	r1, [r1]
 384 0110 0029     		cmp	r1, #0
 385 0112 1DD0     		beq	.L32
 386 0114 9342     		cmp	r3, r2
 387 0116 27D2     		bcs	.L23
 144:..\acn-sdk-c\src\mqtt\client\src/MQTTClient.c ****             break;
 388              		.loc 1 144 0
 389 0118 1878     		ldrb	r0, [r3]
 390 011a 2F28     		cmp	r0, #47
 391 011c 02D1     		bne	.L26
 392 011e 2F29     		cmp	r1, #47
 393 0120 11D0     		beq	.L27
 394 0122 21E0     		b	.L23
 395              	.L26:
 146:..\acn-sdk-c\src\mqtt\client\src/MQTTClient.c ****             break;
 396              		.loc 1 146 0
 397 0124 2B29     		cmp	r1, #43
 398 0126 04D0     		beq	.L28
 399 0128 2329     		cmp	r1, #35
 400 012a 0BD0     		beq	.L29
 401 012c 8142     		cmp	r1, r0
 402 012e 0AD0     		beq	.L27
ARM GAS  C:\Users\ddemidov\AppData\Local\Temp\cc7xZMtg.s 			page 13


 403 0130 1AE0     		b	.L23
 404              	.L28:
 405              	.LVL49:
 406 0132 511E     		sub	r1, r2, #1
 407 0134 8C46     		mov	ip, r1
 408              	.LVL50:
 409              	.L30:
 410              	.LBB51:
 151:..\acn-sdk-c\src\mqtt\client\src/MQTTClient.c ****                 nextpos = ++curn + 1;
 411              		.loc 1 151 0
 412 0136 6345     		cmp	r3, ip
 413 0138 05D0     		beq	.L27
 414 013a 5978     		ldrb	r1, [r3, #1]
 415 013c 2F29     		cmp	r1, #47
 416 013e 02D0     		beq	.L27
 152:..\acn-sdk-c\src\mqtt\client\src/MQTTClient.c ****         }
 417              		.loc 1 152 0
 418 0140 0133     		add	r3, r3, #1
 419              	.LVL51:
 420 0142 F8E7     		b	.L30
 421              	.LVL52:
 422              	.L29:
 423              	.LBE51:
 155:..\acn-sdk-c\src\mqtt\client\src/MQTTClient.c ****         curf++;
 424              		.loc 1 155 0
 425 0144 531E     		sub	r3, r2, #1
 426              	.LVL53:
 427              	.L27:
 156:..\acn-sdk-c\src\mqtt\client\src/MQTTClient.c ****         curn++;
 428              		.loc 1 156 0
 429 0146 0799     		ldr	r1, [sp, #28]
 157:..\acn-sdk-c\src\mqtt\client\src/MQTTClient.c ****     };
 430              		.loc 1 157 0
 431 0148 0133     		add	r3, r3, #1
 432              	.LVL54:
 156:..\acn-sdk-c\src\mqtt\client\src/MQTTClient.c ****         curn++;
 433              		.loc 1 156 0
 434 014a 0131     		add	r1, r1, #1
 435 014c 0791     		str	r1, [sp, #28]
 436              	.LVL55:
 437 014e DDE7     		b	.L25
 438              	.LVL56:
 439              	.L32:
 160:..\acn-sdk-c\src\mqtt\client\src/MQTTClient.c **** }
 440              		.loc 1 160 0
 441 0150 9342     		cmp	r3, r2
 442 0152 09D1     		bne	.L23
 443              	.LVL57:
 444              	.L24:
 445              	.LBE52:
 446              	.LBE53:
 175:..\acn-sdk-c\src\mqtt\client\src/MQTTClient.c ****             {
 447              		.loc 1 175 0
 448 0154 7368     		ldr	r3, [r6, #4]
 449 0156 002B     		cmp	r3, #0
 450 0158 06D0     		beq	.L23
 451              	.LVL58:
ARM GAS  C:\Users\ddemidov\AppData\Local\Temp\cc7xZMtg.s 			page 14


 452              	.LBB54:
 453              	.LBB55:
 454              	.LBB56:
  23:..\acn-sdk-c\src\mqtt\client\src/MQTTClient.c **** }
 455              		.loc 1 23 0
 456 015a 10AA     		add	r2, sp, #64
 457              	.LVL59:
  22:..\acn-sdk-c\src\mqtt\client\src/MQTTClient.c ****     md->message = aMessage;
 458              		.loc 1 22 0
 459 015c 0C97     		str	r7, [sp, #48]
  23:..\acn-sdk-c\src\mqtt\client\src/MQTTClient.c **** }
 460              		.loc 1 23 0
 461 015e 0B92     		str	r2, [sp, #44]
 462              	.LBE56:
 463              	.LBE55:
 179:..\acn-sdk-c\src\mqtt\client\src/MQTTClient.c ****                 rc = MQTT_SUCCESS;
 464              		.loc 1 179 0
 465 0160 0BA8     		add	r0, sp, #44
 466              	.LVL60:
 467 0162 9847     		blx	r3
 468              	.LVL61:
 180:..\acn-sdk-c\src\mqtt\client\src/MQTTClient.c ****             }
 469              		.loc 1 180 0
 470 0164 0023     		mov	r3, #0
 471 0166 0893     		str	r3, [sp, #32]
 472              	.LVL62:
 473              	.L23:
 474              	.LBE54:
 170:..\acn-sdk-c\src\mqtt\client\src/MQTTClient.c ****     {
 475              		.loc 1 170 0
 476 0168 099B     		ldr	r3, [sp, #36]
 477 016a 0836     		add	r6, r6, #8
 478 016c 9E42     		cmp	r6, r3
 479 016e BFD1     		bne	.L34
 185:..\acn-sdk-c\src\mqtt\client\src/MQTTClient.c ****     {
 480              		.loc 1 185 0
 481 0170 089B     		ldr	r3, [sp, #32]
 482 0172 10AE     		add	r6, sp, #64
 483              	.LVL63:
 484 0174 0133     		add	r3, r3, #1
 485 0176 07D1     		bne	.L35
 486 0178 E36C     		ldr	r3, [r4, #76]
 487 017a 002B     		cmp	r3, #0
 488 017c 04D0     		beq	.L35
 489              	.LVL64:
 490              	.LBB57:
 491              	.LBB58:
 492              	.LBB59:
  22:..\acn-sdk-c\src\mqtt\client\src/MQTTClient.c ****     md->message = aMessage;
 493              		.loc 1 22 0
 494 017e 0DAA     		add	r2, sp, #52
 495              	.LVL65:
 496 0180 0C92     		str	r2, [sp, #48]
  23:..\acn-sdk-c\src\mqtt\client\src/MQTTClient.c **** }
 497              		.loc 1 23 0
 498 0182 0B96     		str	r6, [sp, #44]
 499              	.LBE59:
ARM GAS  C:\Users\ddemidov\AppData\Local\Temp\cc7xZMtg.s 			page 15


 500              	.LBE58:
 189:..\acn-sdk-c\src\mqtt\client\src/MQTTClient.c ****         rc = MQTT_SUCCESS;
 501              		.loc 1 189 0
 502 0184 0BA8     		add	r0, sp, #44
 503              	.LVL66:
 504 0186 9847     		blx	r3
 505              	.LVL67:
 506              	.L35:
 507              	.LBE57:
 508              	.LBE48:
 509              	.LBE47:
 248:..\acn-sdk-c\src\mqtt\client\src/MQTTClient.c ****             deliverMessage(c, &topicName, &msg);
 249:..\acn-sdk-c\src\mqtt\client\src/MQTTClient.c ****             if (msg.qos != QOS0)
 510              		.loc 1 249 0
 511 0188 3378     		ldrb	r3, [r6]
 512 018a 002B     		cmp	r3, #0
 513 018c 1BD0     		beq	.L52
 250:..\acn-sdk-c\src\mqtt\client\src/MQTTClient.c ****             {
 251:..\acn-sdk-c\src\mqtt\client\src/MQTTClient.c ****                 if (msg.qos == QOS1)
 514              		.loc 1 251 0
 515 018e 012B     		cmp	r3, #1
 516 0190 05D1     		bne	.L37
 252:..\acn-sdk-c\src\mqtt\client\src/MQTTClient.c ****                     len = MQTTSerialize_ack(c->buf, (int)c->buf_size, PUBACK, 0, msg.id);
 517              		.loc 1 252 0
 518 0192 B388     		ldrh	r3, [r6, #4]
 519 0194 2069     		ldr	r0, [r4, #16]
 520 0196 0093     		str	r3, [sp]
 521 0198 A168     		ldr	r1, [r4, #8]
 522 019a 0422     		mov	r2, #4
 523 019c 06E0     		b	.L80
 524              	.L37:
 253:..\acn-sdk-c\src\mqtt\client\src/MQTTClient.c ****                 else if (msg.qos == QOS2)
 525              		.loc 1 253 0
 526 019e 022B     		cmp	r3, #2
 527 01a0 58D1     		bne	.L42
 254:..\acn-sdk-c\src\mqtt\client\src/MQTTClient.c ****                     len = MQTTSerialize_ack(c->buf, (int)c->buf_size, PUBREC, 0, msg.id);
 528              		.loc 1 254 0
 529 01a2 0522     		mov	r2, #5
 530 01a4 B388     		ldrh	r3, [r6, #4]
 531 01a6 2069     		ldr	r0, [r4, #16]
 532 01a8 A168     		ldr	r1, [r4, #8]
 533 01aa 0093     		str	r3, [sp]
 534              	.L80:
 535 01ac 0023     		mov	r3, #0
 536 01ae FFF7FEFF 		bl	MQTTSerialize_ack
 537              	.LVL68:
 538 01b2 011E     		sub	r1, r0, #0
 539              	.LVL69:
 255:..\acn-sdk-c\src\mqtt\client\src/MQTTClient.c ****                 if (len <= 0)
 540              		.loc 1 255 0
 541 01b4 4EDD     		ble	.L42
 256:..\acn-sdk-c\src\mqtt\client\src/MQTTClient.c ****                     rc = FAILURE;
 257:..\acn-sdk-c\src\mqtt\client\src/MQTTClient.c ****                 else
 258:..\acn-sdk-c\src\mqtt\client\src/MQTTClient.c ****                     rc = sendPacket(c, len, timer);
 542              		.loc 1 258 0
 543 01b6 201C     		mov	r0, r4
 544              	.LVL70:
ARM GAS  C:\Users\ddemidov\AppData\Local\Temp\cc7xZMtg.s 			page 16


 545 01b8 069A     		ldr	r2, [sp, #24]
 546 01ba FFF7FEFF 		bl	sendPacket
 547              	.LVL71:
 548 01be 061C     		mov	r6, r0
 549              	.LVL72:
 259:..\acn-sdk-c\src\mqtt\client\src/MQTTClient.c ****                 if (rc == FAILURE)
 550              		.loc 1 259 0
 551 01c0 431C     		add	r3, r0, #1
 552 01c2 21D1     		bne	.L18
 553 01c4 46E0     		b	.L42
 554              	.LVL73:
 555              	.L52:
 556              	.LBE46:
 231:..\acn-sdk-c\src\mqtt\client\src/MQTTClient.c **** 
 557              		.loc 1 231 0
 558 01c6 1E1C     		mov	r6, r3
 559              	.LVL74:
 560 01c8 1EE0     		b	.L18
 561              	.LVL75:
 562              	.L81:
 563              	.LBB60:
 260:..\acn-sdk-c\src\mqtt\client\src/MQTTClient.c ****                     goto exit; // there was a problem
 261:..\acn-sdk-c\src\mqtt\client\src/MQTTClient.c ****             }
 262:..\acn-sdk-c\src\mqtt\client\src/MQTTClient.c ****             break;
 263:..\acn-sdk-c\src\mqtt\client\src/MQTTClient.c ****         }
 264:..\acn-sdk-c\src\mqtt\client\src/MQTTClient.c ****         case PUBREC:
 265:..\acn-sdk-c\src\mqtt\client\src/MQTTClient.c ****         {
 266:..\acn-sdk-c\src\mqtt\client\src/MQTTClient.c ****             unsigned short mypacketid;
 267:..\acn-sdk-c\src\mqtt\client\src/MQTTClient.c ****             unsigned char dup, type;
 268:..\acn-sdk-c\src\mqtt\client\src/MQTTClient.c ****             if (MQTTDeserialize_ack(&type, &dup, &mypacketid, c->readbuf, (int)c->readbuf_size) != 
 564              		.loc 1 268 0
 565 01ca E268     		ldr	r2, [r4, #12]
 566 01cc 10AE     		add	r6, sp, #64
 567 01ce 0092     		str	r2, [sp]
 568 01d0 0DA8     		add	r0, sp, #52
 569 01d2 0BA9     		add	r1, sp, #44
 570 01d4 321C     		mov	r2, r6
 571 01d6 FFF7FEFF 		bl	MQTTDeserialize_ack
 572              	.LVL76:
 573 01da 0128     		cmp	r0, #1
 574 01dc 3AD1     		bne	.L42
 269:..\acn-sdk-c\src\mqtt\client\src/MQTTClient.c ****                 rc = FAILURE;
 270:..\acn-sdk-c\src\mqtt\client\src/MQTTClient.c ****             else if ((len = MQTTSerialize_ack(c->buf, (int)c->buf_size, PUBREL, 0, mypacketid)) <= 
 575              		.loc 1 270 0
 576 01de 3388     		ldrh	r3, [r6]
 577 01e0 A168     		ldr	r1, [r4, #8]
 578 01e2 0093     		str	r3, [sp]
 579 01e4 2069     		ldr	r0, [r4, #16]
 580 01e6 0622     		mov	r2, #6
 581 01e8 0023     		mov	r3, #0
 582 01ea FFF7FEFF 		bl	MQTTSerialize_ack
 583              	.LVL77:
 584 01ee 011E     		sub	r1, r0, #0
 585              	.LVL78:
 586 01f0 30DD     		ble	.L42
 271:..\acn-sdk-c\src\mqtt\client\src/MQTTClient.c ****                 rc = FAILURE;
 272:..\acn-sdk-c\src\mqtt\client\src/MQTTClient.c ****             else if ((rc = sendPacket(c, len, timer)) != MQTT_SUCCESS) // send the PUBREL packet
ARM GAS  C:\Users\ddemidov\AppData\Local\Temp\cc7xZMtg.s 			page 17


 587              		.loc 1 272 0
 588 01f2 201C     		mov	r0, r4
 589              	.LVL79:
 590 01f4 069A     		ldr	r2, [sp, #24]
 591 01f6 FFF7FEFF 		bl	sendPacket
 592              	.LVL80:
 593 01fa 061E     		sub	r6, r0, #0
 594              	.LVL81:
 595 01fc 2AD1     		bne	.L42
 596 01fe 03E0     		b	.L18
 597              	.LVL82:
 598              	.L20:
 599              	.LBE60:
 273:..\acn-sdk-c\src\mqtt\client\src/MQTTClient.c ****                 rc = FAILURE; // there was a problem
 274:..\acn-sdk-c\src\mqtt\client\src/MQTTClient.c ****             if (rc == FAILURE)
 275:..\acn-sdk-c\src\mqtt\client\src/MQTTClient.c ****                 goto exit; // there was a problem
 276:..\acn-sdk-c\src\mqtt\client\src/MQTTClient.c ****             break;
 277:..\acn-sdk-c\src\mqtt\client\src/MQTTClient.c ****         }
 278:..\acn-sdk-c\src\mqtt\client\src/MQTTClient.c ****         case PUBCOMP:
 279:..\acn-sdk-c\src\mqtt\client\src/MQTTClient.c ****             break;
 280:..\acn-sdk-c\src\mqtt\client\src/MQTTClient.c ****         case PINGRESP:
 281:..\acn-sdk-c\src\mqtt\client\src/MQTTClient.c ****             c->ping_outstanding = 0;
 600              		.loc 1 281 0
 601 0200 0026     		mov	r6, #0
 602 0202 2677     		strb	r6, [r4, #28]
 282:..\acn-sdk-c\src\mqtt\client\src/MQTTClient.c ****             break;
 603              		.loc 1 282 0
 604 0204 00E0     		b	.L18
 605              	.LVL83:
 606              	.L78:
 231:..\acn-sdk-c\src\mqtt\client\src/MQTTClient.c **** 
 607              		.loc 1 231 0
 608 0206 0026     		mov	r6, #0
 609              	.L18:
 610              	.LVL84:
 611              	.LBB61:
 612              	.LBB62:
 201:..\acn-sdk-c\src\mqtt\client\src/MQTTClient.c ****     {
 613              		.loc 1 201 0
 614 0208 A369     		ldr	r3, [r4, #24]
 615 020a 002B     		cmp	r3, #0
 616 020c 1ED0     		beq	.L41
 207:..\acn-sdk-c\src\mqtt\client\src/MQTTClient.c ****     {
 617              		.loc 1 207 0
 618 020e 201C     		mov	r0, r4
 619 0210 5430     		add	r0, r0, #84
 620 0212 FFF7FEFF 		bl	TimerIsExpired
 621              	.LVL85:
 622 0216 0028     		cmp	r0, #0
 623 0218 18D0     		beq	.L41
 209:..\acn-sdk-c\src\mqtt\client\src/MQTTClient.c ****         {
 624              		.loc 1 209 0
 625 021a 237F     		ldrb	r3, [r4, #28]
 626 021c 002B     		cmp	r3, #0
 627 021e 15D1     		bne	.L41
 628              	.LBB63:
 212:..\acn-sdk-c\src\mqtt\client\src/MQTTClient.c ****             TimerCountdownMS(&timer, 1000);
ARM GAS  C:\Users\ddemidov\AppData\Local\Temp\cc7xZMtg.s 			page 18


 629              		.loc 1 212 0
 630 0220 10A8     		add	r0, sp, #64
 631 0222 FFF7FEFF 		bl	TimerInit
 632              	.LVL86:
 213:..\acn-sdk-c\src\mqtt\client\src/MQTTClient.c ****             int len = MQTTSerialize_pingreq(c->buf, (int)c->buf_size);
 633              		.loc 1 213 0
 634 0226 FA21     		mov	r1, #250
 635 0228 10A8     		add	r0, sp, #64
 636 022a 8900     		lsl	r1, r1, #2
 637 022c FFF7FEFF 		bl	TimerCountdownMS
 638              	.LVL87:
 214:..\acn-sdk-c\src\mqtt\client\src/MQTTClient.c ****             if (len > 0 && (rc = sendPacket(c, len, &timer)) == MQTT_SUCCESS) // send the ping pack
 639              		.loc 1 214 0
 640 0230 A168     		ldr	r1, [r4, #8]
 641 0232 2069     		ldr	r0, [r4, #16]
 642 0234 FFF7FEFF 		bl	MQTTSerialize_pingreq
 643              	.LVL88:
 644 0238 011E     		sub	r1, r0, #0
 645              	.LVL89:
 215:..\acn-sdk-c\src\mqtt\client\src/MQTTClient.c ****                 c->ping_outstanding = 1;
 646              		.loc 1 215 0
 647 023a 07DD     		ble	.L41
 648 023c 201C     		mov	r0, r4
 649              	.LVL90:
 650 023e 10AA     		add	r2, sp, #64
 651 0240 FFF7FEFF 		bl	sendPacket
 652              	.LVL91:
 653 0244 0028     		cmp	r0, #0
 654 0246 01D1     		bne	.L41
 216:..\acn-sdk-c\src\mqtt\client\src/MQTTClient.c ****         }
 655              		.loc 1 216 0
 656 0248 0123     		mov	r3, #1
 657 024a 2377     		strb	r3, [r4, #28]
 658              	.LVL92:
 659              	.L41:
 660              	.LBE63:
 661              	.LBE62:
 662              	.LBE61:
 283:..\acn-sdk-c\src\mqtt\client\src/MQTTClient.c ****     }
 284:..\acn-sdk-c\src\mqtt\client\src/MQTTClient.c ****     keepalive(c);
 285:..\acn-sdk-c\src\mqtt\client\src/MQTTClient.c **** exit:
 286:..\acn-sdk-c\src\mqtt\client\src/MQTTClient.c ****     if (rc == MQTT_SUCCESS)
 663              		.loc 1 286 0
 664 024c 002E     		cmp	r6, #0
 665 024e 04D0     		beq	.L61
 666              	.LVL93:
 667              	.L48:
 668              	.LBB64:
 669 0250 351C     		mov	r5, r6
 670 0252 02E0     		b	.L61
 671              	.LVL94:
 672              	.L42:
 673 0254 0126     		mov	r6, #1
 674 0256 7642     		neg	r6, r6
 675 0258 FAE7     		b	.L48
 676              	.LVL95:
 677              	.L61:
ARM GAS  C:\Users\ddemidov\AppData\Local\Temp\cc7xZMtg.s 			page 19


 678              	.LBE64:
 287:..\acn-sdk-c\src\mqtt\client\src/MQTTClient.c ****         rc = packet_type;
 288:..\acn-sdk-c\src\mqtt\client\src/MQTTClient.c ****     return rc;
 289:..\acn-sdk-c\src\mqtt\client\src/MQTTClient.c **** }
 679              		.loc 1 289 0
 680 025a 281C     		mov	r0, r5
 681 025c 15B0     		add	sp, sp, #84
 682              		@ sp needed
 683              	.LVL96:
 684 025e F0BD     		pop	{r4, r5, r6, r7, pc}
 685              		.cfi_endproc
 686              	.LFE9:
 687              		.size	cycle, .-cycle
 688              		.section	.text.waitfor,"ax",%progbits
 689              		.align	1
 690              		.code	16
 691              		.thumb_func
 692              		.type	waitfor, %function
 693              	waitfor:
 694              	.LFB12:
 290:..\acn-sdk-c\src\mqtt\client\src/MQTTClient.c **** 
 291:..\acn-sdk-c\src\mqtt\client\src/MQTTClient.c **** 
 292:..\acn-sdk-c\src\mqtt\client\src/MQTTClient.c **** int MQTTYield(MQTTClient* c, int timeout_ms)
 293:..\acn-sdk-c\src\mqtt\client\src/MQTTClient.c **** {
 294:..\acn-sdk-c\src\mqtt\client\src/MQTTClient.c ****     int rc = MQTT_SUCCESS;
 295:..\acn-sdk-c\src\mqtt\client\src/MQTTClient.c ****     TimerInterval timer;
 296:..\acn-sdk-c\src\mqtt\client\src/MQTTClient.c **** 
 297:..\acn-sdk-c\src\mqtt\client\src/MQTTClient.c ****     TimerInit(&timer);
 298:..\acn-sdk-c\src\mqtt\client\src/MQTTClient.c ****     TimerCountdownMS(&timer, (unsigned int)timeout_ms);
 299:..\acn-sdk-c\src\mqtt\client\src/MQTTClient.c **** 
 300:..\acn-sdk-c\src\mqtt\client\src/MQTTClient.c ****   do
 301:..\acn-sdk-c\src\mqtt\client\src/MQTTClient.c ****     {
 302:..\acn-sdk-c\src\mqtt\client\src/MQTTClient.c ****         if (cycle(c, &timer) == FAILURE)
 303:..\acn-sdk-c\src\mqtt\client\src/MQTTClient.c ****         {
 304:..\acn-sdk-c\src\mqtt\client\src/MQTTClient.c ****             rc = FAILURE;
 305:..\acn-sdk-c\src\mqtt\client\src/MQTTClient.c ****             break;
 306:..\acn-sdk-c\src\mqtt\client\src/MQTTClient.c ****         }
 307:..\acn-sdk-c\src\mqtt\client\src/MQTTClient.c ****   } while (!TimerIsExpired(&timer));
 308:..\acn-sdk-c\src\mqtt\client\src/MQTTClient.c **** 
 309:..\acn-sdk-c\src\mqtt\client\src/MQTTClient.c ****     return rc;
 310:..\acn-sdk-c\src\mqtt\client\src/MQTTClient.c **** }
 311:..\acn-sdk-c\src\mqtt\client\src/MQTTClient.c **** 
 312:..\acn-sdk-c\src\mqtt\client\src/MQTTClient.c **** 
 313:..\acn-sdk-c\src\mqtt\client\src/MQTTClient.c **** #if defined(__GNUC__)
 314:..\acn-sdk-c\src\mqtt\client\src/MQTTClient.c **** static void MQTTRun(void* parm) __attribute__((unused));
 315:..\acn-sdk-c\src\mqtt\client\src/MQTTClient.c **** #endif
 316:..\acn-sdk-c\src\mqtt\client\src/MQTTClient.c **** 
 317:..\acn-sdk-c\src\mqtt\client\src/MQTTClient.c **** static void MQTTRun(void* parm) {
 318:..\acn-sdk-c\src\mqtt\client\src/MQTTClient.c ****   TimerInterval timer;
 319:..\acn-sdk-c\src\mqtt\client\src/MQTTClient.c ****   MQTTClient* c = (MQTTClient*)parm;
 320:..\acn-sdk-c\src\mqtt\client\src/MQTTClient.c **** 
 321:..\acn-sdk-c\src\mqtt\client\src/MQTTClient.c ****   TimerInit(&timer);
 322:..\acn-sdk-c\src\mqtt\client\src/MQTTClient.c **** 
 323:..\acn-sdk-c\src\mqtt\client\src/MQTTClient.c ****   while (1)
 324:..\acn-sdk-c\src\mqtt\client\src/MQTTClient.c ****   {
 325:..\acn-sdk-c\src\mqtt\client\src/MQTTClient.c **** #if defined(MQTT_TASK)
 326:..\acn-sdk-c\src\mqtt\client\src/MQTTClient.c ****     MutexLock(&c->mutex);
ARM GAS  C:\Users\ddemidov\AppData\Local\Temp\cc7xZMtg.s 			page 20


 327:..\acn-sdk-c\src\mqtt\client\src/MQTTClient.c **** #endif
 328:..\acn-sdk-c\src\mqtt\client\src/MQTTClient.c ****     TimerCountdownMS(&timer, 500); /* Don't wait too long if no traffic is incoming */
 329:..\acn-sdk-c\src\mqtt\client\src/MQTTClient.c ****     cycle(c, &timer);
 330:..\acn-sdk-c\src\mqtt\client\src/MQTTClient.c **** #if defined(MQTT_TASK)
 331:..\acn-sdk-c\src\mqtt\client\src/MQTTClient.c ****     MutexUnlock(&c->mutex);
 332:..\acn-sdk-c\src\mqtt\client\src/MQTTClient.c **** #endif
 333:..\acn-sdk-c\src\mqtt\client\src/MQTTClient.c ****   }
 334:..\acn-sdk-c\src\mqtt\client\src/MQTTClient.c **** }
 335:..\acn-sdk-c\src\mqtt\client\src/MQTTClient.c **** 
 336:..\acn-sdk-c\src\mqtt\client\src/MQTTClient.c **** 
 337:..\acn-sdk-c\src\mqtt\client\src/MQTTClient.c **** #if defined(MQTT_TASK)
 338:..\acn-sdk-c\src\mqtt\client\src/MQTTClient.c **** int MQTTStartTask(MQTTClient* client)
 339:..\acn-sdk-c\src\mqtt\client\src/MQTTClient.c **** {
 340:..\acn-sdk-c\src\mqtt\client\src/MQTTClient.c ****   return ThreadStart(&client->thread, &MQTTRun, client);
 341:..\acn-sdk-c\src\mqtt\client\src/MQTTClient.c **** }
 342:..\acn-sdk-c\src\mqtt\client\src/MQTTClient.c **** #endif
 343:..\acn-sdk-c\src\mqtt\client\src/MQTTClient.c **** 
 344:..\acn-sdk-c\src\mqtt\client\src/MQTTClient.c **** static int waitfor(MQTTClient* c, int packet_type, TimerInterval* timer)
 345:..\acn-sdk-c\src\mqtt\client\src/MQTTClient.c **** {
 695              		.loc 1 345 0
 696              		.cfi_startproc
 697              	.LVL97:
 698 0000 F8B5     		push	{r3, r4, r5, r6, r7, lr}
 699              		.cfi_def_cfa_offset 24
 700              		.cfi_offset 3, -24
 701              		.cfi_offset 4, -20
 702              		.cfi_offset 5, -16
 703              		.cfi_offset 6, -12
 704              		.cfi_offset 7, -8
 705              		.cfi_offset 14, -4
 346:..\acn-sdk-c\src\mqtt\client\src/MQTTClient.c ****     int rc = FAILURE;
 706              		.loc 1 346 0
 707 0002 0124     		mov	r4, #1
 345:..\acn-sdk-c\src\mqtt\client\src/MQTTClient.c ****     int rc = FAILURE;
 708              		.loc 1 345 0
 709 0004 071C     		mov	r7, r0
 710 0006 0E1C     		mov	r6, r1
 711 0008 151C     		mov	r5, r2
 712              		.loc 1 346 0
 713 000a 6442     		neg	r4, r4
 714              	.LVL98:
 715              	.L84:
 347:..\acn-sdk-c\src\mqtt\client\src/MQTTClient.c ****     do
 348:..\acn-sdk-c\src\mqtt\client\src/MQTTClient.c ****     {
 349:..\acn-sdk-c\src\mqtt\client\src/MQTTClient.c ****         if (TimerIsExpired(timer))
 716              		.loc 1 349 0
 717 000c 281C     		mov	r0, r5
 718 000e FFF7FEFF 		bl	TimerIsExpired
 719              	.LVL99:
 720 0012 0028     		cmp	r0, #0
 721 0014 06D1     		bne	.L83
 350:..\acn-sdk-c\src\mqtt\client\src/MQTTClient.c ****             break; // we timed out
 351:..\acn-sdk-c\src\mqtt\client\src/MQTTClient.c ****     }
 352:..\acn-sdk-c\src\mqtt\client\src/MQTTClient.c ****     while ((rc = cycle(c, timer)) != packet_type);
 722              		.loc 1 352 0
 723 0016 381C     		mov	r0, r7
 724 0018 291C     		mov	r1, r5
ARM GAS  C:\Users\ddemidov\AppData\Local\Temp\cc7xZMtg.s 			page 21


 725 001a FFF7FEFF 		bl	cycle
 726              	.LVL100:
 727 001e 041E     		sub	r4, r0, #0
 728              	.LVL101:
 729 0020 B442     		cmp	r4, r6
 730 0022 F3D1     		bne	.L84
 731              	.LVL102:
 732              	.L83:
 353:..\acn-sdk-c\src\mqtt\client\src/MQTTClient.c ****     return rc;
 354:..\acn-sdk-c\src\mqtt\client\src/MQTTClient.c **** }
 733              		.loc 1 354 0
 734 0024 201C     		mov	r0, r4
 735              		@ sp needed
 736              	.LVL103:
 737              	.LVL104:
 738              	.LVL105:
 739              	.LVL106:
 740 0026 F8BD     		pop	{r3, r4, r5, r6, r7, pc}
 741              		.cfi_endproc
 742              	.LFE12:
 743              		.size	waitfor, .-waitfor
 744              		.section	.text.MQTTClientInit,"ax",%progbits
 745              		.align	1
 746              		.global	MQTTClientInit
 747              		.code	16
 748              		.thumb_func
 749              		.type	MQTTClientInit, %function
 750              	MQTTClientInit:
 751              	.LFB3:
  56:..\acn-sdk-c\src\mqtt\client\src/MQTTClient.c ****     int i;
 752              		.loc 1 56 0
 753              		.cfi_startproc
 754              	.LVL107:
 755 0000 08B5     		push	{r3, lr}
 756              		.cfi_def_cfa_offset 8
 757              		.cfi_offset 3, -8
 758              		.cfi_offset 14, -4
  63:..\acn-sdk-c\src\mqtt\client\src/MQTTClient.c ****     c->buf_size = sendbuf_size;
 759              		.loc 1 63 0
 760 0002 0361     		str	r3, [r0, #16]
  64:..\acn-sdk-c\src\mqtt\client\src/MQTTClient.c ****     c->readbuf = readbuf;
 761              		.loc 1 64 0
 762 0004 029B     		ldr	r3, [sp, #8]
 763              	.LVL108:
  58:..\acn-sdk-c\src\mqtt\client\src/MQTTClient.c **** 
 764              		.loc 1 58 0
 765 0006 0165     		str	r1, [r0, #80]
 766              	.LVL109:
  64:..\acn-sdk-c\src\mqtt\client\src/MQTTClient.c ****     c->readbuf = readbuf;
 767              		.loc 1 64 0
 768 0008 8360     		str	r3, [r0, #8]
  65:..\acn-sdk-c\src\mqtt\client\src/MQTTClient.c ****     c->readbuf_size = readbuf_size;
 769              		.loc 1 65 0
 770 000a 039B     		ldr	r3, [sp, #12]
  61:..\acn-sdk-c\src\mqtt\client\src/MQTTClient.c ****     c->command_timeout_ms = command_timeout_ms;
 771              		.loc 1 61 0
 772 000c 0021     		mov	r1, #0
ARM GAS  C:\Users\ddemidov\AppData\Local\Temp\cc7xZMtg.s 			page 22


 773              	.LVL110:
  65:..\acn-sdk-c\src\mqtt\client\src/MQTTClient.c ****     c->readbuf_size = readbuf_size;
 774              		.loc 1 65 0
 775 000e 4361     		str	r3, [r0, #20]
  66:..\acn-sdk-c\src\mqtt\client\src/MQTTClient.c ****     c->isconnected = 0;
 776              		.loc 1 66 0
 777 0010 049B     		ldr	r3, [sp, #16]
  61:..\acn-sdk-c\src\mqtt\client\src/MQTTClient.c ****     c->command_timeout_ms = command_timeout_ms;
 778              		.loc 1 61 0
 779 0012 4162     		str	r1, [r0, #36]
 780              	.LVL111:
  66:..\acn-sdk-c\src\mqtt\client\src/MQTTClient.c ****     c->isconnected = 0;
 781              		.loc 1 66 0
 782 0014 C360     		str	r3, [r0, #12]
  70:..\acn-sdk-c\src\mqtt\client\src/MQTTClient.c ****     TimerInit(&c->ping_timer);
 783              		.loc 1 70 0
 784 0016 0123     		mov	r3, #1
  61:..\acn-sdk-c\src\mqtt\client\src/MQTTClient.c ****     c->command_timeout_ms = command_timeout_ms;
 785              		.loc 1 61 0
 786 0018 C162     		str	r1, [r0, #44]
 787              	.LVL112:
 788 001a 4163     		str	r1, [r0, #52]
 789              	.LVL113:
 790 001c C163     		str	r1, [r0, #60]
 791              	.LVL114:
 792 001e 4164     		str	r1, [r0, #68]
 793              	.LVL115:
  62:..\acn-sdk-c\src\mqtt\client\src/MQTTClient.c ****     c->buf = sendbuf;
 794              		.loc 1 62 0
 795 0020 4260     		str	r2, [r0, #4]
  67:..\acn-sdk-c\src\mqtt\client\src/MQTTClient.c ****     c->ping_outstanding = 0;
 796              		.loc 1 67 0
 797 0022 0162     		str	r1, [r0, #32]
  68:..\acn-sdk-c\src\mqtt\client\src/MQTTClient.c ****     c->defaultMessageHandler = NULL;
 798              		.loc 1 68 0
 799 0024 0177     		strb	r1, [r0, #28]
  69:..\acn-sdk-c\src\mqtt\client\src/MQTTClient.c ****   c->next_packetid = 1;
 800              		.loc 1 69 0
 801 0026 C164     		str	r1, [r0, #76]
  70:..\acn-sdk-c\src\mqtt\client\src/MQTTClient.c ****     TimerInit(&c->ping_timer);
 802              		.loc 1 70 0
 803 0028 0380     		strh	r3, [r0]
  71:..\acn-sdk-c\src\mqtt\client\src/MQTTClient.c **** #if defined(MQTT_TASK)
 804              		.loc 1 71 0
 805 002a 5430     		add	r0, r0, #84
 806              	.LVL116:
 807 002c FFF7FEFF 		bl	TimerInit
 808              	.LVL117:
  75:..\acn-sdk-c\src\mqtt\client\src/MQTTClient.c **** 
 809              		.loc 1 75 0
 810              		@ sp needed
 811 0030 08BD     		pop	{r3, pc}
 812              		.cfi_endproc
 813              	.LFE3:
 814              		.size	MQTTClientInit, .-MQTTClientInit
 815              		.section	.text.MQTTYield,"ax",%progbits
 816              		.align	1
ARM GAS  C:\Users\ddemidov\AppData\Local\Temp\cc7xZMtg.s 			page 23


 817              		.global	MQTTYield
 818              		.code	16
 819              		.thumb_func
 820              		.type	MQTTYield, %function
 821              	MQTTYield:
 822              	.LFB10:
 293:..\acn-sdk-c\src\mqtt\client\src/MQTTClient.c ****     int rc = MQTT_SUCCESS;
 823              		.loc 1 293 0
 824              		.cfi_startproc
 825              	.LVL118:
 826 0000 37B5     		push	{r0, r1, r2, r4, r5, lr}
 827              		.cfi_def_cfa_offset 24
 828              		.cfi_offset 0, -24
 829              		.cfi_offset 1, -20
 830              		.cfi_offset 2, -16
 831              		.cfi_offset 4, -12
 832              		.cfi_offset 5, -8
 833              		.cfi_offset 14, -4
 293:..\acn-sdk-c\src\mqtt\client\src/MQTTClient.c ****     int rc = MQTT_SUCCESS;
 834              		.loc 1 293 0
 835 0002 0D1C     		mov	r5, r1
 836 0004 041C     		mov	r4, r0
 297:..\acn-sdk-c\src\mqtt\client\src/MQTTClient.c ****     TimerCountdownMS(&timer, (unsigned int)timeout_ms);
 837              		.loc 1 297 0
 838 0006 6846     		mov	r0, sp
 839              	.LVL119:
 840 0008 FFF7FEFF 		bl	TimerInit
 841              	.LVL120:
 298:..\acn-sdk-c\src\mqtt\client\src/MQTTClient.c **** 
 842              		.loc 1 298 0
 843 000c 6846     		mov	r0, sp
 844 000e 291C     		mov	r1, r5
 845 0010 FFF7FEFF 		bl	TimerCountdownMS
 846              	.LVL121:
 847              	.L88:
 302:..\acn-sdk-c\src\mqtt\client\src/MQTTClient.c ****         {
 848              		.loc 1 302 0
 849 0014 201C     		mov	r0, r4
 850 0016 6946     		mov	r1, sp
 851 0018 FFF7FEFF 		bl	cycle
 852              	.LVL122:
 853 001c 431C     		add	r3, r0, #1
 854 001e 05D0     		beq	.L87
 307:..\acn-sdk-c\src\mqtt\client\src/MQTTClient.c **** 
 855              		.loc 1 307 0
 856 0020 6846     		mov	r0, sp
 857 0022 FFF7FEFF 		bl	TimerIsExpired
 858              	.LVL123:
 859 0026 0028     		cmp	r0, #0
 860 0028 F4D0     		beq	.L88
 294:..\acn-sdk-c\src\mqtt\client\src/MQTTClient.c ****     TimerInterval timer;
 861              		.loc 1 294 0
 862 002a 0020     		mov	r0, #0
 863              	.L87:
 864              	.LVL124:
 310:..\acn-sdk-c\src\mqtt\client\src/MQTTClient.c **** 
 865              		.loc 1 310 0
ARM GAS  C:\Users\ddemidov\AppData\Local\Temp\cc7xZMtg.s 			page 24


 866              		@ sp needed
 867              	.LVL125:
 868              	.LVL126:
 869 002c 3EBD     		pop	{r1, r2, r3, r4, r5, pc}
 870              		.cfi_endproc
 871              	.LFE10:
 872              		.size	MQTTYield, .-MQTTYield
 873              		.section	.text.MQTTConnect,"ax",%progbits
 874              		.align	1
 875              		.global	MQTTConnect
 876              		.code	16
 877              		.thumb_func
 878              		.type	MQTTConnect, %function
 879              	MQTTConnect:
 880              	.LFB13:
 355:..\acn-sdk-c\src\mqtt\client\src/MQTTClient.c **** 
 356:..\acn-sdk-c\src\mqtt\client\src/MQTTClient.c **** 
 357:..\acn-sdk-c\src\mqtt\client\src/MQTTClient.c **** int MQTTConnect(MQTTClient* c, MQTTPacket_connectData* options)
 358:..\acn-sdk-c\src\mqtt\client\src/MQTTClient.c **** {
 881              		.loc 1 358 0
 882              		.cfi_startproc
 883              	.LVL127:
 884 0000 70B5     		push	{r4, r5, r6, lr}
 885              		.cfi_def_cfa_offset 16
 886              		.cfi_offset 4, -16
 887              		.cfi_offset 5, -12
 888              		.cfi_offset 6, -8
 889              		.cfi_offset 14, -4
 890 0002 041C     		mov	r4, r0
 891 0004 9AB0     		sub	sp, sp, #104
 892              		.cfi_def_cfa_offset 120
 893              		.loc 1 358 0
 894 0006 0D1C     		mov	r5, r1
 359:..\acn-sdk-c\src\mqtt\client\src/MQTTClient.c ****     TimerInterval connect_timer;
 360:..\acn-sdk-c\src\mqtt\client\src/MQTTClient.c ****     int rc = FAILURE;
 361:..\acn-sdk-c\src\mqtt\client\src/MQTTClient.c ****     MQTTPacket_connectData default_options = MQTTPacket_connectData_initializer;
 895              		.loc 1 361 0
 896 0008 04A8     		add	r0, sp, #16
 897              	.LVL128:
 898 000a 2149     		ldr	r1, .L100
 899              	.LVL129:
 900 000c 5822     		mov	r2, #88
 901 000e FFF7FEFF 		bl	memcpy
 902              	.LVL130:
 362:..\acn-sdk-c\src\mqtt\client\src/MQTTClient.c ****     int len = 0;
 363:..\acn-sdk-c\src\mqtt\client\src/MQTTClient.c **** 
 364:..\acn-sdk-c\src\mqtt\client\src/MQTTClient.c **** #if defined(MQTT_TASK)
 365:..\acn-sdk-c\src\mqtt\client\src/MQTTClient.c ****   MutexLock(&c->mutex);
 366:..\acn-sdk-c\src\mqtt\client\src/MQTTClient.c **** #endif
 367:..\acn-sdk-c\src\mqtt\client\src/MQTTClient.c ****   if (c->isconnected) /* don't send connect packet again if we are already connected */
 903              		.loc 1 367 0
 904 0012 236A     		ldr	r3, [r4, #32]
 905 0014 002B     		cmp	r3, #0
 906 0016 36D1     		bne	.L92
 368:..\acn-sdk-c\src\mqtt\client\src/MQTTClient.c ****     goto exit;
 369:..\acn-sdk-c\src\mqtt\client\src/MQTTClient.c **** 
 370:..\acn-sdk-c\src\mqtt\client\src/MQTTClient.c ****     TimerInit(&connect_timer);
ARM GAS  C:\Users\ddemidov\AppData\Local\Temp\cc7xZMtg.s 			page 25


 907              		.loc 1 370 0
 908 0018 02A8     		add	r0, sp, #8
 909 001a FFF7FEFF 		bl	TimerInit
 910              	.LVL131:
 371:..\acn-sdk-c\src\mqtt\client\src/MQTTClient.c ****     TimerCountdownMS(&connect_timer, c->command_timeout_ms);
 911              		.loc 1 371 0
 912 001e 02A8     		add	r0, sp, #8
 913 0020 6168     		ldr	r1, [r4, #4]
 914 0022 FFF7FEFF 		bl	TimerCountdownMS
 915              	.LVL132:
 372:..\acn-sdk-c\src\mqtt\client\src/MQTTClient.c **** 
 373:..\acn-sdk-c\src\mqtt\client\src/MQTTClient.c ****     if (options == 0)
 916              		.loc 1 373 0
 917 0026 002D     		cmp	r5, #0
 918 0028 00D1     		bne	.L93
 374:..\acn-sdk-c\src\mqtt\client\src/MQTTClient.c ****         options = &default_options; /* set default options if none were supplied */
 919              		.loc 1 374 0
 920 002a 04AD     		add	r5, sp, #16
 921              	.LVL133:
 922              	.L93:
 375:..\acn-sdk-c\src\mqtt\client\src/MQTTClient.c **** 
 376:..\acn-sdk-c\src\mqtt\client\src/MQTTClient.c ****     c->keepAliveInterval = options->keepAliveInterval;
 377:..\acn-sdk-c\src\mqtt\client\src/MQTTClient.c ****     TimerCountdown(&c->ping_timer, c->keepAliveInterval);
 923              		.loc 1 377 0
 924 002c 201C     		mov	r0, r4
 376:..\acn-sdk-c\src\mqtt\client\src/MQTTClient.c ****     TimerCountdown(&c->ping_timer, c->keepAliveInterval);
 925              		.loc 1 376 0
 926 002e 298B     		ldrh	r1, [r5, #24]
 927              		.loc 1 377 0
 928 0030 5430     		add	r0, r0, #84
 376:..\acn-sdk-c\src\mqtt\client\src/MQTTClient.c ****     TimerCountdown(&c->ping_timer, c->keepAliveInterval);
 929              		.loc 1 376 0
 930 0032 A161     		str	r1, [r4, #24]
 931              		.loc 1 377 0
 932 0034 FFF7FEFF 		bl	TimerCountdown
 933              	.LVL134:
 378:..\acn-sdk-c\src\mqtt\client\src/MQTTClient.c ****     if ((len = MQTTSerialize_connect(c->buf, (int)c->buf_size, options)) <= 0)
 934              		.loc 1 378 0
 935 0038 A168     		ldr	r1, [r4, #8]
 936 003a 2069     		ldr	r0, [r4, #16]
 937 003c 2A1C     		mov	r2, r5
 938 003e FFF7FEFF 		bl	MQTTSerialize_connect
 939              	.LVL135:
 940 0042 011E     		sub	r1, r0, #0
 941              	.LVL136:
 942 0044 1FDD     		ble	.L92
 379:..\acn-sdk-c\src\mqtt\client\src/MQTTClient.c ****         goto exit;
 380:..\acn-sdk-c\src\mqtt\client\src/MQTTClient.c ****     if ((rc = sendPacket(c, len, &connect_timer)) != MQTT_SUCCESS)  // send the connect packet
 943              		.loc 1 380 0
 944 0046 201C     		mov	r0, r4
 945              	.LVL137:
 946 0048 02AA     		add	r2, sp, #8
 947 004a FFF7FEFF 		bl	sendPacket
 948              	.LVL138:
 949 004e 051E     		sub	r5, r0, #0
 950              	.LVL139:
 951 0050 1BD1     		bne	.L98
ARM GAS  C:\Users\ddemidov\AppData\Local\Temp\cc7xZMtg.s 			page 26


 381:..\acn-sdk-c\src\mqtt\client\src/MQTTClient.c ****         goto exit; // there was a problem
 382:..\acn-sdk-c\src\mqtt\client\src/MQTTClient.c **** 
 383:..\acn-sdk-c\src\mqtt\client\src/MQTTClient.c ****     // this will be a blocking call, wait for the connack
 384:..\acn-sdk-c\src\mqtt\client\src/MQTTClient.c ****     if (waitfor(c, CONNACK, &connect_timer) == CONNACK)
 952              		.loc 1 384 0
 953 0052 201C     		mov	r0, r4
 954              	.LVL140:
 955 0054 0221     		mov	r1, #2
 956 0056 02AA     		add	r2, sp, #8
 957 0058 FFF7FEFF 		bl	waitfor
 958              	.LVL141:
 959 005c 0228     		cmp	r0, #2
 960 005e 12D1     		bne	.L92
 961              	.LBB65:
 385:..\acn-sdk-c\src\mqtt\client\src/MQTTClient.c ****     {
 386:..\acn-sdk-c\src\mqtt\client\src/MQTTClient.c ****         unsigned char connack_rc = 255;
 962              		.loc 1 386 0
 963 0060 6B46     		mov	r3, sp
 964 0062 9E1D     		add	r6, r3, #6
 965 0064 FF23     		mov	r3, #255
 966 0066 3370     		strb	r3, [r6]
 387:..\acn-sdk-c\src\mqtt\client\src/MQTTClient.c ****         unsigned char sessionPresent = 0;
 967              		.loc 1 387 0
 968 0068 6B46     		mov	r3, sp
 388:..\acn-sdk-c\src\mqtt\client\src/MQTTClient.c ****         if (MQTTDeserialize_connack(&sessionPresent, &connack_rc, c->readbuf, (int)c->readbuf_size)
 969              		.loc 1 388 0
 970 006a 311C     		mov	r1, r6
 387:..\acn-sdk-c\src\mqtt\client\src/MQTTClient.c ****         unsigned char sessionPresent = 0;
 971              		.loc 1 387 0
 972 006c D81D     		add	r0, r3, #7
 973              		.loc 1 388 0
 974 006e 6269     		ldr	r2, [r4, #20]
 975 0070 E368     		ldr	r3, [r4, #12]
 387:..\acn-sdk-c\src\mqtt\client\src/MQTTClient.c ****         unsigned char sessionPresent = 0;
 976              		.loc 1 387 0
 977 0072 0570     		strb	r5, [r0]
 978              		.loc 1 388 0
 979 0074 FFF7FEFF 		bl	MQTTDeserialize_connack
 980              	.LVL142:
 981 0078 0128     		cmp	r0, #1
 982 007a 04D1     		bne	.L92
 389:..\acn-sdk-c\src\mqtt\client\src/MQTTClient.c ****             rc = connack_rc;
 983              		.loc 1 389 0
 984 007c 3578     		ldrb	r5, [r6]
 985              	.LVL143:
 986              	.LDL1:
 987              	.LBE65:
 390:..\acn-sdk-c\src\mqtt\client\src/MQTTClient.c ****         else
 391:..\acn-sdk-c\src\mqtt\client\src/MQTTClient.c ****             rc = FAILURE;
 392:..\acn-sdk-c\src\mqtt\client\src/MQTTClient.c ****     }
 393:..\acn-sdk-c\src\mqtt\client\src/MQTTClient.c ****     else
 394:..\acn-sdk-c\src\mqtt\client\src/MQTTClient.c ****         rc = FAILURE;
 395:..\acn-sdk-c\src\mqtt\client\src/MQTTClient.c **** 
 396:..\acn-sdk-c\src\mqtt\client\src/MQTTClient.c **** exit:
 397:..\acn-sdk-c\src\mqtt\client\src/MQTTClient.c ****     if (rc == MQTT_SUCCESS)
 988              		.loc 1 397 0
 989 007e 002D     		cmp	r5, #0
ARM GAS  C:\Users\ddemidov\AppData\Local\Temp\cc7xZMtg.s 			page 27


 990 0080 03D1     		bne	.L98
 398:..\acn-sdk-c\src\mqtt\client\src/MQTTClient.c ****         c->isconnected = 1;
 991              		.loc 1 398 0
 992 0082 2062     		str	r0, [r4, #32]
 993 0084 01E0     		b	.L98
 994              	.LVL144:
 995              	.L92:
 360:..\acn-sdk-c\src\mqtt\client\src/MQTTClient.c ****     MQTTPacket_connectData default_options = MQTTPacket_connectData_initializer;
 996              		.loc 1 360 0
 997 0086 0125     		mov	r5, #1
 998 0088 6D42     		neg	r5, r5
 999              	.LVL145:
 1000              	.L98:
 399:..\acn-sdk-c\src\mqtt\client\src/MQTTClient.c **** 
 400:..\acn-sdk-c\src\mqtt\client\src/MQTTClient.c **** #if defined(MQTT_TASK)
 401:..\acn-sdk-c\src\mqtt\client\src/MQTTClient.c ****   MutexUnlock(&c->mutex);
 402:..\acn-sdk-c\src\mqtt\client\src/MQTTClient.c **** #endif
 403:..\acn-sdk-c\src\mqtt\client\src/MQTTClient.c **** 
 404:..\acn-sdk-c\src\mqtt\client\src/MQTTClient.c ****     return rc;
 405:..\acn-sdk-c\src\mqtt\client\src/MQTTClient.c **** }
 1001              		.loc 1 405 0
 1002 008a 281C     		mov	r0, r5
 1003 008c 1AB0     		add	sp, sp, #104
 1004              		@ sp needed
 1005              	.LVL146:
 1006 008e 70BD     		pop	{r4, r5, r6, pc}
 1007              	.L101:
 1008              		.align	2
 1009              	.L100:
 1010 0090 00000000 		.word	.LANCHOR0
 1011              		.cfi_endproc
 1012              	.LFE13:
 1013              		.size	MQTTConnect, .-MQTTConnect
 1014              		.section	.text.MQTTSubscribe,"ax",%progbits
 1015              		.align	1
 1016              		.global	MQTTSubscribe
 1017              		.code	16
 1018              		.thumb_func
 1019              		.type	MQTTSubscribe, %function
 1020              	MQTTSubscribe:
 1021              	.LFB14:
 406:..\acn-sdk-c\src\mqtt\client\src/MQTTClient.c **** 
 407:..\acn-sdk-c\src\mqtt\client\src/MQTTClient.c **** int MQTTSubscribe(MQTTClient* c, const char* topicFilter, enum QoS qos, messageHandler msgHandler)
 408:..\acn-sdk-c\src\mqtt\client\src/MQTTClient.c **** {
 1022              		.loc 1 408 0
 1023              		.cfi_startproc
 1024              	.LVL147:
 1025 0000 F0B5     		push	{r4, r5, r6, r7, lr}
 1026              		.cfi_def_cfa_offset 20
 1027              		.cfi_offset 4, -20
 1028              		.cfi_offset 5, -16
 1029              		.cfi_offset 6, -12
 1030              		.cfi_offset 7, -8
 1031              		.cfi_offset 14, -4
 1032 0002 1727     		mov	r7, #23
 1033 0004 91B0     		sub	sp, sp, #68
 1034              		.cfi_def_cfa_offset 88
ARM GAS  C:\Users\ddemidov\AppData\Local\Temp\cc7xZMtg.s 			page 28


 1035              		.loc 1 408 0
 1036 0006 0693     		str	r3, [sp, #24]
 1037 0008 02AB     		add	r3, sp, #8
 1038              	.LVL148:
 1039 000a FF18     		add	r7, r7, r3
 409:..\acn-sdk-c\src\mqtt\client\src/MQTTClient.c ****     int rc = FAILURE;
 410:..\acn-sdk-c\src\mqtt\client\src/MQTTClient.c ****     TimerInterval timer;
 411:..\acn-sdk-c\src\mqtt\client\src/MQTTClient.c ****     int len = 0;
 412:..\acn-sdk-c\src\mqtt\client\src/MQTTClient.c ****     MQTTString topic = MQTTString_initializer;
 1040              		.loc 1 412 0
 1041 000c 0023     		mov	r3, #0
 1042 000e 0DAD     		add	r5, sp, #52
 1043 0010 6B60     		str	r3, [r5, #4]
 1044 0012 AB60     		str	r3, [r5, #8]
 413:..\acn-sdk-c\src\mqtt\client\src/MQTTClient.c ****     topic.cstring = (char *)topicFilter;
 414:..\acn-sdk-c\src\mqtt\client\src/MQTTClient.c **** 
 415:..\acn-sdk-c\src\mqtt\client\src/MQTTClient.c **** #if defined(MQTT_TASK)
 416:..\acn-sdk-c\src\mqtt\client\src/MQTTClient.c ****   MutexLock(&c->mutex);
 417:..\acn-sdk-c\src\mqtt\client\src/MQTTClient.c **** #endif
 418:..\acn-sdk-c\src\mqtt\client\src/MQTTClient.c ****   if (!c->isconnected)
 1045              		.loc 1 418 0
 1046 0014 036A     		ldr	r3, [r0, #32]
 408:..\acn-sdk-c\src\mqtt\client\src/MQTTClient.c ****     int rc = FAILURE;
 1047              		.loc 1 408 0
 1048 0016 041C     		mov	r4, r0
 1049 0018 0E1C     		mov	r6, r1
 1050 001a 3A70     		strb	r2, [r7]
 413:..\acn-sdk-c\src\mqtt\client\src/MQTTClient.c ****     topic.cstring = (char *)topicFilter;
 1051              		.loc 1 413 0
 1052 001c 0D91     		str	r1, [sp, #52]
 1053              		.loc 1 418 0
 1054 001e 002B     		cmp	r3, #0
 1055 0020 02D1     		bne	.L103
 1056              	.LVL149:
 1057              	.L106:
 409:..\acn-sdk-c\src\mqtt\client\src/MQTTClient.c ****     int rc = FAILURE;
 1058              		.loc 1 409 0
 1059 0022 0125     		mov	r5, #1
 1060 0024 6D42     		neg	r5, r5
 1061 0026 4BE0     		b	.L104
 1062              	.LVL150:
 1063              	.L103:
 419:..\acn-sdk-c\src\mqtt\client\src/MQTTClient.c ****     goto exit;
 420:..\acn-sdk-c\src\mqtt\client\src/MQTTClient.c **** 
 421:..\acn-sdk-c\src\mqtt\client\src/MQTTClient.c ****     TimerInit(&timer);
 1064              		.loc 1 421 0
 1065 0028 0BA8     		add	r0, sp, #44
 1066              	.LVL151:
 1067 002a FFF7FEFF 		bl	TimerInit
 1068              	.LVL152:
 422:..\acn-sdk-c\src\mqtt\client\src/MQTTClient.c ****     TimerCountdownMS(&timer, c->command_timeout_ms);
 1069              		.loc 1 422 0
 1070 002e 0BA8     		add	r0, sp, #44
 1071 0030 6168     		ldr	r1, [r4, #4]
 1072 0032 FFF7FEFF 		bl	TimerCountdownMS
 1073              	.LVL153:
 423:..\acn-sdk-c\src\mqtt\client\src/MQTTClient.c **** 
ARM GAS  C:\Users\ddemidov\AppData\Local\Temp\cc7xZMtg.s 			page 29


 424:..\acn-sdk-c\src\mqtt\client\src/MQTTClient.c ****     len = MQTTSerialize_subscribe(c->buf, (int)c->buf_size, 0, getNextPacketId(c), 1, &topic, (int*
 1074              		.loc 1 424 0
 1075 0036 A368     		ldr	r3, [r4, #8]
 1076              	.LBB70:
 1077              	.LBB71:
  28:..\acn-sdk-c\src\mqtt\client\src/MQTTClient.c **** }
 1078              		.loc 1 28 0
 1079 0038 2288     		ldrh	r2, [r4]
 1080 003a 2349     		ldr	r1, .L116
 1081              	.LBE71:
 1082              	.LBE70:
 1083              		.loc 1 424 0
 1084 003c 0593     		str	r3, [sp, #20]
 1085              	.LVL154:
 1086 003e 2069     		ldr	r0, [r4, #16]
 1087              	.LBB74:
 1088              	.LBB72:
  28:..\acn-sdk-c\src\mqtt\client\src/MQTTClient.c **** }
 1089              		.loc 1 28 0
 1090 0040 0123     		mov	r3, #1
 1091 0042 8A42     		cmp	r2, r1
 1092 0044 01D0     		beq	.L105
 1093 0046 D218     		add	r2, r2, r3
 1094 0048 93B2     		uxth	r3, r2
 1095              	.L105:
 1096              	.LBE72:
 1097              	.LBE74:
 1098              		.loc 1 424 0
 1099 004a 0122     		mov	r2, #1
 1100 004c 0599     		ldr	r1, [sp, #20]
 1101 004e 0092     		str	r2, [sp]
 1102              	.LBB75:
 1103              	.LBB73:
  28:..\acn-sdk-c\src\mqtt\client\src/MQTTClient.c **** }
 1104              		.loc 1 28 0
 1105 0050 2380     		strh	r3, [r4]
 1106              	.LBE73:
 1107              	.LBE75:
 1108              		.loc 1 424 0
 1109 0052 0195     		str	r5, [sp, #4]
 1110 0054 0297     		str	r7, [sp, #8]
 1111 0056 0022     		mov	r2, #0
 1112 0058 FFF7FEFF 		bl	MQTTSerialize_subscribe
 1113              	.LVL155:
 1114 005c 011E     		sub	r1, r0, #0
 1115              	.LVL156:
 425:..\acn-sdk-c\src\mqtt\client\src/MQTTClient.c ****     if (len <= 0)
 1116              		.loc 1 425 0
 1117 005e E0DD     		ble	.L106
 426:..\acn-sdk-c\src\mqtt\client\src/MQTTClient.c ****         goto exit;
 427:..\acn-sdk-c\src\mqtt\client\src/MQTTClient.c ****     if ((rc = sendPacket(c, len, &timer)) != MQTT_SUCCESS) // send the subscribe packet
 1118              		.loc 1 427 0
 1119 0060 201C     		mov	r0, r4
 1120              	.LVL157:
 1121 0062 0BAA     		add	r2, sp, #44
 1122 0064 FFF7FEFF 		bl	sendPacket
 1123              	.LVL158:
ARM GAS  C:\Users\ddemidov\AppData\Local\Temp\cc7xZMtg.s 			page 30


 1124 0068 051E     		sub	r5, r0, #0
 1125              	.LVL159:
 1126 006a 29D1     		bne	.L104
 428:..\acn-sdk-c\src\mqtt\client\src/MQTTClient.c ****         goto exit;             // there was a problem
 429:..\acn-sdk-c\src\mqtt\client\src/MQTTClient.c **** 
 430:..\acn-sdk-c\src\mqtt\client\src/MQTTClient.c ****     if (waitfor(c, SUBACK, &timer) == SUBACK)      // wait for suback
 1127              		.loc 1 430 0
 1128 006c 201C     		mov	r0, r4
 1129              	.LVL160:
 1130 006e 0921     		mov	r1, #9
 1131 0070 0BAA     		add	r2, sp, #44
 1132 0072 FFF7FEFF 		bl	waitfor
 1133              	.LVL161:
 1134 0076 0928     		cmp	r0, #9
 1135 0078 D3D1     		bne	.L106
 1136              	.LBB76:
 431:..\acn-sdk-c\src\mqtt\client\src/MQTTClient.c ****     {
 432:..\acn-sdk-c\src\mqtt\client\src/MQTTClient.c ****         int count = 0, grantedQoS = -1;
 1137              		.loc 1 432 0
 1138 007a 0123     		mov	r3, #1
 1139 007c 5B42     		neg	r3, r3
 1140 007e 0A93     		str	r3, [sp, #40]
 433:..\acn-sdk-c\src\mqtt\client\src/MQTTClient.c ****         unsigned short mypacketid;
 434:..\acn-sdk-c\src\mqtt\client\src/MQTTClient.c ****         if (MQTTDeserialize_suback(&mypacketid, 1, &count, &grantedQoS, c->readbuf, (int)c->readbuf
 1141              		.loc 1 434 0
 1142 0080 6369     		ldr	r3, [r4, #20]
 1143 0082 1130     		add	r0, r0, #17
 1144 0084 0093     		str	r3, [sp]
 1145 0086 E368     		ldr	r3, [r4, #12]
 1146 0088 0121     		mov	r1, #1
 1147 008a 0193     		str	r3, [sp, #4]
 1148 008c 02AB     		add	r3, sp, #8
 1149 008e C018     		add	r0, r0, r3
 1150 0090 09AA     		add	r2, sp, #36
 1151 0092 0AAB     		add	r3, sp, #40
 432:..\acn-sdk-c\src\mqtt\client\src/MQTTClient.c ****         unsigned short mypacketid;
 1152              		.loc 1 432 0
 1153 0094 0995     		str	r5, [sp, #36]
 1154              		.loc 1 434 0
 1155 0096 FFF7FEFF 		bl	MQTTDeserialize_suback
 1156              	.LVL162:
 1157 009a 0128     		cmp	r0, #1
 1158 009c 02D1     		bne	.L107
 435:..\acn-sdk-c\src\mqtt\client\src/MQTTClient.c ****             rc = grantedQoS; // 0, 1, 2 or 0x80
 1159              		.loc 1 435 0
 1160 009e 0A9D     		ldr	r5, [sp, #40]
 1161              	.LVL163:
 436:..\acn-sdk-c\src\mqtt\client\src/MQTTClient.c ****         if (rc != 0x80)
 1162              		.loc 1 436 0
 1163 00a0 802D     		cmp	r5, #128
 1164 00a2 0DD0     		beq	.L104
 1165              	.L107:
 1166              	.LVL164:
 1167 00a4 0022     		mov	r2, #0
 1168              	.LVL165:
 1169              	.L110:
 1170 00a6 D300     		lsl	r3, r2, #3
ARM GAS  C:\Users\ddemidov\AppData\Local\Temp\cc7xZMtg.s 			page 31


 1171 00a8 E318     		add	r3, r4, r3
 1172              	.LBB77:
 437:..\acn-sdk-c\src\mqtt\client\src/MQTTClient.c ****         {
 438:..\acn-sdk-c\src\mqtt\client\src/MQTTClient.c ****             int i;
 439:..\acn-sdk-c\src\mqtt\client\src/MQTTClient.c ****             for (i = 0; i < MAX_MESSAGE_HANDLERS; ++i)
 440:..\acn-sdk-c\src\mqtt\client\src/MQTTClient.c ****             {
 441:..\acn-sdk-c\src\mqtt\client\src/MQTTClient.c ****                 if (c->messageHandlers[i].topicFilter == 0)
 1173              		.loc 1 441 0
 1174 00aa 596A     		ldr	r1, [r3, #36]
 1175 00ac 0029     		cmp	r1, #0
 1176 00ae 04D1     		bne	.L109
 442:..\acn-sdk-c\src\mqtt\client\src/MQTTClient.c ****                 {
 443:..\acn-sdk-c\src\mqtt\client\src/MQTTClient.c ****                     c->messageHandlers[i].topicFilter = topicFilter;
 444:..\acn-sdk-c\src\mqtt\client\src/MQTTClient.c ****                     c->messageHandlers[i].fp = msgHandler;
 1177              		.loc 1 444 0
 1178 00b0 069A     		ldr	r2, [sp, #24]
 1179              	.LVL166:
 443:..\acn-sdk-c\src\mqtt\client\src/MQTTClient.c ****                     c->messageHandlers[i].fp = msgHandler;
 1180              		.loc 1 443 0
 1181 00b2 5E62     		str	r6, [r3, #36]
 1182              		.loc 1 444 0
 1183 00b4 9A62     		str	r2, [r3, #40]
 1184              	.LVL167:
 445:..\acn-sdk-c\src\mqtt\client\src/MQTTClient.c ****                     rc = 0;
 1185              		.loc 1 445 0
 1186 00b6 0D1C     		mov	r5, r1
 446:..\acn-sdk-c\src\mqtt\client\src/MQTTClient.c ****                     break;
 1187              		.loc 1 446 0
 1188 00b8 02E0     		b	.L104
 1189              	.LVL168:
 1190              	.L109:
 439:..\acn-sdk-c\src\mqtt\client\src/MQTTClient.c ****             {
 1191              		.loc 1 439 0 discriminator 2
 1192 00ba 0132     		add	r2, r2, #1
 1193              	.LVL169:
 1194 00bc 052A     		cmp	r2, #5
 1195 00be F2D1     		bne	.L110
 1196              	.LVL170:
 1197              	.L104:
 1198              	.LBE77:
 1199              	.LBE76:
 447:..\acn-sdk-c\src\mqtt\client\src/MQTTClient.c ****                 }
 448:..\acn-sdk-c\src\mqtt\client\src/MQTTClient.c ****             }
 449:..\acn-sdk-c\src\mqtt\client\src/MQTTClient.c ****         }
 450:..\acn-sdk-c\src\mqtt\client\src/MQTTClient.c ****     }
 451:..\acn-sdk-c\src\mqtt\client\src/MQTTClient.c ****     else
 452:..\acn-sdk-c\src\mqtt\client\src/MQTTClient.c ****         rc = FAILURE;
 453:..\acn-sdk-c\src\mqtt\client\src/MQTTClient.c **** 
 454:..\acn-sdk-c\src\mqtt\client\src/MQTTClient.c **** exit:
 455:..\acn-sdk-c\src\mqtt\client\src/MQTTClient.c **** #if defined(MQTT_TASK)
 456:..\acn-sdk-c\src\mqtt\client\src/MQTTClient.c ****   MutexUnlock(&c->mutex);
 457:..\acn-sdk-c\src\mqtt\client\src/MQTTClient.c **** #endif
 458:..\acn-sdk-c\src\mqtt\client\src/MQTTClient.c ****     return rc;
 459:..\acn-sdk-c\src\mqtt\client\src/MQTTClient.c **** }
 1200              		.loc 1 459 0
 1201 00c0 281C     		mov	r0, r5
 1202 00c2 11B0     		add	sp, sp, #68
ARM GAS  C:\Users\ddemidov\AppData\Local\Temp\cc7xZMtg.s 			page 32


 1203              		@ sp needed
 1204              	.LVL171:
 1205              	.LVL172:
 1206              	.LVL173:
 1207              	.LVL174:
 1208 00c4 F0BD     		pop	{r4, r5, r6, r7, pc}
 1209              	.L117:
 1210 00c6 C046     		.align	2
 1211              	.L116:
 1212 00c8 FFFF0000 		.word	65535
 1213              		.cfi_endproc
 1214              	.LFE14:
 1215              		.size	MQTTSubscribe, .-MQTTSubscribe
 1216              		.section	.text.MQTTUnsubscribe,"ax",%progbits
 1217              		.align	1
 1218              		.global	MQTTUnsubscribe
 1219              		.code	16
 1220              		.thumb_func
 1221              		.type	MQTTUnsubscribe, %function
 1222              	MQTTUnsubscribe:
 1223              	.LFB15:
 460:..\acn-sdk-c\src\mqtt\client\src/MQTTClient.c **** 
 461:..\acn-sdk-c\src\mqtt\client\src/MQTTClient.c **** 
 462:..\acn-sdk-c\src\mqtt\client\src/MQTTClient.c **** int MQTTUnsubscribe(MQTTClient* c, const char* topicFilter)
 463:..\acn-sdk-c\src\mqtt\client\src/MQTTClient.c **** {
 1224              		.loc 1 463 0
 1225              		.cfi_startproc
 1226              	.LVL175:
 464:..\acn-sdk-c\src\mqtt\client\src/MQTTClient.c ****     int rc = FAILURE;
 465:..\acn-sdk-c\src\mqtt\client\src/MQTTClient.c ****     TimerInterval timer;
 466:..\acn-sdk-c\src\mqtt\client\src/MQTTClient.c ****     MQTTString topic = MQTTString_initializer;
 1227              		.loc 1 466 0
 1228 0000 0023     		mov	r3, #0
 463:..\acn-sdk-c\src\mqtt\client\src/MQTTClient.c ****     int rc = FAILURE;
 1229              		.loc 1 463 0
 1230 0002 F0B5     		push	{r4, r5, r6, r7, lr}
 1231              		.cfi_def_cfa_offset 20
 1232              		.cfi_offset 4, -20
 1233              		.cfi_offset 5, -16
 1234              		.cfi_offset 6, -12
 1235              		.cfi_offset 7, -8
 1236              		.cfi_offset 14, -4
 1237 0004 89B0     		sub	sp, sp, #36
 1238              		.cfi_def_cfa_offset 56
 1239              		.loc 1 466 0
 1240 0006 05AD     		add	r5, sp, #20
 1241 0008 6B60     		str	r3, [r5, #4]
 1242 000a AB60     		str	r3, [r5, #8]
 467:..\acn-sdk-c\src\mqtt\client\src/MQTTClient.c ****     topic.cstring = (char *)topicFilter;
 468:..\acn-sdk-c\src\mqtt\client\src/MQTTClient.c ****     int len = 0;
 469:..\acn-sdk-c\src\mqtt\client\src/MQTTClient.c **** 
 470:..\acn-sdk-c\src\mqtt\client\src/MQTTClient.c **** #if defined(MQTT_TASK)
 471:..\acn-sdk-c\src\mqtt\client\src/MQTTClient.c ****   MutexLock(&c->mutex);
 472:..\acn-sdk-c\src\mqtt\client\src/MQTTClient.c **** #endif
 473:..\acn-sdk-c\src\mqtt\client\src/MQTTClient.c ****   if (!c->isconnected)
 1243              		.loc 1 473 0
 1244 000c 036A     		ldr	r3, [r0, #32]
ARM GAS  C:\Users\ddemidov\AppData\Local\Temp\cc7xZMtg.s 			page 33


 467:..\acn-sdk-c\src\mqtt\client\src/MQTTClient.c ****     topic.cstring = (char *)topicFilter;
 1245              		.loc 1 467 0
 1246 000e 0591     		str	r1, [sp, #20]
 1247              	.LVL176:
 1248              		.loc 1 473 0
 1249 0010 002B     		cmp	r3, #0
 1250 0012 02D1     		bne	.L119
 1251              	.LVL177:
 1252              	.L122:
 464:..\acn-sdk-c\src\mqtt\client\src/MQTTClient.c ****     TimerInterval timer;
 1253              		.loc 1 464 0
 1254 0014 0125     		mov	r5, #1
 1255 0016 6D42     		neg	r5, r5
 1256 0018 2CE0     		b	.L120
 1257              	.LVL178:
 1258              	.L119:
 1259 001a 041C     		mov	r4, r0
 1260 001c 0126     		mov	r6, #1
 474:..\acn-sdk-c\src\mqtt\client\src/MQTTClient.c ****     goto exit;
 475:..\acn-sdk-c\src\mqtt\client\src/MQTTClient.c **** 
 476:..\acn-sdk-c\src\mqtt\client\src/MQTTClient.c ****     TimerInit(&timer);
 1261              		.loc 1 476 0
 1262 001e 03A8     		add	r0, sp, #12
 1263              	.LVL179:
 1264 0020 FFF7FEFF 		bl	TimerInit
 1265              	.LVL180:
 477:..\acn-sdk-c\src\mqtt\client\src/MQTTClient.c ****     TimerCountdownMS(&timer, c->command_timeout_ms);
 1266              		.loc 1 477 0
 1267 0024 03A8     		add	r0, sp, #12
 1268 0026 6168     		ldr	r1, [r4, #4]
 1269 0028 FFF7FEFF 		bl	TimerCountdownMS
 1270              	.LVL181:
 1271              	.LBB81:
 1272              	.LBB82:
  28:..\acn-sdk-c\src\mqtt\client\src/MQTTClient.c **** }
 1273              		.loc 1 28 0
 1274 002c 134F     		ldr	r7, .L124
 1275 002e 2288     		ldrh	r2, [r4]
 1276              	.LBE82:
 1277              	.LBE81:
 478:..\acn-sdk-c\src\mqtt\client\src/MQTTClient.c **** 
 479:..\acn-sdk-c\src\mqtt\client\src/MQTTClient.c ****     if ((len = MQTTSerialize_unsubscribe(c->buf, (int)c->buf_size, 0, getNextPacketId(c), 1, &topic
 1278              		.loc 1 479 0
 1279 0030 2069     		ldr	r0, [r4, #16]
 1280 0032 A168     		ldr	r1, [r4, #8]
 1281              	.LVL182:
 1282              	.LBB84:
 1283              	.LBB83:
  28:..\acn-sdk-c\src\mqtt\client\src/MQTTClient.c **** }
 1284              		.loc 1 28 0
 1285 0034 331C     		mov	r3, r6
 1286 0036 BA42     		cmp	r2, r7
 1287 0038 01D0     		beq	.L121
 1288 003a 9219     		add	r2, r2, r6
 1289 003c 93B2     		uxth	r3, r2
 1290              	.L121:
 1291 003e 2380     		strh	r3, [r4]
ARM GAS  C:\Users\ddemidov\AppData\Local\Temp\cc7xZMtg.s 			page 34


 1292              	.LBE83:
 1293              	.LBE84:
 1294              		.loc 1 479 0
 1295 0040 0022     		mov	r2, #0
 1296 0042 0096     		str	r6, [sp]
 1297 0044 0195     		str	r5, [sp, #4]
 1298 0046 FFF7FEFF 		bl	MQTTSerialize_unsubscribe
 1299              	.LVL183:
 1300 004a 011E     		sub	r1, r0, #0
 1301              	.LVL184:
 1302 004c E2DD     		ble	.L122
 480:..\acn-sdk-c\src\mqtt\client\src/MQTTClient.c ****         goto exit;
 481:..\acn-sdk-c\src\mqtt\client\src/MQTTClient.c ****     if ((rc = sendPacket(c, len, &timer)) != MQTT_SUCCESS) // send the subscribe packet
 1303              		.loc 1 481 0
 1304 004e 201C     		mov	r0, r4
 1305              	.LVL185:
 1306 0050 03AA     		add	r2, sp, #12
 1307 0052 FFF7FEFF 		bl	sendPacket
 1308              	.LVL186:
 1309 0056 051E     		sub	r5, r0, #0
 1310              	.LVL187:
 1311 0058 0CD1     		bne	.L120
 482:..\acn-sdk-c\src\mqtt\client\src/MQTTClient.c ****         goto exit; // there was a problem
 483:..\acn-sdk-c\src\mqtt\client\src/MQTTClient.c **** 
 484:..\acn-sdk-c\src\mqtt\client\src/MQTTClient.c ****     if (waitfor(c, UNSUBACK, &timer) == UNSUBACK)
 1312              		.loc 1 484 0
 1313 005a 201C     		mov	r0, r4
 1314              	.LVL188:
 1315 005c 0B21     		mov	r1, #11
 1316 005e 03AA     		add	r2, sp, #12
 1317 0060 FFF7FEFF 		bl	waitfor
 1318              	.LVL189:
 1319 0064 0B28     		cmp	r0, #11
 1320 0066 D5D1     		bne	.L122
 1321              	.LBB85:
 485:..\acn-sdk-c\src\mqtt\client\src/MQTTClient.c ****     {
 486:..\acn-sdk-c\src\mqtt\client\src/MQTTClient.c ****         unsigned short mypacketid;  // should be the same as the packetid above
 487:..\acn-sdk-c\src\mqtt\client\src/MQTTClient.c ****         if (MQTTDeserialize_unsuback(&mypacketid, c->readbuf, (int)c->readbuf_size) == 1)
 1322              		.loc 1 487 0
 1323 0068 0138     		sub	r0, r0, #1
 1324 006a 6844     		add	r0, r0, sp
 1325 006c 6169     		ldr	r1, [r4, #20]
 1326 006e E268     		ldr	r2, [r4, #12]
 1327 0070 FFF7FEFF 		bl	MQTTDeserialize_unsuback
 1328              	.LVL190:
 1329              	.L120:
 1330              	.LBE85:
 488:..\acn-sdk-c\src\mqtt\client\src/MQTTClient.c ****             rc = 0;
 489:..\acn-sdk-c\src\mqtt\client\src/MQTTClient.c ****     }
 490:..\acn-sdk-c\src\mqtt\client\src/MQTTClient.c ****     else
 491:..\acn-sdk-c\src\mqtt\client\src/MQTTClient.c ****         rc = FAILURE;
 492:..\acn-sdk-c\src\mqtt\client\src/MQTTClient.c **** 
 493:..\acn-sdk-c\src\mqtt\client\src/MQTTClient.c **** exit:
 494:..\acn-sdk-c\src\mqtt\client\src/MQTTClient.c **** #if defined(MQTT_TASK)
 495:..\acn-sdk-c\src\mqtt\client\src/MQTTClient.c ****   MutexUnlock(&c->mutex);
 496:..\acn-sdk-c\src\mqtt\client\src/MQTTClient.c **** #endif
 497:..\acn-sdk-c\src\mqtt\client\src/MQTTClient.c ****     return rc;
ARM GAS  C:\Users\ddemidov\AppData\Local\Temp\cc7xZMtg.s 			page 35


 498:..\acn-sdk-c\src\mqtt\client\src/MQTTClient.c **** }
 1331              		.loc 1 498 0
 1332 0074 281C     		mov	r0, r5
 1333 0076 09B0     		add	sp, sp, #36
 1334              		@ sp needed
 1335              	.LVL191:
 1336 0078 F0BD     		pop	{r4, r5, r6, r7, pc}
 1337              	.L125:
 1338 007a C046     		.align	2
 1339              	.L124:
 1340 007c FFFF0000 		.word	65535
 1341              		.cfi_endproc
 1342              	.LFE15:
 1343              		.size	MQTTUnsubscribe, .-MQTTUnsubscribe
 1344              		.section	.text.MQTTPublish,"ax",%progbits
 1345              		.align	1
 1346              		.global	MQTTPublish
 1347              		.code	16
 1348              		.thumb_func
 1349              		.type	MQTTPublish, %function
 1350              	MQTTPublish:
 1351              	.LFB16:
 499:..\acn-sdk-c\src\mqtt\client\src/MQTTClient.c **** 
 500:..\acn-sdk-c\src\mqtt\client\src/MQTTClient.c **** int MQTTPublish(MQTTClient* c, const char* topicName, MQTTMessage* message)
 501:..\acn-sdk-c\src\mqtt\client\src/MQTTClient.c **** {
 1352              		.loc 1 501 0
 1353              		.cfi_startproc
 1354              	.LVL192:
 502:..\acn-sdk-c\src\mqtt\client\src/MQTTClient.c ****     int rc = FAILURE;
 503:..\acn-sdk-c\src\mqtt\client\src/MQTTClient.c ****     TimerInterval timer;
 504:..\acn-sdk-c\src\mqtt\client\src/MQTTClient.c ****     MQTTString topic = MQTTString_initializer;
 1355              		.loc 1 504 0
 1356 0000 0023     		mov	r3, #0
 501:..\acn-sdk-c\src\mqtt\client\src/MQTTClient.c ****     int rc = FAILURE;
 1357              		.loc 1 501 0
 1358 0002 F0B5     		push	{r4, r5, r6, r7, lr}
 1359              		.cfi_def_cfa_offset 20
 1360              		.cfi_offset 4, -20
 1361              		.cfi_offset 5, -16
 1362              		.cfi_offset 6, -12
 1363              		.cfi_offset 7, -8
 1364              		.cfi_offset 14, -4
 1365 0004 8FB0     		sub	sp, sp, #60
 1366              		.cfi_def_cfa_offset 80
 1367              		.loc 1 504 0
 1368 0006 0BAE     		add	r6, sp, #44
 1369 0008 7360     		str	r3, [r6, #4]
 1370 000a B360     		str	r3, [r6, #8]
 505:..\acn-sdk-c\src\mqtt\client\src/MQTTClient.c ****     topic.cstring = (char *)topicName;
 506:..\acn-sdk-c\src\mqtt\client\src/MQTTClient.c ****     int len = 0;
 507:..\acn-sdk-c\src\mqtt\client\src/MQTTClient.c **** 
 508:..\acn-sdk-c\src\mqtt\client\src/MQTTClient.c **** #if defined(MQTT_TASK)
 509:..\acn-sdk-c\src\mqtt\client\src/MQTTClient.c ****   MutexLock(&c->mutex);
 510:..\acn-sdk-c\src\mqtt\client\src/MQTTClient.c **** #endif
 511:..\acn-sdk-c\src\mqtt\client\src/MQTTClient.c ****   if (!c->isconnected)
 1371              		.loc 1 511 0
 1372 000c 036A     		ldr	r3, [r0, #32]
ARM GAS  C:\Users\ddemidov\AppData\Local\Temp\cc7xZMtg.s 			page 36


 505:..\acn-sdk-c\src\mqtt\client\src/MQTTClient.c ****     topic.cstring = (char *)topicName;
 1373              		.loc 1 505 0
 1374 000e 0B91     		str	r1, [sp, #44]
 1375              	.LVL193:
 1376              		.loc 1 511 0
 1377 0010 002B     		cmp	r3, #0
 1378 0012 01D1     		bne	.L127
 1379              	.LVL194:
 1380              	.L131:
 502:..\acn-sdk-c\src\mqtt\client\src/MQTTClient.c ****     TimerInterval timer;
 1381              		.loc 1 502 0
 1382 0014 0120     		mov	r0, #1
 1383 0016 51E0     		b	.L134
 1384              	.LVL195:
 1385              	.L127:
 1386 0018 041C     		mov	r4, r0
 1387 001a 151C     		mov	r5, r2
 512:..\acn-sdk-c\src\mqtt\client\src/MQTTClient.c ****     goto exit;
 513:..\acn-sdk-c\src\mqtt\client\src/MQTTClient.c **** 
 514:..\acn-sdk-c\src\mqtt\client\src/MQTTClient.c ****     TimerInit(&timer);
 1388              		.loc 1 514 0
 1389 001c 09A8     		add	r0, sp, #36
 1390              	.LVL196:
 1391 001e FFF7FEFF 		bl	TimerInit
 1392              	.LVL197:
 515:..\acn-sdk-c\src\mqtt\client\src/MQTTClient.c ****     TimerCountdownMS(&timer, c->command_timeout_ms);
 1393              		.loc 1 515 0
 1394 0022 09A8     		add	r0, sp, #36
 1395 0024 6168     		ldr	r1, [r4, #4]
 1396 0026 FFF7FEFF 		bl	TimerCountdownMS
 1397              	.LVL198:
 516:..\acn-sdk-c\src\mqtt\client\src/MQTTClient.c **** 
 517:..\acn-sdk-c\src\mqtt\client\src/MQTTClient.c ****     if (message->qos == QOS1 || message->qos == QOS2)
 1398              		.loc 1 517 0
 1399 002a 2B78     		ldrb	r3, [r5]
 1400 002c 5A1E     		sub	r2, r3, #1
 1401 002e 012A     		cmp	r2, #1
 1402 0030 08D8     		bhi	.L129
 1403              	.LVL199:
 1404              	.LBB90:
 1405              	.LBB91:
  28:..\acn-sdk-c\src\mqtt\client\src/MQTTClient.c **** }
 1406              		.loc 1 28 0
 1407 0032 2288     		ldrh	r2, [r4]
 1408 0034 2348     		ldr	r0, .L136
 1409 0036 0121     		mov	r1, #1
 1410 0038 8242     		cmp	r2, r0
 1411 003a 01D0     		beq	.L130
 1412 003c 5218     		add	r2, r2, r1
 1413 003e 91B2     		uxth	r1, r2
 1414              	.L130:
 1415 0040 2180     		strh	r1, [r4]
 1416              	.LBE91:
 1417              	.LBE90:
 518:..\acn-sdk-c\src\mqtt\client\src/MQTTClient.c ****         message->id = getNextPacketId(c);
 1418              		.loc 1 518 0
 1419 0042 A980     		strh	r1, [r5, #4]
ARM GAS  C:\Users\ddemidov\AppData\Local\Temp\cc7xZMtg.s 			page 37


 1420              	.LVL200:
 1421              	.L129:
 519:..\acn-sdk-c\src\mqtt\client\src/MQTTClient.c **** 
 520:..\acn-sdk-c\src\mqtt\client\src/MQTTClient.c ****     len = MQTTSerialize_publish(c->buf, (int)c->buf_size, 0, message->qos, message->retained, messa
 1422              		.loc 1 520 0
 1423 0044 6A78     		ldrb	r2, [r5, #1]
 1424 0046 0092     		str	r2, [sp]
 1425 0048 AA88     		ldrh	r2, [r5, #4]
 1426 004a 0192     		str	r2, [sp, #4]
 1427 004c 02AA     		add	r2, sp, #8
 1428 004e 83CE     		ldmia	r6!, {r0, r1, r7}
 1429 0050 83C2     		stmia	r2!, {r0, r1, r7}
 1430              	.LVL201:
 1431 0052 AA68     		ldr	r2, [r5, #8]
 1432 0054 0592     		str	r2, [sp, #20]
 1433 0056 EA68     		ldr	r2, [r5, #12]
 1434 0058 0692     		str	r2, [sp, #24]
 1435 005a A168     		ldr	r1, [r4, #8]
 1436 005c 2069     		ldr	r0, [r4, #16]
 1437 005e 0022     		mov	r2, #0
 1438 0060 FFF7FEFF 		bl	MQTTSerialize_publish
 1439              	.LVL202:
 1440 0064 011E     		sub	r1, r0, #0
 1441              	.LVL203:
 521:..\acn-sdk-c\src\mqtt\client\src/MQTTClient.c ****               topic, (unsigned char*)message->payload, (int)message->payloadlen);
 522:..\acn-sdk-c\src\mqtt\client\src/MQTTClient.c ****     if (len <= 0) {
 1442              		.loc 1 522 0
 1443 0066 D5DD     		ble	.L131
 523:..\acn-sdk-c\src\mqtt\client\src/MQTTClient.c ****         goto exit;
 524:..\acn-sdk-c\src\mqtt\client\src/MQTTClient.c ****     }
 525:..\acn-sdk-c\src\mqtt\client\src/MQTTClient.c ****     if ((rc = sendPacket(c, len, &timer)) != MQTT_SUCCESS) // send the subscribe packet
 1444              		.loc 1 525 0
 1445 0068 201C     		mov	r0, r4
 1446              	.LVL204:
 1447 006a 09AA     		add	r2, sp, #36
 1448 006c FFF7FEFF 		bl	sendPacket
 1449              	.LVL205:
 1450 0070 0028     		cmp	r0, #0
 1451 0072 24D1     		bne	.L128
 526:..\acn-sdk-c\src\mqtt\client\src/MQTTClient.c ****     {
 527:..\acn-sdk-c\src\mqtt\client\src/MQTTClient.c ****         goto exit; // there was a problem
 528:..\acn-sdk-c\src\mqtt\client\src/MQTTClient.c ****     }
 529:..\acn-sdk-c\src\mqtt\client\src/MQTTClient.c **** 
 530:..\acn-sdk-c\src\mqtt\client\src/MQTTClient.c ****     if (message->qos == QOS1)
 1452              		.loc 1 530 0
 1453 0074 2B78     		ldrb	r3, [r5]
 1454 0076 012B     		cmp	r3, #1
 1455 0078 0AD1     		bne	.L132
 531:..\acn-sdk-c\src\mqtt\client\src/MQTTClient.c ****     {
 532:..\acn-sdk-c\src\mqtt\client\src/MQTTClient.c ****         if (waitfor(c, PUBACK, &timer) == PUBACK)
 1456              		.loc 1 532 0
 1457 007a 201C     		mov	r0, r4
 1458              	.LVL206:
 1459 007c 0421     		mov	r1, #4
 1460 007e 09AA     		add	r2, sp, #36
 1461 0080 FFF7FEFF 		bl	waitfor
 1462              	.LVL207:
ARM GAS  C:\Users\ddemidov\AppData\Local\Temp\cc7xZMtg.s 			page 38


 1463 0084 0428     		cmp	r0, #4
 1464 0086 C5D1     		bne	.L131
 1465              	.LBB92:
 533:..\acn-sdk-c\src\mqtt\client\src/MQTTClient.c ****         {
 534:..\acn-sdk-c\src\mqtt\client\src/MQTTClient.c ****             unsigned short mypacketid;
 535:..\acn-sdk-c\src\mqtt\client\src/MQTTClient.c ****             unsigned char dup, type;
 536:..\acn-sdk-c\src\mqtt\client\src/MQTTClient.c ****             if (MQTTDeserialize_ack(&type, &dup, &mypacketid, c->readbuf, (int)c->readbuf_size) != 
 1466              		.loc 1 536 0
 1467 0088 E368     		ldr	r3, [r4, #12]
 1468 008a 1D30     		add	r0, r0, #29
 1469 008c 0093     		str	r3, [sp]
 1470 008e 0BE0     		b	.L135
 1471              	.LVL208:
 1472              	.L132:
 1473              	.LBE92:
 537:..\acn-sdk-c\src\mqtt\client\src/MQTTClient.c ****                 rc = FAILURE;
 538:..\acn-sdk-c\src\mqtt\client\src/MQTTClient.c ****         }
 539:..\acn-sdk-c\src\mqtt\client\src/MQTTClient.c ****         else
 540:..\acn-sdk-c\src\mqtt\client\src/MQTTClient.c ****             rc = FAILURE;
 541:..\acn-sdk-c\src\mqtt\client\src/MQTTClient.c ****     }
 542:..\acn-sdk-c\src\mqtt\client\src/MQTTClient.c ****     else if (message->qos == QOS2)
 1474              		.loc 1 542 0
 1475 0090 022B     		cmp	r3, #2
 1476 0092 14D1     		bne	.L128
 543:..\acn-sdk-c\src\mqtt\client\src/MQTTClient.c ****     {
 544:..\acn-sdk-c\src\mqtt\client\src/MQTTClient.c ****         if (waitfor(c, PUBCOMP, &timer) == PUBCOMP)
 1477              		.loc 1 544 0
 1478 0094 201C     		mov	r0, r4
 1479              	.LVL209:
 1480 0096 0721     		mov	r1, #7
 1481 0098 09AA     		add	r2, sp, #36
 1482 009a FFF7FEFF 		bl	waitfor
 1483              	.LVL210:
 1484 009e 0728     		cmp	r0, #7
 1485 00a0 B8D1     		bne	.L131
 1486              	.LBB93:
 545:..\acn-sdk-c\src\mqtt\client\src/MQTTClient.c ****         {
 546:..\acn-sdk-c\src\mqtt\client\src/MQTTClient.c ****             unsigned short mypacketid;
 547:..\acn-sdk-c\src\mqtt\client\src/MQTTClient.c ****             unsigned char dup, type;
 548:..\acn-sdk-c\src\mqtt\client\src/MQTTClient.c ****             if (MQTTDeserialize_ack(&type, &dup, &mypacketid, c->readbuf, (int)c->readbuf_size) != 
 1487              		.loc 1 548 0
 1488 00a2 E368     		ldr	r3, [r4, #12]
 1489 00a4 1A30     		add	r0, r0, #26
 1490 00a6 0093     		str	r3, [sp]
 1491              	.L135:
 1492 00a8 2222     		mov	r2, #34
 1493 00aa 6369     		ldr	r3, [r4, #20]
 1494 00ac 6844     		add	r0, r0, sp
 1495 00ae 08A9     		add	r1, sp, #32
 1496 00b0 6A44     		add	r2, r2, sp
 1497 00b2 FFF7FEFF 		bl	MQTTDeserialize_ack
 1498              	.LVL211:
 1499 00b6 0138     		sub	r0, r0, #1
 1500 00b8 431E     		sub	r3, r0, #1
 1501 00ba 9841     		sbc	r0, r0, r3
 1502              	.LVL212:
 1503              	.L134:
ARM GAS  C:\Users\ddemidov\AppData\Local\Temp\cc7xZMtg.s 			page 39


 1504 00bc 4042     		neg	r0, r0
 1505              	.LVL213:
 1506              	.L128:
 1507              	.LBE93:
 549:..\acn-sdk-c\src\mqtt\client\src/MQTTClient.c ****                 rc = FAILURE;
 550:..\acn-sdk-c\src\mqtt\client\src/MQTTClient.c ****         }
 551:..\acn-sdk-c\src\mqtt\client\src/MQTTClient.c ****         else
 552:..\acn-sdk-c\src\mqtt\client\src/MQTTClient.c ****             rc = FAILURE;
 553:..\acn-sdk-c\src\mqtt\client\src/MQTTClient.c ****     }
 554:..\acn-sdk-c\src\mqtt\client\src/MQTTClient.c **** 
 555:..\acn-sdk-c\src\mqtt\client\src/MQTTClient.c **** exit:
 556:..\acn-sdk-c\src\mqtt\client\src/MQTTClient.c **** #if defined(MQTT_TASK)
 557:..\acn-sdk-c\src\mqtt\client\src/MQTTClient.c ****   MutexUnlock(&c->mutex);
 558:..\acn-sdk-c\src\mqtt\client\src/MQTTClient.c **** #endif
 559:..\acn-sdk-c\src\mqtt\client\src/MQTTClient.c ****     return rc;
 560:..\acn-sdk-c\src\mqtt\client\src/MQTTClient.c **** }
 1508              		.loc 1 560 0
 1509 00be 0FB0     		add	sp, sp, #60
 1510              		@ sp needed
 1511 00c0 F0BD     		pop	{r4, r5, r6, r7, pc}
 1512              	.L137:
 1513 00c2 C046     		.align	2
 1514              	.L136:
 1515 00c4 FFFF0000 		.word	65535
 1516              		.cfi_endproc
 1517              	.LFE16:
 1518              		.size	MQTTPublish, .-MQTTPublish
 1519              		.section	.text.MQTTDisconnect,"ax",%progbits
 1520              		.align	1
 1521              		.global	MQTTDisconnect
 1522              		.code	16
 1523              		.thumb_func
 1524              		.type	MQTTDisconnect, %function
 1525              	MQTTDisconnect:
 1526              	.LFB17:
 561:..\acn-sdk-c\src\mqtt\client\src/MQTTClient.c **** 
 562:..\acn-sdk-c\src\mqtt\client\src/MQTTClient.c **** 
 563:..\acn-sdk-c\src\mqtt\client\src/MQTTClient.c **** int MQTTDisconnect(MQTTClient* c)
 564:..\acn-sdk-c\src\mqtt\client\src/MQTTClient.c **** {
 1527              		.loc 1 564 0
 1528              		.cfi_startproc
 1529              	.LVL214:
 1530 0000 13B5     		push	{r0, r1, r4, lr}
 1531              		.cfi_def_cfa_offset 16
 1532              		.cfi_offset 0, -16
 1533              		.cfi_offset 1, -12
 1534              		.cfi_offset 4, -8
 1535              		.cfi_offset 14, -4
 1536              		.loc 1 564 0
 1537 0002 041C     		mov	r4, r0
 565:..\acn-sdk-c\src\mqtt\client\src/MQTTClient.c ****     int rc = FAILURE;
 566:..\acn-sdk-c\src\mqtt\client\src/MQTTClient.c ****     TimerInterval timer;     // we might wait for incomplete incoming publishes to complete
 567:..\acn-sdk-c\src\mqtt\client\src/MQTTClient.c ****     int len = 0;
 568:..\acn-sdk-c\src\mqtt\client\src/MQTTClient.c **** 
 569:..\acn-sdk-c\src\mqtt\client\src/MQTTClient.c **** #if defined(MQTT_TASK)
 570:..\acn-sdk-c\src\mqtt\client\src/MQTTClient.c ****   MutexLock(&c->mutex);
 571:..\acn-sdk-c\src\mqtt\client\src/MQTTClient.c **** #endif
ARM GAS  C:\Users\ddemidov\AppData\Local\Temp\cc7xZMtg.s 			page 40


 572:..\acn-sdk-c\src\mqtt\client\src/MQTTClient.c ****     TimerInit(&timer);
 1538              		.loc 1 572 0
 1539 0004 6846     		mov	r0, sp
 1540              	.LVL215:
 1541 0006 FFF7FEFF 		bl	TimerInit
 1542              	.LVL216:
 573:..\acn-sdk-c\src\mqtt\client\src/MQTTClient.c ****     TimerCountdownMS(&timer, c->command_timeout_ms);
 1543              		.loc 1 573 0
 1544 000a 6846     		mov	r0, sp
 1545 000c 6168     		ldr	r1, [r4, #4]
 1546 000e FFF7FEFF 		bl	TimerCountdownMS
 1547              	.LVL217:
 574:..\acn-sdk-c\src\mqtt\client\src/MQTTClient.c **** 
 575:..\acn-sdk-c\src\mqtt\client\src/MQTTClient.c ****   len = MQTTSerialize_disconnect(c->buf, (int)c->buf_size);
 1548              		.loc 1 575 0
 1549 0012 A168     		ldr	r1, [r4, #8]
 1550 0014 2069     		ldr	r0, [r4, #16]
 1551 0016 FFF7FEFF 		bl	MQTTSerialize_disconnect
 1552              	.LVL218:
 1553 001a 011E     		sub	r1, r0, #0
 1554              	.LVL219:
 576:..\acn-sdk-c\src\mqtt\client\src/MQTTClient.c ****     if (len > 0)
 1555              		.loc 1 576 0
 1556 001c 04DD     		ble	.L140
 577:..\acn-sdk-c\src\mqtt\client\src/MQTTClient.c ****         rc = sendPacket(c, len, &timer);            // send the disconnect packet
 1557              		.loc 1 577 0
 1558 001e 201C     		mov	r0, r4
 1559              	.LVL220:
 1560 0020 6A46     		mov	r2, sp
 1561 0022 FFF7FEFF 		bl	sendPacket
 1562              	.LVL221:
 1563 0026 01E0     		b	.L139
 1564              	.LVL222:
 1565              	.L140:
 565:..\acn-sdk-c\src\mqtt\client\src/MQTTClient.c ****     TimerInterval timer;     // we might wait for incomplete incoming publishes to complete
 1566              		.loc 1 565 0
 1567 0028 0120     		mov	r0, #1
 1568              	.LVL223:
 1569 002a 4042     		neg	r0, r0
 1570              	.LVL224:
 1571              	.L139:
 578:..\acn-sdk-c\src\mqtt\client\src/MQTTClient.c **** 
 579:..\acn-sdk-c\src\mqtt\client\src/MQTTClient.c ****     c->isconnected = 0;
 1572              		.loc 1 579 0
 1573 002c 0023     		mov	r3, #0
 1574 002e 2362     		str	r3, [r4, #32]
 580:..\acn-sdk-c\src\mqtt\client\src/MQTTClient.c **** 
 581:..\acn-sdk-c\src\mqtt\client\src/MQTTClient.c **** #if defined(MQTT_TASK)
 582:..\acn-sdk-c\src\mqtt\client\src/MQTTClient.c ****   MutexUnlock(&c->mutex);
 583:..\acn-sdk-c\src\mqtt\client\src/MQTTClient.c **** #endif
 584:..\acn-sdk-c\src\mqtt\client\src/MQTTClient.c ****     return rc;
 585:..\acn-sdk-c\src\mqtt\client\src/MQTTClient.c **** }
 1575              		.loc 1 585 0
 1576              		@ sp needed
 1577              	.LVL225:
 1578 0030 16BD     		pop	{r1, r2, r4, pc}
 1579              		.cfi_endproc
ARM GAS  C:\Users\ddemidov\AppData\Local\Temp\cc7xZMtg.s 			page 41


 1580              	.LFE17:
 1581              		.size	MQTTDisconnect, .-MQTTDisconnect
 1582              		.section	.rodata
 1583              		.align	2
 1584              		.set	.LANCHOR0,. + 0
 1585              	.LC0:
 1586 0000 4D       		.byte	77
 1587 0001 51       		.byte	81
 1588 0002 54       		.byte	84
 1589 0003 43       		.byte	67
 1590 0004 00000000 		.word	0
 1591 0008 04       		.byte	4
 1592 0009 000000   		.space	3
 1593 000c 00000000 		.word	0
 1594 0010 00000000 		.word	0
 1595 0014 00000000 		.word	0
 1596 0018 3C00     		.short	60
 1597 001a 01       		.byte	1
 1598 001b 00       		.byte	0
 1599 001c 4D       		.byte	77
 1600 001d 51       		.byte	81
 1601 001e 54       		.byte	84
 1602 001f 57       		.byte	87
 1603 0020 00000000 		.word	0
 1604 0024 00000000 		.word	0
 1605 0028 00000000 		.word	0
 1606 002c 00000000 		.word	0
 1607 0030 00000000 		.word	0
 1608 0034 00000000 		.word	0
 1609 0038 00000000 		.word	0
 1610 003c 00       		.byte	0
 1611 003d 00       		.byte	0
 1612 003e 0000     		.space	2
 1613 0040 00000000 		.word	0
 1614 0044 00000000 		.word	0
 1615 0048 00000000 		.word	0
 1616 004c 00000000 		.word	0
 1617 0050 00000000 		.word	0
 1618 0054 00000000 		.word	0
 1619              		.text
 1620              	.Letext0:
 1621              		.file 2 "..\\acn-sdk-c\\include/mqtt/packet/MQTTPacket.h"
 1622              		.file 3 "..\\acn-sdk-c\\include/mqtt/packet/MQTTConnect.h"
 1623              		.file 4 "c:\\program files (x86)\\cypress\\psoc creator\\3.3\\psoc creator\\import\\gnu\\arm\\4.9.
 1624              		.file 5 "c:\\program files (x86)\\cypress\\psoc creator\\3.3\\psoc creator\\import\\gnu\\arm\\4.9.
 1625              		.file 6 "..\\acn-sdk-c\\include/mqtt/client/network.h"
 1626              		.file 7 "..\\acn-sdk-c\\include/mqtt/client/MQTTClient.h"
 1627              		.file 8 "..\\acn-sdk-c\\include/mqtt/packet/MQTTPublish.h"
 1628              		.file 9 "..\\acn-sdk-c\\include/mqtt/packet/MQTTSubscribe.h"
 1629              		.file 10 "..\\acn-sdk-c\\include/mqtt/packet/MQTTUnsubscribe.h"