ARM GAS  C:\Users\ddemidov\AppData\Local\Temp\ccBEX3xw.s 			page 1


   1              		.cpu cortex-m0
   2              		.fpu softvfp
   3              		.eabi_attribute 20, 1
   4              		.eabi_attribute 21, 1
   5              		.eabi_attribute 23, 3
   6              		.eabi_attribute 24, 1
   7              		.eabi_attribute 25, 1
   8              		.eabi_attribute 26, 1
   9              		.eabi_attribute 30, 4
  10              		.eabi_attribute 34, 0
  11              		.eabi_attribute 18, 4
  12              		.code	16
  13              		.file	"MQTTPacket.c"
  14              		.text
  15              	.Ltext0:
  16              		.cfi_sections	.debug_frame
  17              		.section	.text.bufchar,"ax",%progbits
  18              		.align	1
  19              		.global	bufchar
  20              		.code	16
  21              		.thumb_func
  22              		.type	bufchar, %function
  23              	bufchar:
  24              	.LFB3:
  25              		.file 1 "..\\acn-sdk-c\\src\\mqtt\\packet\\src\\MQTTPacket.c"
   1:..\acn-sdk-c\src\mqtt\packet\src/MQTTPacket.c **** /*******************************************************************************
   2:..\acn-sdk-c\src\mqtt\packet\src/MQTTPacket.c ****  * Copyright (c) 2014 IBM Corp.
   3:..\acn-sdk-c\src\mqtt\packet\src/MQTTPacket.c ****  *
   4:..\acn-sdk-c\src\mqtt\packet\src/MQTTPacket.c ****  * All rights reserved. This program and the accompanying materials
   5:..\acn-sdk-c\src\mqtt\packet\src/MQTTPacket.c ****  * are made available under the terms of the Eclipse Public License v1.0
   6:..\acn-sdk-c\src\mqtt\packet\src/MQTTPacket.c ****  * and Eclipse Distribution License v1.0 which accompany this distribution.
   7:..\acn-sdk-c\src\mqtt\packet\src/MQTTPacket.c ****  *
   8:..\acn-sdk-c\src\mqtt\packet\src/MQTTPacket.c ****  * The Eclipse Public License is available at
   9:..\acn-sdk-c\src\mqtt\packet\src/MQTTPacket.c ****  *    http://www.eclipse.org/legal/epl-v10.html
  10:..\acn-sdk-c\src\mqtt\packet\src/MQTTPacket.c ****  * and the Eclipse Distribution License is available at
  11:..\acn-sdk-c\src\mqtt\packet\src/MQTTPacket.c ****  *   http://www.eclipse.org/org/documents/edl-v10.php.
  12:..\acn-sdk-c\src\mqtt\packet\src/MQTTPacket.c ****  *
  13:..\acn-sdk-c\src\mqtt\packet\src/MQTTPacket.c ****  * Contributors:
  14:..\acn-sdk-c\src\mqtt\packet\src/MQTTPacket.c ****  *    Ian Craggs - initial API and implementation and/or initial documentation
  15:..\acn-sdk-c\src\mqtt\packet\src/MQTTPacket.c ****  *    Sergio R. Caprile - non-blocking packet read functions for stream transport
  16:..\acn-sdk-c\src\mqtt\packet\src/MQTTPacket.c ****  *******************************************************************************/
  17:..\acn-sdk-c\src\mqtt\packet\src/MQTTPacket.c **** 
  18:..\acn-sdk-c\src\mqtt\packet\src/MQTTPacket.c **** #include <mqtt/packet/StackTrace.h>
  19:..\acn-sdk-c\src\mqtt\packet\src/MQTTPacket.c **** #include "mqtt/packet/MQTTPacket.h"
  20:..\acn-sdk-c\src\mqtt\packet\src/MQTTPacket.c **** 
  21:..\acn-sdk-c\src\mqtt\packet\src/MQTTPacket.c **** #include <string.h>
  22:..\acn-sdk-c\src\mqtt\packet\src/MQTTPacket.c **** 
  23:..\acn-sdk-c\src\mqtt\packet\src/MQTTPacket.c **** /**
  24:..\acn-sdk-c\src\mqtt\packet\src/MQTTPacket.c ****  * Encodes the message length according to the MQTT algorithm
  25:..\acn-sdk-c\src\mqtt\packet\src/MQTTPacket.c ****  * @param buf the buffer into which the encoded data is written
  26:..\acn-sdk-c\src\mqtt\packet\src/MQTTPacket.c ****  * @param length the length to be encoded
  27:..\acn-sdk-c\src\mqtt\packet\src/MQTTPacket.c ****  * @return the number of bytes written to buffer
  28:..\acn-sdk-c\src\mqtt\packet\src/MQTTPacket.c ****  */
  29:..\acn-sdk-c\src\mqtt\packet\src/MQTTPacket.c **** int MQTTPacket_encode(unsigned char* buf, int length)
  30:..\acn-sdk-c\src\mqtt\packet\src/MQTTPacket.c **** {
  31:..\acn-sdk-c\src\mqtt\packet\src/MQTTPacket.c **** 	int rc = 0;
  32:..\acn-sdk-c\src\mqtt\packet\src/MQTTPacket.c **** 
ARM GAS  C:\Users\ddemidov\AppData\Local\Temp\ccBEX3xw.s 			page 2


  33:..\acn-sdk-c\src\mqtt\packet\src/MQTTPacket.c **** 	FUNC_ENTRY;
  34:..\acn-sdk-c\src\mqtt\packet\src/MQTTPacket.c **** 	do
  35:..\acn-sdk-c\src\mqtt\packet\src/MQTTPacket.c **** 	{
  36:..\acn-sdk-c\src\mqtt\packet\src/MQTTPacket.c **** 		char d = length % 128;
  37:..\acn-sdk-c\src\mqtt\packet\src/MQTTPacket.c **** 		length /= 128;
  38:..\acn-sdk-c\src\mqtt\packet\src/MQTTPacket.c **** 		/* if there are more digits to encode, set the top bit of this digit */
  39:..\acn-sdk-c\src\mqtt\packet\src/MQTTPacket.c **** 		if (length > 0)
  40:..\acn-sdk-c\src\mqtt\packet\src/MQTTPacket.c **** 			d |= 0x80;
  41:..\acn-sdk-c\src\mqtt\packet\src/MQTTPacket.c **** 		buf[rc++] = d;
  42:..\acn-sdk-c\src\mqtt\packet\src/MQTTPacket.c **** 	} while (length > 0);
  43:..\acn-sdk-c\src\mqtt\packet\src/MQTTPacket.c **** 	FUNC_EXIT_RC(rc);
  44:..\acn-sdk-c\src\mqtt\packet\src/MQTTPacket.c **** 	return rc;
  45:..\acn-sdk-c\src\mqtt\packet\src/MQTTPacket.c **** }
  46:..\acn-sdk-c\src\mqtt\packet\src/MQTTPacket.c **** 
  47:..\acn-sdk-c\src\mqtt\packet\src/MQTTPacket.c **** 
  48:..\acn-sdk-c\src\mqtt\packet\src/MQTTPacket.c **** /**
  49:..\acn-sdk-c\src\mqtt\packet\src/MQTTPacket.c ****  * Decodes the message length according to the MQTT algorithm
  50:..\acn-sdk-c\src\mqtt\packet\src/MQTTPacket.c ****  * @param getcharfn pointer to function to read the next character from the data source
  51:..\acn-sdk-c\src\mqtt\packet\src/MQTTPacket.c ****  * @param value the decoded length returned
  52:..\acn-sdk-c\src\mqtt\packet\src/MQTTPacket.c ****  * @return the number of bytes read from the socket
  53:..\acn-sdk-c\src\mqtt\packet\src/MQTTPacket.c ****  */
  54:..\acn-sdk-c\src\mqtt\packet\src/MQTTPacket.c **** int MQTTPacket_decode(int (*getcharfn)(unsigned char*, int), int* value)
  55:..\acn-sdk-c\src\mqtt\packet\src/MQTTPacket.c **** {
  56:..\acn-sdk-c\src\mqtt\packet\src/MQTTPacket.c **** 	unsigned char c;
  57:..\acn-sdk-c\src\mqtt\packet\src/MQTTPacket.c **** 	int multiplier = 1;
  58:..\acn-sdk-c\src\mqtt\packet\src/MQTTPacket.c **** 	int len = 0;
  59:..\acn-sdk-c\src\mqtt\packet\src/MQTTPacket.c **** #define MAX_NO_OF_REMAINING_LENGTH_BYTES 4
  60:..\acn-sdk-c\src\mqtt\packet\src/MQTTPacket.c **** 
  61:..\acn-sdk-c\src\mqtt\packet\src/MQTTPacket.c **** 	FUNC_ENTRY;
  62:..\acn-sdk-c\src\mqtt\packet\src/MQTTPacket.c **** 	*value = 0;
  63:..\acn-sdk-c\src\mqtt\packet\src/MQTTPacket.c **** 	do
  64:..\acn-sdk-c\src\mqtt\packet\src/MQTTPacket.c **** 	{
  65:..\acn-sdk-c\src\mqtt\packet\src/MQTTPacket.c **** 		int rc = MQTTPACKET_READ_ERROR;
  66:..\acn-sdk-c\src\mqtt\packet\src/MQTTPacket.c **** 
  67:..\acn-sdk-c\src\mqtt\packet\src/MQTTPacket.c **** 		if (++len > MAX_NO_OF_REMAINING_LENGTH_BYTES)
  68:..\acn-sdk-c\src\mqtt\packet\src/MQTTPacket.c **** 		{
  69:..\acn-sdk-c\src\mqtt\packet\src/MQTTPacket.c **** 			rc = MQTTPACKET_READ_ERROR;	/* bad data */
  70:..\acn-sdk-c\src\mqtt\packet\src/MQTTPacket.c **** 			goto exit;
  71:..\acn-sdk-c\src\mqtt\packet\src/MQTTPacket.c **** 		}
  72:..\acn-sdk-c\src\mqtt\packet\src/MQTTPacket.c **** 		rc = (*getcharfn)(&c, 1);
  73:..\acn-sdk-c\src\mqtt\packet\src/MQTTPacket.c **** 		if (rc != 1)
  74:..\acn-sdk-c\src\mqtt\packet\src/MQTTPacket.c **** 			goto exit;
  75:..\acn-sdk-c\src\mqtt\packet\src/MQTTPacket.c **** 		*value += (c & 127) * multiplier;
  76:..\acn-sdk-c\src\mqtt\packet\src/MQTTPacket.c **** 		multiplier *= 128;
  77:..\acn-sdk-c\src\mqtt\packet\src/MQTTPacket.c **** 	} while ((c & 128) != 0);
  78:..\acn-sdk-c\src\mqtt\packet\src/MQTTPacket.c **** exit:
  79:..\acn-sdk-c\src\mqtt\packet\src/MQTTPacket.c **** 	FUNC_EXIT_RC(len);
  80:..\acn-sdk-c\src\mqtt\packet\src/MQTTPacket.c **** 	return len;
  81:..\acn-sdk-c\src\mqtt\packet\src/MQTTPacket.c **** }
  82:..\acn-sdk-c\src\mqtt\packet\src/MQTTPacket.c **** 
  83:..\acn-sdk-c\src\mqtt\packet\src/MQTTPacket.c **** 
  84:..\acn-sdk-c\src\mqtt\packet\src/MQTTPacket.c **** int MQTTPacket_len(int rem_len)
  85:..\acn-sdk-c\src\mqtt\packet\src/MQTTPacket.c **** {
  86:..\acn-sdk-c\src\mqtt\packet\src/MQTTPacket.c **** 	rem_len += 1; /* header byte */
  87:..\acn-sdk-c\src\mqtt\packet\src/MQTTPacket.c **** 
  88:..\acn-sdk-c\src\mqtt\packet\src/MQTTPacket.c **** 	/* now remaining_length field */
  89:..\acn-sdk-c\src\mqtt\packet\src/MQTTPacket.c **** 	if (rem_len < 128)
ARM GAS  C:\Users\ddemidov\AppData\Local\Temp\ccBEX3xw.s 			page 3


  90:..\acn-sdk-c\src\mqtt\packet\src/MQTTPacket.c **** 		rem_len += 1;
  91:..\acn-sdk-c\src\mqtt\packet\src/MQTTPacket.c **** 	else if (rem_len < 16384)
  92:..\acn-sdk-c\src\mqtt\packet\src/MQTTPacket.c **** 		rem_len += 2;
  93:..\acn-sdk-c\src\mqtt\packet\src/MQTTPacket.c **** 	else if (rem_len < 2097151)
  94:..\acn-sdk-c\src\mqtt\packet\src/MQTTPacket.c **** 		rem_len += 3;
  95:..\acn-sdk-c\src\mqtt\packet\src/MQTTPacket.c **** 	else
  96:..\acn-sdk-c\src\mqtt\packet\src/MQTTPacket.c **** 		rem_len += 4;
  97:..\acn-sdk-c\src\mqtt\packet\src/MQTTPacket.c **** 	return rem_len;
  98:..\acn-sdk-c\src\mqtt\packet\src/MQTTPacket.c **** }
  99:..\acn-sdk-c\src\mqtt\packet\src/MQTTPacket.c **** 
 100:..\acn-sdk-c\src\mqtt\packet\src/MQTTPacket.c **** 
 101:..\acn-sdk-c\src\mqtt\packet\src/MQTTPacket.c **** static unsigned char* bufptr;
 102:..\acn-sdk-c\src\mqtt\packet\src/MQTTPacket.c **** 
 103:..\acn-sdk-c\src\mqtt\packet\src/MQTTPacket.c **** int bufchar(unsigned char* c, int count)
 104:..\acn-sdk-c\src\mqtt\packet\src/MQTTPacket.c **** {
  26              		.loc 1 104 0
  27              		.cfi_startproc
  28              	.LVL0:
  29 0000 30B5     		push	{r4, r5, lr}
  30              		.cfi_def_cfa_offset 12
  31              		.cfi_offset 4, -12
  32              		.cfi_offset 5, -8
  33              		.cfi_offset 14, -4
  34 0002 084C     		ldr	r4, .L7
  35 0004 2568     		ldr	r5, [r4]
 105:..\acn-sdk-c\src\mqtt\packet\src/MQTTPacket.c **** 	int i;
 106:..\acn-sdk-c\src\mqtt\packet\src/MQTTPacket.c **** 
 107:..\acn-sdk-c\src\mqtt\packet\src/MQTTPacket.c **** 	for (i = 0; i < count; ++i)
  36              		.loc 1 107 0
  37 0006 2A1C     		mov	r2, r5
  38              	.LVL1:
  39              	.L2:
  40 0008 531B     		sub	r3, r2, r5
  41              	.LVL2:
  42              		.loc 1 107 0 is_stmt 0 discriminator 1
  43 000a 8B42     		cmp	r3, r1
  44 000c 03DA     		bge	.L6
 108:..\acn-sdk-c\src\mqtt\packet\src/MQTTPacket.c **** 		*c = *bufptr++;
  45              		.loc 1 108 0 is_stmt 1 discriminator 3
  46 000e 1378     		ldrb	r3, [r2]
  47              	.LVL3:
  48 0010 0132     		add	r2, r2, #1
  49              	.LVL4:
  50 0012 0370     		strb	r3, [r0]
  51              	.LVL5:
  52 0014 F8E7     		b	.L2
  53              	.LVL6:
  54              	.L6:
  55 0016 CB43     		mvn	r3, r1
  56              	.LVL7:
  57 0018 DB17     		asr	r3, r3, #31
  58 001a 0B40     		and	r3, r1
  59 001c EB18     		add	r3, r5, r3
 109:..\acn-sdk-c\src\mqtt\packet\src/MQTTPacket.c **** 	return count;
 110:..\acn-sdk-c\src\mqtt\packet\src/MQTTPacket.c **** }
  60              		.loc 1 110 0
  61 001e 081C     		mov	r0, r1
ARM GAS  C:\Users\ddemidov\AppData\Local\Temp\ccBEX3xw.s 			page 4


  62              	.LVL8:
  63 0020 2360     		str	r3, [r4]
  64              		@ sp needed
  65              	.LVL9:
  66 0022 30BD     		pop	{r4, r5, pc}
  67              	.L8:
  68              		.align	2
  69              	.L7:
  70 0024 00000000 		.word	.LANCHOR0
  71              		.cfi_endproc
  72              	.LFE3:
  73              		.size	bufchar, .-bufchar
  74              		.section	.text.MQTTPacket_encode,"ax",%progbits
  75              		.align	1
  76              		.global	MQTTPacket_encode
  77              		.code	16
  78              		.thumb_func
  79              		.type	MQTTPacket_encode, %function
  80              	MQTTPacket_encode:
  81              	.LFB0:
  30:..\acn-sdk-c\src\mqtt\packet\src/MQTTPacket.c **** 	int rc = 0;
  82              		.loc 1 30 0
  83              		.cfi_startproc
  84              	.LVL10:
  85 0000 10B5     		push	{r4, lr}
  86              		.cfi_def_cfa_offset 8
  87              		.cfi_offset 4, -8
  88              		.cfi_offset 14, -4
  31:..\acn-sdk-c\src\mqtt\packet\src/MQTTPacket.c **** 
  89              		.loc 1 31 0
  90 0002 0024     		mov	r4, #0
  91              	.LVL11:
  92              	.L12:
  93              	.LBB2:
  36:..\acn-sdk-c\src\mqtt\packet\src/MQTTPacket.c **** 		length /= 128;
  94              		.loc 1 36 0
  95 0004 0B4B     		ldr	r3, .L13
  96 0006 0B40     		and	r3, r1
  97 0008 04D5     		bpl	.L10
  98 000a 8022     		mov	r2, #128
  99 000c 013B     		sub	r3, r3, #1
 100 000e 5242     		neg	r2, r2
 101 0010 1343     		orr	r3, r2
 102 0012 0133     		add	r3, r3, #1
 103              	.L10:
  37:..\acn-sdk-c\src\mqtt\packet\src/MQTTPacket.c **** 		/* if there are more digits to encode, set the top bit of this digit */
 104              		.loc 1 37 0
 105 0014 CA17     		asr	r2, r1, #31
 106 0016 520E     		lsr	r2, r2, #25
 107 0018 5118     		add	r1, r2, r1
 108              	.LVL12:
  36:..\acn-sdk-c\src\mqtt\packet\src/MQTTPacket.c **** 		length /= 128;
 109              		.loc 1 36 0
 110 001a DBB2     		uxtb	r3, r3
 111              	.LVL13:
  37:..\acn-sdk-c\src\mqtt\packet\src/MQTTPacket.c **** 		/* if there are more digits to encode, set the top bit of this digit */
 112              		.loc 1 37 0
ARM GAS  C:\Users\ddemidov\AppData\Local\Temp\ccBEX3xw.s 			page 5


 113 001c C911     		asr	r1, r1, #7
 114              	.LVL14:
  39:..\acn-sdk-c\src\mqtt\packet\src/MQTTPacket.c **** 			d |= 0x80;
 115              		.loc 1 39 0
 116 001e 0029     		cmp	r1, #0
 117 0020 01DD     		ble	.L11
  40:..\acn-sdk-c\src\mqtt\packet\src/MQTTPacket.c **** 		buf[rc++] = d;
 118              		.loc 1 40 0
 119 0022 8022     		mov	r2, #128
 120              	.LVL15:
 121 0024 1343     		orr	r3, r2
 122              	.LVL16:
 123              	.L11:
  41:..\acn-sdk-c\src\mqtt\packet\src/MQTTPacket.c **** 	} while (length > 0);
 124              		.loc 1 41 0
 125 0026 0134     		add	r4, r4, #1
 126              	.LVL17:
 127 0028 621E     		sub	r2, r4, #1
 128 002a 8354     		strb	r3, [r0, r2]
 129              	.LBE2:
  42:..\acn-sdk-c\src\mqtt\packet\src/MQTTPacket.c **** 	FUNC_EXIT_RC(rc);
 130              		.loc 1 42 0
 131 002c 0029     		cmp	r1, #0
 132 002e E9DC     		bgt	.L12
  45:..\acn-sdk-c\src\mqtt\packet\src/MQTTPacket.c **** 
 133              		.loc 1 45 0
 134 0030 201C     		mov	r0, r4
 135              	.LVL18:
 136              		@ sp needed
 137              	.LVL19:
 138 0032 10BD     		pop	{r4, pc}
 139              	.L14:
 140              		.align	2
 141              	.L13:
 142 0034 7F000080 		.word	-2147483521
 143              		.cfi_endproc
 144              	.LFE0:
 145              		.size	MQTTPacket_encode, .-MQTTPacket_encode
 146              		.section	.text.MQTTPacket_decode,"ax",%progbits
 147              		.align	1
 148              		.global	MQTTPacket_decode
 149              		.code	16
 150              		.thumb_func
 151              		.type	MQTTPacket_decode, %function
 152              	MQTTPacket_decode:
 153              	.LFB1:
  55:..\acn-sdk-c\src\mqtt\packet\src/MQTTPacket.c **** 	unsigned char c;
 154              		.loc 1 55 0
 155              		.cfi_startproc
 156              	.LVL20:
 157 0000 F0B5     		push	{r4, r5, r6, r7, lr}
 158              		.cfi_def_cfa_offset 20
 159              		.cfi_offset 4, -20
 160              		.cfi_offset 5, -16
 161              		.cfi_offset 6, -12
 162              		.cfi_offset 7, -8
 163              		.cfi_offset 14, -4
ARM GAS  C:\Users\ddemidov\AppData\Local\Temp\ccBEX3xw.s 			page 6


  62:..\acn-sdk-c\src\mqtt\packet\src/MQTTPacket.c **** 	do
 164              		.loc 1 62 0
 165 0002 0024     		mov	r4, #0
  55:..\acn-sdk-c\src\mqtt\packet\src/MQTTPacket.c **** 	unsigned char c;
 166              		.loc 1 55 0
 167 0004 0E1C     		mov	r6, r1
  57:..\acn-sdk-c\src\mqtt\packet\src/MQTTPacket.c **** 	int len = 0;
 168              		.loc 1 57 0
 169 0006 0125     		mov	r5, #1
  55:..\acn-sdk-c\src\mqtt\packet\src/MQTTPacket.c **** 	unsigned char c;
 170              		.loc 1 55 0
 171 0008 85B0     		sub	sp, sp, #20
 172              		.cfi_def_cfa_offset 40
  55:..\acn-sdk-c\src\mqtt\packet\src/MQTTPacket.c **** 	unsigned char c;
 173              		.loc 1 55 0
 174 000a 0190     		str	r0, [sp, #4]
  62:..\acn-sdk-c\src\mqtt\packet\src/MQTTPacket.c **** 	do
 175              		.loc 1 62 0
 176 000c 0C60     		str	r4, [r1]
 177              	.LVL21:
 178              	.L17:
 179              	.LBB3:
  67:..\acn-sdk-c\src\mqtt\packet\src/MQTTPacket.c **** 		{
 180              		.loc 1 67 0
 181 000e 0134     		add	r4, r4, #1
 182              	.LVL22:
 183 0010 052C     		cmp	r4, #5
 184 0012 12D0     		beq	.L16
  72:..\acn-sdk-c\src\mqtt\packet\src/MQTTPacket.c **** 		if (rc != 1)
 185              		.loc 1 72 0
 186 0014 02AB     		add	r3, sp, #8
 187 0016 DF1D     		add	r7, r3, #7
 188 0018 381C     		mov	r0, r7
 189 001a 0121     		mov	r1, #1
 190 001c 019B     		ldr	r3, [sp, #4]
 191 001e 9847     		blx	r3
 192              	.LVL23:
  73:..\acn-sdk-c\src\mqtt\packet\src/MQTTPacket.c **** 			goto exit;
 193              		.loc 1 73 0
 194 0020 0128     		cmp	r0, #1
 195 0022 0AD1     		bne	.L16
  75:..\acn-sdk-c\src\mqtt\packet\src/MQTTPacket.c **** 		multiplier *= 128;
 196              		.loc 1 75 0
 197 0024 7F23     		mov	r3, #127
 198 0026 3A78     		ldrb	r2, [r7]
 199 0028 3168     		ldr	r1, [r6]
 200 002a 1340     		and	r3, r2
 201 002c 6B43     		mul	r3, r5
 202              	.LBE3:
  77:..\acn-sdk-c\src\mqtt\packet\src/MQTTPacket.c **** exit:
 203              		.loc 1 77 0
 204 002e 52B2     		sxtb	r2, r2
 205              	.LBB4:
  75:..\acn-sdk-c\src\mqtt\packet\src/MQTTPacket.c **** 		multiplier *= 128;
 206              		.loc 1 75 0
 207 0030 CB18     		add	r3, r1, r3
 208 0032 3360     		str	r3, [r6]
ARM GAS  C:\Users\ddemidov\AppData\Local\Temp\ccBEX3xw.s 			page 7


  76:..\acn-sdk-c\src\mqtt\packet\src/MQTTPacket.c **** 	} while ((c & 128) != 0);
 209              		.loc 1 76 0
 210 0034 ED01     		lsl	r5, r5, #7
 211              	.LVL24:
 212              	.LBE4:
  77:..\acn-sdk-c\src\mqtt\packet\src/MQTTPacket.c **** exit:
 213              		.loc 1 77 0
 214 0036 002A     		cmp	r2, #0
 215 0038 E9DB     		blt	.L17
 216              	.LVL25:
 217              	.L16:
  81:..\acn-sdk-c\src\mqtt\packet\src/MQTTPacket.c **** 
 218              		.loc 1 81 0
 219 003a 201C     		mov	r0, r4
 220 003c 05B0     		add	sp, sp, #20
 221              		@ sp needed
 222              	.LVL26:
 223              	.LVL27:
 224              	.LVL28:
 225 003e F0BD     		pop	{r4, r5, r6, r7, pc}
 226              		.cfi_endproc
 227              	.LFE1:
 228              		.size	MQTTPacket_decode, .-MQTTPacket_decode
 229              		.section	.text.MQTTPacket_len,"ax",%progbits
 230              		.align	1
 231              		.global	MQTTPacket_len
 232              		.code	16
 233              		.thumb_func
 234              		.type	MQTTPacket_len, %function
 235              	MQTTPacket_len:
 236              	.LFB2:
  85:..\acn-sdk-c\src\mqtt\packet\src/MQTTPacket.c **** 	rem_len += 1; /* header byte */
 237              		.loc 1 85 0
 238              		.cfi_startproc
 239              	.LVL29:
  86:..\acn-sdk-c\src\mqtt\packet\src/MQTTPacket.c **** 
 240              		.loc 1 86 0
 241 0000 421C     		add	r2, r0, #1
 242              	.LVL30:
  85:..\acn-sdk-c\src\mqtt\packet\src/MQTTPacket.c **** 	rem_len += 1; /* header byte */
 243              		.loc 1 85 0
 244 0002 031C     		mov	r3, r0
  90:..\acn-sdk-c\src\mqtt\packet\src/MQTTPacket.c **** 	else if (rem_len < 16384)
 245              		.loc 1 90 0
 246 0004 0230     		add	r0, r0, #2
  89:..\acn-sdk-c\src\mqtt\packet\src/MQTTPacket.c **** 		rem_len += 1;
 247              		.loc 1 89 0
 248 0006 7F2A     		cmp	r2, #127
 249 0008 08DD     		ble	.L23
  91:..\acn-sdk-c\src\mqtt\packet\src/MQTTPacket.c **** 		rem_len += 2;
 250              		.loc 1 91 0
 251 000a 0549     		ldr	r1, .L26
  92:..\acn-sdk-c\src\mqtt\packet\src/MQTTPacket.c **** 	else if (rem_len < 2097151)
 252              		.loc 1 92 0
 253 000c D81C     		add	r0, r3, #3
  91:..\acn-sdk-c\src\mqtt\packet\src/MQTTPacket.c **** 		rem_len += 2;
 254              		.loc 1 91 0
ARM GAS  C:\Users\ddemidov\AppData\Local\Temp\ccBEX3xw.s 			page 8


 255 000e 8A42     		cmp	r2, r1
 256 0010 04DD     		ble	.L23
  93:..\acn-sdk-c\src\mqtt\packet\src/MQTTPacket.c **** 		rem_len += 3;
 257              		.loc 1 93 0
 258 0012 0449     		ldr	r1, .L26+4
  96:..\acn-sdk-c\src\mqtt\packet\src/MQTTPacket.c **** 	return rem_len;
 259              		.loc 1 96 0
 260 0014 581D     		add	r0, r3, #5
  93:..\acn-sdk-c\src\mqtt\packet\src/MQTTPacket.c **** 		rem_len += 3;
 261              		.loc 1 93 0
 262 0016 8A42     		cmp	r2, r1
 263 0018 00DC     		bgt	.L23
  94:..\acn-sdk-c\src\mqtt\packet\src/MQTTPacket.c **** 	else
 264              		.loc 1 94 0
 265 001a 181D     		add	r0, r3, #4
 266              	.LVL31:
 267              	.L23:
  98:..\acn-sdk-c\src\mqtt\packet\src/MQTTPacket.c **** 
 268              		.loc 1 98 0
 269              		@ sp needed
 270 001c 7047     		bx	lr
 271              	.L27:
 272 001e C046     		.align	2
 273              	.L26:
 274 0020 FF3F0000 		.word	16383
 275 0024 FEFF1F00 		.word	2097150
 276              		.cfi_endproc
 277              	.LFE2:
 278              		.size	MQTTPacket_len, .-MQTTPacket_len
 279              		.section	.text.MQTTPacket_decodeBuf,"ax",%progbits
 280              		.align	1
 281              		.global	MQTTPacket_decodeBuf
 282              		.code	16
 283              		.thumb_func
 284              		.type	MQTTPacket_decodeBuf, %function
 285              	MQTTPacket_decodeBuf:
 286              	.LFB4:
 111:..\acn-sdk-c\src\mqtt\packet\src/MQTTPacket.c **** 
 112:..\acn-sdk-c\src\mqtt\packet\src/MQTTPacket.c **** 
 113:..\acn-sdk-c\src\mqtt\packet\src/MQTTPacket.c **** int MQTTPacket_decodeBuf(unsigned char* buf, int* value)
 114:..\acn-sdk-c\src\mqtt\packet\src/MQTTPacket.c **** {
 287              		.loc 1 114 0
 288              		.cfi_startproc
 289              	.LVL32:
 290 0000 08B5     		push	{r3, lr}
 291              		.cfi_def_cfa_offset 8
 292              		.cfi_offset 3, -8
 293              		.cfi_offset 14, -4
 115:..\acn-sdk-c\src\mqtt\packet\src/MQTTPacket.c **** 	bufptr = buf;
 294              		.loc 1 115 0
 295 0002 034B     		ldr	r3, .L29
 116:..\acn-sdk-c\src\mqtt\packet\src/MQTTPacket.c **** 	return MQTTPacket_decode(bufchar, value);
 117:..\acn-sdk-c\src\mqtt\packet\src/MQTTPacket.c **** }
 296              		.loc 1 117 0
 297              		@ sp needed
 115:..\acn-sdk-c\src\mqtt\packet\src/MQTTPacket.c **** 	bufptr = buf;
 298              		.loc 1 115 0
ARM GAS  C:\Users\ddemidov\AppData\Local\Temp\ccBEX3xw.s 			page 9


 299 0004 1860     		str	r0, [r3]
 116:..\acn-sdk-c\src\mqtt\packet\src/MQTTPacket.c **** 	return MQTTPacket_decode(bufchar, value);
 300              		.loc 1 116 0
 301 0006 0348     		ldr	r0, .L29+4
 302              	.LVL33:
 303 0008 FFF7FEFF 		bl	MQTTPacket_decode
 304              	.LVL34:
 305              		.loc 1 117 0
 306 000c 08BD     		pop	{r3, pc}
 307              	.L30:
 308 000e C046     		.align	2
 309              	.L29:
 310 0010 00000000 		.word	.LANCHOR0
 311 0014 00000000 		.word	bufchar
 312              		.cfi_endproc
 313              	.LFE4:
 314              		.size	MQTTPacket_decodeBuf, .-MQTTPacket_decodeBuf
 315              		.section	.text.readInt,"ax",%progbits
 316              		.align	1
 317              		.global	readInt
 318              		.code	16
 319              		.thumb_func
 320              		.type	readInt, %function
 321              	readInt:
 322              	.LFB5:
 118:..\acn-sdk-c\src\mqtt\packet\src/MQTTPacket.c **** 
 119:..\acn-sdk-c\src\mqtt\packet\src/MQTTPacket.c **** 
 120:..\acn-sdk-c\src\mqtt\packet\src/MQTTPacket.c **** /**
 121:..\acn-sdk-c\src\mqtt\packet\src/MQTTPacket.c ****  * Calculates an integer from two bytes read from the input buffer
 122:..\acn-sdk-c\src\mqtt\packet\src/MQTTPacket.c ****  * @param pptr pointer to the input buffer - incremented by the number of bytes used & returned
 123:..\acn-sdk-c\src\mqtt\packet\src/MQTTPacket.c ****  * @return the integer value calculated
 124:..\acn-sdk-c\src\mqtt\packet\src/MQTTPacket.c ****  */
 125:..\acn-sdk-c\src\mqtt\packet\src/MQTTPacket.c **** int readInt(unsigned char** pptr)
 126:..\acn-sdk-c\src\mqtt\packet\src/MQTTPacket.c **** {
 323              		.loc 1 126 0
 324              		.cfi_startproc
 325              	.LVL35:
 326 0000 10B5     		push	{r4, lr}
 327              		.cfi_def_cfa_offset 8
 328              		.cfi_offset 4, -8
 329              		.cfi_offset 14, -4
 330              		.loc 1 126 0
 331 0002 041C     		mov	r4, r0
 127:..\acn-sdk-c\src\mqtt\packet\src/MQTTPacket.c **** 	unsigned char* ptr = *pptr;
 332              		.loc 1 127 0
 333 0004 0368     		ldr	r3, [r0]
 334              	.LVL36:
 128:..\acn-sdk-c\src\mqtt\packet\src/MQTTPacket.c **** 	int len = 256*(*ptr) + (*(ptr+1));
 129:..\acn-sdk-c\src\mqtt\packet\src/MQTTPacket.c **** 	*pptr += 2;
 130:..\acn-sdk-c\src\mqtt\packet\src/MQTTPacket.c **** 	return len;
 131:..\acn-sdk-c\src\mqtt\packet\src/MQTTPacket.c **** }
 335              		.loc 1 131 0
 336              		@ sp needed
 128:..\acn-sdk-c\src\mqtt\packet\src/MQTTPacket.c **** 	int len = 256*(*ptr) + (*(ptr+1));
 337              		.loc 1 128 0
 338 0006 1978     		ldrb	r1, [r3]
 339 0008 5A78     		ldrb	r2, [r3, #1]
ARM GAS  C:\Users\ddemidov\AppData\Local\Temp\ccBEX3xw.s 			page 10


 340 000a 0902     		lsl	r1, r1, #8
 129:..\acn-sdk-c\src\mqtt\packet\src/MQTTPacket.c **** 	return len;
 341              		.loc 1 129 0
 342 000c 0233     		add	r3, r3, #2
 343              	.LVL37:
 128:..\acn-sdk-c\src\mqtt\packet\src/MQTTPacket.c **** 	int len = 256*(*ptr) + (*(ptr+1));
 344              		.loc 1 128 0
 345 000e 8818     		add	r0, r1, r2
 346              	.LVL38:
 129:..\acn-sdk-c\src\mqtt\packet\src/MQTTPacket.c **** 	return len;
 347              		.loc 1 129 0
 348 0010 2360     		str	r3, [r4]
 349              	.LVL39:
 350              	.LVL40:
 351              		.loc 1 131 0
 352 0012 10BD     		pop	{r4, pc}
 353              		.cfi_endproc
 354              	.LFE5:
 355              		.size	readInt, .-readInt
 356              		.section	.text.readChar,"ax",%progbits
 357              		.align	1
 358              		.global	readChar
 359              		.code	16
 360              		.thumb_func
 361              		.type	readChar, %function
 362              	readChar:
 363              	.LFB6:
 132:..\acn-sdk-c\src\mqtt\packet\src/MQTTPacket.c **** 
 133:..\acn-sdk-c\src\mqtt\packet\src/MQTTPacket.c **** 
 134:..\acn-sdk-c\src\mqtt\packet\src/MQTTPacket.c **** /**
 135:..\acn-sdk-c\src\mqtt\packet\src/MQTTPacket.c ****  * Reads one character from the input buffer.
 136:..\acn-sdk-c\src\mqtt\packet\src/MQTTPacket.c ****  * @param pptr pointer to the input buffer - incremented by the number of bytes used & returned
 137:..\acn-sdk-c\src\mqtt\packet\src/MQTTPacket.c ****  * @return the character read
 138:..\acn-sdk-c\src\mqtt\packet\src/MQTTPacket.c ****  */
 139:..\acn-sdk-c\src\mqtt\packet\src/MQTTPacket.c **** char readChar(unsigned char** pptr)
 140:..\acn-sdk-c\src\mqtt\packet\src/MQTTPacket.c **** {
 364              		.loc 1 140 0
 365              		.cfi_startproc
 366              	.LVL41:
 367              		.loc 1 140 0
 368 0000 021C     		mov	r2, r0
 141:..\acn-sdk-c\src\mqtt\packet\src/MQTTPacket.c **** 	char c = **pptr;
 369              		.loc 1 141 0
 370 0002 0368     		ldr	r3, [r0]
 142:..\acn-sdk-c\src\mqtt\packet\src/MQTTPacket.c **** 	(*pptr)++;
 143:..\acn-sdk-c\src\mqtt\packet\src/MQTTPacket.c **** 	return c;
 144:..\acn-sdk-c\src\mqtt\packet\src/MQTTPacket.c **** }
 371              		.loc 1 144 0
 372              		@ sp needed
 141:..\acn-sdk-c\src\mqtt\packet\src/MQTTPacket.c **** 	char c = **pptr;
 373              		.loc 1 141 0
 374 0004 1878     		ldrb	r0, [r3]
 375              	.LVL42:
 142:..\acn-sdk-c\src\mqtt\packet\src/MQTTPacket.c **** 	(*pptr)++;
 376              		.loc 1 142 0
 377 0006 0133     		add	r3, r3, #1
 378 0008 1360     		str	r3, [r2]
ARM GAS  C:\Users\ddemidov\AppData\Local\Temp\ccBEX3xw.s 			page 11


 379              		.loc 1 144 0
 380 000a 7047     		bx	lr
 381              		.cfi_endproc
 382              	.LFE6:
 383              		.size	readChar, .-readChar
 384              		.section	.text.writeChar,"ax",%progbits
 385              		.align	1
 386              		.global	writeChar
 387              		.code	16
 388              		.thumb_func
 389              		.type	writeChar, %function
 390              	writeChar:
 391              	.LFB7:
 145:..\acn-sdk-c\src\mqtt\packet\src/MQTTPacket.c **** 
 146:..\acn-sdk-c\src\mqtt\packet\src/MQTTPacket.c **** 
 147:..\acn-sdk-c\src\mqtt\packet\src/MQTTPacket.c **** /**
 148:..\acn-sdk-c\src\mqtt\packet\src/MQTTPacket.c ****  * Writes one character to an output buffer.
 149:..\acn-sdk-c\src\mqtt\packet\src/MQTTPacket.c ****  * @param pptr pointer to the output buffer - incremented by the number of bytes used & returned
 150:..\acn-sdk-c\src\mqtt\packet\src/MQTTPacket.c ****  * @param c the character to write
 151:..\acn-sdk-c\src\mqtt\packet\src/MQTTPacket.c ****  */
 152:..\acn-sdk-c\src\mqtt\packet\src/MQTTPacket.c **** void writeChar(unsigned char** pptr, char c)
 153:..\acn-sdk-c\src\mqtt\packet\src/MQTTPacket.c **** {
 392              		.loc 1 153 0
 393              		.cfi_startproc
 394              	.LVL43:
 154:..\acn-sdk-c\src\mqtt\packet\src/MQTTPacket.c **** 	**pptr = c;
 395              		.loc 1 154 0
 396 0000 0368     		ldr	r3, [r0]
 155:..\acn-sdk-c\src\mqtt\packet\src/MQTTPacket.c **** 	(*pptr)++;
 156:..\acn-sdk-c\src\mqtt\packet\src/MQTTPacket.c **** }
 397              		.loc 1 156 0
 398              		@ sp needed
 154:..\acn-sdk-c\src\mqtt\packet\src/MQTTPacket.c **** 	**pptr = c;
 399              		.loc 1 154 0
 400 0002 1970     		strb	r1, [r3]
 155:..\acn-sdk-c\src\mqtt\packet\src/MQTTPacket.c **** 	(*pptr)++;
 401              		.loc 1 155 0
 402 0004 0368     		ldr	r3, [r0]
 403 0006 0133     		add	r3, r3, #1
 404 0008 0360     		str	r3, [r0]
 405              		.loc 1 156 0
 406 000a 7047     		bx	lr
 407              		.cfi_endproc
 408              	.LFE7:
 409              		.size	writeChar, .-writeChar
 410              		.section	.text.writeInt,"ax",%progbits
 411              		.align	1
 412              		.global	writeInt
 413              		.code	16
 414              		.thumb_func
 415              		.type	writeInt, %function
 416              	writeInt:
 417              	.LFB8:
 157:..\acn-sdk-c\src\mqtt\packet\src/MQTTPacket.c **** 
 158:..\acn-sdk-c\src\mqtt\packet\src/MQTTPacket.c **** 
 159:..\acn-sdk-c\src\mqtt\packet\src/MQTTPacket.c **** /**
 160:..\acn-sdk-c\src\mqtt\packet\src/MQTTPacket.c ****  * Writes an integer as 2 bytes to an output buffer.
ARM GAS  C:\Users\ddemidov\AppData\Local\Temp\ccBEX3xw.s 			page 12


 161:..\acn-sdk-c\src\mqtt\packet\src/MQTTPacket.c ****  * @param pptr pointer to the output buffer - incremented by the number of bytes used & returned
 162:..\acn-sdk-c\src\mqtt\packet\src/MQTTPacket.c ****  * @param anInt the integer to write
 163:..\acn-sdk-c\src\mqtt\packet\src/MQTTPacket.c ****  */
 164:..\acn-sdk-c\src\mqtt\packet\src/MQTTPacket.c **** void writeInt(unsigned char** pptr, int anInt)
 165:..\acn-sdk-c\src\mqtt\packet\src/MQTTPacket.c **** {
 418              		.loc 1 165 0
 419              		.cfi_startproc
 420              	.LVL44:
 166:..\acn-sdk-c\src\mqtt\packet\src/MQTTPacket.c **** 	**pptr = (unsigned char)(anInt / 256);
 421              		.loc 1 166 0
 422 0000 CB17     		asr	r3, r1, #31
 423 0002 1B0E     		lsr	r3, r3, #24
 424 0004 0268     		ldr	r2, [r0]
 425 0006 5B18     		add	r3, r3, r1
 426 0008 1B12     		asr	r3, r3, #8
 427 000a 1370     		strb	r3, [r2]
 167:..\acn-sdk-c\src\mqtt\packet\src/MQTTPacket.c **** 	(*pptr)++;
 428              		.loc 1 167 0
 429 000c 0268     		ldr	r2, [r0]
 430 000e 531C     		add	r3, r2, #1
 431 0010 0360     		str	r3, [r0]
 168:..\acn-sdk-c\src\mqtt\packet\src/MQTTPacket.c **** 	**pptr = (unsigned char)(anInt % 256);
 432              		.loc 1 168 0
 433 0012 064B     		ldr	r3, .L36
 434 0014 1940     		and	r1, r3
 435              	.LVL45:
 436 0016 03D5     		bpl	.L35
 437 0018 054B     		ldr	r3, .L36+4
 438 001a 0139     		sub	r1, r1, #1
 439 001c 1943     		orr	r1, r3
 440 001e 0131     		add	r1, r1, #1
 441              	.L35:
 442 0020 5170     		strb	r1, [r2, #1]
 169:..\acn-sdk-c\src\mqtt\packet\src/MQTTPacket.c **** 	(*pptr)++;
 443              		.loc 1 169 0
 444 0022 0368     		ldr	r3, [r0]
 170:..\acn-sdk-c\src\mqtt\packet\src/MQTTPacket.c **** }
 445              		.loc 1 170 0
 446              		@ sp needed
 169:..\acn-sdk-c\src\mqtt\packet\src/MQTTPacket.c **** 	(*pptr)++;
 447              		.loc 1 169 0
 448 0024 0133     		add	r3, r3, #1
 449 0026 0360     		str	r3, [r0]
 450              		.loc 1 170 0
 451 0028 7047     		bx	lr
 452              	.L37:
 453 002a C046     		.align	2
 454              	.L36:
 455 002c FF000080 		.word	-2147483393
 456 0030 00FFFFFF 		.word	-256
 457              		.cfi_endproc
 458              	.LFE8:
 459              		.size	writeInt, .-writeInt
 460              		.section	.text.writeCString,"ax",%progbits
 461              		.align	1
 462              		.global	writeCString
 463              		.code	16
ARM GAS  C:\Users\ddemidov\AppData\Local\Temp\ccBEX3xw.s 			page 13


 464              		.thumb_func
 465              		.type	writeCString, %function
 466              	writeCString:
 467              	.LFB9:
 171:..\acn-sdk-c\src\mqtt\packet\src/MQTTPacket.c **** 
 172:..\acn-sdk-c\src\mqtt\packet\src/MQTTPacket.c **** 
 173:..\acn-sdk-c\src\mqtt\packet\src/MQTTPacket.c **** /**
 174:..\acn-sdk-c\src\mqtt\packet\src/MQTTPacket.c ****  * Writes a "UTF" string to an output buffer.  Converts C string to length-delimited.
 175:..\acn-sdk-c\src\mqtt\packet\src/MQTTPacket.c ****  * @param pptr pointer to the output buffer - incremented by the number of bytes used & returned
 176:..\acn-sdk-c\src\mqtt\packet\src/MQTTPacket.c ****  * @param string the C string to write
 177:..\acn-sdk-c\src\mqtt\packet\src/MQTTPacket.c ****  */
 178:..\acn-sdk-c\src\mqtt\packet\src/MQTTPacket.c **** void writeCString(unsigned char** pptr, const char* string)
 179:..\acn-sdk-c\src\mqtt\packet\src/MQTTPacket.c **** {
 468              		.loc 1 179 0
 469              		.cfi_startproc
 470              	.LVL46:
 471 0000 70B5     		push	{r4, r5, r6, lr}
 472              		.cfi_def_cfa_offset 16
 473              		.cfi_offset 4, -16
 474              		.cfi_offset 5, -12
 475              		.cfi_offset 6, -8
 476              		.cfi_offset 14, -4
 477              		.loc 1 179 0
 478 0002 051C     		mov	r5, r0
 180:..\acn-sdk-c\src\mqtt\packet\src/MQTTPacket.c **** 	int len = strlen(string);
 479              		.loc 1 180 0
 480 0004 081C     		mov	r0, r1
 481              	.LVL47:
 179:..\acn-sdk-c\src\mqtt\packet\src/MQTTPacket.c **** 	int len = strlen(string);
 482              		.loc 1 179 0
 483 0006 0E1C     		mov	r6, r1
 484              		.loc 1 180 0
 485 0008 FFF7FEFF 		bl	strlen
 486              	.LVL48:
 487 000c 041C     		mov	r4, r0
 488              	.LVL49:
 181:..\acn-sdk-c\src\mqtt\packet\src/MQTTPacket.c **** 	writeInt(pptr, len);
 489              		.loc 1 181 0
 490 000e 281C     		mov	r0, r5
 491              	.LVL50:
 492 0010 211C     		mov	r1, r4
 493 0012 FFF7FEFF 		bl	writeInt
 494              	.LVL51:
 182:..\acn-sdk-c\src\mqtt\packet\src/MQTTPacket.c **** 	memcpy(*pptr, string, len);
 495              		.loc 1 182 0
 496 0016 2868     		ldr	r0, [r5]
 497 0018 311C     		mov	r1, r6
 498 001a 221C     		mov	r2, r4
 499 001c FFF7FEFF 		bl	memcpy
 500              	.LVL52:
 183:..\acn-sdk-c\src\mqtt\packet\src/MQTTPacket.c **** 	*pptr += len;
 501              		.loc 1 183 0
 502 0020 2B68     		ldr	r3, [r5]
 184:..\acn-sdk-c\src\mqtt\packet\src/MQTTPacket.c **** }
 503              		.loc 1 184 0
 504              		@ sp needed
 183:..\acn-sdk-c\src\mqtt\packet\src/MQTTPacket.c **** 	*pptr += len;
ARM GAS  C:\Users\ddemidov\AppData\Local\Temp\ccBEX3xw.s 			page 14


 505              		.loc 1 183 0
 506 0022 1C19     		add	r4, r3, r4
 507              	.LVL53:
 508 0024 2C60     		str	r4, [r5]
 509              	.LVL54:
 510              	.LVL55:
 511              		.loc 1 184 0
 512 0026 70BD     		pop	{r4, r5, r6, pc}
 513              		.cfi_endproc
 514              	.LFE9:
 515              		.size	writeCString, .-writeCString
 516              		.section	.text.getLenStringLen,"ax",%progbits
 517              		.align	1
 518              		.global	getLenStringLen
 519              		.code	16
 520              		.thumb_func
 521              		.type	getLenStringLen, %function
 522              	getLenStringLen:
 523              	.LFB10:
 185:..\acn-sdk-c\src\mqtt\packet\src/MQTTPacket.c **** 
 186:..\acn-sdk-c\src\mqtt\packet\src/MQTTPacket.c **** 
 187:..\acn-sdk-c\src\mqtt\packet\src/MQTTPacket.c **** int getLenStringLen(char* ptr)
 188:..\acn-sdk-c\src\mqtt\packet\src/MQTTPacket.c **** {
 524              		.loc 1 188 0
 525              		.cfi_startproc
 526              	.LVL56:
 189:..\acn-sdk-c\src\mqtt\packet\src/MQTTPacket.c **** 	int len = 256*((unsigned char)(*ptr)) + (unsigned char)(*(ptr+1));
 527              		.loc 1 189 0
 528 0000 0278     		ldrb	r2, [r0]
 529 0002 4378     		ldrb	r3, [r0, #1]
 530 0004 1202     		lsl	r2, r2, #8
 531 0006 D018     		add	r0, r2, r3
 532              	.LVL57:
 190:..\acn-sdk-c\src\mqtt\packet\src/MQTTPacket.c **** 	return len;
 191:..\acn-sdk-c\src\mqtt\packet\src/MQTTPacket.c **** }
 533              		.loc 1 191 0
 534              		@ sp needed
 535 0008 7047     		bx	lr
 536              		.cfi_endproc
 537              	.LFE10:
 538              		.size	getLenStringLen, .-getLenStringLen
 539              		.section	.text.writeMQTTString,"ax",%progbits
 540              		.align	1
 541              		.global	writeMQTTString
 542              		.code	16
 543              		.thumb_func
 544              		.type	writeMQTTString, %function
 545              	writeMQTTString:
 546              	.LFB11:
 192:..\acn-sdk-c\src\mqtt\packet\src/MQTTPacket.c **** 
 193:..\acn-sdk-c\src\mqtt\packet\src/MQTTPacket.c **** 
 194:..\acn-sdk-c\src\mqtt\packet\src/MQTTPacket.c **** void writeMQTTString(unsigned char** pptr, MQTTString mqttstring)
 195:..\acn-sdk-c\src\mqtt\packet\src/MQTTPacket.c **** {
 547              		.loc 1 195 0
 548              		.cfi_startproc
 549              	.LVL58:
 550 0000 30B5     		push	{r4, r5, lr}
ARM GAS  C:\Users\ddemidov\AppData\Local\Temp\ccBEX3xw.s 			page 15


 551              		.cfi_def_cfa_offset 12
 552              		.cfi_offset 4, -12
 553              		.cfi_offset 5, -8
 554              		.cfi_offset 14, -4
 555 0002 85B0     		sub	sp, sp, #20
 556              		.cfi_def_cfa_offset 32
 557              		.loc 1 195 0
 558 0004 051C     		mov	r5, r0
 559 0006 0393     		str	r3, [sp, #12]
 560 0008 141E     		sub	r4, r2, #0
 561              	.LVL59:
 196:..\acn-sdk-c\src\mqtt\packet\src/MQTTPacket.c **** 	if (mqttstring.lenstring.len > 0)
 562              		.loc 1 196 0
 563 000a 0BDD     		ble	.L41
 197:..\acn-sdk-c\src\mqtt\packet\src/MQTTPacket.c **** 	{
 198:..\acn-sdk-c\src\mqtt\packet\src/MQTTPacket.c **** 		writeInt(pptr, mqttstring.lenstring.len);
 564              		.loc 1 198 0
 565 000c 111C     		mov	r1, r2
 566              	.LVL60:
 567 000e FFF7FEFF 		bl	writeInt
 568              	.LVL61:
 199:..\acn-sdk-c\src\mqtt\packet\src/MQTTPacket.c **** 		memcpy(*pptr, mqttstring.lenstring.data, mqttstring.lenstring.len);
 569              		.loc 1 199 0
 570 0012 221C     		mov	r2, r4
 571 0014 0399     		ldr	r1, [sp, #12]
 572 0016 2868     		ldr	r0, [r5]
 573 0018 FFF7FEFF 		bl	memcpy
 574              	.LVL62:
 200:..\acn-sdk-c\src\mqtt\packet\src/MQTTPacket.c **** 		*pptr += mqttstring.lenstring.len;
 575              		.loc 1 200 0
 576 001c 2B68     		ldr	r3, [r5]
 577 001e 1C19     		add	r4, r3, r4
 578              	.LVL63:
 579 0020 2C60     		str	r4, [r5]
 580 0022 06E0     		b	.L40
 581              	.LVL64:
 582              	.L41:
 201:..\acn-sdk-c\src\mqtt\packet\src/MQTTPacket.c **** 	}
 202:..\acn-sdk-c\src\mqtt\packet\src/MQTTPacket.c **** 	else if (mqttstring.cstring)
 583              		.loc 1 202 0
 584 0024 0029     		cmp	r1, #0
 585 0026 02D0     		beq	.L43
 203:..\acn-sdk-c\src\mqtt\packet\src/MQTTPacket.c **** 		writeCString(pptr, mqttstring.cstring);
 586              		.loc 1 203 0
 587 0028 FFF7FEFF 		bl	writeCString
 588              	.LVL65:
 589 002c 01E0     		b	.L40
 590              	.LVL66:
 591              	.L43:
 204:..\acn-sdk-c\src\mqtt\packet\src/MQTTPacket.c **** 	else
 205:..\acn-sdk-c\src\mqtt\packet\src/MQTTPacket.c **** 		writeInt(pptr, 0);
 592              		.loc 1 205 0
 593 002e FFF7FEFF 		bl	writeInt
 594              	.LVL67:
 595              	.L40:
 206:..\acn-sdk-c\src\mqtt\packet\src/MQTTPacket.c **** }
 596              		.loc 1 206 0
ARM GAS  C:\Users\ddemidov\AppData\Local\Temp\ccBEX3xw.s 			page 16


 597 0032 05B0     		add	sp, sp, #20
 598              		@ sp needed
 599              	.LVL68:
 600 0034 30BD     		pop	{r4, r5, pc}
 601              		.cfi_endproc
 602              	.LFE11:
 603              		.size	writeMQTTString, .-writeMQTTString
 604              		.section	.text.readMQTTLenString,"ax",%progbits
 605              		.align	1
 606              		.global	readMQTTLenString
 607              		.code	16
 608              		.thumb_func
 609              		.type	readMQTTLenString, %function
 610              	readMQTTLenString:
 611              	.LFB12:
 207:..\acn-sdk-c\src\mqtt\packet\src/MQTTPacket.c **** 
 208:..\acn-sdk-c\src\mqtt\packet\src/MQTTPacket.c **** 
 209:..\acn-sdk-c\src\mqtt\packet\src/MQTTPacket.c **** /**
 210:..\acn-sdk-c\src\mqtt\packet\src/MQTTPacket.c ****  * @param mqttstring the MQTTString structure into which the data is to be read
 211:..\acn-sdk-c\src\mqtt\packet\src/MQTTPacket.c ****  * @param pptr pointer to the output buffer - incremented by the number of bytes used & returned
 212:..\acn-sdk-c\src\mqtt\packet\src/MQTTPacket.c ****  * @param enddata pointer to the end of the data: do not read beyond
 213:..\acn-sdk-c\src\mqtt\packet\src/MQTTPacket.c ****  * @return 1 if successful, 0 if not
 214:..\acn-sdk-c\src\mqtt\packet\src/MQTTPacket.c ****  */
 215:..\acn-sdk-c\src\mqtt\packet\src/MQTTPacket.c **** int readMQTTLenString(MQTTString* mqttstring, unsigned char** pptr, unsigned char* enddata)
 216:..\acn-sdk-c\src\mqtt\packet\src/MQTTPacket.c **** {
 612              		.loc 1 216 0
 613              		.cfi_startproc
 614              	.LVL69:
 217:..\acn-sdk-c\src\mqtt\packet\src/MQTTPacket.c **** 	int rc = 0;
 218:..\acn-sdk-c\src\mqtt\packet\src/MQTTPacket.c **** 
 219:..\acn-sdk-c\src\mqtt\packet\src/MQTTPacket.c **** 	FUNC_ENTRY;
 220:..\acn-sdk-c\src\mqtt\packet\src/MQTTPacket.c **** 	/* the first two bytes are the length of the string */
 221:..\acn-sdk-c\src\mqtt\packet\src/MQTTPacket.c **** 	if (enddata - (*pptr) > 1) /* enough length to read the integer? */
 615              		.loc 1 221 0
 616 0000 0B68     		ldr	r3, [r1]
 216:..\acn-sdk-c\src\mqtt\packet\src/MQTTPacket.c **** 	int rc = 0;
 617              		.loc 1 216 0
 618 0002 70B5     		push	{r4, r5, r6, lr}
 619              		.cfi_def_cfa_offset 16
 620              		.cfi_offset 4, -16
 621              		.cfi_offset 5, -12
 622              		.cfi_offset 6, -8
 623              		.cfi_offset 14, -4
 624              		.loc 1 221 0
 625 0004 D31A     		sub	r3, r2, r3
 216:..\acn-sdk-c\src\mqtt\packet\src/MQTTPacket.c **** 	int rc = 0;
 626              		.loc 1 216 0
 627 0006 051C     		mov	r5, r0
 628 0008 0C1C     		mov	r4, r1
 629 000a 161C     		mov	r6, r2
 630              		.loc 1 221 0
 631 000c 012B     		cmp	r3, #1
 632 000e 01DC     		bgt	.L45
 633              	.LVL70:
 634              	.L47:
 217:..\acn-sdk-c\src\mqtt\packet\src/MQTTPacket.c **** 	int rc = 0;
 635              		.loc 1 217 0
ARM GAS  C:\Users\ddemidov\AppData\Local\Temp\ccBEX3xw.s 			page 17


 636 0010 0020     		mov	r0, #0
 637 0012 0CE0     		b	.L46
 638              	.LVL71:
 639              	.L45:
 222:..\acn-sdk-c\src\mqtt\packet\src/MQTTPacket.c **** 	{
 223:..\acn-sdk-c\src\mqtt\packet\src/MQTTPacket.c **** 		mqttstring->lenstring.len = readInt(pptr); /* increments pptr to point past length */
 640              		.loc 1 223 0
 641 0014 081C     		mov	r0, r1
 642              	.LVL72:
 643 0016 FFF7FEFF 		bl	readInt
 644              	.LVL73:
 224:..\acn-sdk-c\src\mqtt\packet\src/MQTTPacket.c **** 		if (&(*pptr)[mqttstring->lenstring.len] <= enddata)
 645              		.loc 1 224 0
 646 001a 2368     		ldr	r3, [r4]
 223:..\acn-sdk-c\src\mqtt\packet\src/MQTTPacket.c **** 		if (&(*pptr)[mqttstring->lenstring.len] <= enddata)
 647              		.loc 1 223 0
 648 001c 6860     		str	r0, [r5, #4]
 649              		.loc 1 224 0
 650 001e 1A18     		add	r2, r3, r0
 651 0020 9642     		cmp	r6, r2
 652 0022 F5D3     		bcc	.L47
 225:..\acn-sdk-c\src\mqtt\packet\src/MQTTPacket.c **** 		{
 226:..\acn-sdk-c\src\mqtt\packet\src/MQTTPacket.c **** 			mqttstring->lenstring.data = (char*)*pptr;
 653              		.loc 1 226 0
 654 0024 AB60     		str	r3, [r5, #8]
 227:..\acn-sdk-c\src\mqtt\packet\src/MQTTPacket.c **** 			*pptr += mqttstring->lenstring.len;
 655              		.loc 1 227 0
 656 0026 2368     		ldr	r3, [r4]
 657 0028 1818     		add	r0, r3, r0
 658 002a 2060     		str	r0, [r4]
 659              	.LVL74:
 228:..\acn-sdk-c\src\mqtt\packet\src/MQTTPacket.c **** 			rc = 1;
 660              		.loc 1 228 0
 661 002c 0120     		mov	r0, #1
 662              	.LVL75:
 663              	.L46:
 229:..\acn-sdk-c\src\mqtt\packet\src/MQTTPacket.c **** 		}
 230:..\acn-sdk-c\src\mqtt\packet\src/MQTTPacket.c **** 	}
 231:..\acn-sdk-c\src\mqtt\packet\src/MQTTPacket.c **** 	mqttstring->cstring = NULL;
 664              		.loc 1 231 0
 665 002e 0023     		mov	r3, #0
 232:..\acn-sdk-c\src\mqtt\packet\src/MQTTPacket.c **** 	FUNC_EXIT_RC(rc);
 233:..\acn-sdk-c\src\mqtt\packet\src/MQTTPacket.c **** 	return rc;
 234:..\acn-sdk-c\src\mqtt\packet\src/MQTTPacket.c **** }
 666              		.loc 1 234 0
 667              		@ sp needed
 231:..\acn-sdk-c\src\mqtt\packet\src/MQTTPacket.c **** 	FUNC_EXIT_RC(rc);
 668              		.loc 1 231 0
 669 0030 2B60     		str	r3, [r5]
 670              	.LVL76:
 671              	.LVL77:
 672              	.LVL78:
 673              		.loc 1 234 0
 674 0032 70BD     		pop	{r4, r5, r6, pc}
 675              		.cfi_endproc
 676              	.LFE12:
 677              		.size	readMQTTLenString, .-readMQTTLenString
ARM GAS  C:\Users\ddemidov\AppData\Local\Temp\ccBEX3xw.s 			page 18


 678              		.section	.text.MQTTstrlen,"ax",%progbits
 679              		.align	1
 680              		.global	MQTTstrlen
 681              		.code	16
 682              		.thumb_func
 683              		.type	MQTTstrlen, %function
 684              	MQTTstrlen:
 685              	.LFB13:
 235:..\acn-sdk-c\src\mqtt\packet\src/MQTTPacket.c **** 
 236:..\acn-sdk-c\src\mqtt\packet\src/MQTTPacket.c **** 
 237:..\acn-sdk-c\src\mqtt\packet\src/MQTTPacket.c **** /**
 238:..\acn-sdk-c\src\mqtt\packet\src/MQTTPacket.c ****  * Return the length of the MQTTstring - C string if there is one, otherwise the length delimited s
 239:..\acn-sdk-c\src\mqtt\packet\src/MQTTPacket.c ****  * @param mqttstring the string to return the length of
 240:..\acn-sdk-c\src\mqtt\packet\src/MQTTPacket.c ****  * @return the length of the string
 241:..\acn-sdk-c\src\mqtt\packet\src/MQTTPacket.c ****  */
 242:..\acn-sdk-c\src\mqtt\packet\src/MQTTPacket.c **** int MQTTstrlen(MQTTString mqttstring)
 243:..\acn-sdk-c\src\mqtt\packet\src/MQTTPacket.c **** {
 686              		.loc 1 243 0
 687              		.cfi_startproc
 688              	.LVL79:
 689 0000 1FB5     		push	{r0, r1, r2, r3, r4, lr}
 690              		.cfi_def_cfa_offset 24
 691              		.cfi_offset 0, -24
 692              		.cfi_offset 1, -20
 693              		.cfi_offset 2, -16
 694              		.cfi_offset 3, -12
 695              		.cfi_offset 4, -8
 696              		.cfi_offset 14, -4
 697              		.loc 1 243 0
 698 0002 0291     		str	r1, [sp, #8]
 244:..\acn-sdk-c\src\mqtt\packet\src/MQTTPacket.c **** 	int rc = 0;
 245:..\acn-sdk-c\src\mqtt\packet\src/MQTTPacket.c **** 
 246:..\acn-sdk-c\src\mqtt\packet\src/MQTTPacket.c **** 	if (mqttstring.cstring)
 699              		.loc 1 246 0
 700 0004 0028     		cmp	r0, #0
 701 0006 02D0     		beq	.L49
 247:..\acn-sdk-c\src\mqtt\packet\src/MQTTPacket.c **** 		rc = strlen(mqttstring.cstring);
 702              		.loc 1 247 0
 703 0008 FFF7FEFF 		bl	strlen
 704              	.LVL80:
 705 000c 00E0     		b	.L50
 706              	.LVL81:
 707              	.L49:
 248:..\acn-sdk-c\src\mqtt\packet\src/MQTTPacket.c **** 	else
 249:..\acn-sdk-c\src\mqtt\packet\src/MQTTPacket.c **** 		rc = mqttstring.lenstring.len;
 708              		.loc 1 249 0
 709 000e 0298     		ldr	r0, [sp, #8]
 710              	.LVL82:
 711              	.L50:
 250:..\acn-sdk-c\src\mqtt\packet\src/MQTTPacket.c **** 	return rc;
 251:..\acn-sdk-c\src\mqtt\packet\src/MQTTPacket.c **** }
 712              		.loc 1 251 0
 713 0010 05B0     		add	sp, sp, #20
 714              		@ sp needed
 715 0012 00BD     		pop	{pc}
 716              		.cfi_endproc
 717              	.LFE13:
ARM GAS  C:\Users\ddemidov\AppData\Local\Temp\ccBEX3xw.s 			page 19


 718              		.size	MQTTstrlen, .-MQTTstrlen
 719              		.section	.text.MQTTPacket_equals,"ax",%progbits
 720              		.align	1
 721              		.global	MQTTPacket_equals
 722              		.code	16
 723              		.thumb_func
 724              		.type	MQTTPacket_equals, %function
 725              	MQTTPacket_equals:
 726              	.LFB14:
 252:..\acn-sdk-c\src\mqtt\packet\src/MQTTPacket.c **** 
 253:..\acn-sdk-c\src\mqtt\packet\src/MQTTPacket.c **** 
 254:..\acn-sdk-c\src\mqtt\packet\src/MQTTPacket.c **** /**
 255:..\acn-sdk-c\src\mqtt\packet\src/MQTTPacket.c ****  * Compares an MQTTString to a C string
 256:..\acn-sdk-c\src\mqtt\packet\src/MQTTPacket.c ****  * @param a the MQTTString to compare
 257:..\acn-sdk-c\src\mqtt\packet\src/MQTTPacket.c ****  * @param bptr the C string to compare
 258:..\acn-sdk-c\src\mqtt\packet\src/MQTTPacket.c ****  * @return boolean - equal or not
 259:..\acn-sdk-c\src\mqtt\packet\src/MQTTPacket.c ****  */
 260:..\acn-sdk-c\src\mqtt\packet\src/MQTTPacket.c **** int MQTTPacket_equals(MQTTString* a, char* bptr)
 261:..\acn-sdk-c\src\mqtt\packet\src/MQTTPacket.c **** {
 727              		.loc 1 261 0
 728              		.cfi_startproc
 729              	.LVL83:
 730 0000 70B5     		push	{r4, r5, r6, lr}
 731              		.cfi_def_cfa_offset 16
 732              		.cfi_offset 4, -16
 733              		.cfi_offset 5, -12
 734              		.cfi_offset 6, -8
 735              		.cfi_offset 14, -4
 262:..\acn-sdk-c\src\mqtt\packet\src/MQTTPacket.c **** 	int alen = 0,
 263:..\acn-sdk-c\src\mqtt\packet\src/MQTTPacket.c **** 		blen = 0;
 264:..\acn-sdk-c\src\mqtt\packet\src/MQTTPacket.c **** 	char *aptr;
 265:..\acn-sdk-c\src\mqtt\packet\src/MQTTPacket.c **** 	
 266:..\acn-sdk-c\src\mqtt\packet\src/MQTTPacket.c **** 	if (a->cstring)
 736              		.loc 1 266 0
 737 0002 0468     		ldr	r4, [r0]
 261:..\acn-sdk-c\src\mqtt\packet\src/MQTTPacket.c **** 	int alen = 0,
 738              		.loc 1 261 0
 739 0004 0E1C     		mov	r6, r1
 740              		.loc 1 266 0
 741 0006 002C     		cmp	r4, #0
 742 0008 04D0     		beq	.L52
 743              	.LVL84:
 267:..\acn-sdk-c\src\mqtt\packet\src/MQTTPacket.c **** 	{
 268:..\acn-sdk-c\src\mqtt\packet\src/MQTTPacket.c **** 		aptr = a->cstring;
 269:..\acn-sdk-c\src\mqtt\packet\src/MQTTPacket.c **** 		alen = strlen(a->cstring);
 744              		.loc 1 269 0
 745 000a 201C     		mov	r0, r4
 746              	.LVL85:
 747 000c FFF7FEFF 		bl	strlen
 748              	.LVL86:
 749 0010 051C     		mov	r5, r0
 750              	.LVL87:
 751 0012 01E0     		b	.L53
 752              	.LVL88:
 753              	.L52:
 270:..\acn-sdk-c\src\mqtt\packet\src/MQTTPacket.c **** 	}
 271:..\acn-sdk-c\src\mqtt\packet\src/MQTTPacket.c **** 	else
ARM GAS  C:\Users\ddemidov\AppData\Local\Temp\ccBEX3xw.s 			page 20


 272:..\acn-sdk-c\src\mqtt\packet\src/MQTTPacket.c **** 	{
 273:..\acn-sdk-c\src\mqtt\packet\src/MQTTPacket.c **** 		aptr = a->lenstring.data;
 754              		.loc 1 273 0
 755 0014 8468     		ldr	r4, [r0, #8]
 756              	.LVL89:
 274:..\acn-sdk-c\src\mqtt\packet\src/MQTTPacket.c **** 		alen = a->lenstring.len;
 757              		.loc 1 274 0
 758 0016 4568     		ldr	r5, [r0, #4]
 759              	.LVL90:
 760              	.L53:
 275:..\acn-sdk-c\src\mqtt\packet\src/MQTTPacket.c **** 	}
 276:..\acn-sdk-c\src\mqtt\packet\src/MQTTPacket.c **** 	blen = strlen(bptr);
 761              		.loc 1 276 0
 762 0018 301C     		mov	r0, r6
 763 001a FFF7FEFF 		bl	strlen
 764              	.LVL91:
 277:..\acn-sdk-c\src\mqtt\packet\src/MQTTPacket.c **** 	
 278:..\acn-sdk-c\src\mqtt\packet\src/MQTTPacket.c **** 	return (alen == blen) && (strncmp(aptr, bptr, alen) == 0);
 765              		.loc 1 278 0
 766 001e 0023     		mov	r3, #0
 767 0020 8542     		cmp	r5, r0
 768 0022 06D1     		bne	.L54
 769              		.loc 1 278 0 is_stmt 0 discriminator 1
 770 0024 201C     		mov	r0, r4
 771              	.LVL92:
 772 0026 311C     		mov	r1, r6
 773 0028 2A1C     		mov	r2, r5
 774 002a FFF7FEFF 		bl	strncmp
 775              	.LVL93:
 776 002e 4342     		neg	r3, r0
 777 0030 4341     		adc	r3, r3, r0
 778              	.L54:
 279:..\acn-sdk-c\src\mqtt\packet\src/MQTTPacket.c **** }
 779              		.loc 1 279 0 is_stmt 1 discriminator 6
 780 0032 181C     		mov	r0, r3
 781              		@ sp needed
 782              	.LVL94:
 783              	.LVL95:
 784              	.LVL96:
 785 0034 70BD     		pop	{r4, r5, r6, pc}
 786              		.cfi_endproc
 787              	.LFE14:
 788              		.size	MQTTPacket_equals, .-MQTTPacket_equals
 789              		.section	.text.MQTTPacket_read,"ax",%progbits
 790              		.align	1
 791              		.global	MQTTPacket_read
 792              		.code	16
 793              		.thumb_func
 794              		.type	MQTTPacket_read, %function
 795              	MQTTPacket_read:
 796              	.LFB15:
 280:..\acn-sdk-c\src\mqtt\packet\src/MQTTPacket.c **** 
 281:..\acn-sdk-c\src\mqtt\packet\src/MQTTPacket.c **** 
 282:..\acn-sdk-c\src\mqtt\packet\src/MQTTPacket.c **** /**
 283:..\acn-sdk-c\src\mqtt\packet\src/MQTTPacket.c ****  * Helper function to read packet data from some source into a buffer
 284:..\acn-sdk-c\src\mqtt\packet\src/MQTTPacket.c ****  * @param buf the buffer into which the packet will be serialized
 285:..\acn-sdk-c\src\mqtt\packet\src/MQTTPacket.c ****  * @param buflen the length in bytes of the supplied buffer
ARM GAS  C:\Users\ddemidov\AppData\Local\Temp\ccBEX3xw.s 			page 21


 286:..\acn-sdk-c\src\mqtt\packet\src/MQTTPacket.c ****  * @param getfn pointer to a function which will read any number of bytes from the needed source
 287:..\acn-sdk-c\src\mqtt\packet\src/MQTTPacket.c ****  * @return integer MQTT packet type, or -1 on error
 288:..\acn-sdk-c\src\mqtt\packet\src/MQTTPacket.c ****  * @note  the whole message must fit into the caller's buffer
 289:..\acn-sdk-c\src\mqtt\packet\src/MQTTPacket.c ****  */
 290:..\acn-sdk-c\src\mqtt\packet\src/MQTTPacket.c **** int MQTTPacket_read(unsigned char* buf, int buflen, int (*getfn)(unsigned char*, int))
 291:..\acn-sdk-c\src\mqtt\packet\src/MQTTPacket.c **** {
 797              		.loc 1 291 0
 798              		.cfi_startproc
 799              	.LVL97:
 292:..\acn-sdk-c\src\mqtt\packet\src/MQTTPacket.c **** 	int rc = -1;
 293:..\acn-sdk-c\src\mqtt\packet\src/MQTTPacket.c **** 	MQTTHeader header = {0};
 294:..\acn-sdk-c\src\mqtt\packet\src/MQTTPacket.c **** 	int len = 0;
 295:..\acn-sdk-c\src\mqtt\packet\src/MQTTPacket.c **** 	int rem_len = 0;
 800              		.loc 1 295 0
 801 0000 0023     		mov	r3, #0
 291:..\acn-sdk-c\src\mqtt\packet\src/MQTTPacket.c **** 	int rc = -1;
 802              		.loc 1 291 0
 803 0002 73B5     		push	{r0, r1, r4, r5, r6, lr}
 804              		.cfi_def_cfa_offset 24
 805              		.cfi_offset 0, -24
 806              		.cfi_offset 1, -20
 807              		.cfi_offset 4, -16
 808              		.cfi_offset 5, -12
 809              		.cfi_offset 6, -8
 810              		.cfi_offset 14, -4
 291:..\acn-sdk-c\src\mqtt\packet\src/MQTTPacket.c **** 	int rc = -1;
 811              		.loc 1 291 0
 812 0004 0E1C     		mov	r6, r1
 296:..\acn-sdk-c\src\mqtt\packet\src/MQTTPacket.c **** 
 297:..\acn-sdk-c\src\mqtt\packet\src/MQTTPacket.c **** 	/* 1. read the header byte.  This has the packet type in it */
 298:..\acn-sdk-c\src\mqtt\packet\src/MQTTPacket.c **** 	if ((*getfn)(buf, 1) != 1)
 813              		.loc 1 298 0
 814 0006 0121     		mov	r1, #1
 815              	.LVL98:
 291:..\acn-sdk-c\src\mqtt\packet\src/MQTTPacket.c **** 	int rc = -1;
 816              		.loc 1 291 0
 817 0008 041C     		mov	r4, r0
 818 000a 151C     		mov	r5, r2
 295:..\acn-sdk-c\src\mqtt\packet\src/MQTTPacket.c **** 
 819              		.loc 1 295 0
 820 000c 0193     		str	r3, [sp, #4]
 821              		.loc 1 298 0
 822 000e 9047     		blx	r2
 823              	.LVL99:
 824 0010 0128     		cmp	r0, #1
 825 0012 02D0     		beq	.L57
 826              	.LVL100:
 827              	.L59:
 292:..\acn-sdk-c\src\mqtt\packet\src/MQTTPacket.c **** 	MQTTHeader header = {0};
 828              		.loc 1 292 0
 829 0014 0120     		mov	r0, #1
 830 0016 4042     		neg	r0, r0
 831 0018 13E0     		b	.L58
 832              	.LVL101:
 833              	.L57:
 299:..\acn-sdk-c\src\mqtt\packet\src/MQTTPacket.c **** 		goto exit;
 300:..\acn-sdk-c\src\mqtt\packet\src/MQTTPacket.c **** 
ARM GAS  C:\Users\ddemidov\AppData\Local\Temp\ccBEX3xw.s 			page 22


 301:..\acn-sdk-c\src\mqtt\packet\src/MQTTPacket.c **** 	len = 1;
 302:..\acn-sdk-c\src\mqtt\packet\src/MQTTPacket.c **** 	/* 2. read the remaining length.  This is variable in itself */
 303:..\acn-sdk-c\src\mqtt\packet\src/MQTTPacket.c **** 	MQTTPacket_decode(getfn, &rem_len);
 834              		.loc 1 303 0
 835 001a 01A9     		add	r1, sp, #4
 836 001c 281C     		mov	r0, r5
 837 001e FFF7FEFF 		bl	MQTTPacket_decode
 838              	.LVL102:
 304:..\acn-sdk-c\src\mqtt\packet\src/MQTTPacket.c **** 	len += MQTTPacket_encode(buf + 1, rem_len); /* put the original remaining length back into the buf
 839              		.loc 1 304 0
 840 0022 0199     		ldr	r1, [sp, #4]
 841 0024 601C     		add	r0, r4, #1
 842 0026 FFF7FEFF 		bl	MQTTPacket_encode
 843              	.LVL103:
 305:..\acn-sdk-c\src\mqtt\packet\src/MQTTPacket.c **** 
 306:..\acn-sdk-c\src\mqtt\packet\src/MQTTPacket.c **** 	/* 3. read the rest of the buffer using a callback to supply the rest of the data */
 307:..\acn-sdk-c\src\mqtt\packet\src/MQTTPacket.c **** 	if((rem_len + len) > buflen)
 844              		.loc 1 307 0
 845 002a 0199     		ldr	r1, [sp, #4]
 304:..\acn-sdk-c\src\mqtt\packet\src/MQTTPacket.c **** 	len += MQTTPacket_encode(buf + 1, rem_len); /* put the original remaining length back into the buf
 846              		.loc 1 304 0
 847 002c 0130     		add	r0, r0, #1
 848              	.LVL104:
 849              		.loc 1 307 0
 850 002e 0B18     		add	r3, r1, r0
 851 0030 B342     		cmp	r3, r6
 852 0032 EFDC     		bgt	.L59
 308:..\acn-sdk-c\src\mqtt\packet\src/MQTTPacket.c **** 		goto exit;
 309:..\acn-sdk-c\src\mqtt\packet\src/MQTTPacket.c **** 	if ((*getfn)(buf + len, rem_len) != rem_len)
 853              		.loc 1 309 0
 854 0034 2018     		add	r0, r4, r0
 855              	.LVL105:
 856 0036 A847     		blx	r5
 857              	.LVL106:
 858 0038 019B     		ldr	r3, [sp, #4]
 859 003a 9842     		cmp	r0, r3
 860 003c EAD1     		bne	.L59
 310:..\acn-sdk-c\src\mqtt\packet\src/MQTTPacket.c **** 		goto exit;
 311:..\acn-sdk-c\src\mqtt\packet\src/MQTTPacket.c **** 
 312:..\acn-sdk-c\src\mqtt\packet\src/MQTTPacket.c **** 	header.byte = buf[0];
 861              		.loc 1 312 0
 862 003e 2078     		ldrb	r0, [r4]
 313:..\acn-sdk-c\src\mqtt\packet\src/MQTTPacket.c **** 	rc = header.bits.type;
 863              		.loc 1 313 0
 864 0040 0009     		lsr	r0, r0, #4
 865              	.LVL107:
 866              	.L58:
 314:..\acn-sdk-c\src\mqtt\packet\src/MQTTPacket.c **** exit:
 315:..\acn-sdk-c\src\mqtt\packet\src/MQTTPacket.c **** 	return rc;
 316:..\acn-sdk-c\src\mqtt\packet\src/MQTTPacket.c **** }
 867              		.loc 1 316 0
 868              		@ sp needed
 869              	.LVL108:
 870              	.LVL109:
 871              	.LVL110:
 872 0042 76BD     		pop	{r1, r2, r4, r5, r6, pc}
 873              		.cfi_endproc
ARM GAS  C:\Users\ddemidov\AppData\Local\Temp\ccBEX3xw.s 			page 23


 874              	.LFE15:
 875              		.size	MQTTPacket_read, .-MQTTPacket_read
 876              		.section	.text.MQTTPacket_readnb,"ax",%progbits
 877              		.align	1
 878              		.global	MQTTPacket_readnb
 879              		.code	16
 880              		.thumb_func
 881              		.type	MQTTPacket_readnb, %function
 882              	MQTTPacket_readnb:
 883              	.LFB17:
 317:..\acn-sdk-c\src\mqtt\packet\src/MQTTPacket.c **** 
 318:..\acn-sdk-c\src\mqtt\packet\src/MQTTPacket.c **** /**
 319:..\acn-sdk-c\src\mqtt\packet\src/MQTTPacket.c ****  * Decodes the message length according to the MQTT algorithm, non-blocking
 320:..\acn-sdk-c\src\mqtt\packet\src/MQTTPacket.c ****  * @param trp pointer to a transport structure holding what is needed to solve getting data from it
 321:..\acn-sdk-c\src\mqtt\packet\src/MQTTPacket.c ****  * @param value the decoded length returned
 322:..\acn-sdk-c\src\mqtt\packet\src/MQTTPacket.c ****  * @return integer the number of bytes read from the socket, 0 for call again, or -1 on error
 323:..\acn-sdk-c\src\mqtt\packet\src/MQTTPacket.c ****  */
 324:..\acn-sdk-c\src\mqtt\packet\src/MQTTPacket.c **** static int MQTTPacket_decodenb(MQTTTransport *trp)
 325:..\acn-sdk-c\src\mqtt\packet\src/MQTTPacket.c **** {
 326:..\acn-sdk-c\src\mqtt\packet\src/MQTTPacket.c **** 	unsigned char c;
 327:..\acn-sdk-c\src\mqtt\packet\src/MQTTPacket.c **** 	int rc = MQTTPACKET_READ_ERROR;
 328:..\acn-sdk-c\src\mqtt\packet\src/MQTTPacket.c **** 
 329:..\acn-sdk-c\src\mqtt\packet\src/MQTTPacket.c **** 	FUNC_ENTRY;
 330:..\acn-sdk-c\src\mqtt\packet\src/MQTTPacket.c **** 	if(trp->len == 0){		/* initialize on first call */
 331:..\acn-sdk-c\src\mqtt\packet\src/MQTTPacket.c **** 		trp->multiplier = 1;
 332:..\acn-sdk-c\src\mqtt\packet\src/MQTTPacket.c **** 		trp->rem_len = 0;
 333:..\acn-sdk-c\src\mqtt\packet\src/MQTTPacket.c **** 	}
 334:..\acn-sdk-c\src\mqtt\packet\src/MQTTPacket.c **** 	do {
 335:..\acn-sdk-c\src\mqtt\packet\src/MQTTPacket.c **** 		int frc;
 336:..\acn-sdk-c\src\mqtt\packet\src/MQTTPacket.c **** 		if (++(trp->len) > MAX_NO_OF_REMAINING_LENGTH_BYTES)
 337:..\acn-sdk-c\src\mqtt\packet\src/MQTTPacket.c **** 			goto exit;
 338:..\acn-sdk-c\src\mqtt\packet\src/MQTTPacket.c **** 		if ((frc=(*trp->getfn)(trp->sck, &c, 1)) == -1)
 339:..\acn-sdk-c\src\mqtt\packet\src/MQTTPacket.c **** 			goto exit;
 340:..\acn-sdk-c\src\mqtt\packet\src/MQTTPacket.c **** 		if (frc == 0){
 341:..\acn-sdk-c\src\mqtt\packet\src/MQTTPacket.c **** 			rc = 0;
 342:..\acn-sdk-c\src\mqtt\packet\src/MQTTPacket.c **** 			goto exit;
 343:..\acn-sdk-c\src\mqtt\packet\src/MQTTPacket.c **** 		}
 344:..\acn-sdk-c\src\mqtt\packet\src/MQTTPacket.c **** 		trp->rem_len += (c & 127) * trp->multiplier;
 345:..\acn-sdk-c\src\mqtt\packet\src/MQTTPacket.c **** 		trp->multiplier *= 128;
 346:..\acn-sdk-c\src\mqtt\packet\src/MQTTPacket.c **** 	} while ((c & 128) != 0);
 347:..\acn-sdk-c\src\mqtt\packet\src/MQTTPacket.c **** 	rc = trp->len;
 348:..\acn-sdk-c\src\mqtt\packet\src/MQTTPacket.c **** exit:
 349:..\acn-sdk-c\src\mqtt\packet\src/MQTTPacket.c **** 	FUNC_EXIT_RC(rc);
 350:..\acn-sdk-c\src\mqtt\packet\src/MQTTPacket.c **** 	return rc;
 351:..\acn-sdk-c\src\mqtt\packet\src/MQTTPacket.c **** }
 352:..\acn-sdk-c\src\mqtt\packet\src/MQTTPacket.c **** 
 353:..\acn-sdk-c\src\mqtt\packet\src/MQTTPacket.c **** /**
 354:..\acn-sdk-c\src\mqtt\packet\src/MQTTPacket.c ****  * Helper function to read packet data from some source into a buffer, non-blocking
 355:..\acn-sdk-c\src\mqtt\packet\src/MQTTPacket.c ****  * @param buf the buffer into which the packet will be serialized
 356:..\acn-sdk-c\src\mqtt\packet\src/MQTTPacket.c ****  * @param buflen the length in bytes of the supplied buffer
 357:..\acn-sdk-c\src\mqtt\packet\src/MQTTPacket.c ****  * @param trp pointer to a transport structure holding what is needed to solve getting data from it
 358:..\acn-sdk-c\src\mqtt\packet\src/MQTTPacket.c ****  * @return integer MQTT packet type, 0 for call again, or -1 on error
 359:..\acn-sdk-c\src\mqtt\packet\src/MQTTPacket.c ****  * @note  the whole message must fit into the caller's buffer
 360:..\acn-sdk-c\src\mqtt\packet\src/MQTTPacket.c ****  */
 361:..\acn-sdk-c\src\mqtt\packet\src/MQTTPacket.c **** int MQTTPacket_readnb(unsigned char* buf, int buflen, MQTTTransport *trp)
 362:..\acn-sdk-c\src\mqtt\packet\src/MQTTPacket.c **** {
 884              		.loc 1 362 0
ARM GAS  C:\Users\ddemidov\AppData\Local\Temp\ccBEX3xw.s 			page 24


 885              		.cfi_startproc
 886              	.LVL111:
 887 0000 F7B5     		push	{r0, r1, r2, r4, r5, r6, r7, lr}
 888              		.cfi_def_cfa_offset 32
 889              		.cfi_offset 0, -32
 890              		.cfi_offset 1, -28
 891              		.cfi_offset 2, -24
 892              		.cfi_offset 4, -20
 893              		.cfi_offset 5, -16
 894              		.cfi_offset 6, -12
 895              		.cfi_offset 7, -8
 896              		.cfi_offset 14, -4
 363:..\acn-sdk-c\src\mqtt\packet\src/MQTTPacket.c **** 	int rc = -1, frc;
 364:..\acn-sdk-c\src\mqtt\packet\src/MQTTPacket.c **** 	MQTTHeader header = {0};
 365:..\acn-sdk-c\src\mqtt\packet\src/MQTTPacket.c **** 
 366:..\acn-sdk-c\src\mqtt\packet\src/MQTTPacket.c **** 	switch(trp->state){
 897              		.loc 1 366 0
 898 0002 137D     		ldrb	r3, [r2, #20]
 362:..\acn-sdk-c\src\mqtt\packet\src/MQTTPacket.c **** 	int rc = -1, frc;
 899              		.loc 1 362 0
 900 0004 051C     		mov	r5, r0
 901 0006 0E1C     		mov	r6, r1
 902 0008 141C     		mov	r4, r2
 903              		.loc 1 366 0
 904 000a 012B     		cmp	r3, #1
 905 000c 18D0     		beq	.L62
 906 000e 002B     		cmp	r3, #0
 907 0010 03D0     		beq	.L63
 908 0012 022B     		cmp	r3, #2
 909 0014 48D0     		beq	.L64
 367:..\acn-sdk-c\src\mqtt\packet\src/MQTTPacket.c **** 	default:
 368:..\acn-sdk-c\src\mqtt\packet\src/MQTTPacket.c **** 		trp->state = 0;
 910              		.loc 1 368 0
 911 0016 0023     		mov	r3, #0
 912 0018 1375     		strb	r3, [r2, #20]
 913              	.L63:
 369:..\acn-sdk-c\src\mqtt\packet\src/MQTTPacket.c **** 		/*FALLTHROUGH*/
 370:..\acn-sdk-c\src\mqtt\packet\src/MQTTPacket.c **** 	case 0:
 371:..\acn-sdk-c\src\mqtt\packet\src/MQTTPacket.c **** 		/* read the header byte.  This has the packet type in it */
 372:..\acn-sdk-c\src\mqtt\packet\src/MQTTPacket.c **** 		if ((frc=(*trp->getfn)(trp->sck, buf, 1)) == -1)
 914              		.loc 1 372 0
 915 001a 2368     		ldr	r3, [r4]
 916 001c 6068     		ldr	r0, [r4, #4]
 917              	.LVL112:
 918 001e 291C     		mov	r1, r5
 919              	.LVL113:
 920 0020 0122     		mov	r2, #1
 921              	.LVL114:
 922 0022 9847     		blx	r3
 923              	.LVL115:
 924 0024 431C     		add	r3, r0, #1
 925 0026 02D1     		bne	.L65
 926              	.LVL116:
 927              	.L74:
 363:..\acn-sdk-c\src\mqtt\packet\src/MQTTPacket.c **** 	MQTTHeader header = {0};
 928              		.loc 1 363 0
 929 0028 0120     		mov	r0, #1
ARM GAS  C:\Users\ddemidov\AppData\Local\Temp\ccBEX3xw.s 			page 25


 930 002a 4042     		neg	r0, r0
 931 002c 50E0     		b	.L66
 932              	.LVL117:
 933              	.L65:
 373:..\acn-sdk-c\src\mqtt\packet\src/MQTTPacket.c **** 			goto exit;
 374:..\acn-sdk-c\src\mqtt\packet\src/MQTTPacket.c **** 		if (frc == 0)
 934              		.loc 1 374 0
 935 002e 0028     		cmp	r0, #0
 936 0030 01D1     		bne	.L67
 937              	.LVL118:
 938              	.L75:
 375:..\acn-sdk-c\src\mqtt\packet\src/MQTTPacket.c **** 			return 0;
 939              		.loc 1 375 0
 940 0032 0020     		mov	r0, #0
 941 0034 4EE0     		b	.L68
 942              	.LVL119:
 943              	.L67:
 376:..\acn-sdk-c\src\mqtt\packet\src/MQTTPacket.c **** 		trp->len = 0;
 944              		.loc 1 376 0
 945 0036 0023     		mov	r3, #0
 946 0038 2361     		str	r3, [r4, #16]
 377:..\acn-sdk-c\src\mqtt\packet\src/MQTTPacket.c **** 		++trp->state;
 947              		.loc 1 377 0
 948 003a 237D     		ldrb	r3, [r4, #20]
 949 003c 0133     		add	r3, r3, #1
 950 003e 2375     		strb	r3, [r4, #20]
 951              	.LVL120:
 952              	.L62:
 953              	.LBB8:
 954              	.LBB9:
 330:..\acn-sdk-c\src\mqtt\packet\src/MQTTPacket.c **** 		trp->multiplier = 1;
 955              		.loc 1 330 0
 956 0040 2369     		ldr	r3, [r4, #16]
 957 0042 002B     		cmp	r3, #0
 958 0044 02D1     		bne	.L73
 331:..\acn-sdk-c\src\mqtt\packet\src/MQTTPacket.c **** 		trp->rem_len = 0;
 959              		.loc 1 331 0
 960 0046 0122     		mov	r2, #1
 332:..\acn-sdk-c\src\mqtt\packet\src/MQTTPacket.c **** 	}
 961              		.loc 1 332 0
 962 0048 E360     		str	r3, [r4, #12]
 331:..\acn-sdk-c\src\mqtt\packet\src/MQTTPacket.c **** 		trp->rem_len = 0;
 963              		.loc 1 331 0
 964 004a A260     		str	r2, [r4, #8]
 965              	.L73:
 966              	.LBB10:
 336:..\acn-sdk-c\src\mqtt\packet\src/MQTTPacket.c **** 			goto exit;
 967              		.loc 1 336 0
 968 004c 2369     		ldr	r3, [r4, #16]
 969 004e 0133     		add	r3, r3, #1
 970 0050 2361     		str	r3, [r4, #16]
 971 0052 042B     		cmp	r3, #4
 972 0054 E8DC     		bgt	.L74
 338:..\acn-sdk-c\src\mqtt\packet\src/MQTTPacket.c **** 			goto exit;
 973              		.loc 1 338 0
 974 0056 6B46     		mov	r3, sp
 975 0058 DF1D     		add	r7, r3, #7
ARM GAS  C:\Users\ddemidov\AppData\Local\Temp\ccBEX3xw.s 			page 26


 976 005a 6068     		ldr	r0, [r4, #4]
 977 005c 2368     		ldr	r3, [r4]
 978 005e 391C     		mov	r1, r7
 979 0060 0122     		mov	r2, #1
 980 0062 9847     		blx	r3
 981              	.LVL121:
 982 0064 431C     		add	r3, r0, #1
 983 0066 DFD0     		beq	.L74
 340:..\acn-sdk-c\src\mqtt\packet\src/MQTTPacket.c **** 			rc = 0;
 984              		.loc 1 340 0
 985 0068 0028     		cmp	r0, #0
 986 006a E2D0     		beq	.L75
 344:..\acn-sdk-c\src\mqtt\packet\src/MQTTPacket.c **** 		trp->multiplier *= 128;
 987              		.loc 1 344 0
 988 006c 7F21     		mov	r1, #127
 989 006e 3A78     		ldrb	r2, [r7]
 990 0070 A368     		ldr	r3, [r4, #8]
 991 0072 1140     		and	r1, r2
 992 0074 5943     		mul	r1, r3
 993 0076 E068     		ldr	r0, [r4, #12]
 994              	.LVL122:
 345:..\acn-sdk-c\src\mqtt\packet\src/MQTTPacket.c **** 	} while ((c & 128) != 0);
 995              		.loc 1 345 0
 996 0078 DB01     		lsl	r3, r3, #7
 344:..\acn-sdk-c\src\mqtt\packet\src/MQTTPacket.c **** 		trp->multiplier *= 128;
 997              		.loc 1 344 0
 998 007a 4118     		add	r1, r0, r1
 999              	.LBE10:
 346:..\acn-sdk-c\src\mqtt\packet\src/MQTTPacket.c **** 	rc = trp->len;
 1000              		.loc 1 346 0
 1001 007c 52B2     		sxtb	r2, r2
 1002              	.LBB11:
 344:..\acn-sdk-c\src\mqtt\packet\src/MQTTPacket.c **** 		trp->multiplier *= 128;
 1003              		.loc 1 344 0
 1004 007e E160     		str	r1, [r4, #12]
 345:..\acn-sdk-c\src\mqtt\packet\src/MQTTPacket.c **** 	} while ((c & 128) != 0);
 1005              		.loc 1 345 0
 1006 0080 A360     		str	r3, [r4, #8]
 1007              	.LBE11:
 346:..\acn-sdk-c\src\mqtt\packet\src/MQTTPacket.c **** 	rc = trp->len;
 1008              		.loc 1 346 0
 1009 0082 002A     		cmp	r2, #0
 1010 0084 E2DB     		blt	.L73
 1011              	.L71:
 347:..\acn-sdk-c\src\mqtt\packet\src/MQTTPacket.c **** exit:
 1012              		.loc 1 347 0
 1013 0086 2369     		ldr	r3, [r4, #16]
 1014              	.LVL123:
 1015              	.LBE9:
 1016              	.LBE8:
 378:..\acn-sdk-c\src\mqtt\packet\src/MQTTPacket.c **** 		/*FALLTHROUGH*/
 379:..\acn-sdk-c\src\mqtt\packet\src/MQTTPacket.c **** 		/* read the remaining length.  This is variable in itself */
 380:..\acn-sdk-c\src\mqtt\packet\src/MQTTPacket.c **** 	case 1:
 381:..\acn-sdk-c\src\mqtt\packet\src/MQTTPacket.c **** 		if((frc=MQTTPacket_decodenb(trp)) == MQTTPACKET_READ_ERROR)
 1017              		.loc 1 381 0
 1018 0088 5A1C     		add	r2, r3, #1
 1019 008a CDD0     		beq	.L74
ARM GAS  C:\Users\ddemidov\AppData\Local\Temp\ccBEX3xw.s 			page 27


 382:..\acn-sdk-c\src\mqtt\packet\src/MQTTPacket.c **** 			goto exit;
 383:..\acn-sdk-c\src\mqtt\packet\src/MQTTPacket.c **** 		if(frc == 0)
 1020              		.loc 1 383 0
 1021 008c 002B     		cmp	r3, #0
 1022 008e D0D0     		beq	.L75
 384:..\acn-sdk-c\src\mqtt\packet\src/MQTTPacket.c **** 			return 0;
 385:..\acn-sdk-c\src\mqtt\packet\src/MQTTPacket.c **** 		trp->len = 1 + MQTTPacket_encode(buf + 1, trp->rem_len); /* put the original remaining length bac
 1023              		.loc 1 385 0
 1024 0090 681C     		add	r0, r5, #1
 1025 0092 FFF7FEFF 		bl	MQTTPacket_encode
 1026              	.LVL124:
 386:..\acn-sdk-c\src\mqtt\packet\src/MQTTPacket.c **** 		if((trp->rem_len + trp->len) > buflen)
 1027              		.loc 1 386 0
 1028 0096 E368     		ldr	r3, [r4, #12]
 385:..\acn-sdk-c\src\mqtt\packet\src/MQTTPacket.c **** 		if((trp->rem_len + trp->len) > buflen)
 1029              		.loc 1 385 0
 1030 0098 0130     		add	r0, r0, #1
 1031 009a 2061     		str	r0, [r4, #16]
 1032              		.loc 1 386 0
 1033 009c C018     		add	r0, r0, r3
 1034 009e B042     		cmp	r0, r6
 1035 00a0 C2DC     		bgt	.L74
 387:..\acn-sdk-c\src\mqtt\packet\src/MQTTPacket.c **** 			goto exit;
 388:..\acn-sdk-c\src\mqtt\packet\src/MQTTPacket.c **** 		++trp->state;
 1036              		.loc 1 388 0
 1037 00a2 237D     		ldrb	r3, [r4, #20]
 1038 00a4 0133     		add	r3, r3, #1
 1039 00a6 2375     		strb	r3, [r4, #20]
 1040              	.LVL125:
 1041              	.L64:
 389:..\acn-sdk-c\src\mqtt\packet\src/MQTTPacket.c **** 		/*FALLTHROUGH*/
 390:..\acn-sdk-c\src\mqtt\packet\src/MQTTPacket.c **** 	case 2:
 391:..\acn-sdk-c\src\mqtt\packet\src/MQTTPacket.c **** 		/* read the rest of the buffer using a callback to supply the rest of the data */
 392:..\acn-sdk-c\src\mqtt\packet\src/MQTTPacket.c **** 		if ((frc=(*trp->getfn)(trp->sck, buf + trp->len, trp->rem_len)) == -1)
 1042              		.loc 1 392 0
 1043 00a8 2369     		ldr	r3, [r4, #16]
 1044 00aa 6068     		ldr	r0, [r4, #4]
 1045 00ac E918     		add	r1, r5, r3
 1046 00ae E268     		ldr	r2, [r4, #12]
 1047 00b0 2368     		ldr	r3, [r4]
 1048 00b2 9847     		blx	r3
 1049              	.LVL126:
 1050 00b4 431C     		add	r3, r0, #1
 1051 00b6 B7D0     		beq	.L74
 393:..\acn-sdk-c\src\mqtt\packet\src/MQTTPacket.c **** 			goto exit;
 394:..\acn-sdk-c\src\mqtt\packet\src/MQTTPacket.c **** 		if (frc == 0)
 1052              		.loc 1 394 0
 1053 00b8 0028     		cmp	r0, #0
 1054 00ba BAD0     		beq	.L75
 395:..\acn-sdk-c\src\mqtt\packet\src/MQTTPacket.c **** 			return 0;
 396:..\acn-sdk-c\src\mqtt\packet\src/MQTTPacket.c **** 		trp->rem_len -= frc;
 1055              		.loc 1 396 0
 1056 00bc E368     		ldr	r3, [r4, #12]
 397:..\acn-sdk-c\src\mqtt\packet\src/MQTTPacket.c **** 		trp->len += frc;
 1057              		.loc 1 397 0
 1058 00be 2269     		ldr	r2, [r4, #16]
 396:..\acn-sdk-c\src\mqtt\packet\src/MQTTPacket.c **** 		trp->len += frc;
ARM GAS  C:\Users\ddemidov\AppData\Local\Temp\ccBEX3xw.s 			page 28


 1059              		.loc 1 396 0
 1060 00c0 1B1A     		sub	r3, r3, r0
 1061              		.loc 1 397 0
 1062 00c2 1018     		add	r0, r2, r0
 1063              	.LVL127:
 396:..\acn-sdk-c\src\mqtt\packet\src/MQTTPacket.c **** 		trp->len += frc;
 1064              		.loc 1 396 0
 1065 00c4 E360     		str	r3, [r4, #12]
 1066              		.loc 1 397 0
 1067 00c6 2061     		str	r0, [r4, #16]
 398:..\acn-sdk-c\src\mqtt\packet\src/MQTTPacket.c **** 		if(trp->rem_len)
 1068              		.loc 1 398 0
 1069 00c8 002B     		cmp	r3, #0
 1070 00ca B2D1     		bne	.L75
 399:..\acn-sdk-c\src\mqtt\packet\src/MQTTPacket.c **** 			return 0;
 400:..\acn-sdk-c\src\mqtt\packet\src/MQTTPacket.c **** 
 401:..\acn-sdk-c\src\mqtt\packet\src/MQTTPacket.c **** 		header.byte = buf[0];
 1071              		.loc 1 401 0
 1072 00cc 2878     		ldrb	r0, [r5]
 402:..\acn-sdk-c\src\mqtt\packet\src/MQTTPacket.c **** 		rc = header.bits.type;
 1073              		.loc 1 402 0
 1074 00ce 0009     		lsr	r0, r0, #4
 1075              	.LVL128:
 1076              	.L66:
 403:..\acn-sdk-c\src\mqtt\packet\src/MQTTPacket.c **** 		break;
 404:..\acn-sdk-c\src\mqtt\packet\src/MQTTPacket.c **** 	}
 405:..\acn-sdk-c\src\mqtt\packet\src/MQTTPacket.c **** 
 406:..\acn-sdk-c\src\mqtt\packet\src/MQTTPacket.c **** exit:
 407:..\acn-sdk-c\src\mqtt\packet\src/MQTTPacket.c **** 	trp->state = 0;
 1077              		.loc 1 407 0
 1078 00d0 0023     		mov	r3, #0
 1079 00d2 2375     		strb	r3, [r4, #20]
 1080              	.LVL129:
 1081              	.L68:
 408:..\acn-sdk-c\src\mqtt\packet\src/MQTTPacket.c **** 	return rc;
 409:..\acn-sdk-c\src\mqtt\packet\src/MQTTPacket.c **** }
 1082              		.loc 1 409 0
 1083              		@ sp needed
 1084              	.LVL130:
 1085              	.LVL131:
 1086              	.LVL132:
 1087 00d4 FEBD     		pop	{r1, r2, r3, r4, r5, r6, r7, pc}
 1088              		.cfi_endproc
 1089              	.LFE17:
 1090              		.size	MQTTPacket_readnb, .-MQTTPacket_readnb
 1091              		.bss
 1092              		.align	2
 1093              		.set	.LANCHOR0,. + 0
 1094              		.type	bufptr, %object
 1095              		.size	bufptr, 4
 1096              	bufptr:
 1097 0000 00000000 		.space	4
 1098              		.text
 1099              	.Letext0:
 1100              		.file 2 "..\\acn-sdk-c\\include/mqtt/packet/MQTTPacket.h"
 1101              		.file 3 "c:\\program files (x86)\\cypress\\psoc creator\\3.3\\psoc creator\\import\\gnu\\arm\\4.9.
 1102              		.file 4 "c:\\program files (x86)\\cypress\\psoc creator\\3.3\\psoc creator\\import\\gnu\\arm\\4.9.
ARM GAS  C:\Users\ddemidov\AppData\Local\Temp\ccBEX3xw.s 			page 29

