ARM GAS  C:\Users\ddemidov\AppData\Local\Temp\ccaKwQ22.s 			page 1


   1              		.cpu cortex-m0
   2              		.fpu softvfp
   3              		.eabi_attribute 20, 1
   4              		.eabi_attribute 21, 1
   5              		.eabi_attribute 23, 3
   6              		.eabi_attribute 24, 1
   7              		.eabi_attribute 25, 1
   8              		.eabi_attribute 26, 1
   9              		.eabi_attribute 30, 4
  10              		.eabi_attribute 34, 0
  11              		.eabi_attribute 18, 4
  12              		.code	16
  13              		.file	"MQTTUnsubscribeServer.c"
  14              		.text
  15              	.Ltext0:
  16              		.cfi_sections	.debug_frame
  17              		.section	.text.MQTTDeserialize_unsubscribe,"ax",%progbits
  18              		.align	1
  19              		.global	MQTTDeserialize_unsubscribe
  20              		.code	16
  21              		.thumb_func
  22              		.type	MQTTDeserialize_unsubscribe, %function
  23              	MQTTDeserialize_unsubscribe:
  24              	.LFB0:
  25              		.file 1 "..\\acn-sdk-c\\src\\mqtt\\packet\\src\\MQTTUnsubscribeServer.c"
   1:..\acn-sdk-c\src\mqtt\packet\src/MQTTUnsubscribeServer.c **** /*******************************************************************************
   2:..\acn-sdk-c\src\mqtt\packet\src/MQTTUnsubscribeServer.c ****  * Copyright (c) 2014 IBM Corp.
   3:..\acn-sdk-c\src\mqtt\packet\src/MQTTUnsubscribeServer.c ****  *
   4:..\acn-sdk-c\src\mqtt\packet\src/MQTTUnsubscribeServer.c ****  * All rights reserved. This program and the accompanying materials
   5:..\acn-sdk-c\src\mqtt\packet\src/MQTTUnsubscribeServer.c ****  * are made available under the terms of the Eclipse Public License v1.0
   6:..\acn-sdk-c\src\mqtt\packet\src/MQTTUnsubscribeServer.c ****  * and Eclipse Distribution License v1.0 which accompany this distribution.
   7:..\acn-sdk-c\src\mqtt\packet\src/MQTTUnsubscribeServer.c ****  *
   8:..\acn-sdk-c\src\mqtt\packet\src/MQTTUnsubscribeServer.c ****  * The Eclipse Public License is available at
   9:..\acn-sdk-c\src\mqtt\packet\src/MQTTUnsubscribeServer.c ****  *    http://www.eclipse.org/legal/epl-v10.html
  10:..\acn-sdk-c\src\mqtt\packet\src/MQTTUnsubscribeServer.c ****  * and the Eclipse Distribution License is available at
  11:..\acn-sdk-c\src\mqtt\packet\src/MQTTUnsubscribeServer.c ****  *   http://www.eclipse.org/org/documents/edl-v10.php.
  12:..\acn-sdk-c\src\mqtt\packet\src/MQTTUnsubscribeServer.c ****  *
  13:..\acn-sdk-c\src\mqtt\packet\src/MQTTUnsubscribeServer.c ****  * Contributors:
  14:..\acn-sdk-c\src\mqtt\packet\src/MQTTUnsubscribeServer.c ****  *    Ian Craggs - initial API and implementation and/or initial documentation
  15:..\acn-sdk-c\src\mqtt\packet\src/MQTTUnsubscribeServer.c ****  *******************************************************************************/
  16:..\acn-sdk-c\src\mqtt\packet\src/MQTTUnsubscribeServer.c **** 
  17:..\acn-sdk-c\src\mqtt\packet\src/MQTTUnsubscribeServer.c **** #include "mqtt/packet/MQTTPacket.h"
  18:..\acn-sdk-c\src\mqtt\packet\src/MQTTUnsubscribeServer.c **** #include "mqtt/packet/StackTrace.h"
  19:..\acn-sdk-c\src\mqtt\packet\src/MQTTUnsubscribeServer.c **** 
  20:..\acn-sdk-c\src\mqtt\packet\src/MQTTUnsubscribeServer.c **** #include <string.h>
  21:..\acn-sdk-c\src\mqtt\packet\src/MQTTUnsubscribeServer.c **** 
  22:..\acn-sdk-c\src\mqtt\packet\src/MQTTUnsubscribeServer.c **** 
  23:..\acn-sdk-c\src\mqtt\packet\src/MQTTUnsubscribeServer.c **** /**
  24:..\acn-sdk-c\src\mqtt\packet\src/MQTTUnsubscribeServer.c ****   * Deserializes the supplied (wire) buffer into unsubscribe data
  25:..\acn-sdk-c\src\mqtt\packet\src/MQTTUnsubscribeServer.c ****   * @param dup integer returned - the MQTT dup flag
  26:..\acn-sdk-c\src\mqtt\packet\src/MQTTUnsubscribeServer.c ****   * @param packetid integer returned - the MQTT packet identifier
  27:..\acn-sdk-c\src\mqtt\packet\src/MQTTUnsubscribeServer.c ****   * @param maxcount - the maximum number of members allowed in the topicFilters and requestedQoSs a
  28:..\acn-sdk-c\src\mqtt\packet\src/MQTTUnsubscribeServer.c ****   * @param count - number of members in the topicFilters and requestedQoSs arrays
  29:..\acn-sdk-c\src\mqtt\packet\src/MQTTUnsubscribeServer.c ****   * @param topicFilters - array of topic filter names
  30:..\acn-sdk-c\src\mqtt\packet\src/MQTTUnsubscribeServer.c ****   * @param buf the raw buffer data, of the correct length determined by the remaining length field
  31:..\acn-sdk-c\src\mqtt\packet\src/MQTTUnsubscribeServer.c ****   * @param buflen the length in bytes of the data in the supplied buffer
  32:..\acn-sdk-c\src\mqtt\packet\src/MQTTUnsubscribeServer.c ****   * @return the length of the serialized data.  <= 0 indicates error
ARM GAS  C:\Users\ddemidov\AppData\Local\Temp\ccaKwQ22.s 			page 2


  33:..\acn-sdk-c\src\mqtt\packet\src/MQTTUnsubscribeServer.c ****   */
  34:..\acn-sdk-c\src\mqtt\packet\src/MQTTUnsubscribeServer.c **** int MQTTDeserialize_unsubscribe(unsigned char* dup, unsigned short* packetid, int maxcount, int* co
  35:..\acn-sdk-c\src\mqtt\packet\src/MQTTUnsubscribeServer.c **** 		unsigned char* buf, int len)
  36:..\acn-sdk-c\src\mqtt\packet\src/MQTTUnsubscribeServer.c **** {
  26              		.loc 1 36 0
  27              		.cfi_startproc
  28              	.LVL0:
  29 0000 F0B5     		push	{r4, r5, r6, r7, lr}
  30              		.cfi_def_cfa_offset 20
  31              		.cfi_offset 4, -20
  32              		.cfi_offset 5, -16
  33              		.cfi_offset 6, -12
  34              		.cfi_offset 7, -8
  35              		.cfi_offset 14, -4
  37:..\acn-sdk-c\src\mqtt\packet\src/MQTTUnsubscribeServer.c ****   SSP_PARAMETER_NOT_USED(len);
  38:..\acn-sdk-c\src\mqtt\packet\src/MQTTUnsubscribeServer.c ****   SSP_PARAMETER_NOT_USED(maxcount);
  39:..\acn-sdk-c\src\mqtt\packet\src/MQTTUnsubscribeServer.c **** 	MQTTHeader header = {0};
  40:..\acn-sdk-c\src\mqtt\packet\src/MQTTUnsubscribeServer.c **** 	unsigned char* curdata = buf;
  41:..\acn-sdk-c\src\mqtt\packet\src/MQTTUnsubscribeServer.c **** 	unsigned char* enddata = NULL;
  42:..\acn-sdk-c\src\mqtt\packet\src/MQTTUnsubscribeServer.c **** 	int rc = 0;
  43:..\acn-sdk-c\src\mqtt\packet\src/MQTTUnsubscribeServer.c **** 	int mylen = 0;
  36              		.loc 1 43 0
  37 0002 0026     		mov	r6, #0
  36:..\acn-sdk-c\src\mqtt\packet\src/MQTTUnsubscribeServer.c ****   SSP_PARAMETER_NOT_USED(len);
  38              		.loc 1 36 0
  39 0004 85B0     		sub	sp, sp, #20
  40              		.cfi_def_cfa_offset 40
  36:..\acn-sdk-c\src\mqtt\packet\src/MQTTUnsubscribeServer.c ****   SSP_PARAMETER_NOT_USED(len);
  41              		.loc 1 36 0
  42 0006 1D1C     		mov	r5, r3
  40:..\acn-sdk-c\src\mqtt\packet\src/MQTTUnsubscribeServer.c **** 	unsigned char* enddata = NULL;
  43              		.loc 1 40 0
  44 0008 0B9B     		ldr	r3, [sp, #44]
  45              	.LVL1:
  36:..\acn-sdk-c\src\mqtt\packet\src/MQTTUnsubscribeServer.c ****   SSP_PARAMETER_NOT_USED(len);
  46              		.loc 1 36 0
  47 000a 071C     		mov	r7, r0
  44:..\acn-sdk-c\src\mqtt\packet\src/MQTTUnsubscribeServer.c **** 
  45:..\acn-sdk-c\src\mqtt\packet\src/MQTTUnsubscribeServer.c **** 	FUNC_ENTRY;
  46:..\acn-sdk-c\src\mqtt\packet\src/MQTTUnsubscribeServer.c **** 	header.byte = readChar(&curdata);
  48              		.loc 1 46 0
  49 000c 02A8     		add	r0, sp, #8
  50              	.LVL2:
  40:..\acn-sdk-c\src\mqtt\packet\src/MQTTUnsubscribeServer.c **** 	unsigned char* enddata = NULL;
  51              		.loc 1 40 0
  52 000e 0293     		str	r3, [sp, #8]
  53              	.LVL3:
  36:..\acn-sdk-c\src\mqtt\packet\src/MQTTUnsubscribeServer.c ****   SSP_PARAMETER_NOT_USED(len);
  54              		.loc 1 36 0
  55 0010 0191     		str	r1, [sp, #4]
  43:..\acn-sdk-c\src\mqtt\packet\src/MQTTUnsubscribeServer.c **** 
  56              		.loc 1 43 0
  57 0012 0396     		str	r6, [sp, #12]
  58              		.loc 1 46 0
  59 0014 FFF7FEFF 		bl	readChar
  60              	.LVL4:
  47:..\acn-sdk-c\src\mqtt\packet\src/MQTTUnsubscribeServer.c **** 	if (header.bits.type != UNSUBSCRIBE)
ARM GAS  C:\Users\ddemidov\AppData\Local\Temp\ccaKwQ22.s 			page 3


  61              		.loc 1 47 0
  62 0018 F023     		mov	r3, #240
  42:..\acn-sdk-c\src\mqtt\packet\src/MQTTUnsubscribeServer.c **** 	int mylen = 0;
  63              		.loc 1 42 0
  64 001a 341C     		mov	r4, r6
  65              		.loc 1 47 0
  66 001c 0340     		and	r3, r0
  67 001e A02B     		cmp	r3, #160
  68 0020 25D1     		bne	.L2
  48:..\acn-sdk-c\src\mqtt\packet\src/MQTTUnsubscribeServer.c **** 		goto exit;
  49:..\acn-sdk-c\src\mqtt\packet\src/MQTTUnsubscribeServer.c **** 	*dup = header.bits.dup;
  69              		.loc 1 49 0
  70 0022 0007     		lsl	r0, r0, #28
  71 0024 C00F     		lsr	r0, r0, #31
  72 0026 3870     		strb	r0, [r7]
  50:..\acn-sdk-c\src\mqtt\packet\src/MQTTUnsubscribeServer.c **** 
  51:..\acn-sdk-c\src\mqtt\packet\src/MQTTUnsubscribeServer.c **** 	curdata += (rc = MQTTPacket_decodeBuf(curdata, &mylen)); /* read remaining length */
  73              		.loc 1 51 0
  74 0028 03A9     		add	r1, sp, #12
  75 002a 0298     		ldr	r0, [sp, #8]
  76 002c FFF7FEFF 		bl	MQTTPacket_decodeBuf
  77              	.LVL5:
  78 0030 029B     		ldr	r3, [sp, #8]
  79 0032 041C     		mov	r4, r0
  80              	.LVL6:
  81 0034 1F18     		add	r7, r3, r0
  82              	.LVL7:
  52:..\acn-sdk-c\src\mqtt\packet\src/MQTTUnsubscribeServer.c **** 	enddata = curdata + mylen;
  83              		.loc 1 52 0
  84 0036 039B     		ldr	r3, [sp, #12]
  53:..\acn-sdk-c\src\mqtt\packet\src/MQTTUnsubscribeServer.c **** 
  54:..\acn-sdk-c\src\mqtt\packet\src/MQTTUnsubscribeServer.c **** 	*packetid = readInt(&curdata);
  85              		.loc 1 54 0
  86 0038 02A8     		add	r0, sp, #8
  87              	.LVL8:
  51:..\acn-sdk-c\src\mqtt\packet\src/MQTTUnsubscribeServer.c **** 	enddata = curdata + mylen;
  88              		.loc 1 51 0
  89 003a 0297     		str	r7, [sp, #8]
  52:..\acn-sdk-c\src\mqtt\packet\src/MQTTUnsubscribeServer.c **** 	enddata = curdata + mylen;
  90              		.loc 1 52 0
  91 003c FF18     		add	r7, r7, r3
  92              	.LVL9:
  93              		.loc 1 54 0
  94 003e FFF7FEFF 		bl	readInt
  95              	.LVL10:
  96 0042 019B     		ldr	r3, [sp, #4]
  97 0044 1880     		strh	r0, [r3]
  55:..\acn-sdk-c\src\mqtt\packet\src/MQTTUnsubscribeServer.c **** 
  56:..\acn-sdk-c\src\mqtt\packet\src/MQTTUnsubscribeServer.c **** 	*count = 0;
  98              		.loc 1 56 0
  99 0046 2E60     		str	r6, [r5]
 100              	.L3:
  57:..\acn-sdk-c\src\mqtt\packet\src/MQTTUnsubscribeServer.c **** 	while (curdata < enddata)
 101              		.loc 1 57 0
 102 0048 029B     		ldr	r3, [sp, #8]
 103 004a BB42     		cmp	r3, r7
 104 004c 0ED2     		bcs	.L10
ARM GAS  C:\Users\ddemidov\AppData\Local\Temp\ccaKwQ22.s 			page 4


  58:..\acn-sdk-c\src\mqtt\packet\src/MQTTUnsubscribeServer.c **** 	{
  59:..\acn-sdk-c\src\mqtt\packet\src/MQTTUnsubscribeServer.c **** 		if (!readMQTTLenString(&topicFilters[*count], &curdata, enddata))
 105              		.loc 1 59 0
 106 004e 0C20     		mov	r0, #12
 107 0050 2B68     		ldr	r3, [r5]
 108 0052 02A9     		add	r1, sp, #8
 109 0054 5843     		mul	r0, r3
 110 0056 0A9B     		ldr	r3, [sp, #40]
 111 0058 3A1C     		mov	r2, r7
 112 005a 1818     		add	r0, r3, r0
 113 005c FFF7FEFF 		bl	readMQTTLenString
 114              	.LVL11:
 115 0060 0028     		cmp	r0, #0
 116 0062 04D0     		beq	.L2
  60:..\acn-sdk-c\src\mqtt\packet\src/MQTTUnsubscribeServer.c **** 			goto exit;
  61:..\acn-sdk-c\src\mqtt\packet\src/MQTTUnsubscribeServer.c **** 		(*count)++;
 117              		.loc 1 61 0
 118 0064 2B68     		ldr	r3, [r5]
 119 0066 0133     		add	r3, r3, #1
 120 0068 2B60     		str	r3, [r5]
 121 006a EDE7     		b	.L3
 122              	.L10:
  62:..\acn-sdk-c\src\mqtt\packet\src/MQTTUnsubscribeServer.c **** 	}
  63:..\acn-sdk-c\src\mqtt\packet\src/MQTTUnsubscribeServer.c **** 
  64:..\acn-sdk-c\src\mqtt\packet\src/MQTTUnsubscribeServer.c **** 	rc = 1;
 123              		.loc 1 64 0
 124 006c 0124     		mov	r4, #1
 125              	.LVL12:
 126              	.L2:
  65:..\acn-sdk-c\src\mqtt\packet\src/MQTTUnsubscribeServer.c **** exit:
  66:..\acn-sdk-c\src\mqtt\packet\src/MQTTUnsubscribeServer.c **** 	FUNC_EXIT_RC(rc);
  67:..\acn-sdk-c\src\mqtt\packet\src/MQTTUnsubscribeServer.c **** 	return rc;
  68:..\acn-sdk-c\src\mqtt\packet\src/MQTTUnsubscribeServer.c **** }
 127              		.loc 1 68 0
 128 006e 201C     		mov	r0, r4
 129 0070 05B0     		add	sp, sp, #20
 130              		@ sp needed
 131              	.LVL13:
 132              	.LVL14:
 133 0072 F0BD     		pop	{r4, r5, r6, r7, pc}
 134              		.cfi_endproc
 135              	.LFE0:
 136              		.size	MQTTDeserialize_unsubscribe, .-MQTTDeserialize_unsubscribe
 137              		.section	.text.MQTTSerialize_unsuback,"ax",%progbits
 138              		.align	1
 139              		.global	MQTTSerialize_unsuback
 140              		.code	16
 141              		.thumb_func
 142              		.type	MQTTSerialize_unsuback, %function
 143              	MQTTSerialize_unsuback:
 144              	.LFB1:
  69:..\acn-sdk-c\src\mqtt\packet\src/MQTTUnsubscribeServer.c **** 
  70:..\acn-sdk-c\src\mqtt\packet\src/MQTTUnsubscribeServer.c **** 
  71:..\acn-sdk-c\src\mqtt\packet\src/MQTTUnsubscribeServer.c **** /**
  72:..\acn-sdk-c\src\mqtt\packet\src/MQTTUnsubscribeServer.c ****   * Serializes the supplied unsuback data into the supplied buffer, ready for sending
  73:..\acn-sdk-c\src\mqtt\packet\src/MQTTUnsubscribeServer.c ****   * @param buf the buffer into which the packet will be serialized
  74:..\acn-sdk-c\src\mqtt\packet\src/MQTTUnsubscribeServer.c ****   * @param buflen the length in bytes of the supplied buffer
ARM GAS  C:\Users\ddemidov\AppData\Local\Temp\ccaKwQ22.s 			page 5


  75:..\acn-sdk-c\src\mqtt\packet\src/MQTTUnsubscribeServer.c ****   * @param packetid integer - the MQTT packet identifier
  76:..\acn-sdk-c\src\mqtt\packet\src/MQTTUnsubscribeServer.c ****   * @return the length of the serialized data.  <= 0 indicates error
  77:..\acn-sdk-c\src\mqtt\packet\src/MQTTUnsubscribeServer.c ****   */
  78:..\acn-sdk-c\src\mqtt\packet\src/MQTTUnsubscribeServer.c **** int MQTTSerialize_unsuback(unsigned char* buf, int buflen, unsigned short packetid)
  79:..\acn-sdk-c\src\mqtt\packet\src/MQTTUnsubscribeServer.c **** {
 145              		.loc 1 79 0
 146              		.cfi_startproc
 147              	.LVL15:
 148 0000 37B5     		push	{r0, r1, r2, r4, r5, lr}
 149              		.cfi_def_cfa_offset 24
 150              		.cfi_offset 0, -24
 151              		.cfi_offset 1, -20
 152              		.cfi_offset 2, -16
 153              		.cfi_offset 4, -12
 154              		.cfi_offset 5, -8
 155              		.cfi_offset 14, -4
  80:..\acn-sdk-c\src\mqtt\packet\src/MQTTUnsubscribeServer.c **** 	MQTTHeader header = {0};
  81:..\acn-sdk-c\src\mqtt\packet\src/MQTTUnsubscribeServer.c **** 	int rc = 0;
  82:..\acn-sdk-c\src\mqtt\packet\src/MQTTUnsubscribeServer.c **** 	unsigned char *ptr = buf;
 156              		.loc 1 82 0
 157 0002 0190     		str	r0, [sp, #4]
  83:..\acn-sdk-c\src\mqtt\packet\src/MQTTUnsubscribeServer.c **** 
  84:..\acn-sdk-c\src\mqtt\packet\src/MQTTUnsubscribeServer.c **** 	FUNC_ENTRY;
  85:..\acn-sdk-c\src\mqtt\packet\src/MQTTUnsubscribeServer.c **** 	if (buflen < 2)
 158              		.loc 1 85 0
 159 0004 0129     		cmp	r1, #1
 160 0006 13DD     		ble	.L13
 161 0008 041C     		mov	r4, r0
  86:..\acn-sdk-c\src\mqtt\packet\src/MQTTUnsubscribeServer.c **** 	{
  87:..\acn-sdk-c\src\mqtt\packet\src/MQTTUnsubscribeServer.c **** 		rc = MQTTPACKET_BUFFER_TOO_SHORT;
  88:..\acn-sdk-c\src\mqtt\packet\src/MQTTUnsubscribeServer.c **** 		goto exit;
  89:..\acn-sdk-c\src\mqtt\packet\src/MQTTUnsubscribeServer.c **** 	}
  90:..\acn-sdk-c\src\mqtt\packet\src/MQTTUnsubscribeServer.c **** 	header.byte = 0;
  91:..\acn-sdk-c\src\mqtt\packet\src/MQTTUnsubscribeServer.c **** 	header.bits.type = UNSUBACK;
  92:..\acn-sdk-c\src\mqtt\packet\src/MQTTUnsubscribeServer.c **** 	writeChar(&ptr, header.byte); /* write header */
 162              		.loc 1 92 0
 163 000a B021     		mov	r1, #176
 164              	.LVL16:
 165 000c 01A8     		add	r0, sp, #4
 166              	.LVL17:
 167 000e 151C     		mov	r5, r2
 168 0010 FFF7FEFF 		bl	writeChar
 169              	.LVL18:
  93:..\acn-sdk-c\src\mqtt\packet\src/MQTTUnsubscribeServer.c **** 
  94:..\acn-sdk-c\src\mqtt\packet\src/MQTTUnsubscribeServer.c **** 	ptr += MQTTPacket_encode(ptr, 2); /* write remaining length */
 170              		.loc 1 94 0
 171 0014 0221     		mov	r1, #2
 172 0016 0198     		ldr	r0, [sp, #4]
 173 0018 FFF7FEFF 		bl	MQTTPacket_encode
 174              	.LVL19:
 175 001c 019B     		ldr	r3, [sp, #4]
  95:..\acn-sdk-c\src\mqtt\packet\src/MQTTUnsubscribeServer.c **** 
  96:..\acn-sdk-c\src\mqtt\packet\src/MQTTUnsubscribeServer.c **** 	writeInt(&ptr, packetid);
 176              		.loc 1 96 0
 177 001e 291C     		mov	r1, r5
  94:..\acn-sdk-c\src\mqtt\packet\src/MQTTUnsubscribeServer.c **** 
 178              		.loc 1 94 0
ARM GAS  C:\Users\ddemidov\AppData\Local\Temp\ccaKwQ22.s 			page 6


 179 0020 1818     		add	r0, r3, r0
 180 0022 0190     		str	r0, [sp, #4]
 181              		.loc 1 96 0
 182 0024 01A8     		add	r0, sp, #4
 183 0026 FFF7FEFF 		bl	writeInt
 184              	.LVL20:
  97:..\acn-sdk-c\src\mqtt\packet\src/MQTTUnsubscribeServer.c **** 
  98:..\acn-sdk-c\src\mqtt\packet\src/MQTTUnsubscribeServer.c **** 	rc = ptr - buf;
 185              		.loc 1 98 0
 186 002a 019B     		ldr	r3, [sp, #4]
 187 002c 181B     		sub	r0, r3, r4
 188              	.LVL21:
 189 002e 01E0     		b	.L12
 190              	.LVL22:
 191              	.L13:
  87:..\acn-sdk-c\src\mqtt\packet\src/MQTTUnsubscribeServer.c **** 		goto exit;
 192              		.loc 1 87 0
 193 0030 0220     		mov	r0, #2
 194              	.LVL23:
 195 0032 4042     		neg	r0, r0
 196              	.LVL24:
 197              	.L12:
  99:..\acn-sdk-c\src\mqtt\packet\src/MQTTUnsubscribeServer.c **** exit:
 100:..\acn-sdk-c\src\mqtt\packet\src/MQTTUnsubscribeServer.c **** 	FUNC_EXIT_RC(rc);
 101:..\acn-sdk-c\src\mqtt\packet\src/MQTTUnsubscribeServer.c **** 	return rc;
 102:..\acn-sdk-c\src\mqtt\packet\src/MQTTUnsubscribeServer.c **** }
 198              		.loc 1 102 0
 199              		@ sp needed
 200 0034 3EBD     		pop	{r1, r2, r3, r4, r5, pc}
 201              		.cfi_endproc
 202              	.LFE1:
 203              		.size	MQTTSerialize_unsuback, .-MQTTSerialize_unsuback
 204              		.text
 205              	.Letext0:
 206              		.file 2 "..\\acn-sdk-c\\include/mqtt/packet/MQTTPacket.h"