ARM GAS  C:\Users\ddemidov\AppData\Local\Temp\ccnTK2wU.s 			page 1


   1              		.cpu cortex-m0
   2              		.fpu softvfp
   3              		.eabi_attribute 20, 1
   4              		.eabi_attribute 21, 1
   5              		.eabi_attribute 23, 3
   6              		.eabi_attribute 24, 1
   7              		.eabi_attribute 25, 1
   8              		.eabi_attribute 26, 1
   9              		.eabi_attribute 30, 4
  10              		.eabi_attribute 34, 0
  11              		.eabi_attribute 18, 4
  12              		.code	16
  13              		.file	"MQTTSerializePublish.c"
  14              		.text
  15              	.Ltext0:
  16              		.cfi_sections	.debug_frame
  17              		.section	.text.MQTTSerialize_publishLength,"ax",%progbits
  18              		.align	1
  19              		.global	MQTTSerialize_publishLength
  20              		.code	16
  21              		.thumb_func
  22              		.type	MQTTSerialize_publishLength, %function
  23              	MQTTSerialize_publishLength:
  24              	.LFB0:
  25              		.file 1 "..\\acn-sdk-c\\src\\mqtt\\packet\\src\\MQTTSerializePublish.c"
   1:..\acn-sdk-c\src\mqtt\packet\src/MQTTSerializePublish.c **** /*******************************************************************************
   2:..\acn-sdk-c\src\mqtt\packet\src/MQTTSerializePublish.c ****  * Copyright (c) 2014 IBM Corp.
   3:..\acn-sdk-c\src\mqtt\packet\src/MQTTSerializePublish.c ****  *
   4:..\acn-sdk-c\src\mqtt\packet\src/MQTTSerializePublish.c ****  * All rights reserved. This program and the accompanying materials
   5:..\acn-sdk-c\src\mqtt\packet\src/MQTTSerializePublish.c ****  * are made available under the terms of the Eclipse Public License v1.0
   6:..\acn-sdk-c\src\mqtt\packet\src/MQTTSerializePublish.c ****  * and Eclipse Distribution License v1.0 which accompany this distribution.
   7:..\acn-sdk-c\src\mqtt\packet\src/MQTTSerializePublish.c ****  *
   8:..\acn-sdk-c\src\mqtt\packet\src/MQTTSerializePublish.c ****  * The Eclipse Public License is available at
   9:..\acn-sdk-c\src\mqtt\packet\src/MQTTSerializePublish.c ****  *    http://www.eclipse.org/legal/epl-v10.html
  10:..\acn-sdk-c\src\mqtt\packet\src/MQTTSerializePublish.c ****  * and the Eclipse Distribution License is available at
  11:..\acn-sdk-c\src\mqtt\packet\src/MQTTSerializePublish.c ****  *   http://www.eclipse.org/org/documents/edl-v10.php.
  12:..\acn-sdk-c\src\mqtt\packet\src/MQTTSerializePublish.c ****  *
  13:..\acn-sdk-c\src\mqtt\packet\src/MQTTSerializePublish.c ****  * Contributors:
  14:..\acn-sdk-c\src\mqtt\packet\src/MQTTSerializePublish.c ****  *    Ian Craggs - initial API and implementation and/or initial documentation
  15:..\acn-sdk-c\src\mqtt\packet\src/MQTTSerializePublish.c ****  *    Ian Craggs - fix for https://bugs.eclipse.org/bugs/show_bug.cgi?id=453144
  16:..\acn-sdk-c\src\mqtt\packet\src/MQTTSerializePublish.c ****  *******************************************************************************/
  17:..\acn-sdk-c\src\mqtt\packet\src/MQTTSerializePublish.c **** 
  18:..\acn-sdk-c\src\mqtt\packet\src/MQTTSerializePublish.c **** #include <mqtt/packet/StackTrace.h>
  19:..\acn-sdk-c\src\mqtt\packet\src/MQTTSerializePublish.c **** #include "mqtt/packet/MQTTPacket.h"
  20:..\acn-sdk-c\src\mqtt\packet\src/MQTTSerializePublish.c **** #include <string.h>
  21:..\acn-sdk-c\src\mqtt\packet\src/MQTTSerializePublish.c **** 
  22:..\acn-sdk-c\src\mqtt\packet\src/MQTTSerializePublish.c **** 
  23:..\acn-sdk-c\src\mqtt\packet\src/MQTTSerializePublish.c **** /**
  24:..\acn-sdk-c\src\mqtt\packet\src/MQTTSerializePublish.c ****   * Determines the length of the MQTT publish packet that would be produced using the supplied para
  25:..\acn-sdk-c\src\mqtt\packet\src/MQTTSerializePublish.c ****   * @param qos the MQTT QoS of the publish (packetid is omitted for QoS 0)
  26:..\acn-sdk-c\src\mqtt\packet\src/MQTTSerializePublish.c ****   * @param topicName the topic name to be used in the publish  
  27:..\acn-sdk-c\src\mqtt\packet\src/MQTTSerializePublish.c ****   * @param payloadlen the length of the payload to be sent
  28:..\acn-sdk-c\src\mqtt\packet\src/MQTTSerializePublish.c ****   * @return the length of buffer needed to contain the serialized version of the packet
  29:..\acn-sdk-c\src\mqtt\packet\src/MQTTSerializePublish.c ****   */
  30:..\acn-sdk-c\src\mqtt\packet\src/MQTTSerializePublish.c **** int MQTTSerialize_publishLength(int qos, MQTTString topicName, int payloadlen)
  31:..\acn-sdk-c\src\mqtt\packet\src/MQTTSerializePublish.c **** {
  26              		.loc 1 31 0
ARM GAS  C:\Users\ddemidov\AppData\Local\Temp\ccnTK2wU.s 			page 2


  27              		.cfi_startproc
  28              	.LVL0:
  29 0000 1FB5     		push	{r0, r1, r2, r3, r4, lr}
  30              		.cfi_def_cfa_offset 24
  31              		.cfi_offset 0, -24
  32              		.cfi_offset 1, -20
  33              		.cfi_offset 2, -16
  34              		.cfi_offset 3, -12
  35              		.cfi_offset 4, -8
  36              		.cfi_offset 14, -4
  37              		.loc 1 31 0
  38 0002 041C     		mov	r4, r0
  32:..\acn-sdk-c\src\mqtt\packet\src/MQTTSerializePublish.c **** 	int len = 0;
  33:..\acn-sdk-c\src\mqtt\packet\src/MQTTSerializePublish.c **** 
  34:..\acn-sdk-c\src\mqtt\packet\src/MQTTSerializePublish.c **** 	len += 2 + MQTTstrlen(topicName) + payloadlen;
  39              		.loc 1 34 0
  40 0004 081C     		mov	r0, r1
  41              	.LVL1:
  42 0006 111C     		mov	r1, r2
  43 0008 1A1C     		mov	r2, r3
  44 000a FFF7FEFF 		bl	MQTTstrlen
  45              	.LVL2:
  46 000e 069B     		ldr	r3, [sp, #24]
  47 0010 0230     		add	r0, r0, #2
  48 0012 C018     		add	r0, r0, r3
  49              	.LVL3:
  35:..\acn-sdk-c\src\mqtt\packet\src/MQTTSerializePublish.c **** 	if (qos > 0)
  50              		.loc 1 35 0
  51 0014 002C     		cmp	r4, #0
  52 0016 00DD     		ble	.L2
  36:..\acn-sdk-c\src\mqtt\packet\src/MQTTSerializePublish.c **** 		len += 2; /* packetid */
  53              		.loc 1 36 0
  54 0018 0230     		add	r0, r0, #2
  55              	.LVL4:
  56              	.L2:
  37:..\acn-sdk-c\src\mqtt\packet\src/MQTTSerializePublish.c **** 	return len;
  38:..\acn-sdk-c\src\mqtt\packet\src/MQTTSerializePublish.c **** }
  57              		.loc 1 38 0
  58 001a 04B0     		add	sp, sp, #16
  59              		@ sp needed
  60              	.LVL5:
  61 001c 10BD     		pop	{r4, pc}
  62              		.cfi_endproc
  63              	.LFE0:
  64              		.size	MQTTSerialize_publishLength, .-MQTTSerialize_publishLength
  65              		.section	.text.MQTTSerialize_publish,"ax",%progbits
  66              		.align	1
  67              		.global	MQTTSerialize_publish
  68              		.code	16
  69              		.thumb_func
  70              		.type	MQTTSerialize_publish, %function
  71              	MQTTSerialize_publish:
  72              	.LFB1:
  39:..\acn-sdk-c\src\mqtt\packet\src/MQTTSerializePublish.c **** 
  40:..\acn-sdk-c\src\mqtt\packet\src/MQTTSerializePublish.c **** 
  41:..\acn-sdk-c\src\mqtt\packet\src/MQTTSerializePublish.c **** /**
  42:..\acn-sdk-c\src\mqtt\packet\src/MQTTSerializePublish.c ****   * Serializes the supplied publish data into the supplied buffer, ready for sending
ARM GAS  C:\Users\ddemidov\AppData\Local\Temp\ccnTK2wU.s 			page 3


  43:..\acn-sdk-c\src\mqtt\packet\src/MQTTSerializePublish.c ****   * @param buf the buffer into which the packet will be serialized
  44:..\acn-sdk-c\src\mqtt\packet\src/MQTTSerializePublish.c ****   * @param buflen the length in bytes of the supplied buffer
  45:..\acn-sdk-c\src\mqtt\packet\src/MQTTSerializePublish.c ****   * @param dup integer - the MQTT dup flag
  46:..\acn-sdk-c\src\mqtt\packet\src/MQTTSerializePublish.c ****   * @param qos integer - the MQTT QoS value
  47:..\acn-sdk-c\src\mqtt\packet\src/MQTTSerializePublish.c ****   * @param retained integer - the MQTT retained flag
  48:..\acn-sdk-c\src\mqtt\packet\src/MQTTSerializePublish.c ****   * @param packetid integer - the MQTT packet identifier
  49:..\acn-sdk-c\src\mqtt\packet\src/MQTTSerializePublish.c ****   * @param topicName MQTTString - the MQTT topic in the publish
  50:..\acn-sdk-c\src\mqtt\packet\src/MQTTSerializePublish.c ****   * @param payload byte buffer - the MQTT publish payload
  51:..\acn-sdk-c\src\mqtt\packet\src/MQTTSerializePublish.c ****   * @param payloadlen integer - the length of the MQTT payload
  52:..\acn-sdk-c\src\mqtt\packet\src/MQTTSerializePublish.c ****   * @return the length of the serialized data.  <= 0 indicates error
  53:..\acn-sdk-c\src\mqtt\packet\src/MQTTSerializePublish.c ****   */
  54:..\acn-sdk-c\src\mqtt\packet\src/MQTTSerializePublish.c **** int MQTTSerialize_publish(unsigned char* buf, int buflen, unsigned char dup, int qos, unsigned char
  55:..\acn-sdk-c\src\mqtt\packet\src/MQTTSerializePublish.c **** 		MQTTString topicName, unsigned char* payload, int payloadlen)
  56:..\acn-sdk-c\src\mqtt\packet\src/MQTTSerializePublish.c **** {
  73              		.loc 1 56 0
  74              		.cfi_startproc
  75              	.LVL6:
  76 0000 F0B5     		push	{r4, r5, r6, r7, lr}
  77              		.cfi_def_cfa_offset 20
  78              		.cfi_offset 4, -20
  79              		.cfi_offset 5, -16
  80              		.cfi_offset 6, -12
  81              		.cfi_offset 7, -8
  82              		.cfi_offset 14, -4
  83 0002 1D1C     		mov	r5, r3
  84 0004 89B0     		sub	sp, sp, #36
  85              		.cfi_def_cfa_offset 56
  86              		.loc 1 56 0
  87 0006 0EAB     		add	r3, sp, #56
  88              	.LVL7:
  89 0008 1B78     		ldrb	r3, [r3]
  90              	.LVL8:
  91 000a 0F1C     		mov	r7, r1
  92 000c 0493     		str	r3, [sp, #16]
  93 000e 0FAB     		add	r3, sp, #60
  94              	.LVL9:
  95 0010 1B88     		ldrh	r3, [r3]
  96              	.LVL10:
  97 0012 0392     		str	r2, [sp, #12]
  98 0014 0593     		str	r3, [sp, #20]
  57:..\acn-sdk-c\src\mqtt\packet\src/MQTTSerializePublish.c **** 	unsigned char *ptr = buf;
  58:..\acn-sdk-c\src\mqtt\packet\src/MQTTSerializePublish.c **** 	MQTTHeader header = {0};
  59:..\acn-sdk-c\src\mqtt\packet\src/MQTTSerializePublish.c **** 	int rem_len = 0;
  60:..\acn-sdk-c\src\mqtt\packet\src/MQTTSerializePublish.c **** 	int rc = 0;
  61:..\acn-sdk-c\src\mqtt\packet\src/MQTTSerializePublish.c **** 
  62:..\acn-sdk-c\src\mqtt\packet\src/MQTTSerializePublish.c **** 	FUNC_ENTRY;
  63:..\acn-sdk-c\src\mqtt\packet\src/MQTTSerializePublish.c **** 	if (MQTTPacket_len(rem_len = MQTTSerialize_publishLength(qos, topicName, payloadlen)) > buflen)
  99              		.loc 1 63 0
 100 0016 149B     		ldr	r3, [sp, #80]
  57:..\acn-sdk-c\src\mqtt\packet\src/MQTTSerializePublish.c **** 	unsigned char *ptr = buf;
 101              		.loc 1 57 0
 102 0018 0790     		str	r0, [sp, #28]
 103              	.LVL11:
 104              		.loc 1 63 0
 105 001a 0093     		str	r3, [sp]
  56:..\acn-sdk-c\src\mqtt\packet\src/MQTTSerializePublish.c **** 	unsigned char *ptr = buf;
 106              		.loc 1 56 0
ARM GAS  C:\Users\ddemidov\AppData\Local\Temp\ccnTK2wU.s 			page 4


 107 001c 041C     		mov	r4, r0
 108              		.loc 1 63 0
 109 001e 1099     		ldr	r1, [sp, #64]
 110              	.LVL12:
 111 0020 281C     		mov	r0, r5
 112              	.LVL13:
 113 0022 119A     		ldr	r2, [sp, #68]
 114              	.LVL14:
 115 0024 129B     		ldr	r3, [sp, #72]
 116 0026 FFF7FEFF 		bl	MQTTSerialize_publishLength
 117              	.LVL15:
 118 002a 061C     		mov	r6, r0
 119              	.LVL16:
 120 002c FFF7FEFF 		bl	MQTTPacket_len
 121              	.LVL17:
 122 0030 B842     		cmp	r0, r7
 123 0032 2CDC     		bgt	.L7
  64:..\acn-sdk-c\src\mqtt\packet\src/MQTTSerializePublish.c **** 	{
  65:..\acn-sdk-c\src\mqtt\packet\src/MQTTSerializePublish.c **** 		rc = MQTTPACKET_BUFFER_TOO_SHORT;
  66:..\acn-sdk-c\src\mqtt\packet\src/MQTTSerializePublish.c **** 		goto exit;
  67:..\acn-sdk-c\src\mqtt\packet\src/MQTTSerializePublish.c **** 	}
  68:..\acn-sdk-c\src\mqtt\packet\src/MQTTSerializePublish.c **** 
  69:..\acn-sdk-c\src\mqtt\packet\src/MQTTSerializePublish.c **** 	header.bits.type = PUBLISH;
  70:..\acn-sdk-c\src\mqtt\packet\src/MQTTSerializePublish.c **** 	header.bits.dup = dup;
  71:..\acn-sdk-c\src\mqtt\packet\src/MQTTSerializePublish.c **** 	header.bits.qos = qos;
 124              		.loc 1 71 0
 125 0034 0322     		mov	r2, #3
  70:..\acn-sdk-c\src\mqtt\packet\src/MQTTSerializePublish.c **** 	header.bits.qos = qos;
 126              		.loc 1 70 0
 127 0036 0120     		mov	r0, #1
 128              		.loc 1 71 0
 129 0038 3021     		mov	r1, #48
 130 003a 2A40     		and	r2, r5
 131 003c 8240     		lsl	r2, r2, r0
  70:..\acn-sdk-c\src\mqtt\packet\src/MQTTSerializePublish.c **** 	header.bits.qos = qos;
 132              		.loc 1 70 0
 133 003e 039B     		ldr	r3, [sp, #12]
 134 0040 0340     		and	r3, r0
 135 0042 DB00     		lsl	r3, r3, #3
 136              		.loc 1 71 0
 137 0044 0B43     		orr	r3, r1
  72:..\acn-sdk-c\src\mqtt\packet\src/MQTTSerializePublish.c **** 	header.bits.retain = retained;
 138              		.loc 1 72 0
 139 0046 0499     		ldr	r1, [sp, #16]
  71:..\acn-sdk-c\src\mqtt\packet\src/MQTTSerializePublish.c **** 	header.bits.retain = retained;
 140              		.loc 1 71 0
 141 0048 1343     		orr	r3, r2
 142              		.loc 1 72 0
 143 004a 0140     		and	r1, r0
  73:..\acn-sdk-c\src\mqtt\packet\src/MQTTSerializePublish.c **** 	writeChar(&ptr, header.byte); /* write header */
 144              		.loc 1 73 0
 145 004c 1943     		orr	r1, r3
 146              	.LVL18:
 147 004e 07A8     		add	r0, sp, #28
 148 0050 FFF7FEFF 		bl	writeChar
 149              	.LVL19:
  74:..\acn-sdk-c\src\mqtt\packet\src/MQTTSerializePublish.c **** 
ARM GAS  C:\Users\ddemidov\AppData\Local\Temp\ccnTK2wU.s 			page 5


  75:..\acn-sdk-c\src\mqtt\packet\src/MQTTSerializePublish.c **** 	ptr += MQTTPacket_encode(ptr, rem_len); /* write remaining length */;
 150              		.loc 1 75 0
 151 0054 311C     		mov	r1, r6
 152 0056 0798     		ldr	r0, [sp, #28]
 153 0058 FFF7FEFF 		bl	MQTTPacket_encode
 154              	.LVL20:
 155 005c 079B     		ldr	r3, [sp, #28]
  76:..\acn-sdk-c\src\mqtt\packet\src/MQTTSerializePublish.c **** 
  77:..\acn-sdk-c\src\mqtt\packet\src/MQTTSerializePublish.c **** 	writeMQTTString(&ptr, topicName);
 156              		.loc 1 77 0
 157 005e 1099     		ldr	r1, [sp, #64]
  75:..\acn-sdk-c\src\mqtt\packet\src/MQTTSerializePublish.c **** 
 158              		.loc 1 75 0
 159 0060 1818     		add	r0, r3, r0
 160 0062 0790     		str	r0, [sp, #28]
 161              		.loc 1 77 0
 162 0064 119A     		ldr	r2, [sp, #68]
 163 0066 07A8     		add	r0, sp, #28
 164 0068 129B     		ldr	r3, [sp, #72]
 165 006a FFF7FEFF 		bl	writeMQTTString
 166              	.LVL21:
  78:..\acn-sdk-c\src\mqtt\packet\src/MQTTSerializePublish.c **** 
  79:..\acn-sdk-c\src\mqtt\packet\src/MQTTSerializePublish.c **** 	if (qos > 0)
 167              		.loc 1 79 0
 168 006e 002D     		cmp	r5, #0
 169 0070 03DD     		ble	.L6
  80:..\acn-sdk-c\src\mqtt\packet\src/MQTTSerializePublish.c **** 		writeInt(&ptr, packetid);
 170              		.loc 1 80 0
 171 0072 07A8     		add	r0, sp, #28
 172 0074 0599     		ldr	r1, [sp, #20]
 173 0076 FFF7FEFF 		bl	writeInt
 174              	.LVL22:
 175              	.L6:
  81:..\acn-sdk-c\src\mqtt\packet\src/MQTTSerializePublish.c **** 
  82:..\acn-sdk-c\src\mqtt\packet\src/MQTTSerializePublish.c **** 	memcpy(ptr, payload, payloadlen);
 176              		.loc 1 82 0
 177 007a 149A     		ldr	r2, [sp, #80]
 178 007c 0798     		ldr	r0, [sp, #28]
 179 007e 1399     		ldr	r1, [sp, #76]
 180 0080 FFF7FEFF 		bl	memcpy
 181              	.LVL23:
  83:..\acn-sdk-c\src\mqtt\packet\src/MQTTSerializePublish.c **** 	ptr += payloadlen;
 182              		.loc 1 83 0
 183 0084 079B     		ldr	r3, [sp, #28]
 184 0086 149A     		ldr	r2, [sp, #80]
 185 0088 9818     		add	r0, r3, r2
 186              	.LVL24:
  84:..\acn-sdk-c\src\mqtt\packet\src/MQTTSerializePublish.c **** 
  85:..\acn-sdk-c\src\mqtt\packet\src/MQTTSerializePublish.c **** 	rc = ptr - buf;
 187              		.loc 1 85 0
 188 008a 001B     		sub	r0, r0, r4
 189              	.LVL25:
 190 008c 01E0     		b	.L5
 191              	.LVL26:
 192              	.L7:
  65:..\acn-sdk-c\src\mqtt\packet\src/MQTTSerializePublish.c **** 		goto exit;
 193              		.loc 1 65 0
ARM GAS  C:\Users\ddemidov\AppData\Local\Temp\ccnTK2wU.s 			page 6


 194 008e 0220     		mov	r0, #2
 195 0090 4042     		neg	r0, r0
 196              	.LVL27:
 197              	.L5:
  86:..\acn-sdk-c\src\mqtt\packet\src/MQTTSerializePublish.c **** 
  87:..\acn-sdk-c\src\mqtt\packet\src/MQTTSerializePublish.c **** exit:
  88:..\acn-sdk-c\src\mqtt\packet\src/MQTTSerializePublish.c **** 	FUNC_EXIT_RC(rc);
  89:..\acn-sdk-c\src\mqtt\packet\src/MQTTSerializePublish.c **** 	return rc;
  90:..\acn-sdk-c\src\mqtt\packet\src/MQTTSerializePublish.c **** }
 198              		.loc 1 90 0
 199 0092 09B0     		add	sp, sp, #36
 200              		@ sp needed
 201              	.LVL28:
 202              	.LVL29:
 203              	.LVL30:
 204              	.LVL31:
 205 0094 F0BD     		pop	{r4, r5, r6, r7, pc}
 206              		.cfi_endproc
 207              	.LFE1:
 208              		.size	MQTTSerialize_publish, .-MQTTSerialize_publish
 209              		.section	.text.MQTTSerialize_ack,"ax",%progbits
 210              		.align	1
 211              		.global	MQTTSerialize_ack
 212              		.code	16
 213              		.thumb_func
 214              		.type	MQTTSerialize_ack, %function
 215              	MQTTSerialize_ack:
 216              	.LFB2:
  91:..\acn-sdk-c\src\mqtt\packet\src/MQTTSerializePublish.c **** 
  92:..\acn-sdk-c\src\mqtt\packet\src/MQTTSerializePublish.c **** 
  93:..\acn-sdk-c\src\mqtt\packet\src/MQTTSerializePublish.c **** 
  94:..\acn-sdk-c\src\mqtt\packet\src/MQTTSerializePublish.c **** /**
  95:..\acn-sdk-c\src\mqtt\packet\src/MQTTSerializePublish.c ****   * Serializes the ack packet into the supplied buffer.
  96:..\acn-sdk-c\src\mqtt\packet\src/MQTTSerializePublish.c ****   * @param buf the buffer into which the packet will be serialized
  97:..\acn-sdk-c\src\mqtt\packet\src/MQTTSerializePublish.c ****   * @param buflen the length in bytes of the supplied buffer
  98:..\acn-sdk-c\src\mqtt\packet\src/MQTTSerializePublish.c ****   * @param type the MQTT packet type
  99:..\acn-sdk-c\src\mqtt\packet\src/MQTTSerializePublish.c ****   * @param dup the MQTT dup flag
 100:..\acn-sdk-c\src\mqtt\packet\src/MQTTSerializePublish.c ****   * @param packetid the MQTT packet identifier
 101:..\acn-sdk-c\src\mqtt\packet\src/MQTTSerializePublish.c ****   * @return serialized length, or error if 0
 102:..\acn-sdk-c\src\mqtt\packet\src/MQTTSerializePublish.c ****   */
 103:..\acn-sdk-c\src\mqtt\packet\src/MQTTSerializePublish.c **** int MQTTSerialize_ack(unsigned char* buf, int buflen, unsigned char packettype, unsigned char dup, 
 104:..\acn-sdk-c\src\mqtt\packet\src/MQTTSerializePublish.c **** {
 217              		.loc 1 104 0
 218              		.cfi_startproc
 219              	.LVL32:
 220 0000 73B5     		push	{r0, r1, r4, r5, r6, lr}
 221              		.cfi_def_cfa_offset 24
 222              		.cfi_offset 0, -24
 223              		.cfi_offset 1, -20
 224              		.cfi_offset 4, -16
 225              		.cfi_offset 5, -12
 226              		.cfi_offset 6, -8
 227              		.cfi_offset 14, -4
 228              		.loc 1 104 0
 229 0002 06AC     		add	r4, sp, #24
 230              	.LVL33:
 231 0004 2588     		ldrh	r5, [r4]
ARM GAS  C:\Users\ddemidov\AppData\Local\Temp\ccnTK2wU.s 			page 7


 105:..\acn-sdk-c\src\mqtt\packet\src/MQTTSerializePublish.c **** 	MQTTHeader header = {0};
 106:..\acn-sdk-c\src\mqtt\packet\src/MQTTSerializePublish.c **** 	int rc = 0;
 107:..\acn-sdk-c\src\mqtt\packet\src/MQTTSerializePublish.c **** 	unsigned char *ptr = buf;
 232              		.loc 1 107 0
 233 0006 0190     		str	r0, [sp, #4]
 108:..\acn-sdk-c\src\mqtt\packet\src/MQTTSerializePublish.c **** 
 109:..\acn-sdk-c\src\mqtt\packet\src/MQTTSerializePublish.c **** 	FUNC_ENTRY;
 110:..\acn-sdk-c\src\mqtt\packet\src/MQTTSerializePublish.c **** 	if (buflen < 4)
 234              		.loc 1 110 0
 235 0008 0329     		cmp	r1, #3
 236 000a 1EDD     		ble	.L10
 237 000c 041C     		mov	r4, r0
 238              	.LVL34:
 111:..\acn-sdk-c\src\mqtt\packet\src/MQTTSerializePublish.c **** 	{
 112:..\acn-sdk-c\src\mqtt\packet\src/MQTTSerializePublish.c **** 		rc = MQTTPACKET_BUFFER_TOO_SHORT;
 113:..\acn-sdk-c\src\mqtt\packet\src/MQTTSerializePublish.c **** 		goto exit;
 114:..\acn-sdk-c\src\mqtt\packet\src/MQTTSerializePublish.c **** 	}
 115:..\acn-sdk-c\src\mqtt\packet\src/MQTTSerializePublish.c **** 	header.bits.type = packettype;
 239              		.loc 1 115 0
 240 000e 0F20     		mov	r0, #15
 241              	.LVL35:
 242 0010 1040     		and	r0, r2
 116:..\acn-sdk-c\src\mqtt\packet\src/MQTTSerializePublish.c **** 	header.bits.dup = dup;
 117:..\acn-sdk-c\src\mqtt\packet\src/MQTTSerializePublish.c **** 	header.bits.qos = (packettype == PUBREL) ? 1 : 0;
 243              		.loc 1 117 0
 244 0012 063A     		sub	r2, r2, #6
 245              	.LVL36:
 246 0014 191C     		mov	r1, r3
 247              	.LVL37:
 116:..\acn-sdk-c\src\mqtt\packet\src/MQTTSerializePublish.c **** 	header.bits.dup = dup;
 248              		.loc 1 116 0
 249 0016 0126     		mov	r6, #1
 250              		.loc 1 117 0
 251 0018 5342     		neg	r3, r2
 252 001a 5A41     		adc	r2, r2, r3
 253              	.LVL38:
 254 001c B240     		lsl	r2, r2, r6
 116:..\acn-sdk-c\src\mqtt\packet\src/MQTTSerializePublish.c **** 	header.bits.dup = dup;
 255              		.loc 1 116 0
 256 001e 3140     		and	r1, r6
 257 0020 0001     		lsl	r0, r0, #4
 258 0022 C900     		lsl	r1, r1, #3
 259              		.loc 1 117 0
 260 0024 0143     		orr	r1, r0
 118:..\acn-sdk-c\src\mqtt\packet\src/MQTTSerializePublish.c **** 	writeChar(&ptr, header.byte); /* write header */
 261              		.loc 1 118 0
 262 0026 1143     		orr	r1, r2
 263              	.LVL39:
 264 0028 01A8     		add	r0, sp, #4
 265 002a FFF7FEFF 		bl	writeChar
 266              	.LVL40:
 119:..\acn-sdk-c\src\mqtt\packet\src/MQTTSerializePublish.c **** 
 120:..\acn-sdk-c\src\mqtt\packet\src/MQTTSerializePublish.c **** 	ptr += MQTTPacket_encode(ptr, 2); /* write remaining length */
 267              		.loc 1 120 0
 268 002e 0221     		mov	r1, #2
 269 0030 0198     		ldr	r0, [sp, #4]
 270 0032 FFF7FEFF 		bl	MQTTPacket_encode
ARM GAS  C:\Users\ddemidov\AppData\Local\Temp\ccnTK2wU.s 			page 8


 271              	.LVL41:
 272 0036 019B     		ldr	r3, [sp, #4]
 121:..\acn-sdk-c\src\mqtt\packet\src/MQTTSerializePublish.c **** 	writeInt(&ptr, packetid);
 273              		.loc 1 121 0
 274 0038 291C     		mov	r1, r5
 120:..\acn-sdk-c\src\mqtt\packet\src/MQTTSerializePublish.c **** 	writeInt(&ptr, packetid);
 275              		.loc 1 120 0
 276 003a 1818     		add	r0, r3, r0
 277 003c 0190     		str	r0, [sp, #4]
 278              		.loc 1 121 0
 279 003e 01A8     		add	r0, sp, #4
 280 0040 FFF7FEFF 		bl	writeInt
 281              	.LVL42:
 122:..\acn-sdk-c\src\mqtt\packet\src/MQTTSerializePublish.c **** 	rc = ptr - buf;
 282              		.loc 1 122 0
 283 0044 019B     		ldr	r3, [sp, #4]
 284 0046 181B     		sub	r0, r3, r4
 285              	.LVL43:
 286 0048 01E0     		b	.L9
 287              	.LVL44:
 288              	.L10:
 112:..\acn-sdk-c\src\mqtt\packet\src/MQTTSerializePublish.c **** 		goto exit;
 289              		.loc 1 112 0
 290 004a 0220     		mov	r0, #2
 291              	.LVL45:
 292 004c 4042     		neg	r0, r0
 293              	.LVL46:
 294              	.L9:
 123:..\acn-sdk-c\src\mqtt\packet\src/MQTTSerializePublish.c **** exit:
 124:..\acn-sdk-c\src\mqtt\packet\src/MQTTSerializePublish.c **** 	FUNC_EXIT_RC(rc);
 125:..\acn-sdk-c\src\mqtt\packet\src/MQTTSerializePublish.c **** 	return rc;
 126:..\acn-sdk-c\src\mqtt\packet\src/MQTTSerializePublish.c **** }
 295              		.loc 1 126 0
 296              		@ sp needed
 297 004e 76BD     		pop	{r1, r2, r4, r5, r6, pc}
 298              		.cfi_endproc
 299              	.LFE2:
 300              		.size	MQTTSerialize_ack, .-MQTTSerialize_ack
 301              		.section	.text.MQTTSerialize_puback,"ax",%progbits
 302              		.align	1
 303              		.global	MQTTSerialize_puback
 304              		.code	16
 305              		.thumb_func
 306              		.type	MQTTSerialize_puback, %function
 307              	MQTTSerialize_puback:
 308              	.LFB3:
 127:..\acn-sdk-c\src\mqtt\packet\src/MQTTSerializePublish.c **** 
 128:..\acn-sdk-c\src\mqtt\packet\src/MQTTSerializePublish.c **** 
 129:..\acn-sdk-c\src\mqtt\packet\src/MQTTSerializePublish.c **** /**
 130:..\acn-sdk-c\src\mqtt\packet\src/MQTTSerializePublish.c ****   * Serializes a puback packet into the supplied buffer.
 131:..\acn-sdk-c\src\mqtt\packet\src/MQTTSerializePublish.c ****   * @param buf the buffer into which the packet will be serialized
 132:..\acn-sdk-c\src\mqtt\packet\src/MQTTSerializePublish.c ****   * @param buflen the length in bytes of the supplied buffer
 133:..\acn-sdk-c\src\mqtt\packet\src/MQTTSerializePublish.c ****   * @param packetid integer - the MQTT packet identifier
 134:..\acn-sdk-c\src\mqtt\packet\src/MQTTSerializePublish.c ****   * @return serialized length, or error if 0
 135:..\acn-sdk-c\src\mqtt\packet\src/MQTTSerializePublish.c ****   */
 136:..\acn-sdk-c\src\mqtt\packet\src/MQTTSerializePublish.c **** int MQTTSerialize_puback(unsigned char* buf, int buflen, unsigned short packetid)
 137:..\acn-sdk-c\src\mqtt\packet\src/MQTTSerializePublish.c **** {
ARM GAS  C:\Users\ddemidov\AppData\Local\Temp\ccnTK2wU.s 			page 9


 309              		.loc 1 137 0
 310              		.cfi_startproc
 311              	.LVL47:
 312 0000 07B5     		push	{r0, r1, r2, lr}
 313              		.cfi_def_cfa_offset 16
 314              		.cfi_offset 0, -16
 315              		.cfi_offset 1, -12
 316              		.cfi_offset 2, -8
 317              		.cfi_offset 14, -4
 138:..\acn-sdk-c\src\mqtt\packet\src/MQTTSerializePublish.c **** 	return MQTTSerialize_ack(buf, buflen, PUBACK, 0, packetid);
 318              		.loc 1 138 0
 319 0002 0023     		mov	r3, #0
 320 0004 0092     		str	r2, [sp]
 321 0006 0422     		mov	r2, #4
 322              	.LVL48:
 323 0008 FFF7FEFF 		bl	MQTTSerialize_ack
 324              	.LVL49:
 139:..\acn-sdk-c\src\mqtt\packet\src/MQTTSerializePublish.c **** }
 325              		.loc 1 139 0
 326              		@ sp needed
 327 000c 0EBD     		pop	{r1, r2, r3, pc}
 328              		.cfi_endproc
 329              	.LFE3:
 330              		.size	MQTTSerialize_puback, .-MQTTSerialize_puback
 331              		.section	.text.MQTTSerialize_pubrel,"ax",%progbits
 332              		.align	1
 333              		.global	MQTTSerialize_pubrel
 334              		.code	16
 335              		.thumb_func
 336              		.type	MQTTSerialize_pubrel, %function
 337              	MQTTSerialize_pubrel:
 338              	.LFB4:
 140:..\acn-sdk-c\src\mqtt\packet\src/MQTTSerializePublish.c **** 
 141:..\acn-sdk-c\src\mqtt\packet\src/MQTTSerializePublish.c **** 
 142:..\acn-sdk-c\src\mqtt\packet\src/MQTTSerializePublish.c **** /**
 143:..\acn-sdk-c\src\mqtt\packet\src/MQTTSerializePublish.c ****   * Serializes a pubrel packet into the supplied buffer.
 144:..\acn-sdk-c\src\mqtt\packet\src/MQTTSerializePublish.c ****   * @param buf the buffer into which the packet will be serialized
 145:..\acn-sdk-c\src\mqtt\packet\src/MQTTSerializePublish.c ****   * @param buflen the length in bytes of the supplied buffer
 146:..\acn-sdk-c\src\mqtt\packet\src/MQTTSerializePublish.c ****   * @param dup integer - the MQTT dup flag
 147:..\acn-sdk-c\src\mqtt\packet\src/MQTTSerializePublish.c ****   * @param packetid integer - the MQTT packet identifier
 148:..\acn-sdk-c\src\mqtt\packet\src/MQTTSerializePublish.c ****   * @return serialized length, or error if 0
 149:..\acn-sdk-c\src\mqtt\packet\src/MQTTSerializePublish.c ****   */
 150:..\acn-sdk-c\src\mqtt\packet\src/MQTTSerializePublish.c **** int MQTTSerialize_pubrel(unsigned char* buf, int buflen, unsigned char dup, unsigned short packetid
 151:..\acn-sdk-c\src\mqtt\packet\src/MQTTSerializePublish.c **** {
 339              		.loc 1 151 0
 340              		.cfi_startproc
 341              	.LVL50:
 342 0000 13B5     		push	{r0, r1, r4, lr}
 343              		.cfi_def_cfa_offset 16
 344              		.cfi_offset 0, -16
 345              		.cfi_offset 1, -12
 346              		.cfi_offset 4, -8
 347              		.cfi_offset 14, -4
 348              		.loc 1 151 0
 349 0002 141C     		mov	r4, r2
 152:..\acn-sdk-c\src\mqtt\packet\src/MQTTSerializePublish.c **** 	return MQTTSerialize_ack(buf, buflen, PUBREL, dup, packetid);
 350              		.loc 1 152 0
ARM GAS  C:\Users\ddemidov\AppData\Local\Temp\ccnTK2wU.s 			page 10


 351 0004 0093     		str	r3, [sp]
 352 0006 0622     		mov	r2, #6
 353              	.LVL51:
 354 0008 231C     		mov	r3, r4
 355              	.LVL52:
 356 000a FFF7FEFF 		bl	MQTTSerialize_ack
 357              	.LVL53:
 153:..\acn-sdk-c\src\mqtt\packet\src/MQTTSerializePublish.c **** }
 358              		.loc 1 153 0
 359              		@ sp needed
 360 000e 16BD     		pop	{r1, r2, r4, pc}
 361              		.cfi_endproc
 362              	.LFE4:
 363              		.size	MQTTSerialize_pubrel, .-MQTTSerialize_pubrel
 364              		.section	.text.MQTTSerialize_pubcomp,"ax",%progbits
 365              		.align	1
 366              		.global	MQTTSerialize_pubcomp
 367              		.code	16
 368              		.thumb_func
 369              		.type	MQTTSerialize_pubcomp, %function
 370              	MQTTSerialize_pubcomp:
 371              	.LFB5:
 154:..\acn-sdk-c\src\mqtt\packet\src/MQTTSerializePublish.c **** 
 155:..\acn-sdk-c\src\mqtt\packet\src/MQTTSerializePublish.c **** 
 156:..\acn-sdk-c\src\mqtt\packet\src/MQTTSerializePublish.c **** /**
 157:..\acn-sdk-c\src\mqtt\packet\src/MQTTSerializePublish.c ****   * Serializes a pubrel packet into the supplied buffer.
 158:..\acn-sdk-c\src\mqtt\packet\src/MQTTSerializePublish.c ****   * @param buf the buffer into which the packet will be serialized
 159:..\acn-sdk-c\src\mqtt\packet\src/MQTTSerializePublish.c ****   * @param buflen the length in bytes of the supplied buffer
 160:..\acn-sdk-c\src\mqtt\packet\src/MQTTSerializePublish.c ****   * @param packetid integer - the MQTT packet identifier
 161:..\acn-sdk-c\src\mqtt\packet\src/MQTTSerializePublish.c ****   * @return serialized length, or error if 0
 162:..\acn-sdk-c\src\mqtt\packet\src/MQTTSerializePublish.c ****   */
 163:..\acn-sdk-c\src\mqtt\packet\src/MQTTSerializePublish.c **** int MQTTSerialize_pubcomp(unsigned char* buf, int buflen, unsigned short packetid)
 164:..\acn-sdk-c\src\mqtt\packet\src/MQTTSerializePublish.c **** {
 372              		.loc 1 164 0
 373              		.cfi_startproc
 374              	.LVL54:
 375 0000 07B5     		push	{r0, r1, r2, lr}
 376              		.cfi_def_cfa_offset 16
 377              		.cfi_offset 0, -16
 378              		.cfi_offset 1, -12
 379              		.cfi_offset 2, -8
 380              		.cfi_offset 14, -4
 165:..\acn-sdk-c\src\mqtt\packet\src/MQTTSerializePublish.c **** 	return MQTTSerialize_ack(buf, buflen, PUBCOMP, 0, packetid);
 381              		.loc 1 165 0
 382 0002 0023     		mov	r3, #0
 383 0004 0092     		str	r2, [sp]
 384 0006 0722     		mov	r2, #7
 385              	.LVL55:
 386 0008 FFF7FEFF 		bl	MQTTSerialize_ack
 387              	.LVL56:
 166:..\acn-sdk-c\src\mqtt\packet\src/MQTTSerializePublish.c **** }
 388              		.loc 1 166 0
 389              		@ sp needed
 390 000c 0EBD     		pop	{r1, r2, r3, pc}
 391              		.cfi_endproc
 392              	.LFE5:
 393              		.size	MQTTSerialize_pubcomp, .-MQTTSerialize_pubcomp
ARM GAS  C:\Users\ddemidov\AppData\Local\Temp\ccnTK2wU.s 			page 11


 394              		.text
 395              	.Letext0:
 396              		.file 2 "..\\acn-sdk-c\\include/mqtt/packet/MQTTPacket.h"