ARM GAS  C:\Users\ddemidov\AppData\Local\Temp\ccFdtWnI.s 			page 1


   1              		.cpu cortex-m0
   2              		.fpu softvfp
   3              		.eabi_attribute 20, 1
   4              		.eabi_attribute 21, 1
   5              		.eabi_attribute 23, 3
   6              		.eabi_attribute 24, 1
   7              		.eabi_attribute 25, 1
   8              		.eabi_attribute 26, 1
   9              		.eabi_attribute 30, 4
  10              		.eabi_attribute 34, 0
  11              		.eabi_attribute 18, 4
  12              		.code	16
  13              		.file	"network.c"
  14              		.text
  15              	.Ltext0:
  16              		.cfi_sections	.debug_frame
  17              		.global	__aeabi_idiv
  18              		.global	__aeabi_idivmod
  19              		.section	.text._write,"ax",%progbits
  20              		.align	1
  21              		.code	16
  22              		.thumb_func
  23              		.type	_write, %function
  24              	_write:
  25              	.LFB1:
  26              		.file 1 "..\\acn-sdk-c\\src\\mqtt\\client\\src\\network.c"
   1:..\acn-sdk-c\src\mqtt\client\src/network.c **** #include "mqtt/client/network.h"
   2:..\acn-sdk-c\src\mqtt\client\src/network.c **** 
   3:..\acn-sdk-c\src\mqtt\client\src/network.c **** #include <bsd/socket.h>
   4:..\acn-sdk-c\src\mqtt\client\src/network.c **** #include <debug.h>
   5:..\acn-sdk-c\src\mqtt\client\src/network.c **** #include <bsd/inet.h>
   6:..\acn-sdk-c\src\mqtt\client\src/network.c **** #if defined(__USE_STD__)
   7:..\acn-sdk-c\src\mqtt\client\src/network.c **** # include <errno.h>
   8:..\acn-sdk-c\src\mqtt\client\src/network.c **** #endif
   9:..\acn-sdk-c\src\mqtt\client\src/network.c **** #if defined(__XCC__)
  10:..\acn-sdk-c\src\mqtt\client\src/network.c **** #define WOLFSSL SSL
  11:..\acn-sdk-c\src\mqtt\client\src/network.c **** #define WOLFSSL_CTX SSL_CTX
  12:..\acn-sdk-c\src\mqtt\client\src/network.c **** #define IPPROTO_TCP 0
  13:..\acn-sdk-c\src\mqtt\client\src/network.c **** #define SSL_SUCCESS 0
  14:..\acn-sdk-c\src\mqtt\client\src/network.c **** #define SSL_INBUF_SIZE               6000
  15:..\acn-sdk-c\src\mqtt\client\src/network.c **** #define SSL_OTA_INBUF_SIZE           20000
  16:..\acn-sdk-c\src\mqtt\client\src/network.c **** #define SSL_OUTBUF_SIZE              3500
  17:..\acn-sdk-c\src\mqtt\client\src/network.c **** # define wolfSSL_write qcom_SSL_write
  18:..\acn-sdk-c\src\mqtt\client\src/network.c **** # define wolfSSL_read qcom_SSL_read
  19:..\acn-sdk-c\src\mqtt\client\src/network.c **** #define strerror(...) "xcc error"
  20:..\acn-sdk-c\src\mqtt\client\src/network.c **** #endif
  21:..\acn-sdk-c\src\mqtt\client\src/network.c **** 
  22:..\acn-sdk-c\src\mqtt\client\src/network.c **** static int _read(Network* n, unsigned char* buffer, int len, int timeout_ms) {
  23:..\acn-sdk-c\src\mqtt\client\src/network.c ****     struct timeval interval = {timeout_ms / 1000, (timeout_ms % 1000) * 1000};
  24:..\acn-sdk-c\src\mqtt\client\src/network.c ****     if ((int)interval.tv_sec < 0 || (interval.tv_sec == 0 && interval.tv_usec <= 0)) {
  25:..\acn-sdk-c\src\mqtt\client\src/network.c ****         interval.tv_sec = 0;
  26:..\acn-sdk-c\src\mqtt\client\src/network.c ****         interval.tv_usec = 100;
  27:..\acn-sdk-c\src\mqtt\client\src/network.c ****     }
  28:..\acn-sdk-c\src\mqtt\client\src/network.c **** 
  29:..\acn-sdk-c\src\mqtt\client\src/network.c ****     setsockopt(n->my_socket, SOL_SOCKET, SO_RCVTIMEO, (char *)&interval, sizeof(struct timeval));
  30:..\acn-sdk-c\src\mqtt\client\src/network.c **** 
  31:..\acn-sdk-c\src\mqtt\client\src/network.c ****     int bytes = 0;
ARM GAS  C:\Users\ddemidov\AppData\Local\Temp\ccFdtWnI.s 			page 2


  32:..\acn-sdk-c\src\mqtt\client\src/network.c ****     int rc;
  33:..\acn-sdk-c\src\mqtt\client\src/network.c ****     while (bytes < len) {
  34:..\acn-sdk-c\src\mqtt\client\src/network.c **** #if defined(MQTT_CIPHER)
  35:..\acn-sdk-c\src\mqtt\client\src/network.c ****       rc = wolfSSL_read(n->ssl, buffer + bytes, (uint16_t)(len - bytes));
  36:..\acn-sdk-c\src\mqtt\client\src/network.c **** #else
  37:..\acn-sdk-c\src\mqtt\client\src/network.c ****       rc = recv(n->my_socket, (char*) buffer +bytes, (uint16_t)(len - bytes), 0);
  38:..\acn-sdk-c\src\mqtt\client\src/network.c **** #endif
  39:..\acn-sdk-c\src\mqtt\client\src/network.c ****         if (rc) DBG("mqtt recv %d/%d", rc, len);
  40:..\acn-sdk-c\src\mqtt\client\src/network.c ****         if (rc < 0) {
  41:..\acn-sdk-c\src\mqtt\client\src/network.c **** #if defined(errno)
  42:..\acn-sdk-c\src\mqtt\client\src/network.c ****             DBG("error(%d): %s\r\n", rc, strerror(errno));
  43:..\acn-sdk-c\src\mqtt\client\src/network.c **** #endif
  44:..\acn-sdk-c\src\mqtt\client\src/network.c ****             bytes = -1;
  45:..\acn-sdk-c\src\mqtt\client\src/network.c ****             break;
  46:..\acn-sdk-c\src\mqtt\client\src/network.c ****         } else
  47:..\acn-sdk-c\src\mqtt\client\src/network.c ****             bytes += rc;
  48:..\acn-sdk-c\src\mqtt\client\src/network.c ****     }
  49:..\acn-sdk-c\src\mqtt\client\src/network.c ****     return bytes;
  50:..\acn-sdk-c\src\mqtt\client\src/network.c **** }
  51:..\acn-sdk-c\src\mqtt\client\src/network.c **** 
  52:..\acn-sdk-c\src\mqtt\client\src/network.c **** 
  53:..\acn-sdk-c\src\mqtt\client\src/network.c **** static int _write(Network* n, unsigned char* buffer, int len, int timeout_ms) {
  27              		.loc 1 53 0
  28              		.cfi_startproc
  29              	.LVL0:
  30 0000 F0B5     		push	{r4, r5, r6, r7, lr}
  31              		.cfi_def_cfa_offset 20
  32              		.cfi_offset 4, -20
  33              		.cfi_offset 5, -16
  34              		.cfi_offset 6, -12
  35              		.cfi_offset 7, -8
  36              		.cfi_offset 14, -4
  37 0002 0E1C     		mov	r6, r1
  54:..\acn-sdk-c\src\mqtt\client\src/network.c ****     struct timeval tv = {timeout_ms / 1000, (timeout_ms % 1000) * 1000};
  38              		.loc 1 54 0
  39 0004 FA21     		mov	r1, #250
  40              	.LVL1:
  53:..\acn-sdk-c\src\mqtt\client\src/network.c ****     struct timeval tv = {timeout_ms / 1000, (timeout_ms % 1000) * 1000};
  41              		.loc 1 53 0
  42 0006 85B0     		sub	sp, sp, #20
  43              		.cfi_def_cfa_offset 40
  53:..\acn-sdk-c\src\mqtt\client\src/network.c ****     struct timeval tv = {timeout_ms / 1000, (timeout_ms % 1000) * 1000};
  44              		.loc 1 53 0
  45 0008 051C     		mov	r5, r0
  46              		.loc 1 54 0
  47 000a 8900     		lsl	r1, r1, #2
  48 000c 181C     		mov	r0, r3
  49              	.LVL2:
  53:..\acn-sdk-c\src\mqtt\client\src/network.c ****     struct timeval tv = {timeout_ms / 1000, (timeout_ms % 1000) * 1000};
  50              		.loc 1 53 0
  51 000e 141C     		mov	r4, r2
  52 0010 1F1C     		mov	r7, r3
  53              		.loc 1 54 0
  54 0012 FFF7FEFF 		bl	__aeabi_idiv
  55              	.LVL3:
  56 0016 FA21     		mov	r1, #250
  57 0018 0290     		str	r0, [sp, #8]
ARM GAS  C:\Users\ddemidov\AppData\Local\Temp\ccFdtWnI.s 			page 3


  58 001a 8900     		lsl	r1, r1, #2
  59 001c 381C     		mov	r0, r7
  60 001e FFF7FEFF 		bl	__aeabi_idivmod
  61              	.LVL4:
  62 0022 FA23     		mov	r3, #250
  63 0024 9B00     		lsl	r3, r3, #2
  64 0026 5943     		mul	r1, r3
  55:..\acn-sdk-c\src\mqtt\client\src/network.c **** 
  56:..\acn-sdk-c\src\mqtt\client\src/network.c ****     setsockopt(n->my_socket, SOL_SOCKET, SO_RCVTIMEO, (char *)&tv, sizeof(struct timeval));
  65              		.loc 1 56 0
  66 0028 0823     		mov	r3, #8
  54:..\acn-sdk-c\src\mqtt\client\src/network.c **** 
  67              		.loc 1 54 0
  68 002a 0391     		str	r1, [sp, #12]
  69              		.loc 1 56 0
  70 002c 0093     		str	r3, [sp]
  71 002e 094A     		ldr	r2, .L2
  72 0030 02AB     		add	r3, sp, #8
  73 0032 2868     		ldr	r0, [r5]
  74 0034 0849     		ldr	r1, .L2+4
  75 0036 FFF7FEFF 		bl	setsockopt
  76              	.LVL5:
  57:..\acn-sdk-c\src\mqtt\client\src/network.c ****     DBG("mqtt send %d", len);
  77              		.loc 1 57 0
  78 003a 211C     		mov	r1, r4
  79 003c 0748     		ldr	r0, .L2+8
  80 003e FFF7FEFF 		bl	dbg_line
  81              	.LVL6:
  58:..\acn-sdk-c\src\mqtt\client\src/network.c ****     int rc = 0;
  59:..\acn-sdk-c\src\mqtt\client\src/network.c **** #if defined(MQTT_CIPHER)
  60:..\acn-sdk-c\src\mqtt\client\src/network.c ****     rc = wolfSSL_write(n->ssl, buffer, len);
  61:..\acn-sdk-c\src\mqtt\client\src/network.c **** #else
  62:..\acn-sdk-c\src\mqtt\client\src/network.c ****     rc = send(n->my_socket, (void*)buffer, (size_t)len, 0);
  82              		.loc 1 62 0
  83 0042 2868     		ldr	r0, [r5]
  84 0044 311C     		mov	r1, r6
  85 0046 221C     		mov	r2, r4
  86 0048 0023     		mov	r3, #0
  87 004a FFF7FEFF 		bl	send
  88              	.LVL7:
  63:..\acn-sdk-c\src\mqtt\client\src/network.c **** #endif
  64:..\acn-sdk-c\src\mqtt\client\src/network.c ****     return rc;
  65:..\acn-sdk-c\src\mqtt\client\src/network.c **** }
  89              		.loc 1 65 0
  90 004e 05B0     		add	sp, sp, #20
  91              		@ sp needed
  92              	.LVL8:
  93              	.LVL9:
  94              	.LVL10:
  95              	.LVL11:
  96 0050 F0BD     		pop	{r4, r5, r6, r7, pc}
  97              	.L3:
  98 0052 C046     		.align	2
  99              	.L2:
 100 0054 06100000 		.word	4102
 101 0058 FF0F0000 		.word	4095
 102 005c 00000000 		.word	.LC0
ARM GAS  C:\Users\ddemidov\AppData\Local\Temp\ccFdtWnI.s 			page 4


 103              		.cfi_endproc
 104              	.LFE1:
 105              		.size	_write, .-_write
 106              		.section	.text._read,"ax",%progbits
 107              		.align	1
 108              		.code	16
 109              		.thumb_func
 110              		.type	_read, %function
 111              	_read:
 112              	.LFB0:
  22:..\acn-sdk-c\src\mqtt\client\src/network.c ****     struct timeval interval = {timeout_ms / 1000, (timeout_ms % 1000) * 1000};
 113              		.loc 1 22 0
 114              		.cfi_startproc
 115              	.LVL12:
 116 0000 F0B5     		push	{r4, r5, r6, r7, lr}
 117              		.cfi_def_cfa_offset 20
 118              		.cfi_offset 4, -20
 119              		.cfi_offset 5, -16
 120              		.cfi_offset 6, -12
 121              		.cfi_offset 7, -8
 122              		.cfi_offset 14, -4
 123 0002 87B0     		sub	sp, sp, #28
 124              		.cfi_def_cfa_offset 48
  22:..\acn-sdk-c\src\mqtt\client\src/network.c ****     struct timeval interval = {timeout_ms / 1000, (timeout_ms % 1000) * 1000};
 125              		.loc 1 22 0
 126 0004 0391     		str	r1, [sp, #12]
  23:..\acn-sdk-c\src\mqtt\client\src/network.c ****     if ((int)interval.tv_sec < 0 || (interval.tv_sec == 0 && interval.tv_usec <= 0)) {
 127              		.loc 1 23 0
 128 0006 FA21     		mov	r1, #250
 129              	.LVL13:
  22:..\acn-sdk-c\src\mqtt\client\src/network.c ****     struct timeval interval = {timeout_ms / 1000, (timeout_ms % 1000) * 1000};
 130              		.loc 1 22 0
 131 0008 071C     		mov	r7, r0
  23:..\acn-sdk-c\src\mqtt\client\src/network.c ****     if ((int)interval.tv_sec < 0 || (interval.tv_sec == 0 && interval.tv_usec <= 0)) {
 132              		.loc 1 23 0
 133 000a 8900     		lsl	r1, r1, #2
 134 000c 181C     		mov	r0, r3
 135              	.LVL14:
  22:..\acn-sdk-c\src\mqtt\client\src/network.c ****     struct timeval interval = {timeout_ms / 1000, (timeout_ms % 1000) * 1000};
 136              		.loc 1 22 0
 137 000e 1D1C     		mov	r5, r3
 138 0010 161C     		mov	r6, r2
  23:..\acn-sdk-c\src\mqtt\client\src/network.c ****     if ((int)interval.tv_sec < 0 || (interval.tv_sec == 0 && interval.tv_usec <= 0)) {
 139              		.loc 1 23 0
 140 0012 FFF7FEFF 		bl	__aeabi_idiv
 141              	.LVL15:
 142 0016 FA21     		mov	r1, #250
 143 0018 0490     		str	r0, [sp, #16]
 144 001a 041C     		mov	r4, r0
 145 001c 8900     		lsl	r1, r1, #2
 146 001e 281C     		mov	r0, r5
 147 0020 FFF7FEFF 		bl	__aeabi_idivmod
 148              	.LVL16:
 149 0024 FA23     		mov	r3, #250
 150 0026 9B00     		lsl	r3, r3, #2
 151 0028 5943     		mul	r1, r3
 152 002a 0591     		str	r1, [sp, #20]
ARM GAS  C:\Users\ddemidov\AppData\Local\Temp\ccFdtWnI.s 			page 5


  24:..\acn-sdk-c\src\mqtt\client\src/network.c ****         interval.tv_sec = 0;
 153              		.loc 1 24 0
 154 002c 002C     		cmp	r4, #0
 155 002e 02DB     		blt	.L5
  24:..\acn-sdk-c\src\mqtt\client\src/network.c ****         interval.tv_sec = 0;
 156              		.loc 1 24 0 is_stmt 0 discriminator 1
 157 0030 05D1     		bne	.L6
  24:..\acn-sdk-c\src\mqtt\client\src/network.c ****         interval.tv_sec = 0;
 158              		.loc 1 24 0 discriminator 2
 159 0032 0029     		cmp	r1, #0
 160 0034 03DC     		bgt	.L6
 161              	.L5:
  25:..\acn-sdk-c\src\mqtt\client\src/network.c ****         interval.tv_usec = 100;
 162              		.loc 1 25 0 is_stmt 1
 163 0036 0023     		mov	r3, #0
 164 0038 0493     		str	r3, [sp, #16]
  26:..\acn-sdk-c\src\mqtt\client\src/network.c ****     }
 165              		.loc 1 26 0
 166 003a 6433     		add	r3, r3, #100
 167 003c 0593     		str	r3, [sp, #20]
 168              	.L6:
  29:..\acn-sdk-c\src\mqtt\client\src/network.c **** 
 169              		.loc 1 29 0
 170 003e 0823     		mov	r3, #8
 171 0040 0093     		str	r3, [sp]
 172 0042 3868     		ldr	r0, [r7]
 173 0044 1549     		ldr	r1, .L16
 174 0046 164A     		ldr	r2, .L16+4
 175 0048 04AB     		add	r3, sp, #16
 176 004a FFF7FEFF 		bl	setsockopt
 177              	.LVL17:
  31:..\acn-sdk-c\src\mqtt\client\src/network.c ****     int rc;
 178              		.loc 1 31 0
 179 004e 0024     		mov	r4, #0
 180              	.LVL18:
 181              	.L7:
  33:..\acn-sdk-c\src\mqtt\client\src/network.c **** #if defined(MQTT_CIPHER)
 182              		.loc 1 33 0
 183 0050 B442     		cmp	r4, r6
 184 0052 1FDA     		bge	.L9
 185              	.LBB2:
  37:..\acn-sdk-c\src\mqtt\client\src/network.c **** #endif
 186              		.loc 1 37 0
 187 0054 039B     		ldr	r3, [sp, #12]
 188 0056 321B     		sub	r2, r6, r4
 189 0058 1919     		add	r1, r3, r4
 190 005a 92B2     		uxth	r2, r2
 191 005c 3868     		ldr	r0, [r7]
 192 005e 0023     		mov	r3, #0
 193 0060 FFF7FEFF 		bl	recv
 194              	.LVL19:
 195 0064 051E     		sub	r5, r0, #0
 196              	.LVL20:
  39:..\acn-sdk-c\src\mqtt\client\src/network.c ****         if (rc < 0) {
 197              		.loc 1 39 0
 198 0066 13D0     		beq	.L11
  39:..\acn-sdk-c\src\mqtt\client\src/network.c ****         if (rc < 0) {
ARM GAS  C:\Users\ddemidov\AppData\Local\Temp\ccFdtWnI.s 			page 6


 199              		.loc 1 39 0 is_stmt 0 discriminator 1
 200 0068 0E48     		ldr	r0, .L16+8
 201              	.LVL21:
 202 006a 291C     		mov	r1, r5
 203 006c 321C     		mov	r2, r6
 204 006e FFF7FEFF 		bl	dbg_line
 205              	.LVL22:
  40:..\acn-sdk-c\src\mqtt\client\src/network.c **** #if defined(errno)
 206              		.loc 1 40 0 is_stmt 1 discriminator 1
 207 0072 002D     		cmp	r5, #0
 208 0074 0CDA     		bge	.L11
  42:..\acn-sdk-c\src\mqtt\client\src/network.c **** #endif
 209              		.loc 1 42 0
 210 0076 FFF7FEFF 		bl	__errno
 211              	.LVL23:
 212 007a 0068     		ldr	r0, [r0]
 213 007c FFF7FEFF 		bl	strerror
 214              	.LVL24:
  44:..\acn-sdk-c\src\mqtt\client\src/network.c ****             break;
 215              		.loc 1 44 0
 216 0080 0124     		mov	r4, #1
 217              	.LVL25:
  42:..\acn-sdk-c\src\mqtt\client\src/network.c **** #endif
 218              		.loc 1 42 0
 219 0082 021C     		mov	r2, r0
 220 0084 291C     		mov	r1, r5
 221 0086 0848     		ldr	r0, .L16+12
 222 0088 FFF7FEFF 		bl	dbg_line
 223              	.LVL26:
  44:..\acn-sdk-c\src\mqtt\client\src/network.c ****             break;
 224              		.loc 1 44 0
 225 008c 6442     		neg	r4, r4
  45:..\acn-sdk-c\src\mqtt\client\src/network.c ****         } else
 226              		.loc 1 45 0
 227 008e 01E0     		b	.L9
 228              	.LVL27:
 229              	.L11:
  47:..\acn-sdk-c\src\mqtt\client\src/network.c ****     }
 230              		.loc 1 47 0
 231 0090 6419     		add	r4, r4, r5
 232              	.LVL28:
 233 0092 DDE7     		b	.L7
 234              	.LVL29:
 235              	.L9:
 236              	.LBE2:
  50:..\acn-sdk-c\src\mqtt\client\src/network.c **** 
 237              		.loc 1 50 0
 238 0094 201C     		mov	r0, r4
 239 0096 07B0     		add	sp, sp, #28
 240              		@ sp needed
 241              	.LVL30:
 242              	.LVL31:
 243              	.LVL32:
 244 0098 F0BD     		pop	{r4, r5, r6, r7, pc}
 245              	.L17:
 246 009a C046     		.align	2
 247              	.L16:
ARM GAS  C:\Users\ddemidov\AppData\Local\Temp\ccFdtWnI.s 			page 7


 248 009c FF0F0000 		.word	4095
 249 00a0 06100000 		.word	4102
 250 00a4 0D000000 		.word	.LC2
 251 00a8 1D000000 		.word	.LC4
 252              		.cfi_endproc
 253              	.LFE0:
 254              		.size	_read, .-_read
 255              		.section	.text.NetworkInit,"ax",%progbits
 256              		.align	1
 257              		.global	NetworkInit
 258              		.code	16
 259              		.thumb_func
 260              		.type	NetworkInit, %function
 261              	NetworkInit:
 262              	.LFB2:
  66:..\acn-sdk-c\src\mqtt\client\src/network.c **** 
  67:..\acn-sdk-c\src\mqtt\client\src/network.c **** 
  68:..\acn-sdk-c\src\mqtt\client\src/network.c **** void NetworkInit(Network* n) {
 263              		.loc 1 68 0
 264              		.cfi_startproc
 265              	.LVL33:
  69:..\acn-sdk-c\src\mqtt\client\src/network.c ****     n->my_socket = -1;
 266              		.loc 1 69 0
 267 0000 0123     		mov	r3, #1
 268 0002 5B42     		neg	r3, r3
 269 0004 0360     		str	r3, [r0]
  70:..\acn-sdk-c\src\mqtt\client\src/network.c ****     n->mqttread = _read;
 270              		.loc 1 70 0
 271 0006 024B     		ldr	r3, .L19
  71:..\acn-sdk-c\src\mqtt\client\src/network.c ****     n->mqttwrite = _write;
  72:..\acn-sdk-c\src\mqtt\client\src/network.c **** #if !defined(__XCC__)
  73:..\acn-sdk-c\src\mqtt\client\src/network.c **** # if defined(MQTT_CIPHER)
  74:..\acn-sdk-c\src\mqtt\client\src/network.c ****     wolfSSL_Init();
  75:..\acn-sdk-c\src\mqtt\client\src/network.c **** //    wolfSSL_Debugging_ON();
  76:..\acn-sdk-c\src\mqtt\client\src/network.c ****     n->method = wolfTLSv1_2_client_method();
  77:..\acn-sdk-c\src\mqtt\client\src/network.c **** # endif
  78:..\acn-sdk-c\src\mqtt\client\src/network.c **** #endif
  79:..\acn-sdk-c\src\mqtt\client\src/network.c **** }
 272              		.loc 1 79 0
 273              		@ sp needed
  70:..\acn-sdk-c\src\mqtt\client\src/network.c ****     n->mqttread = _read;
 274              		.loc 1 70 0
 275 0008 4360     		str	r3, [r0, #4]
  71:..\acn-sdk-c\src\mqtt\client\src/network.c ****     n->mqttwrite = _write;
 276              		.loc 1 71 0
 277 000a 024B     		ldr	r3, .L19+4
 278 000c 8360     		str	r3, [r0, #8]
 279              		.loc 1 79 0
 280 000e 7047     		bx	lr
 281              	.L20:
 282              		.align	2
 283              	.L19:
 284 0010 00000000 		.word	_read
 285 0014 00000000 		.word	_write
 286              		.cfi_endproc
 287              	.LFE2:
 288              		.size	NetworkInit, .-NetworkInit
ARM GAS  C:\Users\ddemidov\AppData\Local\Temp\ccFdtWnI.s 			page 8


 289              		.section	.text.NetworkDisconnect,"ax",%progbits
 290              		.align	1
 291              		.global	NetworkDisconnect
 292              		.code	16
 293              		.thumb_func
 294              		.type	NetworkDisconnect, %function
 295              	NetworkDisconnect:
 296              	.LFB3:
  80:..\acn-sdk-c\src\mqtt\client\src/network.c **** 
  81:..\acn-sdk-c\src\mqtt\client\src/network.c **** void NetworkDisconnect(Network* n) {
 297              		.loc 1 81 0
 298              		.cfi_startproc
 299              	.LVL34:
 300 0000 08B5     		push	{r3, lr}
 301              		.cfi_def_cfa_offset 8
 302              		.cfi_offset 3, -8
 303              		.cfi_offset 14, -4
  82:..\acn-sdk-c\src\mqtt\client\src/network.c ****     soc_close(n->my_socket);
 304              		.loc 1 82 0
 305 0002 0068     		ldr	r0, [r0]
 306              	.LVL35:
 307 0004 FFF7FEFF 		bl	soc_close
 308              	.LVL36:
  83:..\acn-sdk-c\src\mqtt\client\src/network.c **** #if defined(__XCC__)
  84:..\acn-sdk-c\src\mqtt\client\src/network.c **** # if defined(MQTT_CIPHER)
  85:..\acn-sdk-c\src\mqtt\client\src/network.c ****     if (n->ssl) {
  86:..\acn-sdk-c\src\mqtt\client\src/network.c ****       qcom_SSL_shutdown(n->ssl);
  87:..\acn-sdk-c\src\mqtt\client\src/network.c ****       qcom_SSL_ctx_free(n->ctx);
  88:..\acn-sdk-c\src\mqtt\client\src/network.c ****     }
  89:..\acn-sdk-c\src\mqtt\client\src/network.c **** # endif
  90:..\acn-sdk-c\src\mqtt\client\src/network.c **** #else
  91:..\acn-sdk-c\src\mqtt\client\src/network.c **** # if defined(MQTT_CIPHER)
  92:..\acn-sdk-c\src\mqtt\client\src/network.c ****     if ( n->ctx ) wolfSSL_CTX_free(n->ctx);
  93:..\acn-sdk-c\src\mqtt\client\src/network.c ****     if ( n->ssl ) wolfSSL_free(n->ssl);
  94:..\acn-sdk-c\src\mqtt\client\src/network.c **** # endif
  95:..\acn-sdk-c\src\mqtt\client\src/network.c **** #endif
  96:..\acn-sdk-c\src\mqtt\client\src/network.c **** }
 309              		.loc 1 96 0
 310              		@ sp needed
 311 0008 08BD     		pop	{r3, pc}
 312              		.cfi_endproc
 313              	.LFE3:
 314              		.size	NetworkDisconnect, .-NetworkDisconnect
 315              		.section	.text.NetworkConnect,"ax",%progbits
 316              		.align	1
 317              		.global	NetworkConnect
 318              		.code	16
 319              		.thumb_func
 320              		.type	NetworkConnect, %function
 321              	NetworkConnect:
 322              	.LFB4:
  97:..\acn-sdk-c\src\mqtt\client\src/network.c **** 
  98:..\acn-sdk-c\src\mqtt\client\src/network.c **** #if !defined(__XCC__) && defined(MQTT_CIPHER)
  99:..\acn-sdk-c\src\mqtt\client\src/network.c **** static int recv_ssl(WOLFSSL *wssl, char* buf, int sz, void* vp) {
 100:..\acn-sdk-c\src\mqtt\client\src/network.c ****   int *tcp = (int *)(vp);
 101:..\acn-sdk-c\src\mqtt\client\src/network.c **** //  DBG("ssl recv %d - %d", *tcp, sz);
 102:..\acn-sdk-c\src\mqtt\client\src/network.c ****   int timeout_ms = 5000;
ARM GAS  C:\Users\ddemidov\AppData\Local\Temp\ccFdtWnI.s 			page 9


 103:..\acn-sdk-c\src\mqtt\client\src/network.c ****   struct timeval interval = {timeout_ms / 1000, (timeout_ms % 1000) * 1000};
 104:..\acn-sdk-c\src\mqtt\client\src/network.c ****   setsockopt(*tcp, SOL_SOCKET, SO_RCVTIMEO, (char *)&interval, sizeof(struct timeval));
 105:..\acn-sdk-c\src\mqtt\client\src/network.c ****   int got = recv(*tcp, buf, sz, 0);
 106:..\acn-sdk-c\src\mqtt\client\src/network.c **** //  DBG("ssl got %d", got);
 107:..\acn-sdk-c\src\mqtt\client\src/network.c ****   if (got == 0)  return -2;  // IO_ERR_WANT_READ;
 108:..\acn-sdk-c\src\mqtt\client\src/network.c ****   return got;
 109:..\acn-sdk-c\src\mqtt\client\src/network.c **** }
 110:..\acn-sdk-c\src\mqtt\client\src/network.c **** 
 111:..\acn-sdk-c\src\mqtt\client\src/network.c **** 
 112:..\acn-sdk-c\src\mqtt\client\src/network.c **** static int send_ssl(WOLFSSL *wssl, char* buf, int sz, void* vp) {
 113:..\acn-sdk-c\src\mqtt\client\src/network.c ****   int *tcp = (int *)(vp);
 114:..\acn-sdk-c\src\mqtt\client\src/network.c **** //  DBG("ssl send %d - %d", *tcp, sz);
 115:..\acn-sdk-c\src\mqtt\client\src/network.c ****   int sent = send(*tcp, buf, sz, 0);
 116:..\acn-sdk-c\src\mqtt\client\src/network.c **** //  DBG("ssl sent %d", sent);
 117:..\acn-sdk-c\src\mqtt\client\src/network.c ****   if (sent == 0)
 118:..\acn-sdk-c\src\mqtt\client\src/network.c ****     return -2;  // IO_ERR_WANT_WRITE
 119:..\acn-sdk-c\src\mqtt\client\src/network.c ****   return sent;
 120:..\acn-sdk-c\src\mqtt\client\src/network.c **** }
 121:..\acn-sdk-c\src\mqtt\client\src/network.c **** #endif
 122:..\acn-sdk-c\src\mqtt\client\src/network.c **** 
 123:..\acn-sdk-c\src\mqtt\client\src/network.c **** int NetworkConnect(Network* n, char* addr, int port) {
 323              		.loc 1 123 0
 324              		.cfi_startproc
 325              	.LVL37:
 326 0000 F0B5     		push	{r4, r5, r6, r7, lr}
 327              		.cfi_def_cfa_offset 20
 328              		.cfi_offset 4, -20
 329              		.cfi_offset 5, -16
 330              		.cfi_offset 6, -12
 331              		.cfi_offset 7, -8
 332              		.cfi_offset 14, -4
 333 0002 0E1C     		mov	r6, r1
 334 0004 85B0     		sub	sp, sp, #20
 335              		.cfi_def_cfa_offset 40
 336              		.loc 1 123 0
 337 0006 041C     		mov	r4, r0
 124:..\acn-sdk-c\src\mqtt\client\src/network.c ****     struct sockaddr_in serv;
 125:..\acn-sdk-c\src\mqtt\client\src/network.c ****     struct hostent *serv_resolve;
 126:..\acn-sdk-c\src\mqtt\client\src/network.c ****     DBG("resolve %s", addr);
 338              		.loc 1 126 0
 339 0008 2048     		ldr	r0, .L29
 340              	.LVL38:
 123:..\acn-sdk-c\src\mqtt\client\src/network.c ****     struct sockaddr_in serv;
 341              		.loc 1 123 0
 342 000a 171C     		mov	r7, r2
 343              		.loc 1 126 0
 344 000c FFF7FEFF 		bl	dbg_line
 345              	.LVL39:
 127:..\acn-sdk-c\src\mqtt\client\src/network.c ****     serv_resolve = gethostbyname(addr);
 346              		.loc 1 127 0
 347 0010 301C     		mov	r0, r6
 348 0012 FFF7FEFF 		bl	gethostbyname
 349              	.LVL40:
 350 0016 051E     		sub	r5, r0, #0
 351              	.LVL41:
 128:..\acn-sdk-c\src\mqtt\client\src/network.c ****     if (serv_resolve == NULL) {
 352              		.loc 1 128 0
ARM GAS  C:\Users\ddemidov\AppData\Local\Temp\ccFdtWnI.s 			page 10


 353 0018 04D1     		bne	.L23
 129:..\acn-sdk-c\src\mqtt\client\src/network.c ****         DBG("MQTT ERROR: no such host %s", addr);
 354              		.loc 1 129 0
 355 001a 1D48     		ldr	r0, .L29+4
 356              	.LVL42:
 357 001c 311C     		mov	r1, r6
 358 001e FFF7FEFF 		bl	dbg_line
 359              	.LVL43:
 360 0022 2FE0     		b	.L27
 361              	.LVL44:
 362              	.L23:
 130:..\acn-sdk-c\src\mqtt\client\src/network.c ****         return -1;
 131:..\acn-sdk-c\src\mqtt\client\src/network.c ****     }
 132:..\acn-sdk-c\src\mqtt\client\src/network.c ****     memset(&serv, 0, sizeof(serv));
 363              		.loc 1 132 0
 364 0024 6846     		mov	r0, sp
 365              	.LVL45:
 366 0026 0021     		mov	r1, #0
 367 0028 1022     		mov	r2, #16
 368 002a FFF7FEFF 		bl	memset
 369              	.LVL46:
 133:..\acn-sdk-c\src\mqtt\client\src/network.c **** 
 134:..\acn-sdk-c\src\mqtt\client\src/network.c ****     if (serv_resolve->h_addrtype == AF_INET) {
 370              		.loc 1 134 0
 371 002e AE68     		ldr	r6, [r5, #8]
 372              	.LVL47:
 373 0030 022E     		cmp	r6, #2
 374 0032 27D1     		bne	.L27
 135:..\acn-sdk-c\src\mqtt\client\src/network.c ****         serv.sin_family = PF_INET;
 375              		.loc 1 135 0
 376 0034 6B46     		mov	r3, sp
 136:..\acn-sdk-c\src\mqtt\client\src/network.c ****         bcopy((char *)serv_resolve->h_addr,
 377              		.loc 1 136 0
 378 0036 01A9     		add	r1, sp, #4
 379 0038 EA68     		ldr	r2, [r5, #12]
 380 003a 6869     		ldr	r0, [r5, #20]
 135:..\acn-sdk-c\src\mqtt\client\src/network.c ****         serv.sin_family = PF_INET;
 381              		.loc 1 135 0
 382 003c 5E70     		strb	r6, [r3, #1]
 383              		.loc 1 136 0
 384 003e FFF7FEFF 		bl	bcopy
 385              	.LVL48:
 137:..\acn-sdk-c\src\mqtt\client\src/network.c ****                 (char *)&serv.sin_addr.s_addr,
 138:..\acn-sdk-c\src\mqtt\client\src/network.c ****                 (size_t)serv_resolve->h_length);
 139:..\acn-sdk-c\src\mqtt\client\src/network.c ****         serv.sin_port = htons(port);
 386              		.loc 1 139 0
 387 0042 B8B2     		uxth	r0, r7
 388 0044 FFF7FEFF 		bl	_htons
 389              	.LVL49:
 390 0048 6B46     		mov	r3, sp
 391 004a 5880     		strh	r0, [r3, #2]
 140:..\acn-sdk-c\src\mqtt\client\src/network.c ****     } else
 141:..\acn-sdk-c\src\mqtt\client\src/network.c ****         return -1;
 142:..\acn-sdk-c\src\mqtt\client\src/network.c **** DBG("try socket");
 392              		.loc 1 142 0
 393 004c 1148     		ldr	r0, .L29+8
 394 004e FFF7FEFF 		bl	dbg_line
ARM GAS  C:\Users\ddemidov\AppData\Local\Temp\ccFdtWnI.s 			page 11


 395              	.LVL50:
 143:..\acn-sdk-c\src\mqtt\client\src/network.c ****     n->my_socket = socket(PF_INET, SOCK_STREAM, IPPROTO_TCP);
 396              		.loc 1 143 0
 397 0052 0121     		mov	r1, #1
 398 0054 301C     		mov	r0, r6
 399 0056 0622     		mov	r2, #6
 400 0058 FFF7FEFF 		bl	socket
 401              	.LVL51:
 402 005c 011E     		sub	r1, r0, #0
 403 005e 2060     		str	r0, [r4]
 144:..\acn-sdk-c\src\mqtt\client\src/network.c ****     if ( n->my_socket < 0 ) {
 404              		.loc 1 144 0
 405 0060 03DA     		bge	.L25
 145:..\acn-sdk-c\src\mqtt\client\src/network.c ****         DBG("MQTT connetion fail %d", n->my_socket);
 406              		.loc 1 145 0
 407 0062 0D48     		ldr	r0, .L29+12
 408 0064 FFF7FEFF 		bl	dbg_line
 409              	.LVL52:
 410 0068 0AE0     		b	.L26
 411              	.L25:
 146:..\acn-sdk-c\src\mqtt\client\src/network.c ****         return n->my_socket;
 147:..\acn-sdk-c\src\mqtt\client\src/network.c ****     }
 148:..\acn-sdk-c\src\mqtt\client\src/network.c ****     if ( connect(n->my_socket, (struct sockaddr*)&serv, sizeof(serv)) < 0) {
 412              		.loc 1 148 0
 413 006a 6946     		mov	r1, sp
 414 006c 1022     		mov	r2, #16
 415 006e FFF7FEFF 		bl	connect
 416              	.LVL53:
 417 0072 0028     		cmp	r0, #0
 418 0074 04DA     		bge	.L26
 419              	.LBB3:
 149:..\acn-sdk-c\src\mqtt\client\src/network.c ****         soc_close(n->my_socket);
 420              		.loc 1 149 0
 421 0076 2068     		ldr	r0, [r4]
 422 0078 FFF7FEFF 		bl	soc_close
 423              	.LVL54:
 150:..\acn-sdk-c\src\mqtt\client\src/network.c ****         return -2;
 424              		.loc 1 150 0
 425 007c 0220     		mov	r0, #2
 426 007e 02E0     		b	.L28
 427              	.L26:
 428              	.LBE3:
 151:..\acn-sdk-c\src\mqtt\client\src/network.c ****     }
 152:..\acn-sdk-c\src\mqtt\client\src/network.c **** 
 153:..\acn-sdk-c\src\mqtt\client\src/network.c **** 
 154:..\acn-sdk-c\src\mqtt\client\src/network.c **** #if defined(MQTT_CIPHER)
 155:..\acn-sdk-c\src\mqtt\client\src/network.c **** #if defined(__XCC__)
 156:..\acn-sdk-c\src\mqtt\client\src/network.c ****     n->ctx = qcom_SSL_ctx_new(SSL_CLIENT, SSL_INBUF_SIZE, SSL_OUTBUF_SIZE, 0);
 157:..\acn-sdk-c\src\mqtt\client\src/network.c ****     if ( n->ctx  == NULL) {
 158:..\acn-sdk-c\src\mqtt\client\src/network.c ****       DBG("unable to get ctx");
 159:..\acn-sdk-c\src\mqtt\client\src/network.c ****       soc_close(n->my_socket);
 160:..\acn-sdk-c\src\mqtt\client\src/network.c ****       return -1;
 161:..\acn-sdk-c\src\mqtt\client\src/network.c ****     }
 162:..\acn-sdk-c\src\mqtt\client\src/network.c ****     n->ssl = qcom_SSL_new(n->ctx);
 163:..\acn-sdk-c\src\mqtt\client\src/network.c ****     if (n->ssl == 0) {
 164:..\acn-sdk-c\src\mqtt\client\src/network.c ****       DBG("oops, bad SSL ptr")
 165:..\acn-sdk-c\src\mqtt\client\src/network.c ****       soc_close(n->my_socket);
ARM GAS  C:\Users\ddemidov\AppData\Local\Temp\ccFdtWnI.s 			page 12


 166:..\acn-sdk-c\src\mqtt\client\src/network.c ****       return -4;
 167:..\acn-sdk-c\src\mqtt\client\src/network.c ****     }
 168:..\acn-sdk-c\src\mqtt\client\src/network.c ****     int ret = qcom_SSL_set_fd(n->ssl, n->my_socket);
 169:..\acn-sdk-c\src\mqtt\client\src/network.c ****     if (ret < A_OK) {
 170:..\acn-sdk-c\src\mqtt\client\src/network.c ****       DBG("ERROR: Unable to add socket handle to SSL");
 171:..\acn-sdk-c\src\mqtt\client\src/network.c ****       soc_close(n->my_socket);
 172:..\acn-sdk-c\src\mqtt\client\src/network.c ****       return ret;
 173:..\acn-sdk-c\src\mqtt\client\src/network.c ****     }
 174:..\acn-sdk-c\src\mqtt\client\src/network.c ****     ret = qcom_SSL_connect(n->ssl);
 175:..\acn-sdk-c\src\mqtt\client\src/network.c ****     if (ret < 0) {
 176:..\acn-sdk-c\src\mqtt\client\src/network.c ****       DBG("SSL connect fail %d", ret);
 177:..\acn-sdk-c\src\mqtt\client\src/network.c ****       soc_close(n->my_socket);
 178:..\acn-sdk-c\src\mqtt\client\src/network.c ****       return ret;
 179:..\acn-sdk-c\src\mqtt\client\src/network.c ****     }
 180:..\acn-sdk-c\src\mqtt\client\src/network.c **** #else
 181:..\acn-sdk-c\src\mqtt\client\src/network.c ****     DBG("start cipher");
 182:..\acn-sdk-c\src\mqtt\client\src/network.c ****     n->ctx = wolfSSL_CTX_new(n->method);
 183:..\acn-sdk-c\src\mqtt\client\src/network.c ****     if ( n->ctx  == NULL) {
 184:..\acn-sdk-c\src\mqtt\client\src/network.c ****       DBG("unable to get ctx");
 185:..\acn-sdk-c\src\mqtt\client\src/network.c ****       soc_close(n->my_socket);
 186:..\acn-sdk-c\src\mqtt\client\src/network.c ****       return -1;
 187:..\acn-sdk-c\src\mqtt\client\src/network.c ****     }
 188:..\acn-sdk-c\src\mqtt\client\src/network.c ****     wolfSSL_CTX_set_verify(n->ctx, SSL_VERIFY_NONE, 0);
 189:..\acn-sdk-c\src\mqtt\client\src/network.c ****     wolfSSL_SetIORecv(n->ctx, recv_ssl);
 190:..\acn-sdk-c\src\mqtt\client\src/network.c ****     wolfSSL_SetIOSend(n->ctx, send_ssl);
 191:..\acn-sdk-c\src\mqtt\client\src/network.c **** 
 192:..\acn-sdk-c\src\mqtt\client\src/network.c ****     n->ssl = wolfSSL_new(n->ctx);
 193:..\acn-sdk-c\src\mqtt\client\src/network.c ****     if (n->ssl == 0) {
 194:..\acn-sdk-c\src\mqtt\client\src/network.c ****       DBG("oops, bad SSL ptr");
 195:..\acn-sdk-c\src\mqtt\client\src/network.c ****       soc_close(n->my_socket);
 196:..\acn-sdk-c\src\mqtt\client\src/network.c ****       return -1;
 197:..\acn-sdk-c\src\mqtt\client\src/network.c ****     }
 198:..\acn-sdk-c\src\mqtt\client\src/network.c ****     wolfSSL_SetIOReadCtx(n->ssl, (void*)&n->my_socket);
 199:..\acn-sdk-c\src\mqtt\client\src/network.c ****     wolfSSL_SetIOWriteCtx(n->ssl, (void*)&n->my_socket);
 200:..\acn-sdk-c\src\mqtt\client\src/network.c ****     DBG("set SSL rdwr context");
 201:..\acn-sdk-c\src\mqtt\client\src/network.c **** //    wolfSSL_Debugging_ON();
 202:..\acn-sdk-c\src\mqtt\client\src/network.c ****     int err = wolfSSL_connect(n->ssl);
 203:..\acn-sdk-c\src\mqtt\client\src/network.c ****     if (err != SSL_SUCCESS) {
 204:..\acn-sdk-c\src\mqtt\client\src/network.c ****       DBG("SSL connect fail %d", err);
 205:..\acn-sdk-c\src\mqtt\client\src/network.c ****       soc_close(n->my_socket);
 206:..\acn-sdk-c\src\mqtt\client\src/network.c ****       return -1;
 207:..\acn-sdk-c\src\mqtt\client\src/network.c ****     } else {
 208:..\acn-sdk-c\src\mqtt\client\src/network.c ****         DBG("SSL connect done");
 209:..\acn-sdk-c\src\mqtt\client\src/network.c ****     }
 210:..\acn-sdk-c\src\mqtt\client\src/network.c **** 
 211:..\acn-sdk-c\src\mqtt\client\src/network.c **** # endif
 212:..\acn-sdk-c\src\mqtt\client\src/network.c **** #endif
 213:..\acn-sdk-c\src\mqtt\client\src/network.c **** 
 214:..\acn-sdk-c\src\mqtt\client\src/network.c ****     return n->my_socket;
 429              		.loc 1 214 0
 430 0080 2068     		ldr	r0, [r4]
 431 0082 01E0     		b	.L24
 432              	.L27:
 141:..\acn-sdk-c\src\mqtt\client\src/network.c **** DBG("try socket");
 433              		.loc 1 141 0
 434 0084 0120     		mov	r0, #1
 435              	.L28:
ARM GAS  C:\Users\ddemidov\AppData\Local\Temp\ccFdtWnI.s 			page 13


 436 0086 4042     		neg	r0, r0
 437              	.L24:
 215:..\acn-sdk-c\src\mqtt\client\src/network.c **** }
 438              		.loc 1 215 0
 439 0088 05B0     		add	sp, sp, #20
 440              		@ sp needed
 441              	.LVL55:
 442              	.LVL56:
 443              	.LVL57:
 444 008a F0BD     		pop	{r4, r5, r6, r7, pc}
 445              	.L30:
 446              		.align	2
 447              	.L29:
 448 008c 2D000000 		.word	.LC8
 449 0090 38000000 		.word	.LC10
 450 0094 54000000 		.word	.LC12
 451 0098 5F000000 		.word	.LC14
 452              		.cfi_endproc
 453              	.LFE4:
 454              		.size	NetworkConnect, .-NetworkConnect
 455              		.section	.rodata.str1.1,"aMS",%progbits,1
 456              	.LC0:
 457 0000 6D717474 		.ascii	"mqtt send %d\000"
 457      2073656E 
 457      64202564 
 457      00
 458              	.LC2:
 459 000d 6D717474 		.ascii	"mqtt recv %d/%d\000"
 459      20726563 
 459      76202564 
 459      2F256400 
 460              	.LC4:
 461 001d 6572726F 		.ascii	"error(%d): %s\015\012\000"
 461      72282564 
 461      293A2025 
 461      730D0A00 
 462              	.LC8:
 463 002d 7265736F 		.ascii	"resolve %s\000"
 463      6C766520 
 463      257300
 464              	.LC10:
 465 0038 4D515454 		.ascii	"MQTT ERROR: no such host %s\000"
 465      20455252 
 465      4F523A20 
 465      6E6F2073 
 465      75636820 
 466              	.LC12:
 467 0054 74727920 		.ascii	"try socket\000"
 467      736F636B 
 467      657400
 468              	.LC14:
 469 005f 4D515454 		.ascii	"MQTT connetion fail %d\000"
 469      20636F6E 
 469      6E657469 
 469      6F6E2066 
 469      61696C20 
 470              		.text
ARM GAS  C:\Users\ddemidov\AppData\Local\Temp\ccFdtWnI.s 			page 14


 471              	.Letext0:
 472              		.file 2 "c:\\program files (x86)\\cypress\\psoc creator\\3.3\\psoc creator\\import\\gnu\\arm\\4.9.
 473              		.file 3 "c:\\program files (x86)\\cypress\\psoc creator\\3.3\\psoc creator\\import\\gnu\\arm\\4.9.
 474              		.file 4 "c:\\program files (x86)\\cypress\\psoc creator\\3.3\\psoc creator\\import\\gnu\\arm\\4.9.
 475              		.file 5 "c:\\program files (x86)\\cypress\\psoc creator\\3.3\\psoc creator\\import\\gnu\\arm\\4.9.
 476              		.file 6 "c:\\program files (x86)\\cypress\\psoc creator\\3.3\\psoc creator\\import\\gnu\\arm\\4.9.
 477              		.file 7 "..\\acn-sdk-c/platforms/common/bsd/sockdef.h"
 478              		.file 8 "..\\acn-sdk-c\\include/bsd/socket.h"
 479              		.file 9 "..\\acn-sdk-c\\include/mqtt/client/network.h"
 480              		.file 10 "..\\acn-sdk-c/platforms/senseability/trace.h"
 481              		.file 11 "c:\\program files (x86)\\cypress\\psoc creator\\3.3\\psoc creator\\import\\gnu\\arm\\4.9
 482              		.file 12 "..\\acn-sdk-c\\include/bsd/inet.h"
 483              		.file 13 "c:\\program files (x86)\\cypress\\psoc creator\\3.3\\psoc creator\\import\\gnu\\arm\\4.9