ARM GAS  C:\Users\ddemidov\AppData\Local\Temp\ccq6p4TJ.s 			page 1


   1              		.cpu cortex-m0
   2              		.fpu softvfp
   3              		.eabi_attribute 20, 1
   4              		.eabi_attribute 21, 1
   5              		.eabi_attribute 23, 3
   6              		.eabi_attribute 24, 1
   7              		.eabi_attribute 25, 1
   8              		.eabi_attribute 26, 1
   9              		.eabi_attribute 30, 4
  10              		.eabi_attribute 34, 0
  11              		.eabi_attribute 18, 4
  12              		.code	16
  13              		.file	"ntp.c"
  14              		.text
  15              	.Ltext0:
  16              		.cfi_sections	.debug_frame
  17              		.section	.text.ntp_set_time_common,"ax",%progbits
  18              		.align	1
  19              		.global	ntp_set_time_common
  20              		.code	16
  21              		.thumb_func
  22              		.type	ntp_set_time_common, %function
  23              	ntp_set_time_common:
  24              	.LFB1:
  25              		.file 1 "..\\acn-sdk-c\\src\\ntp\\ntp.c"
   1:..\acn-sdk-c\src\ntp/ntp.c **** /* Copyright (c) 2017 Arrow Electronics, Inc.
   2:..\acn-sdk-c\src\ntp/ntp.c ****  * All rights reserved. This program and the accompanying materials
   3:..\acn-sdk-c\src\ntp/ntp.c ****  * are made available under the terms of the Apache License 2.0
   4:..\acn-sdk-c\src\ntp/ntp.c ****  * which accompanies this distribution, and is available at
   5:..\acn-sdk-c\src\ntp/ntp.c ****  * http://apache.org/licenses/LICENSE-2.0
   6:..\acn-sdk-c\src\ntp/ntp.c ****  * Contributors: Arrow Electronics, Inc.
   7:..\acn-sdk-c\src\ntp/ntp.c ****  */
   8:..\acn-sdk-c\src\ntp/ntp.c **** 
   9:..\acn-sdk-c\src\ntp/ntp.c **** #include "ntp/ntp.h"
  10:..\acn-sdk-c\src\ntp/ntp.c **** #include <debug.h>
  11:..\acn-sdk-c\src\ntp/ntp.c **** #include <time/time.h>
  12:..\acn-sdk-c\src\ntp/ntp.c **** #include <ntp/client.h>
  13:..\acn-sdk-c\src\ntp/ntp.c **** #if defined(_ARIS_)
  14:..\acn-sdk-c\src\ntp/ntp.c **** #include "reloc_macro.h"
  15:..\acn-sdk-c\src\ntp/ntp.c **** #define SLEEP(ms) tx_thread_sleep(CONV_MS_TO_TICK(ms));
  16:..\acn-sdk-c\src\ntp/ntp.c **** #elif defined(__MBED__)
  17:..\acn-sdk-c\src\ntp/ntp.c **** #define SLEEP(ms) wait_ms(ms)
  18:..\acn-sdk-c\src\ntp/ntp.c **** #elif defined(__linux__)
  19:..\acn-sdk-c\src\ntp/ntp.c **** #include <unistd.h>
  20:..\acn-sdk-c\src\ntp/ntp.c **** #define SLEEP(ms) usleep(ms*1000)
  21:..\acn-sdk-c\src\ntp/ntp.c **** #elif defined(__XCC__)
  22:..\acn-sdk-c\src\ntp/ntp.c **** #include <qcom_time.h>
  23:..\acn-sdk-c\src\ntp/ntp.c **** #define SLEEP(ms) qcom_thread_msleep(ms)
  24:..\acn-sdk-c\src\ntp/ntp.c **** #elif defined(__senseability__)
  25:..\acn-sdk-c\src\ntp/ntp.c **** #define SLEEP CyDelay
  26:..\acn-sdk-c\src\ntp/ntp.c **** #endif
  27:..\acn-sdk-c\src\ntp/ntp.c **** 
  28:..\acn-sdk-c\src\ntp/ntp.c **** int ntp_set_time_cycle() {
  29:..\acn-sdk-c\src\ntp/ntp.c ****     return ntp_set_time_common(NTP_DEFAULT_SERVER, NTP_DEFAULT_PORT, NTP_DEFAULT_TIMEOUT, -1);
  30:..\acn-sdk-c\src\ntp/ntp.c **** }
  31:..\acn-sdk-c\src\ntp/ntp.c **** 
  32:..\acn-sdk-c\src\ntp/ntp.c **** int ntp_set_time_common(
ARM GAS  C:\Users\ddemidov\AppData\Local\Temp\ccq6p4TJ.s 			page 2


  33:..\acn-sdk-c\src\ntp/ntp.c ****         const char *server,
  34:..\acn-sdk-c\src\ntp/ntp.c ****         uint16_t port,
  35:..\acn-sdk-c\src\ntp/ntp.c ****         int timeout,
  36:..\acn-sdk-c\src\ntp/ntp.c ****         int try_times) {
  26              		.loc 1 36 0
  27              		.cfi_startproc
  28              	.LVL0:
  29 0000 F0B5     		push	{r4, r5, r6, r7, lr}
  30              		.cfi_def_cfa_offset 20
  31              		.cfi_offset 4, -20
  32              		.cfi_offset 5, -16
  33              		.cfi_offset 6, -12
  34              		.cfi_offset 7, -8
  35              		.cfi_offset 14, -4
  36 0002 1F1C     		mov	r7, r3
  37:..\acn-sdk-c\src\ntp/ntp.c ****     int i=0;
  37              		.loc 1 37 0
  38 0004 0025     		mov	r5, #0
  36:..\acn-sdk-c\src\ntp/ntp.c ****     int i=0;
  39              		.loc 1 36 0
  40 0006 85B0     		sub	sp, sp, #20
  41              		.cfi_def_cfa_offset 40
  36:..\acn-sdk-c\src\ntp/ntp.c ****     int i=0;
  42              		.loc 1 36 0
  43 0008 0190     		str	r0, [sp, #4]
  44 000a 0291     		str	r1, [sp, #8]
  45 000c 0392     		str	r2, [sp, #12]
  46              	.LVL1:
  47              	.L2:
  38:..\acn-sdk-c\src\ntp/ntp.c ****     do {
  39:..\acn-sdk-c\src\ntp/ntp.c ****         while( ntp_set_time(server, port, timeout) != NTP_OK ) {
  48              		.loc 1 39 0
  49 000e 0198     		ldr	r0, [sp, #4]
  50 0010 0299     		ldr	r1, [sp, #8]
  51 0012 039A     		ldr	r2, [sp, #12]
  52 0014 FFF7FEFF 		bl	ntp_set_time
  53              	.LVL2:
  54 0018 041E     		sub	r4, r0, #0
  55 001a 0DD0     		beq	.L8
  56              	.LBB2:
  40:..\acn-sdk-c\src\ntp/ntp.c ****             DBG("NTP set time fail...");
  57              		.loc 1 40 0
  58 001c 1248     		ldr	r0, .L9
  59 001e FFF7FEFF 		bl	dbg_line
  60              	.LVL3:
  41:..\acn-sdk-c\src\ntp/ntp.c ****             SLEEP(1000);
  61              		.loc 1 41 0
  62 0022 FA20     		mov	r0, #250
  63 0024 8000     		lsl	r0, r0, #2
  64 0026 FFF7FEFF 		bl	CyDelay
  65              	.LVL4:
  42:..\acn-sdk-c\src\ntp/ntp.c ****             if ( try_times >= 0 && i++ >= try_times ) return -1;
  66              		.loc 1 42 0
  67 002a 002F     		cmp	r7, #0
  68 002c EFDB     		blt	.L2
  69              		.loc 1 42 0 is_stmt 0 discriminator 1
  70 002e 6B1C     		add	r3, r5, #1
ARM GAS  C:\Users\ddemidov\AppData\Local\Temp\ccq6p4TJ.s 			page 3


  71              	.LVL5:
  72 0030 BD42     		cmp	r5, r7
  73 0032 14DA     		bge	.L6
  74              		.loc 1 42 0
  75 0034 1D1C     		mov	r5, r3
  76 0036 EAE7     		b	.L2
  77              	.LVL6:
  78              	.L8:
  79              	.LBE2:
  43:..\acn-sdk-c\src\ntp/ntp.c ****         }
  44:..\acn-sdk-c\src\ntp/ntp.c ****         DBG(" time diff %d %d ", (int)time(NULL), (int)build_time());
  80              		.loc 1 44 0 is_stmt 1
  81 0038 FFF7FEFF 		bl	time
  82              	.LVL7:
  83 003c 061C     		mov	r6, r0
  84 003e FFF7FEFF 		bl	build_time
  85              	.LVL8:
  86 0042 311C     		mov	r1, r6
  87 0044 021C     		mov	r2, r0
  88 0046 0948     		ldr	r0, .L9+4
  89 0048 FFF7FEFF 		bl	dbg_line
  90              	.LVL9:
  45:..\acn-sdk-c\src\ntp/ntp.c ****     } while(time(NULL) <= build_time());
  91              		.loc 1 45 0
  92 004c 201C     		mov	r0, r4
  93 004e FFF7FEFF 		bl	time
  94              	.LVL10:
  95 0052 061C     		mov	r6, r0
  96 0054 FFF7FEFF 		bl	build_time
  97              	.LVL11:
  98 0058 8642     		cmp	r6, r0
  99 005a D8DD     		ble	.L2
 100 005c 01E0     		b	.L4
 101              	.LVL12:
 102              	.L6:
 103              	.LBB3:
  42:..\acn-sdk-c\src\ntp/ntp.c ****             if ( try_times >= 0 && i++ >= try_times ) return -1;
 104              		.loc 1 42 0
 105 005e 0124     		mov	r4, #1
 106 0060 6442     		neg	r4, r4
 107              	.LVL13:
 108              	.L4:
 109              	.LBE3:
  46:..\acn-sdk-c\src\ntp/ntp.c ****     return 0;
  47:..\acn-sdk-c\src\ntp/ntp.c **** }
 110              		.loc 1 47 0
 111 0062 201C     		mov	r0, r4
 112 0064 05B0     		add	sp, sp, #20
 113              		@ sp needed
 114              	.LVL14:
 115 0066 F0BD     		pop	{r4, r5, r6, r7, pc}
 116              	.L10:
 117              		.align	2
 118              	.L9:
 119 0068 00000000 		.word	.LC0
 120 006c 15000000 		.word	.LC2
 121              		.cfi_endproc
ARM GAS  C:\Users\ddemidov\AppData\Local\Temp\ccq6p4TJ.s 			page 4


 122              	.LFE1:
 123              		.size	ntp_set_time_common, .-ntp_set_time_common
 124              		.section	.text.ntp_set_time_cycle,"ax",%progbits
 125              		.align	1
 126              		.global	ntp_set_time_cycle
 127              		.code	16
 128              		.thumb_func
 129              		.type	ntp_set_time_cycle, %function
 130              	ntp_set_time_cycle:
 131              	.LFB0:
  28:..\acn-sdk-c\src\ntp/ntp.c ****     return ntp_set_time_common(NTP_DEFAULT_SERVER, NTP_DEFAULT_PORT, NTP_DEFAULT_TIMEOUT, -1);
 132              		.loc 1 28 0
 133              		.cfi_startproc
 134 0000 08B5     		push	{r3, lr}
 135              		.cfi_def_cfa_offset 8
 136              		.cfi_offset 3, -8
 137              		.cfi_offset 14, -4
  29:..\acn-sdk-c\src\ntp/ntp.c **** }
 138              		.loc 1 29 0
 139 0002 FA22     		mov	r2, #250
 140 0004 0123     		mov	r3, #1
 141 0006 0348     		ldr	r0, .L12
 142 0008 7B21     		mov	r1, #123
 143 000a 1201     		lsl	r2, r2, #4
 144 000c 5B42     		neg	r3, r3
 145 000e FFF7FEFF 		bl	ntp_set_time_common
 146              	.LVL15:
  30:..\acn-sdk-c\src\ntp/ntp.c **** 
 147              		.loc 1 30 0
 148              		@ sp needed
 149 0012 08BD     		pop	{r3, pc}
 150              	.L13:
 151              		.align	2
 152              	.L12:
 153 0014 27000000 		.word	.LC4
 154              		.cfi_endproc
 155              	.LFE0:
 156              		.size	ntp_set_time_cycle, .-ntp_set_time_cycle
 157              		.section	.rodata.str1.1,"aMS",%progbits,1
 158              	.LC0:
 159 0000 4E545020 		.ascii	"NTP set time fail...\000"
 159      73657420 
 159      74696D65 
 159      20666169 
 159      6C2E2E2E 
 160              	.LC2:
 161 0015 2074696D 		.ascii	" time diff %d %d \000"
 161      65206469 
 161      66662025 
 161      64202564 
 161      2000
 162              	.LC4:
 163 0027 302E706F 		.ascii	"0.pool.ntp.org\000"
 163      6F6C2E6E 
 163      74702E6F 
 163      726700
 164              		.text
ARM GAS  C:\Users\ddemidov\AppData\Local\Temp\ccq6p4TJ.s 			page 5


 165              	.Letext0:
 166              		.file 2 "c:\\program files (x86)\\cypress\\psoc creator\\3.3\\psoc creator\\import\\gnu\\arm\\4.9.
 167              		.file 3 "c:\\program files (x86)\\cypress\\psoc creator\\3.3\\psoc creator\\import\\gnu\\arm\\4.9.
 168              		.file 4 "c:\\program files (x86)\\cypress\\psoc creator\\3.3\\psoc creator\\import\\gnu\\arm\\4.9.
 169              		.file 5 "..\\acn-sdk-c/platforms/senseability/trace.h"
 170              		.file 6 "..\\acn-sdk-c\\include/ntp/client.h"
 171              		.file 7 "c:\\program files (x86)\\cypress\\psoc creator\\3.3\\psoc creator\\import\\gnu\\arm\\4.9.
 172              		.file 8 "..\\acn-sdk-c\\include/time/time.h"