ARM GAS  C:\Users\ddemidov\AppData\Local\Temp\ccEU3Cb3.s 			page 1


   1              		.cpu cortex-m0
   2              		.fpu softvfp
   3              		.eabi_attribute 20, 1
   4              		.eabi_attribute 21, 1
   5              		.eabi_attribute 23, 3
   6              		.eabi_attribute 24, 1
   7              		.eabi_attribute 25, 1
   8              		.eabi_attribute 26, 1
   9              		.eabi_attribute 30, 1
  10              		.eabi_attribute 34, 0
  11              		.eabi_attribute 18, 4
  12              		.code	16
  13              		.file	"pwdbased.c"
  14              		.text
  15              	.Ltext0:
  16              		.cfi_sections	.debug_frame
  17              		.section	.text.wc_PBKDF1,"ax",%progbits
  18              		.align	2
  19              		.global	wc_PBKDF1
  20              		.code	16
  21              		.thumb_func
  22              		.type	wc_PBKDF1, %function
  23              	wc_PBKDF1:
  24              	.LFB13:
  25              		.file 1 "..\\kronos-c-sdk\\src\\wolfSSL\\wolfcrypt\\src\\pwdbased.c"
   1:..\kronos-c-sdk\src\wolfSSL\wolfcrypt\src/pwdbased.c **** /* pwdbased.c
   2:..\kronos-c-sdk\src\wolfSSL\wolfcrypt\src/pwdbased.c ****  *
   3:..\kronos-c-sdk\src\wolfSSL\wolfcrypt\src/pwdbased.c ****  * Copyright (C) 2006-2016 wolfSSL Inc.
   4:..\kronos-c-sdk\src\wolfSSL\wolfcrypt\src/pwdbased.c ****  *
   5:..\kronos-c-sdk\src\wolfSSL\wolfcrypt\src/pwdbased.c ****  * This file is part of wolfSSL.
   6:..\kronos-c-sdk\src\wolfSSL\wolfcrypt\src/pwdbased.c ****  *
   7:..\kronos-c-sdk\src\wolfSSL\wolfcrypt\src/pwdbased.c ****  * wolfSSL is free software; you can redistribute it and/or modify
   8:..\kronos-c-sdk\src\wolfSSL\wolfcrypt\src/pwdbased.c ****  * it under the terms of the GNU General Public License as published by
   9:..\kronos-c-sdk\src\wolfSSL\wolfcrypt\src/pwdbased.c ****  * the Free Software Foundation; either version 2 of the License, or
  10:..\kronos-c-sdk\src\wolfSSL\wolfcrypt\src/pwdbased.c ****  * (at your option) any later version.
  11:..\kronos-c-sdk\src\wolfSSL\wolfcrypt\src/pwdbased.c ****  *
  12:..\kronos-c-sdk\src\wolfSSL\wolfcrypt\src/pwdbased.c ****  * wolfSSL is distributed in the hope that it will be useful,
  13:..\kronos-c-sdk\src\wolfSSL\wolfcrypt\src/pwdbased.c ****  * but WITHOUT ANY WARRANTY; without even the implied warranty of
  14:..\kronos-c-sdk\src\wolfSSL\wolfcrypt\src/pwdbased.c ****  * MERCHANTABILITY or FITNESS FOR A PARTICULAR PURPOSE.  See the
  15:..\kronos-c-sdk\src\wolfSSL\wolfcrypt\src/pwdbased.c ****  * GNU General Public License for more details.
  16:..\kronos-c-sdk\src\wolfSSL\wolfcrypt\src/pwdbased.c ****  *
  17:..\kronos-c-sdk\src\wolfSSL\wolfcrypt\src/pwdbased.c ****  * You should have received a copy of the GNU General Public License
  18:..\kronos-c-sdk\src\wolfSSL\wolfcrypt\src/pwdbased.c ****  * along with this program; if not, write to the Free Software
  19:..\kronos-c-sdk\src\wolfSSL\wolfcrypt\src/pwdbased.c ****  * Foundation, Inc., 51 Franklin Street, Fifth Floor, Boston, MA 02110-1335, USA
  20:..\kronos-c-sdk\src\wolfSSL\wolfcrypt\src/pwdbased.c ****  */
  21:..\kronos-c-sdk\src\wolfSSL\wolfcrypt\src/pwdbased.c **** 
  22:..\kronos-c-sdk\src\wolfSSL\wolfcrypt\src/pwdbased.c **** 
  23:..\kronos-c-sdk\src\wolfSSL\wolfcrypt\src/pwdbased.c **** #ifdef HAVE_CONFIG_H
  24:..\kronos-c-sdk\src\wolfSSL\wolfcrypt\src/pwdbased.c ****     #include <config.h>
  25:..\kronos-c-sdk\src\wolfSSL\wolfcrypt\src/pwdbased.c **** #endif
  26:..\kronos-c-sdk\src\wolfSSL\wolfcrypt\src/pwdbased.c **** 
  27:..\kronos-c-sdk\src\wolfSSL\wolfcrypt\src/pwdbased.c **** #include <wolfssl/wolfcrypt/settings.h>
  28:..\kronos-c-sdk\src\wolfSSL\wolfcrypt\src/pwdbased.c **** 
  29:..\kronos-c-sdk\src\wolfSSL\wolfcrypt\src/pwdbased.c **** #ifndef NO_PWDBASED
  30:..\kronos-c-sdk\src\wolfSSL\wolfcrypt\src/pwdbased.c **** 
  31:..\kronos-c-sdk\src\wolfSSL\wolfcrypt\src/pwdbased.c **** #ifdef WOLFSSL_PIC32MZ_HASH
  32:..\kronos-c-sdk\src\wolfSSL\wolfcrypt\src/pwdbased.c ****     #ifndef NO_MD5
ARM GAS  C:\Users\ddemidov\AppData\Local\Temp\ccEU3Cb3.s 			page 2


  33:..\kronos-c-sdk\src\wolfSSL\wolfcrypt\src/pwdbased.c ****         #define wc_InitMd5   wc_InitMd5_sw
  34:..\kronos-c-sdk\src\wolfSSL\wolfcrypt\src/pwdbased.c ****         #define wc_Md5Update wc_Md5Update_sw
  35:..\kronos-c-sdk\src\wolfSSL\wolfcrypt\src/pwdbased.c ****         #define wc_Md5Final  wc_Md5Final_sw
  36:..\kronos-c-sdk\src\wolfSSL\wolfcrypt\src/pwdbased.c ****     #endif /* NO_MD5 */
  37:..\kronos-c-sdk\src\wolfSSL\wolfcrypt\src/pwdbased.c **** 
  38:..\kronos-c-sdk\src\wolfSSL\wolfcrypt\src/pwdbased.c ****     #define wc_InitSha   wc_InitSha_sw
  39:..\kronos-c-sdk\src\wolfSSL\wolfcrypt\src/pwdbased.c ****     #define wc_ShaUpdate wc_ShaUpdate_sw
  40:..\kronos-c-sdk\src\wolfSSL\wolfcrypt\src/pwdbased.c ****     #define wc_ShaFinal  wc_ShaFinal_sw
  41:..\kronos-c-sdk\src\wolfSSL\wolfcrypt\src/pwdbased.c **** 
  42:..\kronos-c-sdk\src\wolfSSL\wolfcrypt\src/pwdbased.c ****     #define wc_InitSha256   wc_InitSha256_sw
  43:..\kronos-c-sdk\src\wolfSSL\wolfcrypt\src/pwdbased.c ****     #define wc_Sha256Update wc_Sha256Update_sw
  44:..\kronos-c-sdk\src\wolfSSL\wolfcrypt\src/pwdbased.c ****     #define wc_Sha256Final  wc_Sha256Final_sw
  45:..\kronos-c-sdk\src\wolfSSL\wolfcrypt\src/pwdbased.c **** #endif
  46:..\kronos-c-sdk\src\wolfSSL\wolfcrypt\src/pwdbased.c **** 
  47:..\kronos-c-sdk\src\wolfSSL\wolfcrypt\src/pwdbased.c **** #include <wolfssl/wolfcrypt/pwdbased.h>
  48:..\kronos-c-sdk\src\wolfSSL\wolfcrypt\src/pwdbased.c **** #include <wolfssl/wolfcrypt/hmac.h>
  49:..\kronos-c-sdk\src\wolfSSL\wolfcrypt\src/pwdbased.c **** #include <wolfssl/wolfcrypt/integer.h>
  50:..\kronos-c-sdk\src\wolfSSL\wolfcrypt\src/pwdbased.c **** #include <wolfssl/wolfcrypt/error-crypt.h>
  51:..\kronos-c-sdk\src\wolfSSL\wolfcrypt\src/pwdbased.c **** #if defined(WOLFSSL_SHA512) || defined(WOLFSSL_SHA384)
  52:..\kronos-c-sdk\src\wolfSSL\wolfcrypt\src/pwdbased.c ****     #include <wolfssl/wolfcrypt/sha512.h>
  53:..\kronos-c-sdk\src\wolfSSL\wolfcrypt\src/pwdbased.c **** #endif
  54:..\kronos-c-sdk\src\wolfSSL\wolfcrypt\src/pwdbased.c **** 
  55:..\kronos-c-sdk\src\wolfSSL\wolfcrypt\src/pwdbased.c **** #ifdef NO_INLINE
  56:..\kronos-c-sdk\src\wolfSSL\wolfcrypt\src/pwdbased.c ****     #include <wolfssl/wolfcrypt/misc.h>
  57:..\kronos-c-sdk\src\wolfSSL\wolfcrypt\src/pwdbased.c **** #else
  58:..\kronos-c-sdk\src\wolfSSL\wolfcrypt\src/pwdbased.c ****     #include <wolfcrypt/src/misc.c>
  59:..\kronos-c-sdk\src\wolfSSL\wolfcrypt\src/pwdbased.c **** #endif
  60:..\kronos-c-sdk\src\wolfSSL\wolfcrypt\src/pwdbased.c **** 
  61:..\kronos-c-sdk\src\wolfSSL\wolfcrypt\src/pwdbased.c **** #ifndef WOLFSSL_HAVE_MIN
  62:..\kronos-c-sdk\src\wolfSSL\wolfcrypt\src/pwdbased.c **** #define WOLFSSL_HAVE_MIN
  63:..\kronos-c-sdk\src\wolfSSL\wolfcrypt\src/pwdbased.c **** 
  64:..\kronos-c-sdk\src\wolfSSL\wolfcrypt\src/pwdbased.c ****     static INLINE word32 min(word32 a, word32 b)
  65:..\kronos-c-sdk\src\wolfSSL\wolfcrypt\src/pwdbased.c ****     {
  66:..\kronos-c-sdk\src\wolfSSL\wolfcrypt\src/pwdbased.c ****         return a > b ? b : a;
  67:..\kronos-c-sdk\src\wolfSSL\wolfcrypt\src/pwdbased.c ****     }
  68:..\kronos-c-sdk\src\wolfSSL\wolfcrypt\src/pwdbased.c **** 
  69:..\kronos-c-sdk\src\wolfSSL\wolfcrypt\src/pwdbased.c **** #endif /* WOLFSSL_HAVE_MIN */
  70:..\kronos-c-sdk\src\wolfSSL\wolfcrypt\src/pwdbased.c **** 
  71:..\kronos-c-sdk\src\wolfSSL\wolfcrypt\src/pwdbased.c **** 
  72:..\kronos-c-sdk\src\wolfSSL\wolfcrypt\src/pwdbased.c **** #ifndef NO_SHA
  73:..\kronos-c-sdk\src\wolfSSL\wolfcrypt\src/pwdbased.c **** /* PBKDF1 needs at least SHA available */
  74:..\kronos-c-sdk\src\wolfSSL\wolfcrypt\src/pwdbased.c **** int wc_PBKDF1(byte* output, const byte* passwd, int pLen, const byte* salt,
  75:..\kronos-c-sdk\src\wolfSSL\wolfcrypt\src/pwdbased.c ****            int sLen, int iterations, int kLen, int hashType)
  76:..\kronos-c-sdk\src\wolfSSL\wolfcrypt\src/pwdbased.c **** {
  26              		.loc 1 76 0
  27              		.cfi_startproc
  28              	.LVL0:
  29 0000 F0B5     		push	{r4, r5, r6, r7, lr}
  30              		.cfi_def_cfa_offset 20
  31              		.cfi_offset 4, -20
  32              		.cfi_offset 5, -16
  33              		.cfi_offset 6, -12
  34              		.cfi_offset 7, -8
  35              		.cfi_offset 14, -4
  36 0002 B9B0     		sub	sp, sp, #228
  37              		.cfi_def_cfa_offset 248
  38 0004 3F9F     		ldr	r7, [sp, #252]
ARM GAS  C:\Users\ddemidov\AppData\Local\Temp\ccEU3Cb3.s 			page 3


  39 0006 419D     		ldr	r5, [sp, #260]
  40              	.LVL1:
  77:..\kronos-c-sdk\src\wolfSSL\wolfcrypt\src/pwdbased.c ****     Sha  sha;
  78:..\kronos-c-sdk\src\wolfSSL\wolfcrypt\src/pwdbased.c **** #ifndef NO_MD5
  79:..\kronos-c-sdk\src\wolfSSL\wolfcrypt\src/pwdbased.c ****     Md5  md5;
  80:..\kronos-c-sdk\src\wolfSSL\wolfcrypt\src/pwdbased.c **** #endif
  81:..\kronos-c-sdk\src\wolfSSL\wolfcrypt\src/pwdbased.c ****     int  hLen = (int)SHA_DIGEST_SIZE;
  82:..\kronos-c-sdk\src\wolfSSL\wolfcrypt\src/pwdbased.c ****     int  i, ret = 0;
  83:..\kronos-c-sdk\src\wolfSSL\wolfcrypt\src/pwdbased.c ****     byte buffer[SHA_DIGEST_SIZE];  /* max size */
  84:..\kronos-c-sdk\src\wolfSSL\wolfcrypt\src/pwdbased.c **** 
  85:..\kronos-c-sdk\src\wolfSSL\wolfcrypt\src/pwdbased.c ****     if (hashType != MD5 && hashType != SHA)
  41              		.loc 1 85 0
  42 0008 012D     		cmp	r5, #1
  43 000a 55D8     		bhi	.L11
  86:..\kronos-c-sdk\src\wolfSSL\wolfcrypt\src/pwdbased.c ****         return BAD_FUNC_ARG;
  87:..\kronos-c-sdk\src\wolfSSL\wolfcrypt\src/pwdbased.c **** 
  88:..\kronos-c-sdk\src\wolfSSL\wolfcrypt\src/pwdbased.c **** #ifndef NO_MD5
  89:..\kronos-c-sdk\src\wolfSSL\wolfcrypt\src/pwdbased.c ****     if (hashType == MD5)
  44              		.loc 1 89 0
  45 000c 002D     		cmp	r5, #0
  46 000e 01D0     		beq	.L12
  81:..\kronos-c-sdk\src\wolfSSL\wolfcrypt\src/pwdbased.c ****     int  i, ret = 0;
  47              		.loc 1 81 0
  48 0010 1424     		mov	r4, #20
  49 0012 00E0     		b	.L3
  50              	.L12:
  90:..\kronos-c-sdk\src\wolfSSL\wolfcrypt\src/pwdbased.c ****         hLen = (int)MD5_DIGEST_SIZE;
  51              		.loc 1 90 0
  52 0014 1024     		mov	r4, #16
  53              	.L3:
  54              	.LVL2:
  91:..\kronos-c-sdk\src\wolfSSL\wolfcrypt\src/pwdbased.c **** #endif
  92:..\kronos-c-sdk\src\wolfSSL\wolfcrypt\src/pwdbased.c **** 
  93:..\kronos-c-sdk\src\wolfSSL\wolfcrypt\src/pwdbased.c ****     if (kLen > hLen)
  55              		.loc 1 93 0
  56 0016 409E     		ldr	r6, [sp, #256]
  57 0018 A642     		cmp	r6, r4
  58 001a 50DC     		bgt	.L13
  94:..\kronos-c-sdk\src\wolfSSL\wolfcrypt\src/pwdbased.c ****         return BAD_FUNC_ARG;
  95:..\kronos-c-sdk\src\wolfSSL\wolfcrypt\src/pwdbased.c **** 
  96:..\kronos-c-sdk\src\wolfSSL\wolfcrypt\src/pwdbased.c ****     if (iterations < 1)
  59              		.loc 1 96 0
  60 001c 002F     		cmp	r7, #0
  61 001e 51DD     		ble	.L14
  62 0020 1E1C     		mov	r6, r3
  63 0022 0392     		str	r2, [sp, #12]
  64 0024 0291     		str	r1, [sp, #8]
  65 0026 0190     		str	r0, [sp, #4]
  97:..\kronos-c-sdk\src\wolfSSL\wolfcrypt\src/pwdbased.c ****         return BAD_FUNC_ARG;
  98:..\kronos-c-sdk\src\wolfSSL\wolfcrypt\src/pwdbased.c **** 
  99:..\kronos-c-sdk\src\wolfSSL\wolfcrypt\src/pwdbased.c ****     switch (hashType) {
  66              		.loc 1 99 0
  67 0028 002D     		cmp	r5, #0
  68 002a 12D1     		bne	.L16
 100:..\kronos-c-sdk\src\wolfSSL\wolfcrypt\src/pwdbased.c **** #ifndef NO_MD5
 101:..\kronos-c-sdk\src\wolfSSL\wolfcrypt\src/pwdbased.c ****         case MD5:
 102:..\kronos-c-sdk\src\wolfSSL\wolfcrypt\src/pwdbased.c ****             wc_InitMd5(&md5);
ARM GAS  C:\Users\ddemidov\AppData\Local\Temp\ccEU3Cb3.s 			page 4


  69              		.loc 1 102 0
  70 002c 09A8     		add	r0, sp, #36
  71              	.LVL3:
  72 002e FFF7FEFF 		bl	wc_InitMd5
  73              	.LVL4:
 103:..\kronos-c-sdk\src\wolfSSL\wolfcrypt\src/pwdbased.c ****             wc_Md5Update(&md5, passwd, pLen);
  74              		.loc 1 103 0
  75 0032 09A8     		add	r0, sp, #36
  76 0034 0299     		ldr	r1, [sp, #8]
  77 0036 039A     		ldr	r2, [sp, #12]
  78 0038 FFF7FEFF 		bl	wc_Md5Update
  79              	.LVL5:
 104:..\kronos-c-sdk\src\wolfSSL\wolfcrypt\src/pwdbased.c ****             wc_Md5Update(&md5, salt,   sLen);
  80              		.loc 1 104 0
  81 003c 09A8     		add	r0, sp, #36
  82 003e 311C     		mov	r1, r6
  83 0040 3E9A     		ldr	r2, [sp, #248]
  84 0042 FFF7FEFF 		bl	wc_Md5Update
  85              	.LVL6:
 105:..\kronos-c-sdk\src\wolfSSL\wolfcrypt\src/pwdbased.c ****             wc_Md5Final(&md5,  buffer);
  86              		.loc 1 105 0
  87 0046 09A8     		add	r0, sp, #36
  88 0048 04A9     		add	r1, sp, #16
  89 004a FFF7FEFF 		bl	wc_Md5Final
  90              	.LVL7:
  91              	.L7:
  90:..\kronos-c-sdk\src\wolfSSL\wolfcrypt\src/pwdbased.c **** #endif
  92              		.loc 1 90 0 discriminator 1
  93 004e 0126     		mov	r6, #1
  94              	.LVL8:
  95 0050 29E0     		b	.L6
  96              	.LVL9:
  97              	.L16:
 106:..\kronos-c-sdk\src\wolfSSL\wolfcrypt\src/pwdbased.c ****             break;
 107:..\kronos-c-sdk\src\wolfSSL\wolfcrypt\src/pwdbased.c **** #endif /* NO_MD5 */
 108:..\kronos-c-sdk\src\wolfSSL\wolfcrypt\src/pwdbased.c ****         case SHA:
 109:..\kronos-c-sdk\src\wolfSSL\wolfcrypt\src/pwdbased.c ****         default:
 110:..\kronos-c-sdk\src\wolfSSL\wolfcrypt\src/pwdbased.c ****             ret = wc_InitSha(&sha);
  98              		.loc 1 110 0
  99 0052 20A8     		add	r0, sp, #128
 100              	.LVL10:
 101 0054 FFF7FEFF 		bl	wc_InitSha
 102              	.LVL11:
 111:..\kronos-c-sdk\src\wolfSSL\wolfcrypt\src/pwdbased.c ****             if (ret != 0)
 103              		.loc 1 111 0
 104 0058 0028     		cmp	r0, #0
 105 005a 35D1     		bne	.L2
 112:..\kronos-c-sdk\src\wolfSSL\wolfcrypt\src/pwdbased.c ****                 return ret;
 113:..\kronos-c-sdk\src\wolfSSL\wolfcrypt\src/pwdbased.c ****             wc_ShaUpdate(&sha, passwd, pLen);
 106              		.loc 1 113 0
 107 005c 20A8     		add	r0, sp, #128
 108              	.LVL12:
 109 005e 0299     		ldr	r1, [sp, #8]
 110 0060 039A     		ldr	r2, [sp, #12]
 111 0062 FFF7FEFF 		bl	wc_ShaUpdate
 112              	.LVL13:
 114:..\kronos-c-sdk\src\wolfSSL\wolfcrypt\src/pwdbased.c ****             wc_ShaUpdate(&sha, salt,   sLen);
ARM GAS  C:\Users\ddemidov\AppData\Local\Temp\ccEU3Cb3.s 			page 5


 113              		.loc 1 114 0
 114 0066 20A8     		add	r0, sp, #128
 115 0068 311C     		mov	r1, r6
 116 006a 3E9A     		ldr	r2, [sp, #248]
 117 006c FFF7FEFF 		bl	wc_ShaUpdate
 118              	.LVL14:
 115:..\kronos-c-sdk\src\wolfSSL\wolfcrypt\src/pwdbased.c ****             wc_ShaFinal(&sha,  buffer);
 119              		.loc 1 115 0
 120 0070 20A8     		add	r0, sp, #128
 121 0072 04A9     		add	r1, sp, #16
 122 0074 FFF7FEFF 		bl	wc_ShaFinal
 123              	.LVL15:
 116:..\kronos-c-sdk\src\wolfSSL\wolfcrypt\src/pwdbased.c ****             break;
 124              		.loc 1 116 0
 125 0078 E9E7     		b	.L7
 126              	.LVL16:
 127              	.L10:
 117:..\kronos-c-sdk\src\wolfSSL\wolfcrypt\src/pwdbased.c ****     }
 118:..\kronos-c-sdk\src\wolfSSL\wolfcrypt\src/pwdbased.c **** 
 119:..\kronos-c-sdk\src\wolfSSL\wolfcrypt\src/pwdbased.c ****     for (i = 1; i < iterations; i++) {
 120:..\kronos-c-sdk\src\wolfSSL\wolfcrypt\src/pwdbased.c ****         if (hashType == SHA) {
 128              		.loc 1 120 0
 129 007a 012D     		cmp	r5, #1
 130 007c 09D1     		bne	.L8
 121:..\kronos-c-sdk\src\wolfSSL\wolfcrypt\src/pwdbased.c ****             wc_ShaUpdate(&sha, buffer, hLen);
 131              		.loc 1 121 0
 132 007e 20A8     		add	r0, sp, #128
 133 0080 04A9     		add	r1, sp, #16
 134 0082 221C     		mov	r2, r4
 135 0084 FFF7FEFF 		bl	wc_ShaUpdate
 136              	.LVL17:
 122:..\kronos-c-sdk\src\wolfSSL\wolfcrypt\src/pwdbased.c ****             wc_ShaFinal(&sha,  buffer);
 137              		.loc 1 122 0
 138 0088 20A8     		add	r0, sp, #128
 139 008a 04A9     		add	r1, sp, #16
 140 008c FFF7FEFF 		bl	wc_ShaFinal
 141              	.LVL18:
 142 0090 08E0     		b	.L9
 143              	.L8:
 123:..\kronos-c-sdk\src\wolfSSL\wolfcrypt\src/pwdbased.c ****         }
 124:..\kronos-c-sdk\src\wolfSSL\wolfcrypt\src/pwdbased.c **** #ifndef NO_MD5
 125:..\kronos-c-sdk\src\wolfSSL\wolfcrypt\src/pwdbased.c ****         else {
 126:..\kronos-c-sdk\src\wolfSSL\wolfcrypt\src/pwdbased.c ****             wc_Md5Update(&md5, buffer, hLen);
 144              		.loc 1 126 0
 145 0092 09A8     		add	r0, sp, #36
 146 0094 04A9     		add	r1, sp, #16
 147 0096 221C     		mov	r2, r4
 148 0098 FFF7FEFF 		bl	wc_Md5Update
 149              	.LVL19:
 127:..\kronos-c-sdk\src\wolfSSL\wolfcrypt\src/pwdbased.c ****             wc_Md5Final(&md5,  buffer);
 150              		.loc 1 127 0
 151 009c 09A8     		add	r0, sp, #36
 152 009e 04A9     		add	r1, sp, #16
 153 00a0 FFF7FEFF 		bl	wc_Md5Final
 154              	.LVL20:
 155              	.L9:
 119:..\kronos-c-sdk\src\wolfSSL\wolfcrypt\src/pwdbased.c ****         if (hashType == SHA) {
ARM GAS  C:\Users\ddemidov\AppData\Local\Temp\ccEU3Cb3.s 			page 6


 156              		.loc 1 119 0 discriminator 2
 157 00a4 0136     		add	r6, r6, #1
 158              	.LVL21:
 159              	.L6:
 119:..\kronos-c-sdk\src\wolfSSL\wolfcrypt\src/pwdbased.c ****         if (hashType == SHA) {
 160              		.loc 1 119 0 is_stmt 0 discriminator 1
 161 00a6 BE42     		cmp	r6, r7
 162 00a8 E7DB     		blt	.L10
 128:..\kronos-c-sdk\src\wolfSSL\wolfcrypt\src/pwdbased.c ****         }
 129:..\kronos-c-sdk\src\wolfSSL\wolfcrypt\src/pwdbased.c **** #endif
 130:..\kronos-c-sdk\src\wolfSSL\wolfcrypt\src/pwdbased.c ****     }
 131:..\kronos-c-sdk\src\wolfSSL\wolfcrypt\src/pwdbased.c ****     XMEMCPY(output, buffer, kLen);
 163              		.loc 1 131 0 is_stmt 1
 164 00aa 0198     		ldr	r0, [sp, #4]
 165 00ac 04A9     		add	r1, sp, #16
 166 00ae 409A     		ldr	r2, [sp, #256]
 167 00b0 FFF7FEFF 		bl	memcpy
 168              	.LVL22:
 132:..\kronos-c-sdk\src\wolfSSL\wolfcrypt\src/pwdbased.c **** 
 133:..\kronos-c-sdk\src\wolfSSL\wolfcrypt\src/pwdbased.c ****     return 0;
 169              		.loc 1 133 0
 170 00b4 0020     		mov	r0, #0
 171 00b6 07E0     		b	.L2
 172              	.LVL23:
 173              	.L11:
  86:..\kronos-c-sdk\src\wolfSSL\wolfcrypt\src/pwdbased.c **** 
 174              		.loc 1 86 0
 175 00b8 AD20     		mov	r0, #173
 176              	.LVL24:
 177 00ba 4042     		neg	r0, r0
 178 00bc 04E0     		b	.L2
 179              	.LVL25:
 180              	.L13:
  94:..\kronos-c-sdk\src\wolfSSL\wolfcrypt\src/pwdbased.c **** 
 181              		.loc 1 94 0
 182 00be AD20     		mov	r0, #173
 183              	.LVL26:
 184 00c0 4042     		neg	r0, r0
 185 00c2 01E0     		b	.L2
 186              	.LVL27:
 187              	.L14:
  97:..\kronos-c-sdk\src\wolfSSL\wolfcrypt\src/pwdbased.c **** 
 188              		.loc 1 97 0
 189 00c4 AD20     		mov	r0, #173
 190              	.LVL28:
 191 00c6 4042     		neg	r0, r0
 192              	.LVL29:
 193              	.L2:
 134:..\kronos-c-sdk\src\wolfSSL\wolfcrypt\src/pwdbased.c **** }
 194              		.loc 1 134 0
 195 00c8 39B0     		add	sp, sp, #228
 196              		@ sp needed
 197 00ca F0BD     		pop	{r4, r5, r6, r7, pc}
 198              		.cfi_endproc
 199              	.LFE13:
 200              		.size	wc_PBKDF1, .-wc_PBKDF1
 201              		.section	.text.GetDigestSize,"ax",%progbits
ARM GAS  C:\Users\ddemidov\AppData\Local\Temp\ccEU3Cb3.s 			page 7


 202              		.align	2
 203              		.global	GetDigestSize
 204              		.code	16
 205              		.thumb_func
 206              		.type	GetDigestSize, %function
 207              	GetDigestSize:
 208              	.LFB14:
 135:..\kronos-c-sdk\src\wolfSSL\wolfcrypt\src/pwdbased.c **** #endif /* NO_SHA */
 136:..\kronos-c-sdk\src\wolfSSL\wolfcrypt\src/pwdbased.c **** 
 137:..\kronos-c-sdk\src\wolfSSL\wolfcrypt\src/pwdbased.c **** 
 138:..\kronos-c-sdk\src\wolfSSL\wolfcrypt\src/pwdbased.c **** int GetDigestSize(int hashType)
 139:..\kronos-c-sdk\src\wolfSSL\wolfcrypt\src/pwdbased.c **** {
 209              		.loc 1 139 0
 210              		.cfi_startproc
 211              	.LVL30:
 140:..\kronos-c-sdk\src\wolfSSL\wolfcrypt\src/pwdbased.c ****     int hLen;
 141:..\kronos-c-sdk\src\wolfSSL\wolfcrypt\src/pwdbased.c **** 
 142:..\kronos-c-sdk\src\wolfSSL\wolfcrypt\src/pwdbased.c ****     switch (hashType) {
 212              		.loc 1 142 0
 213 0000 0128     		cmp	r0, #1
 214 0002 07D0     		beq	.L23
 215 0004 0228     		cmp	r0, #2
 216 0006 03D0     		beq	.L20
 217 0008 0028     		cmp	r0, #0
 218 000a 05D1     		bne	.L24
 143:..\kronos-c-sdk\src\wolfSSL\wolfcrypt\src/pwdbased.c **** #ifndef NO_MD5
 144:..\kronos-c-sdk\src\wolfSSL\wolfcrypt\src/pwdbased.c ****         case MD5:
 145:..\kronos-c-sdk\src\wolfSSL\wolfcrypt\src/pwdbased.c ****             hLen = MD5_DIGEST_SIZE;
 219              		.loc 1 145 0
 220 000c 1030     		add	r0, r0, #16
 221              	.LVL31:
 222 000e 05E0     		b	.L18
 223              	.LVL32:
 224              	.L20:
 146:..\kronos-c-sdk\src\wolfSSL\wolfcrypt\src/pwdbased.c ****             break;
 147:..\kronos-c-sdk\src\wolfSSL\wolfcrypt\src/pwdbased.c **** #endif
 148:..\kronos-c-sdk\src\wolfSSL\wolfcrypt\src/pwdbased.c **** #ifndef NO_SHA
 149:..\kronos-c-sdk\src\wolfSSL\wolfcrypt\src/pwdbased.c ****         case SHA:
 150:..\kronos-c-sdk\src\wolfSSL\wolfcrypt\src/pwdbased.c ****             hLen = SHA_DIGEST_SIZE;
 151:..\kronos-c-sdk\src\wolfSSL\wolfcrypt\src/pwdbased.c ****             break;
 152:..\kronos-c-sdk\src\wolfSSL\wolfcrypt\src/pwdbased.c **** #endif
 153:..\kronos-c-sdk\src\wolfSSL\wolfcrypt\src/pwdbased.c **** #ifndef NO_SHA256
 154:..\kronos-c-sdk\src\wolfSSL\wolfcrypt\src/pwdbased.c ****         case SHA256:
 155:..\kronos-c-sdk\src\wolfSSL\wolfcrypt\src/pwdbased.c ****             hLen = SHA256_DIGEST_SIZE;
 225              		.loc 1 155 0
 226 0010 2020     		mov	r0, #32
 227              	.LVL33:
 156:..\kronos-c-sdk\src\wolfSSL\wolfcrypt\src/pwdbased.c ****             break;
 228              		.loc 1 156 0
 229 0012 03E0     		b	.L18
 230              	.LVL34:
 231              	.L23:
 150:..\kronos-c-sdk\src\wolfSSL\wolfcrypt\src/pwdbased.c ****             break;
 232              		.loc 1 150 0
 233 0014 1420     		mov	r0, #20
 234              	.LVL35:
 157:..\kronos-c-sdk\src\wolfSSL\wolfcrypt\src/pwdbased.c **** #endif
ARM GAS  C:\Users\ddemidov\AppData\Local\Temp\ccEU3Cb3.s 			page 8


 158:..\kronos-c-sdk\src\wolfSSL\wolfcrypt\src/pwdbased.c **** #ifdef WOLFSSL_SHA512
 159:..\kronos-c-sdk\src\wolfSSL\wolfcrypt\src/pwdbased.c ****         case SHA512:
 160:..\kronos-c-sdk\src\wolfSSL\wolfcrypt\src/pwdbased.c ****             hLen = SHA512_DIGEST_SIZE;
 161:..\kronos-c-sdk\src\wolfSSL\wolfcrypt\src/pwdbased.c ****             break;
 162:..\kronos-c-sdk\src\wolfSSL\wolfcrypt\src/pwdbased.c **** #endif
 163:..\kronos-c-sdk\src\wolfSSL\wolfcrypt\src/pwdbased.c ****         default:
 164:..\kronos-c-sdk\src\wolfSSL\wolfcrypt\src/pwdbased.c ****             return BAD_FUNC_ARG;
 165:..\kronos-c-sdk\src\wolfSSL\wolfcrypt\src/pwdbased.c ****     }
 166:..\kronos-c-sdk\src\wolfSSL\wolfcrypt\src/pwdbased.c **** 
 167:..\kronos-c-sdk\src\wolfSSL\wolfcrypt\src/pwdbased.c ****     return hLen;
 235              		.loc 1 167 0
 236 0016 01E0     		b	.L18
 237              	.LVL36:
 238              	.L24:
 164:..\kronos-c-sdk\src\wolfSSL\wolfcrypt\src/pwdbased.c ****     }
 239              		.loc 1 164 0
 240 0018 AD20     		mov	r0, #173
 241              	.LVL37:
 242 001a 4042     		neg	r0, r0
 243              	.L18:
 168:..\kronos-c-sdk\src\wolfSSL\wolfcrypt\src/pwdbased.c **** }
 244              		.loc 1 168 0
 245              		@ sp needed
 246 001c 7047     		bx	lr
 247              		.cfi_endproc
 248              	.LFE14:
 249              		.size	GetDigestSize, .-GetDigestSize
 250 001e C046     		.section	.text.wc_PBKDF2,"ax",%progbits
 251              		.align	2
 252              		.global	wc_PBKDF2
 253              		.code	16
 254              		.thumb_func
 255              		.type	wc_PBKDF2, %function
 256              	wc_PBKDF2:
 257              	.LFB15:
 169:..\kronos-c-sdk\src\wolfSSL\wolfcrypt\src/pwdbased.c **** 
 170:..\kronos-c-sdk\src\wolfSSL\wolfcrypt\src/pwdbased.c **** 
 171:..\kronos-c-sdk\src\wolfSSL\wolfcrypt\src/pwdbased.c **** int wc_PBKDF2(byte* output, const byte* passwd, int pLen, const byte* salt,
 172:..\kronos-c-sdk\src\wolfSSL\wolfcrypt\src/pwdbased.c ****            int sLen, int iterations, int kLen, int hashType)
 173:..\kronos-c-sdk\src\wolfSSL\wolfcrypt\src/pwdbased.c **** {
 258              		.loc 1 173 0
 259              		.cfi_startproc
 260              	.LVL38:
 261 0000 F0B5     		push	{r4, r5, r6, r7, lr}
 262              		.cfi_def_cfa_offset 20
 263              		.cfi_offset 4, -20
 264              		.cfi_offset 5, -16
 265              		.cfi_offset 6, -12
 266              		.cfi_offset 7, -8
 267              		.cfi_offset 14, -4
 268 0002 5F46     		mov	r7, fp
 269 0004 5646     		mov	r6, r10
 270 0006 4D46     		mov	r5, r9
 271 0008 4446     		mov	r4, r8
 272 000a F0B4     		push	{r4, r5, r6, r7}
 273              		.cfi_def_cfa_offset 36
 274              		.cfi_offset 8, -36
ARM GAS  C:\Users\ddemidov\AppData\Local\Temp\ccEU3Cb3.s 			page 9


 275              		.cfi_offset 9, -32
 276              		.cfi_offset 10, -28
 277              		.cfi_offset 11, -24
 278 000c D3B0     		sub	sp, sp, #332
 279              		.cfi_def_cfa_offset 368
 280 000e 041C     		mov	r4, r0
 281 0010 0D1C     		mov	r5, r1
 282 0012 161C     		mov	r6, r2
 283 0014 0393     		str	r3, [sp, #12]
 284 0016 5D9B     		ldr	r3, [sp, #372]
 285              	.LVL39:
 286 0018 9A46     		mov	r10, r3
 287 001a 5E9B     		ldr	r3, [sp, #376]
 288 001c 9946     		mov	r9, r3
 289              	.LVL40:
 174:..\kronos-c-sdk\src\wolfSSL\wolfcrypt\src/pwdbased.c ****     word32 i = 1;
 175:..\kronos-c-sdk\src\wolfSSL\wolfcrypt\src/pwdbased.c ****     int    hLen;
 176:..\kronos-c-sdk\src\wolfSSL\wolfcrypt\src/pwdbased.c ****     int    j, ret;
 177:..\kronos-c-sdk\src\wolfSSL\wolfcrypt\src/pwdbased.c ****     Hmac   hmac;
 178:..\kronos-c-sdk\src\wolfSSL\wolfcrypt\src/pwdbased.c **** #ifdef WOLFSSL_SMALL_STACK
 179:..\kronos-c-sdk\src\wolfSSL\wolfcrypt\src/pwdbased.c ****     byte*  buffer;
 180:..\kronos-c-sdk\src\wolfSSL\wolfcrypt\src/pwdbased.c **** #else
 181:..\kronos-c-sdk\src\wolfSSL\wolfcrypt\src/pwdbased.c ****     byte   buffer[MAX_DIGEST_SIZE];
 182:..\kronos-c-sdk\src\wolfSSL\wolfcrypt\src/pwdbased.c **** #endif
 183:..\kronos-c-sdk\src\wolfSSL\wolfcrypt\src/pwdbased.c **** 
 184:..\kronos-c-sdk\src\wolfSSL\wolfcrypt\src/pwdbased.c ****     hLen = GetDigestSize(hashType);
 290              		.loc 1 184 0
 291 001e 5F98     		ldr	r0, [sp, #380]
 292              	.LVL41:
 293 0020 FFF7FEFF 		bl	GetDigestSize
 294              	.LVL42:
 295 0024 0290     		str	r0, [sp, #8]
 296              	.LVL43:
 185:..\kronos-c-sdk\src\wolfSSL\wolfcrypt\src/pwdbased.c ****     if (hLen < 0)
 297              		.loc 1 185 0
 298 0026 0028     		cmp	r0, #0
 299 0028 00DA     		bge	.LCB333
 300 002a 86E0     		b	.L43	@long jump
 301              	.LCB333:
 186:..\kronos-c-sdk\src\wolfSSL\wolfcrypt\src/pwdbased.c ****         return BAD_FUNC_ARG;
 187:..\kronos-c-sdk\src\wolfSSL\wolfcrypt\src/pwdbased.c **** 
 188:..\kronos-c-sdk\src\wolfSSL\wolfcrypt\src/pwdbased.c **** #ifdef WOLFSSL_SMALL_STACK
 189:..\kronos-c-sdk\src\wolfSSL\wolfcrypt\src/pwdbased.c ****     buffer = (byte*)XMALLOC(MAX_DIGEST_SIZE, NULL, DYNAMIC_TYPE_TMP_BUFFER);
 190:..\kronos-c-sdk\src\wolfSSL\wolfcrypt\src/pwdbased.c ****     if (buffer == NULL)
 191:..\kronos-c-sdk\src\wolfSSL\wolfcrypt\src/pwdbased.c ****         return MEMORY_E;
 192:..\kronos-c-sdk\src\wolfSSL\wolfcrypt\src/pwdbased.c **** #endif
 193:..\kronos-c-sdk\src\wolfSSL\wolfcrypt\src/pwdbased.c **** 
 194:..\kronos-c-sdk\src\wolfSSL\wolfcrypt\src/pwdbased.c ****     ret = wc_HmacSetKey(&hmac, hashType, passwd, pLen);
 302              		.loc 1 194 0
 303 002c 0EA8     		add	r0, sp, #56
 304              	.LVL44:
 305 002e 5F99     		ldr	r1, [sp, #380]
 306 0030 2A1C     		mov	r2, r5
 307 0032 331C     		mov	r3, r6
 308 0034 FFF7FEFF 		bl	wc_HmacSetKey
 309              	.LVL45:
 310 0038 061E     		sub	r6, r0, #0
ARM GAS  C:\Users\ddemidov\AppData\Local\Temp\ccEU3Cb3.s 			page 10


 311              	.LVL46:
 195:..\kronos-c-sdk\src\wolfSSL\wolfcrypt\src/pwdbased.c **** 
 196:..\kronos-c-sdk\src\wolfSSL\wolfcrypt\src/pwdbased.c ****     if (ret == 0) {
 312              		.loc 1 196 0
 313 003a 75D0     		beq	.L44
 314 003c 7BE0     		b	.L28
 315              	.LVL47:
 316              	.L42:
 317              	.LBB24:
 197:..\kronos-c-sdk\src\wolfSSL\wolfcrypt\src/pwdbased.c ****         while (kLen) {
 198:..\kronos-c-sdk\src\wolfSSL\wolfcrypt\src/pwdbased.c ****             int currentLen;
 199:..\kronos-c-sdk\src\wolfSSL\wolfcrypt\src/pwdbased.c **** 
 200:..\kronos-c-sdk\src\wolfSSL\wolfcrypt\src/pwdbased.c ****             ret = wc_HmacUpdate(&hmac, salt, sLen);
 318              		.loc 1 200 0
 319 003e 0EA8     		add	r0, sp, #56
 320 0040 0399     		ldr	r1, [sp, #12]
 321 0042 5C9A     		ldr	r2, [sp, #368]
 322 0044 FFF7FEFF 		bl	wc_HmacUpdate
 323              	.LVL48:
 324 0048 061E     		sub	r6, r0, #0
 325              	.LVL49:
 201:..\kronos-c-sdk\src\wolfSSL\wolfcrypt\src/pwdbased.c ****             if (ret != 0)
 326              		.loc 1 201 0
 327 004a 74D1     		bne	.L28
 328 004c 0025     		mov	r5, #0
 329 004e 5746     		mov	r7, r10
 330 0050 10E0     		b	.L29
 331              	.LVL50:
 332              	.L32:
 333              	.LBB25:
 202:..\kronos-c-sdk\src\wolfSSL\wolfcrypt\src/pwdbased.c ****                 break;
 203:..\kronos-c-sdk\src\wolfSSL\wolfcrypt\src/pwdbased.c **** 
 204:..\kronos-c-sdk\src\wolfSSL\wolfcrypt\src/pwdbased.c ****             /* encode i */
 205:..\kronos-c-sdk\src\wolfSSL\wolfcrypt\src/pwdbased.c ****             for (j = 0; j < 4; j++) {
 206:..\kronos-c-sdk\src\wolfSSL\wolfcrypt\src/pwdbased.c ****                 byte b = (byte)(i >> ((3-j) * 8));
 334              		.loc 1 206 0
 335 0052 0323     		mov	r3, #3
 336 0054 5B1B     		sub	r3, r3, r5
 337 0056 DB00     		lsl	r3, r3, #3
 338 0058 3A1C     		mov	r2, r7
 339 005a DA40     		lsr	r2, r2, r3
 340 005c 131C     		mov	r3, r2
 341 005e 04AA     		add	r2, sp, #16
 342 0060 D371     		strb	r3, [r2, #7]
 343 0062 0732     		add	r2, r2, #7
 207:..\kronos-c-sdk\src\wolfSSL\wolfcrypt\src/pwdbased.c **** 
 208:..\kronos-c-sdk\src\wolfSSL\wolfcrypt\src/pwdbased.c ****                 ret = wc_HmacUpdate(&hmac, &b, 1);
 344              		.loc 1 208 0
 345 0064 0EA8     		add	r0, sp, #56
 346              	.LVL51:
 347 0066 111C     		mov	r1, r2
 348 0068 0122     		mov	r2, #1
 349 006a FFF7FEFF 		bl	wc_HmacUpdate
 350              	.LVL52:
 209:..\kronos-c-sdk\src\wolfSSL\wolfcrypt\src/pwdbased.c ****                 if (ret != 0)
 351              		.loc 1 209 0
 352 006e 0028     		cmp	r0, #0
ARM GAS  C:\Users\ddemidov\AppData\Local\Temp\ccEU3Cb3.s 			page 11


 353 0070 02D1     		bne	.L31
 354              	.LBE25:
 205:..\kronos-c-sdk\src\wolfSSL\wolfcrypt\src/pwdbased.c ****                 byte b = (byte)(i >> ((3-j) * 8));
 355              		.loc 1 205 0
 356 0072 0135     		add	r5, r5, #1
 357              	.LVL53:
 358              	.L29:
 205:..\kronos-c-sdk\src\wolfSSL\wolfcrypt\src/pwdbased.c ****                 byte b = (byte)(i >> ((3-j) * 8));
 359              		.loc 1 205 0 is_stmt 0 discriminator 1
 360 0074 032D     		cmp	r5, #3
 361 0076 ECDD     		ble	.L32
 362              	.L31:
 363 0078 BA46     		mov	r10, r7
 364 007a 061E     		sub	r6, r0, #0
 365              	.LVL54:
 210:..\kronos-c-sdk\src\wolfSSL\wolfcrypt\src/pwdbased.c ****                     break;
 211:..\kronos-c-sdk\src\wolfSSL\wolfcrypt\src/pwdbased.c ****             }
 212:..\kronos-c-sdk\src\wolfSSL\wolfcrypt\src/pwdbased.c **** 
 213:..\kronos-c-sdk\src\wolfSSL\wolfcrypt\src/pwdbased.c ****             /* check ret from inside for loop */
 214:..\kronos-c-sdk\src\wolfSSL\wolfcrypt\src/pwdbased.c ****             if (ret != 0)
 366              		.loc 1 214 0 is_stmt 1
 367 007c 5BD1     		bne	.L28
 368              	.LVL55:
 215:..\kronos-c-sdk\src\wolfSSL\wolfcrypt\src/pwdbased.c ****                 break;
 216:..\kronos-c-sdk\src\wolfSSL\wolfcrypt\src/pwdbased.c **** 
 217:..\kronos-c-sdk\src\wolfSSL\wolfcrypt\src/pwdbased.c ****             ret = wc_HmacFinal(&hmac, buffer);
 369              		.loc 1 217 0
 370 007e 0EA8     		add	r0, sp, #56
 371              	.LVL56:
 372 0080 06A9     		add	r1, sp, #24
 373 0082 FFF7FEFF 		bl	wc_HmacFinal
 374              	.LVL57:
 375 0086 061E     		sub	r6, r0, #0
 376              	.LVL58:
 218:..\kronos-c-sdk\src\wolfSSL\wolfcrypt\src/pwdbased.c ****             if (ret != 0)
 377              		.loc 1 218 0
 378 0088 55D1     		bne	.L28
 219:..\kronos-c-sdk\src\wolfSSL\wolfcrypt\src/pwdbased.c ****                 break;
 220:..\kronos-c-sdk\src\wolfSSL\wolfcrypt\src/pwdbased.c **** 
 221:..\kronos-c-sdk\src\wolfSSL\wolfcrypt\src/pwdbased.c ****             currentLen = min(kLen, hLen);
 379              		.loc 1 221 0
 380 008a 029B     		ldr	r3, [sp, #8]
 381 008c 0093     		str	r3, [sp]
 382              	.LVL59:
 383              	.LBB26:
 384              	.LBB27:
  66:..\kronos-c-sdk\src\wolfSSL\wolfcrypt\src/pwdbased.c ****     }
 385              		.loc 1 66 0
 386 008e 4D46     		mov	r5, r9
 387              	.LVL60:
 388 0090 9945     		cmp	r9, r3
 389 0092 00D9     		bls	.L33
 390              	.LVL61:
 391 0094 1D1C     		mov	r5, r3
 392              	.LVL62:
 393              	.L33:
 394              	.LBE27:
ARM GAS  C:\Users\ddemidov\AppData\Local\Temp\ccEU3Cb3.s 			page 12


 395              	.LBE26:
 396              		.loc 1 221 0
 397 0096 A846     		mov	r8, r5
 398              	.LVL63:
 222:..\kronos-c-sdk\src\wolfSSL\wolfcrypt\src/pwdbased.c ****             XMEMCPY(output, buffer, currentLen);
 399              		.loc 1 222 0
 400 0098 201C     		mov	r0, r4
 401              	.LVL64:
 402 009a 06A9     		add	r1, sp, #24
 403 009c 2A1C     		mov	r2, r5
 404 009e FFF7FEFF 		bl	memcpy
 405              	.LVL65:
 223:..\kronos-c-sdk\src\wolfSSL\wolfcrypt\src/pwdbased.c **** 
 224:..\kronos-c-sdk\src\wolfSSL\wolfcrypt\src/pwdbased.c ****             for (j = 1; j < iterations; j++) {
 406              		.loc 1 224 0
 407 00a2 0127     		mov	r7, #1
 408              	.LVL66:
 409 00a4 33E0     		b	.L34
 410              	.LVL67:
 411              	.L41:
 225:..\kronos-c-sdk\src\wolfSSL\wolfcrypt\src/pwdbased.c ****                 ret = wc_HmacUpdate(&hmac, buffer, hLen);
 412              		.loc 1 225 0
 413 00a6 0EA8     		add	r0, sp, #56
 414 00a8 06A9     		add	r1, sp, #24
 415 00aa 009A     		ldr	r2, [sp]
 416 00ac FFF7FEFF 		bl	wc_HmacUpdate
 417              	.LVL68:
 418 00b0 061E     		sub	r6, r0, #0
 419              	.LVL69:
 226:..\kronos-c-sdk\src\wolfSSL\wolfcrypt\src/pwdbased.c ****                 if (ret != 0)
 420              		.loc 1 226 0
 421 00b2 2ED1     		bne	.L35
 227:..\kronos-c-sdk\src\wolfSSL\wolfcrypt\src/pwdbased.c ****                     break;
 228:..\kronos-c-sdk\src\wolfSSL\wolfcrypt\src/pwdbased.c ****                 ret = wc_HmacFinal(&hmac, buffer);
 422              		.loc 1 228 0
 423 00b4 0EA8     		add	r0, sp, #56
 424              	.LVL70:
 425 00b6 06A9     		add	r1, sp, #24
 426 00b8 FFF7FEFF 		bl	wc_HmacFinal
 427              	.LVL71:
 428 00bc 061E     		sub	r6, r0, #0
 429              	.LVL72:
 229:..\kronos-c-sdk\src\wolfSSL\wolfcrypt\src/pwdbased.c ****                 if (ret != 0)
 430              		.loc 1 229 0
 431 00be 28D1     		bne	.L35
 432              	.LVL73:
 433              	.LBB28:
 434              	.LBB29:
 435              		.file 2 "..\\kronos-c-sdk\\src\\wolfSSL/wolfcrypt/src/misc.c"
   1:..\kronos-c-sdk\src\wolfSSL\wolfcrypt\src/misc.c **** /* misc.c
   2:..\kronos-c-sdk\src\wolfSSL\wolfcrypt\src/misc.c ****  *
   3:..\kronos-c-sdk\src\wolfSSL\wolfcrypt\src/misc.c ****  * Copyright (C) 2006-2016 wolfSSL Inc.
   4:..\kronos-c-sdk\src\wolfSSL\wolfcrypt\src/misc.c ****  *
   5:..\kronos-c-sdk\src\wolfSSL\wolfcrypt\src/misc.c ****  * This file is part of wolfSSL.
   6:..\kronos-c-sdk\src\wolfSSL\wolfcrypt\src/misc.c ****  *
   7:..\kronos-c-sdk\src\wolfSSL\wolfcrypt\src/misc.c ****  * wolfSSL is free software; you can redistribute it and/or modify
   8:..\kronos-c-sdk\src\wolfSSL\wolfcrypt\src/misc.c ****  * it under the terms of the GNU General Public License as published by
ARM GAS  C:\Users\ddemidov\AppData\Local\Temp\ccEU3Cb3.s 			page 13


   9:..\kronos-c-sdk\src\wolfSSL\wolfcrypt\src/misc.c ****  * the Free Software Foundation; either version 2 of the License, or
  10:..\kronos-c-sdk\src\wolfSSL\wolfcrypt\src/misc.c ****  * (at your option) any later version.
  11:..\kronos-c-sdk\src\wolfSSL\wolfcrypt\src/misc.c ****  *
  12:..\kronos-c-sdk\src\wolfSSL\wolfcrypt\src/misc.c ****  * wolfSSL is distributed in the hope that it will be useful,
  13:..\kronos-c-sdk\src\wolfSSL\wolfcrypt\src/misc.c ****  * but WITHOUT ANY WARRANTY; without even the implied warranty of
  14:..\kronos-c-sdk\src\wolfSSL\wolfcrypt\src/misc.c ****  * MERCHANTABILITY or FITNESS FOR A PARTICULAR PURPOSE.  See the
  15:..\kronos-c-sdk\src\wolfSSL\wolfcrypt\src/misc.c ****  * GNU General Public License for more details.
  16:..\kronos-c-sdk\src\wolfSSL\wolfcrypt\src/misc.c ****  *
  17:..\kronos-c-sdk\src\wolfSSL\wolfcrypt\src/misc.c ****  * You should have received a copy of the GNU General Public License
  18:..\kronos-c-sdk\src\wolfSSL\wolfcrypt\src/misc.c ****  * along with this program; if not, write to the Free Software
  19:..\kronos-c-sdk\src\wolfSSL\wolfcrypt\src/misc.c ****  * Foundation, Inc., 51 Franklin Street, Fifth Floor, Boston, MA 02110-1335, USA
  20:..\kronos-c-sdk\src\wolfSSL\wolfcrypt\src/misc.c ****  */
  21:..\kronos-c-sdk\src\wolfSSL\wolfcrypt\src/misc.c **** 
  22:..\kronos-c-sdk\src\wolfSSL\wolfcrypt\src/misc.c **** 
  23:..\kronos-c-sdk\src\wolfSSL\wolfcrypt\src/misc.c **** #ifdef HAVE_CONFIG_H
  24:..\kronos-c-sdk\src\wolfSSL\wolfcrypt\src/misc.c ****     #include <config.h>
  25:..\kronos-c-sdk\src\wolfSSL\wolfcrypt\src/misc.c **** #endif
  26:..\kronos-c-sdk\src\wolfSSL\wolfcrypt\src/misc.c **** 
  27:..\kronos-c-sdk\src\wolfSSL\wolfcrypt\src/misc.c **** #include <wolfssl/wolfcrypt/settings.h>
  28:..\kronos-c-sdk\src\wolfSSL\wolfcrypt\src/misc.c **** 
  29:..\kronos-c-sdk\src\wolfSSL\wolfcrypt\src/misc.c **** #ifndef WOLF_CRYPT_MISC_C
  30:..\kronos-c-sdk\src\wolfSSL\wolfcrypt\src/misc.c **** #define WOLF_CRYPT_MISC_C
  31:..\kronos-c-sdk\src\wolfSSL\wolfcrypt\src/misc.c **** 
  32:..\kronos-c-sdk\src\wolfSSL\wolfcrypt\src/misc.c **** #include <wolfssl/wolfcrypt/misc.h>
  33:..\kronos-c-sdk\src\wolfSSL\wolfcrypt\src/misc.c **** 
  34:..\kronos-c-sdk\src\wolfSSL\wolfcrypt\src/misc.c **** /* inlining these functions is a huge speed increase and a small size decrease, 
  35:..\kronos-c-sdk\src\wolfSSL\wolfcrypt\src/misc.c ****    because the functions are smaller than function call setup/cleanup, e.g.,
  36:..\kronos-c-sdk\src\wolfSSL\wolfcrypt\src/misc.c ****    md5 benchmark is twice as fast with inline.  If you don't want it, then
  37:..\kronos-c-sdk\src\wolfSSL\wolfcrypt\src/misc.c ****    define NO_INLINE and compile this file into wolfssl, otherwise it's used as
  38:..\kronos-c-sdk\src\wolfSSL\wolfcrypt\src/misc.c ****    a source header
  39:..\kronos-c-sdk\src\wolfSSL\wolfcrypt\src/misc.c ****  */
  40:..\kronos-c-sdk\src\wolfSSL\wolfcrypt\src/misc.c **** 
  41:..\kronos-c-sdk\src\wolfSSL\wolfcrypt\src/misc.c **** #ifdef NO_INLINE
  42:..\kronos-c-sdk\src\wolfSSL\wolfcrypt\src/misc.c ****     #define STATIC
  43:..\kronos-c-sdk\src\wolfSSL\wolfcrypt\src/misc.c **** #else
  44:..\kronos-c-sdk\src\wolfSSL\wolfcrypt\src/misc.c ****     #define STATIC static
  45:..\kronos-c-sdk\src\wolfSSL\wolfcrypt\src/misc.c **** #endif
  46:..\kronos-c-sdk\src\wolfSSL\wolfcrypt\src/misc.c **** 
  47:..\kronos-c-sdk\src\wolfSSL\wolfcrypt\src/misc.c **** 
  48:..\kronos-c-sdk\src\wolfSSL\wolfcrypt\src/misc.c **** #ifdef INTEL_INTRINSICS
  49:..\kronos-c-sdk\src\wolfSSL\wolfcrypt\src/misc.c **** 
  50:..\kronos-c-sdk\src\wolfSSL\wolfcrypt\src/misc.c ****     #include <stdlib.h>      /* get intrinsic definitions */
  51:..\kronos-c-sdk\src\wolfSSL\wolfcrypt\src/misc.c **** 
  52:..\kronos-c-sdk\src\wolfSSL\wolfcrypt\src/misc.c ****     /* for non visual studio probably need no long version, 32 bit only
  53:..\kronos-c-sdk\src\wolfSSL\wolfcrypt\src/misc.c ****      * i.e., _rotl and _rotr */
  54:..\kronos-c-sdk\src\wolfSSL\wolfcrypt\src/misc.c ****     #pragma intrinsic(_lrotl, _lrotr)
  55:..\kronos-c-sdk\src\wolfSSL\wolfcrypt\src/misc.c **** 
  56:..\kronos-c-sdk\src\wolfSSL\wolfcrypt\src/misc.c ****     STATIC INLINE word32 rotlFixed(word32 x, word32 y)
  57:..\kronos-c-sdk\src\wolfSSL\wolfcrypt\src/misc.c ****     {
  58:..\kronos-c-sdk\src\wolfSSL\wolfcrypt\src/misc.c ****         return y ? _lrotl(x, y) : x;
  59:..\kronos-c-sdk\src\wolfSSL\wolfcrypt\src/misc.c ****     }
  60:..\kronos-c-sdk\src\wolfSSL\wolfcrypt\src/misc.c **** 
  61:..\kronos-c-sdk\src\wolfSSL\wolfcrypt\src/misc.c ****     STATIC INLINE word32 rotrFixed(word32 x, word32 y)
  62:..\kronos-c-sdk\src\wolfSSL\wolfcrypt\src/misc.c ****     {
  63:..\kronos-c-sdk\src\wolfSSL\wolfcrypt\src/misc.c ****         return y ? _lrotr(x, y) : x;
  64:..\kronos-c-sdk\src\wolfSSL\wolfcrypt\src/misc.c ****     }
  65:..\kronos-c-sdk\src\wolfSSL\wolfcrypt\src/misc.c **** 
ARM GAS  C:\Users\ddemidov\AppData\Local\Temp\ccEU3Cb3.s 			page 14


  66:..\kronos-c-sdk\src\wolfSSL\wolfcrypt\src/misc.c **** #else /* generic */
  67:..\kronos-c-sdk\src\wolfSSL\wolfcrypt\src/misc.c **** 
  68:..\kronos-c-sdk\src\wolfSSL\wolfcrypt\src/misc.c ****     STATIC INLINE word32 rotlFixed(word32 x, word32 y)
  69:..\kronos-c-sdk\src\wolfSSL\wolfcrypt\src/misc.c ****     {
  70:..\kronos-c-sdk\src\wolfSSL\wolfcrypt\src/misc.c ****         return (x << y) | (x >> (sizeof(y) * 8 - y));
  71:..\kronos-c-sdk\src\wolfSSL\wolfcrypt\src/misc.c ****     }   
  72:..\kronos-c-sdk\src\wolfSSL\wolfcrypt\src/misc.c **** 
  73:..\kronos-c-sdk\src\wolfSSL\wolfcrypt\src/misc.c **** 
  74:..\kronos-c-sdk\src\wolfSSL\wolfcrypt\src/misc.c ****     STATIC INLINE word32 rotrFixed(word32 x, word32 y)
  75:..\kronos-c-sdk\src\wolfSSL\wolfcrypt\src/misc.c ****     {
  76:..\kronos-c-sdk\src\wolfSSL\wolfcrypt\src/misc.c ****         return (x >> y) | (x << (sizeof(y) * 8 - y));
  77:..\kronos-c-sdk\src\wolfSSL\wolfcrypt\src/misc.c ****     }
  78:..\kronos-c-sdk\src\wolfSSL\wolfcrypt\src/misc.c **** 
  79:..\kronos-c-sdk\src\wolfSSL\wolfcrypt\src/misc.c **** #endif
  80:..\kronos-c-sdk\src\wolfSSL\wolfcrypt\src/misc.c **** 
  81:..\kronos-c-sdk\src\wolfSSL\wolfcrypt\src/misc.c **** 
  82:..\kronos-c-sdk\src\wolfSSL\wolfcrypt\src/misc.c **** STATIC INLINE word32 ByteReverseWord32(word32 value)
  83:..\kronos-c-sdk\src\wolfSSL\wolfcrypt\src/misc.c **** {
  84:..\kronos-c-sdk\src\wolfSSL\wolfcrypt\src/misc.c **** #ifdef PPC_INTRINSICS
  85:..\kronos-c-sdk\src\wolfSSL\wolfcrypt\src/misc.c ****     /* PPC: load reverse indexed instruction */
  86:..\kronos-c-sdk\src\wolfSSL\wolfcrypt\src/misc.c ****     return (word32)__lwbrx(&value,0);
  87:..\kronos-c-sdk\src\wolfSSL\wolfcrypt\src/misc.c **** #elif defined(KEIL_INTRINSICS)
  88:..\kronos-c-sdk\src\wolfSSL\wolfcrypt\src/misc.c ****     return (word32)__rev(value);
  89:..\kronos-c-sdk\src\wolfSSL\wolfcrypt\src/misc.c **** #elif defined(FAST_ROTATE)
  90:..\kronos-c-sdk\src\wolfSSL\wolfcrypt\src/misc.c ****     /* 5 instructions with rotate instruction, 9 without */
  91:..\kronos-c-sdk\src\wolfSSL\wolfcrypt\src/misc.c ****     return (rotrFixed(value, 8U) & 0xff00ff00) |
  92:..\kronos-c-sdk\src\wolfSSL\wolfcrypt\src/misc.c ****            (rotlFixed(value, 8U) & 0x00ff00ff);
  93:..\kronos-c-sdk\src\wolfSSL\wolfcrypt\src/misc.c **** #else
  94:..\kronos-c-sdk\src\wolfSSL\wolfcrypt\src/misc.c ****     /* 6 instructions with rotate instruction, 8 without */
  95:..\kronos-c-sdk\src\wolfSSL\wolfcrypt\src/misc.c ****     value = ((value & 0xFF00FF00) >> 8) | ((value & 0x00FF00FF) << 8);
  96:..\kronos-c-sdk\src\wolfSSL\wolfcrypt\src/misc.c ****     return rotlFixed(value, 16U);
  97:..\kronos-c-sdk\src\wolfSSL\wolfcrypt\src/misc.c **** #endif
  98:..\kronos-c-sdk\src\wolfSSL\wolfcrypt\src/misc.c **** }
  99:..\kronos-c-sdk\src\wolfSSL\wolfcrypt\src/misc.c **** 
 100:..\kronos-c-sdk\src\wolfSSL\wolfcrypt\src/misc.c **** 
 101:..\kronos-c-sdk\src\wolfSSL\wolfcrypt\src/misc.c **** STATIC INLINE void ByteReverseWords(word32* out, const word32* in,
 102:..\kronos-c-sdk\src\wolfSSL\wolfcrypt\src/misc.c ****                                     word32 byteCount)
 103:..\kronos-c-sdk\src\wolfSSL\wolfcrypt\src/misc.c **** {
 104:..\kronos-c-sdk\src\wolfSSL\wolfcrypt\src/misc.c ****     word32 count = byteCount/(word32)sizeof(word32), i;
 105:..\kronos-c-sdk\src\wolfSSL\wolfcrypt\src/misc.c **** 
 106:..\kronos-c-sdk\src\wolfSSL\wolfcrypt\src/misc.c ****     for (i = 0; i < count; i++)
 107:..\kronos-c-sdk\src\wolfSSL\wolfcrypt\src/misc.c ****         out[i] = ByteReverseWord32(in[i]);
 108:..\kronos-c-sdk\src\wolfSSL\wolfcrypt\src/misc.c **** 
 109:..\kronos-c-sdk\src\wolfSSL\wolfcrypt\src/misc.c **** }
 110:..\kronos-c-sdk\src\wolfSSL\wolfcrypt\src/misc.c **** 
 111:..\kronos-c-sdk\src\wolfSSL\wolfcrypt\src/misc.c **** 
 112:..\kronos-c-sdk\src\wolfSSL\wolfcrypt\src/misc.c **** #ifdef WORD64_AVAILABLE
 113:..\kronos-c-sdk\src\wolfSSL\wolfcrypt\src/misc.c **** 
 114:..\kronos-c-sdk\src\wolfSSL\wolfcrypt\src/misc.c **** 
 115:..\kronos-c-sdk\src\wolfSSL\wolfcrypt\src/misc.c **** STATIC INLINE word64 rotlFixed64(word64 x, word64 y)
 116:..\kronos-c-sdk\src\wolfSSL\wolfcrypt\src/misc.c **** {
 117:..\kronos-c-sdk\src\wolfSSL\wolfcrypt\src/misc.c ****     return (x << y) | (x >> (sizeof(y) * 8 - y));
 118:..\kronos-c-sdk\src\wolfSSL\wolfcrypt\src/misc.c **** }  
 119:..\kronos-c-sdk\src\wolfSSL\wolfcrypt\src/misc.c **** 
 120:..\kronos-c-sdk\src\wolfSSL\wolfcrypt\src/misc.c **** 
 121:..\kronos-c-sdk\src\wolfSSL\wolfcrypt\src/misc.c **** STATIC INLINE word64 rotrFixed64(word64 x, word64 y)
 122:..\kronos-c-sdk\src\wolfSSL\wolfcrypt\src/misc.c **** {
ARM GAS  C:\Users\ddemidov\AppData\Local\Temp\ccEU3Cb3.s 			page 15


 123:..\kronos-c-sdk\src\wolfSSL\wolfcrypt\src/misc.c ****     return (x >> y) | (x << (sizeof(y) * 8 - y));
 124:..\kronos-c-sdk\src\wolfSSL\wolfcrypt\src/misc.c **** }
 125:..\kronos-c-sdk\src\wolfSSL\wolfcrypt\src/misc.c **** 
 126:..\kronos-c-sdk\src\wolfSSL\wolfcrypt\src/misc.c **** 
 127:..\kronos-c-sdk\src\wolfSSL\wolfcrypt\src/misc.c **** STATIC INLINE word64 ByteReverseWord64(word64 value)
 128:..\kronos-c-sdk\src\wolfSSL\wolfcrypt\src/misc.c **** {
 129:..\kronos-c-sdk\src\wolfSSL\wolfcrypt\src/misc.c **** #ifdef WOLFCRYPT_SLOW_WORD64
 130:..\kronos-c-sdk\src\wolfSSL\wolfcrypt\src/misc.c **** 	return (word64)(ByteReverseWord32((word32)value)) << 32 | 
 131:..\kronos-c-sdk\src\wolfSSL\wolfcrypt\src/misc.c ****                     ByteReverseWord32((word32)(value>>32));
 132:..\kronos-c-sdk\src\wolfSSL\wolfcrypt\src/misc.c **** #else
 133:..\kronos-c-sdk\src\wolfSSL\wolfcrypt\src/misc.c **** 	value = ((value & W64LIT(0xFF00FF00FF00FF00)) >> 8) |
 134:..\kronos-c-sdk\src\wolfSSL\wolfcrypt\src/misc.c ****             ((value & W64LIT(0x00FF00FF00FF00FF)) << 8);
 135:..\kronos-c-sdk\src\wolfSSL\wolfcrypt\src/misc.c **** 	value = ((value & W64LIT(0xFFFF0000FFFF0000)) >> 16) |
 136:..\kronos-c-sdk\src\wolfSSL\wolfcrypt\src/misc.c ****             ((value & W64LIT(0x0000FFFF0000FFFF)) << 16);
 137:..\kronos-c-sdk\src\wolfSSL\wolfcrypt\src/misc.c **** 	return rotlFixed64(value, 32U);
 138:..\kronos-c-sdk\src\wolfSSL\wolfcrypt\src/misc.c **** #endif
 139:..\kronos-c-sdk\src\wolfSSL\wolfcrypt\src/misc.c **** }
 140:..\kronos-c-sdk\src\wolfSSL\wolfcrypt\src/misc.c **** 
 141:..\kronos-c-sdk\src\wolfSSL\wolfcrypt\src/misc.c **** 
 142:..\kronos-c-sdk\src\wolfSSL\wolfcrypt\src/misc.c **** STATIC INLINE void ByteReverseWords64(word64* out, const word64* in,
 143:..\kronos-c-sdk\src\wolfSSL\wolfcrypt\src/misc.c ****                                       word32 byteCount)
 144:..\kronos-c-sdk\src\wolfSSL\wolfcrypt\src/misc.c **** {
 145:..\kronos-c-sdk\src\wolfSSL\wolfcrypt\src/misc.c ****     word32 count = byteCount/(word32)sizeof(word64), i;
 146:..\kronos-c-sdk\src\wolfSSL\wolfcrypt\src/misc.c **** 
 147:..\kronos-c-sdk\src\wolfSSL\wolfcrypt\src/misc.c ****     for (i = 0; i < count; i++)
 148:..\kronos-c-sdk\src\wolfSSL\wolfcrypt\src/misc.c ****         out[i] = ByteReverseWord64(in[i]);
 149:..\kronos-c-sdk\src\wolfSSL\wolfcrypt\src/misc.c **** 
 150:..\kronos-c-sdk\src\wolfSSL\wolfcrypt\src/misc.c **** }
 151:..\kronos-c-sdk\src\wolfSSL\wolfcrypt\src/misc.c **** 
 152:..\kronos-c-sdk\src\wolfSSL\wolfcrypt\src/misc.c **** #endif /* WORD64_AVAILABLE */
 153:..\kronos-c-sdk\src\wolfSSL\wolfcrypt\src/misc.c **** 
 154:..\kronos-c-sdk\src\wolfSSL\wolfcrypt\src/misc.c **** 
 155:..\kronos-c-sdk\src\wolfSSL\wolfcrypt\src/misc.c **** STATIC INLINE void XorWords(wolfssl_word* r, const wolfssl_word* a, word32 n)
 156:..\kronos-c-sdk\src\wolfSSL\wolfcrypt\src/misc.c **** {
 157:..\kronos-c-sdk\src\wolfSSL\wolfcrypt\src/misc.c ****     word32 i;
 158:..\kronos-c-sdk\src\wolfSSL\wolfcrypt\src/misc.c **** 
 159:..\kronos-c-sdk\src\wolfSSL\wolfcrypt\src/misc.c ****     for (i = 0; i < n; i++) r[i] ^= a[i];
 160:..\kronos-c-sdk\src\wolfSSL\wolfcrypt\src/misc.c **** }
 161:..\kronos-c-sdk\src\wolfSSL\wolfcrypt\src/misc.c **** 
 162:..\kronos-c-sdk\src\wolfSSL\wolfcrypt\src/misc.c **** 
 163:..\kronos-c-sdk\src\wolfSSL\wolfcrypt\src/misc.c **** STATIC INLINE void xorbuf(void* buf, const void* mask, word32 count)
 164:..\kronos-c-sdk\src\wolfSSL\wolfcrypt\src/misc.c **** {
 165:..\kronos-c-sdk\src\wolfSSL\wolfcrypt\src/misc.c ****     if (((wolfssl_word)buf | (wolfssl_word)mask | count) % WOLFSSL_WORD_SIZE == 0)
 436              		.loc 2 165 0
 437 00c0 231C     		mov	r3, r4
 438 00c2 2B43     		orr	r3, r5
 439 00c4 9B07     		lsl	r3, r3, #30
 440 00c6 1ED1     		bne	.L45
 166:..\kronos-c-sdk\src\wolfSSL\wolfcrypt\src/misc.c ****         XorWords( (wolfssl_word*)buf,
 441              		.loc 2 166 0
 442 00c8 A808     		lsr	r0, r5, #2
 443              	.LVL74:
 444              	.LBB30:
 445              	.LBB31:
 159:..\kronos-c-sdk\src\wolfSSL\wolfcrypt\src/misc.c **** }
 446              		.loc 2 159 0
 447 00ca 0022     		mov	r2, #0
ARM GAS  C:\Users\ddemidov\AppData\Local\Temp\ccEU3Cb3.s 			page 16


 448 00cc 0195     		str	r5, [sp, #4]
 449 00ce 0BE0     		b	.L37
 450              	.LVL75:
 451              	.L38:
 452 00d0 9300     		lsl	r3, r2, #2
 453 00d2 E118     		add	r1, r4, r3
 454 00d4 52AD     		add	r5, sp, #328
 455 00d6 AC46     		mov	ip, r5
 456 00d8 6344     		add	r3, r3, ip
 457 00da 313B     		sub	r3, r3, #49
 458 00dc FF3B     		sub	r3, r3, #255
 459 00de 1B68     		ldr	r3, [r3]
 460 00e0 0D68     		ldr	r5, [r1]
 461 00e2 6B40     		eor	r3, r5
 462 00e4 0B60     		str	r3, [r1]
 463 00e6 0132     		add	r2, r2, #1
 464              	.LVL76:
 465              	.L37:
 466 00e8 9042     		cmp	r0, r2
 467 00ea F1D8     		bhi	.L38
 468 00ec 019D     		ldr	r5, [sp, #4]
 469 00ee 0DE0     		b	.L39
 470              	.LVL77:
 471              	.L40:
 472              	.LBE31:
 473              	.LBE30:
 474              	.LBB32:
 167:..\kronos-c-sdk\src\wolfSSL\wolfcrypt\src/misc.c ****                   (const wolfssl_word*)mask, count / WOLFSSL_WORD_SIZE);
 168:..\kronos-c-sdk\src\wolfSSL\wolfcrypt\src/misc.c ****     else {
 169:..\kronos-c-sdk\src\wolfSSL\wolfcrypt\src/misc.c ****         word32 i;
 170:..\kronos-c-sdk\src\wolfSSL\wolfcrypt\src/misc.c ****         byte*       b = (byte*)buf;
 171:..\kronos-c-sdk\src\wolfSSL\wolfcrypt\src/misc.c ****         const byte* m = (const byte*)mask;
 172:..\kronos-c-sdk\src\wolfSSL\wolfcrypt\src/misc.c **** 
 173:..\kronos-c-sdk\src\wolfSSL\wolfcrypt\src/misc.c ****         for (i = 0; i < count; i++) b[i] ^= m[i];
 475              		.loc 2 173 0
 476 00f0 A118     		add	r1, r4, r2
 477 00f2 52AB     		add	r3, sp, #328
 478 00f4 9B18     		add	r3, r3, r2
 479 00f6 313B     		sub	r3, r3, #49
 480 00f8 FF3B     		sub	r3, r3, #255
 481 00fa 1878     		ldrb	r0, [r3]
 482 00fc 0B78     		ldrb	r3, [r1]
 483 00fe 4340     		eor	r3, r0
 484 0100 0B70     		strb	r3, [r1]
 485 0102 0132     		add	r2, r2, #1
 486              	.LVL78:
 487 0104 00E0     		b	.L36
 488              	.LVL79:
 489              	.L45:
 490              	.LBE32:
 165:..\kronos-c-sdk\src\wolfSSL\wolfcrypt\src/misc.c ****         XorWords( (wolfssl_word*)buf,
 491              		.loc 2 165 0
 492 0106 0022     		mov	r2, #0
 493              	.LVL80:
 494              	.L36:
 495              	.LBB33:
 496              		.loc 2 173 0
ARM GAS  C:\Users\ddemidov\AppData\Local\Temp\ccEU3Cb3.s 			page 17


 497 0108 9542     		cmp	r5, r2
 498 010a F1D8     		bhi	.L40
 499              	.LVL81:
 500              	.L39:
 501              	.LBE33:
 502              	.LBE29:
 503              	.LBE28:
 224:..\kronos-c-sdk\src\wolfSSL\wolfcrypt\src/pwdbased.c ****                 ret = wc_HmacUpdate(&hmac, buffer, hLen);
 504              		.loc 1 224 0 discriminator 2
 505 010c 0137     		add	r7, r7, #1
 506              	.LVL82:
 507              	.L34:
 224:..\kronos-c-sdk\src\wolfSSL\wolfcrypt\src/pwdbased.c ****                 ret = wc_HmacUpdate(&hmac, buffer, hLen);
 508              		.loc 1 224 0 is_stmt 0 discriminator 1
 509 010e 5F45     		cmp	r7, fp
 510 0110 C9DB     		blt	.L41
 511              	.L35:
 230:..\kronos-c-sdk\src\wolfSSL\wolfcrypt\src/pwdbased.c ****                     break;
 231:..\kronos-c-sdk\src\wolfSSL\wolfcrypt\src/pwdbased.c ****                 xorbuf(output, buffer, currentLen);
 232:..\kronos-c-sdk\src\wolfSSL\wolfcrypt\src/pwdbased.c ****             }
 233:..\kronos-c-sdk\src\wolfSSL\wolfcrypt\src/pwdbased.c **** 
 234:..\kronos-c-sdk\src\wolfSSL\wolfcrypt\src/pwdbased.c ****             /* check ret from inside for loop */
 235:..\kronos-c-sdk\src\wolfSSL\wolfcrypt\src/pwdbased.c ****             if (ret != 0)
 512              		.loc 1 235 0 is_stmt 1
 513 0112 002E     		cmp	r6, #0
 514 0114 0FD1     		bne	.L28
 236:..\kronos-c-sdk\src\wolfSSL\wolfcrypt\src/pwdbased.c ****                 break;
 237:..\kronos-c-sdk\src\wolfSSL\wolfcrypt\src/pwdbased.c **** 
 238:..\kronos-c-sdk\src\wolfSSL\wolfcrypt\src/pwdbased.c ****             output += currentLen;
 515              		.loc 1 238 0
 516 0116 6419     		add	r4, r4, r5
 517              	.LVL83:
 239:..\kronos-c-sdk\src\wolfSSL\wolfcrypt\src/pwdbased.c ****             kLen   -= currentLen;
 518              		.loc 1 239 0
 519 0118 4B46     		mov	r3, r9
 520 011a 4246     		mov	r2, r8
 521 011c 9B1A     		sub	r3, r3, r2
 522 011e 9946     		mov	r9, r3
 523              	.LVL84:
 240:..\kronos-c-sdk\src\wolfSSL\wolfcrypt\src/pwdbased.c ****             i++;
 524              		.loc 1 240 0
 525 0120 0123     		mov	r3, #1
 526              	.LVL85:
 527 0122 9C46     		mov	ip, r3
 528 0124 E244     		add	r10, r10, ip
 529              	.LVL86:
 530 0126 02E0     		b	.L27
 531              	.LVL87:
 532              	.L44:
 533              	.LBE24:
 534 0128 0123     		mov	r3, #1
 535 012a D346     		mov	fp, r10
 536 012c 9A46     		mov	r10, r3
 537              	.LVL88:
 538              	.L27:
 197:..\kronos-c-sdk\src\wolfSSL\wolfcrypt\src/pwdbased.c ****             int currentLen;
 539              		.loc 1 197 0
ARM GAS  C:\Users\ddemidov\AppData\Local\Temp\ccEU3Cb3.s 			page 18


 540 012e 4B46     		mov	r3, r9
 541 0130 002B     		cmp	r3, #0
 542 0132 00D0     		beq	.LCB660
 543 0134 83E7     		b	.L42	@long jump
 544              	.LCB660:
 545              	.LVL89:
 546              	.L28:
 241:..\kronos-c-sdk\src\wolfSSL\wolfcrypt\src/pwdbased.c ****         }
 242:..\kronos-c-sdk\src\wolfSSL\wolfcrypt\src/pwdbased.c ****     }
 243:..\kronos-c-sdk\src\wolfSSL\wolfcrypt\src/pwdbased.c **** 
 244:..\kronos-c-sdk\src\wolfSSL\wolfcrypt\src/pwdbased.c **** #ifdef WOLFSSL_SMALL_STACK
 245:..\kronos-c-sdk\src\wolfSSL\wolfcrypt\src/pwdbased.c ****     XFREE(buffer, NULL, DYNAMIC_TYPE_TMP_BUFFER);
 246:..\kronos-c-sdk\src\wolfSSL\wolfcrypt\src/pwdbased.c **** #endif
 247:..\kronos-c-sdk\src\wolfSSL\wolfcrypt\src/pwdbased.c **** 
 248:..\kronos-c-sdk\src\wolfSSL\wolfcrypt\src/pwdbased.c ****     return ret;
 547              		.loc 1 248 0
 548 0136 301C     		mov	r0, r6
 549 0138 01E0     		b	.L26
 550              	.LVL90:
 551              	.L43:
 186:..\kronos-c-sdk\src\wolfSSL\wolfcrypt\src/pwdbased.c **** 
 552              		.loc 1 186 0
 553 013a AD20     		mov	r0, #173
 554              	.LVL91:
 555 013c 4042     		neg	r0, r0
 556              	.LVL92:
 557              	.L26:
 249:..\kronos-c-sdk\src\wolfSSL\wolfcrypt\src/pwdbased.c **** }
 558              		.loc 1 249 0
 559 013e 53B0     		add	sp, sp, #332
 560              		@ sp needed
 561              	.LVL93:
 562 0140 3CBC     		pop	{r2, r3, r4, r5}
 563 0142 9046     		mov	r8, r2
 564 0144 9946     		mov	r9, r3
 565 0146 A246     		mov	r10, r4
 566 0148 AB46     		mov	fp, r5
 567 014a F0BD     		pop	{r4, r5, r6, r7, pc}
 568              		.cfi_endproc
 569              	.LFE15:
 570              		.size	wc_PBKDF2, .-wc_PBKDF2
 571              		.section	.text.GetPKCS12HashSizes,"ax",%progbits
 572              		.align	2
 573              		.global	GetPKCS12HashSizes
 574              		.code	16
 575              		.thumb_func
 576              		.type	GetPKCS12HashSizes, %function
 577              	GetPKCS12HashSizes:
 578              	.LFB16:
 250:..\kronos-c-sdk\src\wolfSSL\wolfcrypt\src/pwdbased.c **** 
 251:..\kronos-c-sdk\src\wolfSSL\wolfcrypt\src/pwdbased.c **** #ifdef WOLFSSL_SHA512
 252:..\kronos-c-sdk\src\wolfSSL\wolfcrypt\src/pwdbased.c ****     #define PBKDF_DIGEST_SIZE SHA512_BLOCK_SIZE
 253:..\kronos-c-sdk\src\wolfSSL\wolfcrypt\src/pwdbased.c **** #elif !defined(NO_SHA256)
 254:..\kronos-c-sdk\src\wolfSSL\wolfcrypt\src/pwdbased.c ****     #define PBKDF_DIGEST_SIZE SHA256_BLOCK_SIZE
 255:..\kronos-c-sdk\src\wolfSSL\wolfcrypt\src/pwdbased.c **** #else
 256:..\kronos-c-sdk\src\wolfSSL\wolfcrypt\src/pwdbased.c ****     #define PBKDF_DIGEST_SIZE SHA_DIGEST_SIZE
 257:..\kronos-c-sdk\src\wolfSSL\wolfcrypt\src/pwdbased.c **** #endif
ARM GAS  C:\Users\ddemidov\AppData\Local\Temp\ccEU3Cb3.s 			page 19


 258:..\kronos-c-sdk\src\wolfSSL\wolfcrypt\src/pwdbased.c **** 
 259:..\kronos-c-sdk\src\wolfSSL\wolfcrypt\src/pwdbased.c **** /* helper for wc_PKCS12_PBKDF(), sets block and digest sizes */
 260:..\kronos-c-sdk\src\wolfSSL\wolfcrypt\src/pwdbased.c **** int GetPKCS12HashSizes(int hashType, word32* v, word32* u)
 261:..\kronos-c-sdk\src\wolfSSL\wolfcrypt\src/pwdbased.c **** {
 579              		.loc 1 261 0
 580              		.cfi_startproc
 581              	.LVL94:
 262:..\kronos-c-sdk\src\wolfSSL\wolfcrypt\src/pwdbased.c ****     if (!v || !u)
 582              		.loc 1 262 0
 583 0000 0029     		cmp	r1, #0
 584 0002 18D0     		beq	.L55
 585              		.loc 1 262 0 is_stmt 0 discriminator 1
 586 0004 002A     		cmp	r2, #0
 587 0006 19D0     		beq	.L56
 263:..\kronos-c-sdk\src\wolfSSL\wolfcrypt\src/pwdbased.c ****         return BAD_FUNC_ARG;
 264:..\kronos-c-sdk\src\wolfSSL\wolfcrypt\src/pwdbased.c **** 
 265:..\kronos-c-sdk\src\wolfSSL\wolfcrypt\src/pwdbased.c ****     switch (hashType) {
 588              		.loc 1 265 0 is_stmt 1
 589 0008 0128     		cmp	r0, #1
 590 000a 08D0     		beq	.L52
 591 000c 0228     		cmp	r0, #2
 592 000e 0CD0     		beq	.L53
 593 0010 0028     		cmp	r0, #0
 594 0012 16D1     		bne	.L58
 266:..\kronos-c-sdk\src\wolfSSL\wolfcrypt\src/pwdbased.c **** #ifndef NO_MD5
 267:..\kronos-c-sdk\src\wolfSSL\wolfcrypt\src/pwdbased.c ****         case MD5:
 268:..\kronos-c-sdk\src\wolfSSL\wolfcrypt\src/pwdbased.c ****             *v = MD5_BLOCK_SIZE;
 595              		.loc 1 268 0
 596 0014 4023     		mov	r3, #64
 597 0016 0B60     		str	r3, [r1]
 269:..\kronos-c-sdk\src\wolfSSL\wolfcrypt\src/pwdbased.c ****             *u = MD5_DIGEST_SIZE;
 598              		.loc 1 269 0
 599 0018 303B     		sub	r3, r3, #48
 600 001a 1360     		str	r3, [r2]
 270:..\kronos-c-sdk\src\wolfSSL\wolfcrypt\src/pwdbased.c ****             break;
 601              		.loc 1 270 0
 602 001c 13E0     		b	.L51
 603              	.L52:
 271:..\kronos-c-sdk\src\wolfSSL\wolfcrypt\src/pwdbased.c **** #endif
 272:..\kronos-c-sdk\src\wolfSSL\wolfcrypt\src/pwdbased.c **** #ifndef NO_SHA
 273:..\kronos-c-sdk\src\wolfSSL\wolfcrypt\src/pwdbased.c ****         case SHA:
 274:..\kronos-c-sdk\src\wolfSSL\wolfcrypt\src/pwdbased.c ****             *v = SHA_BLOCK_SIZE;
 604              		.loc 1 274 0
 605 001e 4023     		mov	r3, #64
 606 0020 0B60     		str	r3, [r1]
 275:..\kronos-c-sdk\src\wolfSSL\wolfcrypt\src/pwdbased.c ****             *u = SHA_DIGEST_SIZE;
 607              		.loc 1 275 0
 608 0022 2C3B     		sub	r3, r3, #44
 609 0024 1360     		str	r3, [r2]
 276:..\kronos-c-sdk\src\wolfSSL\wolfcrypt\src/pwdbased.c ****             break;
 277:..\kronos-c-sdk\src\wolfSSL\wolfcrypt\src/pwdbased.c **** #endif
 278:..\kronos-c-sdk\src\wolfSSL\wolfcrypt\src/pwdbased.c **** #ifndef NO_SHA256
 279:..\kronos-c-sdk\src\wolfSSL\wolfcrypt\src/pwdbased.c ****         case SHA256:
 280:..\kronos-c-sdk\src\wolfSSL\wolfcrypt\src/pwdbased.c ****             *v = SHA256_BLOCK_SIZE;
 281:..\kronos-c-sdk\src\wolfSSL\wolfcrypt\src/pwdbased.c ****             *u = SHA256_DIGEST_SIZE;
 282:..\kronos-c-sdk\src\wolfSSL\wolfcrypt\src/pwdbased.c ****             break;
 283:..\kronos-c-sdk\src\wolfSSL\wolfcrypt\src/pwdbased.c **** #endif
ARM GAS  C:\Users\ddemidov\AppData\Local\Temp\ccEU3Cb3.s 			page 20


 284:..\kronos-c-sdk\src\wolfSSL\wolfcrypt\src/pwdbased.c **** #ifdef WOLFSSL_SHA512
 285:..\kronos-c-sdk\src\wolfSSL\wolfcrypt\src/pwdbased.c ****         case SHA512:
 286:..\kronos-c-sdk\src\wolfSSL\wolfcrypt\src/pwdbased.c ****             *v = SHA512_BLOCK_SIZE;
 287:..\kronos-c-sdk\src\wolfSSL\wolfcrypt\src/pwdbased.c ****             *u = SHA512_DIGEST_SIZE;
 288:..\kronos-c-sdk\src\wolfSSL\wolfcrypt\src/pwdbased.c ****             break;
 289:..\kronos-c-sdk\src\wolfSSL\wolfcrypt\src/pwdbased.c **** #endif
 290:..\kronos-c-sdk\src\wolfSSL\wolfcrypt\src/pwdbased.c ****         default:
 291:..\kronos-c-sdk\src\wolfSSL\wolfcrypt\src/pwdbased.c ****             return BAD_FUNC_ARG;
 292:..\kronos-c-sdk\src\wolfSSL\wolfcrypt\src/pwdbased.c ****     }
 293:..\kronos-c-sdk\src\wolfSSL\wolfcrypt\src/pwdbased.c **** 
 294:..\kronos-c-sdk\src\wolfSSL\wolfcrypt\src/pwdbased.c ****     return 0;
 610              		.loc 1 294 0
 611 0026 0020     		mov	r0, #0
 612              	.LVL95:
 276:..\kronos-c-sdk\src\wolfSSL\wolfcrypt\src/pwdbased.c ****             break;
 613              		.loc 1 276 0
 614 0028 0DE0     		b	.L51
 615              	.LVL96:
 616              	.L53:
 280:..\kronos-c-sdk\src\wolfSSL\wolfcrypt\src/pwdbased.c ****             *u = SHA256_DIGEST_SIZE;
 617              		.loc 1 280 0
 618 002a 4023     		mov	r3, #64
 619 002c 0B60     		str	r3, [r1]
 281:..\kronos-c-sdk\src\wolfSSL\wolfcrypt\src/pwdbased.c ****             break;
 620              		.loc 1 281 0
 621 002e 203B     		sub	r3, r3, #32
 622 0030 1360     		str	r3, [r2]
 623              		.loc 1 294 0
 624 0032 0020     		mov	r0, #0
 625              	.LVL97:
 282:..\kronos-c-sdk\src\wolfSSL\wolfcrypt\src/pwdbased.c **** #endif
 626              		.loc 1 282 0
 627 0034 07E0     		b	.L51
 628              	.LVL98:
 629              	.L55:
 263:..\kronos-c-sdk\src\wolfSSL\wolfcrypt\src/pwdbased.c **** 
 630              		.loc 1 263 0
 631 0036 AD20     		mov	r0, #173
 632              	.LVL99:
 633 0038 4042     		neg	r0, r0
 634 003a 04E0     		b	.L51
 635              	.LVL100:
 636              	.L56:
 637 003c AD20     		mov	r0, #173
 638              	.LVL101:
 639 003e 4042     		neg	r0, r0
 640 0040 01E0     		b	.L51
 641              	.LVL102:
 642              	.L58:
 291:..\kronos-c-sdk\src\wolfSSL\wolfcrypt\src/pwdbased.c ****     }
 643              		.loc 1 291 0
 644 0042 AD20     		mov	r0, #173
 645              	.LVL103:
 646 0044 4042     		neg	r0, r0
 647              	.L51:
 295:..\kronos-c-sdk\src\wolfSSL\wolfcrypt\src/pwdbased.c **** }
 648              		.loc 1 295 0
ARM GAS  C:\Users\ddemidov\AppData\Local\Temp\ccEU3Cb3.s 			page 21


 649              		@ sp needed
 650 0046 7047     		bx	lr
 651              		.cfi_endproc
 652              	.LFE16:
 653              		.size	GetPKCS12HashSizes, .-GetPKCS12HashSizes
 654              		.section	.text.DoPKCS12Hash,"ax",%progbits
 655              		.align	2
 656              		.global	DoPKCS12Hash
 657              		.code	16
 658              		.thumb_func
 659              		.type	DoPKCS12Hash, %function
 660              	DoPKCS12Hash:
 661              	.LFB17:
 296:..\kronos-c-sdk\src\wolfSSL\wolfcrypt\src/pwdbased.c **** 
 297:..\kronos-c-sdk\src\wolfSSL\wolfcrypt\src/pwdbased.c **** /* helper for PKCS12_PBKDF(), does hash operation */
 298:..\kronos-c-sdk\src\wolfSSL\wolfcrypt\src/pwdbased.c **** int DoPKCS12Hash(int hashType, byte* buffer, word32 totalLen,
 299:..\kronos-c-sdk\src\wolfSSL\wolfcrypt\src/pwdbased.c ****                  byte* Ai, word32 u, int iterations)
 300:..\kronos-c-sdk\src\wolfSSL\wolfcrypt\src/pwdbased.c **** {
 662              		.loc 1 300 0
 663              		.cfi_startproc
 664              	.LVL104:
 665 0000 F0B5     		push	{r4, r5, r6, r7, lr}
 666              		.cfi_def_cfa_offset 20
 667              		.cfi_offset 4, -20
 668              		.cfi_offset 5, -16
 669              		.cfi_offset 6, -12
 670              		.cfi_offset 7, -8
 671              		.cfi_offset 14, -4
 672 0002 9FB0     		sub	sp, sp, #124
 673              		.cfi_def_cfa_offset 144
 674 0004 259E     		ldr	r6, [sp, #148]
 675              	.LVL105:
 301:..\kronos-c-sdk\src\wolfSSL\wolfcrypt\src/pwdbased.c ****     int i;
 302:..\kronos-c-sdk\src\wolfSSL\wolfcrypt\src/pwdbased.c ****     int ret = 0;
 303:..\kronos-c-sdk\src\wolfSSL\wolfcrypt\src/pwdbased.c **** 
 304:..\kronos-c-sdk\src\wolfSSL\wolfcrypt\src/pwdbased.c ****     if (buffer == NULL || Ai == NULL)
 676              		.loc 1 304 0
 677 0006 0029     		cmp	r1, #0
 678 0008 6CD0     		beq	.L74
 679              		.loc 1 304 0 is_stmt 0 discriminator 1
 680 000a 002B     		cmp	r3, #0
 681 000c 6DD0     		beq	.L75
 682 000e 1C1C     		mov	r4, r3
 683 0010 0192     		str	r2, [sp, #4]
 684 0012 0F1C     		mov	r7, r1
 305:..\kronos-c-sdk\src\wolfSSL\wolfcrypt\src/pwdbased.c ****         return BAD_FUNC_ARG;
 306:..\kronos-c-sdk\src\wolfSSL\wolfcrypt\src/pwdbased.c **** 
 307:..\kronos-c-sdk\src\wolfSSL\wolfcrypt\src/pwdbased.c ****     switch (hashType) {
 685              		.loc 1 307 0 is_stmt 1
 686 0014 0128     		cmp	r0, #1
 687 0016 1FD0     		beq	.L62
 688 0018 0228     		cmp	r0, #2
 689 001a 3AD0     		beq	.L63
 690 001c 0028     		cmp	r0, #0
 691 001e 5DD1     		bne	.L77
 692              	.LBB34:
 308:..\kronos-c-sdk\src\wolfSSL\wolfcrypt\src/pwdbased.c **** #ifndef NO_MD5
ARM GAS  C:\Users\ddemidov\AppData\Local\Temp\ccEU3Cb3.s 			page 22


 309:..\kronos-c-sdk\src\wolfSSL\wolfcrypt\src/pwdbased.c ****         case MD5:
 310:..\kronos-c-sdk\src\wolfSSL\wolfcrypt\src/pwdbased.c ****             {
 311:..\kronos-c-sdk\src\wolfSSL\wolfcrypt\src/pwdbased.c ****                 Md5 md5;
 312:..\kronos-c-sdk\src\wolfSSL\wolfcrypt\src/pwdbased.c ****                 wc_InitMd5(&md5);
 693              		.loc 1 312 0
 694 0020 03A8     		add	r0, sp, #12
 695              	.LVL106:
 696 0022 FFF7FEFF 		bl	wc_InitMd5
 697              	.LVL107:
 313:..\kronos-c-sdk\src\wolfSSL\wolfcrypt\src/pwdbased.c ****                 wc_Md5Update(&md5, buffer, totalLen);
 698              		.loc 1 313 0
 699 0026 03A8     		add	r0, sp, #12
 700 0028 391C     		mov	r1, r7
 701 002a 019A     		ldr	r2, [sp, #4]
 702 002c FFF7FEFF 		bl	wc_Md5Update
 703              	.LVL108:
 314:..\kronos-c-sdk\src\wolfSSL\wolfcrypt\src/pwdbased.c ****                 wc_Md5Final(&md5, Ai);
 704              		.loc 1 314 0
 705 0030 03A8     		add	r0, sp, #12
 706 0032 211C     		mov	r1, r4
 707 0034 FFF7FEFF 		bl	wc_Md5Final
 708              	.LVL109:
 315:..\kronos-c-sdk\src\wolfSSL\wolfcrypt\src/pwdbased.c **** 
 316:..\kronos-c-sdk\src\wolfSSL\wolfcrypt\src/pwdbased.c ****                 for (i = 1; i < iterations; i++) {
 709              		.loc 1 316 0
 710 0038 0125     		mov	r5, #1
 711 003a 09E0     		b	.L65
 712              	.LVL110:
 713              	.L66:
 317:..\kronos-c-sdk\src\wolfSSL\wolfcrypt\src/pwdbased.c ****                     wc_Md5Update(&md5, Ai, u);
 714              		.loc 1 317 0 discriminator 3
 715 003c 03A8     		add	r0, sp, #12
 716 003e 211C     		mov	r1, r4
 717 0040 249A     		ldr	r2, [sp, #144]
 718 0042 FFF7FEFF 		bl	wc_Md5Update
 719              	.LVL111:
 318:..\kronos-c-sdk\src\wolfSSL\wolfcrypt\src/pwdbased.c ****                     wc_Md5Final(&md5, Ai);
 720              		.loc 1 318 0 discriminator 3
 721 0046 03A8     		add	r0, sp, #12
 722 0048 211C     		mov	r1, r4
 723 004a FFF7FEFF 		bl	wc_Md5Final
 724              	.LVL112:
 316:..\kronos-c-sdk\src\wolfSSL\wolfcrypt\src/pwdbased.c ****                     wc_Md5Update(&md5, Ai, u);
 725              		.loc 1 316 0 discriminator 3
 726 004e 0135     		add	r5, r5, #1
 727              	.LVL113:
 728              	.L65:
 316:..\kronos-c-sdk\src\wolfSSL\wolfcrypt\src/pwdbased.c ****                     wc_Md5Update(&md5, Ai, u);
 729              		.loc 1 316 0 is_stmt 0 discriminator 1
 730 0050 B542     		cmp	r5, r6
 731 0052 F3DB     		blt	.L66
 732              	.LBE34:
 302:..\kronos-c-sdk\src\wolfSSL\wolfcrypt\src/pwdbased.c **** 
 733              		.loc 1 302 0 is_stmt 1
 734 0054 0025     		mov	r5, #0
 735              	.LVL114:
 319:..\kronos-c-sdk\src\wolfSSL\wolfcrypt\src/pwdbased.c ****                 }
ARM GAS  C:\Users\ddemidov\AppData\Local\Temp\ccEU3Cb3.s 			page 23


 320:..\kronos-c-sdk\src\wolfSSL\wolfcrypt\src/pwdbased.c ****             }
 321:..\kronos-c-sdk\src\wolfSSL\wolfcrypt\src/pwdbased.c ****             break;
 736              		.loc 1 321 0
 737 0056 43E0     		b	.L61
 738              	.LVL115:
 739              	.L62:
 740              	.LBB35:
 322:..\kronos-c-sdk\src\wolfSSL\wolfcrypt\src/pwdbased.c **** #endif /* NO_MD5 */
 323:..\kronos-c-sdk\src\wolfSSL\wolfcrypt\src/pwdbased.c **** #ifndef NO_SHA
 324:..\kronos-c-sdk\src\wolfSSL\wolfcrypt\src/pwdbased.c ****         case SHA:
 325:..\kronos-c-sdk\src\wolfSSL\wolfcrypt\src/pwdbased.c ****             {
 326:..\kronos-c-sdk\src\wolfSSL\wolfcrypt\src/pwdbased.c ****                 Sha sha;
 327:..\kronos-c-sdk\src\wolfSSL\wolfcrypt\src/pwdbased.c ****                 ret = wc_InitSha(&sha);
 741              		.loc 1 327 0
 742 0058 03A8     		add	r0, sp, #12
 743              	.LVL116:
 744 005a FFF7FEFF 		bl	wc_InitSha
 745              	.LVL117:
 746 005e 051E     		sub	r5, r0, #0
 747              	.LVL118:
 328:..\kronos-c-sdk\src\wolfSSL\wolfcrypt\src/pwdbased.c ****                 if (ret != 0)
 748              		.loc 1 328 0
 749 0060 3ED1     		bne	.L61
 329:..\kronos-c-sdk\src\wolfSSL\wolfcrypt\src/pwdbased.c ****                     break;
 330:..\kronos-c-sdk\src\wolfSSL\wolfcrypt\src/pwdbased.c ****                 wc_ShaUpdate(&sha, buffer, totalLen);
 750              		.loc 1 330 0
 751 0062 03A8     		add	r0, sp, #12
 752              	.LVL119:
 753 0064 391C     		mov	r1, r7
 754 0066 019A     		ldr	r2, [sp, #4]
 755 0068 FFF7FEFF 		bl	wc_ShaUpdate
 756              	.LVL120:
 331:..\kronos-c-sdk\src\wolfSSL\wolfcrypt\src/pwdbased.c ****                 wc_ShaFinal(&sha, Ai);
 757              		.loc 1 331 0
 758 006c 03A8     		add	r0, sp, #12
 759 006e 211C     		mov	r1, r4
 760 0070 FFF7FEFF 		bl	wc_ShaFinal
 761              	.LVL121:
 332:..\kronos-c-sdk\src\wolfSSL\wolfcrypt\src/pwdbased.c **** 
 333:..\kronos-c-sdk\src\wolfSSL\wolfcrypt\src/pwdbased.c ****                 for (i = 1; i < iterations; i++) {
 762              		.loc 1 333 0
 763 0074 0127     		mov	r7, #1
 764              	.LVL122:
 765 0076 09E0     		b	.L68
 766              	.LVL123:
 767              	.L69:
 334:..\kronos-c-sdk\src\wolfSSL\wolfcrypt\src/pwdbased.c ****                     wc_ShaUpdate(&sha, Ai, u);
 768              		.loc 1 334 0 discriminator 3
 769 0078 03A8     		add	r0, sp, #12
 770 007a 211C     		mov	r1, r4
 771 007c 249A     		ldr	r2, [sp, #144]
 772 007e FFF7FEFF 		bl	wc_ShaUpdate
 773              	.LVL124:
 335:..\kronos-c-sdk\src\wolfSSL\wolfcrypt\src/pwdbased.c ****                     wc_ShaFinal(&sha, Ai);
 774              		.loc 1 335 0 discriminator 3
 775 0082 03A8     		add	r0, sp, #12
 776 0084 211C     		mov	r1, r4
ARM GAS  C:\Users\ddemidov\AppData\Local\Temp\ccEU3Cb3.s 			page 24


 777 0086 FFF7FEFF 		bl	wc_ShaFinal
 778              	.LVL125:
 333:..\kronos-c-sdk\src\wolfSSL\wolfcrypt\src/pwdbased.c ****                     wc_ShaUpdate(&sha, Ai, u);
 779              		.loc 1 333 0 discriminator 3
 780 008a 0137     		add	r7, r7, #1
 781              	.LVL126:
 782              	.L68:
 333:..\kronos-c-sdk\src\wolfSSL\wolfcrypt\src/pwdbased.c ****                     wc_ShaUpdate(&sha, Ai, u);
 783              		.loc 1 333 0 is_stmt 0 discriminator 1
 784 008c B742     		cmp	r7, r6
 785 008e F3DB     		blt	.L69
 786 0090 26E0     		b	.L61
 787              	.LVL127:
 788              	.L63:
 789              	.LBE35:
 790              	.LBB36:
 336:..\kronos-c-sdk\src\wolfSSL\wolfcrypt\src/pwdbased.c ****                 }
 337:..\kronos-c-sdk\src\wolfSSL\wolfcrypt\src/pwdbased.c ****             }
 338:..\kronos-c-sdk\src\wolfSSL\wolfcrypt\src/pwdbased.c ****             break;
 339:..\kronos-c-sdk\src\wolfSSL\wolfcrypt\src/pwdbased.c **** #endif /* NO_SHA */
 340:..\kronos-c-sdk\src\wolfSSL\wolfcrypt\src/pwdbased.c **** #ifndef NO_SHA256
 341:..\kronos-c-sdk\src\wolfSSL\wolfcrypt\src/pwdbased.c ****         case SHA256:
 342:..\kronos-c-sdk\src\wolfSSL\wolfcrypt\src/pwdbased.c ****             {
 343:..\kronos-c-sdk\src\wolfSSL\wolfcrypt\src/pwdbased.c ****                 Sha256 sha256;
 344:..\kronos-c-sdk\src\wolfSSL\wolfcrypt\src/pwdbased.c ****                 ret = wc_InitSha256(&sha256);
 791              		.loc 1 344 0 is_stmt 1
 792 0092 03A8     		add	r0, sp, #12
 793              	.LVL128:
 794 0094 FFF7FEFF 		bl	wc_InitSha256
 795              	.LVL129:
 796 0098 051E     		sub	r5, r0, #0
 797              	.LVL130:
 345:..\kronos-c-sdk\src\wolfSSL\wolfcrypt\src/pwdbased.c ****                 if (ret != 0)
 798              		.loc 1 345 0
 799 009a 21D1     		bne	.L61
 346:..\kronos-c-sdk\src\wolfSSL\wolfcrypt\src/pwdbased.c ****                     break;
 347:..\kronos-c-sdk\src\wolfSSL\wolfcrypt\src/pwdbased.c **** 
 348:..\kronos-c-sdk\src\wolfSSL\wolfcrypt\src/pwdbased.c ****                 ret = wc_Sha256Update(&sha256, buffer, totalLen);
 800              		.loc 1 348 0
 801 009c 03A8     		add	r0, sp, #12
 802              	.LVL131:
 803 009e 391C     		mov	r1, r7
 804 00a0 019A     		ldr	r2, [sp, #4]
 805 00a2 FFF7FEFF 		bl	wc_Sha256Update
 806              	.LVL132:
 807 00a6 051E     		sub	r5, r0, #0
 808              	.LVL133:
 349:..\kronos-c-sdk\src\wolfSSL\wolfcrypt\src/pwdbased.c ****                 if (ret != 0)
 809              		.loc 1 349 0
 810 00a8 1AD1     		bne	.L61
 350:..\kronos-c-sdk\src\wolfSSL\wolfcrypt\src/pwdbased.c ****                     break;
 351:..\kronos-c-sdk\src\wolfSSL\wolfcrypt\src/pwdbased.c **** 
 352:..\kronos-c-sdk\src\wolfSSL\wolfcrypt\src/pwdbased.c ****                 ret = wc_Sha256Final(&sha256, Ai);
 811              		.loc 1 352 0
 812 00aa 03A8     		add	r0, sp, #12
 813              	.LVL134:
 814 00ac 211C     		mov	r1, r4
ARM GAS  C:\Users\ddemidov\AppData\Local\Temp\ccEU3Cb3.s 			page 25


 815 00ae FFF7FEFF 		bl	wc_Sha256Final
 816              	.LVL135:
 817 00b2 051E     		sub	r5, r0, #0
 818              	.LVL136:
 353:..\kronos-c-sdk\src\wolfSSL\wolfcrypt\src/pwdbased.c ****                 if (ret != 0)
 819              		.loc 1 353 0
 820 00b4 14D1     		bne	.L61
 821 00b6 0127     		mov	r7, #1
 822              	.LVL137:
 823 00b8 0DE0     		b	.L71
 824              	.LVL138:
 825              	.L73:
 354:..\kronos-c-sdk\src\wolfSSL\wolfcrypt\src/pwdbased.c ****                     break;
 355:..\kronos-c-sdk\src\wolfSSL\wolfcrypt\src/pwdbased.c **** 
 356:..\kronos-c-sdk\src\wolfSSL\wolfcrypt\src/pwdbased.c ****                 for (i = 1; i < iterations; i++) {
 357:..\kronos-c-sdk\src\wolfSSL\wolfcrypt\src/pwdbased.c ****                     ret = wc_Sha256Update(&sha256, Ai, u);
 826              		.loc 1 357 0
 827 00ba 03A8     		add	r0, sp, #12
 828              	.LVL139:
 829 00bc 211C     		mov	r1, r4
 830 00be 249A     		ldr	r2, [sp, #144]
 831 00c0 FFF7FEFF 		bl	wc_Sha256Update
 832              	.LVL140:
 833 00c4 051E     		sub	r5, r0, #0
 834              	.LVL141:
 358:..\kronos-c-sdk\src\wolfSSL\wolfcrypt\src/pwdbased.c ****                     if (ret != 0)
 835              		.loc 1 358 0
 836 00c6 0BD1     		bne	.L61
 359:..\kronos-c-sdk\src\wolfSSL\wolfcrypt\src/pwdbased.c ****                         break;
 360:..\kronos-c-sdk\src\wolfSSL\wolfcrypt\src/pwdbased.c **** 
 361:..\kronos-c-sdk\src\wolfSSL\wolfcrypt\src/pwdbased.c ****                     ret = wc_Sha256Final(&sha256, Ai);
 837              		.loc 1 361 0
 838 00c8 03A8     		add	r0, sp, #12
 839              	.LVL142:
 840 00ca 211C     		mov	r1, r4
 841 00cc FFF7FEFF 		bl	wc_Sha256Final
 842              	.LVL143:
 843 00d0 051E     		sub	r5, r0, #0
 844              	.LVL144:
 362:..\kronos-c-sdk\src\wolfSSL\wolfcrypt\src/pwdbased.c ****                     if (ret != 0)
 845              		.loc 1 362 0
 846 00d2 05D1     		bne	.L61
 356:..\kronos-c-sdk\src\wolfSSL\wolfcrypt\src/pwdbased.c ****                     ret = wc_Sha256Update(&sha256, Ai, u);
 847              		.loc 1 356 0 discriminator 2
 848 00d4 0137     		add	r7, r7, #1
 849              	.LVL145:
 850              	.L71:
 356:..\kronos-c-sdk\src\wolfSSL\wolfcrypt\src/pwdbased.c ****                     ret = wc_Sha256Update(&sha256, Ai, u);
 851              		.loc 1 356 0 is_stmt 0 discriminator 1
 852 00d6 B742     		cmp	r7, r6
 853 00d8 EFDB     		blt	.L73
 854 00da 01E0     		b	.L61
 855              	.LVL146:
 856              	.L77:
 857              	.LBE36:
 363:..\kronos-c-sdk\src\wolfSSL\wolfcrypt\src/pwdbased.c ****                         break;
 364:..\kronos-c-sdk\src\wolfSSL\wolfcrypt\src/pwdbased.c ****                 }
ARM GAS  C:\Users\ddemidov\AppData\Local\Temp\ccEU3Cb3.s 			page 26


 365:..\kronos-c-sdk\src\wolfSSL\wolfcrypt\src/pwdbased.c ****             }
 366:..\kronos-c-sdk\src\wolfSSL\wolfcrypt\src/pwdbased.c ****             break;
 367:..\kronos-c-sdk\src\wolfSSL\wolfcrypt\src/pwdbased.c **** #endif /* NO_SHA256 */
 368:..\kronos-c-sdk\src\wolfSSL\wolfcrypt\src/pwdbased.c **** #ifdef WOLFSSL_SHA512
 369:..\kronos-c-sdk\src\wolfSSL\wolfcrypt\src/pwdbased.c ****         case SHA512:
 370:..\kronos-c-sdk\src\wolfSSL\wolfcrypt\src/pwdbased.c ****             {
 371:..\kronos-c-sdk\src\wolfSSL\wolfcrypt\src/pwdbased.c ****                 Sha512 sha512;
 372:..\kronos-c-sdk\src\wolfSSL\wolfcrypt\src/pwdbased.c ****                 ret = wc_InitSha512(&sha512);
 373:..\kronos-c-sdk\src\wolfSSL\wolfcrypt\src/pwdbased.c ****                 if (ret != 0)
 374:..\kronos-c-sdk\src\wolfSSL\wolfcrypt\src/pwdbased.c ****                     break;
 375:..\kronos-c-sdk\src\wolfSSL\wolfcrypt\src/pwdbased.c **** 
 376:..\kronos-c-sdk\src\wolfSSL\wolfcrypt\src/pwdbased.c ****                 ret = wc_Sha512Update(&sha512, buffer, totalLen);
 377:..\kronos-c-sdk\src\wolfSSL\wolfcrypt\src/pwdbased.c ****                 if (ret != 0)
 378:..\kronos-c-sdk\src\wolfSSL\wolfcrypt\src/pwdbased.c ****                     break;
 379:..\kronos-c-sdk\src\wolfSSL\wolfcrypt\src/pwdbased.c **** 
 380:..\kronos-c-sdk\src\wolfSSL\wolfcrypt\src/pwdbased.c ****                 ret = wc_Sha512Final(&sha512, Ai);
 381:..\kronos-c-sdk\src\wolfSSL\wolfcrypt\src/pwdbased.c ****                 if (ret != 0)
 382:..\kronos-c-sdk\src\wolfSSL\wolfcrypt\src/pwdbased.c ****                     break;
 383:..\kronos-c-sdk\src\wolfSSL\wolfcrypt\src/pwdbased.c **** 
 384:..\kronos-c-sdk\src\wolfSSL\wolfcrypt\src/pwdbased.c ****                 for (i = 1; i < iterations; i++) {
 385:..\kronos-c-sdk\src\wolfSSL\wolfcrypt\src/pwdbased.c ****                     ret = wc_Sha512Update(&sha512, Ai, u);
 386:..\kronos-c-sdk\src\wolfSSL\wolfcrypt\src/pwdbased.c ****                     if (ret != 0)
 387:..\kronos-c-sdk\src\wolfSSL\wolfcrypt\src/pwdbased.c ****                         break;
 388:..\kronos-c-sdk\src\wolfSSL\wolfcrypt\src/pwdbased.c **** 
 389:..\kronos-c-sdk\src\wolfSSL\wolfcrypt\src/pwdbased.c ****                     ret = wc_Sha512Final(&sha512, Ai);
 390:..\kronos-c-sdk\src\wolfSSL\wolfcrypt\src/pwdbased.c ****                     if (ret != 0)
 391:..\kronos-c-sdk\src\wolfSSL\wolfcrypt\src/pwdbased.c ****                         break;
 392:..\kronos-c-sdk\src\wolfSSL\wolfcrypt\src/pwdbased.c ****                 }
 393:..\kronos-c-sdk\src\wolfSSL\wolfcrypt\src/pwdbased.c ****             }
 394:..\kronos-c-sdk\src\wolfSSL\wolfcrypt\src/pwdbased.c ****             break;
 395:..\kronos-c-sdk\src\wolfSSL\wolfcrypt\src/pwdbased.c **** #endif /* WOLFSSL_SHA512 */
 396:..\kronos-c-sdk\src\wolfSSL\wolfcrypt\src/pwdbased.c **** 
 397:..\kronos-c-sdk\src\wolfSSL\wolfcrypt\src/pwdbased.c ****         default:
 398:..\kronos-c-sdk\src\wolfSSL\wolfcrypt\src/pwdbased.c ****             ret = BAD_FUNC_ARG;
 858              		.loc 1 398 0 is_stmt 1
 859 00dc AD25     		mov	r5, #173
 860 00de 6D42     		neg	r5, r5
 861              	.LVL147:
 862              	.L61:
 399:..\kronos-c-sdk\src\wolfSSL\wolfcrypt\src/pwdbased.c ****             break;
 400:..\kronos-c-sdk\src\wolfSSL\wolfcrypt\src/pwdbased.c ****     }
 401:..\kronos-c-sdk\src\wolfSSL\wolfcrypt\src/pwdbased.c **** 
 402:..\kronos-c-sdk\src\wolfSSL\wolfcrypt\src/pwdbased.c ****     return ret;
 863              		.loc 1 402 0
 864 00e0 281C     		mov	r0, r5
 865 00e2 04E0     		b	.L60
 866              	.LVL148:
 867              	.L74:
 305:..\kronos-c-sdk\src\wolfSSL\wolfcrypt\src/pwdbased.c **** 
 868              		.loc 1 305 0
 869 00e4 AD20     		mov	r0, #173
 870              	.LVL149:
 871 00e6 4042     		neg	r0, r0
 872 00e8 01E0     		b	.L60
 873              	.LVL150:
 874              	.L75:
 875 00ea AD20     		mov	r0, #173
ARM GAS  C:\Users\ddemidov\AppData\Local\Temp\ccEU3Cb3.s 			page 27


 876              	.LVL151:
 877 00ec 4042     		neg	r0, r0
 878              	.LVL152:
 879              	.L60:
 403:..\kronos-c-sdk\src\wolfSSL\wolfcrypt\src/pwdbased.c **** }
 880              		.loc 1 403 0
 881 00ee 1FB0     		add	sp, sp, #124
 882              		@ sp needed
 883 00f0 F0BD     		pop	{r4, r5, r6, r7, pc}
 884              		.cfi_endproc
 885              	.LFE17:
 886              		.size	DoPKCS12Hash, .-DoPKCS12Hash
 887              		.global	__aeabi_uidiv
 888              		.global	__aeabi_idivmod
 889              		.global	__aeabi_uidivmod
 890 00f2 C046     		.section	.text.wc_PKCS12_PBKDF,"ax",%progbits
 891              		.align	2
 892              		.global	wc_PKCS12_PBKDF
 893              		.code	16
 894              		.thumb_func
 895              		.type	wc_PKCS12_PBKDF, %function
 896              	wc_PKCS12_PBKDF:
 897              	.LFB18:
 404:..\kronos-c-sdk\src\wolfSSL\wolfcrypt\src/pwdbased.c **** 
 405:..\kronos-c-sdk\src\wolfSSL\wolfcrypt\src/pwdbased.c **** int wc_PKCS12_PBKDF(byte* output, const byte* passwd, int passLen,const byte* salt,
 406:..\kronos-c-sdk\src\wolfSSL\wolfcrypt\src/pwdbased.c ****                  int saltLen, int iterations, int kLen, int hashType, int id)
 407:..\kronos-c-sdk\src\wolfSSL\wolfcrypt\src/pwdbased.c **** {
 898              		.loc 1 407 0
 899              		.cfi_startproc
 900              	.LVL153:
 901 0000 F0B5     		push	{r4, r5, r6, r7, lr}
 902              		.cfi_def_cfa_offset 20
 903              		.cfi_offset 4, -20
 904              		.cfi_offset 5, -16
 905              		.cfi_offset 6, -12
 906              		.cfi_offset 7, -8
 907              		.cfi_offset 14, -4
 908 0002 5F46     		mov	r7, fp
 909 0004 5646     		mov	r6, r10
 910 0006 4D46     		mov	r5, r9
 911 0008 4446     		mov	r4, r8
 912 000a F0B4     		push	{r4, r5, r6, r7}
 913              		.cfi_def_cfa_offset 36
 914              		.cfi_offset 8, -36
 915              		.cfi_offset 9, -32
 916              		.cfi_offset 10, -28
 917              		.cfi_offset 11, -24
 918 000c D14C     		ldr	r4, .L119
 919 000e A544     		add	sp, sp, r4
 920              		.cfi_def_cfa_offset 1416
 921 0010 0690     		str	r0, [sp, #24]
 922 0012 0791     		str	r1, [sp, #28]
 923 0014 0492     		str	r2, [sp, #16]
 924 0016 9846     		mov	r8, r3
 925              	.LVL154:
 408:..\kronos-c-sdk\src\wolfSSL\wolfcrypt\src/pwdbased.c ****     /* all in bytes instead of bits */
 409:..\kronos-c-sdk\src\wolfSSL\wolfcrypt\src/pwdbased.c ****     word32 u, v, dLen, pLen, iLen, sLen, totalLen;
ARM GAS  C:\Users\ddemidov\AppData\Local\Temp\ccEU3Cb3.s 			page 28


 410:..\kronos-c-sdk\src\wolfSSL\wolfcrypt\src/pwdbased.c ****     int    dynamic = 0;
 411:..\kronos-c-sdk\src\wolfSSL\wolfcrypt\src/pwdbased.c ****     int    ret = 0;
 412:..\kronos-c-sdk\src\wolfSSL\wolfcrypt\src/pwdbased.c ****     int    i;
 413:..\kronos-c-sdk\src\wolfSSL\wolfcrypt\src/pwdbased.c ****     byte   *D, *S, *P, *I;
 414:..\kronos-c-sdk\src\wolfSSL\wolfcrypt\src/pwdbased.c **** #ifdef WOLFSSL_SMALL_STACK
 415:..\kronos-c-sdk\src\wolfSSL\wolfcrypt\src/pwdbased.c ****     byte   staticBuffer[1]; /* force dynamic usage */
 416:..\kronos-c-sdk\src\wolfSSL\wolfcrypt\src/pwdbased.c **** #else
 417:..\kronos-c-sdk\src\wolfSSL\wolfcrypt\src/pwdbased.c ****     byte   staticBuffer[1024];
 418:..\kronos-c-sdk\src\wolfSSL\wolfcrypt\src/pwdbased.c **** #endif
 419:..\kronos-c-sdk\src\wolfSSL\wolfcrypt\src/pwdbased.c ****     byte*  buffer = staticBuffer;
 420:..\kronos-c-sdk\src\wolfSSL\wolfcrypt\src/pwdbased.c **** 
 421:..\kronos-c-sdk\src\wolfSSL\wolfcrypt\src/pwdbased.c **** #ifdef WOLFSSL_SMALL_STACK
 422:..\kronos-c-sdk\src\wolfSSL\wolfcrypt\src/pwdbased.c ****     byte*  Ai;
 423:..\kronos-c-sdk\src\wolfSSL\wolfcrypt\src/pwdbased.c ****     byte*  B;
 424:..\kronos-c-sdk\src\wolfSSL\wolfcrypt\src/pwdbased.c **** #else
 425:..\kronos-c-sdk\src\wolfSSL\wolfcrypt\src/pwdbased.c ****     byte   Ai[PBKDF_DIGEST_SIZE];
 426:..\kronos-c-sdk\src\wolfSSL\wolfcrypt\src/pwdbased.c ****     byte   B[PBKDF_DIGEST_SIZE];
 427:..\kronos-c-sdk\src\wolfSSL\wolfcrypt\src/pwdbased.c **** #endif
 428:..\kronos-c-sdk\src\wolfSSL\wolfcrypt\src/pwdbased.c **** 
 429:..\kronos-c-sdk\src\wolfSSL\wolfcrypt\src/pwdbased.c ****     if (!iterations)
 926              		.loc 1 429 0
 927 0018 CF4B     		ldr	r3, .L119+4
 928              	.LVL155:
 929 001a 06AA     		add	r2, sp, #24
 930              	.LVL156:
 931 001c 9446     		mov	ip, r2
 932 001e 6344     		add	r3, r3, ip
 933 0020 1B68     		ldr	r3, [r3]
 934 0022 002B     		cmp	r3, #0
 935 0024 03D1     		bne	.L79
 430:..\kronos-c-sdk\src\wolfSSL\wolfcrypt\src/pwdbased.c ****         iterations = 1;
 936              		.loc 1 430 0
 937 0026 CC4B     		ldr	r3, .L119+4
 938 0028 6344     		add	r3, r3, ip
 939 002a 0122     		mov	r2, #1
 940 002c 1A60     		str	r2, [r3]
 941              	.LVL157:
 942              	.L79:
 431:..\kronos-c-sdk\src\wolfSSL\wolfcrypt\src/pwdbased.c **** 
 432:..\kronos-c-sdk\src\wolfSSL\wolfcrypt\src/pwdbased.c ****     ret = GetPKCS12HashSizes(hashType, &v, &u);
 943              		.loc 1 432 0
 944 002e CB4B     		ldr	r3, .L119+8
 945 0030 06AA     		add	r2, sp, #24
 946 0032 9446     		mov	ip, r2
 947 0034 6344     		add	r3, r3, ip
 948 0036 1868     		ldr	r0, [r3]
 949              	.LVL158:
 950 0038 A821     		mov	r1, #168
 951              	.LVL159:
 952 003a C900     		lsl	r1, r1, #3
 953 003c 6144     		add	r1, r1, ip
 954 003e C84A     		ldr	r2, .L119+12
 955              	.LVL160:
 956 0040 6244     		add	r2, r2, ip
 957 0042 FFF7FEFF 		bl	GetPKCS12HashSizes
 958              	.LVL161:
 959 0046 041E     		sub	r4, r0, #0
ARM GAS  C:\Users\ddemidov\AppData\Local\Temp\ccEU3Cb3.s 			page 29


 960              	.LVL162:
 433:..\kronos-c-sdk\src\wolfSSL\wolfcrypt\src/pwdbased.c ****     if (ret < 0)
 961              		.loc 1 433 0
 962 0048 00DA     		bge	.LCB1166
 963 004a 80E1     		b	.L104	@long jump
 964              	.LCB1166:
 434:..\kronos-c-sdk\src\wolfSSL\wolfcrypt\src/pwdbased.c ****         return BAD_FUNC_ARG;
 435:..\kronos-c-sdk\src\wolfSSL\wolfcrypt\src/pwdbased.c **** 
 436:..\kronos-c-sdk\src\wolfSSL\wolfcrypt\src/pwdbased.c **** #ifdef WOLFSSL_SMALL_STACK
 437:..\kronos-c-sdk\src\wolfSSL\wolfcrypt\src/pwdbased.c ****     Ai = (byte*)XMALLOC(PBKDF_DIGEST_SIZE, NULL, DYNAMIC_TYPE_TMP_BUFFER);
 438:..\kronos-c-sdk\src\wolfSSL\wolfcrypt\src/pwdbased.c ****     if (Ai == NULL)
 439:..\kronos-c-sdk\src\wolfSSL\wolfcrypt\src/pwdbased.c ****         return MEMORY_E;
 440:..\kronos-c-sdk\src\wolfSSL\wolfcrypt\src/pwdbased.c **** 
 441:..\kronos-c-sdk\src\wolfSSL\wolfcrypt\src/pwdbased.c ****     B = (byte*)XMALLOC(PBKDF_DIGEST_SIZE, NULL, DYNAMIC_TYPE_TMP_BUFFER);
 442:..\kronos-c-sdk\src\wolfSSL\wolfcrypt\src/pwdbased.c ****     if (B == NULL) {
 443:..\kronos-c-sdk\src\wolfSSL\wolfcrypt\src/pwdbased.c ****         XFREE(Ai, NULL, DYNAMIC_TYPE_TMP_BUFFER);
 444:..\kronos-c-sdk\src\wolfSSL\wolfcrypt\src/pwdbased.c ****         return MEMORY_E;
 445:..\kronos-c-sdk\src\wolfSSL\wolfcrypt\src/pwdbased.c ****     }
 446:..\kronos-c-sdk\src\wolfSSL\wolfcrypt\src/pwdbased.c **** #endif
 447:..\kronos-c-sdk\src\wolfSSL\wolfcrypt\src/pwdbased.c **** 
 448:..\kronos-c-sdk\src\wolfSSL\wolfcrypt\src/pwdbased.c ****     XMEMSET(Ai, 0, PBKDF_DIGEST_SIZE);
 965              		.loc 1 448 0
 966 004c 46A8     		add	r0, sp, #280
 967              	.LVL163:
 968 004e 0021     		mov	r1, #0
 969 0050 4022     		mov	r2, #64
 970 0052 FFF7FEFF 		bl	memset
 971              	.LVL164:
 449:..\kronos-c-sdk\src\wolfSSL\wolfcrypt\src/pwdbased.c ****     XMEMSET(B,  0, PBKDF_DIGEST_SIZE);
 972              		.loc 1 449 0
 973 0056 36A8     		add	r0, sp, #216
 974 0058 0021     		mov	r1, #0
 975 005a 4022     		mov	r2, #64
 976 005c FFF7FEFF 		bl	memset
 977              	.LVL165:
 450:..\kronos-c-sdk\src\wolfSSL\wolfcrypt\src/pwdbased.c **** 
 451:..\kronos-c-sdk\src\wolfSSL\wolfcrypt\src/pwdbased.c ****     dLen = v;
 978              		.loc 1 451 0
 979 0060 A823     		mov	r3, #168
 980 0062 DB00     		lsl	r3, r3, #3
 981 0064 06AA     		add	r2, sp, #24
 982              	.LVL166:
 983 0066 9446     		mov	ip, r2
 984 0068 6344     		add	r3, r3, ip
 985 006a 1F68     		ldr	r7, [r3]
 986              	.LVL167:
 452:..\kronos-c-sdk\src\wolfSSL\wolfcrypt\src/pwdbased.c ****     sLen =  v * ((saltLen + v - 1) / v);
 987              		.loc 1 452 0
 988 006c AE23     		mov	r3, #174
 989 006e DB00     		lsl	r3, r3, #3
 990 0070 6344     		add	r3, r3, ip
 991 0072 1B68     		ldr	r3, [r3]
 992 0074 F818     		add	r0, r7, r3
 993 0076 0138     		sub	r0, r0, #1
 994 0078 391C     		mov	r1, r7
 995 007a FFF7FEFF 		bl	__aeabi_uidiv
 996              	.LVL168:
ARM GAS  C:\Users\ddemidov\AppData\Local\Temp\ccEU3Cb3.s 			page 30


 997 007e 7843     		mul	r0, r7
 998 0080 8246     		mov	r10, r0
 999              	.LVL169:
 453:..\kronos-c-sdk\src\wolfSSL\wolfcrypt\src/pwdbased.c ****     if (passLen)
 1000              		.loc 1 453 0
 1001 0082 049B     		ldr	r3, [sp, #16]
 1002 0084 002B     		cmp	r3, #0
 1003 0086 07D0     		beq	.L105
 454:..\kronos-c-sdk\src\wolfSSL\wolfcrypt\src/pwdbased.c ****         pLen = v * ((passLen + v - 1) / v);
 1004              		.loc 1 454 0
 1005 0088 F818     		add	r0, r7, r3
 1006              	.LVL170:
 1007 008a 0138     		sub	r0, r0, #1
 1008 008c 391C     		mov	r1, r7
 1009 008e FFF7FEFF 		bl	__aeabi_uidiv
 1010              	.LVL171:
 1011 0092 7843     		mul	r0, r7
 1012 0094 8146     		mov	r9, r0
 1013              	.LVL172:
 1014 0096 01E0     		b	.L81
 1015              	.LVL173:
 1016              	.L105:
 455:..\kronos-c-sdk\src\wolfSSL\wolfcrypt\src/pwdbased.c ****     else
 456:..\kronos-c-sdk\src\wolfSSL\wolfcrypt\src/pwdbased.c ****         pLen = 0;
 1017              		.loc 1 456 0
 1018 0098 0023     		mov	r3, #0
 1019 009a 9946     		mov	r9, r3
 1020              	.LVL174:
 1021              	.L81:
 457:..\kronos-c-sdk\src\wolfSSL\wolfcrypt\src/pwdbased.c ****     iLen = sLen + pLen;
 1022              		.loc 1 457 0
 1023 009c 5646     		mov	r6, r10
 1024 009e 4E44     		add	r6, r6, r9
 1025              	.LVL175:
 458:..\kronos-c-sdk\src\wolfSSL\wolfcrypt\src/pwdbased.c **** 
 459:..\kronos-c-sdk\src\wolfSSL\wolfcrypt\src/pwdbased.c ****     totalLen = dLen + sLen + pLen;
 1026              		.loc 1 459 0
 1027 00a0 5346     		mov	r3, r10
 1028 00a2 FB18     		add	r3, r7, r3
 1029 00a4 4B44     		add	r3, r3, r9
 1030 00a6 1A1C     		mov	r2, r3
 1031 00a8 0393     		str	r3, [sp, #12]
 1032              	.LVL176:
 460:..\kronos-c-sdk\src\wolfSSL\wolfcrypt\src/pwdbased.c **** 
 461:..\kronos-c-sdk\src\wolfSSL\wolfcrypt\src/pwdbased.c ****     if (totalLen > sizeof(staticBuffer)) {
 1033              		.loc 1 461 0
 1034 00aa 8023     		mov	r3, #128
 1035 00ac DB00     		lsl	r3, r3, #3
 1036 00ae 9A42     		cmp	r2, r3
 1037 00b0 09D9     		bls	.L106
 462:..\kronos-c-sdk\src\wolfSSL\wolfcrypt\src/pwdbased.c ****         buffer = (byte*)XMALLOC(totalLen, 0, DYNAMIC_TYPE_KEY);
 1038              		.loc 1 462 0
 1039 00b2 101C     		mov	r0, r2
 1040 00b4 FFF7FEFF 		bl	wolfSSL_Malloc
 1041              	.LVL177:
 1042 00b8 0290     		str	r0, [sp, #8]
 1043              	.LVL178:
ARM GAS  C:\Users\ddemidov\AppData\Local\Temp\ccEU3Cb3.s 			page 31


 463:..\kronos-c-sdk\src\wolfSSL\wolfcrypt\src/pwdbased.c ****         if (buffer == NULL) {
 1044              		.loc 1 463 0
 1045 00ba 0028     		cmp	r0, #0
 1046 00bc 00D1     		bne	.LCB1243
 1047 00be 51E1     		b	.L107	@long jump
 1048              	.LCB1243:
 464:..\kronos-c-sdk\src\wolfSSL\wolfcrypt\src/pwdbased.c **** #ifdef WOLFSSL_SMALL_STACK
 465:..\kronos-c-sdk\src\wolfSSL\wolfcrypt\src/pwdbased.c ****             XFREE(Ai, NULL, DYNAMIC_TYPE_TMP_BUFFER);
 466:..\kronos-c-sdk\src\wolfSSL\wolfcrypt\src/pwdbased.c ****             XFREE(B,  NULL, DYNAMIC_TYPE_TMP_BUFFER);
 467:..\kronos-c-sdk\src\wolfSSL\wolfcrypt\src/pwdbased.c **** #endif
 468:..\kronos-c-sdk\src\wolfSSL\wolfcrypt\src/pwdbased.c ****             return MEMORY_E;
 469:..\kronos-c-sdk\src\wolfSSL\wolfcrypt\src/pwdbased.c ****         }
 470:..\kronos-c-sdk\src\wolfSSL\wolfcrypt\src/pwdbased.c ****         dynamic = 1;
 1049              		.loc 1 470 0
 1050 00c0 0123     		mov	r3, #1
 1051 00c2 0593     		str	r3, [sp, #20]
 1052 00c4 03E0     		b	.L82
 1053              	.LVL179:
 1054              	.L106:
 419:..\kronos-c-sdk\src\wolfSSL\wolfcrypt\src/pwdbased.c **** 
 1055              		.loc 1 419 0
 1056 00c6 56AB     		add	r3, sp, #344
 1057              	.LVL180:
 1058 00c8 0293     		str	r3, [sp, #8]
 410:..\kronos-c-sdk\src\wolfSSL\wolfcrypt\src/pwdbased.c ****     int    ret = 0;
 1059              		.loc 1 410 0
 1060 00ca 0023     		mov	r3, #0
 1061              	.LVL181:
 1062 00cc 0593     		str	r3, [sp, #20]
 1063              	.LVL182:
 1064              	.L82:
 471:..\kronos-c-sdk\src\wolfSSL\wolfcrypt\src/pwdbased.c ****     }
 472:..\kronos-c-sdk\src\wolfSSL\wolfcrypt\src/pwdbased.c **** 
 473:..\kronos-c-sdk\src\wolfSSL\wolfcrypt\src/pwdbased.c ****     D = buffer;
 474:..\kronos-c-sdk\src\wolfSSL\wolfcrypt\src/pwdbased.c ****     S = D + dLen;
 1065              		.loc 1 474 0
 1066 00ce 029B     		ldr	r3, [sp, #8]
 1067 00d0 DD19     		add	r5, r3, r7
 1068              	.LVL183:
 475:..\kronos-c-sdk\src\wolfSSL\wolfcrypt\src/pwdbased.c ****     P = S + sLen;
 476:..\kronos-c-sdk\src\wolfSSL\wolfcrypt\src/pwdbased.c ****     I = S;
 477:..\kronos-c-sdk\src\wolfSSL\wolfcrypt\src/pwdbased.c **** 
 478:..\kronos-c-sdk\src\wolfSSL\wolfcrypt\src/pwdbased.c ****     XMEMSET(D, id, dLen);
 1069              		.loc 1 478 0
 1070 00d2 181C     		mov	r0, r3
 1071 00d4 B023     		mov	r3, #176
 1072 00d6 DB00     		lsl	r3, r3, #3
 1073 00d8 06AA     		add	r2, sp, #24
 1074              	.LVL184:
 1075 00da 9446     		mov	ip, r2
 1076 00dc 6344     		add	r3, r3, ip
 1077 00de 1968     		ldr	r1, [r3]
 1078 00e0 3A1C     		mov	r2, r7
 1079              	.LVL185:
 1080 00e2 FFF7FEFF 		bl	memset
 1081              	.LVL186:
 479:..\kronos-c-sdk\src\wolfSSL\wolfcrypt\src/pwdbased.c **** 
ARM GAS  C:\Users\ddemidov\AppData\Local\Temp\ccEU3Cb3.s 			page 32


 480:..\kronos-c-sdk\src\wolfSSL\wolfcrypt\src/pwdbased.c ****     for (i = 0; i < (int)sLen; i++)
 1082              		.loc 1 480 0
 1083 00e6 0027     		mov	r7, #0
 1084              	.LVL187:
 1085 00e8 B346     		mov	fp, r6
 1086 00ea 2E1C     		mov	r6, r5
 1087              	.LVL188:
 1088 00ec 5546     		mov	r5, r10
 1089              	.LVL189:
 1090 00ee A246     		mov	r10, r4
 1091              	.LVL190:
 1092 00f0 0DE0     		b	.L83
 1093              	.LVL191:
 1094              	.L84:
 481:..\kronos-c-sdk\src\wolfSSL\wolfcrypt\src/pwdbased.c ****         S[i] = salt[i % saltLen];
 1095              		.loc 1 481 0 discriminator 3
 1096 00f2 F419     		add	r4, r6, r7
 1097 00f4 381C     		mov	r0, r7
 1098 00f6 AE23     		mov	r3, #174
 1099 00f8 DB00     		lsl	r3, r3, #3
 1100 00fa 06AA     		add	r2, sp, #24
 1101              	.LVL192:
 1102 00fc 9446     		mov	ip, r2
 1103 00fe 6344     		add	r3, r3, ip
 1104 0100 1968     		ldr	r1, [r3]
 1105 0102 FFF7FEFF 		bl	__aeabi_idivmod
 1106              	.LVL193:
 1107 0106 4346     		mov	r3, r8
 1108 0108 5B5C     		ldrb	r3, [r3, r1]
 1109 010a 2370     		strb	r3, [r4]
 480:..\kronos-c-sdk\src\wolfSSL\wolfcrypt\src/pwdbased.c ****         S[i] = salt[i % saltLen];
 1110              		.loc 1 480 0 discriminator 3
 1111 010c 0137     		add	r7, r7, #1
 1112              	.LVL194:
 1113              	.L83:
 480:..\kronos-c-sdk\src\wolfSSL\wolfcrypt\src/pwdbased.c ****         S[i] = salt[i % saltLen];
 1114              		.loc 1 480 0 is_stmt 0 discriminator 1
 1115 010e BD42     		cmp	r5, r7
 1116 0110 EFDC     		bgt	.L84
 1117 0112 5446     		mov	r4, r10
 1118 0114 AA46     		mov	r10, r5
 1119              	.LVL195:
 1120 0116 351C     		mov	r5, r6
 1121              	.LVL196:
 1122 0118 0027     		mov	r7, #0
 1123              	.LVL197:
 1124 011a 5646     		mov	r6, r10
 1125              	.LVL198:
 1126 011c A246     		mov	r10, r4
 1127              	.LVL199:
 1128 011e A846     		mov	r8, r5
 1129              	.LVL200:
 1130 0120 4D46     		mov	r5, r9
 1131              	.LVL201:
 1132 0122 079B     		ldr	r3, [sp, #28]
 1133 0124 9946     		mov	r9, r3
 1134              	.LVL202:
ARM GAS  C:\Users\ddemidov\AppData\Local\Temp\ccEU3Cb3.s 			page 33


 1135 0126 09E0     		b	.L85
 1136              	.LVL203:
 1137              	.L86:
 1138 0128 BC19     		add	r4, r7, r6
 482:..\kronos-c-sdk\src\wolfSSL\wolfcrypt\src/pwdbased.c ****     for (i = 0; i < (int)pLen; i++)
 483:..\kronos-c-sdk\src\wolfSSL\wolfcrypt\src/pwdbased.c ****         P[i] = passwd[i % passLen];
 1139              		.loc 1 483 0 is_stmt 1 discriminator 3
 1140 012a 4444     		add	r4, r4, r8
 1141 012c 381C     		mov	r0, r7
 1142 012e 0499     		ldr	r1, [sp, #16]
 1143 0130 FFF7FEFF 		bl	__aeabi_idivmod
 1144              	.LVL204:
 1145 0134 4B46     		mov	r3, r9
 1146 0136 5B5C     		ldrb	r3, [r3, r1]
 1147 0138 2370     		strb	r3, [r4]
 482:..\kronos-c-sdk\src\wolfSSL\wolfcrypt\src/pwdbased.c ****     for (i = 0; i < (int)pLen; i++)
 1148              		.loc 1 482 0 discriminator 3
 1149 013a 0137     		add	r7, r7, #1
 1150              	.LVL205:
 1151              	.L85:
 482:..\kronos-c-sdk\src\wolfSSL\wolfcrypt\src/pwdbased.c ****     for (i = 0; i < (int)pLen; i++)
 1152              		.loc 1 482 0 is_stmt 0 discriminator 1
 1153 013c BD42     		cmp	r5, r7
 1154 013e F3DC     		bgt	.L86
 1155 0140 5446     		mov	r4, r10
 1156 0142 5E46     		mov	r6, fp
 1157              	.LVL206:
 1158 0144 4546     		mov	r5, r8
 1159              	.LVL207:
 1160 0146 069B     		ldr	r3, [sp, #24]
 1161 0148 9946     		mov	r9, r3
 1162 014a 834B     		ldr	r3, .L119+4
 1163 014c 06AA     		add	r2, sp, #24
 1164              	.LVL208:
 1165 014e 9446     		mov	ip, r2
 1166 0150 6344     		add	r3, r3, ip
 1167 0152 1B68     		ldr	r3, [r3]
 1168 0154 9A46     		mov	r10, r3
 1169              	.LVL209:
 1170 0156 AF23     		mov	r3, #175
 1171 0158 DB00     		lsl	r3, r3, #3
 1172 015a 6344     		add	r3, r3, ip
 1173 015c 1B68     		ldr	r3, [r3]
 1174 015e 9846     		mov	r8, r3
 1175              	.LVL210:
 1176 0160 E6E0     		b	.L87
 1177              	.LVL211:
 1178              	.L101:
 1179              	.LBB37:
 484:..\kronos-c-sdk\src\wolfSSL\wolfcrypt\src/pwdbased.c **** 
 485:..\kronos-c-sdk\src\wolfSSL\wolfcrypt\src/pwdbased.c ****     while (kLen > 0) {
 486:..\kronos-c-sdk\src\wolfSSL\wolfcrypt\src/pwdbased.c ****         word32 currentLen;
 487:..\kronos-c-sdk\src\wolfSSL\wolfcrypt\src/pwdbased.c ****         mp_int B1;
 488:..\kronos-c-sdk\src\wolfSSL\wolfcrypt\src/pwdbased.c **** 
 489:..\kronos-c-sdk\src\wolfSSL\wolfcrypt\src/pwdbased.c ****         ret = DoPKCS12Hash(hashType, buffer, totalLen, Ai, u, iterations);
 1180              		.loc 1 489 0 is_stmt 1
 1181 0162 7F4B     		ldr	r3, .L119+12
ARM GAS  C:\Users\ddemidov\AppData\Local\Temp\ccEU3Cb3.s 			page 34


 1182              	.LVL212:
 1183 0164 06AA     		add	r2, sp, #24
 1184 0166 9446     		mov	ip, r2
 1185 0168 6344     		add	r3, r3, ip
 1186 016a 1B68     		ldr	r3, [r3]
 1187 016c 0093     		str	r3, [sp]
 1188 016e 5346     		mov	r3, r10
 1189 0170 0193     		str	r3, [sp, #4]
 1190 0172 7A4B     		ldr	r3, .L119+8
 1191 0174 6344     		add	r3, r3, ip
 1192 0176 1868     		ldr	r0, [r3]
 1193 0178 0299     		ldr	r1, [sp, #8]
 1194 017a 039A     		ldr	r2, [sp, #12]
 1195 017c 46AB     		add	r3, sp, #280
 1196 017e FFF7FEFF 		bl	DoPKCS12Hash
 1197              	.LVL213:
 1198 0182 041E     		sub	r4, r0, #0
 1199              	.LVL214:
 490:..\kronos-c-sdk\src\wolfSSL\wolfcrypt\src/pwdbased.c ****         if (ret < 0)
 1200              		.loc 1 490 0
 1201 0184 00DA     		bge	.LCB1449
 1202 0186 D7E0     		b	.L100	@long jump
 1203              	.LCB1449:
 1204 0188 0027     		mov	r7, #0
 1205 018a 0CE0     		b	.L89
 1206              	.LVL215:
 1207              	.L90:
 491:..\kronos-c-sdk\src\wolfSSL\wolfcrypt\src/pwdbased.c ****             break;
 492:..\kronos-c-sdk\src\wolfSSL\wolfcrypt\src/pwdbased.c **** 
 493:..\kronos-c-sdk\src\wolfSSL\wolfcrypt\src/pwdbased.c ****         for (i = 0; i < (int)v; i++)
 494:..\kronos-c-sdk\src\wolfSSL\wolfcrypt\src/pwdbased.c ****             B[i] = Ai[i % u];
 1208              		.loc 1 494 0 discriminator 3
 1209 018c 381C     		mov	r0, r7
 1210 018e 744B     		ldr	r3, .L119+12
 1211 0190 06AA     		add	r2, sp, #24
 1212 0192 9446     		mov	ip, r2
 1213 0194 6344     		add	r3, r3, ip
 1214 0196 1968     		ldr	r1, [r3]
 1215 0198 FFF7FEFF 		bl	__aeabi_uidivmod
 1216              	.LVL216:
 1217 019c 46AB     		add	r3, sp, #280
 1218 019e 5A5C     		ldrb	r2, [r3, r1]
 1219 01a0 36AB     		add	r3, sp, #216
 1220 01a2 DA55     		strb	r2, [r3, r7]
 493:..\kronos-c-sdk\src\wolfSSL\wolfcrypt\src/pwdbased.c ****             B[i] = Ai[i % u];
 1221              		.loc 1 493 0 discriminator 3
 1222 01a4 0137     		add	r7, r7, #1
 1223              	.LVL217:
 1224              	.L89:
 493:..\kronos-c-sdk\src\wolfSSL\wolfcrypt\src/pwdbased.c ****             B[i] = Ai[i % u];
 1225              		.loc 1 493 0 is_stmt 0 discriminator 1
 1226 01a6 A823     		mov	r3, #168
 1227 01a8 DB00     		lsl	r3, r3, #3
 1228 01aa 06AA     		add	r2, sp, #24
 1229 01ac 9446     		mov	ip, r2
 1230 01ae 6344     		add	r3, r3, ip
 1231 01b0 1B68     		ldr	r3, [r3]
ARM GAS  C:\Users\ddemidov\AppData\Local\Temp\ccEU3Cb3.s 			page 35


 1232 01b2 BB42     		cmp	r3, r7
 1233 01b4 EADC     		bgt	.L90
 495:..\kronos-c-sdk\src\wolfSSL\wolfcrypt\src/pwdbased.c **** 
 496:..\kronos-c-sdk\src\wolfSSL\wolfcrypt\src/pwdbased.c ****         if (mp_init(&B1) != MP_OKAY)
 1234              		.loc 1 496 0 is_stmt 1
 1235 01b6 09A8     		add	r0, sp, #36
 1236 01b8 FFF7FEFF 		bl	mp_init
 1237              	.LVL218:
 1238 01bc 0028     		cmp	r0, #0
 1239 01be 13D1     		bne	.L108
 497:..\kronos-c-sdk\src\wolfSSL\wolfcrypt\src/pwdbased.c ****             ret = MP_INIT_E;
 498:..\kronos-c-sdk\src\wolfSSL\wolfcrypt\src/pwdbased.c ****         else if (mp_read_unsigned_bin(&B1, B, v) != MP_OKAY)
 1240              		.loc 1 498 0
 1241 01c0 09A8     		add	r0, sp, #36
 1242 01c2 36A9     		add	r1, sp, #216
 1243 01c4 A823     		mov	r3, #168
 1244 01c6 DB00     		lsl	r3, r3, #3
 1245 01c8 06AA     		add	r2, sp, #24
 1246 01ca 9446     		mov	ip, r2
 1247 01cc 6344     		add	r3, r3, ip
 1248 01ce 1A68     		ldr	r2, [r3]
 1249 01d0 FFF7FEFF 		bl	mp_read_unsigned_bin
 1250              	.LVL219:
 1251 01d4 0028     		cmp	r0, #0
 1252 01d6 0AD1     		bne	.L109
 499:..\kronos-c-sdk\src\wolfSSL\wolfcrypt\src/pwdbased.c ****             ret = MP_READ_E;
 500:..\kronos-c-sdk\src\wolfSSL\wolfcrypt\src/pwdbased.c ****         else if (mp_add_d(&B1, (mp_digit)1, &B1) != MP_OKAY)
 1253              		.loc 1 500 0
 1254 01d8 09A8     		add	r0, sp, #36
 1255 01da 0121     		mov	r1, #1
 1256 01dc 021C     		mov	r2, r0
 1257 01de FFF7FEFF 		bl	mp_add_d
 1258              	.LVL220:
 1259 01e2 0028     		cmp	r0, #0
 1260 01e4 06D1     		bne	.L110
 1261 01e6 07E0     		b	.L91
 1262              	.L108:
 497:..\kronos-c-sdk\src\wolfSSL\wolfcrypt\src/pwdbased.c ****             ret = MP_INIT_E;
 1263              		.loc 1 497 0
 1264 01e8 6E24     		mov	r4, #110
 1265              	.LVL221:
 1266 01ea 6442     		neg	r4, r4
 1267 01ec 04E0     		b	.L91
 1268              	.LVL222:
 1269              	.L109:
 499:..\kronos-c-sdk\src\wolfSSL\wolfcrypt\src/pwdbased.c ****             ret = MP_READ_E;
 1270              		.loc 1 499 0
 1271 01ee 6F24     		mov	r4, #111
 1272              	.LVL223:
 1273 01f0 6442     		neg	r4, r4
 1274 01f2 01E0     		b	.L91
 1275              	.LVL224:
 1276              	.L110:
 501:..\kronos-c-sdk\src\wolfSSL\wolfcrypt\src/pwdbased.c ****             ret = MP_ADD_E;
 1277              		.loc 1 501 0
 1278 01f4 7324     		mov	r4, #115
 1279              	.LVL225:
ARM GAS  C:\Users\ddemidov\AppData\Local\Temp\ccEU3Cb3.s 			page 36


 1280 01f6 6442     		neg	r4, r4
 1281              	.L91:
 1282              	.LVL226:
 502:..\kronos-c-sdk\src\wolfSSL\wolfcrypt\src/pwdbased.c **** 
 503:..\kronos-c-sdk\src\wolfSSL\wolfcrypt\src/pwdbased.c ****         if (ret != 0) {
 1283              		.loc 1 503 0
 1284 01f8 002C     		cmp	r4, #0
 1285 01fa 7CD0     		beq	.L111
 504:..\kronos-c-sdk\src\wolfSSL\wolfcrypt\src/pwdbased.c ****             mp_clear(&B1);
 1286              		.loc 1 504 0
 1287 01fc 09A8     		add	r0, sp, #36
 1288 01fe FFF7FEFF 		bl	mp_clear
 1289              	.LVL227:
 505:..\kronos-c-sdk\src\wolfSSL\wolfcrypt\src/pwdbased.c ****             break;
 1290              		.loc 1 505 0
 1291 0202 99E0     		b	.L100
 1292              	.LVL228:
 1293              	.L98:
 1294              	.LBB38:
 506:..\kronos-c-sdk\src\wolfSSL\wolfcrypt\src/pwdbased.c ****         }
 507:..\kronos-c-sdk\src\wolfSSL\wolfcrypt\src/pwdbased.c **** 
 508:..\kronos-c-sdk\src\wolfSSL\wolfcrypt\src/pwdbased.c ****         for (i = 0; i < (int)iLen; i += v) {
 509:..\kronos-c-sdk\src\wolfSSL\wolfcrypt\src/pwdbased.c ****             int    outSz;
 510:..\kronos-c-sdk\src\wolfSSL\wolfcrypt\src/pwdbased.c ****             mp_int i1;
 511:..\kronos-c-sdk\src\wolfSSL\wolfcrypt\src/pwdbased.c ****             mp_int res;
 512:..\kronos-c-sdk\src\wolfSSL\wolfcrypt\src/pwdbased.c **** 
 513:..\kronos-c-sdk\src\wolfSSL\wolfcrypt\src/pwdbased.c ****             if (mp_init_multi(&i1, &res, NULL, NULL, NULL, NULL) != MP_OKAY) {
 1295              		.loc 1 513 0
 1296 0204 0023     		mov	r3, #0
 1297 0206 0093     		str	r3, [sp]
 1298 0208 0193     		str	r3, [sp, #4]
 1299 020a 0DA8     		add	r0, sp, #52
 1300 020c 11A9     		add	r1, sp, #68
 1301 020e 0022     		mov	r2, #0
 1302 0210 FFF7FEFF 		bl	mp_init_multi
 1303              	.LVL229:
 1304 0214 0028     		cmp	r0, #0
 1305 0216 6BD1     		bne	.L112
 514:..\kronos-c-sdk\src\wolfSSL\wolfcrypt\src/pwdbased.c ****                 ret = MP_INIT_E;
 515:..\kronos-c-sdk\src\wolfSSL\wolfcrypt\src/pwdbased.c ****                 break;
 516:..\kronos-c-sdk\src\wolfSSL\wolfcrypt\src/pwdbased.c ****             }
 517:..\kronos-c-sdk\src\wolfSSL\wolfcrypt\src/pwdbased.c ****             if (mp_read_unsigned_bin(&i1, I + i, v) != MP_OKAY)
 1306              		.loc 1 517 0
 1307 0218 3C1C     		mov	r4, r7
 1308 021a EF19     		add	r7, r5, r7
 1309              	.LVL230:
 1310 021c 0DA8     		add	r0, sp, #52
 1311 021e 391C     		mov	r1, r7
 1312 0220 A823     		mov	r3, #168
 1313 0222 DB00     		lsl	r3, r3, #3
 1314 0224 06AA     		add	r2, sp, #24
 1315 0226 9446     		mov	ip, r2
 1316 0228 6344     		add	r3, r3, ip
 1317 022a 1A68     		ldr	r2, [r3]
 1318 022c FFF7FEFF 		bl	mp_read_unsigned_bin
 1319              	.LVL231:
 1320 0230 0028     		cmp	r0, #0
ARM GAS  C:\Users\ddemidov\AppData\Local\Temp\ccEU3Cb3.s 			page 37


 1321 0232 41D1     		bne	.L113
 518:..\kronos-c-sdk\src\wolfSSL\wolfcrypt\src/pwdbased.c ****                 ret = MP_READ_E;
 519:..\kronos-c-sdk\src\wolfSSL\wolfcrypt\src/pwdbased.c ****             else if (mp_add(&i1, &B1, &res) != MP_OKAY)
 1322              		.loc 1 519 0
 1323 0234 0DA8     		add	r0, sp, #52
 1324 0236 09A9     		add	r1, sp, #36
 1325 0238 11AA     		add	r2, sp, #68
 1326 023a FFF7FEFF 		bl	mp_add
 1327              	.LVL232:
 1328 023e 0028     		cmp	r0, #0
 1329 0240 3ED1     		bne	.L114
 520:..\kronos-c-sdk\src\wolfSSL\wolfcrypt\src/pwdbased.c ****                 ret = MP_ADD_E;
 521:..\kronos-c-sdk\src\wolfSSL\wolfcrypt\src/pwdbased.c ****             else if ( (outSz = mp_unsigned_bin_size(&res)) < 0)
 1330              		.loc 1 521 0
 1331 0242 11A8     		add	r0, sp, #68
 1332 0244 FFF7FEFF 		bl	mp_unsigned_bin_size
 1333              	.LVL233:
 1334 0248 8346     		mov	fp, r0
 1335              	.LVL234:
 1336 024a 0028     		cmp	r0, #0
 1337 024c 3CDB     		blt	.L115
 522:..\kronos-c-sdk\src\wolfSSL\wolfcrypt\src/pwdbased.c ****                 ret = MP_TO_E;
 523:..\kronos-c-sdk\src\wolfSSL\wolfcrypt\src/pwdbased.c ****             else {
 524:..\kronos-c-sdk\src\wolfSSL\wolfcrypt\src/pwdbased.c ****                 if (outSz > (int)v) {
 1338              		.loc 1 524 0
 1339 024e A823     		mov	r3, #168
 1340 0250 DB00     		lsl	r3, r3, #3
 1341 0252 06AA     		add	r2, sp, #24
 1342 0254 9446     		mov	ip, r2
 1343 0256 6344     		add	r3, r3, ip
 1344 0258 1A68     		ldr	r2, [r3]
 1345 025a 8242     		cmp	r2, r0
 1346 025c 10DA     		bge	.L95
 1347              	.LBB39:
 525:..\kronos-c-sdk\src\wolfSSL\wolfcrypt\src/pwdbased.c ****                     /* take off MSB */
 526:..\kronos-c-sdk\src\wolfSSL\wolfcrypt\src/pwdbased.c ****                     byte  tmp[129];
 527:..\kronos-c-sdk\src\wolfSSL\wolfcrypt\src/pwdbased.c ****                     ret = mp_to_unsigned_bin(&res, tmp);
 1348              		.loc 1 527 0
 1349 025e 11A8     		add	r0, sp, #68
 1350              	.LVL235:
 1351 0260 15A9     		add	r1, sp, #84
 1352 0262 FFF7FEFF 		bl	mp_to_unsigned_bin
 1353              	.LVL236:
 1354 0266 8346     		mov	fp, r0
 1355              	.LVL237:
 528:..\kronos-c-sdk\src\wolfSSL\wolfcrypt\src/pwdbased.c ****                     XMEMCPY(I + i, tmp + 1, v);
 1356              		.loc 1 528 0
 1357 0268 381C     		mov	r0, r7
 1358              	.LVL238:
 1359 026a 3D21     		mov	r1, #61
 1360 026c 06AB     		add	r3, sp, #24
 1361 026e 9C46     		mov	ip, r3
 1362 0270 6144     		add	r1, r1, ip
 1363 0272 A823     		mov	r3, #168
 1364 0274 DB00     		lsl	r3, r3, #3
 1365 0276 6344     		add	r3, r3, ip
 1366 0278 1A68     		ldr	r2, [r3]
ARM GAS  C:\Users\ddemidov\AppData\Local\Temp\ccEU3Cb3.s 			page 38


 1367 027a FFF7FEFF 		bl	memcpy
 1368              	.LVL239:
 1369              	.LBE39:
 1370 027e 26E0     		b	.L94
 1371              	.LVL240:
 1372              	.L95:
 529:..\kronos-c-sdk\src\wolfSSL\wolfcrypt\src/pwdbased.c ****                 }
 530:..\kronos-c-sdk\src\wolfSSL\wolfcrypt\src/pwdbased.c ****                 else if (outSz < (int)v) {
 1373              		.loc 1 530 0
 1374 0280 9042     		cmp	r0, r2
 1375 0282 13DA     		bge	.L96
 531:..\kronos-c-sdk\src\wolfSSL\wolfcrypt\src/pwdbased.c ****                     XMEMSET(I + i, 0, v - outSz);
 1376              		.loc 1 531 0
 1377 0284 121A     		sub	r2, r2, r0
 1378 0286 381C     		mov	r0, r7
 1379              	.LVL241:
 1380 0288 0021     		mov	r1, #0
 1381 028a FFF7FEFF 		bl	memset
 1382              	.LVL242:
 532:..\kronos-c-sdk\src\wolfSSL\wolfcrypt\src/pwdbased.c ****                     ret = mp_to_unsigned_bin(&res, I + i + v - outSz);
 1383              		.loc 1 532 0
 1384 028e A823     		mov	r3, #168
 1385 0290 DB00     		lsl	r3, r3, #3
 1386 0292 06AA     		add	r2, sp, #24
 1387 0294 9446     		mov	ip, r2
 1388 0296 6344     		add	r3, r3, ip
 1389 0298 1B68     		ldr	r3, [r3]
 1390 029a E118     		add	r1, r4, r3
 1391 029c 5B46     		mov	r3, fp
 1392 029e C91A     		sub	r1, r1, r3
 1393 02a0 6918     		add	r1, r5, r1
 1394 02a2 11A8     		add	r0, sp, #68
 1395 02a4 FFF7FEFF 		bl	mp_to_unsigned_bin
 1396              	.LVL243:
 1397 02a8 8346     		mov	fp, r0
 1398              	.LVL244:
 1399 02aa 10E0     		b	.L94
 1400              	.LVL245:
 1401              	.L96:
 533:..\kronos-c-sdk\src\wolfSSL\wolfcrypt\src/pwdbased.c ****                 }
 534:..\kronos-c-sdk\src\wolfSSL\wolfcrypt\src/pwdbased.c ****                 else
 535:..\kronos-c-sdk\src\wolfSSL\wolfcrypt\src/pwdbased.c ****                     ret = mp_to_unsigned_bin(&res, I + i);
 1402              		.loc 1 535 0
 1403 02ac 11A8     		add	r0, sp, #68
 1404              	.LVL246:
 1405 02ae 391C     		mov	r1, r7
 1406 02b0 FFF7FEFF 		bl	mp_to_unsigned_bin
 1407              	.LVL247:
 1408 02b4 8346     		mov	fp, r0
 1409              	.LVL248:
 1410 02b6 0AE0     		b	.L94
 1411              	.LVL249:
 1412              	.L113:
 518:..\kronos-c-sdk\src\wolfSSL\wolfcrypt\src/pwdbased.c ****             else if (mp_add(&i1, &B1, &res) != MP_OKAY)
 1413              		.loc 1 518 0
 1414 02b8 6F23     		mov	r3, #111
 1415 02ba 5B42     		neg	r3, r3
ARM GAS  C:\Users\ddemidov\AppData\Local\Temp\ccEU3Cb3.s 			page 39


 1416 02bc 9B46     		mov	fp, r3
 1417              	.LVL250:
 1418 02be 06E0     		b	.L94
 1419              	.LVL251:
 1420              	.L114:
 520:..\kronos-c-sdk\src\wolfSSL\wolfcrypt\src/pwdbased.c ****             else if ( (outSz = mp_unsigned_bin_size(&res)) < 0)
 1421              		.loc 1 520 0
 1422 02c0 7323     		mov	r3, #115
 1423 02c2 5B42     		neg	r3, r3
 1424 02c4 9B46     		mov	fp, r3
 1425              	.LVL252:
 1426 02c6 02E0     		b	.L94
 1427              	.LVL253:
 1428              	.L115:
 522:..\kronos-c-sdk\src\wolfSSL\wolfcrypt\src/pwdbased.c ****             else {
 1429              		.loc 1 522 0
 1430 02c8 7123     		mov	r3, #113
 1431 02ca 5B42     		neg	r3, r3
 1432 02cc 9B46     		mov	fp, r3
 1433              	.LVL254:
 1434              	.L94:
 536:..\kronos-c-sdk\src\wolfSSL\wolfcrypt\src/pwdbased.c ****             }
 537:..\kronos-c-sdk\src\wolfSSL\wolfcrypt\src/pwdbased.c **** 
 538:..\kronos-c-sdk\src\wolfSSL\wolfcrypt\src/pwdbased.c ****             mp_clear(&i1);
 1435              		.loc 1 538 0
 1436 02ce 0DA8     		add	r0, sp, #52
 1437 02d0 FFF7FEFF 		bl	mp_clear
 1438              	.LVL255:
 539:..\kronos-c-sdk\src\wolfSSL\wolfcrypt\src/pwdbased.c ****             mp_clear(&res);
 1439              		.loc 1 539 0
 1440 02d4 11A8     		add	r0, sp, #68
 1441 02d6 FFF7FEFF 		bl	mp_clear
 1442              	.LVL256:
 540:..\kronos-c-sdk\src\wolfSSL\wolfcrypt\src/pwdbased.c ****             if (ret < 0) break;
 1443              		.loc 1 540 0
 1444 02da 5B46     		mov	r3, fp
 1445 02dc 002B     		cmp	r3, #0
 1446 02de 10DB     		blt	.L118
 1447              	.LBE38:
 508:..\kronos-c-sdk\src\wolfSSL\wolfcrypt\src/pwdbased.c ****             int    outSz;
 1448              		.loc 1 508 0
 1449 02e0 A823     		mov	r3, #168
 1450 02e2 DB00     		lsl	r3, r3, #3
 1451 02e4 06AA     		add	r2, sp, #24
 1452 02e6 9446     		mov	ip, r2
 1453 02e8 6344     		add	r3, r3, ip
 1454 02ea 1B68     		ldr	r3, [r3]
 1455 02ec E718     		add	r7, r4, r3
 1456              	.LVL257:
 1457 02ee 04E0     		b	.L92
 1458              	.L112:
 1459              	.LBB40:
 514:..\kronos-c-sdk\src\wolfSSL\wolfcrypt\src/pwdbased.c ****                 break;
 1460              		.loc 1 514 0
 1461 02f0 6E24     		mov	r4, #110
 1462 02f2 6442     		neg	r4, r4
 1463              	.LVL258:
ARM GAS  C:\Users\ddemidov\AppData\Local\Temp\ccEU3Cb3.s 			page 40


 1464 02f4 06E0     		b	.L97
 1465              	.LVL259:
 1466              	.L111:
 1467              	.LBE40:
 1468 02f6 0027     		mov	r7, #0
 1469              	.LVL260:
 1470 02f8 A346     		mov	fp, r4
 1471              	.LVL261:
 1472              	.L92:
 508:..\kronos-c-sdk\src\wolfSSL\wolfcrypt\src/pwdbased.c ****             int    outSz;
 1473              		.loc 1 508 0 discriminator 1
 1474 02fa BE42     		cmp	r6, r7
 1475 02fc 82DC     		bgt	.L98
 1476 02fe 5C46     		mov	r4, fp
 1477 0300 00E0     		b	.L97
 1478              	.LVL262:
 1479              	.L118:
 1480 0302 5C46     		mov	r4, fp
 1481              	.LVL263:
 1482              	.L97:
 541:..\kronos-c-sdk\src\wolfSSL\wolfcrypt\src/pwdbased.c ****         }
 542:..\kronos-c-sdk\src\wolfSSL\wolfcrypt\src/pwdbased.c **** 
 543:..\kronos-c-sdk\src\wolfSSL\wolfcrypt\src/pwdbased.c ****         currentLen = min(kLen, (int)u);
 1483              		.loc 1 543 0
 1484 0304 C346     		mov	fp, r8
 1485 0306 164B     		ldr	r3, .L119+12
 1486 0308 06AA     		add	r2, sp, #24
 1487 030a 9446     		mov	ip, r2
 1488 030c 6344     		add	r3, r3, ip
 1489 030e 1B68     		ldr	r3, [r3]
 1490              	.LVL264:
 1491              	.LBB41:
 1492              	.LBB42:
  66:..\kronos-c-sdk\src\wolfSSL\wolfcrypt\src/pwdbased.c ****     }
 1493              		.loc 1 66 0
 1494 0310 4746     		mov	r7, r8
 1495 0312 9845     		cmp	r8, r3
 1496 0314 00D9     		bls	.L116
 1497              	.LVL265:
 1498 0316 1F1C     		mov	r7, r3
 1499              	.LVL266:
 1500              	.L116:
 1501              	.LBE42:
 1502              	.LBE41:
 544:..\kronos-c-sdk\src\wolfSSL\wolfcrypt\src/pwdbased.c ****         XMEMCPY(output, Ai, currentLen);
 1503              		.loc 1 544 0
 1504 0318 4846     		mov	r0, r9
 1505 031a 46A9     		add	r1, sp, #280
 1506 031c 3A1C     		mov	r2, r7
 1507 031e FFF7FEFF 		bl	memcpy
 1508              	.LVL267:
 545:..\kronos-c-sdk\src\wolfSSL\wolfcrypt\src/pwdbased.c ****         output += currentLen;
 1509              		.loc 1 545 0
 1510 0322 B944     		add	r9, r9, r7
 1511              	.LVL268:
 546:..\kronos-c-sdk\src\wolfSSL\wolfcrypt\src/pwdbased.c ****         kLen   -= currentLen;
 1512              		.loc 1 546 0
ARM GAS  C:\Users\ddemidov\AppData\Local\Temp\ccEU3Cb3.s 			page 41


 1513 0324 5B46     		mov	r3, fp
 1514 0326 DB1B     		sub	r3, r3, r7
 1515 0328 9846     		mov	r8, r3
 1516              	.LVL269:
 547:..\kronos-c-sdk\src\wolfSSL\wolfcrypt\src/pwdbased.c ****         mp_clear(&B1);
 1517              		.loc 1 547 0
 1518 032a 09A8     		add	r0, sp, #36
 1519 032c FFF7FEFF 		bl	mp_clear
 1520              	.LVL270:
 1521              	.L87:
 1522              	.LBE37:
 485:..\kronos-c-sdk\src\wolfSSL\wolfcrypt\src/pwdbased.c ****         word32 currentLen;
 1523              		.loc 1 485 0
 1524 0330 4346     		mov	r3, r8
 1525 0332 002B     		cmp	r3, #0
 1526 0334 00DD     		ble	.LCB1828
 1527 0336 14E7     		b	.L101	@long jump
 1528              	.LCB1828:
 1529              	.L100:
 548:..\kronos-c-sdk\src\wolfSSL\wolfcrypt\src/pwdbased.c ****     }
 549:..\kronos-c-sdk\src\wolfSSL\wolfcrypt\src/pwdbased.c **** 
 550:..\kronos-c-sdk\src\wolfSSL\wolfcrypt\src/pwdbased.c ****     if (dynamic) XFREE(buffer, 0, DYNAMIC_TYPE_KEY);
 1530              		.loc 1 550 0
 1531 0338 059B     		ldr	r3, [sp, #20]
 1532 033a 002B     		cmp	r3, #0
 1533 033c 05D0     		beq	.L102
 1534              	.LVL271:
 1535              	.LBB43:
 1536              		.loc 1 550 0 is_stmt 0 discriminator 1
 1537 033e 029B     		ldr	r3, [sp, #8]
 1538 0340 002B     		cmp	r3, #0
 1539 0342 02D0     		beq	.L102
 1540              		.loc 1 550 0 discriminator 2
 1541 0344 181C     		mov	r0, r3
 1542 0346 FFF7FEFF 		bl	wolfSSL_Free
 1543              	.LVL272:
 1544              	.L102:
 1545              	.LBE43:
 551:..\kronos-c-sdk\src\wolfSSL\wolfcrypt\src/pwdbased.c **** 
 552:..\kronos-c-sdk\src\wolfSSL\wolfcrypt\src/pwdbased.c **** #ifdef WOLFSSL_SMALL_STACK
 553:..\kronos-c-sdk\src\wolfSSL\wolfcrypt\src/pwdbased.c ****     XFREE(Ai, NULL, DYNAMIC_TYPE_TMP_BUFFER);
 554:..\kronos-c-sdk\src\wolfSSL\wolfcrypt\src/pwdbased.c ****     XFREE(B,  NULL, DYNAMIC_TYPE_TMP_BUFFER);
 555:..\kronos-c-sdk\src\wolfSSL\wolfcrypt\src/pwdbased.c **** #endif
 556:..\kronos-c-sdk\src\wolfSSL\wolfcrypt\src/pwdbased.c **** 
 557:..\kronos-c-sdk\src\wolfSSL\wolfcrypt\src/pwdbased.c ****     return ret;
 1546              		.loc 1 557 0 is_stmt 1
 1547 034a 201C     		mov	r0, r4
 1548 034c 0CE0     		b	.L80
 1549              	.LVL273:
 1550              	.L104:
 434:..\kronos-c-sdk\src\wolfSSL\wolfcrypt\src/pwdbased.c **** 
 1551              		.loc 1 434 0
 1552 034e AD20     		mov	r0, #173
 1553              	.LVL274:
 1554 0350 4042     		neg	r0, r0
 1555 0352 09E0     		b	.L80
 1556              	.L120:
ARM GAS  C:\Users\ddemidov\AppData\Local\Temp\ccEU3Cb3.s 			page 42


 1557              		.align	2
 1558              	.L119:
 1559 0354 9CFAFFFF 		.word	-1380
 1560 0358 74050000 		.word	1396
 1561 035c 7C050000 		.word	1404
 1562 0360 44050000 		.word	1348
 1563              	.LVL275:
 1564              	.L107:
 468:..\kronos-c-sdk\src\wolfSSL\wolfcrypt\src/pwdbased.c ****         }
 1565              		.loc 1 468 0
 1566 0364 7D20     		mov	r0, #125
 1567              	.LVL276:
 1568 0366 4042     		neg	r0, r0
 1569              	.LVL277:
 1570              	.L80:
 558:..\kronos-c-sdk\src\wolfSSL\wolfcrypt\src/pwdbased.c **** }
 1571              		.loc 1 558 0
 1572 0368 034B     		ldr	r3, .L121
 1573 036a 9D44     		add	sp, sp, r3
 1574              		@ sp needed
 1575              	.LVL278:
 1576 036c 3CBC     		pop	{r2, r3, r4, r5}
 1577 036e 9046     		mov	r8, r2
 1578 0370 9946     		mov	r9, r3
 1579 0372 A246     		mov	r10, r4
 1580 0374 AB46     		mov	fp, r5
 1581 0376 F0BD     		pop	{r4, r5, r6, r7, pc}
 1582              	.L122:
 1583              		.align	2
 1584              	.L121:
 1585 0378 64050000 		.word	1380
 1586              		.cfi_endproc
 1587              	.LFE18:
 1588              		.size	wc_PKCS12_PBKDF, .-wc_PKCS12_PBKDF
 1589              		.text
 1590              	.Letext0:
 1591              		.file 3 "..\\kronos-c-sdk\\src\\wolfSSL/wolfssl/wolfcrypt/types.h"
 1592              		.file 4 "c:\\program files (x86)\\cypress\\psoc creator\\3.3\\psoc creator\\import\\gnu\\arm\\4.9.
 1593              		.file 5 "..\\kronos-c-sdk\\src\\wolfSSL/wolfssl/wolfcrypt/md5.h"
 1594              		.file 6 "..\\kronos-c-sdk\\src\\wolfSSL/wolfssl/wolfcrypt/sha.h"
 1595              		.file 7 "..\\kronos-c-sdk\\src\\wolfSSL/wolfssl/wolfcrypt/sha256.h"
 1596              		.file 8 "..\\kronos-c-sdk\\src\\wolfSSL/wolfssl/wolfcrypt/hmac.h"
 1597              		.file 9 "..\\kronos-c-sdk\\src\\wolfSSL/wolfssl/wolfcrypt/integer.h"
 1598              		.file 10 "..\\kronos-c-sdk\\src\\wolfSSL/wolfssl/wolfcrypt/error-crypt.h"
 1599              		.file 11 "..\\kronos-c-sdk\\src\\wolfSSL/wolfssl/wolfcrypt/memory.h"
 1600              		.file 12 "c:\\program files (x86)\\cypress\\psoc creator\\3.3\\psoc creator\\import\\gnu\\arm\\4.9