ARM GAS  C:\Users\ddemidov\AppData\Local\Temp\ccxqLn2e.s 			page 1


   1              		.cpu cortex-m0
   2              		.fpu softvfp
   3              		.eabi_attribute 20, 1
   4              		.eabi_attribute 21, 1
   5              		.eabi_attribute 23, 3
   6              		.eabi_attribute 24, 1
   7              		.eabi_attribute 25, 1
   8              		.eabi_attribute 26, 1
   9              		.eabi_attribute 30, 1
  10              		.eabi_attribute 34, 0
  11              		.eabi_attribute 18, 4
  12              		.code	16
  13              		.file	"rabbit.c"
  14              		.text
  15              	.Ltext0:
  16              		.cfi_sections	.debug_frame
  17              		.section	.text.RABBIT_g_func,"ax",%progbits
  18              		.align	2
  19              		.code	16
  20              		.thumb_func
  21              		.type	RABBIT_g_func, %function
  22              	RABBIT_g_func:
  23              	.LFB12:
  24              		.file 1 "..\\kronos-c-sdk\\src\\wolfSSL\\wolfcrypt\\src\\rabbit.c"
   1:..\kronos-c-sdk\src\wolfSSL\wolfcrypt\src/rabbit.c **** /* rabbit.c
   2:..\kronos-c-sdk\src\wolfSSL\wolfcrypt\src/rabbit.c ****  *
   3:..\kronos-c-sdk\src\wolfSSL\wolfcrypt\src/rabbit.c ****  * Copyright (C) 2006-2016 wolfSSL Inc.
   4:..\kronos-c-sdk\src\wolfSSL\wolfcrypt\src/rabbit.c ****  *
   5:..\kronos-c-sdk\src\wolfSSL\wolfcrypt\src/rabbit.c ****  * This file is part of wolfSSL.
   6:..\kronos-c-sdk\src\wolfSSL\wolfcrypt\src/rabbit.c ****  *
   7:..\kronos-c-sdk\src\wolfSSL\wolfcrypt\src/rabbit.c ****  * wolfSSL is free software; you can redistribute it and/or modify
   8:..\kronos-c-sdk\src\wolfSSL\wolfcrypt\src/rabbit.c ****  * it under the terms of the GNU General Public License as published by
   9:..\kronos-c-sdk\src\wolfSSL\wolfcrypt\src/rabbit.c ****  * the Free Software Foundation; either version 2 of the License, or
  10:..\kronos-c-sdk\src\wolfSSL\wolfcrypt\src/rabbit.c ****  * (at your option) any later version.
  11:..\kronos-c-sdk\src\wolfSSL\wolfcrypt\src/rabbit.c ****  *
  12:..\kronos-c-sdk\src\wolfSSL\wolfcrypt\src/rabbit.c ****  * wolfSSL is distributed in the hope that it will be useful,
  13:..\kronos-c-sdk\src\wolfSSL\wolfcrypt\src/rabbit.c ****  * but WITHOUT ANY WARRANTY; without even the implied warranty of
  14:..\kronos-c-sdk\src\wolfSSL\wolfcrypt\src/rabbit.c ****  * MERCHANTABILITY or FITNESS FOR A PARTICULAR PURPOSE.  See the
  15:..\kronos-c-sdk\src\wolfSSL\wolfcrypt\src/rabbit.c ****  * GNU General Public License for more details.
  16:..\kronos-c-sdk\src\wolfSSL\wolfcrypt\src/rabbit.c ****  *
  17:..\kronos-c-sdk\src\wolfSSL\wolfcrypt\src/rabbit.c ****  * You should have received a copy of the GNU General Public License
  18:..\kronos-c-sdk\src\wolfSSL\wolfcrypt\src/rabbit.c ****  * along with this program; if not, write to the Free Software
  19:..\kronos-c-sdk\src\wolfSSL\wolfcrypt\src/rabbit.c ****  * Foundation, Inc., 51 Franklin Street, Fifth Floor, Boston, MA 02110-1335, USA
  20:..\kronos-c-sdk\src\wolfSSL\wolfcrypt\src/rabbit.c ****  */
  21:..\kronos-c-sdk\src\wolfSSL\wolfcrypt\src/rabbit.c **** 
  22:..\kronos-c-sdk\src\wolfSSL\wolfcrypt\src/rabbit.c **** 
  23:..\kronos-c-sdk\src\wolfSSL\wolfcrypt\src/rabbit.c **** #ifdef HAVE_CONFIG_H
  24:..\kronos-c-sdk\src\wolfSSL\wolfcrypt\src/rabbit.c ****     #include <config.h>
  25:..\kronos-c-sdk\src\wolfSSL\wolfcrypt\src/rabbit.c **** #endif
  26:..\kronos-c-sdk\src\wolfSSL\wolfcrypt\src/rabbit.c **** 
  27:..\kronos-c-sdk\src\wolfSSL\wolfcrypt\src/rabbit.c **** #include <wolfssl/wolfcrypt/settings.h>
  28:..\kronos-c-sdk\src\wolfSSL\wolfcrypt\src/rabbit.c **** 
  29:..\kronos-c-sdk\src\wolfSSL\wolfcrypt\src/rabbit.c **** #ifndef NO_RABBIT
  30:..\kronos-c-sdk\src\wolfSSL\wolfcrypt\src/rabbit.c **** 
  31:..\kronos-c-sdk\src\wolfSSL\wolfcrypt\src/rabbit.c **** #include <wolfssl/wolfcrypt/rabbit.h>
  32:..\kronos-c-sdk\src\wolfSSL\wolfcrypt\src/rabbit.c **** #include <wolfssl/wolfcrypt/error-crypt.h>
  33:..\kronos-c-sdk\src\wolfSSL\wolfcrypt\src/rabbit.c **** #include <wolfssl/wolfcrypt/logging.h>
ARM GAS  C:\Users\ddemidov\AppData\Local\Temp\ccxqLn2e.s 			page 2


  34:..\kronos-c-sdk\src\wolfSSL\wolfcrypt\src/rabbit.c **** #ifdef NO_INLINE
  35:..\kronos-c-sdk\src\wolfSSL\wolfcrypt\src/rabbit.c ****     #include <wolfssl/wolfcrypt/misc.h>
  36:..\kronos-c-sdk\src\wolfSSL\wolfcrypt\src/rabbit.c **** #else
  37:..\kronos-c-sdk\src\wolfSSL\wolfcrypt\src/rabbit.c ****     #include <wolfcrypt/src/misc.c>
  38:..\kronos-c-sdk\src\wolfSSL\wolfcrypt\src/rabbit.c **** #endif
  39:..\kronos-c-sdk\src\wolfSSL\wolfcrypt\src/rabbit.c **** 
  40:..\kronos-c-sdk\src\wolfSSL\wolfcrypt\src/rabbit.c **** 
  41:..\kronos-c-sdk\src\wolfSSL\wolfcrypt\src/rabbit.c **** #ifdef BIG_ENDIAN_ORDER
  42:..\kronos-c-sdk\src\wolfSSL\wolfcrypt\src/rabbit.c ****     #define LITTLE32(x) ByteReverseWord32(x)
  43:..\kronos-c-sdk\src\wolfSSL\wolfcrypt\src/rabbit.c **** #else
  44:..\kronos-c-sdk\src\wolfSSL\wolfcrypt\src/rabbit.c ****     #define LITTLE32(x) (x)
  45:..\kronos-c-sdk\src\wolfSSL\wolfcrypt\src/rabbit.c **** #endif
  46:..\kronos-c-sdk\src\wolfSSL\wolfcrypt\src/rabbit.c **** 
  47:..\kronos-c-sdk\src\wolfSSL\wolfcrypt\src/rabbit.c **** #define U32V(x) ((word32)(x) & 0xFFFFFFFFU)
  48:..\kronos-c-sdk\src\wolfSSL\wolfcrypt\src/rabbit.c **** 
  49:..\kronos-c-sdk\src\wolfSSL\wolfcrypt\src/rabbit.c **** 
  50:..\kronos-c-sdk\src\wolfSSL\wolfcrypt\src/rabbit.c **** /* Square a 32-bit unsigned integer to obtain the 64-bit result and return */
  51:..\kronos-c-sdk\src\wolfSSL\wolfcrypt\src/rabbit.c **** /* the upper 32 bits XOR the lower 32 bits */
  52:..\kronos-c-sdk\src\wolfSSL\wolfcrypt\src/rabbit.c **** static word32 RABBIT_g_func(word32 x)
  53:..\kronos-c-sdk\src\wolfSSL\wolfcrypt\src/rabbit.c **** {
  25              		.loc 1 53 0
  26              		.cfi_startproc
  27              	.LVL0:
  54:..\kronos-c-sdk\src\wolfSSL\wolfcrypt\src/rabbit.c ****     /* Temporary variables */
  55:..\kronos-c-sdk\src\wolfSSL\wolfcrypt\src/rabbit.c ****     word32 a, b, h, l;
  56:..\kronos-c-sdk\src\wolfSSL\wolfcrypt\src/rabbit.c **** 
  57:..\kronos-c-sdk\src\wolfSSL\wolfcrypt\src/rabbit.c ****     /* Construct high and low argument for squaring */
  58:..\kronos-c-sdk\src\wolfSSL\wolfcrypt\src/rabbit.c ****     a = x&0xFFFF;
  28              		.loc 1 58 0
  29 0000 0304     		lsl	r3, r0, #16
  30 0002 1B0C     		lsr	r3, r3, #16
  31              	.LVL1:
  59:..\kronos-c-sdk\src\wolfSSL\wolfcrypt\src/rabbit.c ****     b = x>>16;
  32              		.loc 1 59 0
  33 0004 020C     		lsr	r2, r0, #16
  34              	.LVL2:
  60:..\kronos-c-sdk\src\wolfSSL\wolfcrypt\src/rabbit.c **** 
  61:..\kronos-c-sdk\src\wolfSSL\wolfcrypt\src/rabbit.c ****     /* Calculate high and low result of squaring */
  62:..\kronos-c-sdk\src\wolfSSL\wolfcrypt\src/rabbit.c ****     h = (((U32V(a*a)>>17) + U32V(a*b))>>15) + b*b;
  35              		.loc 1 62 0
  36 0006 191C     		mov	r1, r3
  37 0008 5943     		mul	r1, r3
  38 000a 490C     		lsr	r1, r1, #17
  39 000c 5343     		mul	r3, r2
  40              	.LVL3:
  41 000e CB18     		add	r3, r1, r3
  42 0010 DB0B     		lsr	r3, r3, #15
  43 0012 5243     		mul	r2, r2
  44              	.LVL4:
  45 0014 9B18     		add	r3, r3, r2
  46              	.LVL5:
  63:..\kronos-c-sdk\src\wolfSSL\wolfcrypt\src/rabbit.c ****     l = x*x;
  47              		.loc 1 63 0
  48 0016 4043     		mul	r0, r0
  49              	.LVL6:
  64:..\kronos-c-sdk\src\wolfSSL\wolfcrypt\src/rabbit.c **** 
  65:..\kronos-c-sdk\src\wolfSSL\wolfcrypt\src/rabbit.c ****     /* Return high XOR low */
ARM GAS  C:\Users\ddemidov\AppData\Local\Temp\ccxqLn2e.s 			page 3


  66:..\kronos-c-sdk\src\wolfSSL\wolfcrypt\src/rabbit.c ****     return U32V(h^l);
  50              		.loc 1 66 0
  51 0018 5840     		eor	r0, r3
  52              	.LVL7:
  67:..\kronos-c-sdk\src\wolfSSL\wolfcrypt\src/rabbit.c **** }
  53              		.loc 1 67 0
  54              		@ sp needed
  55 001a 7047     		bx	lr
  56              		.cfi_endproc
  57              	.LFE12:
  58              		.size	RABBIT_g_func, .-RABBIT_g_func
  59              		.section	.text.RABBIT_next_state,"ax",%progbits
  60              		.align	2
  61              		.code	16
  62              		.thumb_func
  63              		.type	RABBIT_next_state, %function
  64              	RABBIT_next_state:
  65              	.LFB13:
  68:..\kronos-c-sdk\src\wolfSSL\wolfcrypt\src/rabbit.c **** 
  69:..\kronos-c-sdk\src\wolfSSL\wolfcrypt\src/rabbit.c **** 
  70:..\kronos-c-sdk\src\wolfSSL\wolfcrypt\src/rabbit.c **** /* Calculate the next internal state */
  71:..\kronos-c-sdk\src\wolfSSL\wolfcrypt\src/rabbit.c **** static void RABBIT_next_state(RabbitCtx* ctx)
  72:..\kronos-c-sdk\src\wolfSSL\wolfcrypt\src/rabbit.c **** {
  66              		.loc 1 72 0
  67              		.cfi_startproc
  68              	.LVL8:
  69 0000 F0B5     		push	{r4, r5, r6, r7, lr}
  70              		.cfi_def_cfa_offset 20
  71              		.cfi_offset 4, -20
  72              		.cfi_offset 5, -16
  73              		.cfi_offset 6, -12
  74              		.cfi_offset 7, -8
  75              		.cfi_offset 14, -4
  76 0002 93B0     		sub	sp, sp, #76
  77              		.cfi_def_cfa_offset 96
  78 0004 041C     		mov	r4, r0
  79              	.LVL9:
  73:..\kronos-c-sdk\src\wolfSSL\wolfcrypt\src/rabbit.c ****     /* Temporary variables */
  74:..\kronos-c-sdk\src\wolfSSL\wolfcrypt\src/rabbit.c ****     word32 g[8], c_old[8], i;
  75:..\kronos-c-sdk\src\wolfSSL\wolfcrypt\src/rabbit.c **** 
  76:..\kronos-c-sdk\src\wolfSSL\wolfcrypt\src/rabbit.c ****     /* Save old counter values */
  77:..\kronos-c-sdk\src\wolfSSL\wolfcrypt\src/rabbit.c ****     for (i=0; i<8; i++)
  80              		.loc 1 77 0
  81 0006 0023     		mov	r3, #0
  82 0008 07E0     		b	.L3
  83              	.LVL10:
  84              	.L4:
  78:..\kronos-c-sdk\src\wolfSSL\wolfcrypt\src/rabbit.c ****         c_old[i] = ctx->c[i];
  85              		.loc 1 78 0 discriminator 3
  86 000a 1A1C     		mov	r2, r3
  87 000c 0832     		add	r2, r2, #8
  88 000e 9200     		lsl	r2, r2, #2
  89 0010 1159     		ldr	r1, [r2, r4]
  90 0012 9A00     		lsl	r2, r3, #2
  91 0014 02A8     		add	r0, sp, #8
  92 0016 1150     		str	r1, [r2, r0]
  77:..\kronos-c-sdk\src\wolfSSL\wolfcrypt\src/rabbit.c ****         c_old[i] = ctx->c[i];
ARM GAS  C:\Users\ddemidov\AppData\Local\Temp\ccxqLn2e.s 			page 4


  93              		.loc 1 77 0 discriminator 3
  94 0018 0133     		add	r3, r3, #1
  95              	.LVL11:
  96              	.L3:
  77:..\kronos-c-sdk\src\wolfSSL\wolfcrypt\src/rabbit.c ****         c_old[i] = ctx->c[i];
  97              		.loc 1 77 0 is_stmt 0 discriminator 1
  98 001a 072B     		cmp	r3, #7
  99 001c F5D9     		bls	.L4
  79:..\kronos-c-sdk\src\wolfSSL\wolfcrypt\src/rabbit.c **** 
  80:..\kronos-c-sdk\src\wolfSSL\wolfcrypt\src/rabbit.c ****     /* Calculate new counter values */
  81:..\kronos-c-sdk\src\wolfSSL\wolfcrypt\src/rabbit.c ****     ctx->c[0] = U32V(ctx->c[0] + 0x4D34D34D + ctx->carry);
 100              		.loc 1 81 0 is_stmt 1
 101 001e 236A     		ldr	r3, [r4, #32]
 102              	.LVL12:
 103 0020 226C     		ldr	r2, [r4, #64]
 104 0022 9446     		mov	ip, r2
 105 0024 6344     		add	r3, r3, ip
 106 0026 514A     		ldr	r2, .L7
 107 0028 9446     		mov	ip, r2
 108 002a 6344     		add	r3, r3, ip
 109 002c 2362     		str	r3, [r4, #32]
  82:..\kronos-c-sdk\src\wolfSSL\wolfcrypt\src/rabbit.c ****     ctx->c[1] = U32V(ctx->c[1] + 0xD34D34D3 + (ctx->c[0] < c_old[0]));
 110              		.loc 1 82 0
 111 002e 029A     		ldr	r2, [sp, #8]
 112 0030 9342     		cmp	r3, r2
 113 0032 9B41     		sbc	r3, r3, r3
 114 0034 5B42     		neg	r3, r3
 115 0036 626A     		ldr	r2, [r4, #36]
 116 0038 9446     		mov	ip, r2
 117 003a 6344     		add	r3, r3, ip
 118 003c 4C4A     		ldr	r2, .L7+4
 119 003e 9446     		mov	ip, r2
 120 0040 6344     		add	r3, r3, ip
 121 0042 6362     		str	r3, [r4, #36]
  83:..\kronos-c-sdk\src\wolfSSL\wolfcrypt\src/rabbit.c ****     ctx->c[2] = U32V(ctx->c[2] + 0x34D34D34 + (ctx->c[1] < c_old[1]));
 122              		.loc 1 83 0
 123 0044 039A     		ldr	r2, [sp, #12]
 124 0046 9342     		cmp	r3, r2
 125 0048 9B41     		sbc	r3, r3, r3
 126 004a 5B42     		neg	r3, r3
 127 004c A26A     		ldr	r2, [r4, #40]
 128 004e 9446     		mov	ip, r2
 129 0050 6344     		add	r3, r3, ip
 130 0052 484A     		ldr	r2, .L7+8
 131 0054 9446     		mov	ip, r2
 132 0056 6344     		add	r3, r3, ip
 133 0058 A362     		str	r3, [r4, #40]
  84:..\kronos-c-sdk\src\wolfSSL\wolfcrypt\src/rabbit.c ****     ctx->c[3] = U32V(ctx->c[3] + 0x4D34D34D + (ctx->c[2] < c_old[2]));
 134              		.loc 1 84 0
 135 005a 049A     		ldr	r2, [sp, #16]
 136 005c 9342     		cmp	r3, r2
 137 005e 9B41     		sbc	r3, r3, r3
 138 0060 5B42     		neg	r3, r3
 139 0062 E26A     		ldr	r2, [r4, #44]
 140 0064 9446     		mov	ip, r2
 141 0066 6344     		add	r3, r3, ip
 142 0068 404A     		ldr	r2, .L7
ARM GAS  C:\Users\ddemidov\AppData\Local\Temp\ccxqLn2e.s 			page 5


 143 006a 9446     		mov	ip, r2
 144 006c 6344     		add	r3, r3, ip
 145 006e E362     		str	r3, [r4, #44]
  85:..\kronos-c-sdk\src\wolfSSL\wolfcrypt\src/rabbit.c ****     ctx->c[4] = U32V(ctx->c[4] + 0xD34D34D3 + (ctx->c[3] < c_old[3]));
 146              		.loc 1 85 0
 147 0070 059A     		ldr	r2, [sp, #20]
 148 0072 9342     		cmp	r3, r2
 149 0074 9B41     		sbc	r3, r3, r3
 150 0076 5B42     		neg	r3, r3
 151 0078 226B     		ldr	r2, [r4, #48]
 152 007a 9446     		mov	ip, r2
 153 007c 6344     		add	r3, r3, ip
 154 007e 3C4A     		ldr	r2, .L7+4
 155 0080 9446     		mov	ip, r2
 156 0082 6344     		add	r3, r3, ip
 157 0084 2363     		str	r3, [r4, #48]
  86:..\kronos-c-sdk\src\wolfSSL\wolfcrypt\src/rabbit.c ****     ctx->c[5] = U32V(ctx->c[5] + 0x34D34D34 + (ctx->c[4] < c_old[4]));
 158              		.loc 1 86 0
 159 0086 069A     		ldr	r2, [sp, #24]
 160 0088 9342     		cmp	r3, r2
 161 008a 9B41     		sbc	r3, r3, r3
 162 008c 5B42     		neg	r3, r3
 163 008e 626B     		ldr	r2, [r4, #52]
 164 0090 9446     		mov	ip, r2
 165 0092 6344     		add	r3, r3, ip
 166 0094 374A     		ldr	r2, .L7+8
 167 0096 9446     		mov	ip, r2
 168 0098 6344     		add	r3, r3, ip
 169 009a 6363     		str	r3, [r4, #52]
  87:..\kronos-c-sdk\src\wolfSSL\wolfcrypt\src/rabbit.c ****     ctx->c[6] = U32V(ctx->c[6] + 0x4D34D34D + (ctx->c[5] < c_old[5]));
 170              		.loc 1 87 0
 171 009c 079A     		ldr	r2, [sp, #28]
 172 009e 9342     		cmp	r3, r2
 173 00a0 9B41     		sbc	r3, r3, r3
 174 00a2 5B42     		neg	r3, r3
 175 00a4 A26B     		ldr	r2, [r4, #56]
 176 00a6 9446     		mov	ip, r2
 177 00a8 6344     		add	r3, r3, ip
 178 00aa 304A     		ldr	r2, .L7
 179 00ac 9446     		mov	ip, r2
 180 00ae 6344     		add	r3, r3, ip
 181 00b0 A363     		str	r3, [r4, #56]
  88:..\kronos-c-sdk\src\wolfSSL\wolfcrypt\src/rabbit.c ****     ctx->c[7] = U32V(ctx->c[7] + 0xD34D34D3 + (ctx->c[6] < c_old[6]));
 182              		.loc 1 88 0
 183 00b2 089A     		ldr	r2, [sp, #32]
 184 00b4 0192     		str	r2, [sp, #4]
 185 00b6 9342     		cmp	r3, r2
 186 00b8 9B41     		sbc	r3, r3, r3
 187 00ba 5B42     		neg	r3, r3
 188 00bc E26B     		ldr	r2, [r4, #60]
 189 00be 9446     		mov	ip, r2
 190 00c0 6344     		add	r3, r3, ip
 191 00c2 2B4A     		ldr	r2, .L7+4
 192 00c4 9446     		mov	ip, r2
 193 00c6 6344     		add	r3, r3, ip
 194 00c8 E363     		str	r3, [r4, #60]
  89:..\kronos-c-sdk\src\wolfSSL\wolfcrypt\src/rabbit.c ****     ctx->carry = (ctx->c[7] < c_old[7]);
ARM GAS  C:\Users\ddemidov\AppData\Local\Temp\ccxqLn2e.s 			page 6


 195              		.loc 1 89 0
 196 00ca 099A     		ldr	r2, [sp, #36]
 197 00cc 9342     		cmp	r3, r2
 198 00ce 9B41     		sbc	r3, r3, r3
 199 00d0 5B42     		neg	r3, r3
 200 00d2 2364     		str	r3, [r4, #64]
 201              	.LVL13:
  90:..\kronos-c-sdk\src\wolfSSL\wolfcrypt\src/rabbit.c ****    
  91:..\kronos-c-sdk\src\wolfSSL\wolfcrypt\src/rabbit.c ****     /* Calculate the g-values */
  92:..\kronos-c-sdk\src\wolfSSL\wolfcrypt\src/rabbit.c ****     for (i=0;i<8;i++)
 202              		.loc 1 92 0
 203 00d4 0025     		mov	r5, #0
 204 00d6 0CE0     		b	.L5
 205              	.LVL14:
 206              	.L6:
  93:..\kronos-c-sdk\src\wolfSSL\wolfcrypt\src/rabbit.c ****         g[i] = RABBIT_g_func(U32V(ctx->x[i] + ctx->c[i]));
 207              		.loc 1 93 0 discriminator 3
 208 00d8 AE00     		lsl	r6, r5, #2
 209 00da 2B1C     		mov	r3, r5
 210 00dc 0833     		add	r3, r3, #8
 211 00de 9B00     		lsl	r3, r3, #2
 212 00e0 1859     		ldr	r0, [r3, r4]
 213 00e2 3359     		ldr	r3, [r6, r4]
 214 00e4 9C46     		mov	ip, r3
 215 00e6 6044     		add	r0, r0, ip
 216 00e8 FFF7FEFF 		bl	RABBIT_g_func
 217              	.LVL15:
 218 00ec 0AAB     		add	r3, sp, #40
 219 00ee F050     		str	r0, [r6, r3]
  92:..\kronos-c-sdk\src\wolfSSL\wolfcrypt\src/rabbit.c ****         g[i] = RABBIT_g_func(U32V(ctx->x[i] + ctx->c[i]));
 220              		.loc 1 92 0 discriminator 3
 221 00f0 0135     		add	r5, r5, #1
 222              	.LVL16:
 223              	.L5:
  92:..\kronos-c-sdk\src\wolfSSL\wolfcrypt\src/rabbit.c ****         g[i] = RABBIT_g_func(U32V(ctx->x[i] + ctx->c[i]));
 224              		.loc 1 92 0 is_stmt 0 discriminator 1
 225 00f2 072D     		cmp	r5, #7
 226 00f4 F0D9     		bls	.L6
  94:..\kronos-c-sdk\src\wolfSSL\wolfcrypt\src/rabbit.c **** 
  95:..\kronos-c-sdk\src\wolfSSL\wolfcrypt\src/rabbit.c ****     /* Calculate new state values */
  96:..\kronos-c-sdk\src\wolfSSL\wolfcrypt\src/rabbit.c ****     ctx->x[0] = U32V(g[0] + rotlFixed(g[7],16) + rotlFixed(g[6], 16));
 227              		.loc 1 96 0 is_stmt 1
 228 00f6 119E     		ldr	r6, [sp, #68]
 229              	.LVL17:
 230              	.LBB34:
 231              	.LBB35:
 232              		.file 2 "..\\kronos-c-sdk\\src\\wolfSSL/wolfcrypt/src/misc.c"
   1:..\kronos-c-sdk\src\wolfSSL\wolfcrypt\src/misc.c **** /* misc.c
   2:..\kronos-c-sdk\src\wolfSSL\wolfcrypt\src/misc.c ****  *
   3:..\kronos-c-sdk\src\wolfSSL\wolfcrypt\src/misc.c ****  * Copyright (C) 2006-2016 wolfSSL Inc.
   4:..\kronos-c-sdk\src\wolfSSL\wolfcrypt\src/misc.c ****  *
   5:..\kronos-c-sdk\src\wolfSSL\wolfcrypt\src/misc.c ****  * This file is part of wolfSSL.
   6:..\kronos-c-sdk\src\wolfSSL\wolfcrypt\src/misc.c ****  *
   7:..\kronos-c-sdk\src\wolfSSL\wolfcrypt\src/misc.c ****  * wolfSSL is free software; you can redistribute it and/or modify
   8:..\kronos-c-sdk\src\wolfSSL\wolfcrypt\src/misc.c ****  * it under the terms of the GNU General Public License as published by
   9:..\kronos-c-sdk\src\wolfSSL\wolfcrypt\src/misc.c ****  * the Free Software Foundation; either version 2 of the License, or
  10:..\kronos-c-sdk\src\wolfSSL\wolfcrypt\src/misc.c ****  * (at your option) any later version.
ARM GAS  C:\Users\ddemidov\AppData\Local\Temp\ccxqLn2e.s 			page 7


  11:..\kronos-c-sdk\src\wolfSSL\wolfcrypt\src/misc.c ****  *
  12:..\kronos-c-sdk\src\wolfSSL\wolfcrypt\src/misc.c ****  * wolfSSL is distributed in the hope that it will be useful,
  13:..\kronos-c-sdk\src\wolfSSL\wolfcrypt\src/misc.c ****  * but WITHOUT ANY WARRANTY; without even the implied warranty of
  14:..\kronos-c-sdk\src\wolfSSL\wolfcrypt\src/misc.c ****  * MERCHANTABILITY or FITNESS FOR A PARTICULAR PURPOSE.  See the
  15:..\kronos-c-sdk\src\wolfSSL\wolfcrypt\src/misc.c ****  * GNU General Public License for more details.
  16:..\kronos-c-sdk\src\wolfSSL\wolfcrypt\src/misc.c ****  *
  17:..\kronos-c-sdk\src\wolfSSL\wolfcrypt\src/misc.c ****  * You should have received a copy of the GNU General Public License
  18:..\kronos-c-sdk\src\wolfSSL\wolfcrypt\src/misc.c ****  * along with this program; if not, write to the Free Software
  19:..\kronos-c-sdk\src\wolfSSL\wolfcrypt\src/misc.c ****  * Foundation, Inc., 51 Franklin Street, Fifth Floor, Boston, MA 02110-1335, USA
  20:..\kronos-c-sdk\src\wolfSSL\wolfcrypt\src/misc.c ****  */
  21:..\kronos-c-sdk\src\wolfSSL\wolfcrypt\src/misc.c **** 
  22:..\kronos-c-sdk\src\wolfSSL\wolfcrypt\src/misc.c **** 
  23:..\kronos-c-sdk\src\wolfSSL\wolfcrypt\src/misc.c **** #ifdef HAVE_CONFIG_H
  24:..\kronos-c-sdk\src\wolfSSL\wolfcrypt\src/misc.c ****     #include <config.h>
  25:..\kronos-c-sdk\src\wolfSSL\wolfcrypt\src/misc.c **** #endif
  26:..\kronos-c-sdk\src\wolfSSL\wolfcrypt\src/misc.c **** 
  27:..\kronos-c-sdk\src\wolfSSL\wolfcrypt\src/misc.c **** #include <wolfssl/wolfcrypt/settings.h>
  28:..\kronos-c-sdk\src\wolfSSL\wolfcrypt\src/misc.c **** 
  29:..\kronos-c-sdk\src\wolfSSL\wolfcrypt\src/misc.c **** #ifndef WOLF_CRYPT_MISC_C
  30:..\kronos-c-sdk\src\wolfSSL\wolfcrypt\src/misc.c **** #define WOLF_CRYPT_MISC_C
  31:..\kronos-c-sdk\src\wolfSSL\wolfcrypt\src/misc.c **** 
  32:..\kronos-c-sdk\src\wolfSSL\wolfcrypt\src/misc.c **** #include <wolfssl/wolfcrypt/misc.h>
  33:..\kronos-c-sdk\src\wolfSSL\wolfcrypt\src/misc.c **** 
  34:..\kronos-c-sdk\src\wolfSSL\wolfcrypt\src/misc.c **** /* inlining these functions is a huge speed increase and a small size decrease, 
  35:..\kronos-c-sdk\src\wolfSSL\wolfcrypt\src/misc.c ****    because the functions are smaller than function call setup/cleanup, e.g.,
  36:..\kronos-c-sdk\src\wolfSSL\wolfcrypt\src/misc.c ****    md5 benchmark is twice as fast with inline.  If you don't want it, then
  37:..\kronos-c-sdk\src\wolfSSL\wolfcrypt\src/misc.c ****    define NO_INLINE and compile this file into wolfssl, otherwise it's used as
  38:..\kronos-c-sdk\src\wolfSSL\wolfcrypt\src/misc.c ****    a source header
  39:..\kronos-c-sdk\src\wolfSSL\wolfcrypt\src/misc.c ****  */
  40:..\kronos-c-sdk\src\wolfSSL\wolfcrypt\src/misc.c **** 
  41:..\kronos-c-sdk\src\wolfSSL\wolfcrypt\src/misc.c **** #ifdef NO_INLINE
  42:..\kronos-c-sdk\src\wolfSSL\wolfcrypt\src/misc.c ****     #define STATIC
  43:..\kronos-c-sdk\src\wolfSSL\wolfcrypt\src/misc.c **** #else
  44:..\kronos-c-sdk\src\wolfSSL\wolfcrypt\src/misc.c ****     #define STATIC static
  45:..\kronos-c-sdk\src\wolfSSL\wolfcrypt\src/misc.c **** #endif
  46:..\kronos-c-sdk\src\wolfSSL\wolfcrypt\src/misc.c **** 
  47:..\kronos-c-sdk\src\wolfSSL\wolfcrypt\src/misc.c **** 
  48:..\kronos-c-sdk\src\wolfSSL\wolfcrypt\src/misc.c **** #ifdef INTEL_INTRINSICS
  49:..\kronos-c-sdk\src\wolfSSL\wolfcrypt\src/misc.c **** 
  50:..\kronos-c-sdk\src\wolfSSL\wolfcrypt\src/misc.c ****     #include <stdlib.h>      /* get intrinsic definitions */
  51:..\kronos-c-sdk\src\wolfSSL\wolfcrypt\src/misc.c **** 
  52:..\kronos-c-sdk\src\wolfSSL\wolfcrypt\src/misc.c ****     /* for non visual studio probably need no long version, 32 bit only
  53:..\kronos-c-sdk\src\wolfSSL\wolfcrypt\src/misc.c ****      * i.e., _rotl and _rotr */
  54:..\kronos-c-sdk\src\wolfSSL\wolfcrypt\src/misc.c ****     #pragma intrinsic(_lrotl, _lrotr)
  55:..\kronos-c-sdk\src\wolfSSL\wolfcrypt\src/misc.c **** 
  56:..\kronos-c-sdk\src\wolfSSL\wolfcrypt\src/misc.c ****     STATIC INLINE word32 rotlFixed(word32 x, word32 y)
  57:..\kronos-c-sdk\src\wolfSSL\wolfcrypt\src/misc.c ****     {
  58:..\kronos-c-sdk\src\wolfSSL\wolfcrypt\src/misc.c ****         return y ? _lrotl(x, y) : x;
  59:..\kronos-c-sdk\src\wolfSSL\wolfcrypt\src/misc.c ****     }
  60:..\kronos-c-sdk\src\wolfSSL\wolfcrypt\src/misc.c **** 
  61:..\kronos-c-sdk\src\wolfSSL\wolfcrypt\src/misc.c ****     STATIC INLINE word32 rotrFixed(word32 x, word32 y)
  62:..\kronos-c-sdk\src\wolfSSL\wolfcrypt\src/misc.c ****     {
  63:..\kronos-c-sdk\src\wolfSSL\wolfcrypt\src/misc.c ****         return y ? _lrotr(x, y) : x;
  64:..\kronos-c-sdk\src\wolfSSL\wolfcrypt\src/misc.c ****     }
  65:..\kronos-c-sdk\src\wolfSSL\wolfcrypt\src/misc.c **** 
  66:..\kronos-c-sdk\src\wolfSSL\wolfcrypt\src/misc.c **** #else /* generic */
  67:..\kronos-c-sdk\src\wolfSSL\wolfcrypt\src/misc.c **** 
ARM GAS  C:\Users\ddemidov\AppData\Local\Temp\ccxqLn2e.s 			page 8


  68:..\kronos-c-sdk\src\wolfSSL\wolfcrypt\src/misc.c ****     STATIC INLINE word32 rotlFixed(word32 x, word32 y)
  69:..\kronos-c-sdk\src\wolfSSL\wolfcrypt\src/misc.c ****     {
  70:..\kronos-c-sdk\src\wolfSSL\wolfcrypt\src/misc.c ****         return (x << y) | (x >> (sizeof(y) * 8 - y));
 233              		.loc 2 70 0
 234 00f8 1022     		mov	r2, #16
 235 00fa 301C     		mov	r0, r6
 236 00fc D041     		ror	r0, r0, r2
 237              	.LBE35:
 238              	.LBE34:
 239              		.loc 1 96 0
 240 00fe 0A9B     		ldr	r3, [sp, #40]
 241 0100 1D18     		add	r5, r3, r0
 242              	.LVL18:
 243 0102 109B     		ldr	r3, [sp, #64]
 244              	.LVL19:
 245              	.LBB36:
 246              	.LBB37:
 247              		.loc 2 70 0
 248 0104 181C     		mov	r0, r3
 249 0106 D041     		ror	r0, r0, r2
 250              	.LBE37:
 251              	.LBE36:
 252              		.loc 1 96 0
 253 0108 2818     		add	r0, r5, r0
 254 010a 2060     		str	r0, [r4]
  97:..\kronos-c-sdk\src\wolfSSL\wolfcrypt\src/rabbit.c ****     ctx->x[1] = U32V(g[1] + rotlFixed(g[0], 8) + g[7]);
 255              		.loc 1 97 0
 256 010c 0B9F     		ldr	r7, [sp, #44]
 257              	.LVL20:
 258              	.LBB38:
 259              	.LBB39:
 260              		.loc 2 70 0
 261 010e 1825     		mov	r5, #24
 262 0110 0A98     		ldr	r0, [sp, #40]
 263 0112 E841     		ror	r0, r0, r5
 264              	.LBE39:
 265              	.LBE38:
 266              		.loc 1 97 0
 267 0114 3818     		add	r0, r7, r0
 268 0116 3018     		add	r0, r6, r0
 269 0118 6060     		str	r0, [r4, #4]
  98:..\kronos-c-sdk\src\wolfSSL\wolfcrypt\src/rabbit.c ****     ctx->x[2] = U32V(g[2] + rotlFixed(g[1],16) + rotlFixed(g[0], 16));
 270              		.loc 1 98 0
 271 011a 0C98     		ldr	r0, [sp, #48]
 272              	.LVL21:
 273              	.LBB40:
 274              	.LBB41:
 275              		.loc 2 70 0
 276 011c 391C     		mov	r1, r7
 277 011e D141     		ror	r1, r1, r2
 278 0120 8C46     		mov	ip, r1
 279              	.LBE41:
 280              	.LBE40:
 281              		.loc 1 98 0
 282 0122 8444     		add	ip, ip, r0
 283              	.LVL22:
 284              	.LBB42:
ARM GAS  C:\Users\ddemidov\AppData\Local\Temp\ccxqLn2e.s 			page 9


 285              	.LBB43:
 286              		.loc 2 70 0
 287 0124 0A99     		ldr	r1, [sp, #40]
 288 0126 D141     		ror	r1, r1, r2
 289              	.LBE43:
 290              	.LBE42:
 291              		.loc 1 98 0
 292 0128 6144     		add	r1, r1, ip
 293 012a A160     		str	r1, [r4, #8]
  99:..\kronos-c-sdk\src\wolfSSL\wolfcrypt\src/rabbit.c ****     ctx->x[3] = U32V(g[3] + rotlFixed(g[2], 8) + g[1]);
 294              		.loc 1 99 0
 295 012c 0D99     		ldr	r1, [sp, #52]
 296 012e 8C46     		mov	ip, r1
 297              	.LVL23:
 298              	.LBB44:
 299              	.LBB45:
 300              		.loc 2 70 0
 301 0130 011C     		mov	r1, r0
 302 0132 E941     		ror	r1, r1, r5
 303              	.LBE45:
 304              	.LBE44:
 305              		.loc 1 99 0
 306 0134 6144     		add	r1, r1, ip
 307 0136 7F18     		add	r7, r7, r1
 308              	.LVL24:
 309 0138 E760     		str	r7, [r4, #12]
 100:..\kronos-c-sdk\src\wolfSSL\wolfcrypt\src/rabbit.c ****     ctx->x[4] = U32V(g[4] + rotlFixed(g[3],16) + rotlFixed(g[2], 16));
 310              		.loc 1 100 0
 311 013a 0E99     		ldr	r1, [sp, #56]
 312              	.LVL25:
 313              	.LBB46:
 314              	.LBB47:
 315              		.loc 2 70 0
 316 013c 6746     		mov	r7, ip
 317 013e D741     		ror	r7, r7, r2
 318              	.LBE47:
 319              	.LBE46:
 320              		.loc 1 100 0
 321 0140 CF19     		add	r7, r1, r7
 322              	.LVL26:
 323              	.LBB48:
 324              	.LBB49:
 325              		.loc 2 70 0
 326 0142 D041     		ror	r0, r0, r2
 327              	.LVL27:
 328              	.LBE49:
 329              	.LBE48:
 330              		.loc 1 100 0
 331 0144 3818     		add	r0, r7, r0
 332 0146 2061     		str	r0, [r4, #16]
 101:..\kronos-c-sdk\src\wolfSSL\wolfcrypt\src/rabbit.c ****     ctx->x[5] = U32V(g[5] + rotlFixed(g[4], 8) + g[3]);
 333              		.loc 1 101 0
 334 0148 0F9F     		ldr	r7, [sp, #60]
 335              	.LVL28:
 336              	.LBB50:
 337              	.LBB51:
 338              		.loc 2 70 0
ARM GAS  C:\Users\ddemidov\AppData\Local\Temp\ccxqLn2e.s 			page 10


 339 014a 081C     		mov	r0, r1
 340 014c E841     		ror	r0, r0, r5
 341              	.LBE51:
 342              	.LBE50:
 343              		.loc 1 101 0
 344 014e 3818     		add	r0, r7, r0
 345 0150 6044     		add	r0, r0, ip
 346 0152 6061     		str	r0, [r4, #20]
 347              	.LVL29:
 348              	.LBB52:
 349              	.LBB53:
 350              		.loc 2 70 0
 351 0154 381C     		mov	r0, r7
 352 0156 D041     		ror	r0, r0, r2
 353              	.LBE53:
 354              	.LBE52:
 102:..\kronos-c-sdk\src\wolfSSL\wolfcrypt\src/rabbit.c ****     ctx->x[6] = U32V(g[6] + rotlFixed(g[5],16) + rotlFixed(g[4], 16));
 355              		.loc 1 102 0
 356 0158 1818     		add	r0, r3, r0
 357              	.LVL30:
 358              	.LBB54:
 359              	.LBB55:
 360              		.loc 2 70 0
 361 015a D141     		ror	r1, r1, r2
 362              	.LVL31:
 363              	.LBE55:
 364              	.LBE54:
 365              		.loc 1 102 0
 366 015c 4118     		add	r1, r0, r1
 367 015e A161     		str	r1, [r4, #24]
 368              	.LVL32:
 369              	.LBB56:
 370              	.LBB57:
 371              		.loc 2 70 0
 372 0160 EB41     		ror	r3, r3, r5
 373              	.LVL33:
 374              	.LBE57:
 375              	.LBE56:
 103:..\kronos-c-sdk\src\wolfSSL\wolfcrypt\src/rabbit.c ****     ctx->x[7] = U32V(g[7] + rotlFixed(g[6], 8) + g[5]);
 376              		.loc 1 103 0
 377 0162 F318     		add	r3, r6, r3
 378 0164 FB18     		add	r3, r7, r3
 379 0166 E361     		str	r3, [r4, #28]
 104:..\kronos-c-sdk\src\wolfSSL\wolfcrypt\src/rabbit.c **** }
 380              		.loc 1 104 0
 381 0168 13B0     		add	sp, sp, #76
 382              		@ sp needed
 383              	.LVL34:
 384              	.LVL35:
 385              	.LVL36:
 386 016a F0BD     		pop	{r4, r5, r6, r7, pc}
 387              	.L8:
 388              		.align	2
 389              	.L7:
 390 016c 4DD3344D 		.word	1295307597
 391 0170 D3344DD3 		.word	-749914925
 392 0174 344DD334 		.word	886263092
ARM GAS  C:\Users\ddemidov\AppData\Local\Temp\ccxqLn2e.s 			page 11


 393              		.cfi_endproc
 394              	.LFE13:
 395              		.size	RABBIT_next_state, .-RABBIT_next_state
 396              		.section	.text.wc_RabbitSetIV,"ax",%progbits
 397              		.align	2
 398              		.code	16
 399              		.thumb_func
 400              		.type	wc_RabbitSetIV, %function
 401              	wc_RabbitSetIV:
 402              	.LFB14:
 105:..\kronos-c-sdk\src\wolfSSL\wolfcrypt\src/rabbit.c **** 
 106:..\kronos-c-sdk\src\wolfSSL\wolfcrypt\src/rabbit.c **** 
 107:..\kronos-c-sdk\src\wolfSSL\wolfcrypt\src/rabbit.c **** /* IV setup */
 108:..\kronos-c-sdk\src\wolfSSL\wolfcrypt\src/rabbit.c **** static void wc_RabbitSetIV(Rabbit* ctx, const byte* inIv)
 109:..\kronos-c-sdk\src\wolfSSL\wolfcrypt\src/rabbit.c **** {
 403              		.loc 1 109 0
 404              		.cfi_startproc
 405              	.LVL37:
 406 0000 30B5     		push	{r4, r5, lr}
 407              		.cfi_def_cfa_offset 12
 408              		.cfi_offset 4, -12
 409              		.cfi_offset 5, -8
 410              		.cfi_offset 14, -4
 411 0002 83B0     		sub	sp, sp, #12
 412              		.cfi_def_cfa_offset 24
 413 0004 041C     		mov	r4, r0
 110:..\kronos-c-sdk\src\wolfSSL\wolfcrypt\src/rabbit.c ****     /* Temporary variables */
 111:..\kronos-c-sdk\src\wolfSSL\wolfcrypt\src/rabbit.c ****     word32 i0, i1, i2, i3, i;
 112:..\kronos-c-sdk\src\wolfSSL\wolfcrypt\src/rabbit.c ****     word32 iv[2];
 113:..\kronos-c-sdk\src\wolfSSL\wolfcrypt\src/rabbit.c **** 
 114:..\kronos-c-sdk\src\wolfSSL\wolfcrypt\src/rabbit.c ****     if (inIv)
 414              		.loc 1 114 0
 415 0006 0029     		cmp	r1, #0
 416 0008 04D0     		beq	.L10
 115:..\kronos-c-sdk\src\wolfSSL\wolfcrypt\src/rabbit.c ****         XMEMCPY(iv, inIv, sizeof(iv));
 417              		.loc 1 115 0
 418 000a 6846     		mov	r0, sp
 419              	.LVL38:
 420 000c 0822     		mov	r2, #8
 421 000e FFF7FEFF 		bl	memcpy
 422              	.LVL39:
 423 0012 02E0     		b	.L11
 424              	.LVL40:
 425              	.L10:
 116:..\kronos-c-sdk\src\wolfSSL\wolfcrypt\src/rabbit.c ****     else
 117:..\kronos-c-sdk\src\wolfSSL\wolfcrypt\src/rabbit.c ****         XMEMSET(iv,    0, sizeof(iv));
 426              		.loc 1 117 0
 427 0014 0023     		mov	r3, #0
 428 0016 0093     		str	r3, [sp]
 429 0018 0193     		str	r3, [sp, #4]
 430              	.LVL41:
 431              	.L11:
 118:..\kronos-c-sdk\src\wolfSSL\wolfcrypt\src/rabbit.c ****       
 119:..\kronos-c-sdk\src\wolfSSL\wolfcrypt\src/rabbit.c ****     /* Generate four subvectors */
 120:..\kronos-c-sdk\src\wolfSSL\wolfcrypt\src/rabbit.c ****     i0 = LITTLE32(iv[0]);
 432              		.loc 1 120 0
 433 001a 0098     		ldr	r0, [sp]
ARM GAS  C:\Users\ddemidov\AppData\Local\Temp\ccxqLn2e.s 			page 12


 434              	.LVL42:
 121:..\kronos-c-sdk\src\wolfSSL\wolfcrypt\src/rabbit.c ****     i2 = LITTLE32(iv[1]);
 435              		.loc 1 121 0
 436 001c 0199     		ldr	r1, [sp, #4]
 437              	.LVL43:
 122:..\kronos-c-sdk\src\wolfSSL\wolfcrypt\src/rabbit.c ****     i1 = (i0>>16) | (i2&0xFFFF0000);
 438              		.loc 1 122 0
 439 001e 030C     		lsr	r3, r0, #16
 440 0020 0A0C     		lsr	r2, r1, #16
 441 0022 1204     		lsl	r2, r2, #16
 442 0024 1A43     		orr	r2, r3
 443              	.LVL44:
 123:..\kronos-c-sdk\src\wolfSSL\wolfcrypt\src/rabbit.c ****     i3 = (i2<<16) | (i0&0x0000FFFF);
 444              		.loc 1 123 0
 445 0026 0D04     		lsl	r5, r1, #16
 446 0028 0304     		lsl	r3, r0, #16
 447 002a 1B0C     		lsr	r3, r3, #16
 448 002c 2B43     		orr	r3, r5
 449              	.LVL45:
 124:..\kronos-c-sdk\src\wolfSSL\wolfcrypt\src/rabbit.c **** 
 125:..\kronos-c-sdk\src\wolfSSL\wolfcrypt\src/rabbit.c ****     /* Modify counter values */
 126:..\kronos-c-sdk\src\wolfSSL\wolfcrypt\src/rabbit.c ****     ctx->workCtx.c[0] = ctx->masterCtx.c[0] ^ i0;
 450              		.loc 1 126 0
 451 002e 256A     		ldr	r5, [r4, #32]
 452 0030 4540     		eor	r5, r0
 453 0032 6566     		str	r5, [r4, #100]
 127:..\kronos-c-sdk\src\wolfSSL\wolfcrypt\src/rabbit.c ****     ctx->workCtx.c[1] = ctx->masterCtx.c[1] ^ i1;
 454              		.loc 1 127 0
 455 0034 656A     		ldr	r5, [r4, #36]
 456 0036 5540     		eor	r5, r2
 457 0038 A566     		str	r5, [r4, #104]
 128:..\kronos-c-sdk\src\wolfSSL\wolfcrypt\src/rabbit.c ****     ctx->workCtx.c[2] = ctx->masterCtx.c[2] ^ i2;
 458              		.loc 1 128 0
 459 003a A56A     		ldr	r5, [r4, #40]
 460 003c 4D40     		eor	r5, r1
 461 003e E566     		str	r5, [r4, #108]
 129:..\kronos-c-sdk\src\wolfSSL\wolfcrypt\src/rabbit.c ****     ctx->workCtx.c[3] = ctx->masterCtx.c[3] ^ i3;
 462              		.loc 1 129 0
 463 0040 E56A     		ldr	r5, [r4, #44]
 464 0042 5D40     		eor	r5, r3
 465 0044 2567     		str	r5, [r4, #112]
 130:..\kronos-c-sdk\src\wolfSSL\wolfcrypt\src/rabbit.c ****     ctx->workCtx.c[4] = ctx->masterCtx.c[4] ^ i0;
 466              		.loc 1 130 0
 467 0046 256B     		ldr	r5, [r4, #48]
 468 0048 6840     		eor	r0, r5
 469              	.LVL46:
 470 004a 6067     		str	r0, [r4, #116]
 131:..\kronos-c-sdk\src\wolfSSL\wolfcrypt\src/rabbit.c ****     ctx->workCtx.c[5] = ctx->masterCtx.c[5] ^ i1;
 471              		.loc 1 131 0
 472 004c 606B     		ldr	r0, [r4, #52]
 473 004e 4240     		eor	r2, r0
 474              	.LVL47:
 475 0050 A267     		str	r2, [r4, #120]
 132:..\kronos-c-sdk\src\wolfSSL\wolfcrypt\src/rabbit.c ****     ctx->workCtx.c[6] = ctx->masterCtx.c[6] ^ i2;
 476              		.loc 1 132 0
 477 0052 A26B     		ldr	r2, [r4, #56]
 478 0054 5140     		eor	r1, r2
ARM GAS  C:\Users\ddemidov\AppData\Local\Temp\ccxqLn2e.s 			page 13


 479              	.LVL48:
 480 0056 E167     		str	r1, [r4, #124]
 133:..\kronos-c-sdk\src\wolfSSL\wolfcrypt\src/rabbit.c ****     ctx->workCtx.c[7] = ctx->masterCtx.c[7] ^ i3;
 481              		.loc 1 133 0
 482 0058 E26B     		ldr	r2, [r4, #60]
 483 005a 5340     		eor	r3, r2
 484              	.LVL49:
 485 005c 8022     		mov	r2, #128
 486 005e A350     		str	r3, [r4, r2]
 487              	.LVL50:
 134:..\kronos-c-sdk\src\wolfSSL\wolfcrypt\src/rabbit.c **** 
 135:..\kronos-c-sdk\src\wolfSSL\wolfcrypt\src/rabbit.c ****     /* Copy state variables */
 136:..\kronos-c-sdk\src\wolfSSL\wolfcrypt\src/rabbit.c ****     for (i=0; i<8; i++)
 488              		.loc 1 136 0
 489 0060 0022     		mov	r2, #0
 490 0062 07E0     		b	.L12
 491              	.LVL51:
 492              	.L13:
 137:..\kronos-c-sdk\src\wolfSSL\wolfcrypt\src/rabbit.c ****         ctx->workCtx.x[i] = ctx->masterCtx.x[i];
 493              		.loc 1 137 0 discriminator 3
 494 0064 9300     		lsl	r3, r2, #2
 495 0066 1959     		ldr	r1, [r3, r4]
 496 0068 131C     		mov	r3, r2
 497 006a 1033     		add	r3, r3, #16
 498 006c 9B00     		lsl	r3, r3, #2
 499 006e E318     		add	r3, r4, r3
 500 0070 5960     		str	r1, [r3, #4]
 136:..\kronos-c-sdk\src\wolfSSL\wolfcrypt\src/rabbit.c ****         ctx->workCtx.x[i] = ctx->masterCtx.x[i];
 501              		.loc 1 136 0 discriminator 3
 502 0072 0132     		add	r2, r2, #1
 503              	.LVL52:
 504              	.L12:
 136:..\kronos-c-sdk\src\wolfSSL\wolfcrypt\src/rabbit.c ****         ctx->workCtx.x[i] = ctx->masterCtx.x[i];
 505              		.loc 1 136 0 is_stmt 0 discriminator 1
 506 0074 072A     		cmp	r2, #7
 507 0076 F5D9     		bls	.L13
 138:..\kronos-c-sdk\src\wolfSSL\wolfcrypt\src/rabbit.c ****     ctx->workCtx.carry = ctx->masterCtx.carry;
 508              		.loc 1 138 0 is_stmt 1
 509 0078 8423     		mov	r3, #132
 510 007a 226C     		ldr	r2, [r4, #64]
 511              	.LVL53:
 512 007c E250     		str	r2, [r4, r3]
 513              	.LVL54:
 139:..\kronos-c-sdk\src\wolfSSL\wolfcrypt\src/rabbit.c **** 
 140:..\kronos-c-sdk\src\wolfSSL\wolfcrypt\src/rabbit.c ****     /* Iterate the system four times */
 141:..\kronos-c-sdk\src\wolfSSL\wolfcrypt\src/rabbit.c ****     for (i=0; i<4; i++)
 514              		.loc 1 141 0
 515 007e 0025     		mov	r5, #0
 516 0080 04E0     		b	.L14
 517              	.LVL55:
 518              	.L15:
 142:..\kronos-c-sdk\src\wolfSSL\wolfcrypt\src/rabbit.c ****         RABBIT_next_state(&(ctx->workCtx));
 519              		.loc 1 142 0 discriminator 3
 520 0082 201C     		mov	r0, r4
 521 0084 4430     		add	r0, r0, #68
 522 0086 FFF7FEFF 		bl	RABBIT_next_state
 523              	.LVL56:
ARM GAS  C:\Users\ddemidov\AppData\Local\Temp\ccxqLn2e.s 			page 14


 141:..\kronos-c-sdk\src\wolfSSL\wolfcrypt\src/rabbit.c ****         RABBIT_next_state(&(ctx->workCtx));
 524              		.loc 1 141 0 discriminator 3
 525 008a 0135     		add	r5, r5, #1
 526              	.LVL57:
 527              	.L14:
 141:..\kronos-c-sdk\src\wolfSSL\wolfcrypt\src/rabbit.c ****         RABBIT_next_state(&(ctx->workCtx));
 528              		.loc 1 141 0 is_stmt 0 discriminator 1
 529 008c 032D     		cmp	r5, #3
 530 008e F8D9     		bls	.L15
 143:..\kronos-c-sdk\src\wolfSSL\wolfcrypt\src/rabbit.c **** }
 531              		.loc 1 143 0 is_stmt 1
 532 0090 03B0     		add	sp, sp, #12
 533              		@ sp needed
 534              	.LVL58:
 535              	.LVL59:
 536 0092 30BD     		pop	{r4, r5, pc}
 537              		.cfi_endproc
 538              	.LFE14:
 539              		.size	wc_RabbitSetIV, .-wc_RabbitSetIV
 540              		.section	.text.wc_RabbitSetKey,"ax",%progbits
 541              		.align	2
 542              		.global	wc_RabbitSetKey
 543              		.code	16
 544              		.thumb_func
 545              		.type	wc_RabbitSetKey, %function
 546              	wc_RabbitSetKey:
 547              	.LFB16:
 144:..\kronos-c-sdk\src\wolfSSL\wolfcrypt\src/rabbit.c **** 
 145:..\kronos-c-sdk\src\wolfSSL\wolfcrypt\src/rabbit.c **** 
 146:..\kronos-c-sdk\src\wolfSSL\wolfcrypt\src/rabbit.c **** /* Key setup */
 147:..\kronos-c-sdk\src\wolfSSL\wolfcrypt\src/rabbit.c **** static INLINE int DoKey(Rabbit* ctx, const byte* key, const byte* iv)
 148:..\kronos-c-sdk\src\wolfSSL\wolfcrypt\src/rabbit.c **** {
 149:..\kronos-c-sdk\src\wolfSSL\wolfcrypt\src/rabbit.c ****     /* Temporary variables */
 150:..\kronos-c-sdk\src\wolfSSL\wolfcrypt\src/rabbit.c ****     word32 k0, k1, k2, k3, i;
 151:..\kronos-c-sdk\src\wolfSSL\wolfcrypt\src/rabbit.c **** 
 152:..\kronos-c-sdk\src\wolfSSL\wolfcrypt\src/rabbit.c ****     /* Generate four subkeys */
 153:..\kronos-c-sdk\src\wolfSSL\wolfcrypt\src/rabbit.c ****     k0 = LITTLE32(*(word32*)(key+ 0));
 154:..\kronos-c-sdk\src\wolfSSL\wolfcrypt\src/rabbit.c ****     k1 = LITTLE32(*(word32*)(key+ 4));
 155:..\kronos-c-sdk\src\wolfSSL\wolfcrypt\src/rabbit.c ****     k2 = LITTLE32(*(word32*)(key+ 8));
 156:..\kronos-c-sdk\src\wolfSSL\wolfcrypt\src/rabbit.c ****     k3 = LITTLE32(*(word32*)(key+12));
 157:..\kronos-c-sdk\src\wolfSSL\wolfcrypt\src/rabbit.c **** 
 158:..\kronos-c-sdk\src\wolfSSL\wolfcrypt\src/rabbit.c ****     /* Generate initial state variables */
 159:..\kronos-c-sdk\src\wolfSSL\wolfcrypt\src/rabbit.c ****     ctx->masterCtx.x[0] = k0;
 160:..\kronos-c-sdk\src\wolfSSL\wolfcrypt\src/rabbit.c ****     ctx->masterCtx.x[2] = k1;
 161:..\kronos-c-sdk\src\wolfSSL\wolfcrypt\src/rabbit.c ****     ctx->masterCtx.x[4] = k2;
 162:..\kronos-c-sdk\src\wolfSSL\wolfcrypt\src/rabbit.c ****     ctx->masterCtx.x[6] = k3;
 163:..\kronos-c-sdk\src\wolfSSL\wolfcrypt\src/rabbit.c ****     ctx->masterCtx.x[1] = U32V(k3<<16) | (k2>>16);
 164:..\kronos-c-sdk\src\wolfSSL\wolfcrypt\src/rabbit.c ****     ctx->masterCtx.x[3] = U32V(k0<<16) | (k3>>16);
 165:..\kronos-c-sdk\src\wolfSSL\wolfcrypt\src/rabbit.c ****     ctx->masterCtx.x[5] = U32V(k1<<16) | (k0>>16);
 166:..\kronos-c-sdk\src\wolfSSL\wolfcrypt\src/rabbit.c ****     ctx->masterCtx.x[7] = U32V(k2<<16) | (k1>>16);
 167:..\kronos-c-sdk\src\wolfSSL\wolfcrypt\src/rabbit.c **** 
 168:..\kronos-c-sdk\src\wolfSSL\wolfcrypt\src/rabbit.c ****     /* Generate initial counter values */
 169:..\kronos-c-sdk\src\wolfSSL\wolfcrypt\src/rabbit.c ****     ctx->masterCtx.c[0] = rotlFixed(k2, 16);
 170:..\kronos-c-sdk\src\wolfSSL\wolfcrypt\src/rabbit.c ****     ctx->masterCtx.c[2] = rotlFixed(k3, 16);
 171:..\kronos-c-sdk\src\wolfSSL\wolfcrypt\src/rabbit.c ****     ctx->masterCtx.c[4] = rotlFixed(k0, 16);
 172:..\kronos-c-sdk\src\wolfSSL\wolfcrypt\src/rabbit.c ****     ctx->masterCtx.c[6] = rotlFixed(k1, 16);
 173:..\kronos-c-sdk\src\wolfSSL\wolfcrypt\src/rabbit.c ****     ctx->masterCtx.c[1] = (k0&0xFFFF0000) | (k1&0xFFFF);
ARM GAS  C:\Users\ddemidov\AppData\Local\Temp\ccxqLn2e.s 			page 15


 174:..\kronos-c-sdk\src\wolfSSL\wolfcrypt\src/rabbit.c ****     ctx->masterCtx.c[3] = (k1&0xFFFF0000) | (k2&0xFFFF);
 175:..\kronos-c-sdk\src\wolfSSL\wolfcrypt\src/rabbit.c ****     ctx->masterCtx.c[5] = (k2&0xFFFF0000) | (k3&0xFFFF);
 176:..\kronos-c-sdk\src\wolfSSL\wolfcrypt\src/rabbit.c ****     ctx->masterCtx.c[7] = (k3&0xFFFF0000) | (k0&0xFFFF);
 177:..\kronos-c-sdk\src\wolfSSL\wolfcrypt\src/rabbit.c **** 
 178:..\kronos-c-sdk\src\wolfSSL\wolfcrypt\src/rabbit.c ****     /* Clear carry bit */
 179:..\kronos-c-sdk\src\wolfSSL\wolfcrypt\src/rabbit.c ****     ctx->masterCtx.carry = 0;
 180:..\kronos-c-sdk\src\wolfSSL\wolfcrypt\src/rabbit.c **** 
 181:..\kronos-c-sdk\src\wolfSSL\wolfcrypt\src/rabbit.c ****     /* Iterate the system four times */
 182:..\kronos-c-sdk\src\wolfSSL\wolfcrypt\src/rabbit.c ****     for (i=0; i<4; i++)
 183:..\kronos-c-sdk\src\wolfSSL\wolfcrypt\src/rabbit.c ****         RABBIT_next_state(&(ctx->masterCtx));
 184:..\kronos-c-sdk\src\wolfSSL\wolfcrypt\src/rabbit.c **** 
 185:..\kronos-c-sdk\src\wolfSSL\wolfcrypt\src/rabbit.c ****     /* Modify the counters */
 186:..\kronos-c-sdk\src\wolfSSL\wolfcrypt\src/rabbit.c ****     for (i=0; i<8; i++)
 187:..\kronos-c-sdk\src\wolfSSL\wolfcrypt\src/rabbit.c ****         ctx->masterCtx.c[i] ^= ctx->masterCtx.x[(i+4)&0x7];
 188:..\kronos-c-sdk\src\wolfSSL\wolfcrypt\src/rabbit.c **** 
 189:..\kronos-c-sdk\src\wolfSSL\wolfcrypt\src/rabbit.c ****     /* Copy master instance to work instance */
 190:..\kronos-c-sdk\src\wolfSSL\wolfcrypt\src/rabbit.c ****     for (i=0; i<8; i++) {
 191:..\kronos-c-sdk\src\wolfSSL\wolfcrypt\src/rabbit.c ****         ctx->workCtx.x[i] = ctx->masterCtx.x[i];
 192:..\kronos-c-sdk\src\wolfSSL\wolfcrypt\src/rabbit.c ****         ctx->workCtx.c[i] = ctx->masterCtx.c[i];
 193:..\kronos-c-sdk\src\wolfSSL\wolfcrypt\src/rabbit.c ****     }
 194:..\kronos-c-sdk\src\wolfSSL\wolfcrypt\src/rabbit.c ****     ctx->workCtx.carry = ctx->masterCtx.carry;
 195:..\kronos-c-sdk\src\wolfSSL\wolfcrypt\src/rabbit.c **** 
 196:..\kronos-c-sdk\src\wolfSSL\wolfcrypt\src/rabbit.c ****     wc_RabbitSetIV(ctx, iv);
 197:..\kronos-c-sdk\src\wolfSSL\wolfcrypt\src/rabbit.c **** 
 198:..\kronos-c-sdk\src\wolfSSL\wolfcrypt\src/rabbit.c ****     return 0;
 199:..\kronos-c-sdk\src\wolfSSL\wolfcrypt\src/rabbit.c **** }
 200:..\kronos-c-sdk\src\wolfSSL\wolfcrypt\src/rabbit.c **** 
 201:..\kronos-c-sdk\src\wolfSSL\wolfcrypt\src/rabbit.c **** 
 202:..\kronos-c-sdk\src\wolfSSL\wolfcrypt\src/rabbit.c **** /* Key setup */
 203:..\kronos-c-sdk\src\wolfSSL\wolfcrypt\src/rabbit.c **** int wc_RabbitSetKey(Rabbit* ctx, const byte* key, const byte* iv)
 204:..\kronos-c-sdk\src\wolfSSL\wolfcrypt\src/rabbit.c **** {
 548              		.loc 1 204 0
 549              		.cfi_startproc
 550              	.LVL60:
 551 0000 F0B5     		push	{r4, r5, r6, r7, lr}
 552              		.cfi_def_cfa_offset 20
 553              		.cfi_offset 4, -20
 554              		.cfi_offset 5, -16
 555              		.cfi_offset 6, -12
 556              		.cfi_offset 7, -8
 557              		.cfi_offset 14, -4
 558 0002 5F46     		mov	r7, fp
 559 0004 5646     		mov	r6, r10
 560 0006 4D46     		mov	r5, r9
 561 0008 4446     		mov	r4, r8
 562 000a F0B4     		push	{r4, r5, r6, r7}
 563              		.cfi_def_cfa_offset 36
 564              		.cfi_offset 8, -36
 565              		.cfi_offset 9, -32
 566              		.cfi_offset 10, -28
 567              		.cfi_offset 11, -24
 568 000c 89B0     		sub	sp, sp, #36
 569              		.cfi_def_cfa_offset 72
 570 000e 041C     		mov	r4, r0
 571 0010 0192     		str	r2, [sp, #4]
 205:..\kronos-c-sdk\src\wolfSSL\wolfcrypt\src/rabbit.c **** #ifdef XSTREAM_ALIGN
 206:..\kronos-c-sdk\src\wolfSSL\wolfcrypt\src/rabbit.c ****     if ((wolfssl_word)key % 4) {
ARM GAS  C:\Users\ddemidov\AppData\Local\Temp\ccxqLn2e.s 			page 16


 572              		.loc 1 206 0
 573 0012 8B07     		lsl	r3, r1, #30
 574 0014 7DD0     		beq	.L17
 575              	.LBB79:
 207:..\kronos-c-sdk\src\wolfSSL\wolfcrypt\src/rabbit.c ****         int alignKey[4];
 208:..\kronos-c-sdk\src\wolfSSL\wolfcrypt\src/rabbit.c **** 
 209:..\kronos-c-sdk\src\wolfSSL\wolfcrypt\src/rabbit.c ****         /* iv aligned in SetIV */
 210:..\kronos-c-sdk\src\wolfSSL\wolfcrypt\src/rabbit.c ****         WOLFSSL_MSG("wc_RabbitSetKey unaligned key");
 211:..\kronos-c-sdk\src\wolfSSL\wolfcrypt\src/rabbit.c **** 
 212:..\kronos-c-sdk\src\wolfSSL\wolfcrypt\src/rabbit.c ****         XMEMCPY(alignKey, key, sizeof(alignKey));
 576              		.loc 1 212 0
 577 0016 1027     		mov	r7, #16
 578 0018 04A8     		add	r0, sp, #16
 579              	.LVL61:
 580 001a 1022     		mov	r2, #16
 581              	.LVL62:
 582 001c FFF7FEFF 		bl	memcpy
 583              	.LVL63:
 584              	.LBB80:
 585              	.LBB81:
 153:..\kronos-c-sdk\src\wolfSSL\wolfcrypt\src/rabbit.c ****     k1 = LITTLE32(*(word32*)(key+ 4));
 586              		.loc 1 153 0
 587 0020 0498     		ldr	r0, [sp, #16]
 588              	.LVL64:
 154:..\kronos-c-sdk\src\wolfSSL\wolfcrypt\src/rabbit.c ****     k2 = LITTLE32(*(word32*)(key+ 8));
 589              		.loc 1 154 0
 590 0022 0599     		ldr	r1, [sp, #20]
 591              	.LVL65:
 155:..\kronos-c-sdk\src\wolfSSL\wolfcrypt\src/rabbit.c ****     k3 = LITTLE32(*(word32*)(key+12));
 592              		.loc 1 155 0
 593 0024 069E     		ldr	r6, [sp, #24]
 594              	.LVL66:
 156:..\kronos-c-sdk\src\wolfSSL\wolfcrypt\src/rabbit.c **** 
 595              		.loc 1 156 0
 596 0026 079D     		ldr	r5, [sp, #28]
 597              	.LVL67:
 159:..\kronos-c-sdk\src\wolfSSL\wolfcrypt\src/rabbit.c ****     ctx->masterCtx.x[2] = k1;
 598              		.loc 1 159 0
 599 0028 2060     		str	r0, [r4]
 160:..\kronos-c-sdk\src\wolfSSL\wolfcrypt\src/rabbit.c ****     ctx->masterCtx.x[4] = k2;
 600              		.loc 1 160 0
 601 002a A160     		str	r1, [r4, #8]
 161:..\kronos-c-sdk\src\wolfSSL\wolfcrypt\src/rabbit.c ****     ctx->masterCtx.x[6] = k3;
 602              		.loc 1 161 0
 603 002c 2661     		str	r6, [r4, #16]
 162:..\kronos-c-sdk\src\wolfSSL\wolfcrypt\src/rabbit.c ****     ctx->masterCtx.x[1] = U32V(k3<<16) | (k2>>16);
 604              		.loc 1 162 0
 605 002e A561     		str	r5, [r4, #24]
 163:..\kronos-c-sdk\src\wolfSSL\wolfcrypt\src/rabbit.c ****     ctx->masterCtx.x[3] = U32V(k0<<16) | (k3>>16);
 606              		.loc 1 163 0
 607 0030 2B04     		lsl	r3, r5, #16
 608 0032 0293     		str	r3, [sp, #8]
 609 0034 330C     		lsr	r3, r6, #16
 610 0036 9846     		mov	r8, r3
 611 0038 1A1C     		mov	r2, r3
 612 003a 029B     		ldr	r3, [sp, #8]
 613 003c 1A43     		orr	r2, r3
ARM GAS  C:\Users\ddemidov\AppData\Local\Temp\ccxqLn2e.s 			page 17


 614 003e 6260     		str	r2, [r4, #4]
 164:..\kronos-c-sdk\src\wolfSSL\wolfcrypt\src/rabbit.c ****     ctx->masterCtx.x[5] = U32V(k1<<16) | (k0>>16);
 615              		.loc 1 164 0
 616 0040 0304     		lsl	r3, r0, #16
 617 0042 9B46     		mov	fp, r3
 618 0044 2A0C     		lsr	r2, r5, #16
 619 0046 0392     		str	r2, [sp, #12]
 620 0048 1343     		orr	r3, r2
 621 004a E360     		str	r3, [r4, #12]
 165:..\kronos-c-sdk\src\wolfSSL\wolfcrypt\src/rabbit.c ****     ctx->masterCtx.x[7] = U32V(k2<<16) | (k1>>16);
 622              		.loc 1 165 0
 623 004c 0B04     		lsl	r3, r1, #16
 624 004e 9C46     		mov	ip, r3
 625 0050 030C     		lsr	r3, r0, #16
 626 0052 9A46     		mov	r10, r3
 627 0054 6346     		mov	r3, ip
 628 0056 5246     		mov	r2, r10
 629 0058 1343     		orr	r3, r2
 630 005a 6361     		str	r3, [r4, #20]
 166:..\kronos-c-sdk\src\wolfSSL\wolfcrypt\src/rabbit.c **** 
 631              		.loc 1 166 0
 632 005c 3204     		lsl	r2, r6, #16
 633 005e 0B0C     		lsr	r3, r1, #16
 634 0060 9946     		mov	r9, r3
 635 0062 1343     		orr	r3, r2
 636 0064 E361     		str	r3, [r4, #28]
 637              	.LVL68:
 638              	.LBB82:
 639              	.LBB83:
 640              		.loc 2 70 0
 641 0066 FE41     		ror	r6, r6, r7
 642              	.LVL69:
 643              	.LBE83:
 644              	.LBE82:
 169:..\kronos-c-sdk\src\wolfSSL\wolfcrypt\src/rabbit.c ****     ctx->masterCtx.c[2] = rotlFixed(k3, 16);
 645              		.loc 1 169 0
 646 0068 2662     		str	r6, [r4, #32]
 647              	.LVL70:
 648              	.LBB84:
 649              	.LBB85:
 650              		.loc 2 70 0
 651 006a FD41     		ror	r5, r5, r7
 652              	.LVL71:
 653              	.LBE85:
 654              	.LBE84:
 170:..\kronos-c-sdk\src\wolfSSL\wolfcrypt\src/rabbit.c ****     ctx->masterCtx.c[4] = rotlFixed(k0, 16);
 655              		.loc 1 170 0
 656 006c A562     		str	r5, [r4, #40]
 657              	.LVL72:
 658              	.LBB86:
 659              	.LBB87:
 660              		.loc 2 70 0
 661 006e F841     		ror	r0, r0, r7
 662              	.LVL73:
 663              	.LBE87:
 664              	.LBE86:
 171:..\kronos-c-sdk\src\wolfSSL\wolfcrypt\src/rabbit.c ****     ctx->masterCtx.c[6] = rotlFixed(k1, 16);
ARM GAS  C:\Users\ddemidov\AppData\Local\Temp\ccxqLn2e.s 			page 18


 665              		.loc 1 171 0
 666 0070 2063     		str	r0, [r4, #48]
 667              	.LVL74:
 668              	.LBB88:
 669              	.LBB89:
 670              		.loc 2 70 0
 671 0072 F941     		ror	r1, r1, r7
 672              	.LVL75:
 673              	.LBE89:
 674              	.LBE88:
 172:..\kronos-c-sdk\src\wolfSSL\wolfcrypt\src/rabbit.c ****     ctx->masterCtx.c[1] = (k0&0xFFFF0000) | (k1&0xFFFF);
 675              		.loc 1 172 0
 676 0074 A163     		str	r1, [r4, #56]
 173:..\kronos-c-sdk\src\wolfSSL\wolfcrypt\src/rabbit.c ****     ctx->masterCtx.c[3] = (k1&0xFFFF0000) | (k2&0xFFFF);
 677              		.loc 1 173 0
 678 0076 5346     		mov	r3, r10
 679 0078 1804     		lsl	r0, r3, #16
 680 007a 6346     		mov	r3, ip
 681 007c 190C     		lsr	r1, r3, #16
 682 007e 0143     		orr	r1, r0
 683 0080 6162     		str	r1, [r4, #36]
 174:..\kronos-c-sdk\src\wolfSSL\wolfcrypt\src/rabbit.c ****     ctx->masterCtx.c[5] = (k2&0xFFFF0000) | (k3&0xFFFF);
 684              		.loc 1 174 0
 685 0082 4B46     		mov	r3, r9
 686 0084 1904     		lsl	r1, r3, #16
 687 0086 120C     		lsr	r2, r2, #16
 688 0088 0A43     		orr	r2, r1
 689 008a E262     		str	r2, [r4, #44]
 175:..\kronos-c-sdk\src\wolfSSL\wolfcrypt\src/rabbit.c ****     ctx->masterCtx.c[7] = (k3&0xFFFF0000) | (k0&0xFFFF);
 690              		.loc 1 175 0
 691 008c 4346     		mov	r3, r8
 692 008e 1A04     		lsl	r2, r3, #16
 693 0090 029B     		ldr	r3, [sp, #8]
 694 0092 1B0C     		lsr	r3, r3, #16
 695 0094 1343     		orr	r3, r2
 696 0096 6363     		str	r3, [r4, #52]
 176:..\kronos-c-sdk\src\wolfSSL\wolfcrypt\src/rabbit.c **** 
 697              		.loc 1 176 0
 698 0098 039A     		ldr	r2, [sp, #12]
 699 009a 1204     		lsl	r2, r2, #16
 700 009c 5B46     		mov	r3, fp
 701 009e 1B0C     		lsr	r3, r3, #16
 702 00a0 1343     		orr	r3, r2
 703 00a2 E363     		str	r3, [r4, #60]
 179:..\kronos-c-sdk\src\wolfSSL\wolfcrypt\src/rabbit.c **** 
 704              		.loc 1 179 0
 705 00a4 0023     		mov	r3, #0
 706 00a6 2364     		str	r3, [r4, #64]
 707              	.LVL76:
 182:..\kronos-c-sdk\src\wolfSSL\wolfcrypt\src/rabbit.c ****         RABBIT_next_state(&(ctx->masterCtx));
 708              		.loc 1 182 0
 709 00a8 0025     		mov	r5, #0
 710 00aa 03E0     		b	.L18
 711              	.LVL77:
 712              	.L19:
 183:..\kronos-c-sdk\src\wolfSSL\wolfcrypt\src/rabbit.c **** 
 713              		.loc 1 183 0
ARM GAS  C:\Users\ddemidov\AppData\Local\Temp\ccxqLn2e.s 			page 19


 714 00ac 201C     		mov	r0, r4
 715 00ae FFF7FEFF 		bl	RABBIT_next_state
 716              	.LVL78:
 182:..\kronos-c-sdk\src\wolfSSL\wolfcrypt\src/rabbit.c ****         RABBIT_next_state(&(ctx->masterCtx));
 717              		.loc 1 182 0
 718 00b2 0135     		add	r5, r5, #1
 719              	.LVL79:
 720              	.L18:
 721 00b4 032D     		cmp	r5, #3
 722 00b6 F9D9     		bls	.L19
 723 00b8 0021     		mov	r1, #0
 724 00ba 0BE0     		b	.L20
 725              	.LVL80:
 726              	.L21:
 187:..\kronos-c-sdk\src\wolfSSL\wolfcrypt\src/rabbit.c **** 
 727              		.loc 1 187 0
 728 00bc 0B1D     		add	r3, r1, #4
 729 00be 0722     		mov	r2, #7
 730 00c0 1340     		and	r3, r2
 731 00c2 9B00     		lsl	r3, r3, #2
 732 00c4 1A59     		ldr	r2, [r3, r4]
 733 00c6 0B1C     		mov	r3, r1
 734 00c8 0833     		add	r3, r3, #8
 735 00ca 9B00     		lsl	r3, r3, #2
 736 00cc 1859     		ldr	r0, [r3, r4]
 737 00ce 4240     		eor	r2, r0
 738 00d0 1A51     		str	r2, [r3, r4]
 186:..\kronos-c-sdk\src\wolfSSL\wolfcrypt\src/rabbit.c ****         ctx->masterCtx.c[i] ^= ctx->masterCtx.x[(i+4)&0x7];
 739              		.loc 1 186 0
 740 00d2 0131     		add	r1, r1, #1
 741              	.LVL81:
 742              	.L20:
 743 00d4 0729     		cmp	r1, #7
 744 00d6 F1D9     		bls	.L21
 745 00d8 0023     		mov	r3, #0
 746 00da 10E0     		b	.L22
 747              	.LVL82:
 748              	.L23:
 191:..\kronos-c-sdk\src\wolfSSL\wolfcrypt\src/rabbit.c ****         ctx->workCtx.c[i] = ctx->masterCtx.c[i];
 749              		.loc 1 191 0
 750 00dc 9A00     		lsl	r2, r3, #2
 751 00de 1159     		ldr	r1, [r2, r4]
 752 00e0 1A1C     		mov	r2, r3
 753 00e2 1032     		add	r2, r2, #16
 754 00e4 9200     		lsl	r2, r2, #2
 755 00e6 A218     		add	r2, r4, r2
 756 00e8 5160     		str	r1, [r2, #4]
 192:..\kronos-c-sdk\src\wolfSSL\wolfcrypt\src/rabbit.c ****     }
 757              		.loc 1 192 0
 758 00ea 1A1C     		mov	r2, r3
 759 00ec 0832     		add	r2, r2, #8
 760 00ee 9200     		lsl	r2, r2, #2
 761 00f0 1159     		ldr	r1, [r2, r4]
 762 00f2 1A1C     		mov	r2, r3
 763 00f4 1832     		add	r2, r2, #24
 764 00f6 9200     		lsl	r2, r2, #2
 765 00f8 A218     		add	r2, r4, r2
ARM GAS  C:\Users\ddemidov\AppData\Local\Temp\ccxqLn2e.s 			page 20


 766 00fa 5160     		str	r1, [r2, #4]
 190:..\kronos-c-sdk\src\wolfSSL\wolfcrypt\src/rabbit.c ****         ctx->workCtx.x[i] = ctx->masterCtx.x[i];
 767              		.loc 1 190 0
 768 00fc 0133     		add	r3, r3, #1
 769              	.LVL83:
 770              	.L22:
 771 00fe 072B     		cmp	r3, #7
 772 0100 ECD9     		bls	.L23
 194:..\kronos-c-sdk\src\wolfSSL\wolfcrypt\src/rabbit.c **** 
 773              		.loc 1 194 0
 774 0102 8423     		mov	r3, #132
 775              	.LVL84:
 776 0104 226C     		ldr	r2, [r4, #64]
 777 0106 E250     		str	r2, [r4, r3]
 196:..\kronos-c-sdk\src\wolfSSL\wolfcrypt\src/rabbit.c **** 
 778              		.loc 1 196 0
 779 0108 201C     		mov	r0, r4
 780 010a 0199     		ldr	r1, [sp, #4]
 781 010c FFF7FEFF 		bl	wc_RabbitSetIV
 782              	.LVL85:
 783 0110 74E0     		b	.L24
 784              	.LVL86:
 785              	.L17:
 786              	.LBE81:
 787              	.LBE80:
 788              	.LBE79:
 789              	.LBB90:
 790              	.LBB91:
 153:..\kronos-c-sdk\src\wolfSSL\wolfcrypt\src/rabbit.c ****     k1 = LITTLE32(*(word32*)(key+ 4));
 791              		.loc 1 153 0
 792 0112 0D68     		ldr	r5, [r1]
 793              	.LVL87:
 154:..\kronos-c-sdk\src\wolfSSL\wolfcrypt\src/rabbit.c ****     k2 = LITTLE32(*(word32*)(key+ 8));
 794              		.loc 1 154 0
 795 0114 4868     		ldr	r0, [r1, #4]
 796              	.LVL88:
 155:..\kronos-c-sdk\src\wolfSSL\wolfcrypt\src/rabbit.c ****     k3 = LITTLE32(*(word32*)(key+12));
 797              		.loc 1 155 0
 798 0116 8F68     		ldr	r7, [r1, #8]
 799              	.LVL89:
 156:..\kronos-c-sdk\src\wolfSSL\wolfcrypt\src/rabbit.c **** 
 800              		.loc 1 156 0
 801 0118 CE68     		ldr	r6, [r1, #12]
 802              	.LVL90:
 159:..\kronos-c-sdk\src\wolfSSL\wolfcrypt\src/rabbit.c ****     ctx->masterCtx.x[2] = k1;
 803              		.loc 1 159 0
 804 011a 2560     		str	r5, [r4]
 160:..\kronos-c-sdk\src\wolfSSL\wolfcrypt\src/rabbit.c ****     ctx->masterCtx.x[4] = k2;
 805              		.loc 1 160 0
 806 011c A060     		str	r0, [r4, #8]
 161:..\kronos-c-sdk\src\wolfSSL\wolfcrypt\src/rabbit.c ****     ctx->masterCtx.x[6] = k3;
 807              		.loc 1 161 0
 808 011e 2761     		str	r7, [r4, #16]
 162:..\kronos-c-sdk\src\wolfSSL\wolfcrypt\src/rabbit.c ****     ctx->masterCtx.x[1] = U32V(k3<<16) | (k2>>16);
 809              		.loc 1 162 0
 810 0120 A661     		str	r6, [r4, #24]
 163:..\kronos-c-sdk\src\wolfSSL\wolfcrypt\src/rabbit.c ****     ctx->masterCtx.x[3] = U32V(k0<<16) | (k3>>16);
ARM GAS  C:\Users\ddemidov\AppData\Local\Temp\ccxqLn2e.s 			page 21


 811              		.loc 1 163 0
 812 0122 3304     		lsl	r3, r6, #16
 813 0124 3A0C     		lsr	r2, r7, #16
 814              	.LVL91:
 815 0126 9046     		mov	r8, r2
 816 0128 1A43     		orr	r2, r3
 817 012a 6260     		str	r2, [r4, #4]
 164:..\kronos-c-sdk\src\wolfSSL\wolfcrypt\src/rabbit.c ****     ctx->masterCtx.x[5] = U32V(k1<<16) | (k0>>16);
 818              		.loc 1 164 0
 819 012c 2A04     		lsl	r2, r5, #16
 820 012e 310C     		lsr	r1, r6, #16
 821              	.LVL92:
 822 0130 8C46     		mov	ip, r1
 823 0132 0392     		str	r2, [sp, #12]
 824 0134 0A43     		orr	r2, r1
 825 0136 E260     		str	r2, [r4, #12]
 165:..\kronos-c-sdk\src\wolfSSL\wolfcrypt\src/rabbit.c ****     ctx->masterCtx.x[7] = U32V(k2<<16) | (k1>>16);
 826              		.loc 1 165 0
 827 0138 0104     		lsl	r1, r0, #16
 828 013a 0291     		str	r1, [sp, #8]
 829 013c 290C     		lsr	r1, r5, #16
 830 013e 8A46     		mov	r10, r1
 831 0140 0A1C     		mov	r2, r1
 832 0142 0299     		ldr	r1, [sp, #8]
 833 0144 0A43     		orr	r2, r1
 834 0146 6261     		str	r2, [r4, #20]
 166:..\kronos-c-sdk\src\wolfSSL\wolfcrypt\src/rabbit.c **** 
 835              		.loc 1 166 0
 836 0148 3A04     		lsl	r2, r7, #16
 837 014a 010C     		lsr	r1, r0, #16
 838 014c 8946     		mov	r9, r1
 839 014e 1143     		orr	r1, r2
 840 0150 E161     		str	r1, [r4, #28]
 841              	.LVL93:
 842              	.LBB92:
 843              	.LBB93:
 844              		.loc 2 70 0
 845 0152 1021     		mov	r1, #16
 846 0154 CF41     		ror	r7, r7, r1
 847              	.LVL94:
 848              	.LBE93:
 849              	.LBE92:
 169:..\kronos-c-sdk\src\wolfSSL\wolfcrypt\src/rabbit.c ****     ctx->masterCtx.c[2] = rotlFixed(k3, 16);
 850              		.loc 1 169 0
 851 0156 2762     		str	r7, [r4, #32]
 852              	.LVL95:
 853              	.LBB94:
 854              	.LBB95:
 855              		.loc 2 70 0
 856 0158 CE41     		ror	r6, r6, r1
 857              	.LVL96:
 858              	.LBE95:
 859              	.LBE94:
 170:..\kronos-c-sdk\src\wolfSSL\wolfcrypt\src/rabbit.c ****     ctx->masterCtx.c[4] = rotlFixed(k0, 16);
 860              		.loc 1 170 0
 861 015a A662     		str	r6, [r4, #40]
 862              	.LVL97:
ARM GAS  C:\Users\ddemidov\AppData\Local\Temp\ccxqLn2e.s 			page 22


 863              	.LBB96:
 864              	.LBB97:
 865              		.loc 2 70 0
 866 015c CD41     		ror	r5, r5, r1
 867              	.LVL98:
 868              	.LBE97:
 869              	.LBE96:
 171:..\kronos-c-sdk\src\wolfSSL\wolfcrypt\src/rabbit.c ****     ctx->masterCtx.c[6] = rotlFixed(k1, 16);
 870              		.loc 1 171 0
 871 015e 2563     		str	r5, [r4, #48]
 872              	.LVL99:
 873              	.LBB98:
 874              	.LBB99:
 875              		.loc 2 70 0
 876 0160 C841     		ror	r0, r0, r1
 877              	.LVL100:
 878              	.LBE99:
 879              	.LBE98:
 172:..\kronos-c-sdk\src\wolfSSL\wolfcrypt\src/rabbit.c ****     ctx->masterCtx.c[1] = (k0&0xFFFF0000) | (k1&0xFFFF);
 880              		.loc 1 172 0
 881 0162 A063     		str	r0, [r4, #56]
 173:..\kronos-c-sdk\src\wolfSSL\wolfcrypt\src/rabbit.c ****     ctx->masterCtx.c[3] = (k1&0xFFFF0000) | (k2&0xFFFF);
 882              		.loc 1 173 0
 883 0164 5146     		mov	r1, r10
 884 0166 0804     		lsl	r0, r1, #16
 885 0168 0299     		ldr	r1, [sp, #8]
 886 016a 090C     		lsr	r1, r1, #16
 887 016c 0143     		orr	r1, r0
 888 016e 6162     		str	r1, [r4, #36]
 174:..\kronos-c-sdk\src\wolfSSL\wolfcrypt\src/rabbit.c ****     ctx->masterCtx.c[5] = (k2&0xFFFF0000) | (k3&0xFFFF);
 889              		.loc 1 174 0
 890 0170 4946     		mov	r1, r9
 891 0172 0904     		lsl	r1, r1, #16
 892 0174 120C     		lsr	r2, r2, #16
 893 0176 0A43     		orr	r2, r1
 894 0178 E262     		str	r2, [r4, #44]
 175:..\kronos-c-sdk\src\wolfSSL\wolfcrypt\src/rabbit.c ****     ctx->masterCtx.c[7] = (k3&0xFFFF0000) | (k0&0xFFFF);
 895              		.loc 1 175 0
 896 017a 4146     		mov	r1, r8
 897 017c 0A04     		lsl	r2, r1, #16
 898 017e 1B0C     		lsr	r3, r3, #16
 899 0180 1343     		orr	r3, r2
 900 0182 6363     		str	r3, [r4, #52]
 176:..\kronos-c-sdk\src\wolfSSL\wolfcrypt\src/rabbit.c **** 
 901              		.loc 1 176 0
 902 0184 6146     		mov	r1, ip
 903 0186 0A04     		lsl	r2, r1, #16
 904 0188 039B     		ldr	r3, [sp, #12]
 905 018a 1B0C     		lsr	r3, r3, #16
 906 018c 1343     		orr	r3, r2
 907 018e E363     		str	r3, [r4, #60]
 179:..\kronos-c-sdk\src\wolfSSL\wolfcrypt\src/rabbit.c **** 
 908              		.loc 1 179 0
 909 0190 0023     		mov	r3, #0
 910 0192 2364     		str	r3, [r4, #64]
 911              	.LVL101:
 182:..\kronos-c-sdk\src\wolfSSL\wolfcrypt\src/rabbit.c ****         RABBIT_next_state(&(ctx->masterCtx));
ARM GAS  C:\Users\ddemidov\AppData\Local\Temp\ccxqLn2e.s 			page 23


 912              		.loc 1 182 0
 913 0194 0025     		mov	r5, #0
 914 0196 03E0     		b	.L25
 915              	.LVL102:
 916              	.L26:
 183:..\kronos-c-sdk\src\wolfSSL\wolfcrypt\src/rabbit.c **** 
 917              		.loc 1 183 0
 918 0198 201C     		mov	r0, r4
 919 019a FFF7FEFF 		bl	RABBIT_next_state
 920              	.LVL103:
 182:..\kronos-c-sdk\src\wolfSSL\wolfcrypt\src/rabbit.c ****         RABBIT_next_state(&(ctx->masterCtx));
 921              		.loc 1 182 0
 922 019e 0135     		add	r5, r5, #1
 923              	.LVL104:
 924              	.L25:
 925 01a0 032D     		cmp	r5, #3
 926 01a2 F9D9     		bls	.L26
 927 01a4 0021     		mov	r1, #0
 928 01a6 0BE0     		b	.L27
 929              	.LVL105:
 930              	.L28:
 187:..\kronos-c-sdk\src\wolfSSL\wolfcrypt\src/rabbit.c **** 
 931              		.loc 1 187 0
 932 01a8 0B1D     		add	r3, r1, #4
 933 01aa 0722     		mov	r2, #7
 934 01ac 1340     		and	r3, r2
 935 01ae 9B00     		lsl	r3, r3, #2
 936 01b0 1A59     		ldr	r2, [r3, r4]
 937 01b2 0B1C     		mov	r3, r1
 938 01b4 0833     		add	r3, r3, #8
 939 01b6 9B00     		lsl	r3, r3, #2
 940 01b8 1859     		ldr	r0, [r3, r4]
 941 01ba 4240     		eor	r2, r0
 942 01bc 1A51     		str	r2, [r3, r4]
 186:..\kronos-c-sdk\src\wolfSSL\wolfcrypt\src/rabbit.c ****         ctx->masterCtx.c[i] ^= ctx->masterCtx.x[(i+4)&0x7];
 943              		.loc 1 186 0
 944 01be 0131     		add	r1, r1, #1
 945              	.LVL106:
 946              	.L27:
 947 01c0 0729     		cmp	r1, #7
 948 01c2 F1D9     		bls	.L28
 949 01c4 0023     		mov	r3, #0
 950 01c6 10E0     		b	.L29
 951              	.LVL107:
 952              	.L30:
 191:..\kronos-c-sdk\src\wolfSSL\wolfcrypt\src/rabbit.c ****         ctx->workCtx.c[i] = ctx->masterCtx.c[i];
 953              		.loc 1 191 0
 954 01c8 9A00     		lsl	r2, r3, #2
 955 01ca 1159     		ldr	r1, [r2, r4]
 956 01cc 1A1C     		mov	r2, r3
 957 01ce 1032     		add	r2, r2, #16
 958 01d0 9200     		lsl	r2, r2, #2
 959 01d2 A218     		add	r2, r4, r2
 960 01d4 5160     		str	r1, [r2, #4]
 192:..\kronos-c-sdk\src\wolfSSL\wolfcrypt\src/rabbit.c ****     }
 961              		.loc 1 192 0
 962 01d6 1A1C     		mov	r2, r3
ARM GAS  C:\Users\ddemidov\AppData\Local\Temp\ccxqLn2e.s 			page 24


 963 01d8 0832     		add	r2, r2, #8
 964 01da 9200     		lsl	r2, r2, #2
 965 01dc 1159     		ldr	r1, [r2, r4]
 966 01de 1A1C     		mov	r2, r3
 967 01e0 1832     		add	r2, r2, #24
 968 01e2 9200     		lsl	r2, r2, #2
 969 01e4 A218     		add	r2, r4, r2
 970 01e6 5160     		str	r1, [r2, #4]
 190:..\kronos-c-sdk\src\wolfSSL\wolfcrypt\src/rabbit.c ****         ctx->workCtx.x[i] = ctx->masterCtx.x[i];
 971              		.loc 1 190 0
 972 01e8 0133     		add	r3, r3, #1
 973              	.LVL108:
 974              	.L29:
 975 01ea 072B     		cmp	r3, #7
 976 01ec ECD9     		bls	.L30
 194:..\kronos-c-sdk\src\wolfSSL\wolfcrypt\src/rabbit.c **** 
 977              		.loc 1 194 0
 978 01ee 8423     		mov	r3, #132
 979              	.LVL109:
 980 01f0 226C     		ldr	r2, [r4, #64]
 981 01f2 E250     		str	r2, [r4, r3]
 196:..\kronos-c-sdk\src\wolfSSL\wolfcrypt\src/rabbit.c **** 
 982              		.loc 1 196 0
 983 01f4 201C     		mov	r0, r4
 984 01f6 0199     		ldr	r1, [sp, #4]
 985 01f8 FFF7FEFF 		bl	wc_RabbitSetIV
 986              	.LVL110:
 987              	.L24:
 988              	.LBE91:
 989              	.LBE90:
 213:..\kronos-c-sdk\src\wolfSSL\wolfcrypt\src/rabbit.c **** 
 214:..\kronos-c-sdk\src\wolfSSL\wolfcrypt\src/rabbit.c ****         return DoKey(ctx, (const byte*)alignKey, iv);
 215:..\kronos-c-sdk\src\wolfSSL\wolfcrypt\src/rabbit.c ****     }
 216:..\kronos-c-sdk\src\wolfSSL\wolfcrypt\src/rabbit.c **** #endif /* XSTREAM_ALIGN */
 217:..\kronos-c-sdk\src\wolfSSL\wolfcrypt\src/rabbit.c **** 
 218:..\kronos-c-sdk\src\wolfSSL\wolfcrypt\src/rabbit.c ****     return DoKey(ctx, key, iv);
 219:..\kronos-c-sdk\src\wolfSSL\wolfcrypt\src/rabbit.c **** }
 990              		.loc 1 219 0 discriminator 1
 991 01fc 0020     		mov	r0, #0
 992 01fe 09B0     		add	sp, sp, #36
 993              		@ sp needed
 994              	.LVL111:
 995 0200 3CBC     		pop	{r2, r3, r4, r5}
 996 0202 9046     		mov	r8, r2
 997 0204 9946     		mov	r9, r3
 998 0206 A246     		mov	r10, r4
 999 0208 AB46     		mov	fp, r5
 1000 020a F0BD     		pop	{r4, r5, r6, r7, pc}
 1001              		.cfi_endproc
 1002              	.LFE16:
 1003              		.size	wc_RabbitSetKey, .-wc_RabbitSetKey
 1004              		.section	.text.wc_RabbitProcess,"ax",%progbits
 1005              		.align	2
 1006              		.global	wc_RabbitProcess
 1007              		.code	16
 1008              		.thumb_func
 1009              		.type	wc_RabbitProcess, %function
ARM GAS  C:\Users\ddemidov\AppData\Local\Temp\ccxqLn2e.s 			page 25


 1010              	wc_RabbitProcess:
 1011              	.LFB18:
 220:..\kronos-c-sdk\src\wolfSSL\wolfcrypt\src/rabbit.c **** 
 221:..\kronos-c-sdk\src\wolfSSL\wolfcrypt\src/rabbit.c **** 
 222:..\kronos-c-sdk\src\wolfSSL\wolfcrypt\src/rabbit.c **** /* Encrypt/decrypt a message of any size */
 223:..\kronos-c-sdk\src\wolfSSL\wolfcrypt\src/rabbit.c **** static INLINE int DoProcess(Rabbit* ctx, byte* output, const byte* input,
 224:..\kronos-c-sdk\src\wolfSSL\wolfcrypt\src/rabbit.c ****                             word32 msglen)
 225:..\kronos-c-sdk\src\wolfSSL\wolfcrypt\src/rabbit.c **** {
 226:..\kronos-c-sdk\src\wolfSSL\wolfcrypt\src/rabbit.c ****     /* Encrypt/decrypt all full blocks */
 227:..\kronos-c-sdk\src\wolfSSL\wolfcrypt\src/rabbit.c ****     while (msglen >= 16) {
 228:..\kronos-c-sdk\src\wolfSSL\wolfcrypt\src/rabbit.c ****         /* Iterate the system */
 229:..\kronos-c-sdk\src\wolfSSL\wolfcrypt\src/rabbit.c ****         RABBIT_next_state(&(ctx->workCtx));
 230:..\kronos-c-sdk\src\wolfSSL\wolfcrypt\src/rabbit.c **** 
 231:..\kronos-c-sdk\src\wolfSSL\wolfcrypt\src/rabbit.c ****         /* Encrypt/decrypt 16 bytes of data */
 232:..\kronos-c-sdk\src\wolfSSL\wolfcrypt\src/rabbit.c ****         *(word32*)(output+ 0) = *(word32*)(input+ 0) ^
 233:..\kronos-c-sdk\src\wolfSSL\wolfcrypt\src/rabbit.c ****                    LITTLE32(ctx->workCtx.x[0] ^ (ctx->workCtx.x[5]>>16) ^
 234:..\kronos-c-sdk\src\wolfSSL\wolfcrypt\src/rabbit.c ****                    U32V(ctx->workCtx.x[3]<<16));
 235:..\kronos-c-sdk\src\wolfSSL\wolfcrypt\src/rabbit.c ****         *(word32*)(output+ 4) = *(word32*)(input+ 4) ^
 236:..\kronos-c-sdk\src\wolfSSL\wolfcrypt\src/rabbit.c ****                    LITTLE32(ctx->workCtx.x[2] ^ (ctx->workCtx.x[7]>>16) ^
 237:..\kronos-c-sdk\src\wolfSSL\wolfcrypt\src/rabbit.c ****                    U32V(ctx->workCtx.x[5]<<16));
 238:..\kronos-c-sdk\src\wolfSSL\wolfcrypt\src/rabbit.c ****         *(word32*)(output+ 8) = *(word32*)(input+ 8) ^
 239:..\kronos-c-sdk\src\wolfSSL\wolfcrypt\src/rabbit.c ****                    LITTLE32(ctx->workCtx.x[4] ^ (ctx->workCtx.x[1]>>16) ^
 240:..\kronos-c-sdk\src\wolfSSL\wolfcrypt\src/rabbit.c ****                    U32V(ctx->workCtx.x[7]<<16));
 241:..\kronos-c-sdk\src\wolfSSL\wolfcrypt\src/rabbit.c ****         *(word32*)(output+12) = *(word32*)(input+12) ^
 242:..\kronos-c-sdk\src\wolfSSL\wolfcrypt\src/rabbit.c ****                    LITTLE32(ctx->workCtx.x[6] ^ (ctx->workCtx.x[3]>>16) ^
 243:..\kronos-c-sdk\src\wolfSSL\wolfcrypt\src/rabbit.c ****                    U32V(ctx->workCtx.x[1]<<16));
 244:..\kronos-c-sdk\src\wolfSSL\wolfcrypt\src/rabbit.c **** 
 245:..\kronos-c-sdk\src\wolfSSL\wolfcrypt\src/rabbit.c ****         /* Increment pointers and decrement length */
 246:..\kronos-c-sdk\src\wolfSSL\wolfcrypt\src/rabbit.c ****         input  += 16;
 247:..\kronos-c-sdk\src\wolfSSL\wolfcrypt\src/rabbit.c ****         output += 16;
 248:..\kronos-c-sdk\src\wolfSSL\wolfcrypt\src/rabbit.c ****         msglen -= 16;
 249:..\kronos-c-sdk\src\wolfSSL\wolfcrypt\src/rabbit.c ****     }
 250:..\kronos-c-sdk\src\wolfSSL\wolfcrypt\src/rabbit.c **** 
 251:..\kronos-c-sdk\src\wolfSSL\wolfcrypt\src/rabbit.c ****     /* Encrypt/decrypt remaining data */
 252:..\kronos-c-sdk\src\wolfSSL\wolfcrypt\src/rabbit.c ****     if (msglen) {
 253:..\kronos-c-sdk\src\wolfSSL\wolfcrypt\src/rabbit.c **** 
 254:..\kronos-c-sdk\src\wolfSSL\wolfcrypt\src/rabbit.c ****         word32 i;
 255:..\kronos-c-sdk\src\wolfSSL\wolfcrypt\src/rabbit.c ****         word32 tmp[4];
 256:..\kronos-c-sdk\src\wolfSSL\wolfcrypt\src/rabbit.c ****         byte*  buffer = (byte*)tmp;
 257:..\kronos-c-sdk\src\wolfSSL\wolfcrypt\src/rabbit.c **** 
 258:..\kronos-c-sdk\src\wolfSSL\wolfcrypt\src/rabbit.c ****         XMEMSET(tmp, 0, sizeof(tmp));   /* help static analysis */
 259:..\kronos-c-sdk\src\wolfSSL\wolfcrypt\src/rabbit.c **** 
 260:..\kronos-c-sdk\src\wolfSSL\wolfcrypt\src/rabbit.c ****         /* Iterate the system */
 261:..\kronos-c-sdk\src\wolfSSL\wolfcrypt\src/rabbit.c ****         RABBIT_next_state(&(ctx->workCtx));
 262:..\kronos-c-sdk\src\wolfSSL\wolfcrypt\src/rabbit.c **** 
 263:..\kronos-c-sdk\src\wolfSSL\wolfcrypt\src/rabbit.c ****         /* Generate 16 bytes of pseudo-random data */
 264:..\kronos-c-sdk\src\wolfSSL\wolfcrypt\src/rabbit.c ****         tmp[0] = LITTLE32(ctx->workCtx.x[0] ^
 265:..\kronos-c-sdk\src\wolfSSL\wolfcrypt\src/rabbit.c ****                   (ctx->workCtx.x[5]>>16) ^ U32V(ctx->workCtx.x[3]<<16));
 266:..\kronos-c-sdk\src\wolfSSL\wolfcrypt\src/rabbit.c ****         tmp[1] = LITTLE32(ctx->workCtx.x[2] ^ 
 267:..\kronos-c-sdk\src\wolfSSL\wolfcrypt\src/rabbit.c ****                   (ctx->workCtx.x[7]>>16) ^ U32V(ctx->workCtx.x[5]<<16));
 268:..\kronos-c-sdk\src\wolfSSL\wolfcrypt\src/rabbit.c ****         tmp[2] = LITTLE32(ctx->workCtx.x[4] ^ 
 269:..\kronos-c-sdk\src\wolfSSL\wolfcrypt\src/rabbit.c ****                   (ctx->workCtx.x[1]>>16) ^ U32V(ctx->workCtx.x[7]<<16));
 270:..\kronos-c-sdk\src\wolfSSL\wolfcrypt\src/rabbit.c ****         tmp[3] = LITTLE32(ctx->workCtx.x[6] ^ 
 271:..\kronos-c-sdk\src\wolfSSL\wolfcrypt\src/rabbit.c ****                   (ctx->workCtx.x[3]>>16) ^ U32V(ctx->workCtx.x[1]<<16));
 272:..\kronos-c-sdk\src\wolfSSL\wolfcrypt\src/rabbit.c **** 
 273:..\kronos-c-sdk\src\wolfSSL\wolfcrypt\src/rabbit.c ****         /* Encrypt/decrypt the data */
 274:..\kronos-c-sdk\src\wolfSSL\wolfcrypt\src/rabbit.c ****         for (i=0; i<msglen; i++)
ARM GAS  C:\Users\ddemidov\AppData\Local\Temp\ccxqLn2e.s 			page 26


 275:..\kronos-c-sdk\src\wolfSSL\wolfcrypt\src/rabbit.c ****             output[i] = input[i] ^ buffer[i];
 276:..\kronos-c-sdk\src\wolfSSL\wolfcrypt\src/rabbit.c ****     }
 277:..\kronos-c-sdk\src\wolfSSL\wolfcrypt\src/rabbit.c **** 
 278:..\kronos-c-sdk\src\wolfSSL\wolfcrypt\src/rabbit.c ****     return 0;
 279:..\kronos-c-sdk\src\wolfSSL\wolfcrypt\src/rabbit.c **** }
 280:..\kronos-c-sdk\src\wolfSSL\wolfcrypt\src/rabbit.c **** 
 281:..\kronos-c-sdk\src\wolfSSL\wolfcrypt\src/rabbit.c **** 
 282:..\kronos-c-sdk\src\wolfSSL\wolfcrypt\src/rabbit.c **** /* Encrypt/decrypt a message of any size */
 283:..\kronos-c-sdk\src\wolfSSL\wolfcrypt\src/rabbit.c **** int wc_RabbitProcess(Rabbit* ctx, byte* output, const byte* input, word32 msglen)
 284:..\kronos-c-sdk\src\wolfSSL\wolfcrypt\src/rabbit.c **** {
 1012              		.loc 1 284 0
 1013              		.cfi_startproc
 1014              	.LVL112:
 1015 0000 F0B5     		push	{r4, r5, r6, r7, lr}
 1016              		.cfi_def_cfa_offset 20
 1017              		.cfi_offset 4, -20
 1018              		.cfi_offset 5, -16
 1019              		.cfi_offset 6, -12
 1020              		.cfi_offset 7, -8
 1021              		.cfi_offset 14, -4
 1022 0002 5746     		mov	r7, r10
 1023 0004 4646     		mov	r6, r8
 1024 0006 C0B4     		push	{r6, r7}
 1025              		.cfi_def_cfa_offset 28
 1026              		.cfi_offset 8, -28
 1027              		.cfi_offset 10, -24
 1028 0008 87B0     		sub	sp, sp, #28
 1029              		.cfi_def_cfa_offset 56
 1030 000a 041C     		mov	r4, r0
 1031 000c 0E1C     		mov	r6, r1
 1032 000e 151C     		mov	r5, r2
 1033 0010 9A46     		mov	r10, r3
 285:..\kronos-c-sdk\src\wolfSSL\wolfcrypt\src/rabbit.c **** #ifdef XSTREAM_ALIGN
 286:..\kronos-c-sdk\src\wolfSSL\wolfcrypt\src/rabbit.c ****     if ((wolfssl_word)input % 4 || (wolfssl_word)output % 4) {
 1034              		.loc 1 286 0
 1035 0012 9307     		lsl	r3, r2, #30
 1036 0014 02D1     		bne	.L32
 1037              	.LVL113:
 1038              		.loc 1 286 0 is_stmt 0 discriminator 1
 1039 0016 8B07     		lsl	r3, r1, #30
 1040 0018 00D1     		bne	.LCB1089
 1041 001a B4E0     		b	.L33	@long jump
 1042              	.LCB1089:
 1043              	.L32:
 1044              	.LBB108:
 287:..\kronos-c-sdk\src\wolfSSL\wolfcrypt\src/rabbit.c ****         #ifndef NO_WOLFSSL_ALLOC_ALIGN
 288:..\kronos-c-sdk\src\wolfSSL\wolfcrypt\src/rabbit.c ****             byte* tmp;
 289:..\kronos-c-sdk\src\wolfSSL\wolfcrypt\src/rabbit.c ****             WOLFSSL_MSG("wc_RabbitProcess unaligned");
 290:..\kronos-c-sdk\src\wolfSSL\wolfcrypt\src/rabbit.c **** 
 291:..\kronos-c-sdk\src\wolfSSL\wolfcrypt\src/rabbit.c ****             tmp = (byte*)XMALLOC(msglen, NULL, DYNAMIC_TYPE_TMP_BUFFER);
 1045              		.loc 1 291 0 is_stmt 1
 1046 001c 5046     		mov	r0, r10
 1047              	.LVL114:
 1048 001e FFF7FEFF 		bl	wolfSSL_Malloc
 1049              	.LVL115:
 1050 0022 0090     		str	r0, [sp]
 1051              	.LVL116:
ARM GAS  C:\Users\ddemidov\AppData\Local\Temp\ccxqLn2e.s 			page 27


 292:..\kronos-c-sdk\src\wolfSSL\wolfcrypt\src/rabbit.c ****             if (tmp == NULL) return MEMORY_E;
 1052              		.loc 1 292 0
 1053 0024 071E     		sub	r7, r0, #0
 1054 0026 00D1     		bne	.LCB1102
 1055 0028 E3E0     		b	.L44	@long jump
 1056              	.LCB1102:
 293:..\kronos-c-sdk\src\wolfSSL\wolfcrypt\src/rabbit.c **** 
 294:..\kronos-c-sdk\src\wolfSSL\wolfcrypt\src/rabbit.c ****             XMEMCPY(tmp, input, msglen);
 1057              		.loc 1 294 0
 1058 002a 291C     		mov	r1, r5
 1059 002c 5246     		mov	r2, r10
 1060 002e FFF7FEFF 		bl	memcpy
 1061              	.LVL117:
 1062 0032 D046     		mov	r8, r10
 1063 0034 3D1C     		mov	r5, r7
 1064              	.LVL118:
 1065 0036 31E0     		b	.L35
 1066              	.LVL119:
 1067              	.L36:
 1068              	.LBB109:
 1069              	.LBB110:
 229:..\kronos-c-sdk\src\wolfSSL\wolfcrypt\src/rabbit.c **** 
 1070              		.loc 1 229 0
 1071 0038 201C     		mov	r0, r4
 1072 003a 4430     		add	r0, r0, #68
 1073 003c FFF7FEFF 		bl	RABBIT_next_state
 1074              	.LVL120:
 233:..\kronos-c-sdk\src\wolfSSL\wolfcrypt\src/rabbit.c ****                    U32V(ctx->workCtx.x[3]<<16));
 1075              		.loc 1 233 0
 1076 0040 A36D     		ldr	r3, [r4, #88]
 1077 0042 1B0C     		lsr	r3, r3, #16
 1078 0044 626C     		ldr	r2, [r4, #68]
 1079 0046 5340     		eor	r3, r2
 1080 0048 226D     		ldr	r2, [r4, #80]
 1081 004a 1204     		lsl	r2, r2, #16
 1082 004c 5340     		eor	r3, r2
 232:..\kronos-c-sdk\src\wolfSSL\wolfcrypt\src/rabbit.c ****                    LITTLE32(ctx->workCtx.x[0] ^ (ctx->workCtx.x[5]>>16) ^
 1083              		.loc 1 232 0
 1084 004e 2A68     		ldr	r2, [r5]
 1085 0050 5340     		eor	r3, r2
 1086 0052 3B60     		str	r3, [r7]
 236:..\kronos-c-sdk\src\wolfSSL\wolfcrypt\src/rabbit.c ****                    U32V(ctx->workCtx.x[5]<<16));
 1087              		.loc 1 236 0
 1088 0054 236E     		ldr	r3, [r4, #96]
 1089 0056 1B0C     		lsr	r3, r3, #16
 1090 0058 E26C     		ldr	r2, [r4, #76]
 1091 005a 5340     		eor	r3, r2
 1092 005c A26D     		ldr	r2, [r4, #88]
 1093 005e 1204     		lsl	r2, r2, #16
 1094 0060 5340     		eor	r3, r2
 235:..\kronos-c-sdk\src\wolfSSL\wolfcrypt\src/rabbit.c ****                    LITTLE32(ctx->workCtx.x[2] ^ (ctx->workCtx.x[7]>>16) ^
 1095              		.loc 1 235 0
 1096 0062 6A68     		ldr	r2, [r5, #4]
 1097 0064 5340     		eor	r3, r2
 1098 0066 7B60     		str	r3, [r7, #4]
 239:..\kronos-c-sdk\src\wolfSSL\wolfcrypt\src/rabbit.c ****                    U32V(ctx->workCtx.x[7]<<16));
 1099              		.loc 1 239 0
ARM GAS  C:\Users\ddemidov\AppData\Local\Temp\ccxqLn2e.s 			page 28


 1100 0068 A36C     		ldr	r3, [r4, #72]
 1101 006a 1B0C     		lsr	r3, r3, #16
 1102 006c 626D     		ldr	r2, [r4, #84]
 1103 006e 5340     		eor	r3, r2
 1104 0070 226E     		ldr	r2, [r4, #96]
 1105 0072 1204     		lsl	r2, r2, #16
 1106 0074 5340     		eor	r3, r2
 238:..\kronos-c-sdk\src\wolfSSL\wolfcrypt\src/rabbit.c ****                    LITTLE32(ctx->workCtx.x[4] ^ (ctx->workCtx.x[1]>>16) ^
 1107              		.loc 1 238 0
 1108 0076 AA68     		ldr	r2, [r5, #8]
 1109 0078 5340     		eor	r3, r2
 1110 007a BB60     		str	r3, [r7, #8]
 242:..\kronos-c-sdk\src\wolfSSL\wolfcrypt\src/rabbit.c ****                    U32V(ctx->workCtx.x[1]<<16));
 1111              		.loc 1 242 0
 1112 007c 236D     		ldr	r3, [r4, #80]
 1113 007e 1B0C     		lsr	r3, r3, #16
 1114 0080 E26D     		ldr	r2, [r4, #92]
 1115 0082 5340     		eor	r3, r2
 1116 0084 A26C     		ldr	r2, [r4, #72]
 1117 0086 1204     		lsl	r2, r2, #16
 1118 0088 5340     		eor	r3, r2
 241:..\kronos-c-sdk\src\wolfSSL\wolfcrypt\src/rabbit.c ****                    LITTLE32(ctx->workCtx.x[6] ^ (ctx->workCtx.x[3]>>16) ^
 1119              		.loc 1 241 0
 1120 008a EA68     		ldr	r2, [r5, #12]
 1121 008c 5340     		eor	r3, r2
 1122 008e FB60     		str	r3, [r7, #12]
 246:..\kronos-c-sdk\src\wolfSSL\wolfcrypt\src/rabbit.c ****         output += 16;
 1123              		.loc 1 246 0
 1124 0090 1035     		add	r5, r5, #16
 1125              	.LVL121:
 247:..\kronos-c-sdk\src\wolfSSL\wolfcrypt\src/rabbit.c ****         msglen -= 16;
 1126              		.loc 1 247 0
 1127 0092 1037     		add	r7, r7, #16
 1128              	.LVL122:
 248:..\kronos-c-sdk\src\wolfSSL\wolfcrypt\src/rabbit.c ****     }
 1129              		.loc 1 248 0
 1130 0094 1023     		mov	r3, #16
 1131 0096 5B42     		neg	r3, r3
 1132 0098 9C46     		mov	ip, r3
 1133 009a E044     		add	r8, r8, ip
 1134              	.LVL123:
 1135              	.L35:
 227:..\kronos-c-sdk\src\wolfSSL\wolfcrypt\src/rabbit.c ****         /* Iterate the system */
 1136              		.loc 1 227 0
 1137 009c 4346     		mov	r3, r8
 1138 009e 0F2B     		cmp	r3, #15
 1139 00a0 CAD8     		bhi	.L36
 1140              	.LVL124:
 252:..\kronos-c-sdk\src\wolfSSL\wolfcrypt\src/rabbit.c **** 
 1141              		.loc 1 252 0
 1142 00a2 002B     		cmp	r3, #0
 1143 00a4 30D0     		beq	.L37
 1144              	.LVL125:
 1145              	.LBB111:
 258:..\kronos-c-sdk\src\wolfSSL\wolfcrypt\src/rabbit.c **** 
 1146              		.loc 1 258 0
 1147 00a6 0023     		mov	r3, #0
ARM GAS  C:\Users\ddemidov\AppData\Local\Temp\ccxqLn2e.s 			page 29


 1148              	.LVL126:
 1149 00a8 0293     		str	r3, [sp, #8]
 1150 00aa 0393     		str	r3, [sp, #12]
 1151 00ac 0493     		str	r3, [sp, #16]
 1152 00ae 0593     		str	r3, [sp, #20]
 261:..\kronos-c-sdk\src\wolfSSL\wolfcrypt\src/rabbit.c **** 
 1153              		.loc 1 261 0
 1154 00b0 201C     		mov	r0, r4
 1155 00b2 4430     		add	r0, r0, #68
 1156 00b4 FFF7FEFF 		bl	RABBIT_next_state
 1157              	.LVL127:
 264:..\kronos-c-sdk\src\wolfSSL\wolfcrypt\src/rabbit.c ****                   (ctx->workCtx.x[5]>>16) ^ U32V(ctx->workCtx.x[3]<<16));
 1158              		.loc 1 264 0
 1159 00b8 A36D     		ldr	r3, [r4, #88]
 1160 00ba 190C     		lsr	r1, r3, #16
 1161 00bc 626C     		ldr	r2, [r4, #68]
 1162 00be 5140     		eor	r1, r2
 1163 00c0 226D     		ldr	r2, [r4, #80]
 1164 00c2 1004     		lsl	r0, r2, #16
 1165 00c4 4140     		eor	r1, r0
 1166 00c6 0291     		str	r1, [sp, #8]
 266:..\kronos-c-sdk\src\wolfSSL\wolfcrypt\src/rabbit.c ****                   (ctx->workCtx.x[7]>>16) ^ U32V(ctx->workCtx.x[5]<<16));
 1167              		.loc 1 266 0
 1168 00c8 216E     		ldr	r1, [r4, #96]
 1169 00ca 0191     		str	r1, [sp, #4]
 1170 00cc 080C     		lsr	r0, r1, #16
 1171 00ce E16C     		ldr	r1, [r4, #76]
 1172 00d0 4840     		eor	r0, r1
 1173 00d2 1B04     		lsl	r3, r3, #16
 1174 00d4 4340     		eor	r3, r0
 1175 00d6 0393     		str	r3, [sp, #12]
 268:..\kronos-c-sdk\src\wolfSSL\wolfcrypt\src/rabbit.c ****                   (ctx->workCtx.x[1]>>16) ^ U32V(ctx->workCtx.x[7]<<16));
 1176              		.loc 1 268 0
 1177 00d8 A36C     		ldr	r3, [r4, #72]
 1178 00da 180C     		lsr	r0, r3, #16
 1179 00dc 616D     		ldr	r1, [r4, #84]
 1180 00de 4840     		eor	r0, r1
 1181 00e0 0199     		ldr	r1, [sp, #4]
 1182 00e2 0904     		lsl	r1, r1, #16
 1183 00e4 4140     		eor	r1, r0
 1184 00e6 0491     		str	r1, [sp, #16]
 270:..\kronos-c-sdk\src\wolfSSL\wolfcrypt\src/rabbit.c ****                   (ctx->workCtx.x[3]>>16) ^ U32V(ctx->workCtx.x[1]<<16));
 1185              		.loc 1 270 0
 1186 00e8 E16D     		ldr	r1, [r4, #92]
 1187 00ea 120C     		lsr	r2, r2, #16
 1188 00ec 4A40     		eor	r2, r1
 1189 00ee 1B04     		lsl	r3, r3, #16
 1190 00f0 5340     		eor	r3, r2
 1191 00f2 0593     		str	r3, [sp, #20]
 1192              	.LVL128:
 274:..\kronos-c-sdk\src\wolfSSL\wolfcrypt\src/rabbit.c ****             output[i] = input[i] ^ buffer[i];
 1193              		.loc 1 274 0
 1194 00f4 0023     		mov	r3, #0
 1195 00f6 05E0     		b	.L38
 1196              	.LVL129:
 1197              	.L39:
 275:..\kronos-c-sdk\src\wolfSSL\wolfcrypt\src/rabbit.c ****     }
ARM GAS  C:\Users\ddemidov\AppData\Local\Temp\ccxqLn2e.s 			page 30


 1198              		.loc 1 275 0
 1199 00f8 E95C     		ldrb	r1, [r5, r3]
 1200 00fa 02AA     		add	r2, sp, #8
 1201              	.LVL130:
 1202 00fc D25C     		ldrb	r2, [r2, r3]
 1203              	.LVL131:
 1204 00fe 4A40     		eor	r2, r1
 1205 0100 FA54     		strb	r2, [r7, r3]
 274:..\kronos-c-sdk\src\wolfSSL\wolfcrypt\src/rabbit.c ****             output[i] = input[i] ^ buffer[i];
 1206              		.loc 1 274 0
 1207 0102 0133     		add	r3, r3, #1
 1208              	.LVL132:
 1209              	.L38:
 1210 0104 9845     		cmp	r8, r3
 1211 0106 F7D8     		bhi	.L39
 1212              	.LVL133:
 1213              	.L37:
 1214              	.LBE111:
 1215              	.LBE110:
 1216              	.LBE109:
 295:..\kronos-c-sdk\src\wolfSSL\wolfcrypt\src/rabbit.c ****             DoProcess(ctx, tmp, tmp, msglen);
 296:..\kronos-c-sdk\src\wolfSSL\wolfcrypt\src/rabbit.c ****             XMEMCPY(output, tmp, msglen);
 1217              		.loc 1 296 0
 1218 0108 301C     		mov	r0, r6
 1219 010a 009C     		ldr	r4, [sp]
 1220              	.LVL134:
 1221 010c 211C     		mov	r1, r4
 1222 010e 5246     		mov	r2, r10
 1223 0110 FFF7FEFF 		bl	memcpy
 1224              	.LVL135:
 1225              	.LBB112:
 297:..\kronos-c-sdk\src\wolfSSL\wolfcrypt\src/rabbit.c **** 
 298:..\kronos-c-sdk\src\wolfSSL\wolfcrypt\src/rabbit.c ****             XFREE(tmp, NULL, DYNAMIC_TYPE_TMP_BUFFER);
 1226              		.loc 1 298 0
 1227 0114 002C     		cmp	r4, #0
 1228 0116 6FD0     		beq	.L45
 1229              		.loc 1 298 0 is_stmt 0 discriminator 1
 1230 0118 201C     		mov	r0, r4
 1231 011a FFF7FEFF 		bl	wolfSSL_Free
 1232              	.LVL136:
 1233              	.LBE112:
 299:..\kronos-c-sdk\src\wolfSSL\wolfcrypt\src/rabbit.c **** 
 300:..\kronos-c-sdk\src\wolfSSL\wolfcrypt\src/rabbit.c ****             return 0;
 1234              		.loc 1 300 0 is_stmt 1 discriminator 1
 1235 011e 0020     		mov	r0, #0
 1236 0120 6BE0     		b	.L34
 1237              	.LVL137:
 1238              	.L40:
 1239              	.LBE108:
 1240              	.LBB113:
 1241              	.LBB114:
 229:..\kronos-c-sdk\src\wolfSSL\wolfcrypt\src/rabbit.c **** 
 1242              		.loc 1 229 0
 1243 0122 201C     		mov	r0, r4
 1244 0124 4430     		add	r0, r0, #68
 1245 0126 FFF7FEFF 		bl	RABBIT_next_state
 1246              	.LVL138:
ARM GAS  C:\Users\ddemidov\AppData\Local\Temp\ccxqLn2e.s 			page 31


 233:..\kronos-c-sdk\src\wolfSSL\wolfcrypt\src/rabbit.c ****                    U32V(ctx->workCtx.x[3]<<16));
 1247              		.loc 1 233 0
 1248 012a A36D     		ldr	r3, [r4, #88]
 1249 012c 1B0C     		lsr	r3, r3, #16
 1250 012e 626C     		ldr	r2, [r4, #68]
 1251 0130 5340     		eor	r3, r2
 1252 0132 226D     		ldr	r2, [r4, #80]
 1253 0134 1204     		lsl	r2, r2, #16
 1254 0136 5340     		eor	r3, r2
 232:..\kronos-c-sdk\src\wolfSSL\wolfcrypt\src/rabbit.c ****                    LITTLE32(ctx->workCtx.x[0] ^ (ctx->workCtx.x[5]>>16) ^
 1255              		.loc 1 232 0
 1256 0138 2A68     		ldr	r2, [r5]
 1257 013a 5340     		eor	r3, r2
 1258 013c 3360     		str	r3, [r6]
 236:..\kronos-c-sdk\src\wolfSSL\wolfcrypt\src/rabbit.c ****                    U32V(ctx->workCtx.x[5]<<16));
 1259              		.loc 1 236 0
 1260 013e 236E     		ldr	r3, [r4, #96]
 1261 0140 1B0C     		lsr	r3, r3, #16
 1262 0142 E26C     		ldr	r2, [r4, #76]
 1263 0144 5340     		eor	r3, r2
 1264 0146 A26D     		ldr	r2, [r4, #88]
 1265 0148 1204     		lsl	r2, r2, #16
 1266 014a 5340     		eor	r3, r2
 235:..\kronos-c-sdk\src\wolfSSL\wolfcrypt\src/rabbit.c ****                    LITTLE32(ctx->workCtx.x[2] ^ (ctx->workCtx.x[7]>>16) ^
 1267              		.loc 1 235 0
 1268 014c 6A68     		ldr	r2, [r5, #4]
 1269 014e 5340     		eor	r3, r2
 1270 0150 7360     		str	r3, [r6, #4]
 239:..\kronos-c-sdk\src\wolfSSL\wolfcrypt\src/rabbit.c ****                    U32V(ctx->workCtx.x[7]<<16));
 1271              		.loc 1 239 0
 1272 0152 A36C     		ldr	r3, [r4, #72]
 1273 0154 1B0C     		lsr	r3, r3, #16
 1274 0156 626D     		ldr	r2, [r4, #84]
 1275 0158 5340     		eor	r3, r2
 1276 015a 226E     		ldr	r2, [r4, #96]
 1277 015c 1204     		lsl	r2, r2, #16
 1278 015e 5340     		eor	r3, r2
 238:..\kronos-c-sdk\src\wolfSSL\wolfcrypt\src/rabbit.c ****                    LITTLE32(ctx->workCtx.x[4] ^ (ctx->workCtx.x[1]>>16) ^
 1279              		.loc 1 238 0
 1280 0160 AA68     		ldr	r2, [r5, #8]
 1281 0162 5340     		eor	r3, r2
 1282 0164 B360     		str	r3, [r6, #8]
 242:..\kronos-c-sdk\src\wolfSSL\wolfcrypt\src/rabbit.c ****                    U32V(ctx->workCtx.x[1]<<16));
 1283              		.loc 1 242 0
 1284 0166 236D     		ldr	r3, [r4, #80]
 1285 0168 1B0C     		lsr	r3, r3, #16
 1286 016a E26D     		ldr	r2, [r4, #92]
 1287 016c 5340     		eor	r3, r2
 1288 016e A26C     		ldr	r2, [r4, #72]
 1289 0170 1204     		lsl	r2, r2, #16
 1290 0172 5340     		eor	r3, r2
 241:..\kronos-c-sdk\src\wolfSSL\wolfcrypt\src/rabbit.c ****                    LITTLE32(ctx->workCtx.x[6] ^ (ctx->workCtx.x[3]>>16) ^
 1291              		.loc 1 241 0
 1292 0174 EA68     		ldr	r2, [r5, #12]
 1293 0176 5340     		eor	r3, r2
 1294 0178 F360     		str	r3, [r6, #12]
 246:..\kronos-c-sdk\src\wolfSSL\wolfcrypt\src/rabbit.c ****         output += 16;
ARM GAS  C:\Users\ddemidov\AppData\Local\Temp\ccxqLn2e.s 			page 32


 1295              		.loc 1 246 0
 1296 017a 1035     		add	r5, r5, #16
 1297              	.LVL139:
 247:..\kronos-c-sdk\src\wolfSSL\wolfcrypt\src/rabbit.c ****         msglen -= 16;
 1298              		.loc 1 247 0
 1299 017c 1036     		add	r6, r6, #16
 1300              	.LVL140:
 248:..\kronos-c-sdk\src\wolfSSL\wolfcrypt\src/rabbit.c ****     }
 1301              		.loc 1 248 0
 1302 017e 1023     		mov	r3, #16
 1303 0180 5B42     		neg	r3, r3
 1304 0182 9C46     		mov	ip, r3
 1305 0184 E244     		add	r10, r10, ip
 1306              	.LVL141:
 1307              	.L33:
 227:..\kronos-c-sdk\src\wolfSSL\wolfcrypt\src/rabbit.c ****         /* Iterate the system */
 1308              		.loc 1 227 0
 1309 0186 5346     		mov	r3, r10
 1310 0188 0F2B     		cmp	r3, #15
 1311 018a CAD8     		bhi	.L40
 252:..\kronos-c-sdk\src\wolfSSL\wolfcrypt\src/rabbit.c **** 
 1312              		.loc 1 252 0
 1313 018c 002B     		cmp	r3, #0
 1314 018e 2ED0     		beq	.L41
 1315              	.LVL142:
 1316              	.LBB115:
 258:..\kronos-c-sdk\src\wolfSSL\wolfcrypt\src/rabbit.c **** 
 1317              		.loc 1 258 0
 1318 0190 0023     		mov	r3, #0
 1319 0192 0293     		str	r3, [sp, #8]
 1320 0194 0393     		str	r3, [sp, #12]
 1321 0196 0493     		str	r3, [sp, #16]
 1322 0198 0593     		str	r3, [sp, #20]
 261:..\kronos-c-sdk\src\wolfSSL\wolfcrypt\src/rabbit.c **** 
 1323              		.loc 1 261 0
 1324 019a 201C     		mov	r0, r4
 1325 019c 4430     		add	r0, r0, #68
 1326 019e FFF7FEFF 		bl	RABBIT_next_state
 1327              	.LVL143:
 264:..\kronos-c-sdk\src\wolfSSL\wolfcrypt\src/rabbit.c ****                   (ctx->workCtx.x[5]>>16) ^ U32V(ctx->workCtx.x[3]<<16));
 1328              		.loc 1 264 0
 1329 01a2 A36D     		ldr	r3, [r4, #88]
 1330 01a4 190C     		lsr	r1, r3, #16
 1331 01a6 626C     		ldr	r2, [r4, #68]
 1332 01a8 5140     		eor	r1, r2
 1333 01aa 226D     		ldr	r2, [r4, #80]
 1334 01ac 1004     		lsl	r0, r2, #16
 1335 01ae 4140     		eor	r1, r0
 1336 01b0 0291     		str	r1, [sp, #8]
 266:..\kronos-c-sdk\src\wolfSSL\wolfcrypt\src/rabbit.c ****                   (ctx->workCtx.x[7]>>16) ^ U32V(ctx->workCtx.x[5]<<16));
 1337              		.loc 1 266 0
 1338 01b2 216E     		ldr	r1, [r4, #96]
 1339 01b4 080C     		lsr	r0, r1, #16
 1340 01b6 E76C     		ldr	r7, [r4, #76]
 1341 01b8 7840     		eor	r0, r7
 1342 01ba 1B04     		lsl	r3, r3, #16
 1343 01bc 4340     		eor	r3, r0
ARM GAS  C:\Users\ddemidov\AppData\Local\Temp\ccxqLn2e.s 			page 33


 1344 01be 0393     		str	r3, [sp, #12]
 268:..\kronos-c-sdk\src\wolfSSL\wolfcrypt\src/rabbit.c ****                   (ctx->workCtx.x[1]>>16) ^ U32V(ctx->workCtx.x[7]<<16));
 1345              		.loc 1 268 0
 1346 01c0 A36C     		ldr	r3, [r4, #72]
 1347 01c2 180C     		lsr	r0, r3, #16
 1348 01c4 676D     		ldr	r7, [r4, #84]
 1349 01c6 7840     		eor	r0, r7
 1350 01c8 0904     		lsl	r1, r1, #16
 1351 01ca 4140     		eor	r1, r0
 1352 01cc 0491     		str	r1, [sp, #16]
 270:..\kronos-c-sdk\src\wolfSSL\wolfcrypt\src/rabbit.c ****                   (ctx->workCtx.x[3]>>16) ^ U32V(ctx->workCtx.x[1]<<16));
 1353              		.loc 1 270 0
 1354 01ce E16D     		ldr	r1, [r4, #92]
 1355 01d0 120C     		lsr	r2, r2, #16
 1356 01d2 4A40     		eor	r2, r1
 1357 01d4 1B04     		lsl	r3, r3, #16
 1358 01d6 5340     		eor	r3, r2
 1359 01d8 0593     		str	r3, [sp, #20]
 1360              	.LVL144:
 274:..\kronos-c-sdk\src\wolfSSL\wolfcrypt\src/rabbit.c ****             output[i] = input[i] ^ buffer[i];
 1361              		.loc 1 274 0
 1362 01da 0023     		mov	r3, #0
 1363 01dc 05E0     		b	.L42
 1364              	.LVL145:
 1365              	.L43:
 275:..\kronos-c-sdk\src\wolfSSL\wolfcrypt\src/rabbit.c ****     }
 1366              		.loc 1 275 0
 1367 01de E95C     		ldrb	r1, [r5, r3]
 1368 01e0 02AA     		add	r2, sp, #8
 1369              	.LVL146:
 1370 01e2 D25C     		ldrb	r2, [r2, r3]
 1371              	.LVL147:
 1372 01e4 4A40     		eor	r2, r1
 1373 01e6 F254     		strb	r2, [r6, r3]
 274:..\kronos-c-sdk\src\wolfSSL\wolfcrypt\src/rabbit.c ****             output[i] = input[i] ^ buffer[i];
 1374              		.loc 1 274 0
 1375 01e8 0133     		add	r3, r3, #1
 1376              	.LVL148:
 1377              	.L42:
 1378 01ea 9A45     		cmp	r10, r3
 1379 01ec F7D8     		bhi	.L43
 1380              	.LVL149:
 1381              	.L41:
 1382              	.LBE115:
 1383              	.LBE114:
 1384              	.LBE113:
 301:..\kronos-c-sdk\src\wolfSSL\wolfcrypt\src/rabbit.c ****         #else
 302:..\kronos-c-sdk\src\wolfSSL\wolfcrypt\src/rabbit.c ****             return BAD_ALIGN_E;
 303:..\kronos-c-sdk\src\wolfSSL\wolfcrypt\src/rabbit.c ****         #endif
 304:..\kronos-c-sdk\src\wolfSSL\wolfcrypt\src/rabbit.c ****     }
 305:..\kronos-c-sdk\src\wolfSSL\wolfcrypt\src/rabbit.c **** #endif /* XSTREAM_ALIGN */
 306:..\kronos-c-sdk\src\wolfSSL\wolfcrypt\src/rabbit.c **** 
 307:..\kronos-c-sdk\src\wolfSSL\wolfcrypt\src/rabbit.c ****     return DoProcess(ctx, output, input, msglen);
 1385              		.loc 1 307 0
 1386 01ee 0020     		mov	r0, #0
 1387 01f0 03E0     		b	.L34
 1388              	.LVL150:
ARM GAS  C:\Users\ddemidov\AppData\Local\Temp\ccxqLn2e.s 			page 34


 1389              	.L44:
 1390              	.LBB116:
 292:..\kronos-c-sdk\src\wolfSSL\wolfcrypt\src/rabbit.c **** 
 1391              		.loc 1 292 0
 1392 01f2 7D20     		mov	r0, #125
 1393              	.LVL151:
 1394 01f4 4042     		neg	r0, r0
 1395 01f6 00E0     		b	.L34
 1396              	.LVL152:
 1397              	.L45:
 300:..\kronos-c-sdk\src\wolfSSL\wolfcrypt\src/rabbit.c ****         #else
 1398              		.loc 1 300 0
 1399 01f8 0020     		mov	r0, #0
 1400              	.LVL153:
 1401              	.L34:
 1402              	.LBE116:
 308:..\kronos-c-sdk\src\wolfSSL\wolfcrypt\src/rabbit.c **** }
 1403              		.loc 1 308 0
 1404 01fa 07B0     		add	sp, sp, #28
 1405              		@ sp needed
 1406 01fc 0CBC     		pop	{r2, r3}
 1407 01fe 9046     		mov	r8, r2
 1408 0200 9A46     		mov	r10, r3
 1409 0202 F0BD     		pop	{r4, r5, r6, r7, pc}
 1410              		.cfi_endproc
 1411              	.LFE18:
 1412              		.size	wc_RabbitProcess, .-wc_RabbitProcess
 1413              		.text
 1414              	.Letext0:
 1415              		.file 3 "..\\kronos-c-sdk\\src\\wolfSSL/wolfssl/wolfcrypt/types.h"
 1416              		.file 4 "c:\\program files (x86)\\cypress\\psoc creator\\3.3\\psoc creator\\import\\gnu\\arm\\4.9.
 1417              		.file 5 "..\\kronos-c-sdk\\src\\wolfSSL/wolfssl/wolfcrypt/rabbit.h"
 1418              		.file 6 "..\\kronos-c-sdk\\src\\wolfSSL/wolfssl/wolfcrypt/error-crypt.h"
 1419              		.file 7 "..\\kronos-c-sdk\\src\\wolfSSL/wolfssl/wolfcrypt/memory.h"