ARM GAS  C:\Users\ddemidov\AppData\Local\Temp\ccBlgygZ.s 			page 1


   1              		.cpu cortex-m0
   2              		.fpu softvfp
   3              		.eabi_attribute 20, 1
   4              		.eabi_attribute 21, 1
   5              		.eabi_attribute 23, 3
   6              		.eabi_attribute 24, 1
   7              		.eabi_attribute 25, 1
   8              		.eabi_attribute 26, 1
   9              		.eabi_attribute 30, 4
  10              		.eabi_attribute 34, 0
  11              		.eabi_attribute 18, 4
  12              		.code	16
  13              		.file	"random.c"
  14              		.text
  15              	.Ltext0:
  16              		.cfi_sections	.debug_frame
  17              		.section	.text.ForceZero,"ax",%progbits
  18              		.align	1
  19              		.code	16
  20              		.thumb_func
  21              		.type	ForceZero, %function
  22              	ForceZero:
  23              	.LFB10:
  24              		.file 1 "..\\acn-sdk-c\\src\\wolfSSL/wolfcrypt/src/misc.c"
   1:..\acn-sdk-c\src\wolfSSL/wolfcrypt/src/misc.c **** /* misc.c
   2:..\acn-sdk-c\src\wolfSSL/wolfcrypt/src/misc.c ****  *
   3:..\acn-sdk-c\src\wolfSSL/wolfcrypt/src/misc.c ****  * Copyright (C) 2006-2016 wolfSSL Inc.
   4:..\acn-sdk-c\src\wolfSSL/wolfcrypt/src/misc.c ****  *
   5:..\acn-sdk-c\src\wolfSSL/wolfcrypt/src/misc.c ****  * This file is part of wolfSSL.
   6:..\acn-sdk-c\src\wolfSSL/wolfcrypt/src/misc.c ****  *
   7:..\acn-sdk-c\src\wolfSSL/wolfcrypt/src/misc.c ****  * wolfSSL is free software; you can redistribute it and/or modify
   8:..\acn-sdk-c\src\wolfSSL/wolfcrypt/src/misc.c ****  * it under the terms of the GNU General Public License as published by
   9:..\acn-sdk-c\src\wolfSSL/wolfcrypt/src/misc.c ****  * the Free Software Foundation; either version 2 of the License, or
  10:..\acn-sdk-c\src\wolfSSL/wolfcrypt/src/misc.c ****  * (at your option) any later version.
  11:..\acn-sdk-c\src\wolfSSL/wolfcrypt/src/misc.c ****  *
  12:..\acn-sdk-c\src\wolfSSL/wolfcrypt/src/misc.c ****  * wolfSSL is distributed in the hope that it will be useful,
  13:..\acn-sdk-c\src\wolfSSL/wolfcrypt/src/misc.c ****  * but WITHOUT ANY WARRANTY; without even the implied warranty of
  14:..\acn-sdk-c\src\wolfSSL/wolfcrypt/src/misc.c ****  * MERCHANTABILITY or FITNESS FOR A PARTICULAR PURPOSE.  See the
  15:..\acn-sdk-c\src\wolfSSL/wolfcrypt/src/misc.c ****  * GNU General Public License for more details.
  16:..\acn-sdk-c\src\wolfSSL/wolfcrypt/src/misc.c ****  *
  17:..\acn-sdk-c\src\wolfSSL/wolfcrypt/src/misc.c ****  * You should have received a copy of the GNU General Public License
  18:..\acn-sdk-c\src\wolfSSL/wolfcrypt/src/misc.c ****  * along with this program; if not, write to the Free Software
  19:..\acn-sdk-c\src\wolfSSL/wolfcrypt/src/misc.c ****  * Foundation, Inc., 51 Franklin Street, Fifth Floor, Boston, MA 02110-1335, USA
  20:..\acn-sdk-c\src\wolfSSL/wolfcrypt/src/misc.c ****  */
  21:..\acn-sdk-c\src\wolfSSL/wolfcrypt/src/misc.c **** 
  22:..\acn-sdk-c\src\wolfSSL/wolfcrypt/src/misc.c **** 
  23:..\acn-sdk-c\src\wolfSSL/wolfcrypt/src/misc.c **** #ifdef HAVE_CONFIG_H
  24:..\acn-sdk-c\src\wolfSSL/wolfcrypt/src/misc.c ****     #include <config.h>
  25:..\acn-sdk-c\src\wolfSSL/wolfcrypt/src/misc.c **** #endif
  26:..\acn-sdk-c\src\wolfSSL/wolfcrypt/src/misc.c **** 
  27:..\acn-sdk-c\src\wolfSSL/wolfcrypt/src/misc.c **** #include <wolfssl/wolfcrypt/settings.h>
  28:..\acn-sdk-c\src\wolfSSL/wolfcrypt/src/misc.c **** 
  29:..\acn-sdk-c\src\wolfSSL/wolfcrypt/src/misc.c **** #ifndef WOLF_CRYPT_MISC_C
  30:..\acn-sdk-c\src\wolfSSL/wolfcrypt/src/misc.c **** #define WOLF_CRYPT_MISC_C
  31:..\acn-sdk-c\src\wolfSSL/wolfcrypt/src/misc.c **** 
  32:..\acn-sdk-c\src\wolfSSL/wolfcrypt/src/misc.c **** #include <wolfssl/wolfcrypt/misc.h>
  33:..\acn-sdk-c\src\wolfSSL/wolfcrypt/src/misc.c **** 
ARM GAS  C:\Users\ddemidov\AppData\Local\Temp\ccBlgygZ.s 			page 2


  34:..\acn-sdk-c\src\wolfSSL/wolfcrypt/src/misc.c **** /* inlining these functions is a huge speed increase and a small size decrease, 
  35:..\acn-sdk-c\src\wolfSSL/wolfcrypt/src/misc.c ****    because the functions are smaller than function call setup/cleanup, e.g.,
  36:..\acn-sdk-c\src\wolfSSL/wolfcrypt/src/misc.c ****    md5 benchmark is twice as fast with inline.  If you don't want it, then
  37:..\acn-sdk-c\src\wolfSSL/wolfcrypt/src/misc.c ****    define NO_INLINE and compile this file into wolfssl, otherwise it's used as
  38:..\acn-sdk-c\src\wolfSSL/wolfcrypt/src/misc.c ****    a source header
  39:..\acn-sdk-c\src\wolfSSL/wolfcrypt/src/misc.c ****  */
  40:..\acn-sdk-c\src\wolfSSL/wolfcrypt/src/misc.c **** 
  41:..\acn-sdk-c\src\wolfSSL/wolfcrypt/src/misc.c **** #ifdef NO_INLINE
  42:..\acn-sdk-c\src\wolfSSL/wolfcrypt/src/misc.c ****     #define STATIC
  43:..\acn-sdk-c\src\wolfSSL/wolfcrypt/src/misc.c **** #else
  44:..\acn-sdk-c\src\wolfSSL/wolfcrypt/src/misc.c ****     #define STATIC static
  45:..\acn-sdk-c\src\wolfSSL/wolfcrypt/src/misc.c **** #endif
  46:..\acn-sdk-c\src\wolfSSL/wolfcrypt/src/misc.c **** 
  47:..\acn-sdk-c\src\wolfSSL/wolfcrypt/src/misc.c **** 
  48:..\acn-sdk-c\src\wolfSSL/wolfcrypt/src/misc.c **** #ifdef INTEL_INTRINSICS
  49:..\acn-sdk-c\src\wolfSSL/wolfcrypt/src/misc.c **** 
  50:..\acn-sdk-c\src\wolfSSL/wolfcrypt/src/misc.c ****     #include <stdlib.h>      /* get intrinsic definitions */
  51:..\acn-sdk-c\src\wolfSSL/wolfcrypt/src/misc.c **** 
  52:..\acn-sdk-c\src\wolfSSL/wolfcrypt/src/misc.c ****     /* for non visual studio probably need no long version, 32 bit only
  53:..\acn-sdk-c\src\wolfSSL/wolfcrypt/src/misc.c ****      * i.e., _rotl and _rotr */
  54:..\acn-sdk-c\src\wolfSSL/wolfcrypt/src/misc.c ****     #pragma intrinsic(_lrotl, _lrotr)
  55:..\acn-sdk-c\src\wolfSSL/wolfcrypt/src/misc.c **** 
  56:..\acn-sdk-c\src\wolfSSL/wolfcrypt/src/misc.c ****     STATIC INLINE word32 rotlFixed(word32 x, word32 y)
  57:..\acn-sdk-c\src\wolfSSL/wolfcrypt/src/misc.c ****     {
  58:..\acn-sdk-c\src\wolfSSL/wolfcrypt/src/misc.c ****         return y ? _lrotl(x, y) : x;
  59:..\acn-sdk-c\src\wolfSSL/wolfcrypt/src/misc.c ****     }
  60:..\acn-sdk-c\src\wolfSSL/wolfcrypt/src/misc.c **** 
  61:..\acn-sdk-c\src\wolfSSL/wolfcrypt/src/misc.c ****     STATIC INLINE word32 rotrFixed(word32 x, word32 y)
  62:..\acn-sdk-c\src\wolfSSL/wolfcrypt/src/misc.c ****     {
  63:..\acn-sdk-c\src\wolfSSL/wolfcrypt/src/misc.c ****         return y ? _lrotr(x, y) : x;
  64:..\acn-sdk-c\src\wolfSSL/wolfcrypt/src/misc.c ****     }
  65:..\acn-sdk-c\src\wolfSSL/wolfcrypt/src/misc.c **** 
  66:..\acn-sdk-c\src\wolfSSL/wolfcrypt/src/misc.c **** #else /* generic */
  67:..\acn-sdk-c\src\wolfSSL/wolfcrypt/src/misc.c **** 
  68:..\acn-sdk-c\src\wolfSSL/wolfcrypt/src/misc.c ****     STATIC INLINE word32 rotlFixed(word32 x, word32 y)
  69:..\acn-sdk-c\src\wolfSSL/wolfcrypt/src/misc.c ****     {
  70:..\acn-sdk-c\src\wolfSSL/wolfcrypt/src/misc.c ****         return (x << y) | (x >> (sizeof(y) * 8 - y));
  71:..\acn-sdk-c\src\wolfSSL/wolfcrypt/src/misc.c ****     }   
  72:..\acn-sdk-c\src\wolfSSL/wolfcrypt/src/misc.c **** 
  73:..\acn-sdk-c\src\wolfSSL/wolfcrypt/src/misc.c **** 
  74:..\acn-sdk-c\src\wolfSSL/wolfcrypt/src/misc.c ****     STATIC INLINE word32 rotrFixed(word32 x, word32 y)
  75:..\acn-sdk-c\src\wolfSSL/wolfcrypt/src/misc.c ****     {
  76:..\acn-sdk-c\src\wolfSSL/wolfcrypt/src/misc.c ****         return (x >> y) | (x << (sizeof(y) * 8 - y));
  77:..\acn-sdk-c\src\wolfSSL/wolfcrypt/src/misc.c ****     }
  78:..\acn-sdk-c\src\wolfSSL/wolfcrypt/src/misc.c **** 
  79:..\acn-sdk-c\src\wolfSSL/wolfcrypt/src/misc.c **** #endif
  80:..\acn-sdk-c\src\wolfSSL/wolfcrypt/src/misc.c **** 
  81:..\acn-sdk-c\src\wolfSSL/wolfcrypt/src/misc.c **** 
  82:..\acn-sdk-c\src\wolfSSL/wolfcrypt/src/misc.c **** STATIC INLINE word32 ByteReverseWord32(word32 value)
  83:..\acn-sdk-c\src\wolfSSL/wolfcrypt/src/misc.c **** {
  84:..\acn-sdk-c\src\wolfSSL/wolfcrypt/src/misc.c **** #ifdef PPC_INTRINSICS
  85:..\acn-sdk-c\src\wolfSSL/wolfcrypt/src/misc.c ****     /* PPC: load reverse indexed instruction */
  86:..\acn-sdk-c\src\wolfSSL/wolfcrypt/src/misc.c ****     return (word32)__lwbrx(&value,0);
  87:..\acn-sdk-c\src\wolfSSL/wolfcrypt/src/misc.c **** #elif defined(KEIL_INTRINSICS)
  88:..\acn-sdk-c\src\wolfSSL/wolfcrypt/src/misc.c ****     return (word32)__rev(value);
  89:..\acn-sdk-c\src\wolfSSL/wolfcrypt/src/misc.c **** #elif defined(FAST_ROTATE)
  90:..\acn-sdk-c\src\wolfSSL/wolfcrypt/src/misc.c ****     /* 5 instructions with rotate instruction, 9 without */
ARM GAS  C:\Users\ddemidov\AppData\Local\Temp\ccBlgygZ.s 			page 3


  91:..\acn-sdk-c\src\wolfSSL/wolfcrypt/src/misc.c ****     return (rotrFixed(value, 8U) & 0xff00ff00) |
  92:..\acn-sdk-c\src\wolfSSL/wolfcrypt/src/misc.c ****            (rotlFixed(value, 8U) & 0x00ff00ff);
  93:..\acn-sdk-c\src\wolfSSL/wolfcrypt/src/misc.c **** #else
  94:..\acn-sdk-c\src\wolfSSL/wolfcrypt/src/misc.c ****     /* 6 instructions with rotate instruction, 8 without */
  95:..\acn-sdk-c\src\wolfSSL/wolfcrypt/src/misc.c ****     value = ((value & 0xFF00FF00) >> 8) | ((value & 0x00FF00FF) << 8);
  96:..\acn-sdk-c\src\wolfSSL/wolfcrypt/src/misc.c ****     return rotlFixed(value, 16U);
  97:..\acn-sdk-c\src\wolfSSL/wolfcrypt/src/misc.c **** #endif
  98:..\acn-sdk-c\src\wolfSSL/wolfcrypt/src/misc.c **** }
  99:..\acn-sdk-c\src\wolfSSL/wolfcrypt/src/misc.c **** 
 100:..\acn-sdk-c\src\wolfSSL/wolfcrypt/src/misc.c **** 
 101:..\acn-sdk-c\src\wolfSSL/wolfcrypt/src/misc.c **** STATIC INLINE void ByteReverseWords(word32* out, const word32* in,
 102:..\acn-sdk-c\src\wolfSSL/wolfcrypt/src/misc.c ****                                     word32 byteCount)
 103:..\acn-sdk-c\src\wolfSSL/wolfcrypt/src/misc.c **** {
 104:..\acn-sdk-c\src\wolfSSL/wolfcrypt/src/misc.c ****     word32 count = byteCount/(word32)sizeof(word32), i;
 105:..\acn-sdk-c\src\wolfSSL/wolfcrypt/src/misc.c **** 
 106:..\acn-sdk-c\src\wolfSSL/wolfcrypt/src/misc.c ****     for (i = 0; i < count; i++)
 107:..\acn-sdk-c\src\wolfSSL/wolfcrypt/src/misc.c ****         out[i] = ByteReverseWord32(in[i]);
 108:..\acn-sdk-c\src\wolfSSL/wolfcrypt/src/misc.c **** 
 109:..\acn-sdk-c\src\wolfSSL/wolfcrypt/src/misc.c **** }
 110:..\acn-sdk-c\src\wolfSSL/wolfcrypt/src/misc.c **** 
 111:..\acn-sdk-c\src\wolfSSL/wolfcrypt/src/misc.c **** 
 112:..\acn-sdk-c\src\wolfSSL/wolfcrypt/src/misc.c **** #ifdef WORD64_AVAILABLE
 113:..\acn-sdk-c\src\wolfSSL/wolfcrypt/src/misc.c **** 
 114:..\acn-sdk-c\src\wolfSSL/wolfcrypt/src/misc.c **** 
 115:..\acn-sdk-c\src\wolfSSL/wolfcrypt/src/misc.c **** STATIC INLINE word64 rotlFixed64(word64 x, word64 y)
 116:..\acn-sdk-c\src\wolfSSL/wolfcrypt/src/misc.c **** {
 117:..\acn-sdk-c\src\wolfSSL/wolfcrypt/src/misc.c ****     return (x << y) | (x >> (sizeof(y) * 8 - y));
 118:..\acn-sdk-c\src\wolfSSL/wolfcrypt/src/misc.c **** }  
 119:..\acn-sdk-c\src\wolfSSL/wolfcrypt/src/misc.c **** 
 120:..\acn-sdk-c\src\wolfSSL/wolfcrypt/src/misc.c **** 
 121:..\acn-sdk-c\src\wolfSSL/wolfcrypt/src/misc.c **** STATIC INLINE word64 rotrFixed64(word64 x, word64 y)
 122:..\acn-sdk-c\src\wolfSSL/wolfcrypt/src/misc.c **** {
 123:..\acn-sdk-c\src\wolfSSL/wolfcrypt/src/misc.c ****     return (x >> y) | (x << (sizeof(y) * 8 - y));
 124:..\acn-sdk-c\src\wolfSSL/wolfcrypt/src/misc.c **** }
 125:..\acn-sdk-c\src\wolfSSL/wolfcrypt/src/misc.c **** 
 126:..\acn-sdk-c\src\wolfSSL/wolfcrypt/src/misc.c **** 
 127:..\acn-sdk-c\src\wolfSSL/wolfcrypt/src/misc.c **** STATIC INLINE word64 ByteReverseWord64(word64 value)
 128:..\acn-sdk-c\src\wolfSSL/wolfcrypt/src/misc.c **** {
 129:..\acn-sdk-c\src\wolfSSL/wolfcrypt/src/misc.c **** #ifdef WOLFCRYPT_SLOW_WORD64
 130:..\acn-sdk-c\src\wolfSSL/wolfcrypt/src/misc.c **** 	return (word64)(ByteReverseWord32((word32)value)) << 32 | 
 131:..\acn-sdk-c\src\wolfSSL/wolfcrypt/src/misc.c ****                     ByteReverseWord32((word32)(value>>32));
 132:..\acn-sdk-c\src\wolfSSL/wolfcrypt/src/misc.c **** #else
 133:..\acn-sdk-c\src\wolfSSL/wolfcrypt/src/misc.c **** 	value = ((value & W64LIT(0xFF00FF00FF00FF00)) >> 8) |
 134:..\acn-sdk-c\src\wolfSSL/wolfcrypt/src/misc.c ****             ((value & W64LIT(0x00FF00FF00FF00FF)) << 8);
 135:..\acn-sdk-c\src\wolfSSL/wolfcrypt/src/misc.c **** 	value = ((value & W64LIT(0xFFFF0000FFFF0000)) >> 16) |
 136:..\acn-sdk-c\src\wolfSSL/wolfcrypt/src/misc.c ****             ((value & W64LIT(0x0000FFFF0000FFFF)) << 16);
 137:..\acn-sdk-c\src\wolfSSL/wolfcrypt/src/misc.c **** 	return rotlFixed64(value, 32U);
 138:..\acn-sdk-c\src\wolfSSL/wolfcrypt/src/misc.c **** #endif
 139:..\acn-sdk-c\src\wolfSSL/wolfcrypt/src/misc.c **** }
 140:..\acn-sdk-c\src\wolfSSL/wolfcrypt/src/misc.c **** 
 141:..\acn-sdk-c\src\wolfSSL/wolfcrypt/src/misc.c **** 
 142:..\acn-sdk-c\src\wolfSSL/wolfcrypt/src/misc.c **** STATIC INLINE void ByteReverseWords64(word64* out, const word64* in,
 143:..\acn-sdk-c\src\wolfSSL/wolfcrypt/src/misc.c ****                                       word32 byteCount)
 144:..\acn-sdk-c\src\wolfSSL/wolfcrypt/src/misc.c **** {
 145:..\acn-sdk-c\src\wolfSSL/wolfcrypt/src/misc.c ****     word32 count = byteCount/(word32)sizeof(word64), i;
 146:..\acn-sdk-c\src\wolfSSL/wolfcrypt/src/misc.c **** 
 147:..\acn-sdk-c\src\wolfSSL/wolfcrypt/src/misc.c ****     for (i = 0; i < count; i++)
ARM GAS  C:\Users\ddemidov\AppData\Local\Temp\ccBlgygZ.s 			page 4


 148:..\acn-sdk-c\src\wolfSSL/wolfcrypt/src/misc.c ****         out[i] = ByteReverseWord64(in[i]);
 149:..\acn-sdk-c\src\wolfSSL/wolfcrypt/src/misc.c **** 
 150:..\acn-sdk-c\src\wolfSSL/wolfcrypt/src/misc.c **** }
 151:..\acn-sdk-c\src\wolfSSL/wolfcrypt/src/misc.c **** 
 152:..\acn-sdk-c\src\wolfSSL/wolfcrypt/src/misc.c **** #endif /* WORD64_AVAILABLE */
 153:..\acn-sdk-c\src\wolfSSL/wolfcrypt/src/misc.c **** 
 154:..\acn-sdk-c\src\wolfSSL/wolfcrypt/src/misc.c **** 
 155:..\acn-sdk-c\src\wolfSSL/wolfcrypt/src/misc.c **** STATIC INLINE void XorWords(wolfssl_word* r, const wolfssl_word* a, word32 n)
 156:..\acn-sdk-c\src\wolfSSL/wolfcrypt/src/misc.c **** {
 157:..\acn-sdk-c\src\wolfSSL/wolfcrypt/src/misc.c ****     word32 i;
 158:..\acn-sdk-c\src\wolfSSL/wolfcrypt/src/misc.c **** 
 159:..\acn-sdk-c\src\wolfSSL/wolfcrypt/src/misc.c ****     for (i = 0; i < n; i++) r[i] ^= a[i];
 160:..\acn-sdk-c\src\wolfSSL/wolfcrypt/src/misc.c **** }
 161:..\acn-sdk-c\src\wolfSSL/wolfcrypt/src/misc.c **** 
 162:..\acn-sdk-c\src\wolfSSL/wolfcrypt/src/misc.c **** 
 163:..\acn-sdk-c\src\wolfSSL/wolfcrypt/src/misc.c **** STATIC INLINE void xorbuf(void* buf, const void* mask, word32 count)
 164:..\acn-sdk-c\src\wolfSSL/wolfcrypt/src/misc.c **** {
 165:..\acn-sdk-c\src\wolfSSL/wolfcrypt/src/misc.c ****     if (((wolfssl_word)buf | (wolfssl_word)mask | count) % WOLFSSL_WORD_SIZE == 0)
 166:..\acn-sdk-c\src\wolfSSL/wolfcrypt/src/misc.c ****         XorWords( (wolfssl_word*)buf,
 167:..\acn-sdk-c\src\wolfSSL/wolfcrypt/src/misc.c ****                   (const wolfssl_word*)mask, count / WOLFSSL_WORD_SIZE);
 168:..\acn-sdk-c\src\wolfSSL/wolfcrypt/src/misc.c ****     else {
 169:..\acn-sdk-c\src\wolfSSL/wolfcrypt/src/misc.c ****         word32 i;
 170:..\acn-sdk-c\src\wolfSSL/wolfcrypt/src/misc.c ****         byte*       b = (byte*)buf;
 171:..\acn-sdk-c\src\wolfSSL/wolfcrypt/src/misc.c ****         const byte* m = (const byte*)mask;
 172:..\acn-sdk-c\src\wolfSSL/wolfcrypt/src/misc.c **** 
 173:..\acn-sdk-c\src\wolfSSL/wolfcrypt/src/misc.c ****         for (i = 0; i < count; i++) b[i] ^= m[i];
 174:..\acn-sdk-c\src\wolfSSL/wolfcrypt/src/misc.c ****     }
 175:..\acn-sdk-c\src\wolfSSL/wolfcrypt/src/misc.c **** }
 176:..\acn-sdk-c\src\wolfSSL/wolfcrypt/src/misc.c **** 
 177:..\acn-sdk-c\src\wolfSSL/wolfcrypt/src/misc.c **** 
 178:..\acn-sdk-c\src\wolfSSL/wolfcrypt/src/misc.c **** /* Make sure compiler doesn't skip */
 179:..\acn-sdk-c\src\wolfSSL/wolfcrypt/src/misc.c **** STATIC INLINE void ForceZero(const void* mem, word32 len)
 180:..\acn-sdk-c\src\wolfSSL/wolfcrypt/src/misc.c **** {
  25              		.loc 1 180 0
  26              		.cfi_startproc
  27              	.LVL0:
  28 0000 4118     		add	r1, r0, r1
  29              	.LVL1:
  30              	.L2:
 181:..\acn-sdk-c\src\wolfSSL/wolfcrypt/src/misc.c ****     volatile byte* z = (volatile byte*)mem;
 182:..\acn-sdk-c\src\wolfSSL/wolfcrypt/src/misc.c **** 
 183:..\acn-sdk-c\src\wolfSSL/wolfcrypt/src/misc.c ****     while (len--) *z++ = 0;
  31              		.loc 1 183 0 discriminator 1
  32 0002 8842     		cmp	r0, r1
  33 0004 03D0     		beq	.L5
  34              	.LVL2:
  35              		.loc 1 183 0 is_stmt 0 discriminator 2
  36 0006 0023     		mov	r3, #0
  37 0008 0370     		strb	r3, [r0]
  38 000a 0130     		add	r0, r0, #1
  39              	.LVL3:
  40 000c F9E7     		b	.L2
  41              	.LVL4:
  42              	.L5:
 184:..\acn-sdk-c\src\wolfSSL/wolfcrypt/src/misc.c **** }
  43              		.loc 1 184 0 is_stmt 1
  44              		@ sp needed
ARM GAS  C:\Users\ddemidov\AppData\Local\Temp\ccBlgygZ.s 			page 5


  45 000e 7047     		bx	lr
  46              		.cfi_endproc
  47              	.LFE10:
  48              		.size	ForceZero, .-ForceZero
  49              		.section	.text.Hash_DRBG_Uninstantiate,"ax",%progbits
  50              		.align	1
  51              		.code	16
  52              		.thumb_func
  53              		.type	Hash_DRBG_Uninstantiate, %function
  54              	Hash_DRBG_Uninstantiate:
  55              	.LFB19:
  56              		.file 2 "..\\acn-sdk-c\\src\\wolfSSL\\wolfcrypt\\src\\random.c"
   1:..\acn-sdk-c\src\wolfSSL/wolfcrypt/src/random.c **** /* random.c
   2:..\acn-sdk-c\src\wolfSSL/wolfcrypt/src/random.c ****  *
   3:..\acn-sdk-c\src\wolfSSL/wolfcrypt/src/random.c ****  * Copyright (C) 2006-2016 wolfSSL Inc.
   4:..\acn-sdk-c\src\wolfSSL/wolfcrypt/src/random.c ****  *
   5:..\acn-sdk-c\src\wolfSSL/wolfcrypt/src/random.c ****  * This file is part of wolfSSL.
   6:..\acn-sdk-c\src\wolfSSL/wolfcrypt/src/random.c ****  *
   7:..\acn-sdk-c\src\wolfSSL/wolfcrypt/src/random.c ****  * wolfSSL is free software; you can redistribute it and/or modify
   8:..\acn-sdk-c\src\wolfSSL/wolfcrypt/src/random.c ****  * it under the terms of the GNU General Public License as published by
   9:..\acn-sdk-c\src\wolfSSL/wolfcrypt/src/random.c ****  * the Free Software Foundation; either version 2 of the License, or
  10:..\acn-sdk-c\src\wolfSSL/wolfcrypt/src/random.c ****  * (at your option) any later version.
  11:..\acn-sdk-c\src\wolfSSL/wolfcrypt/src/random.c ****  *
  12:..\acn-sdk-c\src\wolfSSL/wolfcrypt/src/random.c ****  * wolfSSL is distributed in the hope that it will be useful,
  13:..\acn-sdk-c\src\wolfSSL/wolfcrypt/src/random.c ****  * but WITHOUT ANY WARRANTY; without even the implied warranty of
  14:..\acn-sdk-c\src\wolfSSL/wolfcrypt/src/random.c ****  * MERCHANTABILITY or FITNESS FOR A PARTICULAR PURPOSE.  See the
  15:..\acn-sdk-c\src\wolfSSL/wolfcrypt/src/random.c ****  * GNU General Public License for more details.
  16:..\acn-sdk-c\src\wolfSSL/wolfcrypt/src/random.c ****  *
  17:..\acn-sdk-c\src\wolfSSL/wolfcrypt/src/random.c ****  * You should have received a copy of the GNU General Public License
  18:..\acn-sdk-c\src\wolfSSL/wolfcrypt/src/random.c ****  * along with this program; if not, write to the Free Software
  19:..\acn-sdk-c\src\wolfSSL/wolfcrypt/src/random.c ****  * Foundation, Inc., 51 Franklin Street, Fifth Floor, Boston, MA 02110-1335, USA
  20:..\acn-sdk-c\src\wolfSSL/wolfcrypt/src/random.c ****  */
  21:..\acn-sdk-c\src\wolfSSL/wolfcrypt/src/random.c **** 
  22:..\acn-sdk-c\src\wolfSSL/wolfcrypt/src/random.c **** 
  23:..\acn-sdk-c\src\wolfSSL/wolfcrypt/src/random.c **** #ifdef HAVE_CONFIG_H
  24:..\acn-sdk-c\src\wolfSSL/wolfcrypt/src/random.c ****     #include <config.h>
  25:..\acn-sdk-c\src\wolfSSL/wolfcrypt/src/random.c **** #endif
  26:..\acn-sdk-c\src\wolfSSL/wolfcrypt/src/random.c **** 
  27:..\acn-sdk-c\src\wolfSSL/wolfcrypt/src/random.c **** #include <wolfssl/wolfcrypt/settings.h>
  28:..\acn-sdk-c\src\wolfSSL/wolfcrypt/src/random.c **** 
  29:..\acn-sdk-c\src\wolfSSL/wolfcrypt/src/random.c **** /* on HPUX 11 you may need to install /dev/random see
  30:..\acn-sdk-c\src\wolfSSL/wolfcrypt/src/random.c ****    http://h20293.www2.hp.com/portal/swdepot/displayProductInfo.do?productNumber=KRNG11I
  31:..\acn-sdk-c\src\wolfSSL/wolfcrypt/src/random.c **** 
  32:..\acn-sdk-c\src\wolfSSL/wolfcrypt/src/random.c **** */
  33:..\acn-sdk-c\src\wolfSSL/wolfcrypt/src/random.c **** 
  34:..\acn-sdk-c\src\wolfSSL/wolfcrypt/src/random.c **** #include <wolfssl/wolfcrypt/random.h>
  35:..\acn-sdk-c\src\wolfSSL/wolfcrypt/src/random.c **** 
  36:..\acn-sdk-c\src\wolfSSL/wolfcrypt/src/random.c **** #if defined(CUSTOM_RAND_GENERATE) && !defined(CUSTOM_RAND_TYPE)
  37:..\acn-sdk-c\src\wolfSSL/wolfcrypt/src/random.c **** /* To maintain compatibility the default return value from CUSTOM_RAND_GENERATE is byte */
  38:..\acn-sdk-c\src\wolfSSL/wolfcrypt/src/random.c **** #define CUSTOM_RAND_TYPE    byte
  39:..\acn-sdk-c\src\wolfSSL/wolfcrypt/src/random.c **** #endif
  40:..\acn-sdk-c\src\wolfSSL/wolfcrypt/src/random.c **** 
  41:..\acn-sdk-c\src\wolfSSL/wolfcrypt/src/random.c **** 
  42:..\acn-sdk-c\src\wolfSSL/wolfcrypt/src/random.c **** #ifdef HAVE_FIPS
  43:..\acn-sdk-c\src\wolfSSL/wolfcrypt/src/random.c **** int wc_GenerateSeed(OS_Seed* os, byte* seed, word32 sz)
  44:..\acn-sdk-c\src\wolfSSL/wolfcrypt/src/random.c **** {
  45:..\acn-sdk-c\src\wolfSSL/wolfcrypt/src/random.c ****     return GenerateSeed(os, seed, sz);
ARM GAS  C:\Users\ddemidov\AppData\Local\Temp\ccBlgygZ.s 			page 6


  46:..\acn-sdk-c\src\wolfSSL/wolfcrypt/src/random.c **** }
  47:..\acn-sdk-c\src\wolfSSL/wolfcrypt/src/random.c **** 
  48:..\acn-sdk-c\src\wolfSSL/wolfcrypt/src/random.c **** #ifdef HAVE_CAVIUM
  49:..\acn-sdk-c\src\wolfSSL/wolfcrypt/src/random.c ****     int  wc_InitRngCavium(WC_RNG* rng, int i)
  50:..\acn-sdk-c\src\wolfSSL/wolfcrypt/src/random.c ****     {
  51:..\acn-sdk-c\src\wolfSSL/wolfcrypt/src/random.c ****         return InitRngCavium(rng, i);
  52:..\acn-sdk-c\src\wolfSSL/wolfcrypt/src/random.c ****     }
  53:..\acn-sdk-c\src\wolfSSL/wolfcrypt/src/random.c **** #endif
  54:..\acn-sdk-c\src\wolfSSL/wolfcrypt/src/random.c **** 
  55:..\acn-sdk-c\src\wolfSSL/wolfcrypt/src/random.c **** 
  56:..\acn-sdk-c\src\wolfSSL/wolfcrypt/src/random.c **** int  wc_InitRng(WC_RNG* rng)
  57:..\acn-sdk-c\src\wolfSSL/wolfcrypt/src/random.c **** {
  58:..\acn-sdk-c\src\wolfSSL/wolfcrypt/src/random.c ****     return InitRng_fips(rng);
  59:..\acn-sdk-c\src\wolfSSL/wolfcrypt/src/random.c **** }
  60:..\acn-sdk-c\src\wolfSSL/wolfcrypt/src/random.c **** 
  61:..\acn-sdk-c\src\wolfSSL/wolfcrypt/src/random.c **** 
  62:..\acn-sdk-c\src\wolfSSL/wolfcrypt/src/random.c **** int  wc_RNG_GenerateBlock(WC_RNG* rng, byte* b, word32 sz)
  63:..\acn-sdk-c\src\wolfSSL/wolfcrypt/src/random.c **** {
  64:..\acn-sdk-c\src\wolfSSL/wolfcrypt/src/random.c ****     return RNG_GenerateBlock_fips(rng, b, sz);
  65:..\acn-sdk-c\src\wolfSSL/wolfcrypt/src/random.c **** }
  66:..\acn-sdk-c\src\wolfSSL/wolfcrypt/src/random.c **** 
  67:..\acn-sdk-c\src\wolfSSL/wolfcrypt/src/random.c **** 
  68:..\acn-sdk-c\src\wolfSSL/wolfcrypt/src/random.c **** int  wc_RNG_GenerateByte(WC_RNG* rng, byte* b)
  69:..\acn-sdk-c\src\wolfSSL/wolfcrypt/src/random.c **** {
  70:..\acn-sdk-c\src\wolfSSL/wolfcrypt/src/random.c ****     return RNG_GenerateByte(rng, b);
  71:..\acn-sdk-c\src\wolfSSL/wolfcrypt/src/random.c **** }
  72:..\acn-sdk-c\src\wolfSSL/wolfcrypt/src/random.c **** 
  73:..\acn-sdk-c\src\wolfSSL/wolfcrypt/src/random.c **** #if defined(HAVE_HASHDRBG) || defined(NO_RC4)
  74:..\acn-sdk-c\src\wolfSSL/wolfcrypt/src/random.c **** 
  75:..\acn-sdk-c\src\wolfSSL/wolfcrypt/src/random.c ****     int wc_FreeRng(WC_RNG* rng)
  76:..\acn-sdk-c\src\wolfSSL/wolfcrypt/src/random.c ****     {
  77:..\acn-sdk-c\src\wolfSSL/wolfcrypt/src/random.c ****         return FreeRng_fips(rng);
  78:..\acn-sdk-c\src\wolfSSL/wolfcrypt/src/random.c ****     }
  79:..\acn-sdk-c\src\wolfSSL/wolfcrypt/src/random.c **** 
  80:..\acn-sdk-c\src\wolfSSL/wolfcrypt/src/random.c **** 
  81:..\acn-sdk-c\src\wolfSSL/wolfcrypt/src/random.c ****     int wc_RNG_HealthTest(int reseed,
  82:..\acn-sdk-c\src\wolfSSL/wolfcrypt/src/random.c ****                                         const byte* entropyA, word32 entropyASz,
  83:..\acn-sdk-c\src\wolfSSL/wolfcrypt/src/random.c ****                                         const byte* entropyB, word32 entropyBSz,
  84:..\acn-sdk-c\src\wolfSSL/wolfcrypt/src/random.c ****                                         byte* output, word32 outputSz)
  85:..\acn-sdk-c\src\wolfSSL/wolfcrypt/src/random.c ****     {
  86:..\acn-sdk-c\src\wolfSSL/wolfcrypt/src/random.c ****         return RNG_HealthTest_fips(reseed, entropyA, entropyASz,
  87:..\acn-sdk-c\src\wolfSSL/wolfcrypt/src/random.c ****                               entropyB, entropyBSz, output, outputSz);
  88:..\acn-sdk-c\src\wolfSSL/wolfcrypt/src/random.c ****     }
  89:..\acn-sdk-c\src\wolfSSL/wolfcrypt/src/random.c **** #endif /* HAVE_HASHDRBG || NO_RC4 */
  90:..\acn-sdk-c\src\wolfSSL/wolfcrypt/src/random.c **** #else /* else build without fips */
  91:..\acn-sdk-c\src\wolfSSL/wolfcrypt/src/random.c **** #include <wolfssl/wolfcrypt/error-crypt.h>
  92:..\acn-sdk-c\src\wolfSSL/wolfcrypt/src/random.c **** 
  93:..\acn-sdk-c\src\wolfSSL/wolfcrypt/src/random.c **** /* Allow custom RNG system */
  94:..\acn-sdk-c\src\wolfSSL/wolfcrypt/src/random.c **** #ifdef CUSTOM_RAND_GENERATE_BLOCK
  95:..\acn-sdk-c\src\wolfSSL/wolfcrypt/src/random.c **** 
  96:..\acn-sdk-c\src\wolfSSL/wolfcrypt/src/random.c **** int wc_InitRng(WC_RNG* rng)
  97:..\acn-sdk-c\src\wolfSSL/wolfcrypt/src/random.c **** {
  98:..\acn-sdk-c\src\wolfSSL/wolfcrypt/src/random.c ****     (void)rng;
  99:..\acn-sdk-c\src\wolfSSL/wolfcrypt/src/random.c ****     return 0;
 100:..\acn-sdk-c\src\wolfSSL/wolfcrypt/src/random.c **** }
 101:..\acn-sdk-c\src\wolfSSL/wolfcrypt/src/random.c **** 
 102:..\acn-sdk-c\src\wolfSSL/wolfcrypt/src/random.c **** int wc_RNG_GenerateBlock(WC_RNG* rng, byte* output, word32 sz)
ARM GAS  C:\Users\ddemidov\AppData\Local\Temp\ccBlgygZ.s 			page 7


 103:..\acn-sdk-c\src\wolfSSL/wolfcrypt/src/random.c **** {
 104:..\acn-sdk-c\src\wolfSSL/wolfcrypt/src/random.c ****     (void)rng;
 105:..\acn-sdk-c\src\wolfSSL/wolfcrypt/src/random.c ****     XMEMSET(output, 0, sz);
 106:..\acn-sdk-c\src\wolfSSL/wolfcrypt/src/random.c ****     return CUSTOM_RAND_GENERATE_BLOCK(output, sz);
 107:..\acn-sdk-c\src\wolfSSL/wolfcrypt/src/random.c **** }
 108:..\acn-sdk-c\src\wolfSSL/wolfcrypt/src/random.c **** 
 109:..\acn-sdk-c\src\wolfSSL/wolfcrypt/src/random.c **** 
 110:..\acn-sdk-c\src\wolfSSL/wolfcrypt/src/random.c **** int wc_RNG_GenerateByte(WC_RNG* rng, byte* b)
 111:..\acn-sdk-c\src\wolfSSL/wolfcrypt/src/random.c **** {
 112:..\acn-sdk-c\src\wolfSSL/wolfcrypt/src/random.c ****     return wc_RNG_GenerateBlock(rng, b, 1);
 113:..\acn-sdk-c\src\wolfSSL/wolfcrypt/src/random.c **** }
 114:..\acn-sdk-c\src\wolfSSL/wolfcrypt/src/random.c **** 
 115:..\acn-sdk-c\src\wolfSSL/wolfcrypt/src/random.c **** 
 116:..\acn-sdk-c\src\wolfSSL/wolfcrypt/src/random.c **** int wc_FreeRng(WC_RNG* rng)
 117:..\acn-sdk-c\src\wolfSSL/wolfcrypt/src/random.c **** {
 118:..\acn-sdk-c\src\wolfSSL/wolfcrypt/src/random.c ****     (void)rng;
 119:..\acn-sdk-c\src\wolfSSL/wolfcrypt/src/random.c ****     return 0;
 120:..\acn-sdk-c\src\wolfSSL/wolfcrypt/src/random.c **** }
 121:..\acn-sdk-c\src\wolfSSL/wolfcrypt/src/random.c **** 
 122:..\acn-sdk-c\src\wolfSSL/wolfcrypt/src/random.c **** #else
 123:..\acn-sdk-c\src\wolfSSL/wolfcrypt/src/random.c **** 
 124:..\acn-sdk-c\src\wolfSSL/wolfcrypt/src/random.c **** /* Use HASHDRGB with SHA256 */
 125:..\acn-sdk-c\src\wolfSSL/wolfcrypt/src/random.c **** #if defined(HAVE_HASHDRBG) || defined(NO_RC4)
 126:..\acn-sdk-c\src\wolfSSL/wolfcrypt/src/random.c **** 
 127:..\acn-sdk-c\src\wolfSSL/wolfcrypt/src/random.c ****     #include <wolfssl/wolfcrypt/sha256.h>
 128:..\acn-sdk-c\src\wolfSSL/wolfcrypt/src/random.c **** 
 129:..\acn-sdk-c\src\wolfSSL/wolfcrypt/src/random.c ****     #ifdef NO_INLINE
 130:..\acn-sdk-c\src\wolfSSL/wolfcrypt/src/random.c ****         #include <wolfssl/wolfcrypt/misc.h>
 131:..\acn-sdk-c\src\wolfSSL/wolfcrypt/src/random.c ****     #else
 132:..\acn-sdk-c\src\wolfSSL/wolfcrypt/src/random.c ****         #include <wolfcrypt/src/misc.c>
 133:..\acn-sdk-c\src\wolfSSL/wolfcrypt/src/random.c ****     #endif
 134:..\acn-sdk-c\src\wolfSSL/wolfcrypt/src/random.c **** #endif /* HAVE_HASHDRBG || NO_RC4 */
 135:..\acn-sdk-c\src\wolfSSL/wolfcrypt/src/random.c **** 
 136:..\acn-sdk-c\src\wolfSSL/wolfcrypt/src/random.c **** #if defined(USE_WINDOWS_API)
 137:..\acn-sdk-c\src\wolfSSL/wolfcrypt/src/random.c ****     #ifndef _WIN32_WINNT
 138:..\acn-sdk-c\src\wolfSSL/wolfcrypt/src/random.c ****         #define _WIN32_WINNT 0x0400
 139:..\acn-sdk-c\src\wolfSSL/wolfcrypt/src/random.c ****     #endif
 140:..\acn-sdk-c\src\wolfSSL/wolfcrypt/src/random.c ****     #include <windows.h>
 141:..\acn-sdk-c\src\wolfSSL/wolfcrypt/src/random.c ****     #include <wincrypt.h>
 142:..\acn-sdk-c\src\wolfSSL/wolfcrypt/src/random.c **** #else
 143:..\acn-sdk-c\src\wolfSSL/wolfcrypt/src/random.c ****     #if !defined(NO_DEV_RANDOM) && !defined(CUSTOM_RAND_GENERATE) && \
 144:..\acn-sdk-c\src\wolfSSL/wolfcrypt/src/random.c ****         !defined(WOLFSSL_GENSEED_FORTEST) && !defined(WOLFSSL_MDK_ARM) && \
 145:..\acn-sdk-c\src\wolfSSL/wolfcrypt/src/random.c ****         !defined(WOLFSSL_IAR_ARM) && !defined(WOLFSSL_ROWLEY_ARM)
 146:..\acn-sdk-c\src\wolfSSL/wolfcrypt/src/random.c ****             #include <fcntl.h>
 147:..\acn-sdk-c\src\wolfSSL/wolfcrypt/src/random.c ****         #ifndef EBSNET
 148:..\acn-sdk-c\src\wolfSSL/wolfcrypt/src/random.c ****             #include <unistd.h>
 149:..\acn-sdk-c\src\wolfSSL/wolfcrypt/src/random.c ****         #endif
 150:..\acn-sdk-c\src\wolfSSL/wolfcrypt/src/random.c ****     #else
 151:..\acn-sdk-c\src\wolfSSL/wolfcrypt/src/random.c ****         /* include headers that may be needed to get good seed */
 152:..\acn-sdk-c\src\wolfSSL/wolfcrypt/src/random.c ****     #endif
 153:..\acn-sdk-c\src\wolfSSL/wolfcrypt/src/random.c **** #endif /* USE_WINDOWS_API */
 154:..\acn-sdk-c\src\wolfSSL/wolfcrypt/src/random.c **** 
 155:..\acn-sdk-c\src\wolfSSL/wolfcrypt/src/random.c **** #ifdef HAVE_INTEL_RDGEN
 156:..\acn-sdk-c\src\wolfSSL/wolfcrypt/src/random.c ****     static int wc_InitRng_IntelRD(void) ;
 157:..\acn-sdk-c\src\wolfSSL/wolfcrypt/src/random.c ****     #if defined(HAVE_HASHDRBG) || defined(NO_RC4)
 158:..\acn-sdk-c\src\wolfSSL/wolfcrypt/src/random.c ****     static int wc_GenerateSeed_IntelRD(OS_Seed* os, byte* output, word32 sz) ;
 159:..\acn-sdk-c\src\wolfSSL/wolfcrypt/src/random.c ****     #else
ARM GAS  C:\Users\ddemidov\AppData\Local\Temp\ccBlgygZ.s 			page 8


 160:..\acn-sdk-c\src\wolfSSL/wolfcrypt/src/random.c ****     static int wc_GenerateRand_IntelRD(OS_Seed* os, byte* output, word32 sz) ;
 161:..\acn-sdk-c\src\wolfSSL/wolfcrypt/src/random.c ****     #endif
 162:..\acn-sdk-c\src\wolfSSL/wolfcrypt/src/random.c ****     static word32 cpuid_check = 0 ;
 163:..\acn-sdk-c\src\wolfSSL/wolfcrypt/src/random.c ****     static word32 cpuid_flags = 0 ;
 164:..\acn-sdk-c\src\wolfSSL/wolfcrypt/src/random.c ****     #define CPUID_RDRAND 0x4
 165:..\acn-sdk-c\src\wolfSSL/wolfcrypt/src/random.c ****     #define CPUID_RDSEED 0x8
 166:..\acn-sdk-c\src\wolfSSL/wolfcrypt/src/random.c ****     #define IS_INTEL_RDRAND     (cpuid_flags&CPUID_RDRAND)
 167:..\acn-sdk-c\src\wolfSSL/wolfcrypt/src/random.c ****     #define IS_INTEL_RDSEED     (cpuid_flags&CPUID_RDSEED)
 168:..\acn-sdk-c\src\wolfSSL/wolfcrypt/src/random.c **** #endif
 169:..\acn-sdk-c\src\wolfSSL/wolfcrypt/src/random.c **** 
 170:..\acn-sdk-c\src\wolfSSL/wolfcrypt/src/random.c **** #if defined(HAVE_HASHDRBG) || defined(NO_RC4)
 171:..\acn-sdk-c\src\wolfSSL/wolfcrypt/src/random.c **** 
 172:..\acn-sdk-c\src\wolfSSL/wolfcrypt/src/random.c **** /* Start NIST DRBG code */
 173:..\acn-sdk-c\src\wolfSSL/wolfcrypt/src/random.c **** 
 174:..\acn-sdk-c\src\wolfSSL/wolfcrypt/src/random.c **** #define OUTPUT_BLOCK_LEN  (SHA256_DIGEST_SIZE)
 175:..\acn-sdk-c\src\wolfSSL/wolfcrypt/src/random.c **** #define MAX_REQUEST_LEN   (0x10000)
 176:..\acn-sdk-c\src\wolfSSL/wolfcrypt/src/random.c **** #define RESEED_INTERVAL   (1000000)
 177:..\acn-sdk-c\src\wolfSSL/wolfcrypt/src/random.c **** #define SECURITY_STRENGTH (256)
 178:..\acn-sdk-c\src\wolfSSL/wolfcrypt/src/random.c **** #define ENTROPY_SZ        (SECURITY_STRENGTH/8)
 179:..\acn-sdk-c\src\wolfSSL/wolfcrypt/src/random.c **** #define NONCE_SZ          (ENTROPY_SZ/2)
 180:..\acn-sdk-c\src\wolfSSL/wolfcrypt/src/random.c **** #define ENTROPY_NONCE_SZ  (ENTROPY_SZ+NONCE_SZ)
 181:..\acn-sdk-c\src\wolfSSL/wolfcrypt/src/random.c **** 
 182:..\acn-sdk-c\src\wolfSSL/wolfcrypt/src/random.c **** /* Internal return codes */
 183:..\acn-sdk-c\src\wolfSSL/wolfcrypt/src/random.c **** #define DRBG_SUCCESS      0
 184:..\acn-sdk-c\src\wolfSSL/wolfcrypt/src/random.c **** #define DRBG_ERROR        1
 185:..\acn-sdk-c\src\wolfSSL/wolfcrypt/src/random.c **** #define DRBG_FAILURE      2
 186:..\acn-sdk-c\src\wolfSSL/wolfcrypt/src/random.c **** #define DRBG_NEED_RESEED  3
 187:..\acn-sdk-c\src\wolfSSL/wolfcrypt/src/random.c **** #define DRBG_CONT_FAILURE 4
 188:..\acn-sdk-c\src\wolfSSL/wolfcrypt/src/random.c **** 
 189:..\acn-sdk-c\src\wolfSSL/wolfcrypt/src/random.c **** /* RNG health states */
 190:..\acn-sdk-c\src\wolfSSL/wolfcrypt/src/random.c **** #define DRBG_NOT_INIT     0
 191:..\acn-sdk-c\src\wolfSSL/wolfcrypt/src/random.c **** #define DRBG_OK           1
 192:..\acn-sdk-c\src\wolfSSL/wolfcrypt/src/random.c **** #define DRBG_FAILED       2
 193:..\acn-sdk-c\src\wolfSSL/wolfcrypt/src/random.c **** #define DRBG_CONT_FAILED  3
 194:..\acn-sdk-c\src\wolfSSL/wolfcrypt/src/random.c **** 
 195:..\acn-sdk-c\src\wolfSSL/wolfcrypt/src/random.c **** 
 196:..\acn-sdk-c\src\wolfSSL/wolfcrypt/src/random.c **** enum {
 197:..\acn-sdk-c\src\wolfSSL/wolfcrypt/src/random.c ****     drbgInitC     = 0,
 198:..\acn-sdk-c\src\wolfSSL/wolfcrypt/src/random.c ****     drbgReseed    = 1,
 199:..\acn-sdk-c\src\wolfSSL/wolfcrypt/src/random.c ****     drbgGenerateW = 2,
 200:..\acn-sdk-c\src\wolfSSL/wolfcrypt/src/random.c ****     drbgGenerateH = 3,
 201:..\acn-sdk-c\src\wolfSSL/wolfcrypt/src/random.c ****     drbgInitV
 202:..\acn-sdk-c\src\wolfSSL/wolfcrypt/src/random.c **** };
 203:..\acn-sdk-c\src\wolfSSL/wolfcrypt/src/random.c **** 
 204:..\acn-sdk-c\src\wolfSSL/wolfcrypt/src/random.c **** 
 205:..\acn-sdk-c\src\wolfSSL/wolfcrypt/src/random.c **** typedef struct DRBG {
 206:..\acn-sdk-c\src\wolfSSL/wolfcrypt/src/random.c ****     word32 reseedCtr;
 207:..\acn-sdk-c\src\wolfSSL/wolfcrypt/src/random.c ****     word32 lastBlock;
 208:..\acn-sdk-c\src\wolfSSL/wolfcrypt/src/random.c ****     byte V[DRBG_SEED_LEN];
 209:..\acn-sdk-c\src\wolfSSL/wolfcrypt/src/random.c ****     byte C[DRBG_SEED_LEN];
 210:..\acn-sdk-c\src\wolfSSL/wolfcrypt/src/random.c ****     byte   matchCount;
 211:..\acn-sdk-c\src\wolfSSL/wolfcrypt/src/random.c **** } DRBG;
 212:..\acn-sdk-c\src\wolfSSL/wolfcrypt/src/random.c **** 
 213:..\acn-sdk-c\src\wolfSSL/wolfcrypt/src/random.c **** 
 214:..\acn-sdk-c\src\wolfSSL/wolfcrypt/src/random.c **** static int wc_RNG_HealthTestLocal(int reseed);
 215:..\acn-sdk-c\src\wolfSSL/wolfcrypt/src/random.c **** 
 216:..\acn-sdk-c\src\wolfSSL/wolfcrypt/src/random.c **** /* Hash Derivation Function */
ARM GAS  C:\Users\ddemidov\AppData\Local\Temp\ccBlgygZ.s 			page 9


 217:..\acn-sdk-c\src\wolfSSL/wolfcrypt/src/random.c **** /* Returns: DRBG_SUCCESS or DRBG_FAILURE */
 218:..\acn-sdk-c\src\wolfSSL/wolfcrypt/src/random.c **** static int Hash_df(DRBG* drbg, byte* out, word32 outSz, byte type,
 219:..\acn-sdk-c\src\wolfSSL/wolfcrypt/src/random.c ****                                                   const byte* inA, word32 inASz,
 220:..\acn-sdk-c\src\wolfSSL/wolfcrypt/src/random.c ****                                                   const byte* inB, word32 inBSz)
 221:..\acn-sdk-c\src\wolfSSL/wolfcrypt/src/random.c **** {
 222:..\acn-sdk-c\src\wolfSSL/wolfcrypt/src/random.c ****     byte ctr;
 223:..\acn-sdk-c\src\wolfSSL/wolfcrypt/src/random.c ****     int i;
 224:..\acn-sdk-c\src\wolfSSL/wolfcrypt/src/random.c ****     int len;
 225:..\acn-sdk-c\src\wolfSSL/wolfcrypt/src/random.c ****     word32 bits = (outSz * 8); /* reverse byte order */
 226:..\acn-sdk-c\src\wolfSSL/wolfcrypt/src/random.c ****     Sha256 sha;
 227:..\acn-sdk-c\src\wolfSSL/wolfcrypt/src/random.c ****     byte digest[SHA256_DIGEST_SIZE];
 228:..\acn-sdk-c\src\wolfSSL/wolfcrypt/src/random.c **** 
 229:..\acn-sdk-c\src\wolfSSL/wolfcrypt/src/random.c ****     (void)drbg;
 230:..\acn-sdk-c\src\wolfSSL/wolfcrypt/src/random.c ****     #ifdef LITTLE_ENDIAN_ORDER
 231:..\acn-sdk-c\src\wolfSSL/wolfcrypt/src/random.c ****         bits = ByteReverseWord32(bits);
 232:..\acn-sdk-c\src\wolfSSL/wolfcrypt/src/random.c ****     #endif
 233:..\acn-sdk-c\src\wolfSSL/wolfcrypt/src/random.c ****     len = (outSz / OUTPUT_BLOCK_LEN)
 234:..\acn-sdk-c\src\wolfSSL/wolfcrypt/src/random.c ****         + ((outSz % OUTPUT_BLOCK_LEN) ? 1 : 0);
 235:..\acn-sdk-c\src\wolfSSL/wolfcrypt/src/random.c **** 
 236:..\acn-sdk-c\src\wolfSSL/wolfcrypt/src/random.c ****     for (i = 0, ctr = 1; i < len; i++, ctr++)
 237:..\acn-sdk-c\src\wolfSSL/wolfcrypt/src/random.c ****     {
 238:..\acn-sdk-c\src\wolfSSL/wolfcrypt/src/random.c ****         if (wc_InitSha256(&sha) != 0)
 239:..\acn-sdk-c\src\wolfSSL/wolfcrypt/src/random.c ****             return DRBG_FAILURE;
 240:..\acn-sdk-c\src\wolfSSL/wolfcrypt/src/random.c **** 
 241:..\acn-sdk-c\src\wolfSSL/wolfcrypt/src/random.c ****         if (wc_Sha256Update(&sha, &ctr, sizeof(ctr)) != 0)
 242:..\acn-sdk-c\src\wolfSSL/wolfcrypt/src/random.c ****             return DRBG_FAILURE;
 243:..\acn-sdk-c\src\wolfSSL/wolfcrypt/src/random.c **** 
 244:..\acn-sdk-c\src\wolfSSL/wolfcrypt/src/random.c ****         if (wc_Sha256Update(&sha, (byte*)&bits, sizeof(bits)) != 0)
 245:..\acn-sdk-c\src\wolfSSL/wolfcrypt/src/random.c ****             return DRBG_FAILURE;
 246:..\acn-sdk-c\src\wolfSSL/wolfcrypt/src/random.c **** 
 247:..\acn-sdk-c\src\wolfSSL/wolfcrypt/src/random.c ****         /* churning V is the only string that doesn't have the type added */
 248:..\acn-sdk-c\src\wolfSSL/wolfcrypt/src/random.c ****         if (type != drbgInitV)
 249:..\acn-sdk-c\src\wolfSSL/wolfcrypt/src/random.c ****             if (wc_Sha256Update(&sha, &type, sizeof(type)) != 0)
 250:..\acn-sdk-c\src\wolfSSL/wolfcrypt/src/random.c ****                 return DRBG_FAILURE;
 251:..\acn-sdk-c\src\wolfSSL/wolfcrypt/src/random.c **** 
 252:..\acn-sdk-c\src\wolfSSL/wolfcrypt/src/random.c ****         if (wc_Sha256Update(&sha, inA, inASz) != 0)
 253:..\acn-sdk-c\src\wolfSSL/wolfcrypt/src/random.c ****             return DRBG_FAILURE;
 254:..\acn-sdk-c\src\wolfSSL/wolfcrypt/src/random.c **** 
 255:..\acn-sdk-c\src\wolfSSL/wolfcrypt/src/random.c ****         if (inB != NULL && inBSz > 0)
 256:..\acn-sdk-c\src\wolfSSL/wolfcrypt/src/random.c ****             if (wc_Sha256Update(&sha, inB, inBSz) != 0)
 257:..\acn-sdk-c\src\wolfSSL/wolfcrypt/src/random.c ****                 return DRBG_FAILURE;
 258:..\acn-sdk-c\src\wolfSSL/wolfcrypt/src/random.c **** 
 259:..\acn-sdk-c\src\wolfSSL/wolfcrypt/src/random.c ****         if (wc_Sha256Final(&sha, digest) != 0)
 260:..\acn-sdk-c\src\wolfSSL/wolfcrypt/src/random.c ****             return DRBG_FAILURE;
 261:..\acn-sdk-c\src\wolfSSL/wolfcrypt/src/random.c **** 
 262:..\acn-sdk-c\src\wolfSSL/wolfcrypt/src/random.c ****         if (outSz > OUTPUT_BLOCK_LEN) {
 263:..\acn-sdk-c\src\wolfSSL/wolfcrypt/src/random.c ****             XMEMCPY(out, digest, OUTPUT_BLOCK_LEN);
 264:..\acn-sdk-c\src\wolfSSL/wolfcrypt/src/random.c ****             outSz -= OUTPUT_BLOCK_LEN;
 265:..\acn-sdk-c\src\wolfSSL/wolfcrypt/src/random.c ****             out += OUTPUT_BLOCK_LEN;
 266:..\acn-sdk-c\src\wolfSSL/wolfcrypt/src/random.c ****         }
 267:..\acn-sdk-c\src\wolfSSL/wolfcrypt/src/random.c ****         else {
 268:..\acn-sdk-c\src\wolfSSL/wolfcrypt/src/random.c ****             XMEMCPY(out, digest, outSz);
 269:..\acn-sdk-c\src\wolfSSL/wolfcrypt/src/random.c ****         }
 270:..\acn-sdk-c\src\wolfSSL/wolfcrypt/src/random.c ****     }
 271:..\acn-sdk-c\src\wolfSSL/wolfcrypt/src/random.c ****     ForceZero(digest, sizeof(digest));
 272:..\acn-sdk-c\src\wolfSSL/wolfcrypt/src/random.c **** 
 273:..\acn-sdk-c\src\wolfSSL/wolfcrypt/src/random.c ****     return DRBG_SUCCESS;
ARM GAS  C:\Users\ddemidov\AppData\Local\Temp\ccBlgygZ.s 			page 10


 274:..\acn-sdk-c\src\wolfSSL/wolfcrypt/src/random.c **** }
 275:..\acn-sdk-c\src\wolfSSL/wolfcrypt/src/random.c **** 
 276:..\acn-sdk-c\src\wolfSSL/wolfcrypt/src/random.c **** 
 277:..\acn-sdk-c\src\wolfSSL/wolfcrypt/src/random.c **** /* Returns: DRBG_SUCCESS or DRBG_FAILURE */
 278:..\acn-sdk-c\src\wolfSSL/wolfcrypt/src/random.c **** static int Hash_DRBG_Reseed(DRBG* drbg, const byte* entropy, word32 entropySz)
 279:..\acn-sdk-c\src\wolfSSL/wolfcrypt/src/random.c **** {
 280:..\acn-sdk-c\src\wolfSSL/wolfcrypt/src/random.c ****     byte seed[DRBG_SEED_LEN];
 281:..\acn-sdk-c\src\wolfSSL/wolfcrypt/src/random.c **** 
 282:..\acn-sdk-c\src\wolfSSL/wolfcrypt/src/random.c ****     if (Hash_df(drbg, seed, sizeof(seed), drbgReseed, drbg->V, sizeof(drbg->V),
 283:..\acn-sdk-c\src\wolfSSL/wolfcrypt/src/random.c ****                                           entropy, entropySz) != DRBG_SUCCESS) {
 284:..\acn-sdk-c\src\wolfSSL/wolfcrypt/src/random.c ****         return DRBG_FAILURE;
 285:..\acn-sdk-c\src\wolfSSL/wolfcrypt/src/random.c ****     }
 286:..\acn-sdk-c\src\wolfSSL/wolfcrypt/src/random.c **** 
 287:..\acn-sdk-c\src\wolfSSL/wolfcrypt/src/random.c ****     XMEMCPY(drbg->V, seed, sizeof(drbg->V));
 288:..\acn-sdk-c\src\wolfSSL/wolfcrypt/src/random.c ****     ForceZero(seed, sizeof(seed));
 289:..\acn-sdk-c\src\wolfSSL/wolfcrypt/src/random.c **** 
 290:..\acn-sdk-c\src\wolfSSL/wolfcrypt/src/random.c ****     if (Hash_df(drbg, drbg->C, sizeof(drbg->C), drbgInitC, drbg->V,
 291:..\acn-sdk-c\src\wolfSSL/wolfcrypt/src/random.c ****                                     sizeof(drbg->V), NULL, 0) != DRBG_SUCCESS) {
 292:..\acn-sdk-c\src\wolfSSL/wolfcrypt/src/random.c ****         return DRBG_FAILURE;
 293:..\acn-sdk-c\src\wolfSSL/wolfcrypt/src/random.c ****     }
 294:..\acn-sdk-c\src\wolfSSL/wolfcrypt/src/random.c **** 
 295:..\acn-sdk-c\src\wolfSSL/wolfcrypt/src/random.c ****     drbg->reseedCtr = 1;
 296:..\acn-sdk-c\src\wolfSSL/wolfcrypt/src/random.c ****     drbg->lastBlock = 0;
 297:..\acn-sdk-c\src\wolfSSL/wolfcrypt/src/random.c ****     drbg->matchCount = 0;
 298:..\acn-sdk-c\src\wolfSSL/wolfcrypt/src/random.c ****     return DRBG_SUCCESS;
 299:..\acn-sdk-c\src\wolfSSL/wolfcrypt/src/random.c **** }
 300:..\acn-sdk-c\src\wolfSSL/wolfcrypt/src/random.c **** 
 301:..\acn-sdk-c\src\wolfSSL/wolfcrypt/src/random.c **** static INLINE void array_add_one(byte* data, word32 dataSz)
 302:..\acn-sdk-c\src\wolfSSL/wolfcrypt/src/random.c **** {
 303:..\acn-sdk-c\src\wolfSSL/wolfcrypt/src/random.c ****     int i;
 304:..\acn-sdk-c\src\wolfSSL/wolfcrypt/src/random.c **** 
 305:..\acn-sdk-c\src\wolfSSL/wolfcrypt/src/random.c ****     for (i = dataSz - 1; i >= 0; i--)
 306:..\acn-sdk-c\src\wolfSSL/wolfcrypt/src/random.c ****     {
 307:..\acn-sdk-c\src\wolfSSL/wolfcrypt/src/random.c ****         data[i]++;
 308:..\acn-sdk-c\src\wolfSSL/wolfcrypt/src/random.c ****         if (data[i] != 0) break;
 309:..\acn-sdk-c\src\wolfSSL/wolfcrypt/src/random.c ****     }
 310:..\acn-sdk-c\src\wolfSSL/wolfcrypt/src/random.c **** }
 311:..\acn-sdk-c\src\wolfSSL/wolfcrypt/src/random.c **** 
 312:..\acn-sdk-c\src\wolfSSL/wolfcrypt/src/random.c **** 
 313:..\acn-sdk-c\src\wolfSSL/wolfcrypt/src/random.c **** /* Returns: DRBG_SUCCESS or DRBG_FAILURE */
 314:..\acn-sdk-c\src\wolfSSL/wolfcrypt/src/random.c **** static int Hash_gen(DRBG* drbg, byte* out, word32 outSz, const byte* V)
 315:..\acn-sdk-c\src\wolfSSL/wolfcrypt/src/random.c **** {
 316:..\acn-sdk-c\src\wolfSSL/wolfcrypt/src/random.c ****     byte data[DRBG_SEED_LEN];
 317:..\acn-sdk-c\src\wolfSSL/wolfcrypt/src/random.c ****     int i;
 318:..\acn-sdk-c\src\wolfSSL/wolfcrypt/src/random.c ****     int len;
 319:..\acn-sdk-c\src\wolfSSL/wolfcrypt/src/random.c ****     word32 checkBlock;
 320:..\acn-sdk-c\src\wolfSSL/wolfcrypt/src/random.c ****     Sha256 sha;
 321:..\acn-sdk-c\src\wolfSSL/wolfcrypt/src/random.c ****     byte digest[SHA256_DIGEST_SIZE];
 322:..\acn-sdk-c\src\wolfSSL/wolfcrypt/src/random.c **** 
 323:..\acn-sdk-c\src\wolfSSL/wolfcrypt/src/random.c ****     /* Special case: outSz is 0 and out is NULL. wc_Generate a block to save for
 324:..\acn-sdk-c\src\wolfSSL/wolfcrypt/src/random.c ****      * the continuous test. */
 325:..\acn-sdk-c\src\wolfSSL/wolfcrypt/src/random.c **** 
 326:..\acn-sdk-c\src\wolfSSL/wolfcrypt/src/random.c ****     if (outSz == 0) outSz = 1;
 327:..\acn-sdk-c\src\wolfSSL/wolfcrypt/src/random.c **** 
 328:..\acn-sdk-c\src\wolfSSL/wolfcrypt/src/random.c ****     len = (outSz / OUTPUT_BLOCK_LEN) + ((outSz % OUTPUT_BLOCK_LEN) ? 1 : 0);
 329:..\acn-sdk-c\src\wolfSSL/wolfcrypt/src/random.c **** 
 330:..\acn-sdk-c\src\wolfSSL/wolfcrypt/src/random.c ****     XMEMCPY(data, V, sizeof(data));
ARM GAS  C:\Users\ddemidov\AppData\Local\Temp\ccBlgygZ.s 			page 11


 331:..\acn-sdk-c\src\wolfSSL/wolfcrypt/src/random.c ****     for (i = 0; i < len; i++) {
 332:..\acn-sdk-c\src\wolfSSL/wolfcrypt/src/random.c ****         if (wc_InitSha256(&sha) != 0 ||
 333:..\acn-sdk-c\src\wolfSSL/wolfcrypt/src/random.c ****             wc_Sha256Update(&sha, data, sizeof(data)) != 0 ||
 334:..\acn-sdk-c\src\wolfSSL/wolfcrypt/src/random.c ****             wc_Sha256Final(&sha, digest) != 0) {
 335:..\acn-sdk-c\src\wolfSSL/wolfcrypt/src/random.c **** 
 336:..\acn-sdk-c\src\wolfSSL/wolfcrypt/src/random.c ****             return DRBG_FAILURE;
 337:..\acn-sdk-c\src\wolfSSL/wolfcrypt/src/random.c ****         }
 338:..\acn-sdk-c\src\wolfSSL/wolfcrypt/src/random.c **** 
 339:..\acn-sdk-c\src\wolfSSL/wolfcrypt/src/random.c ****         XMEMCPY(&checkBlock, digest, sizeof(word32));
 340:..\acn-sdk-c\src\wolfSSL/wolfcrypt/src/random.c ****         if (drbg->reseedCtr > 1 && checkBlock == drbg->lastBlock) {
 341:..\acn-sdk-c\src\wolfSSL/wolfcrypt/src/random.c ****             if (drbg->matchCount == 1) {
 342:..\acn-sdk-c\src\wolfSSL/wolfcrypt/src/random.c ****                 return DRBG_CONT_FAILURE;
 343:..\acn-sdk-c\src\wolfSSL/wolfcrypt/src/random.c ****             }
 344:..\acn-sdk-c\src\wolfSSL/wolfcrypt/src/random.c ****             else {
 345:..\acn-sdk-c\src\wolfSSL/wolfcrypt/src/random.c ****                 if (i == len) {
 346:..\acn-sdk-c\src\wolfSSL/wolfcrypt/src/random.c ****                     len++;
 347:..\acn-sdk-c\src\wolfSSL/wolfcrypt/src/random.c ****                 }
 348:..\acn-sdk-c\src\wolfSSL/wolfcrypt/src/random.c ****                 drbg->matchCount = 1;
 349:..\acn-sdk-c\src\wolfSSL/wolfcrypt/src/random.c ****             }
 350:..\acn-sdk-c\src\wolfSSL/wolfcrypt/src/random.c ****         }
 351:..\acn-sdk-c\src\wolfSSL/wolfcrypt/src/random.c ****         else {
 352:..\acn-sdk-c\src\wolfSSL/wolfcrypt/src/random.c ****             drbg->matchCount = 0;
 353:..\acn-sdk-c\src\wolfSSL/wolfcrypt/src/random.c ****             drbg->lastBlock = checkBlock;
 354:..\acn-sdk-c\src\wolfSSL/wolfcrypt/src/random.c ****         }
 355:..\acn-sdk-c\src\wolfSSL/wolfcrypt/src/random.c **** 
 356:..\acn-sdk-c\src\wolfSSL/wolfcrypt/src/random.c ****         if (outSz >= OUTPUT_BLOCK_LEN) {
 357:..\acn-sdk-c\src\wolfSSL/wolfcrypt/src/random.c ****             XMEMCPY(out, digest, OUTPUT_BLOCK_LEN);
 358:..\acn-sdk-c\src\wolfSSL/wolfcrypt/src/random.c ****             outSz -= OUTPUT_BLOCK_LEN;
 359:..\acn-sdk-c\src\wolfSSL/wolfcrypt/src/random.c ****             out += OUTPUT_BLOCK_LEN;
 360:..\acn-sdk-c\src\wolfSSL/wolfcrypt/src/random.c ****             array_add_one(data, DRBG_SEED_LEN);
 361:..\acn-sdk-c\src\wolfSSL/wolfcrypt/src/random.c ****         }
 362:..\acn-sdk-c\src\wolfSSL/wolfcrypt/src/random.c ****         else if (out != NULL && outSz != 0) {
 363:..\acn-sdk-c\src\wolfSSL/wolfcrypt/src/random.c ****             XMEMCPY(out, digest, outSz);
 364:..\acn-sdk-c\src\wolfSSL/wolfcrypt/src/random.c ****             outSz = 0;
 365:..\acn-sdk-c\src\wolfSSL/wolfcrypt/src/random.c ****         }
 366:..\acn-sdk-c\src\wolfSSL/wolfcrypt/src/random.c ****     }
 367:..\acn-sdk-c\src\wolfSSL/wolfcrypt/src/random.c ****     ForceZero(data, sizeof(data));
 368:..\acn-sdk-c\src\wolfSSL/wolfcrypt/src/random.c **** 
 369:..\acn-sdk-c\src\wolfSSL/wolfcrypt/src/random.c ****     return DRBG_SUCCESS;
 370:..\acn-sdk-c\src\wolfSSL/wolfcrypt/src/random.c **** }
 371:..\acn-sdk-c\src\wolfSSL/wolfcrypt/src/random.c **** 
 372:..\acn-sdk-c\src\wolfSSL/wolfcrypt/src/random.c **** 
 373:..\acn-sdk-c\src\wolfSSL/wolfcrypt/src/random.c **** static INLINE void array_add(byte* d, word32 dLen, const byte* s, word32 sLen)
 374:..\acn-sdk-c\src\wolfSSL/wolfcrypt/src/random.c **** {
 375:..\acn-sdk-c\src\wolfSSL/wolfcrypt/src/random.c ****     word16 carry = 0;
 376:..\acn-sdk-c\src\wolfSSL/wolfcrypt/src/random.c **** 
 377:..\acn-sdk-c\src\wolfSSL/wolfcrypt/src/random.c ****     if (dLen > 0 && sLen > 0 && dLen >= sLen) {
 378:..\acn-sdk-c\src\wolfSSL/wolfcrypt/src/random.c ****         int sIdx, dIdx;
 379:..\acn-sdk-c\src\wolfSSL/wolfcrypt/src/random.c **** 
 380:..\acn-sdk-c\src\wolfSSL/wolfcrypt/src/random.c ****         for (sIdx = sLen - 1, dIdx = dLen - 1; sIdx >= 0; dIdx--, sIdx--)
 381:..\acn-sdk-c\src\wolfSSL/wolfcrypt/src/random.c ****         {
 382:..\acn-sdk-c\src\wolfSSL/wolfcrypt/src/random.c ****             carry += d[dIdx] + s[sIdx];
 383:..\acn-sdk-c\src\wolfSSL/wolfcrypt/src/random.c ****             d[dIdx] = (byte)carry;
 384:..\acn-sdk-c\src\wolfSSL/wolfcrypt/src/random.c ****             carry >>= 8;
 385:..\acn-sdk-c\src\wolfSSL/wolfcrypt/src/random.c ****         }
 386:..\acn-sdk-c\src\wolfSSL/wolfcrypt/src/random.c **** 
 387:..\acn-sdk-c\src\wolfSSL/wolfcrypt/src/random.c ****         for (; carry != 0 && dIdx >= 0; dIdx--) {
ARM GAS  C:\Users\ddemidov\AppData\Local\Temp\ccBlgygZ.s 			page 12


 388:..\acn-sdk-c\src\wolfSSL/wolfcrypt/src/random.c ****             carry += d[dIdx];
 389:..\acn-sdk-c\src\wolfSSL/wolfcrypt/src/random.c ****             d[dIdx] = (byte)carry;
 390:..\acn-sdk-c\src\wolfSSL/wolfcrypt/src/random.c ****             carry >>= 8;
 391:..\acn-sdk-c\src\wolfSSL/wolfcrypt/src/random.c ****         }
 392:..\acn-sdk-c\src\wolfSSL/wolfcrypt/src/random.c ****     }
 393:..\acn-sdk-c\src\wolfSSL/wolfcrypt/src/random.c **** }
 394:..\acn-sdk-c\src\wolfSSL/wolfcrypt/src/random.c **** 
 395:..\acn-sdk-c\src\wolfSSL/wolfcrypt/src/random.c **** 
 396:..\acn-sdk-c\src\wolfSSL/wolfcrypt/src/random.c **** /* Returns: DRBG_SUCCESS, DRBG_NEED_RESEED, or DRBG_FAILURE */
 397:..\acn-sdk-c\src\wolfSSL/wolfcrypt/src/random.c **** static int Hash_DRBG_Generate(DRBG* drbg, byte* out, word32 outSz)
 398:..\acn-sdk-c\src\wolfSSL/wolfcrypt/src/random.c **** {
 399:..\acn-sdk-c\src\wolfSSL/wolfcrypt/src/random.c ****     int ret = DRBG_NEED_RESEED;
 400:..\acn-sdk-c\src\wolfSSL/wolfcrypt/src/random.c ****     Sha256 sha;
 401:..\acn-sdk-c\src\wolfSSL/wolfcrypt/src/random.c ****     byte digest[SHA256_DIGEST_SIZE];
 402:..\acn-sdk-c\src\wolfSSL/wolfcrypt/src/random.c **** 
 403:..\acn-sdk-c\src\wolfSSL/wolfcrypt/src/random.c ****     if (drbg->reseedCtr != RESEED_INTERVAL) {
 404:..\acn-sdk-c\src\wolfSSL/wolfcrypt/src/random.c ****         byte type = drbgGenerateH;
 405:..\acn-sdk-c\src\wolfSSL/wolfcrypt/src/random.c ****         word32 reseedCtr = drbg->reseedCtr;
 406:..\acn-sdk-c\src\wolfSSL/wolfcrypt/src/random.c **** 
 407:..\acn-sdk-c\src\wolfSSL/wolfcrypt/src/random.c ****         ret = Hash_gen(drbg, out, outSz, drbg->V);
 408:..\acn-sdk-c\src\wolfSSL/wolfcrypt/src/random.c ****         if (ret == DRBG_SUCCESS) {
 409:..\acn-sdk-c\src\wolfSSL/wolfcrypt/src/random.c ****             if (wc_InitSha256(&sha) != 0 ||
 410:..\acn-sdk-c\src\wolfSSL/wolfcrypt/src/random.c ****                 wc_Sha256Update(&sha, &type, sizeof(type)) != 0 ||
 411:..\acn-sdk-c\src\wolfSSL/wolfcrypt/src/random.c ****                 wc_Sha256Update(&sha, drbg->V, sizeof(drbg->V)) != 0 ||
 412:..\acn-sdk-c\src\wolfSSL/wolfcrypt/src/random.c ****                 wc_Sha256Final(&sha, digest) != 0) {
 413:..\acn-sdk-c\src\wolfSSL/wolfcrypt/src/random.c **** 
 414:..\acn-sdk-c\src\wolfSSL/wolfcrypt/src/random.c ****                 ret = DRBG_FAILURE;
 415:..\acn-sdk-c\src\wolfSSL/wolfcrypt/src/random.c ****             }
 416:..\acn-sdk-c\src\wolfSSL/wolfcrypt/src/random.c ****             else {
 417:..\acn-sdk-c\src\wolfSSL/wolfcrypt/src/random.c ****                 array_add(drbg->V, sizeof(drbg->V), digest, sizeof(digest));
 418:..\acn-sdk-c\src\wolfSSL/wolfcrypt/src/random.c ****                 array_add(drbg->V, sizeof(drbg->V), drbg->C, sizeof(drbg->C));
 419:..\acn-sdk-c\src\wolfSSL/wolfcrypt/src/random.c ****                 #ifdef LITTLE_ENDIAN_ORDER
 420:..\acn-sdk-c\src\wolfSSL/wolfcrypt/src/random.c ****                     reseedCtr = ByteReverseWord32(reseedCtr);
 421:..\acn-sdk-c\src\wolfSSL/wolfcrypt/src/random.c ****                 #endif
 422:..\acn-sdk-c\src\wolfSSL/wolfcrypt/src/random.c ****                 array_add(drbg->V, sizeof(drbg->V),
 423:..\acn-sdk-c\src\wolfSSL/wolfcrypt/src/random.c ****                                           (byte*)&reseedCtr, sizeof(reseedCtr));
 424:..\acn-sdk-c\src\wolfSSL/wolfcrypt/src/random.c ****                 ret = DRBG_SUCCESS;
 425:..\acn-sdk-c\src\wolfSSL/wolfcrypt/src/random.c ****             }
 426:..\acn-sdk-c\src\wolfSSL/wolfcrypt/src/random.c ****             drbg->reseedCtr++;
 427:..\acn-sdk-c\src\wolfSSL/wolfcrypt/src/random.c ****         }
 428:..\acn-sdk-c\src\wolfSSL/wolfcrypt/src/random.c ****     }
 429:..\acn-sdk-c\src\wolfSSL/wolfcrypt/src/random.c ****     ForceZero(digest, sizeof(digest));
 430:..\acn-sdk-c\src\wolfSSL/wolfcrypt/src/random.c **** 
 431:..\acn-sdk-c\src\wolfSSL/wolfcrypt/src/random.c ****     return ret;
 432:..\acn-sdk-c\src\wolfSSL/wolfcrypt/src/random.c **** }
 433:..\acn-sdk-c\src\wolfSSL/wolfcrypt/src/random.c **** 
 434:..\acn-sdk-c\src\wolfSSL/wolfcrypt/src/random.c **** 
 435:..\acn-sdk-c\src\wolfSSL/wolfcrypt/src/random.c **** /* Returns: DRBG_SUCCESS or DRBG_FAILURE */
 436:..\acn-sdk-c\src\wolfSSL/wolfcrypt/src/random.c **** static int Hash_DRBG_Instantiate(DRBG* drbg, const byte* seed, word32 seedSz,
 437:..\acn-sdk-c\src\wolfSSL/wolfcrypt/src/random.c ****                                              const byte* nonce, word32 nonceSz)
 438:..\acn-sdk-c\src\wolfSSL/wolfcrypt/src/random.c **** {
 439:..\acn-sdk-c\src\wolfSSL/wolfcrypt/src/random.c ****     int ret = DRBG_FAILURE;
 440:..\acn-sdk-c\src\wolfSSL/wolfcrypt/src/random.c **** 
 441:..\acn-sdk-c\src\wolfSSL/wolfcrypt/src/random.c ****     XMEMSET(drbg, 0, sizeof(DRBG));
 442:..\acn-sdk-c\src\wolfSSL/wolfcrypt/src/random.c **** 
 443:..\acn-sdk-c\src\wolfSSL/wolfcrypt/src/random.c ****     if (Hash_df(drbg, drbg->V, sizeof(drbg->V), drbgInitV, seed, seedSz,
 444:..\acn-sdk-c\src\wolfSSL/wolfcrypt/src/random.c ****                                               nonce, nonceSz) == DRBG_SUCCESS &&
ARM GAS  C:\Users\ddemidov\AppData\Local\Temp\ccBlgygZ.s 			page 13


 445:..\acn-sdk-c\src\wolfSSL/wolfcrypt/src/random.c ****         Hash_df(drbg, drbg->C, sizeof(drbg->C), drbgInitC, drbg->V,
 446:..\acn-sdk-c\src\wolfSSL/wolfcrypt/src/random.c ****                                     sizeof(drbg->V), NULL, 0) == DRBG_SUCCESS) {
 447:..\acn-sdk-c\src\wolfSSL/wolfcrypt/src/random.c **** 
 448:..\acn-sdk-c\src\wolfSSL/wolfcrypt/src/random.c ****         drbg->reseedCtr = 1;
 449:..\acn-sdk-c\src\wolfSSL/wolfcrypt/src/random.c ****         drbg->lastBlock = 0;
 450:..\acn-sdk-c\src\wolfSSL/wolfcrypt/src/random.c ****         drbg->matchCount = 0;
 451:..\acn-sdk-c\src\wolfSSL/wolfcrypt/src/random.c ****         ret = DRBG_SUCCESS;
 452:..\acn-sdk-c\src\wolfSSL/wolfcrypt/src/random.c ****     }
 453:..\acn-sdk-c\src\wolfSSL/wolfcrypt/src/random.c **** 
 454:..\acn-sdk-c\src\wolfSSL/wolfcrypt/src/random.c ****     return ret;
 455:..\acn-sdk-c\src\wolfSSL/wolfcrypt/src/random.c **** }
 456:..\acn-sdk-c\src\wolfSSL/wolfcrypt/src/random.c **** 
 457:..\acn-sdk-c\src\wolfSSL/wolfcrypt/src/random.c **** 
 458:..\acn-sdk-c\src\wolfSSL/wolfcrypt/src/random.c **** /* Returns: DRBG_SUCCESS or DRBG_FAILURE */
 459:..\acn-sdk-c\src\wolfSSL/wolfcrypt/src/random.c **** static int Hash_DRBG_Uninstantiate(DRBG* drbg)
 460:..\acn-sdk-c\src\wolfSSL/wolfcrypt/src/random.c **** {
  57              		.loc 2 460 0
  58              		.cfi_startproc
  59              	.LVL5:
  60 0000 10B5     		push	{r4, lr}
  61              		.cfi_def_cfa_offset 8
  62              		.cfi_offset 4, -8
  63              		.cfi_offset 14, -4
  64              		.loc 2 460 0
  65 0002 041C     		mov	r4, r0
 461:..\acn-sdk-c\src\wolfSSL/wolfcrypt/src/random.c ****     word32 i;
 462:..\acn-sdk-c\src\wolfSSL/wolfcrypt/src/random.c ****     int    compareSum = 0;
 463:..\acn-sdk-c\src\wolfSSL/wolfcrypt/src/random.c ****     byte*  compareDrbg = (byte*)drbg;
 464:..\acn-sdk-c\src\wolfSSL/wolfcrypt/src/random.c **** 
 465:..\acn-sdk-c\src\wolfSSL/wolfcrypt/src/random.c ****     ForceZero(drbg, sizeof(DRBG));
  66              		.loc 2 465 0
  67 0004 7821     		mov	r1, #120
  68 0006 FFF7FEFF 		bl	ForceZero
  69              	.LVL6:
  70 000a 221C     		mov	r2, r4
  71 000c 201C     		mov	r0, r4
 462:..\acn-sdk-c\src\wolfSSL/wolfcrypt/src/random.c ****     byte*  compareDrbg = (byte*)drbg;
  72              		.loc 2 462 0
  73 000e 0023     		mov	r3, #0
  74 0010 7832     		add	r2, r2, #120
  75              	.LVL7:
  76              	.L7:
 466:..\acn-sdk-c\src\wolfSSL/wolfcrypt/src/random.c **** 
 467:..\acn-sdk-c\src\wolfSSL/wolfcrypt/src/random.c ****     for (i = 0; i < sizeof(DRBG); i++)
 468:..\acn-sdk-c\src\wolfSSL/wolfcrypt/src/random.c ****         compareSum |= compareDrbg[i] ^ 0;
  77              		.loc 2 468 0 discriminator 3
  78 0012 0178     		ldrb	r1, [r0]
  79 0014 0130     		add	r0, r0, #1
  80              	.LVL8:
  81 0016 0B43     		orr	r3, r1
  82              	.LVL9:
 467:..\acn-sdk-c\src\wolfSSL/wolfcrypt/src/random.c ****         compareSum |= compareDrbg[i] ^ 0;
  83              		.loc 2 467 0 discriminator 3
  84 0018 9042     		cmp	r0, r2
  85 001a FAD1     		bne	.L7
 469:..\acn-sdk-c\src\wolfSSL/wolfcrypt/src/random.c **** 
 470:..\acn-sdk-c\src\wolfSSL/wolfcrypt/src/random.c ****     return (compareSum == 0) ? DRBG_SUCCESS : DRBG_FAILURE;
ARM GAS  C:\Users\ddemidov\AppData\Local\Temp\ccBlgygZ.s 			page 14


  86              		.loc 2 470 0
  87 001c 181C     		mov	r0, r3
  88 001e 431E     		sub	r3, r0, #1
  89 0020 9841     		sbc	r0, r0, r3
  90              	.LVL10:
 471:..\acn-sdk-c\src\wolfSSL/wolfcrypt/src/random.c **** }
  91              		.loc 2 471 0
  92              		@ sp needed
 470:..\acn-sdk-c\src\wolfSSL/wolfcrypt/src/random.c **** }
  93              		.loc 2 470 0
  94 0022 4000     		lsl	r0, r0, #1
  95              	.LVL11:
  96              		.loc 2 471 0
  97 0024 10BD     		pop	{r4, pc}
  98              		.cfi_endproc
  99              	.LFE19:
 100              		.size	Hash_DRBG_Uninstantiate, .-Hash_DRBG_Uninstantiate
 101              		.section	.text.unlikely.array_add.part.0.constprop.8,"ax",%progbits
 102              		.align	1
 103              		.code	16
 104              		.thumb_func
 105              		.type	array_add.part.0.constprop.8, %function
 106              	array_add.part.0.constprop.8:
 107              	.LFB30:
 373:..\acn-sdk-c\src\wolfSSL/wolfcrypt/src/random.c **** {
 108              		.loc 2 373 0
 109              		.cfi_startproc
 110              	.LVL12:
 111 0000 70B5     		push	{r4, r5, r6, lr}
 112              		.cfi_def_cfa_offset 16
 113              		.cfi_offset 4, -16
 114              		.cfi_offset 5, -12
 115              		.cfi_offset 6, -8
 116              		.cfi_offset 14, -4
 375:..\acn-sdk-c\src\wolfSSL/wolfcrypt/src/random.c **** 
 117              		.loc 2 375 0
 118 0002 0023     		mov	r3, #0
 119              	.LBB13:
 380:..\acn-sdk-c\src\wolfSSL/wolfcrypt/src/random.c ****         {
 120              		.loc 2 380 0
 121 0004 3624     		mov	r4, #54
 122 0006 013A     		sub	r2, r2, #1
 123              	.LVL13:
 124              	.L11:
 125 0008 002A     		cmp	r2, #0
 126 000a 11DB     		blt	.L13
 382:..\acn-sdk-c\src\wolfSSL/wolfcrypt/src/random.c ****             d[dIdx] = (byte)carry;
 127              		.loc 2 382 0
 128 000c 065D     		ldrb	r6, [r0, r4]
 129 000e 8D5C     		ldrb	r5, [r1, r2]
 130 0010 9B19     		add	r3, r3, r6
 131              	.LVL14:
 132 0012 5B19     		add	r3, r3, r5
 133              	.LVL15:
 383:..\acn-sdk-c\src\wolfSSL/wolfcrypt/src/random.c ****             carry >>= 8;
 134              		.loc 2 383 0
 135 0014 0355     		strb	r3, [r0, r4]
ARM GAS  C:\Users\ddemidov\AppData\Local\Temp\ccBlgygZ.s 			page 15


 384:..\acn-sdk-c\src\wolfSSL/wolfcrypt/src/random.c ****         }
 136              		.loc 2 384 0
 137 0016 1B0A     		lsr	r3, r3, #8
 138              	.LVL16:
 139 0018 9BB2     		uxth	r3, r3
 140              	.LVL17:
 380:..\acn-sdk-c\src\wolfSSL/wolfcrypt/src/random.c ****         {
 141              		.loc 2 380 0
 142 001a 013C     		sub	r4, r4, #1
 143              	.LVL18:
 144 001c 013A     		sub	r2, r2, #1
 145              	.LVL19:
 146 001e F3E7     		b	.L11
 147              	.L19:
 387:..\acn-sdk-c\src\wolfSSL/wolfcrypt/src/random.c ****             carry += d[dIdx];
 148              		.loc 2 387 0
 149 0020 002C     		cmp	r4, #0
 150 0022 07DB     		blt	.L10
 388:..\acn-sdk-c\src\wolfSSL/wolfcrypt/src/random.c ****             d[dIdx] = (byte)carry;
 151              		.loc 2 388 0
 152 0024 035D     		ldrb	r3, [r0, r4]
 153              	.LVL20:
 154 0026 0133     		add	r3, r3, #1
 155              	.LVL21:
 389:..\acn-sdk-c\src\wolfSSL/wolfcrypt/src/random.c ****             carry >>= 8;
 156              		.loc 2 389 0
 157 0028 0355     		strb	r3, [r0, r4]
 390:..\acn-sdk-c\src\wolfSSL/wolfcrypt/src/random.c ****         }
 158              		.loc 2 390 0
 159 002a 1B0A     		lsr	r3, r3, #8
 160              	.LVL22:
 161 002c 9BB2     		uxth	r3, r3
 162              	.LVL23:
 387:..\acn-sdk-c\src\wolfSSL/wolfcrypt/src/random.c ****             carry += d[dIdx];
 163              		.loc 2 387 0
 164 002e 013C     		sub	r4, r4, #1
 165              	.LVL24:
 166              	.L13:
 167 0030 002B     		cmp	r3, #0
 168 0032 F5D1     		bne	.L19
 169              	.L10:
 170              	.LBE13:
 393:..\acn-sdk-c\src\wolfSSL/wolfcrypt/src/random.c **** 
 171              		.loc 2 393 0
 172              		@ sp needed
 173              	.LVL25:
 174 0034 70BD     		pop	{r4, r5, r6, pc}
 175              		.cfi_endproc
 176              	.LFE30:
 177              		.size	array_add.part.0.constprop.8, .-array_add.part.0.constprop.8
 178              		.section	.text.Hash_df.isra.1.constprop.7,"ax",%progbits
 179              		.align	1
 180              		.code	16
 181              		.thumb_func
 182              		.type	Hash_df.isra.1.constprop.7, %function
 183              	Hash_df.isra.1.constprop.7:
 184              	.LFB31:
ARM GAS  C:\Users\ddemidov\AppData\Local\Temp\ccBlgygZ.s 			page 16


 218:..\acn-sdk-c\src\wolfSSL/wolfcrypt/src/random.c ****                                                   const byte* inA, word32 inASz,
 185              		.loc 2 218 0
 186              		.cfi_startproc
 187              	.LVL26:
 188 0000 F0B5     		push	{r4, r5, r6, r7, lr}
 189              		.cfi_def_cfa_offset 20
 190              		.cfi_offset 4, -20
 191              		.cfi_offset 5, -16
 192              		.cfi_offset 6, -12
 193              		.cfi_offset 7, -8
 194              		.cfi_offset 14, -4
 195 0002 ABB0     		sub	sp, sp, #172
 196              		.cfi_def_cfa_offset 192
 218:..\acn-sdk-c\src\wolfSSL/wolfcrypt/src/random.c ****                                                   const byte* inA, word32 inASz,
 197              		.loc 2 218 0
 198 0004 0293     		str	r3, [sp, #8]
 199 0006 02AB     		add	r3, sp, #8
 200              	.LVL27:
 201 0008 D971     		strb	r1, [r3, #7]
 231:..\acn-sdk-c\src\wolfSSL/wolfcrypt/src/random.c ****     #endif
 202              		.loc 2 231 0
 203 000a 344B     		ldr	r3, .L40
 204              	.LVL28:
 218:..\acn-sdk-c\src\wolfSSL/wolfcrypt/src/random.c ****                                                   const byte* inA, word32 inASz,
 205              		.loc 2 218 0
 206 000c 0192     		str	r2, [sp, #4]
 231:..\acn-sdk-c\src\wolfSSL/wolfcrypt/src/random.c ****     #endif
 207              		.loc 2 231 0
 208 000e 0693     		str	r3, [sp, #24]
 209              	.LVL29:
 236:..\acn-sdk-c\src\wolfSSL/wolfcrypt/src/random.c ****     {
 210              		.loc 2 236 0
 211 0010 0F23     		mov	r3, #15
 212 0012 0122     		mov	r2, #1
 213              	.LVL30:
 218:..\acn-sdk-c\src\wolfSSL/wolfcrypt/src/random.c ****                                                   const byte* inA, word32 inASz,
 214              		.loc 2 218 0
 215 0014 041C     		mov	r4, r0
 236:..\acn-sdk-c\src\wolfSSL/wolfcrypt/src/random.c ****     {
 216              		.loc 2 236 0
 217 0016 0227     		mov	r7, #2
 218 0018 3726     		mov	r6, #55
 219 001a 02A9     		add	r1, sp, #8
 220              	.LVL31:
 221 001c 5B18     		add	r3, r3, r1
 222 001e 1A70     		strb	r2, [r3]
 223              	.LVL32:
 224              	.L32:
 238:..\acn-sdk-c\src\wolfSSL/wolfcrypt/src/random.c ****             return DRBG_FAILURE;
 225              		.loc 2 238 0
 226 0020 0FA8     		add	r0, sp, #60
 227 0022 FFF7FEFF 		bl	wc_InitSha256
 228              	.LVL33:
 229 0026 0028     		cmp	r0, #0
 230 0028 01D0     		beq	.L21
 231              	.L23:
 239:..\acn-sdk-c\src\wolfSSL/wolfcrypt/src/random.c **** 
ARM GAS  C:\Users\ddemidov\AppData\Local\Temp\ccBlgygZ.s 			page 17


 232              		.loc 2 239 0
 233 002a 0225     		mov	r5, #2
 234 002c 53E0     		b	.L22
 235              	.L21:
 241:..\acn-sdk-c\src\wolfSSL/wolfcrypt/src/random.c ****             return DRBG_FAILURE;
 236              		.loc 2 241 0
 237 002e 0F21     		mov	r1, #15
 238 0030 02AB     		add	r3, sp, #8
 239              	.LVL34:
 240 0032 0FA8     		add	r0, sp, #60
 241 0034 C918     		add	r1, r1, r3
 242 0036 0122     		mov	r2, #1
 243 0038 FFF7FEFF 		bl	wc_Sha256Update
 244              	.LVL35:
 245 003c 0028     		cmp	r0, #0
 246 003e F4D1     		bne	.L23
 244:..\acn-sdk-c\src\wolfSSL/wolfcrypt/src/random.c ****             return DRBG_FAILURE;
 247              		.loc 2 244 0
 248 0040 0FA8     		add	r0, sp, #60
 249 0042 06A9     		add	r1, sp, #24
 250 0044 0422     		mov	r2, #4
 251 0046 FFF7FEFF 		bl	wc_Sha256Update
 252              	.LVL36:
 253 004a 0028     		cmp	r0, #0
 254 004c EDD1     		bne	.L23
 248:..\acn-sdk-c\src\wolfSSL/wolfcrypt/src/random.c ****             if (wc_Sha256Update(&sha, &type, sizeof(type)) != 0)
 255              		.loc 2 248 0
 256 004e 02AB     		add	r3, sp, #8
 257              	.LVL37:
 258 0050 D91D     		add	r1, r3, #7
 259              	.LVL38:
 260 0052 0B78     		ldrb	r3, [r1]
 261              	.LVL39:
 262 0054 042B     		cmp	r3, #4
 263 0056 07D1     		bne	.L24
 264              	.LVL40:
 265              	.L26:
 252:..\acn-sdk-c\src\wolfSSL/wolfcrypt/src/random.c ****             return DRBG_FAILURE;
 266              		.loc 2 252 0
 267 0058 0FA8     		add	r0, sp, #60
 268 005a 0199     		ldr	r1, [sp, #4]
 269 005c 029A     		ldr	r2, [sp, #8]
 270 005e FFF7FEFF 		bl	wc_Sha256Update
 271              	.LVL41:
 272 0062 0028     		cmp	r0, #0
 273 0064 07D0     		beq	.L37
 274 0066 E0E7     		b	.L23
 275              	.LVL42:
 276              	.L24:
 249:..\acn-sdk-c\src\wolfSSL/wolfcrypt/src/random.c ****                 return DRBG_FAILURE;
 277              		.loc 2 249 0
 278 0068 0FA8     		add	r0, sp, #60
 279 006a 0122     		mov	r2, #1
 280 006c FFF7FEFF 		bl	wc_Sha256Update
 281              	.LVL43:
 282 0070 0028     		cmp	r0, #0
 283 0072 F1D0     		beq	.L26
ARM GAS  C:\Users\ddemidov\AppData\Local\Temp\ccBlgygZ.s 			page 18


 284 0074 D9E7     		b	.L23
 285              	.L37:
 255:..\acn-sdk-c\src\wolfSSL/wolfcrypt/src/random.c ****             if (wc_Sha256Update(&sha, inB, inBSz) != 0)
 286              		.loc 2 255 0
 287 0076 309B     		ldr	r3, [sp, #192]
 288 0078 002B     		cmp	r3, #0
 289 007a 06D1     		bne	.L27
 290              	.L29:
 259:..\acn-sdk-c\src\wolfSSL/wolfcrypt/src/random.c ****             return DRBG_FAILURE;
 291              		.loc 2 259 0
 292 007c 0FA8     		add	r0, sp, #60
 293 007e 07A9     		add	r1, sp, #28
 294 0080 FFF7FEFF 		bl	wc_Sha256Final
 295              	.LVL44:
 296 0084 051E     		sub	r5, r0, #0
 297 0086 0BD0     		beq	.L38
 298 0088 CFE7     		b	.L23
 299              	.L27:
 255:..\acn-sdk-c\src\wolfSSL/wolfcrypt/src/random.c ****             if (wc_Sha256Update(&sha, inB, inBSz) != 0)
 300              		.loc 2 255 0
 301 008a 319B     		ldr	r3, [sp, #196]
 302 008c 002B     		cmp	r3, #0
 303 008e F5D0     		beq	.L29
 256:..\acn-sdk-c\src\wolfSSL/wolfcrypt/src/random.c ****                 return DRBG_FAILURE;
 304              		.loc 2 256 0
 305 0090 0FA8     		add	r0, sp, #60
 306 0092 3099     		ldr	r1, [sp, #192]
 307 0094 1A1C     		mov	r2, r3
 308 0096 FFF7FEFF 		bl	wc_Sha256Update
 309              	.LVL45:
 310 009a 0028     		cmp	r0, #0
 311 009c EED0     		beq	.L29
 312 009e C4E7     		b	.L23
 313              	.L38:
 263:..\acn-sdk-c\src\wolfSSL/wolfcrypt/src/random.c ****             outSz -= OUTPUT_BLOCK_LEN;
 314              		.loc 2 263 0
 315 00a0 201C     		mov	r0, r4
 316 00a2 07A9     		add	r1, sp, #28
 262:..\acn-sdk-c\src\wolfSSL/wolfcrypt/src/random.c ****             XMEMCPY(out, digest, OUTPUT_BLOCK_LEN);
 317              		.loc 2 262 0
 318 00a4 202E     		cmp	r6, #32
 319 00a6 05D9     		bls	.L30
 320              	.LVL46:
 263:..\acn-sdk-c\src\wolfSSL/wolfcrypt/src/random.c ****             outSz -= OUTPUT_BLOCK_LEN;
 321              		.loc 2 263 0
 322 00a8 2022     		mov	r2, #32
 323 00aa FFF7FEFF 		bl	memcpy
 324              	.LVL47:
 265:..\acn-sdk-c\src\wolfSSL/wolfcrypt/src/random.c ****         }
 325              		.loc 2 265 0
 326 00ae 2034     		add	r4, r4, #32
 327              	.LVL48:
 264:..\acn-sdk-c\src\wolfSSL/wolfcrypt/src/random.c ****             out += OUTPUT_BLOCK_LEN;
 328              		.loc 2 264 0
 329 00b0 1726     		mov	r6, #23
 330 00b2 02E0     		b	.L31
 331              	.LVL49:
ARM GAS  C:\Users\ddemidov\AppData\Local\Temp\ccBlgygZ.s 			page 19


 332              	.L30:
 268:..\acn-sdk-c\src\wolfSSL/wolfcrypt/src/random.c ****         }
 333              		.loc 2 268 0
 334 00b4 321C     		mov	r2, r6
 335 00b6 FFF7FEFF 		bl	memcpy
 336              	.LVL50:
 337              	.L31:
 236:..\acn-sdk-c\src\wolfSSL/wolfcrypt/src/random.c ****     {
 338              		.loc 2 236 0
 339 00ba 0F22     		mov	r2, #15
 340 00bc 02AB     		add	r3, sp, #8
 341              	.LVL51:
 342 00be D218     		add	r2, r2, r3
 343 00c0 1378     		ldrb	r3, [r2]
 344              	.LVL52:
 345 00c2 0133     		add	r3, r3, #1
 346 00c4 1370     		strb	r3, [r2]
 347 00c6 012F     		cmp	r7, #1
 348 00c8 01D0     		beq	.L39
 349 00ca 0127     		mov	r7, #1
 350              	.LVL53:
 351 00cc A8E7     		b	.L32
 352              	.LVL54:
 353              	.L39:
 271:..\acn-sdk-c\src\wolfSSL/wolfcrypt/src/random.c **** 
 354              		.loc 2 271 0
 355 00ce 07A8     		add	r0, sp, #28
 356 00d0 2021     		mov	r1, #32
 357 00d2 FFF7FEFF 		bl	ForceZero
 358              	.LVL55:
 359              	.L22:
 274:..\acn-sdk-c\src\wolfSSL/wolfcrypt/src/random.c **** 
 360              		.loc 2 274 0
 361 00d6 281C     		mov	r0, r5
 362 00d8 2BB0     		add	sp, sp, #172
 363              		@ sp needed
 364              	.LVL56:
 365              	.LVL57:
 366 00da F0BD     		pop	{r4, r5, r6, r7, pc}
 367              	.L41:
 368              		.align	2
 369              	.L40:
 370 00dc 000001B8 		.word	-1207894016
 371              		.cfi_endproc
 372              	.LFE31:
 373              		.size	Hash_df.isra.1.constprop.7, .-Hash_df.isra.1.constprop.7
 374              		.section	.text.Hash_DRBG_Instantiate.constprop.4,"ax",%progbits
 375              		.align	1
 376              		.code	16
 377              		.thumb_func
 378              		.type	Hash_DRBG_Instantiate.constprop.4, %function
 379              	Hash_DRBG_Instantiate.constprop.4:
 380              	.LFB34:
 436:..\acn-sdk-c\src\wolfSSL/wolfcrypt/src/random.c ****                                              const byte* nonce, word32 nonceSz)
 381              		.loc 2 436 0
 382              		.cfi_startproc
 383              	.LVL58:
ARM GAS  C:\Users\ddemidov\AppData\Local\Temp\ccBlgygZ.s 			page 20


 384 0000 F7B5     		push	{r0, r1, r2, r4, r5, r6, r7, lr}
 385              		.cfi_def_cfa_offset 32
 386              		.cfi_offset 0, -32
 387              		.cfi_offset 1, -28
 388              		.cfi_offset 2, -24
 389              		.cfi_offset 4, -20
 390              		.cfi_offset 5, -16
 391              		.cfi_offset 6, -12
 392              		.cfi_offset 7, -8
 393              		.cfi_offset 14, -4
 436:..\acn-sdk-c\src\wolfSSL/wolfcrypt/src/random.c ****                                              const byte* nonce, word32 nonceSz)
 394              		.loc 2 436 0
 395 0002 041C     		mov	r4, r0
 396 0004 0F1C     		mov	r7, r1
 397 0006 161C     		mov	r6, r2
 441:..\acn-sdk-c\src\wolfSSL/wolfcrypt/src/random.c **** 
 398              		.loc 2 441 0
 399 0008 0021     		mov	r1, #0
 400              	.LVL59:
 401 000a 7822     		mov	r2, #120
 402              	.LVL60:
 443:..\acn-sdk-c\src\wolfSSL/wolfcrypt/src/random.c ****                                               nonce, nonceSz) == DRBG_SUCCESS &&
 403              		.loc 2 443 0
 404 000c 251C     		mov	r5, r4
 441:..\acn-sdk-c\src\wolfSSL/wolfcrypt/src/random.c **** 
 405              		.loc 2 441 0
 406 000e FFF7FEFF 		bl	memset
 407              	.LVL61:
 443:..\acn-sdk-c\src\wolfSSL/wolfcrypt/src/random.c ****                                               nonce, nonceSz) == DRBG_SUCCESS &&
 408              		.loc 2 443 0
 409 0012 0023     		mov	r3, #0
 410 0014 0835     		add	r5, r5, #8
 411 0016 0093     		str	r3, [sp]
 412 0018 0193     		str	r3, [sp, #4]
 413 001a 0421     		mov	r1, #4
 414 001c 281C     		mov	r0, r5
 415 001e 3A1C     		mov	r2, r7
 416 0020 331C     		mov	r3, r6
 417 0022 FFF7FEFF 		bl	Hash_df.isra.1.constprop.7
 418              	.LVL62:
 419 0026 011E     		sub	r1, r0, #0
 420 0028 01D0     		beq	.L43
 421              	.L45:
 439:..\acn-sdk-c\src\wolfSSL/wolfcrypt/src/random.c **** 
 422              		.loc 2 439 0
 423 002a 0220     		mov	r0, #2
 424 002c 0EE0     		b	.L44
 425              	.L43:
 445:..\acn-sdk-c\src\wolfSSL/wolfcrypt/src/random.c ****                                     sizeof(drbg->V), NULL, 0) == DRBG_SUCCESS) {
 426              		.loc 2 445 0
 427 002e 0090     		str	r0, [sp]
 428 0030 0190     		str	r0, [sp, #4]
 429 0032 201C     		mov	r0, r4
 430 0034 2A1C     		mov	r2, r5
 431 0036 3F30     		add	r0, r0, #63
 432 0038 3723     		mov	r3, #55
 433 003a FFF7FEFF 		bl	Hash_df.isra.1.constprop.7
ARM GAS  C:\Users\ddemidov\AppData\Local\Temp\ccBlgygZ.s 			page 21


 434              	.LVL63:
 444:..\acn-sdk-c\src\wolfSSL/wolfcrypt/src/random.c ****         Hash_df(drbg, drbg->C, sizeof(drbg->C), drbgInitC, drbg->V,
 435              		.loc 2 444 0
 436 003e 0028     		cmp	r0, #0
 437 0040 F3D1     		bne	.L45
 448:..\acn-sdk-c\src\wolfSSL/wolfcrypt/src/random.c ****         drbg->lastBlock = 0;
 438              		.loc 2 448 0
 439 0042 0123     		mov	r3, #1
 449:..\acn-sdk-c\src\wolfSSL/wolfcrypt/src/random.c ****         drbg->matchCount = 0;
 440              		.loc 2 449 0
 441 0044 6060     		str	r0, [r4, #4]
 448:..\acn-sdk-c\src\wolfSSL/wolfcrypt/src/random.c ****         drbg->lastBlock = 0;
 442              		.loc 2 448 0
 443 0046 2360     		str	r3, [r4]
 450:..\acn-sdk-c\src\wolfSSL/wolfcrypt/src/random.c ****         ret = DRBG_SUCCESS;
 444              		.loc 2 450 0
 445 0048 7634     		add	r4, r4, #118
 446              	.LVL64:
 447 004a 2070     		strb	r0, [r4]
 448              	.LVL65:
 449              	.L44:
 455:..\acn-sdk-c\src\wolfSSL/wolfcrypt/src/random.c **** 
 450              		.loc 2 455 0
 451              		@ sp needed
 452              	.LVL66:
 453              	.LVL67:
 454              	.LVL68:
 455 004c FEBD     		pop	{r1, r2, r3, r4, r5, r6, r7, pc}
 456              		.cfi_endproc
 457              	.LFE34:
 458              		.size	Hash_DRBG_Instantiate.constprop.4, .-Hash_DRBG_Instantiate.constprop.4
 459              		.section	.text.Hash_DRBG_Reseed,"ax",%progbits
 460              		.align	1
 461              		.code	16
 462              		.thumb_func
 463              		.type	Hash_DRBG_Reseed, %function
 464              	Hash_DRBG_Reseed:
 465              	.LFB13:
 279:..\acn-sdk-c\src\wolfSSL/wolfcrypt/src/random.c ****     byte seed[DRBG_SEED_LEN];
 466              		.loc 2 279 0
 467              		.cfi_startproc
 468              	.LVL69:
 469 0000 70B5     		push	{r4, r5, r6, lr}
 470              		.cfi_def_cfa_offset 16
 471              		.cfi_offset 4, -16
 472              		.cfi_offset 5, -12
 473              		.cfi_offset 6, -8
 474              		.cfi_offset 14, -4
 282:..\acn-sdk-c\src\wolfSSL/wolfcrypt/src/random.c ****                                           entropy, entropySz) != DRBG_SUCCESS) {
 475              		.loc 2 282 0
 476 0002 061C     		mov	r6, r0
 279:..\acn-sdk-c\src\wolfSSL/wolfcrypt/src/random.c ****     byte seed[DRBG_SEED_LEN];
 477              		.loc 2 279 0
 478 0004 90B0     		sub	sp, sp, #64
 479              		.cfi_def_cfa_offset 80
 282:..\acn-sdk-c\src\wolfSSL/wolfcrypt/src/random.c ****                                           entropy, entropySz) != DRBG_SUCCESS) {
 480              		.loc 2 282 0
ARM GAS  C:\Users\ddemidov\AppData\Local\Temp\ccBlgygZ.s 			page 22


 481 0006 0836     		add	r6, r6, #8
 482 0008 0091     		str	r1, [sp]
 483 000a 0192     		str	r2, [sp, #4]
 279:..\acn-sdk-c\src\wolfSSL/wolfcrypt/src/random.c ****     byte seed[DRBG_SEED_LEN];
 484              		.loc 2 279 0
 485 000c 041C     		mov	r4, r0
 282:..\acn-sdk-c\src\wolfSSL/wolfcrypt/src/random.c ****                                           entropy, entropySz) != DRBG_SUCCESS) {
 486              		.loc 2 282 0
 487 000e 0121     		mov	r1, #1
 488              	.LVL70:
 489 0010 02A8     		add	r0, sp, #8
 490              	.LVL71:
 491 0012 321C     		mov	r2, r6
 492              	.LVL72:
 493 0014 3723     		mov	r3, #55
 494 0016 FFF7FEFF 		bl	Hash_df.isra.1.constprop.7
 495              	.LVL73:
 496 001a 051E     		sub	r5, r0, #0
 497 001c 01D0     		beq	.L47
 498              	.L49:
 284:..\acn-sdk-c\src\wolfSSL/wolfcrypt/src/random.c ****     }
 499              		.loc 2 284 0
 500 001e 0220     		mov	r0, #2
 501 0020 18E0     		b	.L48
 502              	.L47:
 287:..\acn-sdk-c\src\wolfSSL/wolfcrypt/src/random.c ****     ForceZero(seed, sizeof(seed));
 503              		.loc 2 287 0
 504 0022 3722     		mov	r2, #55
 505 0024 02A9     		add	r1, sp, #8
 506 0026 301C     		mov	r0, r6
 507 0028 FFF7FEFF 		bl	memcpy
 508              	.LVL74:
 288:..\acn-sdk-c\src\wolfSSL/wolfcrypt/src/random.c **** 
 509              		.loc 2 288 0
 510 002c 02A8     		add	r0, sp, #8
 511 002e 3721     		mov	r1, #55
 512 0030 FFF7FEFF 		bl	ForceZero
 513              	.LVL75:
 290:..\acn-sdk-c\src\wolfSSL/wolfcrypt/src/random.c ****                                     sizeof(drbg->V), NULL, 0) != DRBG_SUCCESS) {
 514              		.loc 2 290 0
 515 0034 201C     		mov	r0, r4
 516 0036 0095     		str	r5, [sp]
 517 0038 0195     		str	r5, [sp, #4]
 518 003a 3F30     		add	r0, r0, #63
 519 003c 291C     		mov	r1, r5
 520 003e 321C     		mov	r2, r6
 521 0040 3723     		mov	r3, #55
 522 0042 FFF7FEFF 		bl	Hash_df.isra.1.constprop.7
 523              	.LVL76:
 524 0046 0028     		cmp	r0, #0
 525 0048 E9D1     		bne	.L49
 295:..\acn-sdk-c\src\wolfSSL/wolfcrypt/src/random.c ****     drbg->lastBlock = 0;
 526              		.loc 2 295 0
 527 004a 0123     		mov	r3, #1
 296:..\acn-sdk-c\src\wolfSSL/wolfcrypt/src/random.c ****     drbg->matchCount = 0;
 528              		.loc 2 296 0
 529 004c 6060     		str	r0, [r4, #4]
ARM GAS  C:\Users\ddemidov\AppData\Local\Temp\ccBlgygZ.s 			page 23


 295:..\acn-sdk-c\src\wolfSSL/wolfcrypt/src/random.c ****     drbg->lastBlock = 0;
 530              		.loc 2 295 0
 531 004e 2360     		str	r3, [r4]
 297:..\acn-sdk-c\src\wolfSSL/wolfcrypt/src/random.c ****     return DRBG_SUCCESS;
 532              		.loc 2 297 0
 533 0050 7634     		add	r4, r4, #118
 534              	.LVL77:
 535 0052 2070     		strb	r0, [r4]
 536              	.LVL78:
 537              	.L48:
 299:..\acn-sdk-c\src\wolfSSL/wolfcrypt/src/random.c **** 
 538              		.loc 2 299 0
 539 0054 10B0     		add	sp, sp, #64
 540              		@ sp needed
 541              	.LVL79:
 542 0056 70BD     		pop	{r4, r5, r6, pc}
 543              		.cfi_endproc
 544              	.LFE13:
 545              		.size	Hash_DRBG_Reseed, .-Hash_DRBG_Reseed
 546              		.section	.text.Hash_DRBG_Generate,"ax",%progbits
 547              		.align	1
 548              		.code	16
 549              		.thumb_func
 550              		.type	Hash_DRBG_Generate, %function
 551              	Hash_DRBG_Generate:
 552              	.LFB17:
 398:..\acn-sdk-c\src\wolfSSL/wolfcrypt/src/random.c ****     int ret = DRBG_NEED_RESEED;
 553              		.loc 2 398 0
 554              		.cfi_startproc
 555              	.LVL80:
 556 0000 F0B5     		push	{r4, r5, r6, r7, lr}
 557              		.cfi_def_cfa_offset 20
 558              		.cfi_offset 4, -20
 559              		.cfi_offset 5, -16
 560              		.cfi_offset 6, -12
 561              		.cfi_offset 7, -8
 562              		.cfi_offset 14, -4
 563 0002 151C     		mov	r5, r2
 564 0004 0322     		mov	r2, #3
 565              	.LVL81:
 566 0006 0F1C     		mov	r7, r1
 403:..\acn-sdk-c\src\wolfSSL/wolfcrypt/src/random.c ****         byte type = drbgGenerateH;
 567              		.loc 2 403 0
 568 0008 0368     		ldr	r3, [r0]
 569 000a 5A49     		ldr	r1, .L80
 570              	.LVL82:
 398:..\acn-sdk-c\src\wolfSSL/wolfcrypt/src/random.c ****     int ret = DRBG_NEED_RESEED;
 571              		.loc 2 398 0
 572 000c B7B0     		sub	sp, sp, #220
 573              		.cfi_def_cfa_offset 240
 398:..\acn-sdk-c\src\wolfSSL/wolfcrypt/src/random.c ****     int ret = DRBG_NEED_RESEED;
 574              		.loc 2 398 0
 575 000e 041C     		mov	r4, r0
 576 0010 0DAE     		add	r6, sp, #52
 399:..\acn-sdk-c\src\wolfSSL/wolfcrypt/src/random.c ****     Sha256 sha;
 577              		.loc 2 399 0
 578 0012 0092     		str	r2, [sp]
ARM GAS  C:\Users\ddemidov\AppData\Local\Temp\ccBlgygZ.s 			page 24


 403:..\acn-sdk-c\src\wolfSSL/wolfcrypt/src/random.c ****         byte type = drbgGenerateH;
 579              		.loc 2 403 0
 580 0014 8B42     		cmp	r3, r1
 581 0016 00D1     		bne	.LCB630
 582 0018 A5E0     		b	.L51	@long jump
 583              	.LCB630:
 584              	.LBB36:
 404:..\acn-sdk-c\src\wolfSSL/wolfcrypt/src/random.c ****         word32 reseedCtr = drbg->reseedCtr;
 585              		.loc 2 404 0
 586 001a 02A9     		add	r1, sp, #8
 587 001c CA71     		strb	r2, [r1, #7]
 405:..\acn-sdk-c\src\wolfSSL/wolfcrypt/src/random.c **** 
 588              		.loc 2 405 0
 589 001e 0493     		str	r3, [sp, #16]
 590              	.LVL83:
 591              	.LBB37:
 592              	.LBB38:
 326:..\acn-sdk-c\src\wolfSSL/wolfcrypt/src/random.c **** 
 593              		.loc 2 326 0
 594 0020 002D     		cmp	r5, #0
 595 0022 00D1     		bne	.L52
 596 0024 0135     		add	r5, r5, #1
 597              	.LVL84:
 598              	.L52:
 328:..\acn-sdk-c\src\wolfSSL/wolfcrypt/src/random.c **** 
 599              		.loc 2 328 0
 600 0026 1F23     		mov	r3, #31
 601 0028 2B40     		and	r3, r5
 602 002a 5A1E     		sub	r2, r3, #1
 603 002c 9341     		sbc	r3, r3, r2
 330:..\acn-sdk-c\src\wolfSSL/wolfcrypt/src/random.c ****     for (i = 0; i < len; i++) {
 604              		.loc 2 330 0
 605 002e 211C     		mov	r1, r4
 328:..\acn-sdk-c\src\wolfSSL/wolfcrypt/src/random.c **** 
 606              		.loc 2 328 0
 607 0030 6A09     		lsr	r2, r5, #5
 608 0032 9B18     		add	r3, r3, r2
 330:..\acn-sdk-c\src\wolfSSL/wolfcrypt/src/random.c ****     for (i = 0; i < len; i++) {
 609              		.loc 2 330 0
 610 0034 301C     		mov	r0, r6
 611              	.LVL85:
 612 0036 0831     		add	r1, r1, #8
 613 0038 3722     		mov	r2, #55
 328:..\acn-sdk-c\src\wolfSSL/wolfcrypt/src/random.c **** 
 614              		.loc 2 328 0
 615 003a 0193     		str	r3, [sp, #4]
 616              	.LVL86:
 330:..\acn-sdk-c\src\wolfSSL/wolfcrypt/src/random.c ****     for (i = 0; i < len; i++) {
 617              		.loc 2 330 0
 618 003c FFF7FEFF 		bl	memcpy
 619              	.LVL87:
 331:..\acn-sdk-c\src\wolfSSL/wolfcrypt/src/random.c ****         if (wc_InitSha256(&sha) != 0 ||
 620              		.loc 2 331 0
 621 0040 0023     		mov	r3, #0
 622              	.LVL88:
 623              	.L75:
 624 0042 0093     		str	r3, [sp]
ARM GAS  C:\Users\ddemidov\AppData\Local\Temp\ccBlgygZ.s 			page 25


 625              	.LVL89:
 626 0044 009B     		ldr	r3, [sp]
 627 0046 019A     		ldr	r2, [sp, #4]
 628 0048 9342     		cmp	r3, r2
 629 004a 45DA     		bge	.L77
 332:..\acn-sdk-c\src\wolfSSL/wolfcrypt/src/random.c ****             wc_Sha256Update(&sha, data, sizeof(data)) != 0 ||
 630              		.loc 2 332 0
 631 004c 1BA8     		add	r0, sp, #108
 632 004e FFF7FEFF 		bl	wc_InitSha256
 633              	.LVL90:
 634 0052 0028     		cmp	r0, #0
 635 0054 01D0     		beq	.L54
 636              	.L56:
 336:..\acn-sdk-c\src\wolfSSL/wolfcrypt/src/random.c ****         }
 637              		.loc 2 336 0
 638 0056 0223     		mov	r3, #2
 639 0058 4BE0     		b	.L76
 640              	.L54:
 333:..\acn-sdk-c\src\wolfSSL/wolfcrypt/src/random.c ****             wc_Sha256Final(&sha, digest) != 0) {
 641              		.loc 2 333 0
 642 005a 1BA8     		add	r0, sp, #108
 643 005c 0DA9     		add	r1, sp, #52
 644 005e 3722     		mov	r2, #55
 645 0060 FFF7FEFF 		bl	wc_Sha256Update
 646              	.LVL91:
 332:..\acn-sdk-c\src\wolfSSL/wolfcrypt/src/random.c ****             wc_Sha256Update(&sha, data, sizeof(data)) != 0 ||
 647              		.loc 2 332 0
 648 0064 0028     		cmp	r0, #0
 649 0066 F6D1     		bne	.L56
 334:..\acn-sdk-c\src\wolfSSL/wolfcrypt/src/random.c **** 
 650              		.loc 2 334 0
 651 0068 1BA8     		add	r0, sp, #108
 652 006a 05A9     		add	r1, sp, #20
 653 006c FFF7FEFF 		bl	wc_Sha256Final
 654              	.LVL92:
 333:..\acn-sdk-c\src\wolfSSL/wolfcrypt/src/random.c ****             wc_Sha256Final(&sha, digest) != 0) {
 655              		.loc 2 333 0
 656 0070 0028     		cmp	r0, #0
 657 0072 F0D1     		bne	.L56
 658 0074 231C     		mov	r3, r4
 340:..\acn-sdk-c\src\wolfSSL/wolfcrypt/src/random.c ****             if (drbg->matchCount == 1) {
 659              		.loc 2 340 0
 660 0076 2168     		ldr	r1, [r4]
 339:..\acn-sdk-c\src\wolfSSL/wolfcrypt/src/random.c ****         if (drbg->reseedCtr > 1 && checkBlock == drbg->lastBlock) {
 661              		.loc 2 339 0
 662 0078 059A     		ldr	r2, [sp, #20]
 663              	.LVL93:
 664 007a 7633     		add	r3, r3, #118
 340:..\acn-sdk-c\src\wolfSSL/wolfcrypt/src/random.c ****             if (drbg->matchCount == 1) {
 665              		.loc 2 340 0
 666 007c 0129     		cmp	r1, #1
 667 007e 08D9     		bls	.L57
 668 0080 6168     		ldr	r1, [r4, #4]
 669 0082 8A42     		cmp	r2, r1
 670 0084 05D1     		bne	.L57
 341:..\acn-sdk-c\src\wolfSSL/wolfcrypt/src/random.c ****                 return DRBG_CONT_FAILURE;
 671              		.loc 2 341 0
ARM GAS  C:\Users\ddemidov\AppData\Local\Temp\ccBlgygZ.s 			page 26


 672 0086 1A78     		ldrb	r2, [r3]
 673              	.LVL94:
 674 0088 012A     		cmp	r2, #1
 675 008a 31D0     		beq	.L68
 348:..\acn-sdk-c\src\wolfSSL/wolfcrypt/src/random.c ****             }
 676              		.loc 2 348 0
 677 008c 0122     		mov	r2, #1
 678 008e 1A70     		strb	r2, [r3]
 679 0090 02E0     		b	.L58
 680              	.LVL95:
 681              	.L57:
 352:..\acn-sdk-c\src\wolfSSL/wolfcrypt/src/random.c ****             drbg->lastBlock = checkBlock;
 682              		.loc 2 352 0
 683 0092 0021     		mov	r1, #0
 684 0094 1970     		strb	r1, [r3]
 353:..\acn-sdk-c\src\wolfSSL/wolfcrypt/src/random.c ****         }
 685              		.loc 2 353 0
 686 0096 6260     		str	r2, [r4, #4]
 687              	.LVL96:
 688              	.L58:
 356:..\acn-sdk-c\src\wolfSSL/wolfcrypt/src/random.c ****             XMEMCPY(out, digest, OUTPUT_BLOCK_LEN);
 689              		.loc 2 356 0
 690 0098 1F2D     		cmp	r5, #31
 691 009a 10D9     		bls	.L59
 357:..\acn-sdk-c\src\wolfSSL/wolfcrypt/src/random.c ****             outSz -= OUTPUT_BLOCK_LEN;
 692              		.loc 2 357 0
 693 009c 381C     		mov	r0, r7
 694 009e 2022     		mov	r2, #32
 695 00a0 05A9     		add	r1, sp, #20
 696              	.LVL97:
 697 00a2 FFF7FEFF 		bl	memcpy
 698              	.LVL98:
 699              	.LBB39:
 700              	.LBB40:
 305:..\acn-sdk-c\src\wolfSSL/wolfcrypt/src/random.c ****     {
 701              		.loc 2 305 0
 702 00a6 3622     		mov	r2, #54
 703              	.LBE40:
 704              	.LBE39:
 358:..\acn-sdk-c\src\wolfSSL/wolfcrypt/src/random.c ****             out += OUTPUT_BLOCK_LEN;
 705              		.loc 2 358 0
 706 00a8 203D     		sub	r5, r5, #32
 707              	.LVL99:
 359:..\acn-sdk-c\src\wolfSSL/wolfcrypt/src/random.c ****             array_add_one(data, DRBG_SEED_LEN);
 708              		.loc 2 359 0
 709 00aa 2037     		add	r7, r7, #32
 710              	.LVL100:
 711              	.L61:
 712              	.LBB42:
 713              	.LBB41:
 307:..\acn-sdk-c\src\wolfSSL/wolfcrypt/src/random.c ****         if (data[i] != 0) break;
 714              		.loc 2 307 0
 715 00ac B35C     		ldrb	r3, [r6, r2]
 716 00ae 0133     		add	r3, r3, #1
 717 00b0 DBB2     		uxtb	r3, r3
 718 00b2 B354     		strb	r3, [r6, r2]
 308:..\acn-sdk-c\src\wolfSSL/wolfcrypt/src/random.c ****     }
ARM GAS  C:\Users\ddemidov\AppData\Local\Temp\ccBlgygZ.s 			page 27


 719              		.loc 2 308 0
 720 00b4 002B     		cmp	r3, #0
 721 00b6 0CD1     		bne	.L60
 722              	.LVL101:
 305:..\acn-sdk-c\src\wolfSSL/wolfcrypt/src/random.c ****     {
 723              		.loc 2 305 0
 724 00b8 013A     		sub	r2, r2, #1
 725 00ba F7D2     		bcs	.L61
 726              	.LVL102:
 727 00bc 09E0     		b	.L60
 728              	.LVL103:
 729              	.L59:
 730              	.LBE41:
 731              	.LBE42:
 362:..\acn-sdk-c\src\wolfSSL/wolfcrypt/src/random.c ****             XMEMCPY(out, digest, outSz);
 732              		.loc 2 362 0
 733 00be 002F     		cmp	r7, #0
 734 00c0 07D0     		beq	.L60
 735 00c2 002D     		cmp	r5, #0
 736 00c4 05D0     		beq	.L60
 363:..\acn-sdk-c\src\wolfSSL/wolfcrypt/src/random.c ****             outSz = 0;
 737              		.loc 2 363 0
 738 00c6 2A1C     		mov	r2, r5
 739 00c8 381C     		mov	r0, r7
 740 00ca 05A9     		add	r1, sp, #20
 741              	.LVL104:
 742 00cc FFF7FEFF 		bl	memcpy
 743              	.LVL105:
 364:..\acn-sdk-c\src\wolfSSL/wolfcrypt/src/random.c ****         }
 744              		.loc 2 364 0
 745 00d0 0025     		mov	r5, #0
 746              	.LVL106:
 747              	.L60:
 331:..\acn-sdk-c\src\wolfSSL/wolfcrypt/src/random.c ****         if (wc_InitSha256(&sha) != 0 ||
 748              		.loc 2 331 0
 749 00d2 009B     		ldr	r3, [sp]
 750 00d4 0133     		add	r3, r3, #1
 751 00d6 B4E7     		b	.L75
 752              	.LVL107:
 753              	.L77:
 367:..\acn-sdk-c\src\wolfSSL/wolfcrypt/src/random.c **** 
 754              		.loc 2 367 0
 755 00d8 301C     		mov	r0, r6
 756 00da 3721     		mov	r1, #55
 757 00dc FFF7FEFF 		bl	ForceZero
 758              	.LVL108:
 369:..\acn-sdk-c\src\wolfSSL/wolfcrypt/src/random.c **** }
 759              		.loc 2 369 0
 760 00e0 0023     		mov	r3, #0
 761              	.LBE38:
 762              	.LBE37:
 409:..\acn-sdk-c\src\wolfSSL/wolfcrypt/src/random.c ****                 wc_Sha256Update(&sha, &type, sizeof(type)) != 0 ||
 763              		.loc 2 409 0
 764 00e2 1BA8     		add	r0, sp, #108
 765              	.LBB45:
 766              	.LBB43:
 369:..\acn-sdk-c\src\wolfSSL/wolfcrypt/src/random.c **** }
ARM GAS  C:\Users\ddemidov\AppData\Local\Temp\ccBlgygZ.s 			page 28


 767              		.loc 2 369 0
 768 00e4 0093     		str	r3, [sp]
 769              	.LVL109:
 770              	.LBE43:
 771              	.LBE45:
 409:..\acn-sdk-c\src\wolfSSL/wolfcrypt/src/random.c ****                 wc_Sha256Update(&sha, &type, sizeof(type)) != 0 ||
 772              		.loc 2 409 0
 773 00e6 FFF7FEFF 		bl	wc_InitSha256
 774              	.LVL110:
 775 00ea 0028     		cmp	r0, #0
 776 00ec 0BD1     		bne	.L66
 777 00ee 02E0     		b	.L78
 778              	.LVL111:
 779              	.L68:
 780              	.LBB46:
 781              	.LBB44:
 342:..\acn-sdk-c\src\wolfSSL/wolfcrypt/src/random.c ****             }
 782              		.loc 2 342 0
 783 00f0 0423     		mov	r3, #4
 784              	.LVL112:
 785              	.L76:
 786 00f2 0093     		str	r3, [sp]
 787              	.LVL113:
 788 00f4 37E0     		b	.L51
 789              	.LVL114:
 790              	.L78:
 791              	.LBE44:
 792              	.LBE46:
 410:..\acn-sdk-c\src\wolfSSL/wolfcrypt/src/random.c ****                 wc_Sha256Update(&sha, drbg->V, sizeof(drbg->V)) != 0 ||
 793              		.loc 2 410 0 discriminator 1
 794 00f6 02AB     		add	r3, sp, #8
 795 00f8 1BA8     		add	r0, sp, #108
 796 00fa D91D     		add	r1, r3, #7
 797 00fc 0122     		mov	r2, #1
 798 00fe FFF7FEFF 		bl	wc_Sha256Update
 799              	.LVL115:
 409:..\acn-sdk-c\src\wolfSSL/wolfcrypt/src/random.c ****                 wc_Sha256Update(&sha, &type, sizeof(type)) != 0 ||
 800              		.loc 2 409 0 discriminator 1
 801 0102 0028     		cmp	r0, #0
 802 0104 02D0     		beq	.L79
 803              	.LVL116:
 804              	.L66:
 414:..\acn-sdk-c\src\wolfSSL/wolfcrypt/src/random.c ****             }
 805              		.loc 2 414 0
 806 0106 0223     		mov	r3, #2
 807 0108 0093     		str	r3, [sp]
 808 010a 29E0     		b	.L65
 809              	.LVL117:
 810              	.L79:
 407:..\acn-sdk-c\src\wolfSSL/wolfcrypt/src/random.c ****         if (ret == DRBG_SUCCESS) {
 811              		.loc 2 407 0
 812 010c 251C     		mov	r5, r4
 813              	.LVL118:
 814 010e 0835     		add	r5, r5, #8
 411:..\acn-sdk-c\src\wolfSSL/wolfcrypt/src/random.c ****                 wc_Sha256Final(&sha, digest) != 0) {
 815              		.loc 2 411 0
 816 0110 1BA8     		add	r0, sp, #108
ARM GAS  C:\Users\ddemidov\AppData\Local\Temp\ccBlgygZ.s 			page 29


 817 0112 291C     		mov	r1, r5
 818 0114 3722     		mov	r2, #55
 819 0116 FFF7FEFF 		bl	wc_Sha256Update
 820              	.LVL119:
 410:..\acn-sdk-c\src\wolfSSL/wolfcrypt/src/random.c ****                 wc_Sha256Update(&sha, drbg->V, sizeof(drbg->V)) != 0 ||
 821              		.loc 2 410 0
 822 011a 0028     		cmp	r0, #0
 823 011c F3D1     		bne	.L66
 412:..\acn-sdk-c\src\wolfSSL/wolfcrypt/src/random.c **** 
 824              		.loc 2 412 0
 825 011e 1BA8     		add	r0, sp, #108
 826 0120 311C     		mov	r1, r6
 827 0122 FFF7FEFF 		bl	wc_Sha256Final
 828              	.LVL120:
 411:..\acn-sdk-c\src\wolfSSL/wolfcrypt/src/random.c ****                 wc_Sha256Final(&sha, digest) != 0) {
 829              		.loc 2 411 0
 830 0126 0028     		cmp	r0, #0
 831 0128 EDD1     		bne	.L66
 832              	.LVL121:
 833              	.LBB47:
 834              	.LBB48:
 835 012a 281C     		mov	r0, r5
 836 012c 311C     		mov	r1, r6
 837 012e 2022     		mov	r2, #32
 838 0130 FFF7FEFF 		bl	array_add.part.0.constprop.8
 839              	.LVL122:
 840              	.LBE48:
 841              	.LBE47:
 842              	.LBB49:
 843              	.LBB50:
 844 0134 211C     		mov	r1, r4
 845 0136 281C     		mov	r0, r5
 846 0138 3F31     		add	r1, r1, #63
 847              	.LVL123:
 848 013a 3722     		mov	r2, #55
 849 013c FFF7FEFF 		bl	array_add.part.0.constprop.8
 850              	.LVL124:
 851              	.LBE50:
 852              	.LBE49:
 420:..\acn-sdk-c\src\wolfSSL/wolfcrypt/src/random.c ****                 #endif
 853              		.loc 2 420 0
 854 0140 049B     		ldr	r3, [sp, #16]
 855              	.LVL125:
 856              	.LBB51:
 857              	.LBB52:
  95:..\acn-sdk-c\src\wolfSSL/wolfcrypt/src/misc.c ****     return rotlFixed(value, 16U);
 858              		.loc 1 95 0
 859 0142 0D4A     		ldr	r2, .L80+4
 860 0144 0D49     		ldr	r1, .L80+8
 861              	.LBE52:
 862              	.LBE51:
 863              	.LBB58:
 864              	.LBB59:
 865 0146 281C     		mov	r0, r5
 866              	.LBE59:
 867              	.LBE58:
 868              	.LBB62:
ARM GAS  C:\Users\ddemidov\AppData\Local\Temp\ccBlgygZ.s 			page 30


 869              	.LBB57:
 870 0148 1940     		and	r1, r3
 871 014a 1340     		and	r3, r2
 872              	.LVL126:
 873              	.LBB53:
 874              	.LBB54:
  70:..\acn-sdk-c\src\wolfSSL/wolfcrypt/src/misc.c ****     }   
 875              		.loc 1 70 0
 876 014c 1022     		mov	r2, #16
 877              	.LBE54:
 878              	.LBE53:
  95:..\acn-sdk-c\src\wolfSSL/wolfcrypt/src/misc.c ****     return rotlFixed(value, 16U);
 879              		.loc 1 95 0
 880 014e 0902     		lsl	r1, r1, #8
 881 0150 1B0A     		lsr	r3, r3, #8
 882 0152 0B43     		orr	r3, r1
 883              	.LVL127:
 884              	.LBB56:
 885              	.LBB55:
  70:..\acn-sdk-c\src\wolfSSL/wolfcrypt/src/misc.c ****     }   
 886              		.loc 1 70 0
 887 0154 D341     		ror	r3, r3, r2
 888              	.LVL128:
 889              	.LBE55:
 890              	.LBE56:
 891              	.LBE57:
 892              	.LBE62:
 893              	.LBB63:
 894              	.LBB60:
 895 0156 04A9     		add	r1, sp, #16
 896              	.LVL129:
 897 0158 0C3A     		sub	r2, r2, #12
 898              	.LBE60:
 899              	.LBE63:
 420:..\acn-sdk-c\src\wolfSSL/wolfcrypt/src/random.c ****                 #endif
 900              		.loc 2 420 0
 901 015a 0493     		str	r3, [sp, #16]
 902              	.LVL130:
 903              	.LBB64:
 904              	.LBB61:
 905 015c FFF7FEFF 		bl	array_add.part.0.constprop.8
 906              	.LVL131:
 907              	.L65:
 908              	.LBE61:
 909              	.LBE64:
 426:..\acn-sdk-c\src\wolfSSL/wolfcrypt/src/random.c ****         }
 910              		.loc 2 426 0
 911 0160 2368     		ldr	r3, [r4]
 912 0162 0133     		add	r3, r3, #1
 913 0164 2360     		str	r3, [r4]
 914              	.LVL132:
 915              	.L51:
 916              	.LBE36:
 429:..\acn-sdk-c\src\wolfSSL/wolfcrypt/src/random.c **** 
 917              		.loc 2 429 0
 918 0166 301C     		mov	r0, r6
 919 0168 2021     		mov	r1, #32
ARM GAS  C:\Users\ddemidov\AppData\Local\Temp\ccBlgygZ.s 			page 31


 920 016a FFF7FEFF 		bl	ForceZero
 921              	.LVL133:
 432:..\acn-sdk-c\src\wolfSSL/wolfcrypt/src/random.c **** 
 922              		.loc 2 432 0
 923 016e 0098     		ldr	r0, [sp]
 924 0170 37B0     		add	sp, sp, #220
 925              	.LVL134:
 926              		@ sp needed
 927              	.LVL135:
 928 0172 F0BD     		pop	{r4, r5, r6, r7, pc}
 929              	.L81:
 930              		.align	2
 931              	.L80:
 932 0174 40420F00 		.word	1000000
 933 0178 00FF00FF 		.word	-16711936
 934 017c FF00FF00 		.word	16711935
 935              		.cfi_endproc
 936              	.LFE17:
 937              		.size	Hash_DRBG_Generate, .-Hash_DRBG_Generate
 938              		.section	.text.wc_FreeRng,"ax",%progbits
 939              		.align	1
 940              		.global	wc_FreeRng
 941              		.code	16
 942              		.thumb_func
 943              		.type	wc_FreeRng, %function
 944              	wc_FreeRng:
 945              	.LFB23:
 472:..\acn-sdk-c\src\wolfSSL/wolfcrypt/src/random.c **** 
 473:..\acn-sdk-c\src\wolfSSL/wolfcrypt/src/random.c **** /* End NIST DRBG Code */
 474:..\acn-sdk-c\src\wolfSSL/wolfcrypt/src/random.c **** 
 475:..\acn-sdk-c\src\wolfSSL/wolfcrypt/src/random.c **** 
 476:..\acn-sdk-c\src\wolfSSL/wolfcrypt/src/random.c **** /* Get seed and key cipher */
 477:..\acn-sdk-c\src\wolfSSL/wolfcrypt/src/random.c **** int wc_InitRng(WC_RNG* rng)
 478:..\acn-sdk-c\src\wolfSSL/wolfcrypt/src/random.c **** {
 479:..\acn-sdk-c\src\wolfSSL/wolfcrypt/src/random.c ****     int ret = BAD_FUNC_ARG;
 480:..\acn-sdk-c\src\wolfSSL/wolfcrypt/src/random.c **** 
 481:..\acn-sdk-c\src\wolfSSL/wolfcrypt/src/random.c ****     if (rng != NULL) {
 482:..\acn-sdk-c\src\wolfSSL/wolfcrypt/src/random.c ****         if (wc_RNG_HealthTestLocal(0) == 0) {
 483:..\acn-sdk-c\src\wolfSSL/wolfcrypt/src/random.c ****             byte entropy[ENTROPY_NONCE_SZ];
 484:..\acn-sdk-c\src\wolfSSL/wolfcrypt/src/random.c **** 
 485:..\acn-sdk-c\src\wolfSSL/wolfcrypt/src/random.c ****             rng->drbg =
 486:..\acn-sdk-c\src\wolfSSL/wolfcrypt/src/random.c ****                     (struct DRBG*)XMALLOC(sizeof(DRBG), NULL, DYNAMIC_TYPE_RNG);
 487:..\acn-sdk-c\src\wolfSSL/wolfcrypt/src/random.c ****             if (rng->drbg == NULL) {
 488:..\acn-sdk-c\src\wolfSSL/wolfcrypt/src/random.c ****                 ret = MEMORY_E;
 489:..\acn-sdk-c\src\wolfSSL/wolfcrypt/src/random.c ****             }
 490:..\acn-sdk-c\src\wolfSSL/wolfcrypt/src/random.c ****             /* This doesn't use a separate nonce. The entropy input will be
 491:..\acn-sdk-c\src\wolfSSL/wolfcrypt/src/random.c ****              * the default size plus the size of the nonce making the seed
 492:..\acn-sdk-c\src\wolfSSL/wolfcrypt/src/random.c ****              * size. */
 493:..\acn-sdk-c\src\wolfSSL/wolfcrypt/src/random.c ****             else if (wc_GenerateSeed(&rng->seed,
 494:..\acn-sdk-c\src\wolfSSL/wolfcrypt/src/random.c ****                                               entropy, ENTROPY_NONCE_SZ) == 0 &&
 495:..\acn-sdk-c\src\wolfSSL/wolfcrypt/src/random.c ****                      Hash_DRBG_Instantiate(rng->drbg,
 496:..\acn-sdk-c\src\wolfSSL/wolfcrypt/src/random.c ****                           entropy, ENTROPY_NONCE_SZ, NULL, 0) == DRBG_SUCCESS) {
 497:..\acn-sdk-c\src\wolfSSL/wolfcrypt/src/random.c **** 
 498:..\acn-sdk-c\src\wolfSSL/wolfcrypt/src/random.c ****                 ret = Hash_DRBG_Generate(rng->drbg, NULL, 0);
 499:..\acn-sdk-c\src\wolfSSL/wolfcrypt/src/random.c ****             }
 500:..\acn-sdk-c\src\wolfSSL/wolfcrypt/src/random.c ****             else
 501:..\acn-sdk-c\src\wolfSSL/wolfcrypt/src/random.c ****                 ret = DRBG_FAILURE;
ARM GAS  C:\Users\ddemidov\AppData\Local\Temp\ccBlgygZ.s 			page 32


 502:..\acn-sdk-c\src\wolfSSL/wolfcrypt/src/random.c **** 
 503:..\acn-sdk-c\src\wolfSSL/wolfcrypt/src/random.c ****             ForceZero(entropy, ENTROPY_NONCE_SZ);
 504:..\acn-sdk-c\src\wolfSSL/wolfcrypt/src/random.c ****         }
 505:..\acn-sdk-c\src\wolfSSL/wolfcrypt/src/random.c ****         else
 506:..\acn-sdk-c\src\wolfSSL/wolfcrypt/src/random.c ****             ret = DRBG_CONT_FAILURE;
 507:..\acn-sdk-c\src\wolfSSL/wolfcrypt/src/random.c **** 
 508:..\acn-sdk-c\src\wolfSSL/wolfcrypt/src/random.c ****         if (ret == DRBG_SUCCESS) {
 509:..\acn-sdk-c\src\wolfSSL/wolfcrypt/src/random.c ****             rng->status = DRBG_OK;
 510:..\acn-sdk-c\src\wolfSSL/wolfcrypt/src/random.c ****             ret = 0;
 511:..\acn-sdk-c\src\wolfSSL/wolfcrypt/src/random.c ****         }
 512:..\acn-sdk-c\src\wolfSSL/wolfcrypt/src/random.c ****         else if (ret == DRBG_CONT_FAILURE) {
 513:..\acn-sdk-c\src\wolfSSL/wolfcrypt/src/random.c ****             rng->status = DRBG_CONT_FAILED;
 514:..\acn-sdk-c\src\wolfSSL/wolfcrypt/src/random.c ****             ret = DRBG_CONT_FIPS_E;
 515:..\acn-sdk-c\src\wolfSSL/wolfcrypt/src/random.c ****         }
 516:..\acn-sdk-c\src\wolfSSL/wolfcrypt/src/random.c ****         else if (ret == DRBG_FAILURE) {
 517:..\acn-sdk-c\src\wolfSSL/wolfcrypt/src/random.c ****             rng->status = DRBG_FAILED;
 518:..\acn-sdk-c\src\wolfSSL/wolfcrypt/src/random.c ****             ret = RNG_FAILURE_E;
 519:..\acn-sdk-c\src\wolfSSL/wolfcrypt/src/random.c ****         }
 520:..\acn-sdk-c\src\wolfSSL/wolfcrypt/src/random.c ****         else {
 521:..\acn-sdk-c\src\wolfSSL/wolfcrypt/src/random.c ****             rng->status = DRBG_FAILED;
 522:..\acn-sdk-c\src\wolfSSL/wolfcrypt/src/random.c ****         }
 523:..\acn-sdk-c\src\wolfSSL/wolfcrypt/src/random.c ****     }
 524:..\acn-sdk-c\src\wolfSSL/wolfcrypt/src/random.c **** 
 525:..\acn-sdk-c\src\wolfSSL/wolfcrypt/src/random.c ****     return ret;
 526:..\acn-sdk-c\src\wolfSSL/wolfcrypt/src/random.c **** }
 527:..\acn-sdk-c\src\wolfSSL/wolfcrypt/src/random.c **** 
 528:..\acn-sdk-c\src\wolfSSL/wolfcrypt/src/random.c **** 
 529:..\acn-sdk-c\src\wolfSSL/wolfcrypt/src/random.c **** /* place a generated block in output */
 530:..\acn-sdk-c\src\wolfSSL/wolfcrypt/src/random.c **** int wc_RNG_GenerateBlock(WC_RNG* rng, byte* output, word32 sz)
 531:..\acn-sdk-c\src\wolfSSL/wolfcrypt/src/random.c **** {
 532:..\acn-sdk-c\src\wolfSSL/wolfcrypt/src/random.c ****     int ret;
 533:..\acn-sdk-c\src\wolfSSL/wolfcrypt/src/random.c **** 
 534:..\acn-sdk-c\src\wolfSSL/wolfcrypt/src/random.c ****     if (rng == NULL || output == NULL || sz > MAX_REQUEST_LEN)
 535:..\acn-sdk-c\src\wolfSSL/wolfcrypt/src/random.c ****         return BAD_FUNC_ARG;
 536:..\acn-sdk-c\src\wolfSSL/wolfcrypt/src/random.c **** 
 537:..\acn-sdk-c\src\wolfSSL/wolfcrypt/src/random.c ****     if (rng->status != DRBG_OK)
 538:..\acn-sdk-c\src\wolfSSL/wolfcrypt/src/random.c ****         return RNG_FAILURE_E;
 539:..\acn-sdk-c\src\wolfSSL/wolfcrypt/src/random.c **** 
 540:..\acn-sdk-c\src\wolfSSL/wolfcrypt/src/random.c ****     ret = Hash_DRBG_Generate(rng->drbg, output, sz);
 541:..\acn-sdk-c\src\wolfSSL/wolfcrypt/src/random.c **** 
 542:..\acn-sdk-c\src\wolfSSL/wolfcrypt/src/random.c ****     if (ret == DRBG_NEED_RESEED) {
 543:..\acn-sdk-c\src\wolfSSL/wolfcrypt/src/random.c ****         if (wc_RNG_HealthTestLocal(1) == 0) {
 544:..\acn-sdk-c\src\wolfSSL/wolfcrypt/src/random.c ****             byte entropy[ENTROPY_SZ];
 545:..\acn-sdk-c\src\wolfSSL/wolfcrypt/src/random.c **** 
 546:..\acn-sdk-c\src\wolfSSL/wolfcrypt/src/random.c ****             if (wc_GenerateSeed(&rng->seed, entropy, ENTROPY_SZ) == 0 &&
 547:..\acn-sdk-c\src\wolfSSL/wolfcrypt/src/random.c ****                 Hash_DRBG_Reseed(rng->drbg, entropy, ENTROPY_SZ)
 548:..\acn-sdk-c\src\wolfSSL/wolfcrypt/src/random.c ****                                                               == DRBG_SUCCESS) {
 549:..\acn-sdk-c\src\wolfSSL/wolfcrypt/src/random.c **** 
 550:..\acn-sdk-c\src\wolfSSL/wolfcrypt/src/random.c ****                 ret = Hash_DRBG_Generate(rng->drbg, NULL, 0);
 551:..\acn-sdk-c\src\wolfSSL/wolfcrypt/src/random.c ****                 if (ret == DRBG_SUCCESS)
 552:..\acn-sdk-c\src\wolfSSL/wolfcrypt/src/random.c ****                     ret = Hash_DRBG_Generate(rng->drbg, output, sz);
 553:..\acn-sdk-c\src\wolfSSL/wolfcrypt/src/random.c ****             }
 554:..\acn-sdk-c\src\wolfSSL/wolfcrypt/src/random.c ****             else
 555:..\acn-sdk-c\src\wolfSSL/wolfcrypt/src/random.c ****                 ret = DRBG_FAILURE;
 556:..\acn-sdk-c\src\wolfSSL/wolfcrypt/src/random.c **** 
 557:..\acn-sdk-c\src\wolfSSL/wolfcrypt/src/random.c ****             ForceZero(entropy, ENTROPY_SZ);
 558:..\acn-sdk-c\src\wolfSSL/wolfcrypt/src/random.c ****         }
ARM GAS  C:\Users\ddemidov\AppData\Local\Temp\ccBlgygZ.s 			page 33


 559:..\acn-sdk-c\src\wolfSSL/wolfcrypt/src/random.c ****         else
 560:..\acn-sdk-c\src\wolfSSL/wolfcrypt/src/random.c ****             ret = DRBG_CONT_FAILURE;
 561:..\acn-sdk-c\src\wolfSSL/wolfcrypt/src/random.c ****     }
 562:..\acn-sdk-c\src\wolfSSL/wolfcrypt/src/random.c **** 
 563:..\acn-sdk-c\src\wolfSSL/wolfcrypt/src/random.c ****     if (ret == DRBG_SUCCESS) {
 564:..\acn-sdk-c\src\wolfSSL/wolfcrypt/src/random.c ****         ret = 0;
 565:..\acn-sdk-c\src\wolfSSL/wolfcrypt/src/random.c ****     }
 566:..\acn-sdk-c\src\wolfSSL/wolfcrypt/src/random.c ****     else if (ret == DRBG_CONT_FAILURE) {
 567:..\acn-sdk-c\src\wolfSSL/wolfcrypt/src/random.c ****         ret = DRBG_CONT_FIPS_E;
 568:..\acn-sdk-c\src\wolfSSL/wolfcrypt/src/random.c ****         rng->status = DRBG_CONT_FAILED;
 569:..\acn-sdk-c\src\wolfSSL/wolfcrypt/src/random.c ****     }
 570:..\acn-sdk-c\src\wolfSSL/wolfcrypt/src/random.c ****     else {
 571:..\acn-sdk-c\src\wolfSSL/wolfcrypt/src/random.c ****         ret = RNG_FAILURE_E;
 572:..\acn-sdk-c\src\wolfSSL/wolfcrypt/src/random.c ****         rng->status = DRBG_FAILED;
 573:..\acn-sdk-c\src\wolfSSL/wolfcrypt/src/random.c ****     }
 574:..\acn-sdk-c\src\wolfSSL/wolfcrypt/src/random.c **** 
 575:..\acn-sdk-c\src\wolfSSL/wolfcrypt/src/random.c ****     return ret;
 576:..\acn-sdk-c\src\wolfSSL/wolfcrypt/src/random.c **** }
 577:..\acn-sdk-c\src\wolfSSL/wolfcrypt/src/random.c **** 
 578:..\acn-sdk-c\src\wolfSSL/wolfcrypt/src/random.c **** 
 579:..\acn-sdk-c\src\wolfSSL/wolfcrypt/src/random.c **** int wc_RNG_GenerateByte(WC_RNG* rng, byte* b)
 580:..\acn-sdk-c\src\wolfSSL/wolfcrypt/src/random.c **** {
 581:..\acn-sdk-c\src\wolfSSL/wolfcrypt/src/random.c ****     return wc_RNG_GenerateBlock(rng, b, 1);
 582:..\acn-sdk-c\src\wolfSSL/wolfcrypt/src/random.c **** }
 583:..\acn-sdk-c\src\wolfSSL/wolfcrypt/src/random.c **** 
 584:..\acn-sdk-c\src\wolfSSL/wolfcrypt/src/random.c **** 
 585:..\acn-sdk-c\src\wolfSSL/wolfcrypt/src/random.c **** int wc_FreeRng(WC_RNG* rng)
 586:..\acn-sdk-c\src\wolfSSL/wolfcrypt/src/random.c **** {
 946              		.loc 2 586 0
 947              		.cfi_startproc
 948              	.LVL136:
 949 0000 70B5     		push	{r4, r5, r6, lr}
 950              		.cfi_def_cfa_offset 16
 951              		.cfi_offset 4, -16
 952              		.cfi_offset 5, -12
 953              		.cfi_offset 6, -8
 954              		.cfi_offset 14, -4
 587:..\acn-sdk-c\src\wolfSSL/wolfcrypt/src/random.c ****     int ret = BAD_FUNC_ARG;
 588:..\acn-sdk-c\src\wolfSSL/wolfcrypt/src/random.c **** 
 589:..\acn-sdk-c\src\wolfSSL/wolfcrypt/src/random.c ****     if (rng != NULL) {
 955              		.loc 2 589 0
 956 0002 0028     		cmp	r0, #0
 957 0004 16D0     		beq	.L87
 958 0006 041C     		mov	r4, r0
 590:..\acn-sdk-c\src\wolfSSL/wolfcrypt/src/random.c ****         if (rng->drbg != NULL) {
 959              		.loc 2 590 0
 960 0008 0068     		ldr	r0, [r0]
 961              	.LVL137:
 962 000a 0028     		cmp	r0, #0
 963 000c 0DD0     		beq	.L88
 964 000e 0026     		mov	r6, #0
 591:..\acn-sdk-c\src\wolfSSL/wolfcrypt/src/random.c ****             if (Hash_DRBG_Uninstantiate(rng->drbg) == DRBG_SUCCESS)
 965              		.loc 2 591 0
 966 0010 FFF7FEFF 		bl	Hash_DRBG_Uninstantiate
 967              	.LVL138:
 592:..\acn-sdk-c\src\wolfSSL/wolfcrypt/src/random.c ****                 ret = 0;
 968              		.loc 2 592 0
ARM GAS  C:\Users\ddemidov\AppData\Local\Temp\ccBlgygZ.s 			page 34


 969 0014 351C     		mov	r5, r6
 591:..\acn-sdk-c\src\wolfSSL/wolfcrypt/src/random.c ****             if (Hash_DRBG_Uninstantiate(rng->drbg) == DRBG_SUCCESS)
 970              		.loc 2 591 0
 971 0016 B042     		cmp	r0, r6
 972 0018 00D0     		beq	.L85
 593:..\acn-sdk-c\src\wolfSSL/wolfcrypt/src/random.c ****             else
 594:..\acn-sdk-c\src\wolfSSL/wolfcrypt/src/random.c ****                 ret = RNG_FAILURE_E;
 973              		.loc 2 594 0
 974 001a C73D     		sub	r5, r5, #199
 975              	.L85:
 976              	.LVL139:
 977              	.LBB65:
 595:..\acn-sdk-c\src\wolfSSL/wolfcrypt/src/random.c **** 
 596:..\acn-sdk-c\src\wolfSSL/wolfcrypt/src/random.c ****             XFREE(rng->drbg, NULL, DYNAMIC_TYPE_RNG);
 978              		.loc 2 596 0
 979 001c 2068     		ldr	r0, [r4]
 980              	.LVL140:
 981 001e 0028     		cmp	r0, #0
 982 0020 01D0     		beq	.L86
 983              		.loc 2 596 0 is_stmt 0 discriminator 1
 984 0022 FFF7FEFF 		bl	wolfSSL_Free
 985              	.LVL141:
 986              	.L86:
 987              	.LBE65:
 597:..\acn-sdk-c\src\wolfSSL/wolfcrypt/src/random.c ****             rng->drbg = NULL;
 988              		.loc 2 597 0 is_stmt 1
 989 0026 2660     		str	r6, [r4]
 990 0028 01E0     		b	.L84
 991              	.LVL142:
 992              	.L88:
 587:..\acn-sdk-c\src\wolfSSL/wolfcrypt/src/random.c **** 
 993              		.loc 2 587 0
 994 002a AD25     		mov	r5, #173
 995 002c 6D42     		neg	r5, r5
 996              	.LVL143:
 997              	.L84:
 598:..\acn-sdk-c\src\wolfSSL/wolfcrypt/src/random.c ****         }
 599:..\acn-sdk-c\src\wolfSSL/wolfcrypt/src/random.c **** 
 600:..\acn-sdk-c\src\wolfSSL/wolfcrypt/src/random.c ****         rng->status = DRBG_NOT_INIT;
 998              		.loc 2 600 0
 999 002e 0023     		mov	r3, #0
 1000 0030 2372     		strb	r3, [r4, #8]
 1001 0032 01E0     		b	.L83
 1002              	.LVL144:
 1003              	.L87:
 587:..\acn-sdk-c\src\wolfSSL/wolfcrypt/src/random.c **** 
 1004              		.loc 2 587 0
 1005 0034 AD25     		mov	r5, #173
 1006 0036 6D42     		neg	r5, r5
 1007              	.LVL145:
 1008              	.L83:
 601:..\acn-sdk-c\src\wolfSSL/wolfcrypt/src/random.c ****     }
 602:..\acn-sdk-c\src\wolfSSL/wolfcrypt/src/random.c **** 
 603:..\acn-sdk-c\src\wolfSSL/wolfcrypt/src/random.c ****     return ret;
 604:..\acn-sdk-c\src\wolfSSL/wolfcrypt/src/random.c **** }
 1009              		.loc 2 604 0
 1010 0038 281C     		mov	r0, r5
ARM GAS  C:\Users\ddemidov\AppData\Local\Temp\ccBlgygZ.s 			page 35


 1011              		@ sp needed
 1012              	.LVL146:
 1013 003a 70BD     		pop	{r4, r5, r6, pc}
 1014              		.cfi_endproc
 1015              	.LFE23:
 1016              		.size	wc_FreeRng, .-wc_FreeRng
 1017              		.section	.text.wc_RNG_HealthTest,"ax",%progbits
 1018              		.align	1
 1019              		.global	wc_RNG_HealthTest
 1020              		.code	16
 1021              		.thumb_func
 1022              		.type	wc_RNG_HealthTest, %function
 1023              	wc_RNG_HealthTest:
 1024              	.LFB24:
 605:..\acn-sdk-c\src\wolfSSL/wolfcrypt/src/random.c **** 
 606:..\acn-sdk-c\src\wolfSSL/wolfcrypt/src/random.c **** 
 607:..\acn-sdk-c\src\wolfSSL/wolfcrypt/src/random.c **** int wc_RNG_HealthTest(int reseed, const byte* entropyA, word32 entropyASz,
 608:..\acn-sdk-c\src\wolfSSL/wolfcrypt/src/random.c ****                                   const byte* entropyB, word32 entropyBSz,
 609:..\acn-sdk-c\src\wolfSSL/wolfcrypt/src/random.c ****                                   byte* output, word32 outputSz)
 610:..\acn-sdk-c\src\wolfSSL/wolfcrypt/src/random.c **** {
 1025              		.loc 2 610 0
 1026              		.cfi_startproc
 1027              	.LVL147:
 1028 0000 30B5     		push	{r4, r5, lr}
 1029              		.cfi_def_cfa_offset 12
 1030              		.cfi_offset 4, -12
 1031              		.cfi_offset 5, -8
 1032              		.cfi_offset 14, -4
 1033 0002 9FB0     		sub	sp, sp, #124
 1034              		.cfi_def_cfa_offset 136
 611:..\acn-sdk-c\src\wolfSSL/wolfcrypt/src/random.c ****     DRBG drbg;
 612:..\acn-sdk-c\src\wolfSSL/wolfcrypt/src/random.c **** 
 613:..\acn-sdk-c\src\wolfSSL/wolfcrypt/src/random.c ****     if (entropyA == NULL || output == NULL)
 1035              		.loc 2 613 0
 1036 0004 0029     		cmp	r1, #0
 1037 0006 32D0     		beq	.L103
 1038              		.loc 2 613 0 is_stmt 0 discriminator 1
 1039 0008 239C     		ldr	r4, [sp, #140]
 1040 000a 002C     		cmp	r4, #0
 1041 000c 2FD0     		beq	.L103
 614:..\acn-sdk-c\src\wolfSSL/wolfcrypt/src/random.c ****         return BAD_FUNC_ARG;
 615:..\acn-sdk-c\src\wolfSSL/wolfcrypt/src/random.c **** 
 616:..\acn-sdk-c\src\wolfSSL/wolfcrypt/src/random.c ****     if (reseed != 0 && entropyB == NULL)
 1042              		.loc 2 616 0 is_stmt 1
 1043 000e 0028     		cmp	r0, #0
 1044 0010 01D0     		beq	.L96
 1045              		.loc 2 616 0 is_stmt 0 discriminator 1
 1046 0012 002B     		cmp	r3, #0
 1047 0014 2BD0     		beq	.L103
 1048              	.L96:
 617:..\acn-sdk-c\src\wolfSSL/wolfcrypt/src/random.c ****         return BAD_FUNC_ARG;
 618:..\acn-sdk-c\src\wolfSSL/wolfcrypt/src/random.c **** 
 619:..\acn-sdk-c\src\wolfSSL/wolfcrypt/src/random.c ****     if (outputSz != (SHA256_DIGEST_SIZE * 4))
 1049              		.loc 2 619 0 is_stmt 1
 1050 0016 249C     		ldr	r4, [sp, #144]
 1051 0018 802C     		cmp	r4, #128
 1052 001a 12D1     		bne	.L114
ARM GAS  C:\Users\ddemidov\AppData\Local\Temp\ccBlgygZ.s 			page 36


 1053 001c 051C     		mov	r5, r0
 620:..\acn-sdk-c\src\wolfSSL/wolfcrypt/src/random.c ****         return -1;
 621:..\acn-sdk-c\src\wolfSSL/wolfcrypt/src/random.c **** 
 622:..\acn-sdk-c\src\wolfSSL/wolfcrypt/src/random.c ****     if (Hash_DRBG_Instantiate(&drbg, entropyA, entropyASz, NULL, 0) != 0)
 1054              		.loc 2 622 0
 1055 001e 6846     		mov	r0, sp
 1056              	.LVL148:
 1057 0020 1C1C     		mov	r4, r3
 1058 0022 FFF7FEFF 		bl	Hash_DRBG_Instantiate.constprop.4
 1059              	.LVL149:
 1060 0026 0028     		cmp	r0, #0
 1061 0028 0BD1     		bne	.L114
 623:..\acn-sdk-c\src\wolfSSL/wolfcrypt/src/random.c ****         return -1;
 624:..\acn-sdk-c\src\wolfSSL/wolfcrypt/src/random.c **** 
 625:..\acn-sdk-c\src\wolfSSL/wolfcrypt/src/random.c ****     if (reseed) {
 1062              		.loc 2 625 0
 1063 002a 002D     		cmp	r5, #0
 1064 002c 0BD0     		beq	.L99
 626:..\acn-sdk-c\src\wolfSSL/wolfcrypt/src/random.c ****         if (Hash_DRBG_Reseed(&drbg, entropyB, entropyBSz) != 0) {
 1065              		.loc 2 626 0
 1066 002e 6846     		mov	r0, sp
 1067 0030 211C     		mov	r1, r4
 1068 0032 229A     		ldr	r2, [sp, #136]
 1069 0034 FFF7FEFF 		bl	Hash_DRBG_Reseed
 1070              	.LVL150:
 1071 0038 0028     		cmp	r0, #0
 1072 003a 04D0     		beq	.L99
 1073              	.L100:
 627:..\acn-sdk-c\src\wolfSSL/wolfcrypt/src/random.c ****             Hash_DRBG_Uninstantiate(&drbg);
 1074              		.loc 2 627 0
 1075 003c 6846     		mov	r0, sp
 1076 003e FFF7FEFF 		bl	Hash_DRBG_Uninstantiate
 1077              	.LVL151:
 1078              	.L114:
 628:..\acn-sdk-c\src\wolfSSL/wolfcrypt/src/random.c ****             return -1;
 1079              		.loc 2 628 0
 1080 0042 0120     		mov	r0, #1
 1081 0044 14E0     		b	.L113
 1082              	.LVL152:
 1083              	.L99:
 629:..\acn-sdk-c\src\wolfSSL/wolfcrypt/src/random.c ****         }
 630:..\acn-sdk-c\src\wolfSSL/wolfcrypt/src/random.c ****     }
 631:..\acn-sdk-c\src\wolfSSL/wolfcrypt/src/random.c **** 
 632:..\acn-sdk-c\src\wolfSSL/wolfcrypt/src/random.c ****     if (Hash_DRBG_Generate(&drbg, output, outputSz) != 0) {
 1084              		.loc 2 632 0
 1085 0046 6846     		mov	r0, sp
 1086 0048 2399     		ldr	r1, [sp, #140]
 1087 004a 8022     		mov	r2, #128
 1088 004c FFF7FEFF 		bl	Hash_DRBG_Generate
 1089              	.LVL153:
 1090 0050 0028     		cmp	r0, #0
 1091 0052 F3D1     		bne	.L100
 633:..\acn-sdk-c\src\wolfSSL/wolfcrypt/src/random.c ****         Hash_DRBG_Uninstantiate(&drbg);
 634:..\acn-sdk-c\src\wolfSSL/wolfcrypt/src/random.c ****         return -1;
 635:..\acn-sdk-c\src\wolfSSL/wolfcrypt/src/random.c ****     }
 636:..\acn-sdk-c\src\wolfSSL/wolfcrypt/src/random.c **** 
 637:..\acn-sdk-c\src\wolfSSL/wolfcrypt/src/random.c ****     if (Hash_DRBG_Generate(&drbg, output, outputSz) != 0) {
ARM GAS  C:\Users\ddemidov\AppData\Local\Temp\ccBlgygZ.s 			page 37


 1092              		.loc 2 637 0
 1093 0054 6846     		mov	r0, sp
 1094 0056 2399     		ldr	r1, [sp, #140]
 1095 0058 8022     		mov	r2, #128
 1096 005a FFF7FEFF 		bl	Hash_DRBG_Generate
 1097              	.LVL154:
 1098 005e 0028     		cmp	r0, #0
 1099 0060 ECD1     		bne	.L100
 638:..\acn-sdk-c\src\wolfSSL/wolfcrypt/src/random.c ****         Hash_DRBG_Uninstantiate(&drbg);
 639:..\acn-sdk-c\src\wolfSSL/wolfcrypt/src/random.c ****         return -1;
 640:..\acn-sdk-c\src\wolfSSL/wolfcrypt/src/random.c ****     }
 641:..\acn-sdk-c\src\wolfSSL/wolfcrypt/src/random.c **** 
 642:..\acn-sdk-c\src\wolfSSL/wolfcrypt/src/random.c ****     if (Hash_DRBG_Uninstantiate(&drbg) != 0) {
 1100              		.loc 2 642 0
 1101 0062 6846     		mov	r0, sp
 1102 0064 FFF7FEFF 		bl	Hash_DRBG_Uninstantiate
 1103              	.LVL155:
 1104 0068 431E     		sub	r3, r0, #1
 1105 006a 9841     		sbc	r0, r0, r3
 1106 006c 00E0     		b	.L113
 1107              	.LVL156:
 1108              	.L103:
 614:..\acn-sdk-c\src\wolfSSL/wolfcrypt/src/random.c **** 
 1109              		.loc 2 614 0
 1110 006e AD20     		mov	r0, #173
 1111              	.LVL157:
 1112              	.L113:
 1113 0070 4042     		neg	r0, r0
 643:..\acn-sdk-c\src\wolfSSL/wolfcrypt/src/random.c ****         return -1;
 644:..\acn-sdk-c\src\wolfSSL/wolfcrypt/src/random.c ****     }
 645:..\acn-sdk-c\src\wolfSSL/wolfcrypt/src/random.c **** 
 646:..\acn-sdk-c\src\wolfSSL/wolfcrypt/src/random.c ****     return 0;
 647:..\acn-sdk-c\src\wolfSSL/wolfcrypt/src/random.c **** }
 1114              		.loc 2 647 0
 1115 0072 1FB0     		add	sp, sp, #124
 1116              		@ sp needed
 1117 0074 30BD     		pop	{r4, r5, pc}
 1118              		.cfi_endproc
 1119              	.LFE24:
 1120              		.size	wc_RNG_HealthTest, .-wc_RNG_HealthTest
 1121              		.section	.text.wc_RNG_GenerateBlock,"ax",%progbits
 1122              		.align	1
 1123              		.global	wc_RNG_GenerateBlock
 1124              		.code	16
 1125              		.thumb_func
 1126              		.type	wc_RNG_GenerateBlock, %function
 1127              	wc_RNG_GenerateBlock:
 1128              	.LFB21:
 531:..\acn-sdk-c\src\wolfSSL/wolfcrypt/src/random.c ****     int ret;
 1129              		.loc 2 531 0
 1130              		.cfi_startproc
 1131              	.LVL158:
 1132 0000 F0B5     		push	{r4, r5, r6, r7, lr}
 1133              		.cfi_def_cfa_offset 20
 1134              		.cfi_offset 4, -20
 1135              		.cfi_offset 5, -16
 1136              		.cfi_offset 6, -12
ARM GAS  C:\Users\ddemidov\AppData\Local\Temp\ccBlgygZ.s 			page 38


 1137              		.cfi_offset 7, -8
 1138              		.cfi_offset 14, -4
 1139 0002 A7B0     		sub	sp, sp, #156
 1140              		.cfi_def_cfa_offset 176
 534:..\acn-sdk-c\src\wolfSSL/wolfcrypt/src/random.c ****         return BAD_FUNC_ARG;
 1141              		.loc 2 534 0
 1142 0004 0028     		cmp	r0, #0
 1143 0006 57D0     		beq	.L125
 534:..\acn-sdk-c\src\wolfSSL/wolfcrypt/src/random.c ****         return BAD_FUNC_ARG;
 1144              		.loc 2 534 0 is_stmt 0 discriminator 1
 1145 0008 0029     		cmp	r1, #0
 1146 000a 55D0     		beq	.L125
 534:..\acn-sdk-c\src\wolfSSL/wolfcrypt/src/random.c ****         return BAD_FUNC_ARG;
 1147              		.loc 2 534 0 discriminator 2
 1148 000c 8023     		mov	r3, #128
 1149 000e 5B02     		lsl	r3, r3, #9
 1150 0010 9A42     		cmp	r2, r3
 1151 0012 51D8     		bhi	.L125
 537:..\acn-sdk-c\src\wolfSSL/wolfcrypt/src/random.c ****         return RNG_FAILURE_E;
 1152              		.loc 2 537 0 is_stmt 1
 1153 0014 037A     		ldrb	r3, [r0, #8]
 1154 0016 0493     		str	r3, [sp, #16]
 1155 0018 012B     		cmp	r3, #1
 1156 001a 4FD1     		bne	.L126
 1157 001c 041C     		mov	r4, r0
 540:..\acn-sdk-c\src\wolfSSL/wolfcrypt/src/random.c **** 
 1158              		.loc 2 540 0
 1159 001e 0068     		ldr	r0, [r0]
 1160              	.LVL159:
 1161 0020 0592     		str	r2, [sp, #20]
 1162 0022 0F1C     		mov	r7, r1
 1163 0024 FFF7FEFF 		bl	Hash_DRBG_Generate
 1164              	.LVL160:
 1165 0028 051E     		sub	r5, r0, #0
 1166              	.LVL161:
 542:..\acn-sdk-c\src\wolfSSL/wolfcrypt/src/random.c ****         if (wc_RNG_HealthTestLocal(1) == 0) {
 1167              		.loc 2 542 0
 1168 002a 032D     		cmp	r5, #3
 1169 002c 3BD1     		bne	.L117
 1170              	.LVL162:
 1171              	.LBB75:
 1172              	.LBB76:
 1173              	.LBB77:
 1174              	.LBB78:
 648:..\acn-sdk-c\src\wolfSSL/wolfcrypt/src/random.c **** 
 649:..\acn-sdk-c\src\wolfSSL/wolfcrypt/src/random.c **** 
 650:..\acn-sdk-c\src\wolfSSL/wolfcrypt/src/random.c **** const byte entropyA[] = {
 651:..\acn-sdk-c\src\wolfSSL/wolfcrypt/src/random.c ****     0x63, 0x36, 0x33, 0x77, 0xe4, 0x1e, 0x86, 0x46, 0x8d, 0xeb, 0x0a, 0xb4,
 652:..\acn-sdk-c\src\wolfSSL/wolfcrypt/src/random.c ****     0xa8, 0xed, 0x68, 0x3f, 0x6a, 0x13, 0x4e, 0x47, 0xe0, 0x14, 0xc7, 0x00,
 653:..\acn-sdk-c\src\wolfSSL/wolfcrypt/src/random.c ****     0x45, 0x4e, 0x81, 0xe9, 0x53, 0x58, 0xa5, 0x69, 0x80, 0x8a, 0xa3, 0x8f,
 654:..\acn-sdk-c\src\wolfSSL/wolfcrypt/src/random.c ****     0x2a, 0x72, 0xa6, 0x23, 0x59, 0x91, 0x5a, 0x9f, 0x8a, 0x04, 0xca, 0x68
 655:..\acn-sdk-c\src\wolfSSL/wolfcrypt/src/random.c **** };
 656:..\acn-sdk-c\src\wolfSSL/wolfcrypt/src/random.c **** 
 657:..\acn-sdk-c\src\wolfSSL/wolfcrypt/src/random.c **** const byte reseedEntropyA[] = {
 658:..\acn-sdk-c\src\wolfSSL/wolfcrypt/src/random.c ****     0xe6, 0x2b, 0x8a, 0x8e, 0xe8, 0xf1, 0x41, 0xb6, 0x98, 0x05, 0x66, 0xe3,
 659:..\acn-sdk-c\src\wolfSSL/wolfcrypt/src/random.c ****     0xbf, 0xe3, 0xc0, 0x49, 0x03, 0xda, 0xd4, 0xac, 0x2c, 0xdf, 0x9f, 0x22,
 660:..\acn-sdk-c\src\wolfSSL/wolfcrypt/src/random.c ****     0x80, 0x01, 0x0a, 0x67, 0x39, 0xbc, 0x83, 0xd3
ARM GAS  C:\Users\ddemidov\AppData\Local\Temp\ccBlgygZ.s 			page 39


 661:..\acn-sdk-c\src\wolfSSL/wolfcrypt/src/random.c **** };
 662:..\acn-sdk-c\src\wolfSSL/wolfcrypt/src/random.c **** 
 663:..\acn-sdk-c\src\wolfSSL/wolfcrypt/src/random.c **** const byte outputA[] = {
 664:..\acn-sdk-c\src\wolfSSL/wolfcrypt/src/random.c ****     0x04, 0xee, 0xc6, 0x3b, 0xb2, 0x31, 0xdf, 0x2c, 0x63, 0x0a, 0x1a, 0xfb,
 665:..\acn-sdk-c\src\wolfSSL/wolfcrypt/src/random.c ****     0xe7, 0x24, 0x94, 0x9d, 0x00, 0x5a, 0x58, 0x78, 0x51, 0xe1, 0xaa, 0x79,
 666:..\acn-sdk-c\src\wolfSSL/wolfcrypt/src/random.c ****     0x5e, 0x47, 0x73, 0x47, 0xc8, 0xb0, 0x56, 0x62, 0x1c, 0x18, 0xbd, 0xdc,
 667:..\acn-sdk-c\src\wolfSSL/wolfcrypt/src/random.c ****     0xdd, 0x8d, 0x99, 0xfc, 0x5f, 0xc2, 0xb9, 0x20, 0x53, 0xd8, 0xcf, 0xac,
 668:..\acn-sdk-c\src\wolfSSL/wolfcrypt/src/random.c ****     0xfb, 0x0b, 0xb8, 0x83, 0x12, 0x05, 0xfa, 0xd1, 0xdd, 0xd6, 0xc0, 0x71,
 669:..\acn-sdk-c\src\wolfSSL/wolfcrypt/src/random.c ****     0x31, 0x8a, 0x60, 0x18, 0xf0, 0x3b, 0x73, 0xf5, 0xed, 0xe4, 0xd4, 0xd0,
 670:..\acn-sdk-c\src\wolfSSL/wolfcrypt/src/random.c ****     0x71, 0xf9, 0xde, 0x03, 0xfd, 0x7a, 0xea, 0x10, 0x5d, 0x92, 0x99, 0xb8,
 671:..\acn-sdk-c\src\wolfSSL/wolfcrypt/src/random.c ****     0xaf, 0x99, 0xaa, 0x07, 0x5b, 0xdb, 0x4d, 0xb9, 0xaa, 0x28, 0xc1, 0x8d,
 672:..\acn-sdk-c\src\wolfSSL/wolfcrypt/src/random.c ****     0x17, 0x4b, 0x56, 0xee, 0x2a, 0x01, 0x4d, 0x09, 0x88, 0x96, 0xff, 0x22,
 673:..\acn-sdk-c\src\wolfSSL/wolfcrypt/src/random.c ****     0x82, 0xc9, 0x55, 0xa8, 0x19, 0x69, 0xe0, 0x69, 0xfa, 0x8c, 0xe0, 0x07,
 674:..\acn-sdk-c\src\wolfSSL/wolfcrypt/src/random.c ****     0xa1, 0x80, 0x18, 0x3a, 0x07, 0xdf, 0xae, 0x17
 675:..\acn-sdk-c\src\wolfSSL/wolfcrypt/src/random.c **** };
 676:..\acn-sdk-c\src\wolfSSL/wolfcrypt/src/random.c **** 
 677:..\acn-sdk-c\src\wolfSSL/wolfcrypt/src/random.c **** const byte entropyB[] = {
 678:..\acn-sdk-c\src\wolfSSL/wolfcrypt/src/random.c ****     0xa6, 0x5a, 0xd0, 0xf3, 0x45, 0xdb, 0x4e, 0x0e, 0xff, 0xe8, 0x75, 0xc3,
 679:..\acn-sdk-c\src\wolfSSL/wolfcrypt/src/random.c ****     0xa2, 0xe7, 0x1f, 0x42, 0xc7, 0x12, 0x9d, 0x62, 0x0f, 0xf5, 0xc1, 0x19,
 680:..\acn-sdk-c\src\wolfSSL/wolfcrypt/src/random.c ****     0xa9, 0xef, 0x55, 0xf0, 0x51, 0x85, 0xe0, 0xfb, 0x85, 0x81, 0xf9, 0x31,
 681:..\acn-sdk-c\src\wolfSSL/wolfcrypt/src/random.c ****     0x75, 0x17, 0x27, 0x6e, 0x06, 0xe9, 0x60, 0x7d, 0xdb, 0xcb, 0xcc, 0x2e
 682:..\acn-sdk-c\src\wolfSSL/wolfcrypt/src/random.c **** };
 683:..\acn-sdk-c\src\wolfSSL/wolfcrypt/src/random.c **** 
 684:..\acn-sdk-c\src\wolfSSL/wolfcrypt/src/random.c **** const byte outputB[] = {
 685:..\acn-sdk-c\src\wolfSSL/wolfcrypt/src/random.c ****     0xd3, 0xe1, 0x60, 0xc3, 0x5b, 0x99, 0xf3, 0x40, 0xb2, 0x62, 0x82, 0x64,
 686:..\acn-sdk-c\src\wolfSSL/wolfcrypt/src/random.c ****     0xd1, 0x75, 0x10, 0x60, 0xe0, 0x04, 0x5d, 0xa3, 0x83, 0xff, 0x57, 0xa5,
 687:..\acn-sdk-c\src\wolfSSL/wolfcrypt/src/random.c ****     0x7d, 0x73, 0xa6, 0x73, 0xd2, 0xb8, 0xd8, 0x0d, 0xaa, 0xf6, 0xa6, 0xc3,
 688:..\acn-sdk-c\src\wolfSSL/wolfcrypt/src/random.c ****     0x5a, 0x91, 0xbb, 0x45, 0x79, 0xd7, 0x3f, 0xd0, 0xc8, 0xfe, 0xd1, 0x11,
 689:..\acn-sdk-c\src\wolfSSL/wolfcrypt/src/random.c ****     0xb0, 0x39, 0x13, 0x06, 0x82, 0x8a, 0xdf, 0xed, 0x52, 0x8f, 0x01, 0x81,
 690:..\acn-sdk-c\src\wolfSSL/wolfcrypt/src/random.c ****     0x21, 0xb3, 0xfe, 0xbd, 0xc3, 0x43, 0xe7, 0x97, 0xb8, 0x7d, 0xbb, 0x63,
 691:..\acn-sdk-c\src\wolfSSL/wolfcrypt/src/random.c ****     0xdb, 0x13, 0x33, 0xde, 0xd9, 0xd1, 0xec, 0xe1, 0x77, 0xcf, 0xa6, 0xb7,
 692:..\acn-sdk-c\src\wolfSSL/wolfcrypt/src/random.c ****     0x1f, 0xe8, 0xab, 0x1d, 0xa4, 0x66, 0x24, 0xed, 0x64, 0x15, 0xe5, 0x1c,
 693:..\acn-sdk-c\src\wolfSSL/wolfcrypt/src/random.c ****     0xcd, 0xe2, 0xc7, 0xca, 0x86, 0xe2, 0x83, 0x99, 0x0e, 0xea, 0xeb, 0x91,
 694:..\acn-sdk-c\src\wolfSSL/wolfcrypt/src/random.c ****     0x12, 0x04, 0x15, 0x52, 0x8b, 0x22, 0x95, 0x91, 0x02, 0x81, 0xb0, 0x2d,
 695:..\acn-sdk-c\src\wolfSSL/wolfcrypt/src/random.c ****     0xd4, 0x31, 0xf4, 0xc9, 0xf7, 0x04, 0x27, 0xdf
 696:..\acn-sdk-c\src\wolfSSL/wolfcrypt/src/random.c **** };
 697:..\acn-sdk-c\src\wolfSSL/wolfcrypt/src/random.c **** 
 698:..\acn-sdk-c\src\wolfSSL/wolfcrypt/src/random.c **** 
 699:..\acn-sdk-c\src\wolfSSL/wolfcrypt/src/random.c **** static int wc_RNG_HealthTestLocal(int reseed)
 700:..\acn-sdk-c\src\wolfSSL/wolfcrypt/src/random.c **** {
 701:..\acn-sdk-c\src\wolfSSL/wolfcrypt/src/random.c ****     int ret = 0;
 702:..\acn-sdk-c\src\wolfSSL/wolfcrypt/src/random.c ****     byte check[SHA256_DIGEST_SIZE * 4];
 703:..\acn-sdk-c\src\wolfSSL/wolfcrypt/src/random.c **** 
 704:..\acn-sdk-c\src\wolfSSL/wolfcrypt/src/random.c ****     if (reseed) {
 705:..\acn-sdk-c\src\wolfSSL/wolfcrypt/src/random.c ****         ret = wc_RNG_HealthTest(1, entropyA, sizeof(entropyA),
 1175              		.loc 2 705 0
 1176 002e 254D     		ldr	r5, .L136
 1177 0030 2022     		mov	r2, #32
 1178 0032 2B1C     		mov	r3, r5
 1179 0034 0092     		str	r2, [sp]
 1180 0036 06AE     		add	r6, sp, #24
 1181 0038 6032     		add	r2, r2, #96
 1182 003a 0292     		str	r2, [sp, #8]
 1183 003c 3033     		add	r3, r3, #48
 1184 003e 0196     		str	r6, [sp, #4]
 1185 0040 0498     		ldr	r0, [sp, #16]
 1186              	.LVL163:
ARM GAS  C:\Users\ddemidov\AppData\Local\Temp\ccBlgygZ.s 			page 40


 1187 0042 291C     		mov	r1, r5
 1188 0044 503A     		sub	r2, r2, #80
 1189 0046 FFF7FEFF 		bl	wc_RNG_HealthTest
 1190              	.LVL164:
 706:..\acn-sdk-c\src\wolfSSL/wolfcrypt/src/random.c ****                                 reseedEntropyA, sizeof(reseedEntropyA),
 707:..\acn-sdk-c\src\wolfSSL/wolfcrypt/src/random.c ****                                 check, sizeof(check));
 708:..\acn-sdk-c\src\wolfSSL/wolfcrypt/src/random.c ****         if (ret == 0) {
 1191              		.loc 2 708 0
 1192 004a 0028     		cmp	r0, #0
 1193 004c 0CD1     		bne	.L122
 1194 004e 031C     		mov	r3, r0
 1195              	.LVL165:
 1196              	.L119:
 1197              	.LBB79:
 1198              	.LBB80:
 185:..\acn-sdk-c\src\wolfSSL/wolfcrypt/src/misc.c **** 
 186:..\acn-sdk-c\src\wolfSSL/wolfcrypt/src/misc.c **** 
 187:..\acn-sdk-c\src\wolfSSL/wolfcrypt/src/misc.c **** /* check all length bytes for equality, return 0 on success */
 188:..\acn-sdk-c\src\wolfSSL/wolfcrypt/src/misc.c **** STATIC INLINE int ConstantCompare(const byte* a, const byte* b, int length)
 189:..\acn-sdk-c\src\wolfSSL/wolfcrypt/src/misc.c **** {
 190:..\acn-sdk-c\src\wolfSSL/wolfcrypt/src/misc.c ****     int i;
 191:..\acn-sdk-c\src\wolfSSL/wolfcrypt/src/misc.c ****     int compareSum = 0;
 192:..\acn-sdk-c\src\wolfSSL/wolfcrypt/src/misc.c **** 
 193:..\acn-sdk-c\src\wolfSSL/wolfcrypt/src/misc.c ****     for (i = 0; i < length; i++) {
 194:..\acn-sdk-c\src\wolfSSL/wolfcrypt/src/misc.c ****         compareSum |= a[i] ^ b[i];
 1199              		.loc 1 194 0
 1200 0050 2A1C     		mov	r2, r5
 1201 0052 5032     		add	r2, r2, #80
 1202 0054 995C     		ldrb	r1, [r3, r2]
 1203 0056 F25C     		ldrb	r2, [r6, r3]
 193:..\acn-sdk-c\src\wolfSSL/wolfcrypt/src/misc.c ****         compareSum |= a[i] ^ b[i];
 1204              		.loc 1 193 0
 1205 0058 0133     		add	r3, r3, #1
 1206              	.LVL166:
 1207              		.loc 1 194 0
 1208 005a 4A40     		eor	r2, r1
 1209 005c 1043     		orr	r0, r2
 1210              	.LVL167:
 193:..\acn-sdk-c\src\wolfSSL/wolfcrypt/src/misc.c ****         compareSum |= a[i] ^ b[i];
 1211              		.loc 1 193 0
 1212 005e 802B     		cmp	r3, #128
 1213 0060 F6D1     		bne	.L119
 1214              	.LVL168:
 1215              	.LBE80:
 1216              	.LBE79:
 1217              	.LBE78:
 1218              	.LBE77:
 1219              	.LBE76:
 1220              	.LBE75:
 1221 0062 0022     		mov	r2, #0
 543:..\acn-sdk-c\src\wolfSSL/wolfcrypt/src/random.c ****             byte entropy[ENTROPY_SZ];
 1222              		.loc 2 543 0
 1223 0064 9042     		cmp	r0, r2
 1224 0066 03D0     		beq	.L120
 1225              	.LVL169:
 1226              	.L122:
 568:..\acn-sdk-c\src\wolfSSL/wolfcrypt/src/random.c ****     }
ARM GAS  C:\Users\ddemidov\AppData\Local\Temp\ccBlgygZ.s 			page 41


 1227              		.loc 2 568 0
 1228 0068 0323     		mov	r3, #3
 567:..\acn-sdk-c\src\wolfSSL/wolfcrypt/src/random.c ****         rng->status = DRBG_CONT_FAILED;
 1229              		.loc 2 567 0
 1230 006a D120     		mov	r0, #209
 568:..\acn-sdk-c\src\wolfSSL/wolfcrypt/src/random.c ****     }
 1231              		.loc 2 568 0
 1232 006c 2372     		strb	r3, [r4, #8]
 1233 006e 26E0     		b	.L135
 1234              	.LVL170:
 1235              	.L120:
 1236              	.LBB81:
 1237              	.LBB82:
 1238              	.LBB83:
 709:..\acn-sdk-c\src\wolfSSL/wolfcrypt/src/random.c ****             if (ConstantCompare(check, outputA, sizeof(check)) != 0)
 710:..\acn-sdk-c\src\wolfSSL/wolfcrypt/src/random.c ****                 ret = -1;
 711:..\acn-sdk-c\src\wolfSSL/wolfcrypt/src/random.c ****         }
 712:..\acn-sdk-c\src\wolfSSL/wolfcrypt/src/random.c ****     }
 713:..\acn-sdk-c\src\wolfSSL/wolfcrypt/src/random.c ****     else {
 714:..\acn-sdk-c\src\wolfSSL/wolfcrypt/src/random.c ****         ret = wc_RNG_HealthTest(0, entropyB, sizeof(entropyB),
 715:..\acn-sdk-c\src\wolfSSL/wolfcrypt/src/random.c ****                                 NULL, 0,
 716:..\acn-sdk-c\src\wolfSSL/wolfcrypt/src/random.c ****                                 check, sizeof(check));
 717:..\acn-sdk-c\src\wolfSSL/wolfcrypt/src/random.c ****         if (ret == 0) {
 718:..\acn-sdk-c\src\wolfSSL/wolfcrypt/src/random.c ****             if (ConstantCompare(check, outputB, sizeof(check)) != 0)
 719:..\acn-sdk-c\src\wolfSSL/wolfcrypt/src/random.c ****                 ret = -1;
 720:..\acn-sdk-c\src\wolfSSL/wolfcrypt/src/random.c ****         }
 721:..\acn-sdk-c\src\wolfSSL/wolfcrypt/src/random.c ****     }
 722:..\acn-sdk-c\src\wolfSSL/wolfcrypt/src/random.c **** 
 723:..\acn-sdk-c\src\wolfSSL/wolfcrypt/src/random.c ****     return ret;
 724:..\acn-sdk-c\src\wolfSSL/wolfcrypt/src/random.c **** }
 725:..\acn-sdk-c\src\wolfSSL/wolfcrypt/src/random.c **** 
 726:..\acn-sdk-c\src\wolfSSL/wolfcrypt/src/random.c **** 
 727:..\acn-sdk-c\src\wolfSSL/wolfcrypt/src/random.c **** #else /* HAVE_HASHDRBG || NO_RC4 */
 728:..\acn-sdk-c\src\wolfSSL/wolfcrypt/src/random.c **** 
 729:..\acn-sdk-c\src\wolfSSL/wolfcrypt/src/random.c **** /* Get seed and key cipher */
 730:..\acn-sdk-c\src\wolfSSL/wolfcrypt/src/random.c **** int wc_InitRng(WC_RNG* rng)
 731:..\acn-sdk-c\src\wolfSSL/wolfcrypt/src/random.c **** {
 732:..\acn-sdk-c\src\wolfSSL/wolfcrypt/src/random.c ****     int  ret;
 733:..\acn-sdk-c\src\wolfSSL/wolfcrypt/src/random.c **** #ifdef WOLFSSL_SMALL_STACK
 734:..\acn-sdk-c\src\wolfSSL/wolfcrypt/src/random.c ****     byte* key;
 735:..\acn-sdk-c\src\wolfSSL/wolfcrypt/src/random.c ****     byte* junk;
 736:..\acn-sdk-c\src\wolfSSL/wolfcrypt/src/random.c **** #else
 737:..\acn-sdk-c\src\wolfSSL/wolfcrypt/src/random.c ****     byte key[32];
 738:..\acn-sdk-c\src\wolfSSL/wolfcrypt/src/random.c ****     byte junk[256];
 739:..\acn-sdk-c\src\wolfSSL/wolfcrypt/src/random.c **** #endif
 740:..\acn-sdk-c\src\wolfSSL/wolfcrypt/src/random.c **** 
 741:..\acn-sdk-c\src\wolfSSL/wolfcrypt/src/random.c **** #ifdef HAVE_INTEL_RDGEN
 742:..\acn-sdk-c\src\wolfSSL/wolfcrypt/src/random.c ****     wc_InitRng_IntelRD() ;
 743:..\acn-sdk-c\src\wolfSSL/wolfcrypt/src/random.c ****     if(IS_INTEL_RDRAND)return 0 ;
 744:..\acn-sdk-c\src\wolfSSL/wolfcrypt/src/random.c **** #endif
 745:..\acn-sdk-c\src\wolfSSL/wolfcrypt/src/random.c **** #ifdef HAVE_CAVIUM
 746:..\acn-sdk-c\src\wolfSSL/wolfcrypt/src/random.c ****     if (rng->magic == WOLFSSL_RNG_CAVIUM_MAGIC)
 747:..\acn-sdk-c\src\wolfSSL/wolfcrypt/src/random.c ****         return 0;
 748:..\acn-sdk-c\src\wolfSSL/wolfcrypt/src/random.c **** #endif
 749:..\acn-sdk-c\src\wolfSSL/wolfcrypt/src/random.c **** 
 750:..\acn-sdk-c\src\wolfSSL/wolfcrypt/src/random.c **** #ifdef WOLFSSL_SMALL_STACK
 751:..\acn-sdk-c\src\wolfSSL/wolfcrypt/src/random.c ****     key = (byte*)XMALLOC(32, NULL, DYNAMIC_TYPE_TMP_BUFFER);
ARM GAS  C:\Users\ddemidov\AppData\Local\Temp\ccBlgygZ.s 			page 42


 752:..\acn-sdk-c\src\wolfSSL/wolfcrypt/src/random.c ****     if (key == NULL)
 753:..\acn-sdk-c\src\wolfSSL/wolfcrypt/src/random.c ****         return MEMORY_E;
 754:..\acn-sdk-c\src\wolfSSL/wolfcrypt/src/random.c **** 
 755:..\acn-sdk-c\src\wolfSSL/wolfcrypt/src/random.c ****     junk = (byte*)XMALLOC(256, NULL, DYNAMIC_TYPE_TMP_BUFFER);
 756:..\acn-sdk-c\src\wolfSSL/wolfcrypt/src/random.c ****     if (junk == NULL) {
 757:..\acn-sdk-c\src\wolfSSL/wolfcrypt/src/random.c ****         XFREE(key, NULL, DYNAMIC_TYPE_TMP_BUFFER);
 758:..\acn-sdk-c\src\wolfSSL/wolfcrypt/src/random.c ****         return MEMORY_E;
 759:..\acn-sdk-c\src\wolfSSL/wolfcrypt/src/random.c ****     }
 760:..\acn-sdk-c\src\wolfSSL/wolfcrypt/src/random.c **** #endif
 761:..\acn-sdk-c\src\wolfSSL/wolfcrypt/src/random.c **** 
 762:..\acn-sdk-c\src\wolfSSL/wolfcrypt/src/random.c ****     ret = wc_GenerateSeed(&rng->seed, key, 32);
 763:..\acn-sdk-c\src\wolfSSL/wolfcrypt/src/random.c **** 
 764:..\acn-sdk-c\src\wolfSSL/wolfcrypt/src/random.c ****     if (ret == 0) {
 765:..\acn-sdk-c\src\wolfSSL/wolfcrypt/src/random.c ****         wc_Arc4SetKey(&rng->cipher, key, sizeof(key));
 766:..\acn-sdk-c\src\wolfSSL/wolfcrypt/src/random.c **** 
 767:..\acn-sdk-c\src\wolfSSL/wolfcrypt/src/random.c ****         ret = wc_RNG_GenerateBlock(rng, junk, 256); /*rid initial state*/
 768:..\acn-sdk-c\src\wolfSSL/wolfcrypt/src/random.c ****     }
 769:..\acn-sdk-c\src\wolfSSL/wolfcrypt/src/random.c **** 
 770:..\acn-sdk-c\src\wolfSSL/wolfcrypt/src/random.c **** #ifdef WOLFSSL_SMALL_STACK
 771:..\acn-sdk-c\src\wolfSSL/wolfcrypt/src/random.c ****     XFREE(key, NULL, DYNAMIC_TYPE_TMP_BUFFER);
 772:..\acn-sdk-c\src\wolfSSL/wolfcrypt/src/random.c ****     XFREE(junk, NULL, DYNAMIC_TYPE_TMP_BUFFER);
 773:..\acn-sdk-c\src\wolfSSL/wolfcrypt/src/random.c **** #endif
 774:..\acn-sdk-c\src\wolfSSL/wolfcrypt/src/random.c **** 
 775:..\acn-sdk-c\src\wolfSSL/wolfcrypt/src/random.c ****     return ret;
 776:..\acn-sdk-c\src\wolfSSL/wolfcrypt/src/random.c **** }
 777:..\acn-sdk-c\src\wolfSSL/wolfcrypt/src/random.c **** 
 778:..\acn-sdk-c\src\wolfSSL/wolfcrypt/src/random.c **** #ifdef HAVE_CAVIUM
 779:..\acn-sdk-c\src\wolfSSL/wolfcrypt/src/random.c ****     static void CaviumRNG_GenerateBlock(WC_RNG* rng, byte* output, word32 sz);
 780:..\acn-sdk-c\src\wolfSSL/wolfcrypt/src/random.c **** #endif
 781:..\acn-sdk-c\src\wolfSSL/wolfcrypt/src/random.c **** 
 782:..\acn-sdk-c\src\wolfSSL/wolfcrypt/src/random.c **** /* place a generated block in output */
 783:..\acn-sdk-c\src\wolfSSL/wolfcrypt/src/random.c **** int wc_RNG_GenerateBlock(WC_RNG* rng, byte* output, word32 sz)
 784:..\acn-sdk-c\src\wolfSSL/wolfcrypt/src/random.c **** {
 785:..\acn-sdk-c\src\wolfSSL/wolfcrypt/src/random.c **** #ifdef HAVE_INTEL_RDGEN
 786:..\acn-sdk-c\src\wolfSSL/wolfcrypt/src/random.c ****     if(IS_INTEL_RDRAND)
 787:..\acn-sdk-c\src\wolfSSL/wolfcrypt/src/random.c ****         return wc_GenerateRand_IntelRD(NULL, output, sz) ;
 788:..\acn-sdk-c\src\wolfSSL/wolfcrypt/src/random.c **** #endif
 789:..\acn-sdk-c\src\wolfSSL/wolfcrypt/src/random.c **** #ifdef HAVE_CAVIUM
 790:..\acn-sdk-c\src\wolfSSL/wolfcrypt/src/random.c ****     if (rng->magic == WOLFSSL_RNG_CAVIUM_MAGIC)
 791:..\acn-sdk-c\src\wolfSSL/wolfcrypt/src/random.c ****         return CaviumRNG_GenerateBlock(rng, output, sz);
 792:..\acn-sdk-c\src\wolfSSL/wolfcrypt/src/random.c **** #endif
 793:..\acn-sdk-c\src\wolfSSL/wolfcrypt/src/random.c ****     XMEMSET(output, 0, sz);
 794:..\acn-sdk-c\src\wolfSSL/wolfcrypt/src/random.c ****     wc_Arc4Process(&rng->cipher, output, output, sz);
 795:..\acn-sdk-c\src\wolfSSL/wolfcrypt/src/random.c **** 
 796:..\acn-sdk-c\src\wolfSSL/wolfcrypt/src/random.c ****     return 0;
 797:..\acn-sdk-c\src\wolfSSL/wolfcrypt/src/random.c **** }
 798:..\acn-sdk-c\src\wolfSSL/wolfcrypt/src/random.c **** 
 799:..\acn-sdk-c\src\wolfSSL/wolfcrypt/src/random.c **** 
 800:..\acn-sdk-c\src\wolfSSL/wolfcrypt/src/random.c **** int wc_RNG_GenerateByte(WC_RNG* rng, byte* b)
 801:..\acn-sdk-c\src\wolfSSL/wolfcrypt/src/random.c **** {
 802:..\acn-sdk-c\src\wolfSSL/wolfcrypt/src/random.c ****     return wc_RNG_GenerateBlock(rng, b, 1);
 803:..\acn-sdk-c\src\wolfSSL/wolfcrypt/src/random.c **** }
 804:..\acn-sdk-c\src\wolfSSL/wolfcrypt/src/random.c **** 
 805:..\acn-sdk-c\src\wolfSSL/wolfcrypt/src/random.c **** 
 806:..\acn-sdk-c\src\wolfSSL/wolfcrypt/src/random.c **** int wc_FreeRng(WC_RNG* rng)
 807:..\acn-sdk-c\src\wolfSSL/wolfcrypt/src/random.c **** {
 808:..\acn-sdk-c\src\wolfSSL/wolfcrypt/src/random.c ****     (void)rng;
ARM GAS  C:\Users\ddemidov\AppData\Local\Temp\ccBlgygZ.s 			page 43


 809:..\acn-sdk-c\src\wolfSSL/wolfcrypt/src/random.c ****     return 0;
 810:..\acn-sdk-c\src\wolfSSL/wolfcrypt/src/random.c **** }
 811:..\acn-sdk-c\src\wolfSSL/wolfcrypt/src/random.c **** 
 812:..\acn-sdk-c\src\wolfSSL/wolfcrypt/src/random.c **** 
 813:..\acn-sdk-c\src\wolfSSL/wolfcrypt/src/random.c **** #ifdef HAVE_CAVIUM
 814:..\acn-sdk-c\src\wolfSSL/wolfcrypt/src/random.c **** 
 815:..\acn-sdk-c\src\wolfSSL/wolfcrypt/src/random.c **** #include <wolfssl/ctaocrypt/logging.h>
 816:..\acn-sdk-c\src\wolfSSL/wolfcrypt/src/random.c **** #include "cavium_common.h"
 817:..\acn-sdk-c\src\wolfSSL/wolfcrypt/src/random.c **** 
 818:..\acn-sdk-c\src\wolfSSL/wolfcrypt/src/random.c **** /* Initialize RNG for use with Nitrox device */
 819:..\acn-sdk-c\src\wolfSSL/wolfcrypt/src/random.c **** int wc_InitRngCavium(WC_RNG* rng, int devId)
 820:..\acn-sdk-c\src\wolfSSL/wolfcrypt/src/random.c **** {
 821:..\acn-sdk-c\src\wolfSSL/wolfcrypt/src/random.c ****     if (rng == NULL)
 822:..\acn-sdk-c\src\wolfSSL/wolfcrypt/src/random.c ****         return -1;
 823:..\acn-sdk-c\src\wolfSSL/wolfcrypt/src/random.c **** 
 824:..\acn-sdk-c\src\wolfSSL/wolfcrypt/src/random.c ****     rng->devId = devId;
 825:..\acn-sdk-c\src\wolfSSL/wolfcrypt/src/random.c ****     rng->magic = WOLFSSL_RNG_CAVIUM_MAGIC;
 826:..\acn-sdk-c\src\wolfSSL/wolfcrypt/src/random.c **** 
 827:..\acn-sdk-c\src\wolfSSL/wolfcrypt/src/random.c ****     return 0;
 828:..\acn-sdk-c\src\wolfSSL/wolfcrypt/src/random.c **** }
 829:..\acn-sdk-c\src\wolfSSL/wolfcrypt/src/random.c **** 
 830:..\acn-sdk-c\src\wolfSSL/wolfcrypt/src/random.c **** 
 831:..\acn-sdk-c\src\wolfSSL/wolfcrypt/src/random.c **** static void CaviumRNG_GenerateBlock(WC_RNG* rng, byte* output, word32 sz)
 832:..\acn-sdk-c\src\wolfSSL/wolfcrypt/src/random.c **** {
 833:..\acn-sdk-c\src\wolfSSL/wolfcrypt/src/random.c ****     wolfssl_word offset = 0;
 834:..\acn-sdk-c\src\wolfSSL/wolfcrypt/src/random.c ****     word32      requestId;
 835:..\acn-sdk-c\src\wolfSSL/wolfcrypt/src/random.c **** 
 836:..\acn-sdk-c\src\wolfSSL/wolfcrypt/src/random.c ****     while (sz > WOLFSSL_MAX_16BIT) {
 837:..\acn-sdk-c\src\wolfSSL/wolfcrypt/src/random.c ****         word16 slen = (word16)WOLFSSL_MAX_16BIT;
 838:..\acn-sdk-c\src\wolfSSL/wolfcrypt/src/random.c ****         if (CspRandom(CAVIUM_BLOCKING, slen, output + offset, &requestId,
 839:..\acn-sdk-c\src\wolfSSL/wolfcrypt/src/random.c ****                       rng->devId) != 0) {
 840:..\acn-sdk-c\src\wolfSSL/wolfcrypt/src/random.c ****             WOLFSSL_MSG("Cavium RNG failed");
 841:..\acn-sdk-c\src\wolfSSL/wolfcrypt/src/random.c ****         }
 842:..\acn-sdk-c\src\wolfSSL/wolfcrypt/src/random.c ****         sz     -= WOLFSSL_MAX_16BIT;
 843:..\acn-sdk-c\src\wolfSSL/wolfcrypt/src/random.c ****         offset += WOLFSSL_MAX_16BIT;
 844:..\acn-sdk-c\src\wolfSSL/wolfcrypt/src/random.c ****     }
 845:..\acn-sdk-c\src\wolfSSL/wolfcrypt/src/random.c ****     if (sz) {
 846:..\acn-sdk-c\src\wolfSSL/wolfcrypt/src/random.c ****         word16 slen = (word16)sz;
 847:..\acn-sdk-c\src\wolfSSL/wolfcrypt/src/random.c ****         if (CspRandom(CAVIUM_BLOCKING, slen, output + offset, &requestId,
 848:..\acn-sdk-c\src\wolfSSL/wolfcrypt/src/random.c ****                       rng->devId) != 0) {
 849:..\acn-sdk-c\src\wolfSSL/wolfcrypt/src/random.c ****             WOLFSSL_MSG("Cavium RNG failed");
 850:..\acn-sdk-c\src\wolfSSL/wolfcrypt/src/random.c ****         }
 851:..\acn-sdk-c\src\wolfSSL/wolfcrypt/src/random.c ****     }
 852:..\acn-sdk-c\src\wolfSSL/wolfcrypt/src/random.c **** }
 853:..\acn-sdk-c\src\wolfSSL/wolfcrypt/src/random.c **** 
 854:..\acn-sdk-c\src\wolfSSL/wolfcrypt/src/random.c **** #endif /* HAVE_CAVIUM */
 855:..\acn-sdk-c\src\wolfSSL/wolfcrypt/src/random.c **** 
 856:..\acn-sdk-c\src\wolfSSL/wolfcrypt/src/random.c **** #endif /* HAVE_HASHDRBG || NO_RC4 */
 857:..\acn-sdk-c\src\wolfSSL/wolfcrypt/src/random.c **** 
 858:..\acn-sdk-c\src\wolfSSL/wolfcrypt/src/random.c **** 
 859:..\acn-sdk-c\src\wolfSSL/wolfcrypt/src/random.c **** #if defined(HAVE_INTEL_RDGEN)
 860:..\acn-sdk-c\src\wolfSSL/wolfcrypt/src/random.c **** 
 861:..\acn-sdk-c\src\wolfSSL/wolfcrypt/src/random.c **** #ifndef _MSC_VER
 862:..\acn-sdk-c\src\wolfSSL/wolfcrypt/src/random.c ****     #define cpuid(reg, leaf, sub)\
 863:..\acn-sdk-c\src\wolfSSL/wolfcrypt/src/random.c ****             __asm__ __volatile__ ("cpuid":\
 864:..\acn-sdk-c\src\wolfSSL/wolfcrypt/src/random.c ****              "=a" (reg[0]), "=b" (reg[1]), "=c" (reg[2]), "=d" (reg[3]) :\
 865:..\acn-sdk-c\src\wolfSSL/wolfcrypt/src/random.c ****              "a" (leaf), "c"(sub));
ARM GAS  C:\Users\ddemidov\AppData\Local\Temp\ccBlgygZ.s 			page 44


 866:..\acn-sdk-c\src\wolfSSL/wolfcrypt/src/random.c **** 
 867:..\acn-sdk-c\src\wolfSSL/wolfcrypt/src/random.c ****     #define XASM_LINK(f) asm(f)
 868:..\acn-sdk-c\src\wolfSSL/wolfcrypt/src/random.c **** #else
 869:..\acn-sdk-c\src\wolfSSL/wolfcrypt/src/random.c **** 
 870:..\acn-sdk-c\src\wolfSSL/wolfcrypt/src/random.c ****     #include <intrin.h>
 871:..\acn-sdk-c\src\wolfSSL/wolfcrypt/src/random.c ****     #define cpuid(a,b) __cpuid((int*)a,b)
 872:..\acn-sdk-c\src\wolfSSL/wolfcrypt/src/random.c **** 
 873:..\acn-sdk-c\src\wolfSSL/wolfcrypt/src/random.c ****     #define XASM_LINK(f)
 874:..\acn-sdk-c\src\wolfSSL/wolfcrypt/src/random.c **** 
 875:..\acn-sdk-c\src\wolfSSL/wolfcrypt/src/random.c **** #endif /* _MSC_VER */
 876:..\acn-sdk-c\src\wolfSSL/wolfcrypt/src/random.c **** 
 877:..\acn-sdk-c\src\wolfSSL/wolfcrypt/src/random.c **** #define EAX 0
 878:..\acn-sdk-c\src\wolfSSL/wolfcrypt/src/random.c **** #define EBX 1
 879:..\acn-sdk-c\src\wolfSSL/wolfcrypt/src/random.c **** #define ECX 2
 880:..\acn-sdk-c\src\wolfSSL/wolfcrypt/src/random.c **** #define EDX 3
 881:..\acn-sdk-c\src\wolfSSL/wolfcrypt/src/random.c **** 
 882:..\acn-sdk-c\src\wolfSSL/wolfcrypt/src/random.c **** static word32 cpuid_flag(word32 leaf, word32 sub, word32 num, word32 bit) {
 883:..\acn-sdk-c\src\wolfSSL/wolfcrypt/src/random.c ****     int got_intel_cpu=0;
 884:..\acn-sdk-c\src\wolfSSL/wolfcrypt/src/random.c ****     unsigned int reg[5];
 885:..\acn-sdk-c\src\wolfSSL/wolfcrypt/src/random.c **** 
 886:..\acn-sdk-c\src\wolfSSL/wolfcrypt/src/random.c ****     reg[4] = '\0' ;
 887:..\acn-sdk-c\src\wolfSSL/wolfcrypt/src/random.c ****     cpuid(reg, 0, 0);
 888:..\acn-sdk-c\src\wolfSSL/wolfcrypt/src/random.c ****     if(memcmp((char *)&(reg[EBX]), "Genu", 4) == 0 &&
 889:..\acn-sdk-c\src\wolfSSL/wolfcrypt/src/random.c ****                 memcmp((char *)&(reg[EDX]), "ineI", 4) == 0 &&
 890:..\acn-sdk-c\src\wolfSSL/wolfcrypt/src/random.c ****                 memcmp((char *)&(reg[ECX]), "ntel", 4) == 0) {
 891:..\acn-sdk-c\src\wolfSSL/wolfcrypt/src/random.c ****         got_intel_cpu = 1;
 892:..\acn-sdk-c\src\wolfSSL/wolfcrypt/src/random.c ****     }
 893:..\acn-sdk-c\src\wolfSSL/wolfcrypt/src/random.c ****     if (got_intel_cpu) {
 894:..\acn-sdk-c\src\wolfSSL/wolfcrypt/src/random.c ****         cpuid(reg, leaf, sub);
 895:..\acn-sdk-c\src\wolfSSL/wolfcrypt/src/random.c ****         return((reg[num]>>bit)&0x1) ;
 896:..\acn-sdk-c\src\wolfSSL/wolfcrypt/src/random.c ****     }
 897:..\acn-sdk-c\src\wolfSSL/wolfcrypt/src/random.c ****     return 0 ;
 898:..\acn-sdk-c\src\wolfSSL/wolfcrypt/src/random.c **** }
 899:..\acn-sdk-c\src\wolfSSL/wolfcrypt/src/random.c **** 
 900:..\acn-sdk-c\src\wolfSSL/wolfcrypt/src/random.c **** static int wc_InitRng_IntelRD()
 901:..\acn-sdk-c\src\wolfSSL/wolfcrypt/src/random.c **** {
 902:..\acn-sdk-c\src\wolfSSL/wolfcrypt/src/random.c ****     if(cpuid_check==0) {
 903:..\acn-sdk-c\src\wolfSSL/wolfcrypt/src/random.c ****         if(cpuid_flag(1, 0, ECX, 30)){ cpuid_flags |= CPUID_RDRAND ;}
 904:..\acn-sdk-c\src\wolfSSL/wolfcrypt/src/random.c ****         if(cpuid_flag(7, 0, EBX, 18)){ cpuid_flags |= CPUID_RDSEED ;}
 905:..\acn-sdk-c\src\wolfSSL/wolfcrypt/src/random.c ****         cpuid_check = 1 ;
 906:..\acn-sdk-c\src\wolfSSL/wolfcrypt/src/random.c ****     }
 907:..\acn-sdk-c\src\wolfSSL/wolfcrypt/src/random.c ****     return 1 ;
 908:..\acn-sdk-c\src\wolfSSL/wolfcrypt/src/random.c **** }
 909:..\acn-sdk-c\src\wolfSSL/wolfcrypt/src/random.c **** 
 910:..\acn-sdk-c\src\wolfSSL/wolfcrypt/src/random.c **** #define INTELRD_RETRY 10
 911:..\acn-sdk-c\src\wolfSSL/wolfcrypt/src/random.c **** 
 912:..\acn-sdk-c\src\wolfSSL/wolfcrypt/src/random.c **** #if defined(HAVE_HASHDRBG) || defined(NO_RC4)
 913:..\acn-sdk-c\src\wolfSSL/wolfcrypt/src/random.c **** 
 914:..\acn-sdk-c\src\wolfSSL/wolfcrypt/src/random.c **** /* return 0 on success */
 915:..\acn-sdk-c\src\wolfSSL/wolfcrypt/src/random.c **** static INLINE int IntelRDseed32(unsigned int *seed)
 916:..\acn-sdk-c\src\wolfSSL/wolfcrypt/src/random.c **** {
 917:..\acn-sdk-c\src\wolfSSL/wolfcrypt/src/random.c ****     int rdseed;  unsigned char ok ;
 918:..\acn-sdk-c\src\wolfSSL/wolfcrypt/src/random.c **** 
 919:..\acn-sdk-c\src\wolfSSL/wolfcrypt/src/random.c ****     __asm__ volatile("rdseed %0; setc %1":"=r"(rdseed), "=qm"(ok));
 920:..\acn-sdk-c\src\wolfSSL/wolfcrypt/src/random.c ****     if(ok){
 921:..\acn-sdk-c\src\wolfSSL/wolfcrypt/src/random.c ****         *seed = rdseed ;
 922:..\acn-sdk-c\src\wolfSSL/wolfcrypt/src/random.c ****         return 0 ;
ARM GAS  C:\Users\ddemidov\AppData\Local\Temp\ccBlgygZ.s 			page 45


 923:..\acn-sdk-c\src\wolfSSL/wolfcrypt/src/random.c ****     } else
 924:..\acn-sdk-c\src\wolfSSL/wolfcrypt/src/random.c ****         return 1;
 925:..\acn-sdk-c\src\wolfSSL/wolfcrypt/src/random.c **** }
 926:..\acn-sdk-c\src\wolfSSL/wolfcrypt/src/random.c **** 
 927:..\acn-sdk-c\src\wolfSSL/wolfcrypt/src/random.c **** /* return 0 on success */
 928:..\acn-sdk-c\src\wolfSSL/wolfcrypt/src/random.c **** static INLINE int IntelRDseed32_r(unsigned int *rnd)
 929:..\acn-sdk-c\src\wolfSSL/wolfcrypt/src/random.c **** {
 930:..\acn-sdk-c\src\wolfSSL/wolfcrypt/src/random.c ****     int i ;
 931:..\acn-sdk-c\src\wolfSSL/wolfcrypt/src/random.c ****     for(i=0; i<INTELRD_RETRY;i++) {
 932:..\acn-sdk-c\src\wolfSSL/wolfcrypt/src/random.c ****        if(IntelRDseed32(rnd) == 0) return 0 ;
 933:..\acn-sdk-c\src\wolfSSL/wolfcrypt/src/random.c ****     }
 934:..\acn-sdk-c\src\wolfSSL/wolfcrypt/src/random.c ****     return 1 ;
 935:..\acn-sdk-c\src\wolfSSL/wolfcrypt/src/random.c **** }
 936:..\acn-sdk-c\src\wolfSSL/wolfcrypt/src/random.c **** 
 937:..\acn-sdk-c\src\wolfSSL/wolfcrypt/src/random.c **** /* return 0 on success */
 938:..\acn-sdk-c\src\wolfSSL/wolfcrypt/src/random.c **** static int wc_GenerateSeed_IntelRD(OS_Seed* os, byte* output, word32 sz)
 939:..\acn-sdk-c\src\wolfSSL/wolfcrypt/src/random.c **** {
 940:..\acn-sdk-c\src\wolfSSL/wolfcrypt/src/random.c ****     (void) os ;
 941:..\acn-sdk-c\src\wolfSSL/wolfcrypt/src/random.c ****     int ret ;
 942:..\acn-sdk-c\src\wolfSSL/wolfcrypt/src/random.c ****     unsigned int rndTmp ;
 943:..\acn-sdk-c\src\wolfSSL/wolfcrypt/src/random.c **** 
 944:..\acn-sdk-c\src\wolfSSL/wolfcrypt/src/random.c ****     for(  ; sz/4 > 0; sz-=4, output+=4) {
 945:..\acn-sdk-c\src\wolfSSL/wolfcrypt/src/random.c ****         if(IS_INTEL_RDSEED)ret = IntelRDseed32_r((word32 *)output) ;
 946:..\acn-sdk-c\src\wolfSSL/wolfcrypt/src/random.c ****         else return 1 ;
 947:..\acn-sdk-c\src\wolfSSL/wolfcrypt/src/random.c ****         if(ret)
 948:..\acn-sdk-c\src\wolfSSL/wolfcrypt/src/random.c ****              return 1 ;
 949:..\acn-sdk-c\src\wolfSSL/wolfcrypt/src/random.c ****     }
 950:..\acn-sdk-c\src\wolfSSL/wolfcrypt/src/random.c ****     if(sz == 0)return 0 ;
 951:..\acn-sdk-c\src\wolfSSL/wolfcrypt/src/random.c **** 
 952:..\acn-sdk-c\src\wolfSSL/wolfcrypt/src/random.c ****     if(IS_INTEL_RDSEED)ret = IntelRDseed32_r(&rndTmp) ;
 953:..\acn-sdk-c\src\wolfSSL/wolfcrypt/src/random.c ****     else return 1 ;
 954:..\acn-sdk-c\src\wolfSSL/wolfcrypt/src/random.c ****     if(ret)
 955:..\acn-sdk-c\src\wolfSSL/wolfcrypt/src/random.c ****          return 1 ;
 956:..\acn-sdk-c\src\wolfSSL/wolfcrypt/src/random.c ****     XMEMCPY(output, &rndTmp, sz) ;
 957:..\acn-sdk-c\src\wolfSSL/wolfcrypt/src/random.c ****     return 0;
 958:..\acn-sdk-c\src\wolfSSL/wolfcrypt/src/random.c **** }
 959:..\acn-sdk-c\src\wolfSSL/wolfcrypt/src/random.c **** 
 960:..\acn-sdk-c\src\wolfSSL/wolfcrypt/src/random.c **** #else
 961:..\acn-sdk-c\src\wolfSSL/wolfcrypt/src/random.c **** 
 962:..\acn-sdk-c\src\wolfSSL/wolfcrypt/src/random.c **** /* return 0 on success */
 963:..\acn-sdk-c\src\wolfSSL/wolfcrypt/src/random.c **** static INLINE int IntelRDrand32(unsigned int *rnd)
 964:..\acn-sdk-c\src\wolfSSL/wolfcrypt/src/random.c **** {
 965:..\acn-sdk-c\src\wolfSSL/wolfcrypt/src/random.c ****     int rdrand; unsigned char ok ;
 966:..\acn-sdk-c\src\wolfSSL/wolfcrypt/src/random.c ****     __asm__ volatile("rdrand %0; setc %1":"=r"(rdrand), "=qm"(ok));
 967:..\acn-sdk-c\src\wolfSSL/wolfcrypt/src/random.c ****     if(ok){
 968:..\acn-sdk-c\src\wolfSSL/wolfcrypt/src/random.c ****         *rnd = rdrand;
 969:..\acn-sdk-c\src\wolfSSL/wolfcrypt/src/random.c ****         return 0 ;
 970:..\acn-sdk-c\src\wolfSSL/wolfcrypt/src/random.c ****     } else
 971:..\acn-sdk-c\src\wolfSSL/wolfcrypt/src/random.c ****         return 1;
 972:..\acn-sdk-c\src\wolfSSL/wolfcrypt/src/random.c **** }
 973:..\acn-sdk-c\src\wolfSSL/wolfcrypt/src/random.c **** 
 974:..\acn-sdk-c\src\wolfSSL/wolfcrypt/src/random.c **** /* return 0 on success */
 975:..\acn-sdk-c\src\wolfSSL/wolfcrypt/src/random.c **** static INLINE int IntelRDrand32_r(unsigned int *rnd)
 976:..\acn-sdk-c\src\wolfSSL/wolfcrypt/src/random.c **** {
 977:..\acn-sdk-c\src\wolfSSL/wolfcrypt/src/random.c ****     int i ;
 978:..\acn-sdk-c\src\wolfSSL/wolfcrypt/src/random.c ****     for(i=0; i<INTELRD_RETRY;i++) {
 979:..\acn-sdk-c\src\wolfSSL/wolfcrypt/src/random.c ****        if(IntelRDrand32(rnd) == 0) return 0 ;
ARM GAS  C:\Users\ddemidov\AppData\Local\Temp\ccBlgygZ.s 			page 46


 980:..\acn-sdk-c\src\wolfSSL/wolfcrypt/src/random.c ****     }
 981:..\acn-sdk-c\src\wolfSSL/wolfcrypt/src/random.c ****     return 1 ;
 982:..\acn-sdk-c\src\wolfSSL/wolfcrypt/src/random.c **** }
 983:..\acn-sdk-c\src\wolfSSL/wolfcrypt/src/random.c **** 
 984:..\acn-sdk-c\src\wolfSSL/wolfcrypt/src/random.c **** /* return 0 on success */
 985:..\acn-sdk-c\src\wolfSSL/wolfcrypt/src/random.c **** static int wc_GenerateRand_IntelRD(OS_Seed* os, byte* output, word32 sz)
 986:..\acn-sdk-c\src\wolfSSL/wolfcrypt/src/random.c **** {
 987:..\acn-sdk-c\src\wolfSSL/wolfcrypt/src/random.c ****     (void) os ;
 988:..\acn-sdk-c\src\wolfSSL/wolfcrypt/src/random.c ****     int ret ;
 989:..\acn-sdk-c\src\wolfSSL/wolfcrypt/src/random.c ****     unsigned int rndTmp;
 990:..\acn-sdk-c\src\wolfSSL/wolfcrypt/src/random.c **** 
 991:..\acn-sdk-c\src\wolfSSL/wolfcrypt/src/random.c ****     for(  ; sz/4 > 0; sz-=4, output+=4) {
 992:..\acn-sdk-c\src\wolfSSL/wolfcrypt/src/random.c ****         if(IS_INTEL_RDRAND)ret = IntelRDrand32_r((word32 *)output);
 993:..\acn-sdk-c\src\wolfSSL/wolfcrypt/src/random.c ****         else return 1 ;
 994:..\acn-sdk-c\src\wolfSSL/wolfcrypt/src/random.c ****         if(ret)
 995:..\acn-sdk-c\src\wolfSSL/wolfcrypt/src/random.c ****              return 1 ;
 996:..\acn-sdk-c\src\wolfSSL/wolfcrypt/src/random.c ****     }
 997:..\acn-sdk-c\src\wolfSSL/wolfcrypt/src/random.c ****     if(sz == 0)return 0 ;
 998:..\acn-sdk-c\src\wolfSSL/wolfcrypt/src/random.c **** 
 999:..\acn-sdk-c\src\wolfSSL/wolfcrypt/src/random.c ****     if(IS_INTEL_RDRAND)ret = IntelRDrand32_r(&rndTmp);
1000:..\acn-sdk-c\src\wolfSSL/wolfcrypt/src/random.c ****     else return 1 ;
1001:..\acn-sdk-c\src\wolfSSL/wolfcrypt/src/random.c ****     if(ret)
1002:..\acn-sdk-c\src\wolfSSL/wolfcrypt/src/random.c ****          return 1 ;
1003:..\acn-sdk-c\src\wolfSSL/wolfcrypt/src/random.c ****     XMEMCPY(output, &rndTmp, sz) ;
1004:..\acn-sdk-c\src\wolfSSL/wolfcrypt/src/random.c ****     return 0;
1005:..\acn-sdk-c\src\wolfSSL/wolfcrypt/src/random.c **** }
1006:..\acn-sdk-c\src\wolfSSL/wolfcrypt/src/random.c **** #endif /* defined(HAVE_HASHDRBG) || defined(NO_RC4) */
1007:..\acn-sdk-c\src\wolfSSL/wolfcrypt/src/random.c **** 
1008:..\acn-sdk-c\src\wolfSSL/wolfcrypt/src/random.c **** #endif /* HAVE_INTEL_RDGEN */
1009:..\acn-sdk-c\src\wolfSSL/wolfcrypt/src/random.c **** 
1010:..\acn-sdk-c\src\wolfSSL/wolfcrypt/src/random.c **** 
1011:..\acn-sdk-c\src\wolfSSL/wolfcrypt/src/random.c **** /* wc_GenerateSeed Implementations */
1012:..\acn-sdk-c\src\wolfSSL/wolfcrypt/src/random.c **** #if defined(CUSTOM_RAND_GENERATE_SEED)
1013:..\acn-sdk-c\src\wolfSSL/wolfcrypt/src/random.c **** 
1014:..\acn-sdk-c\src\wolfSSL/wolfcrypt/src/random.c ****     /* Implement your own random generation function
1015:..\acn-sdk-c\src\wolfSSL/wolfcrypt/src/random.c ****      * Return 0 to indicate success
1016:..\acn-sdk-c\src\wolfSSL/wolfcrypt/src/random.c ****      * int rand_gen_seed(byte* output, word32 sz);
1017:..\acn-sdk-c\src\wolfSSL/wolfcrypt/src/random.c ****      * #define CUSTOM_RAND_GENERATE_SEED  rand_gen_seed */
1018:..\acn-sdk-c\src\wolfSSL/wolfcrypt/src/random.c **** 
1019:..\acn-sdk-c\src\wolfSSL/wolfcrypt/src/random.c ****     int wc_GenerateSeed(OS_Seed* os, byte* output, word32 sz)
1020:..\acn-sdk-c\src\wolfSSL/wolfcrypt/src/random.c ****     {
1021:..\acn-sdk-c\src\wolfSSL/wolfcrypt/src/random.c ****         (void)os; /* Suppress unused arg warning */
1022:..\acn-sdk-c\src\wolfSSL/wolfcrypt/src/random.c ****         return CUSTOM_RAND_GENERATE_SEED(output, sz);
1023:..\acn-sdk-c\src\wolfSSL/wolfcrypt/src/random.c ****     }
1024:..\acn-sdk-c\src\wolfSSL/wolfcrypt/src/random.c **** 
1025:..\acn-sdk-c\src\wolfSSL/wolfcrypt/src/random.c **** #elif defined(CUSTOM_RAND_GENERATE_SEED_OS)
1026:..\acn-sdk-c\src\wolfSSL/wolfcrypt/src/random.c **** 
1027:..\acn-sdk-c\src\wolfSSL/wolfcrypt/src/random.c ****     /* Implement your own random generation function,
1028:..\acn-sdk-c\src\wolfSSL/wolfcrypt/src/random.c ****      *  which includes OS_Seed.
1029:..\acn-sdk-c\src\wolfSSL/wolfcrypt/src/random.c ****      * Return 0 to indicate success
1030:..\acn-sdk-c\src\wolfSSL/wolfcrypt/src/random.c ****      * int rand_gen_seed(OS_Seed* os, byte* output, word32 sz);
1031:..\acn-sdk-c\src\wolfSSL/wolfcrypt/src/random.c ****      * #define CUSTOM_RAND_GENERATE_SEED_OS  rand_gen_seed */
1032:..\acn-sdk-c\src\wolfSSL/wolfcrypt/src/random.c **** 
1033:..\acn-sdk-c\src\wolfSSL/wolfcrypt/src/random.c ****     int wc_GenerateSeed(OS_Seed* os, byte* output, word32 sz)
1034:..\acn-sdk-c\src\wolfSSL/wolfcrypt/src/random.c ****     {
1035:..\acn-sdk-c\src\wolfSSL/wolfcrypt/src/random.c ****         return CUSTOM_RAND_GENERATE_SEED_OS(os, output, sz);
1036:..\acn-sdk-c\src\wolfSSL/wolfcrypt/src/random.c ****     }
ARM GAS  C:\Users\ddemidov\AppData\Local\Temp\ccBlgygZ.s 			page 47


1037:..\acn-sdk-c\src\wolfSSL/wolfcrypt/src/random.c **** 
1038:..\acn-sdk-c\src\wolfSSL/wolfcrypt/src/random.c **** 
1039:..\acn-sdk-c\src\wolfSSL/wolfcrypt/src/random.c **** #elif defined(USE_WINDOWS_API)
1040:..\acn-sdk-c\src\wolfSSL/wolfcrypt/src/random.c **** 
1041:..\acn-sdk-c\src\wolfSSL/wolfcrypt/src/random.c **** int wc_GenerateSeed(OS_Seed* os, byte* output, word32 sz)
1042:..\acn-sdk-c\src\wolfSSL/wolfcrypt/src/random.c **** {
1043:..\acn-sdk-c\src\wolfSSL/wolfcrypt/src/random.c ****     if(!CryptAcquireContext(&os->handle, 0, 0, PROV_RSA_FULL,
1044:..\acn-sdk-c\src\wolfSSL/wolfcrypt/src/random.c ****                             CRYPT_VERIFYCONTEXT))
1045:..\acn-sdk-c\src\wolfSSL/wolfcrypt/src/random.c ****         return WINCRYPT_E;
1046:..\acn-sdk-c\src\wolfSSL/wolfcrypt/src/random.c **** 
1047:..\acn-sdk-c\src\wolfSSL/wolfcrypt/src/random.c ****     if (!CryptGenRandom(os->handle, sz, output))
1048:..\acn-sdk-c\src\wolfSSL/wolfcrypt/src/random.c ****         return CRYPTGEN_E;
1049:..\acn-sdk-c\src\wolfSSL/wolfcrypt/src/random.c **** 
1050:..\acn-sdk-c\src\wolfSSL/wolfcrypt/src/random.c ****     CryptReleaseContext(os->handle, 0);
1051:..\acn-sdk-c\src\wolfSSL/wolfcrypt/src/random.c **** 
1052:..\acn-sdk-c\src\wolfSSL/wolfcrypt/src/random.c ****     return 0;
1053:..\acn-sdk-c\src\wolfSSL/wolfcrypt/src/random.c **** }
1054:..\acn-sdk-c\src\wolfSSL/wolfcrypt/src/random.c **** 
1055:..\acn-sdk-c\src\wolfSSL/wolfcrypt/src/random.c **** 
1056:..\acn-sdk-c\src\wolfSSL/wolfcrypt/src/random.c **** #elif defined(HAVE_RTP_SYS) || defined(EBSNET)
1057:..\acn-sdk-c\src\wolfSSL/wolfcrypt/src/random.c **** 
1058:..\acn-sdk-c\src\wolfSSL/wolfcrypt/src/random.c **** #include "rtprand.h"   /* rtp_rand () */
1059:..\acn-sdk-c\src\wolfSSL/wolfcrypt/src/random.c **** #include "rtptime.h"   /* rtp_get_system_msec() */
1060:..\acn-sdk-c\src\wolfSSL/wolfcrypt/src/random.c **** 
1061:..\acn-sdk-c\src\wolfSSL/wolfcrypt/src/random.c **** 
1062:..\acn-sdk-c\src\wolfSSL/wolfcrypt/src/random.c **** int wc_GenerateSeed(OS_Seed* os, byte* output, word32 sz)
1063:..\acn-sdk-c\src\wolfSSL/wolfcrypt/src/random.c **** {
1064:..\acn-sdk-c\src\wolfSSL/wolfcrypt/src/random.c ****     int i;
1065:..\acn-sdk-c\src\wolfSSL/wolfcrypt/src/random.c ****     rtp_srand(rtp_get_system_msec());
1066:..\acn-sdk-c\src\wolfSSL/wolfcrypt/src/random.c **** 
1067:..\acn-sdk-c\src\wolfSSL/wolfcrypt/src/random.c ****     for (i = 0; i < sz; i++ ) {
1068:..\acn-sdk-c\src\wolfSSL/wolfcrypt/src/random.c ****         output[i] = rtp_rand() % 256;
1069:..\acn-sdk-c\src\wolfSSL/wolfcrypt/src/random.c ****         if ( (i % 8) == 7)
1070:..\acn-sdk-c\src\wolfSSL/wolfcrypt/src/random.c ****             rtp_srand(rtp_get_system_msec());
1071:..\acn-sdk-c\src\wolfSSL/wolfcrypt/src/random.c ****     }
1072:..\acn-sdk-c\src\wolfSSL/wolfcrypt/src/random.c **** 
1073:..\acn-sdk-c\src\wolfSSL/wolfcrypt/src/random.c ****     return 0;
1074:..\acn-sdk-c\src\wolfSSL/wolfcrypt/src/random.c **** }
1075:..\acn-sdk-c\src\wolfSSL/wolfcrypt/src/random.c **** 
1076:..\acn-sdk-c\src\wolfSSL/wolfcrypt/src/random.c **** 
1077:..\acn-sdk-c\src\wolfSSL/wolfcrypt/src/random.c **** #elif defined(MICRIUM)
1078:..\acn-sdk-c\src\wolfSSL/wolfcrypt/src/random.c **** 
1079:..\acn-sdk-c\src\wolfSSL/wolfcrypt/src/random.c **** int wc_GenerateSeed(OS_Seed* os, byte* output, word32 sz)
1080:..\acn-sdk-c\src\wolfSSL/wolfcrypt/src/random.c **** {
1081:..\acn-sdk-c\src\wolfSSL/wolfcrypt/src/random.c ****     #if (NET_SECURE_MGR_CFG_EN == DEF_ENABLED)
1082:..\acn-sdk-c\src\wolfSSL/wolfcrypt/src/random.c ****         NetSecure_InitSeed(output, sz);
1083:..\acn-sdk-c\src\wolfSSL/wolfcrypt/src/random.c ****     #endif
1084:..\acn-sdk-c\src\wolfSSL/wolfcrypt/src/random.c ****     return 0;
1085:..\acn-sdk-c\src\wolfSSL/wolfcrypt/src/random.c **** }
1086:..\acn-sdk-c\src\wolfSSL/wolfcrypt/src/random.c **** 
1087:..\acn-sdk-c\src\wolfSSL/wolfcrypt/src/random.c **** #elif defined(MICROCHIP_PIC32)
1088:..\acn-sdk-c\src\wolfSSL/wolfcrypt/src/random.c **** 
1089:..\acn-sdk-c\src\wolfSSL/wolfcrypt/src/random.c **** #ifdef MICROCHIP_MPLAB_HARMONY
1090:..\acn-sdk-c\src\wolfSSL/wolfcrypt/src/random.c ****     #define PIC32_SEED_COUNT _CP0_GET_COUNT
1091:..\acn-sdk-c\src\wolfSSL/wolfcrypt/src/random.c **** #else
1092:..\acn-sdk-c\src\wolfSSL/wolfcrypt/src/random.c ****     #if !defined(WOLFSSL_MICROCHIP_PIC32MZ)
1093:..\acn-sdk-c\src\wolfSSL/wolfcrypt/src/random.c ****         #include <peripheral/timer.h>
ARM GAS  C:\Users\ddemidov\AppData\Local\Temp\ccBlgygZ.s 			page 48


1094:..\acn-sdk-c\src\wolfSSL/wolfcrypt/src/random.c ****     #endif
1095:..\acn-sdk-c\src\wolfSSL/wolfcrypt/src/random.c ****     #define PIC32_SEED_COUNT ReadCoreTimer
1096:..\acn-sdk-c\src\wolfSSL/wolfcrypt/src/random.c **** #endif
1097:..\acn-sdk-c\src\wolfSSL/wolfcrypt/src/random.c ****     #ifdef WOLFSSL_MIC32MZ_RNG
1098:..\acn-sdk-c\src\wolfSSL/wolfcrypt/src/random.c ****         #include "xc.h"
1099:..\acn-sdk-c\src\wolfSSL/wolfcrypt/src/random.c ****         int wc_GenerateSeed(OS_Seed* os, byte* output, word32 sz)
1100:..\acn-sdk-c\src\wolfSSL/wolfcrypt/src/random.c ****         {
1101:..\acn-sdk-c\src\wolfSSL/wolfcrypt/src/random.c ****             int i ;
1102:..\acn-sdk-c\src\wolfSSL/wolfcrypt/src/random.c ****             byte rnd[8] ;
1103:..\acn-sdk-c\src\wolfSSL/wolfcrypt/src/random.c ****             word32 *rnd32 = (word32 *)rnd ;
1104:..\acn-sdk-c\src\wolfSSL/wolfcrypt/src/random.c ****             word32 size = sz ;
1105:..\acn-sdk-c\src\wolfSSL/wolfcrypt/src/random.c ****             byte* op = output ;
1106:..\acn-sdk-c\src\wolfSSL/wolfcrypt/src/random.c **** 
1107:..\acn-sdk-c\src\wolfSSL/wolfcrypt/src/random.c ****             /* This part has to be replaced with better random seed */
1108:..\acn-sdk-c\src\wolfSSL/wolfcrypt/src/random.c ****             RNGNUMGEN1 = ReadCoreTimer();
1109:..\acn-sdk-c\src\wolfSSL/wolfcrypt/src/random.c ****             RNGPOLY1 = ReadCoreTimer();
1110:..\acn-sdk-c\src\wolfSSL/wolfcrypt/src/random.c ****             RNGPOLY2 = ReadCoreTimer();
1111:..\acn-sdk-c\src\wolfSSL/wolfcrypt/src/random.c ****             RNGNUMGEN2 = ReadCoreTimer();
1112:..\acn-sdk-c\src\wolfSSL/wolfcrypt/src/random.c **** #ifdef DEBUG_WOLFSSL
1113:..\acn-sdk-c\src\wolfSSL/wolfcrypt/src/random.c ****             printf("GenerateSeed::Seed=%08x, %08x\n", RNGNUMGEN1, RNGNUMGEN2) ;
1114:..\acn-sdk-c\src\wolfSSL/wolfcrypt/src/random.c **** #endif
1115:..\acn-sdk-c\src\wolfSSL/wolfcrypt/src/random.c ****             RNGCONbits.PLEN = 0x40;
1116:..\acn-sdk-c\src\wolfSSL/wolfcrypt/src/random.c ****             RNGCONbits.PRNGEN = 1;
1117:..\acn-sdk-c\src\wolfSSL/wolfcrypt/src/random.c ****             for(i=0; i<5; i++) { /* wait for RNGNUMGEN ready */
1118:..\acn-sdk-c\src\wolfSSL/wolfcrypt/src/random.c ****                 volatile int x ;
1119:..\acn-sdk-c\src\wolfSSL/wolfcrypt/src/random.c ****                 x = RNGNUMGEN1 ;
1120:..\acn-sdk-c\src\wolfSSL/wolfcrypt/src/random.c ****                 x = RNGNUMGEN2 ;
1121:..\acn-sdk-c\src\wolfSSL/wolfcrypt/src/random.c ****             }
1122:..\acn-sdk-c\src\wolfSSL/wolfcrypt/src/random.c ****             do {
1123:..\acn-sdk-c\src\wolfSSL/wolfcrypt/src/random.c ****                 rnd32[0] = RNGNUMGEN1;
1124:..\acn-sdk-c\src\wolfSSL/wolfcrypt/src/random.c ****                 rnd32[1] = RNGNUMGEN2;
1125:..\acn-sdk-c\src\wolfSSL/wolfcrypt/src/random.c **** 
1126:..\acn-sdk-c\src\wolfSSL/wolfcrypt/src/random.c ****                 for(i=0; i<8; i++, op++) {
1127:..\acn-sdk-c\src\wolfSSL/wolfcrypt/src/random.c ****                     *op = rnd[i] ;
1128:..\acn-sdk-c\src\wolfSSL/wolfcrypt/src/random.c ****                     size -- ;
1129:..\acn-sdk-c\src\wolfSSL/wolfcrypt/src/random.c ****                     if(size==0)break ;
1130:..\acn-sdk-c\src\wolfSSL/wolfcrypt/src/random.c ****                 }
1131:..\acn-sdk-c\src\wolfSSL/wolfcrypt/src/random.c ****             } while(size) ;
1132:..\acn-sdk-c\src\wolfSSL/wolfcrypt/src/random.c ****             return 0;
1133:..\acn-sdk-c\src\wolfSSL/wolfcrypt/src/random.c ****         }
1134:..\acn-sdk-c\src\wolfSSL/wolfcrypt/src/random.c ****     #else  /* WOLFSSL_MIC32MZ_RNG */
1135:..\acn-sdk-c\src\wolfSSL/wolfcrypt/src/random.c ****         /* uses the core timer, in nanoseconds to seed srand */
1136:..\acn-sdk-c\src\wolfSSL/wolfcrypt/src/random.c ****         int wc_GenerateSeed(OS_Seed* os, byte* output, word32 sz)
1137:..\acn-sdk-c\src\wolfSSL/wolfcrypt/src/random.c ****         {
1138:..\acn-sdk-c\src\wolfSSL/wolfcrypt/src/random.c ****             int i;
1139:..\acn-sdk-c\src\wolfSSL/wolfcrypt/src/random.c ****             srand(PIC32_SEED_COUNT() * 25);
1140:..\acn-sdk-c\src\wolfSSL/wolfcrypt/src/random.c **** 
1141:..\acn-sdk-c\src\wolfSSL/wolfcrypt/src/random.c ****             for (i = 0; i < sz; i++ ) {
1142:..\acn-sdk-c\src\wolfSSL/wolfcrypt/src/random.c ****                 output[i] = rand() % 256;
1143:..\acn-sdk-c\src\wolfSSL/wolfcrypt/src/random.c ****                 if ( (i % 8) == 7)
1144:..\acn-sdk-c\src\wolfSSL/wolfcrypt/src/random.c ****                     srand(PIC32_SEED_COUNT() * 25);
1145:..\acn-sdk-c\src\wolfSSL/wolfcrypt/src/random.c ****             }
1146:..\acn-sdk-c\src\wolfSSL/wolfcrypt/src/random.c ****             return 0;
1147:..\acn-sdk-c\src\wolfSSL/wolfcrypt/src/random.c ****         }
1148:..\acn-sdk-c\src\wolfSSL/wolfcrypt/src/random.c ****     #endif /* WOLFSSL_MIC32MZ_RNG */
1149:..\acn-sdk-c\src\wolfSSL/wolfcrypt/src/random.c **** 
1150:..\acn-sdk-c\src\wolfSSL/wolfcrypt/src/random.c **** #elif defined(FREESCALE_MQX) || defined(FREESCALE_KSDK_MQX) || \
ARM GAS  C:\Users\ddemidov\AppData\Local\Temp\ccBlgygZ.s 			page 49


1151:..\acn-sdk-c\src\wolfSSL/wolfcrypt/src/random.c ****       defined(FREESCALE_KSDK_BM) || defined(FREESCALE_FREE_RTOS)
1152:..\acn-sdk-c\src\wolfSSL/wolfcrypt/src/random.c **** 
1153:..\acn-sdk-c\src\wolfSSL/wolfcrypt/src/random.c ****     #if defined(FREESCALE_K70_RNGA) || defined(FREESCALE_RNGA)
1154:..\acn-sdk-c\src\wolfSSL/wolfcrypt/src/random.c ****         /*
1155:..\acn-sdk-c\src\wolfSSL/wolfcrypt/src/random.c ****          * wc_Generates a RNG seed using the Random Number Generator Accelerator
1156:..\acn-sdk-c\src\wolfSSL/wolfcrypt/src/random.c ****          * on the Kinetis K70. Documentation located in Chapter 37 of
1157:..\acn-sdk-c\src\wolfSSL/wolfcrypt/src/random.c ****          * K70 Sub-Family Reference Manual (see Note 3 in the README for link).
1158:..\acn-sdk-c\src\wolfSSL/wolfcrypt/src/random.c ****          */
1159:..\acn-sdk-c\src\wolfSSL/wolfcrypt/src/random.c ****         int wc_GenerateSeed(OS_Seed* os, byte* output, word32 sz)
1160:..\acn-sdk-c\src\wolfSSL/wolfcrypt/src/random.c ****         {
1161:..\acn-sdk-c\src\wolfSSL/wolfcrypt/src/random.c ****             int i;
1162:..\acn-sdk-c\src\wolfSSL/wolfcrypt/src/random.c **** 
1163:..\acn-sdk-c\src\wolfSSL/wolfcrypt/src/random.c ****             /* turn on RNGA module */
1164:..\acn-sdk-c\src\wolfSSL/wolfcrypt/src/random.c ****             #if defined(SIM_SCGC3_RNGA_MASK)
1165:..\acn-sdk-c\src\wolfSSL/wolfcrypt/src/random.c ****                 SIM_SCGC3 |= SIM_SCGC3_RNGA_MASK;
1166:..\acn-sdk-c\src\wolfSSL/wolfcrypt/src/random.c ****             #endif
1167:..\acn-sdk-c\src\wolfSSL/wolfcrypt/src/random.c ****             #if defined(SIM_SCGC6_RNGA_MASK)
1168:..\acn-sdk-c\src\wolfSSL/wolfcrypt/src/random.c ****                 /* additionally needed for at least K64F */
1169:..\acn-sdk-c\src\wolfSSL/wolfcrypt/src/random.c ****                 SIM_SCGC6 |= SIM_SCGC6_RNGA_MASK;
1170:..\acn-sdk-c\src\wolfSSL/wolfcrypt/src/random.c ****             #endif
1171:..\acn-sdk-c\src\wolfSSL/wolfcrypt/src/random.c **** 
1172:..\acn-sdk-c\src\wolfSSL/wolfcrypt/src/random.c ****             /* set SLP bit to 0 - "RNGA is not in sleep mode" */
1173:..\acn-sdk-c\src\wolfSSL/wolfcrypt/src/random.c ****             RNG_CR &= ~RNG_CR_SLP_MASK;
1174:..\acn-sdk-c\src\wolfSSL/wolfcrypt/src/random.c **** 
1175:..\acn-sdk-c\src\wolfSSL/wolfcrypt/src/random.c ****             /* set HA bit to 1 - "security violations masked" */
1176:..\acn-sdk-c\src\wolfSSL/wolfcrypt/src/random.c ****             RNG_CR |= RNG_CR_HA_MASK;
1177:..\acn-sdk-c\src\wolfSSL/wolfcrypt/src/random.c **** 
1178:..\acn-sdk-c\src\wolfSSL/wolfcrypt/src/random.c ****             /* set GO bit to 1 - "output register loaded with data" */
1179:..\acn-sdk-c\src\wolfSSL/wolfcrypt/src/random.c ****             RNG_CR |= RNG_CR_GO_MASK;
1180:..\acn-sdk-c\src\wolfSSL/wolfcrypt/src/random.c **** 
1181:..\acn-sdk-c\src\wolfSSL/wolfcrypt/src/random.c ****             for (i = 0; i < sz; i++) {
1182:..\acn-sdk-c\src\wolfSSL/wolfcrypt/src/random.c **** 
1183:..\acn-sdk-c\src\wolfSSL/wolfcrypt/src/random.c ****                 /* wait for RNG FIFO to be full */
1184:..\acn-sdk-c\src\wolfSSL/wolfcrypt/src/random.c ****                 while((RNG_SR & RNG_SR_OREG_LVL(0xF)) == 0) {}
1185:..\acn-sdk-c\src\wolfSSL/wolfcrypt/src/random.c **** 
1186:..\acn-sdk-c\src\wolfSSL/wolfcrypt/src/random.c ****                 /* get value */
1187:..\acn-sdk-c\src\wolfSSL/wolfcrypt/src/random.c ****                 output[i] = RNG_OR;
1188:..\acn-sdk-c\src\wolfSSL/wolfcrypt/src/random.c ****             }
1189:..\acn-sdk-c\src\wolfSSL/wolfcrypt/src/random.c **** 
1190:..\acn-sdk-c\src\wolfSSL/wolfcrypt/src/random.c ****             return 0;
1191:..\acn-sdk-c\src\wolfSSL/wolfcrypt/src/random.c ****         }
1192:..\acn-sdk-c\src\wolfSSL/wolfcrypt/src/random.c **** 
1193:..\acn-sdk-c\src\wolfSSL/wolfcrypt/src/random.c ****     #elif defined(FREESCALE_K53_RNGB) || defined(FREESCALE_RNGB)
1194:..\acn-sdk-c\src\wolfSSL/wolfcrypt/src/random.c ****         /*
1195:..\acn-sdk-c\src\wolfSSL/wolfcrypt/src/random.c ****          * wc_Generates a RNG seed using the Random Number Generator (RNGB)
1196:..\acn-sdk-c\src\wolfSSL/wolfcrypt/src/random.c ****          * on the Kinetis K53. Documentation located in Chapter 33 of
1197:..\acn-sdk-c\src\wolfSSL/wolfcrypt/src/random.c ****          * K53 Sub-Family Reference Manual (see note in the README for link).
1198:..\acn-sdk-c\src\wolfSSL/wolfcrypt/src/random.c ****          */
1199:..\acn-sdk-c\src\wolfSSL/wolfcrypt/src/random.c ****         int wc_GenerateSeed(OS_Seed* os, byte* output, word32 sz)
1200:..\acn-sdk-c\src\wolfSSL/wolfcrypt/src/random.c ****         {
1201:..\acn-sdk-c\src\wolfSSL/wolfcrypt/src/random.c ****             int i;
1202:..\acn-sdk-c\src\wolfSSL/wolfcrypt/src/random.c **** 
1203:..\acn-sdk-c\src\wolfSSL/wolfcrypt/src/random.c ****             /* turn on RNGB module */
1204:..\acn-sdk-c\src\wolfSSL/wolfcrypt/src/random.c ****             SIM_SCGC3 |= SIM_SCGC3_RNGB_MASK;
1205:..\acn-sdk-c\src\wolfSSL/wolfcrypt/src/random.c **** 
1206:..\acn-sdk-c\src\wolfSSL/wolfcrypt/src/random.c ****             /* reset RNGB */
1207:..\acn-sdk-c\src\wolfSSL/wolfcrypt/src/random.c ****             RNG_CMD |= RNG_CMD_SR_MASK;
ARM GAS  C:\Users\ddemidov\AppData\Local\Temp\ccBlgygZ.s 			page 50


1208:..\acn-sdk-c\src\wolfSSL/wolfcrypt/src/random.c **** 
1209:..\acn-sdk-c\src\wolfSSL/wolfcrypt/src/random.c ****             /* FIFO generate interrupt, return all zeros on underflow,
1210:..\acn-sdk-c\src\wolfSSL/wolfcrypt/src/random.c ****              * set auto reseed */
1211:..\acn-sdk-c\src\wolfSSL/wolfcrypt/src/random.c ****             RNG_CR |= (RNG_CR_FUFMOD_MASK | RNG_CR_AR_MASK);
1212:..\acn-sdk-c\src\wolfSSL/wolfcrypt/src/random.c **** 
1213:..\acn-sdk-c\src\wolfSSL/wolfcrypt/src/random.c ****             /* gen seed, clear interrupts, clear errors */
1214:..\acn-sdk-c\src\wolfSSL/wolfcrypt/src/random.c ****             RNG_CMD |= (RNG_CMD_GS_MASK | RNG_CMD_CI_MASK | RNG_CMD_CE_MASK);
1215:..\acn-sdk-c\src\wolfSSL/wolfcrypt/src/random.c **** 
1216:..\acn-sdk-c\src\wolfSSL/wolfcrypt/src/random.c ****             /* wait for seeding to complete */
1217:..\acn-sdk-c\src\wolfSSL/wolfcrypt/src/random.c ****             while ((RNG_SR & RNG_SR_SDN_MASK) == 0) {}
1218:..\acn-sdk-c\src\wolfSSL/wolfcrypt/src/random.c **** 
1219:..\acn-sdk-c\src\wolfSSL/wolfcrypt/src/random.c ****             for (i = 0; i < sz; i++) {
1220:..\acn-sdk-c\src\wolfSSL/wolfcrypt/src/random.c **** 
1221:..\acn-sdk-c\src\wolfSSL/wolfcrypt/src/random.c ****                 /* wait for a word to be available from FIFO */
1222:..\acn-sdk-c\src\wolfSSL/wolfcrypt/src/random.c ****                 while((RNG_SR & RNG_SR_FIFO_LVL_MASK) == 0) {}
1223:..\acn-sdk-c\src\wolfSSL/wolfcrypt/src/random.c **** 
1224:..\acn-sdk-c\src\wolfSSL/wolfcrypt/src/random.c ****                 /* get value */
1225:..\acn-sdk-c\src\wolfSSL/wolfcrypt/src/random.c ****                 output[i] = RNG_OUT;
1226:..\acn-sdk-c\src\wolfSSL/wolfcrypt/src/random.c ****             }
1227:..\acn-sdk-c\src\wolfSSL/wolfcrypt/src/random.c **** 
1228:..\acn-sdk-c\src\wolfSSL/wolfcrypt/src/random.c ****             return 0;
1229:..\acn-sdk-c\src\wolfSSL/wolfcrypt/src/random.c ****         }
1230:..\acn-sdk-c\src\wolfSSL/wolfcrypt/src/random.c **** 
1231:..\acn-sdk-c\src\wolfSSL/wolfcrypt/src/random.c ****     #elif defined(FREESCALE_TRNG)
1232:..\acn-sdk-c\src\wolfSSL/wolfcrypt/src/random.c **** 
1233:..\acn-sdk-c\src\wolfSSL/wolfcrypt/src/random.c ****         int wc_GenerateSeed(OS_Seed* os, byte* output, word32 sz)
1234:..\acn-sdk-c\src\wolfSSL/wolfcrypt/src/random.c ****         {
1235:..\acn-sdk-c\src\wolfSSL/wolfcrypt/src/random.c ****             TRNG_DRV_GetRandomData(TRNG_INSTANCE, output, sz);
1236:..\acn-sdk-c\src\wolfSSL/wolfcrypt/src/random.c ****             return 0;
1237:..\acn-sdk-c\src\wolfSSL/wolfcrypt/src/random.c ****         }
1238:..\acn-sdk-c\src\wolfSSL/wolfcrypt/src/random.c **** 
1239:..\acn-sdk-c\src\wolfSSL/wolfcrypt/src/random.c **** 
1240:..\acn-sdk-c\src\wolfSSL/wolfcrypt/src/random.c ****     #elif defined(FREESCALE_RNGA)
1241:..\acn-sdk-c\src\wolfSSL/wolfcrypt/src/random.c **** 
1242:..\acn-sdk-c\src\wolfSSL/wolfcrypt/src/random.c ****         int wc_GenerateSeed(OS_Seed* os, byte* output, word32 sz)
1243:..\acn-sdk-c\src\wolfSSL/wolfcrypt/src/random.c ****         {
1244:..\acn-sdk-c\src\wolfSSL/wolfcrypt/src/random.c ****             RNGA_DRV_GetRandomData(RNGA_INSTANCE, output, sz);
1245:..\acn-sdk-c\src\wolfSSL/wolfcrypt/src/random.c ****             return 0;
1246:..\acn-sdk-c\src\wolfSSL/wolfcrypt/src/random.c ****         }
1247:..\acn-sdk-c\src\wolfSSL/wolfcrypt/src/random.c **** 
1248:..\acn-sdk-c\src\wolfSSL/wolfcrypt/src/random.c ****     #else
1249:..\acn-sdk-c\src\wolfSSL/wolfcrypt/src/random.c ****         #warning "write a real random seed!!!!, just for testing now"
1250:..\acn-sdk-c\src\wolfSSL/wolfcrypt/src/random.c **** 
1251:..\acn-sdk-c\src\wolfSSL/wolfcrypt/src/random.c ****         int wc_GenerateSeed(OS_Seed* os, byte* output, word32 sz)
1252:..\acn-sdk-c\src\wolfSSL/wolfcrypt/src/random.c ****         {
1253:..\acn-sdk-c\src\wolfSSL/wolfcrypt/src/random.c ****             int i;
1254:..\acn-sdk-c\src\wolfSSL/wolfcrypt/src/random.c ****             for (i = 0; i < sz; i++ )
1255:..\acn-sdk-c\src\wolfSSL/wolfcrypt/src/random.c ****                 output[i] = i;
1256:..\acn-sdk-c\src\wolfSSL/wolfcrypt/src/random.c **** 
1257:..\acn-sdk-c\src\wolfSSL/wolfcrypt/src/random.c ****             return 0;
1258:..\acn-sdk-c\src\wolfSSL/wolfcrypt/src/random.c ****         }
1259:..\acn-sdk-c\src\wolfSSL/wolfcrypt/src/random.c ****     #endif /* FREESCALE_K70_RNGA */
1260:..\acn-sdk-c\src\wolfSSL/wolfcrypt/src/random.c **** 
1261:..\acn-sdk-c\src\wolfSSL/wolfcrypt/src/random.c **** #elif defined(WOLFSSL_SAFERTOS) || defined(WOLFSSL_LEANPSK) \
1262:..\acn-sdk-c\src\wolfSSL/wolfcrypt/src/random.c ****    || defined(WOLFSSL_IAR_ARM)  || defined(WOLFSSL_MDK_ARM) \
1263:..\acn-sdk-c\src\wolfSSL/wolfcrypt/src/random.c ****    || defined(WOLFSSL_uITRON4)  || defined(WOLFSSL_uTKERNEL2)\
1264:..\acn-sdk-c\src\wolfSSL/wolfcrypt/src/random.c ****    || defined(WOLFSSL_GENSEED_FORTEST)
ARM GAS  C:\Users\ddemidov\AppData\Local\Temp\ccBlgygZ.s 			page 51


1265:..\acn-sdk-c\src\wolfSSL/wolfcrypt/src/random.c **** 
1266:..\acn-sdk-c\src\wolfSSL/wolfcrypt/src/random.c **** #ifndef _MSC_VER
1267:..\acn-sdk-c\src\wolfSSL/wolfcrypt/src/random.c **** #warning "write a real random seed!!!!, just for testing now"
1268:..\acn-sdk-c\src\wolfSSL/wolfcrypt/src/random.c **** #else
1269:..\acn-sdk-c\src\wolfSSL/wolfcrypt/src/random.c **** #pragma message("Warning: write a real random seed!!!!, just for testing now")
1270:..\acn-sdk-c\src\wolfSSL/wolfcrypt/src/random.c **** #endif
1271:..\acn-sdk-c\src\wolfSSL/wolfcrypt/src/random.c **** 
1272:..\acn-sdk-c\src\wolfSSL/wolfcrypt/src/random.c **** int wc_GenerateSeed(OS_Seed* os, byte* output, word32 sz)
1273:..\acn-sdk-c\src\wolfSSL/wolfcrypt/src/random.c **** {
1274:..\acn-sdk-c\src\wolfSSL/wolfcrypt/src/random.c ****     word32 i;
1275:..\acn-sdk-c\src\wolfSSL/wolfcrypt/src/random.c ****     for (i = 0; i < sz; i++ )
1276:..\acn-sdk-c\src\wolfSSL/wolfcrypt/src/random.c ****         output[i] = i;
1277:..\acn-sdk-c\src\wolfSSL/wolfcrypt/src/random.c **** 
1278:..\acn-sdk-c\src\wolfSSL/wolfcrypt/src/random.c ****     (void)os;
1279:..\acn-sdk-c\src\wolfSSL/wolfcrypt/src/random.c **** 
1280:..\acn-sdk-c\src\wolfSSL/wolfcrypt/src/random.c ****     return 0;
1281:..\acn-sdk-c\src\wolfSSL/wolfcrypt/src/random.c **** }
1282:..\acn-sdk-c\src\wolfSSL/wolfcrypt/src/random.c **** 
1283:..\acn-sdk-c\src\wolfSSL/wolfcrypt/src/random.c **** #elif defined(STM32F2_RNG)
1284:..\acn-sdk-c\src\wolfSSL/wolfcrypt/src/random.c ****     #undef RNG
1285:..\acn-sdk-c\src\wolfSSL/wolfcrypt/src/random.c ****     #include "stm32f2xx_rng.h"
1286:..\acn-sdk-c\src\wolfSSL/wolfcrypt/src/random.c ****     #include "stm32f2xx_rcc.h"
1287:..\acn-sdk-c\src\wolfSSL/wolfcrypt/src/random.c ****     /*
1288:..\acn-sdk-c\src\wolfSSL/wolfcrypt/src/random.c ****      * wc_Generate a RNG seed using the hardware random number generator
1289:..\acn-sdk-c\src\wolfSSL/wolfcrypt/src/random.c ****      * on the STM32F2. Documentation located in STM32F2xx Standard Peripheral
1290:..\acn-sdk-c\src\wolfSSL/wolfcrypt/src/random.c ****      * Library document (See note in README).
1291:..\acn-sdk-c\src\wolfSSL/wolfcrypt/src/random.c ****      */
1292:..\acn-sdk-c\src\wolfSSL/wolfcrypt/src/random.c ****     int wc_GenerateSeed(OS_Seed* os, byte* output, word32 sz)
1293:..\acn-sdk-c\src\wolfSSL/wolfcrypt/src/random.c ****     {
1294:..\acn-sdk-c\src\wolfSSL/wolfcrypt/src/random.c ****         int i;
1295:..\acn-sdk-c\src\wolfSSL/wolfcrypt/src/random.c **** 
1296:..\acn-sdk-c\src\wolfSSL/wolfcrypt/src/random.c ****         /* enable RNG clock source */
1297:..\acn-sdk-c\src\wolfSSL/wolfcrypt/src/random.c ****         RCC_AHB2PeriphClockCmd(RCC_AHB2Periph_RNG, ENABLE);
1298:..\acn-sdk-c\src\wolfSSL/wolfcrypt/src/random.c **** 
1299:..\acn-sdk-c\src\wolfSSL/wolfcrypt/src/random.c ****         /* enable RNG peripheral */
1300:..\acn-sdk-c\src\wolfSSL/wolfcrypt/src/random.c ****         RNG_Cmd(ENABLE);
1301:..\acn-sdk-c\src\wolfSSL/wolfcrypt/src/random.c **** 
1302:..\acn-sdk-c\src\wolfSSL/wolfcrypt/src/random.c ****         for (i = 0; i < sz; i++) {
1303:..\acn-sdk-c\src\wolfSSL/wolfcrypt/src/random.c ****             /* wait until RNG number is ready */
1304:..\acn-sdk-c\src\wolfSSL/wolfcrypt/src/random.c ****             while(RNG_GetFlagStatus(RNG_FLAG_DRDY)== RESET) { }
1305:..\acn-sdk-c\src\wolfSSL/wolfcrypt/src/random.c **** 
1306:..\acn-sdk-c\src\wolfSSL/wolfcrypt/src/random.c ****             /* get value */
1307:..\acn-sdk-c\src\wolfSSL/wolfcrypt/src/random.c ****             output[i] = RNG_GetRandomNumber();
1308:..\acn-sdk-c\src\wolfSSL/wolfcrypt/src/random.c ****         }
1309:..\acn-sdk-c\src\wolfSSL/wolfcrypt/src/random.c **** 
1310:..\acn-sdk-c\src\wolfSSL/wolfcrypt/src/random.c ****         return 0;
1311:..\acn-sdk-c\src\wolfSSL/wolfcrypt/src/random.c ****     }
1312:..\acn-sdk-c\src\wolfSSL/wolfcrypt/src/random.c **** #elif defined(WOLFSSL_LPC43xx) || defined(WOLFSSL_STM32F2xx) || defined(MBED)
1313:..\acn-sdk-c\src\wolfSSL/wolfcrypt/src/random.c **** 
1314:..\acn-sdk-c\src\wolfSSL/wolfcrypt/src/random.c ****     #warning "write a real random seed!!!!, just for testing now"
1315:..\acn-sdk-c\src\wolfSSL/wolfcrypt/src/random.c **** 
1316:..\acn-sdk-c\src\wolfSSL/wolfcrypt/src/random.c ****     int wc_GenerateSeed(OS_Seed* os, byte* output, word32 sz)
1317:..\acn-sdk-c\src\wolfSSL/wolfcrypt/src/random.c ****     {
1318:..\acn-sdk-c\src\wolfSSL/wolfcrypt/src/random.c ****         int i;
1319:..\acn-sdk-c\src\wolfSSL/wolfcrypt/src/random.c **** 
1320:..\acn-sdk-c\src\wolfSSL/wolfcrypt/src/random.c ****         for (i = 0; i < (int)sz; i++ )
1321:..\acn-sdk-c\src\wolfSSL/wolfcrypt/src/random.c ****             output[i] = i;
ARM GAS  C:\Users\ddemidov\AppData\Local\Temp\ccBlgygZ.s 			page 52


1322:..\acn-sdk-c\src\wolfSSL/wolfcrypt/src/random.c **** 
1323:..\acn-sdk-c\src\wolfSSL/wolfcrypt/src/random.c ****         return 0;
1324:..\acn-sdk-c\src\wolfSSL/wolfcrypt/src/random.c ****     }
1325:..\acn-sdk-c\src\wolfSSL/wolfcrypt/src/random.c **** 
1326:..\acn-sdk-c\src\wolfSSL/wolfcrypt/src/random.c **** #elif defined(WOLFSSL_TIRTOS)
1327:..\acn-sdk-c\src\wolfSSL/wolfcrypt/src/random.c **** 
1328:..\acn-sdk-c\src\wolfSSL/wolfcrypt/src/random.c ****     #include <xdc/runtime/Timestamp.h>
1329:..\acn-sdk-c\src\wolfSSL/wolfcrypt/src/random.c ****     #include <stdlib.h>
1330:..\acn-sdk-c\src\wolfSSL/wolfcrypt/src/random.c ****     int wc_GenerateSeed(OS_Seed* os, byte* output, word32 sz)
1331:..\acn-sdk-c\src\wolfSSL/wolfcrypt/src/random.c ****     {
1332:..\acn-sdk-c\src\wolfSSL/wolfcrypt/src/random.c ****         int i;
1333:..\acn-sdk-c\src\wolfSSL/wolfcrypt/src/random.c ****         srand(xdc_runtime_Timestamp_get32());
1334:..\acn-sdk-c\src\wolfSSL/wolfcrypt/src/random.c **** 
1335:..\acn-sdk-c\src\wolfSSL/wolfcrypt/src/random.c ****         for (i = 0; i < sz; i++ ) {
1336:..\acn-sdk-c\src\wolfSSL/wolfcrypt/src/random.c ****             output[i] = rand() % 256;
1337:..\acn-sdk-c\src\wolfSSL/wolfcrypt/src/random.c ****             if ((i % 8) == 7) {
1338:..\acn-sdk-c\src\wolfSSL/wolfcrypt/src/random.c ****                 srand(xdc_runtime_Timestamp_get32());
1339:..\acn-sdk-c\src\wolfSSL/wolfcrypt/src/random.c ****             }
1340:..\acn-sdk-c\src\wolfSSL/wolfcrypt/src/random.c ****         }
1341:..\acn-sdk-c\src\wolfSSL/wolfcrypt/src/random.c **** 
1342:..\acn-sdk-c\src\wolfSSL/wolfcrypt/src/random.c ****         return 0;
1343:..\acn-sdk-c\src\wolfSSL/wolfcrypt/src/random.c ****     }
1344:..\acn-sdk-c\src\wolfSSL/wolfcrypt/src/random.c **** 
1345:..\acn-sdk-c\src\wolfSSL/wolfcrypt/src/random.c **** #elif defined(WOLFSSL_VXWORKS)
1346:..\acn-sdk-c\src\wolfSSL/wolfcrypt/src/random.c **** 
1347:..\acn-sdk-c\src\wolfSSL/wolfcrypt/src/random.c ****     #include <randomNumGen.h>
1348:..\acn-sdk-c\src\wolfSSL/wolfcrypt/src/random.c **** 
1349:..\acn-sdk-c\src\wolfSSL/wolfcrypt/src/random.c ****     int wc_GenerateSeed(OS_Seed* os, byte* output, word32 sz) {
1350:..\acn-sdk-c\src\wolfSSL/wolfcrypt/src/random.c ****         STATUS        status;
1351:..\acn-sdk-c\src\wolfSSL/wolfcrypt/src/random.c **** 
1352:..\acn-sdk-c\src\wolfSSL/wolfcrypt/src/random.c ****         #ifdef VXWORKS_SIM
1353:..\acn-sdk-c\src\wolfSSL/wolfcrypt/src/random.c ****             /* cannot generate true entropy with VxWorks simulator */
1354:..\acn-sdk-c\src\wolfSSL/wolfcrypt/src/random.c ****             #warning "not enough entropy, simulator for testing only"
1355:..\acn-sdk-c\src\wolfSSL/wolfcrypt/src/random.c ****             int i = 0;
1356:..\acn-sdk-c\src\wolfSSL/wolfcrypt/src/random.c **** 
1357:..\acn-sdk-c\src\wolfSSL/wolfcrypt/src/random.c ****             for (i = 0; i < 1000; i++) {
1358:..\acn-sdk-c\src\wolfSSL/wolfcrypt/src/random.c ****                 randomAddTimeStamp();
1359:..\acn-sdk-c\src\wolfSSL/wolfcrypt/src/random.c ****             }
1360:..\acn-sdk-c\src\wolfSSL/wolfcrypt/src/random.c ****         #endif
1361:..\acn-sdk-c\src\wolfSSL/wolfcrypt/src/random.c **** 
1362:..\acn-sdk-c\src\wolfSSL/wolfcrypt/src/random.c ****         status = randBytes (output, sz);
1363:..\acn-sdk-c\src\wolfSSL/wolfcrypt/src/random.c ****         if (status == ERROR) {
1364:..\acn-sdk-c\src\wolfSSL/wolfcrypt/src/random.c ****             return RNG_FAILURE_E;
1365:..\acn-sdk-c\src\wolfSSL/wolfcrypt/src/random.c ****         }
1366:..\acn-sdk-c\src\wolfSSL/wolfcrypt/src/random.c **** 
1367:..\acn-sdk-c\src\wolfSSL/wolfcrypt/src/random.c ****         return 0;
1368:..\acn-sdk-c\src\wolfSSL/wolfcrypt/src/random.c ****     }
1369:..\acn-sdk-c\src\wolfSSL/wolfcrypt/src/random.c **** 
1370:..\acn-sdk-c\src\wolfSSL/wolfcrypt/src/random.c **** #elif defined(WOLFSSL_NRF51)
1371:..\acn-sdk-c\src\wolfSSL/wolfcrypt/src/random.c ****     #include "app_error.h"
1372:..\acn-sdk-c\src\wolfSSL/wolfcrypt/src/random.c ****     #include "nrf_drv_rng.h"
1373:..\acn-sdk-c\src\wolfSSL/wolfcrypt/src/random.c ****     int wc_GenerateSeed(OS_Seed* os, byte* output, word32 sz)
1374:..\acn-sdk-c\src\wolfSSL/wolfcrypt/src/random.c ****     {
1375:..\acn-sdk-c\src\wolfSSL/wolfcrypt/src/random.c ****         int remaining = sz, length, pos = 0;
1376:..\acn-sdk-c\src\wolfSSL/wolfcrypt/src/random.c ****         uint8_t available;
1377:..\acn-sdk-c\src\wolfSSL/wolfcrypt/src/random.c ****         uint32_t err_code;
1378:..\acn-sdk-c\src\wolfSSL/wolfcrypt/src/random.c **** 
ARM GAS  C:\Users\ddemidov\AppData\Local\Temp\ccBlgygZ.s 			page 53


1379:..\acn-sdk-c\src\wolfSSL/wolfcrypt/src/random.c ****         (void)os;
1380:..\acn-sdk-c\src\wolfSSL/wolfcrypt/src/random.c **** 
1381:..\acn-sdk-c\src\wolfSSL/wolfcrypt/src/random.c ****         /* Make sure RNG is running */
1382:..\acn-sdk-c\src\wolfSSL/wolfcrypt/src/random.c ****         err_code = nrf_drv_rng_init(NULL);
1383:..\acn-sdk-c\src\wolfSSL/wolfcrypt/src/random.c ****         if (err_code != NRF_SUCCESS && err_code != NRF_ERROR_INVALID_STATE) {
1384:..\acn-sdk-c\src\wolfSSL/wolfcrypt/src/random.c ****             return -1;
1385:..\acn-sdk-c\src\wolfSSL/wolfcrypt/src/random.c ****         }
1386:..\acn-sdk-c\src\wolfSSL/wolfcrypt/src/random.c **** 
1387:..\acn-sdk-c\src\wolfSSL/wolfcrypt/src/random.c ****         while (remaining > 0) {
1388:..\acn-sdk-c\src\wolfSSL/wolfcrypt/src/random.c ****             err_code = nrf_drv_rng_bytes_available(&available);
1389:..\acn-sdk-c\src\wolfSSL/wolfcrypt/src/random.c ****             if (err_code == NRF_SUCCESS) {
1390:..\acn-sdk-c\src\wolfSSL/wolfcrypt/src/random.c ****                 length = (remaining < available) ? remaining : available;
1391:..\acn-sdk-c\src\wolfSSL/wolfcrypt/src/random.c ****                 if (length > 0) {
1392:..\acn-sdk-c\src\wolfSSL/wolfcrypt/src/random.c ****                     err_code = nrf_drv_rng_rand(&output[pos], length);
1393:..\acn-sdk-c\src\wolfSSL/wolfcrypt/src/random.c ****                     remaining -= length;
1394:..\acn-sdk-c\src\wolfSSL/wolfcrypt/src/random.c ****                     pos += length;
1395:..\acn-sdk-c\src\wolfSSL/wolfcrypt/src/random.c ****                 }
1396:..\acn-sdk-c\src\wolfSSL/wolfcrypt/src/random.c ****             }
1397:..\acn-sdk-c\src\wolfSSL/wolfcrypt/src/random.c **** 
1398:..\acn-sdk-c\src\wolfSSL/wolfcrypt/src/random.c ****             if (err_code != NRF_SUCCESS) {
1399:..\acn-sdk-c\src\wolfSSL/wolfcrypt/src/random.c ****                 break;
1400:..\acn-sdk-c\src\wolfSSL/wolfcrypt/src/random.c ****             }
1401:..\acn-sdk-c\src\wolfSSL/wolfcrypt/src/random.c ****         }
1402:..\acn-sdk-c\src\wolfSSL/wolfcrypt/src/random.c **** 
1403:..\acn-sdk-c\src\wolfSSL/wolfcrypt/src/random.c ****         return (err_code == NRF_SUCCESS) ? 0 : -1;
1404:..\acn-sdk-c\src\wolfSSL/wolfcrypt/src/random.c ****     }
1405:..\acn-sdk-c\src\wolfSSL/wolfcrypt/src/random.c **** 
1406:..\acn-sdk-c\src\wolfSSL/wolfcrypt/src/random.c **** #elif defined(CUSTOM_RAND_GENERATE)
1407:..\acn-sdk-c\src\wolfSSL/wolfcrypt/src/random.c **** 
1408:..\acn-sdk-c\src\wolfSSL/wolfcrypt/src/random.c ****    /* Implement your own random generation function
1409:..\acn-sdk-c\src\wolfSSL/wolfcrypt/src/random.c ****     * word32 rand_gen(void);
1410:..\acn-sdk-c\src\wolfSSL/wolfcrypt/src/random.c ****     * #define CUSTOM_RAND_GENERATE  rand_gen  */
1411:..\acn-sdk-c\src\wolfSSL/wolfcrypt/src/random.c **** 
1412:..\acn-sdk-c\src\wolfSSL/wolfcrypt/src/random.c ****     int wc_GenerateSeed(OS_Seed* os, byte* output, word32 sz)
1413:..\acn-sdk-c\src\wolfSSL/wolfcrypt/src/random.c ****     {
1414:..\acn-sdk-c\src\wolfSSL/wolfcrypt/src/random.c ****         word32 i = 0;
1415:..\acn-sdk-c\src\wolfSSL/wolfcrypt/src/random.c **** 
1416:..\acn-sdk-c\src\wolfSSL/wolfcrypt/src/random.c ****         (void)os;
1417:..\acn-sdk-c\src\wolfSSL/wolfcrypt/src/random.c **** 
1418:..\acn-sdk-c\src\wolfSSL/wolfcrypt/src/random.c ****         while (i < sz)
1419:..\acn-sdk-c\src\wolfSSL/wolfcrypt/src/random.c ****         {
1420:..\acn-sdk-c\src\wolfSSL/wolfcrypt/src/random.c ****             /* If not aligned or there is odd/remainder */
1421:..\acn-sdk-c\src\wolfSSL/wolfcrypt/src/random.c ****             if( (i + sizeof(CUSTOM_RAND_TYPE)) > sz ||
1422:..\acn-sdk-c\src\wolfSSL/wolfcrypt/src/random.c ****                 ((wolfssl_word)&output[i] % sizeof(CUSTOM_RAND_TYPE)) != 0
1423:..\acn-sdk-c\src\wolfSSL/wolfcrypt/src/random.c ****             ) {
1424:..\acn-sdk-c\src\wolfSSL/wolfcrypt/src/random.c ****                 /* Single byte at a time */
1425:..\acn-sdk-c\src\wolfSSL/wolfcrypt/src/random.c ****                 output[i++] = (byte)CUSTOM_RAND_GENERATE();
1426:..\acn-sdk-c\src\wolfSSL/wolfcrypt/src/random.c ****             }
1427:..\acn-sdk-c\src\wolfSSL/wolfcrypt/src/random.c ****             else {
1428:..\acn-sdk-c\src\wolfSSL/wolfcrypt/src/random.c ****                 /* Use native 8, 16, 32 or 64 copy instruction */
1429:..\acn-sdk-c\src\wolfSSL/wolfcrypt/src/random.c ****                 *((CUSTOM_RAND_TYPE*)&output[i]) = CUSTOM_RAND_GENERATE();
1430:..\acn-sdk-c\src\wolfSSL/wolfcrypt/src/random.c ****                 i += sizeof(CUSTOM_RAND_TYPE);
1431:..\acn-sdk-c\src\wolfSSL/wolfcrypt/src/random.c ****             }
1432:..\acn-sdk-c\src\wolfSSL/wolfcrypt/src/random.c ****         }
1433:..\acn-sdk-c\src\wolfSSL/wolfcrypt/src/random.c **** 
1434:..\acn-sdk-c\src\wolfSSL/wolfcrypt/src/random.c ****         return 0;
1435:..\acn-sdk-c\src\wolfSSL/wolfcrypt/src/random.c ****     }
ARM GAS  C:\Users\ddemidov\AppData\Local\Temp\ccBlgygZ.s 			page 54


1436:..\acn-sdk-c\src\wolfSSL/wolfcrypt/src/random.c **** #elif defined(_ARIS_)
1437:..\acn-sdk-c\src\wolfSSL/wolfcrypt/src/random.c ****     #warning "write a real random seed!!!!, just for testing now"
1438:..\acn-sdk-c\src\wolfSSL/wolfcrypt/src/random.c ****     int wc_GenerateSeed(OS_Seed* os, byte* output, word32 sz) {
1439:..\acn-sdk-c\src\wolfSSL/wolfcrypt/src/random.c ****         int i;
1440:..\acn-sdk-c\src\wolfSSL/wolfcrypt/src/random.c ****         for (i = 0; i < (int)sz; i++ )
1441:..\acn-sdk-c\src\wolfSSL/wolfcrypt/src/random.c ****             output[i] = i;
1442:..\acn-sdk-c\src\wolfSSL/wolfcrypt/src/random.c ****         return 0;
1443:..\acn-sdk-c\src\wolfSSL/wolfcrypt/src/random.c ****     }
1444:..\acn-sdk-c\src\wolfSSL/wolfcrypt/src/random.c **** #elif defined(__linux__)
1445:..\acn-sdk-c\src\wolfSSL/wolfcrypt/src/random.c ****     #warning "write a real random seed!!!!, just for testing now"
1446:..\acn-sdk-c\src\wolfSSL/wolfcrypt/src/random.c ****     int wc_GenerateSeed(OS_Seed* os, byte* output, word32 sz) {
1447:..\acn-sdk-c\src\wolfSSL/wolfcrypt/src/random.c ****         int i;
1448:..\acn-sdk-c\src\wolfSSL/wolfcrypt/src/random.c ****         for (i = 0; i < (int)sz; i++ )
1449:..\acn-sdk-c\src\wolfSSL/wolfcrypt/src/random.c ****             output[i] = i;
1450:..\acn-sdk-c\src\wolfSSL/wolfcrypt/src/random.c ****         return 0;
1451:..\acn-sdk-c\src\wolfSSL/wolfcrypt/src/random.c ****     }
1452:..\acn-sdk-c\src\wolfSSL/wolfcrypt/src/random.c ****     
1453:..\acn-sdk-c\src\wolfSSL/wolfcrypt/src/random.c **** #elif defined(__senseability__)
1454:..\acn-sdk-c\src\wolfSSL/wolfcrypt/src/random.c ****     #warning "write a real random seed!!!!, just for testing now"
1455:..\acn-sdk-c\src\wolfSSL/wolfcrypt/src/random.c ****     int wc_GenerateSeed(OS_Seed* os, byte* output, word32 sz) {
1456:..\acn-sdk-c\src\wolfSSL/wolfcrypt/src/random.c ****         int i;
1457:..\acn-sdk-c\src\wolfSSL/wolfcrypt/src/random.c ****         for (i = 0; i < (int)sz; i++ )
1458:..\acn-sdk-c\src\wolfSSL/wolfcrypt/src/random.c ****             output[i] = i;
 1239              		.loc 2 1458 0
 1240 0070 B254     		strb	r2, [r6, r2]
1457:..\acn-sdk-c\src\wolfSSL/wolfcrypt/src/random.c ****             output[i] = i;
 1241              		.loc 2 1457 0
 1242 0072 0132     		add	r2, r2, #1
 1243              	.LVL171:
 1244 0074 202A     		cmp	r2, #32
 1245 0076 FBD1     		bne	.L120
 1246              	.LBE83:
 1247              	.LBE82:
 547:..\acn-sdk-c\src\wolfSSL/wolfcrypt/src/random.c ****                                                               == DRBG_SUCCESS) {
 1248              		.loc 2 547 0 discriminator 1
 1249 0078 2068     		ldr	r0, [r4]
 1250              	.LVL172:
 1251 007a 311C     		mov	r1, r6
 1252 007c FFF7FEFF 		bl	Hash_DRBG_Reseed
 1253              	.LVL173:
 555:..\acn-sdk-c\src\wolfSSL/wolfcrypt/src/random.c **** 
 1254              		.loc 2 555 0 discriminator 1
 1255 0080 0225     		mov	r5, #2
 547:..\acn-sdk-c\src\wolfSSL/wolfcrypt/src/random.c ****                                                               == DRBG_SUCCESS) {
 1256              		.loc 2 547 0 discriminator 1
 1257 0082 021E     		sub	r2, r0, #0
 546:..\acn-sdk-c\src\wolfSSL/wolfcrypt/src/random.c ****                 Hash_DRBG_Reseed(rng->drbg, entropy, ENTROPY_SZ)
 1258              		.loc 2 546 0 discriminator 1
 1259 0084 0BD1     		bne	.L121
 550:..\acn-sdk-c\src\wolfSSL/wolfcrypt/src/random.c ****                 if (ret == DRBG_SUCCESS)
 1260              		.loc 2 550 0
 1261 0086 2068     		ldr	r0, [r4]
 1262 0088 111C     		mov	r1, r2
 1263 008a FFF7FEFF 		bl	Hash_DRBG_Generate
 1264              	.LVL174:
 1265 008e 051E     		sub	r5, r0, #0
 1266              	.LVL175:
ARM GAS  C:\Users\ddemidov\AppData\Local\Temp\ccBlgygZ.s 			page 55


 551:..\acn-sdk-c\src\wolfSSL/wolfcrypt/src/random.c ****                     ret = Hash_DRBG_Generate(rng->drbg, output, sz);
 1267              		.loc 2 551 0
 1268 0090 05D1     		bne	.L121
 552:..\acn-sdk-c\src\wolfSSL/wolfcrypt/src/random.c ****             }
 1269              		.loc 2 552 0
 1270 0092 2068     		ldr	r0, [r4]
 1271              	.LVL176:
 1272 0094 391C     		mov	r1, r7
 1273 0096 059A     		ldr	r2, [sp, #20]
 1274 0098 FFF7FEFF 		bl	Hash_DRBG_Generate
 1275              	.LVL177:
 1276 009c 051C     		mov	r5, r0
 1277              	.LVL178:
 1278              	.L121:
 557:..\acn-sdk-c\src\wolfSSL/wolfcrypt/src/random.c ****         }
 1279              		.loc 2 557 0 discriminator 1
 1280 009e 301C     		mov	r0, r6
 1281 00a0 2021     		mov	r1, #32
 1282 00a2 FFF7FEFF 		bl	ForceZero
 1283              	.LVL179:
 1284              	.L117:
 1285              	.LBE81:
 564:..\acn-sdk-c\src\wolfSSL/wolfcrypt/src/random.c ****     }
 1286              		.loc 2 564 0
 1287 00a6 0020     		mov	r0, #0
 563:..\acn-sdk-c\src\wolfSSL/wolfcrypt/src/random.c ****         ret = 0;
 1288              		.loc 2 563 0
 1289 00a8 8542     		cmp	r5, r0
 1290 00aa 09D0     		beq	.L116
 566:..\acn-sdk-c\src\wolfSSL/wolfcrypt/src/random.c ****         ret = DRBG_CONT_FIPS_E;
 1291              		.loc 2 566 0
 1292 00ac 042D     		cmp	r5, #4
 1293 00ae DBD0     		beq	.L122
 1294              	.LVL180:
 572:..\acn-sdk-c\src\wolfSSL/wolfcrypt/src/random.c ****     }
 1295              		.loc 2 572 0
 1296 00b0 0223     		mov	r3, #2
 571:..\acn-sdk-c\src\wolfSSL/wolfcrypt/src/random.c ****         rng->status = DRBG_FAILED;
 1297              		.loc 2 571 0
 1298 00b2 C738     		sub	r0, r0, #199
 572:..\acn-sdk-c\src\wolfSSL/wolfcrypt/src/random.c ****     }
 1299              		.loc 2 572 0
 1300 00b4 2372     		strb	r3, [r4, #8]
 1301 00b6 03E0     		b	.L116
 1302              	.LVL181:
 1303              	.L125:
 535:..\acn-sdk-c\src\wolfSSL/wolfcrypt/src/random.c **** 
 1304              		.loc 2 535 0
 1305 00b8 AD20     		mov	r0, #173
 1306              	.LVL182:
 1307 00ba 00E0     		b	.L135
 1308              	.LVL183:
 1309              	.L126:
 538:..\acn-sdk-c\src\wolfSSL/wolfcrypt/src/random.c **** 
 1310              		.loc 2 538 0
 1311 00bc C720     		mov	r0, #199
 1312              	.LVL184:
ARM GAS  C:\Users\ddemidov\AppData\Local\Temp\ccBlgygZ.s 			page 56


 1313              	.L135:
 1314 00be 4042     		neg	r0, r0
 1315              	.L116:
 576:..\acn-sdk-c\src\wolfSSL/wolfcrypt/src/random.c **** 
 1316              		.loc 2 576 0
 1317 00c0 27B0     		add	sp, sp, #156
 1318              		@ sp needed
 1319 00c2 F0BD     		pop	{r4, r5, r6, r7, pc}
 1320              	.L137:
 1321              		.align	2
 1322              	.L136:
 1323 00c4 00000000 		.word	.LANCHOR0
 1324              		.cfi_endproc
 1325              	.LFE21:
 1326              		.size	wc_RNG_GenerateBlock, .-wc_RNG_GenerateBlock
 1327              		.section	.text.wc_RNG_GenerateByte,"ax",%progbits
 1328              		.align	1
 1329              		.global	wc_RNG_GenerateByte
 1330              		.code	16
 1331              		.thumb_func
 1332              		.type	wc_RNG_GenerateByte, %function
 1333              	wc_RNG_GenerateByte:
 1334              	.LFB22:
 580:..\acn-sdk-c\src\wolfSSL/wolfcrypt/src/random.c ****     return wc_RNG_GenerateBlock(rng, b, 1);
 1335              		.loc 2 580 0
 1336              		.cfi_startproc
 1337              	.LVL185:
 1338 0000 08B5     		push	{r3, lr}
 1339              		.cfi_def_cfa_offset 8
 1340              		.cfi_offset 3, -8
 1341              		.cfi_offset 14, -4
 581:..\acn-sdk-c\src\wolfSSL/wolfcrypt/src/random.c **** }
 1342              		.loc 2 581 0
 1343 0002 0122     		mov	r2, #1
 1344 0004 FFF7FEFF 		bl	wc_RNG_GenerateBlock
 1345              	.LVL186:
 582:..\acn-sdk-c\src\wolfSSL/wolfcrypt/src/random.c **** 
 1346              		.loc 2 582 0
 1347              		@ sp needed
 1348 0008 08BD     		pop	{r3, pc}
 1349              		.cfi_endproc
 1350              	.LFE22:
 1351              		.size	wc_RNG_GenerateByte, .-wc_RNG_GenerateByte
 1352              		.section	.text.wc_InitRng,"ax",%progbits
 1353              		.align	1
 1354              		.global	wc_InitRng
 1355              		.code	16
 1356              		.thumb_func
 1357              		.type	wc_InitRng, %function
 1358              	wc_InitRng:
 1359              	.LFB20:
 478:..\acn-sdk-c\src\wolfSSL/wolfcrypt/src/random.c ****     int ret = BAD_FUNC_ARG;
 1360              		.loc 2 478 0
 1361              		.cfi_startproc
 1362              	.LVL187:
 1363 0000 70B5     		push	{r4, r5, r6, lr}
 1364              		.cfi_def_cfa_offset 16
ARM GAS  C:\Users\ddemidov\AppData\Local\Temp\ccBlgygZ.s 			page 57


 1365              		.cfi_offset 4, -16
 1366              		.cfi_offset 5, -12
 1367              		.cfi_offset 6, -8
 1368              		.cfi_offset 14, -4
 1369 0002 A4B0     		sub	sp, sp, #144
 1370              		.cfi_def_cfa_offset 160
 481:..\acn-sdk-c\src\wolfSSL/wolfcrypt/src/random.c ****         if (wc_RNG_HealthTestLocal(0) == 0) {
 1371              		.loc 2 481 0
 1372 0004 0028     		cmp	r0, #0
 1373 0006 4BD0     		beq	.L149
 1374              	.LBB91:
 1375              	.LBB92:
 714:..\acn-sdk-c\src\wolfSSL/wolfcrypt/src/random.c ****                                 NULL, 0,
 1376              		.loc 2 714 0
 1377 0008 0023     		mov	r3, #0
 1378 000a 8022     		mov	r2, #128
 1379 000c 2749     		ldr	r1, .L157
 1380 000e 04AE     		add	r6, sp, #16
 1381 0010 051C     		mov	r5, r0
 1382              	.LVL188:
 1383 0012 0292     		str	r2, [sp, #8]
 1384 0014 0093     		str	r3, [sp]
 1385 0016 0196     		str	r6, [sp, #4]
 1386 0018 181C     		mov	r0, r3
 1387              	.LVL189:
 1388 001a 5031     		add	r1, r1, #80
 1389 001c 503A     		sub	r2, r2, #80
 1390 001e FFF7FEFF 		bl	wc_RNG_HealthTest
 1391              	.LVL190:
 717:..\acn-sdk-c\src\wolfSSL/wolfcrypt/src/random.c ****             if (ConstantCompare(check, outputB, sizeof(check)) != 0)
 1392              		.loc 2 717 0
 1393 0022 0028     		cmp	r0, #0
 1394 0024 0ED1     		bne	.L147
 1395 0026 021C     		mov	r2, r0
 1396 0028 031C     		mov	r3, r0
 1397              	.LVL191:
 1398              	.L142:
 1399              	.LBB93:
 1400              	.LBB94:
 1401              		.loc 1 194 0
 1402 002a 2149     		ldr	r1, .L157+4
 1403 002c 585C     		ldrb	r0, [r3, r1]
 1404 002e F15C     		ldrb	r1, [r6, r3]
 193:..\acn-sdk-c\src\wolfSSL/wolfcrypt/src/misc.c ****         compareSum |= a[i] ^ b[i];
 1405              		.loc 1 193 0
 1406 0030 0133     		add	r3, r3, #1
 1407              	.LVL192:
 1408              		.loc 1 194 0
 1409 0032 4140     		eor	r1, r0
 1410 0034 0A43     		orr	r2, r1
 1411              	.LVL193:
 193:..\acn-sdk-c\src\wolfSSL/wolfcrypt/src/misc.c ****         compareSum |= a[i] ^ b[i];
 1412              		.loc 1 193 0
 1413 0036 802B     		cmp	r3, #128
 1414 0038 F7D1     		bne	.L142
 1415              	.LBE94:
 1416              	.LBE93:
ARM GAS  C:\Users\ddemidov\AppData\Local\Temp\ccBlgygZ.s 			page 58


 718:..\acn-sdk-c\src\wolfSSL/wolfcrypt/src/random.c ****                 ret = -1;
 1417              		.loc 2 718 0
 1418 003a 541E     		sub	r4, r2, #1
 1419 003c A241     		sbc	r2, r2, r4
 1420              	.LVL194:
 1421 003e 5442     		neg	r4, r2
 1422              	.LVL195:
 1423              	.LBE92:
 1424              	.LBE91:
 482:..\acn-sdk-c\src\wolfSSL/wolfcrypt/src/random.c ****             byte entropy[ENTROPY_NONCE_SZ];
 1425              		.loc 2 482 0
 1426 0040 002C     		cmp	r4, #0
 1427 0042 03D0     		beq	.L143
 1428              	.LVL196:
 1429              	.L147:
 513:..\acn-sdk-c\src\wolfSSL/wolfcrypt/src/random.c ****             ret = DRBG_CONT_FIPS_E;
 1430              		.loc 2 513 0
 1431 0044 0323     		mov	r3, #3
 514:..\acn-sdk-c\src\wolfSSL/wolfcrypt/src/random.c ****         }
 1432              		.loc 2 514 0
 1433 0046 D124     		mov	r4, #209
 513:..\acn-sdk-c\src\wolfSSL/wolfcrypt/src/random.c ****             ret = DRBG_CONT_FIPS_E;
 1434              		.loc 2 513 0
 1435 0048 2B72     		strb	r3, [r5, #8]
 1436              	.LVL197:
 1437 004a 2AE0     		b	.L155
 1438              	.LVL198:
 1439              	.L143:
 1440              	.LBB95:
 486:..\acn-sdk-c\src\wolfSSL/wolfcrypt/src/random.c ****             if (rng->drbg == NULL) {
 1441              		.loc 2 486 0
 1442 004c 7820     		mov	r0, #120
 1443 004e FFF7FEFF 		bl	wolfSSL_Malloc
 1444              	.LVL199:
 485:..\acn-sdk-c\src\wolfSSL/wolfcrypt/src/random.c ****                     (struct DRBG*)XMALLOC(sizeof(DRBG), NULL, DYNAMIC_TYPE_RNG);
 1445              		.loc 2 485 0
 1446 0052 2860     		str	r0, [r5]
 487:..\acn-sdk-c\src\wolfSSL/wolfcrypt/src/random.c ****                 ret = MEMORY_E;
 1447              		.loc 2 487 0
 1448 0054 0028     		cmp	r0, #0
 1449 0056 10D0     		beq	.L150
 1450 0058 221C     		mov	r2, r4
 1451              	.L145:
 1452              	.LVL200:
 1453              	.LBB96:
 1454              	.LBB97:
 1455              		.loc 2 1458 0
 1456 005a B254     		strb	r2, [r6, r2]
1457:..\acn-sdk-c\src\wolfSSL/wolfcrypt/src/random.c ****             output[i] = i;
 1457              		.loc 2 1457 0
 1458 005c 0132     		add	r2, r2, #1
 1459              	.LVL201:
 1460 005e 302A     		cmp	r2, #48
 1461 0060 FBD1     		bne	.L145
 1462              	.LBE97:
 1463              	.LBE96:
 495:..\acn-sdk-c\src\wolfSSL/wolfcrypt/src/random.c ****                           entropy, ENTROPY_NONCE_SZ, NULL, 0) == DRBG_SUCCESS) {
ARM GAS  C:\Users\ddemidov\AppData\Local\Temp\ccBlgygZ.s 			page 59


 1464              		.loc 2 495 0
 1465 0062 311C     		mov	r1, r6
 1466 0064 FFF7FEFF 		bl	Hash_DRBG_Instantiate.constprop.4
 1467              	.LVL202:
 501:..\acn-sdk-c\src\wolfSSL/wolfcrypt/src/random.c **** 
 1468              		.loc 2 501 0
 1469 0068 0224     		mov	r4, #2
 495:..\acn-sdk-c\src\wolfSSL/wolfcrypt/src/random.c ****                           entropy, ENTROPY_NONCE_SZ, NULL, 0) == DRBG_SUCCESS) {
 1470              		.loc 2 495 0
 1471 006a 021E     		sub	r2, r0, #0
 494:..\acn-sdk-c\src\wolfSSL/wolfcrypt/src/random.c ****                      Hash_DRBG_Instantiate(rng->drbg,
 1472              		.loc 2 494 0
 1473 006c 07D1     		bne	.L144
 498:..\acn-sdk-c\src\wolfSSL/wolfcrypt/src/random.c ****             }
 1474              		.loc 2 498 0
 1475 006e 2868     		ldr	r0, [r5]
 1476 0070 111C     		mov	r1, r2
 1477 0072 FFF7FEFF 		bl	Hash_DRBG_Generate
 1478              	.LVL203:
 1479 0076 041C     		mov	r4, r0
 1480              	.LVL204:
 1481 0078 01E0     		b	.L144
 1482              	.LVL205:
 1483              	.L150:
 488:..\acn-sdk-c\src\wolfSSL/wolfcrypt/src/random.c ****             }
 1484              		.loc 2 488 0
 1485 007a 7D24     		mov	r4, #125
 1486 007c 6442     		neg	r4, r4
 1487              	.LVL206:
 1488              	.L144:
 503:..\acn-sdk-c\src\wolfSSL/wolfcrypt/src/random.c ****         }
 1489              		.loc 2 503 0
 1490 007e 301C     		mov	r0, r6
 1491 0080 3021     		mov	r1, #48
 1492 0082 FFF7FEFF 		bl	ForceZero
 1493              	.LVL207:
 1494              	.LBE95:
 509:..\acn-sdk-c\src\wolfSSL/wolfcrypt/src/random.c ****             ret = 0;
 1495              		.loc 2 509 0
 1496 0086 0123     		mov	r3, #1
 508:..\acn-sdk-c\src\wolfSSL/wolfcrypt/src/random.c ****             rng->status = DRBG_OK;
 1497              		.loc 2 508 0
 1498 0088 002C     		cmp	r4, #0
 1499 008a 07D0     		beq	.L156
 512:..\acn-sdk-c\src\wolfSSL/wolfcrypt/src/random.c ****             rng->status = DRBG_CONT_FAILED;
 1500              		.loc 2 512 0
 1501 008c 042C     		cmp	r4, #4
 1502 008e D9D0     		beq	.L147
 521:..\acn-sdk-c\src\wolfSSL/wolfcrypt/src/random.c ****         }
 1503              		.loc 2 521 0
 1504 0090 0223     		mov	r3, #2
 516:..\acn-sdk-c\src\wolfSSL/wolfcrypt/src/random.c ****             rng->status = DRBG_FAILED;
 1505              		.loc 2 516 0
 1506 0092 022C     		cmp	r4, #2
 1507 0094 02D1     		bne	.L156
 1508              	.LVL208:
 517:..\acn-sdk-c\src\wolfSSL/wolfcrypt/src/random.c ****             ret = RNG_FAILURE_E;
ARM GAS  C:\Users\ddemidov\AppData\Local\Temp\ccBlgygZ.s 			page 60


 1509              		.loc 2 517 0
 1510 0096 2C72     		strb	r4, [r5, #8]
 1511              	.LVL209:
 518:..\acn-sdk-c\src\wolfSSL/wolfcrypt/src/random.c ****         }
 1512              		.loc 2 518 0
 1513 0098 C93C     		sub	r4, r4, #201
 1514 009a 03E0     		b	.L140
 1515              	.LVL210:
 1516              	.L156:
 521:..\acn-sdk-c\src\wolfSSL/wolfcrypt/src/random.c ****         }
 1517              		.loc 2 521 0
 1518 009c 2B72     		strb	r3, [r5, #8]
 1519 009e 01E0     		b	.L140
 1520              	.LVL211:
 1521              	.L149:
 479:..\acn-sdk-c\src\wolfSSL/wolfcrypt/src/random.c **** 
 1522              		.loc 2 479 0
 1523 00a0 AD24     		mov	r4, #173
 1524              	.LVL212:
 1525              	.L155:
 1526 00a2 6442     		neg	r4, r4
 1527              	.L140:
 1528              	.LVL213:
 526:..\acn-sdk-c\src\wolfSSL/wolfcrypt/src/random.c **** 
 1529              		.loc 2 526 0
 1530 00a4 201C     		mov	r0, r4
 1531 00a6 24B0     		add	sp, sp, #144
 1532              		@ sp needed
 1533              	.LVL214:
 1534 00a8 70BD     		pop	{r4, r5, r6, pc}
 1535              	.L158:
 1536 00aa C046     		.align	2
 1537              	.L157:
 1538 00ac 80000000 		.word	.LANCHOR1
 1539 00b0 00010000 		.word	.LANCHOR2
 1540              		.cfi_endproc
 1541              	.LFE20:
 1542              		.size	wc_InitRng, .-wc_InitRng
 1543              		.section	.text.wc_GenerateSeed,"ax",%progbits
 1544              		.align	1
 1545              		.global	wc_GenerateSeed
 1546              		.code	16
 1547              		.thumb_func
 1548              		.type	wc_GenerateSeed, %function
 1549              	wc_GenerateSeed:
 1550              	.LFB26:
1455:..\acn-sdk-c\src\wolfSSL/wolfcrypt/src/random.c ****         int i;
 1551              		.loc 2 1455 0
 1552              		.cfi_startproc
 1553              	.LVL215:
1457:..\acn-sdk-c\src\wolfSSL/wolfcrypt/src/random.c ****             output[i] = i;
 1554              		.loc 2 1457 0
 1555 0000 0023     		mov	r3, #0
 1556              	.LVL216:
 1557              	.L160:
1457:..\acn-sdk-c\src\wolfSSL/wolfcrypt/src/random.c ****             output[i] = i;
 1558              		.loc 2 1457 0 is_stmt 0 discriminator 1
ARM GAS  C:\Users\ddemidov\AppData\Local\Temp\ccBlgygZ.s 			page 61


 1559 0002 9342     		cmp	r3, r2
 1560 0004 02DA     		bge	.L162
 1561              		.loc 2 1458 0 is_stmt 1 discriminator 3
 1562 0006 CB54     		strb	r3, [r1, r3]
1457:..\acn-sdk-c\src\wolfSSL/wolfcrypt/src/random.c ****             output[i] = i;
 1563              		.loc 2 1457 0 discriminator 3
 1564 0008 0133     		add	r3, r3, #1
 1565              	.LVL217:
 1566 000a FAE7     		b	.L160
 1567              	.L162:
1459:..\acn-sdk-c\src\wolfSSL/wolfcrypt/src/random.c ****         return 0;
1460:..\acn-sdk-c\src\wolfSSL/wolfcrypt/src/random.c ****     }
 1568              		.loc 2 1460 0
 1569 000c 0020     		mov	r0, #0
 1570              	.LVL218:
 1571              		@ sp needed
 1572 000e 7047     		bx	lr
 1573              		.cfi_endproc
 1574              	.LFE26:
 1575              		.size	wc_GenerateSeed, .-wc_GenerateSeed
 1576              		.global	outputB
 1577              		.global	entropyB
 1578              		.global	outputA
 1579              		.global	reseedEntropyA
 1580              		.global	entropyA
 1581              		.section	.rodata
 1582              		.set	.LANCHOR0,. + 0
 1583              		.set	.LANCHOR1,. + 128
 1584              		.set	.LANCHOR2,. + 256
 1585              		.type	entropyA, %object
 1586              		.size	entropyA, 48
 1587              	entropyA:
 1588 0000 63       		.byte	99
 1589 0001 36       		.byte	54
 1590 0002 33       		.byte	51
 1591 0003 77       		.byte	119
 1592 0004 E4       		.byte	-28
 1593 0005 1E       		.byte	30
 1594 0006 86       		.byte	-122
 1595 0007 46       		.byte	70
 1596 0008 8D       		.byte	-115
 1597 0009 EB       		.byte	-21
 1598 000a 0A       		.byte	10
 1599 000b B4       		.byte	-76
 1600 000c A8       		.byte	-88
 1601 000d ED       		.byte	-19
 1602 000e 68       		.byte	104
 1603 000f 3F       		.byte	63
 1604 0010 6A       		.byte	106
 1605 0011 13       		.byte	19
 1606 0012 4E       		.byte	78
 1607 0013 47       		.byte	71
 1608 0014 E0       		.byte	-32
 1609 0015 14       		.byte	20
 1610 0016 C7       		.byte	-57
 1611 0017 00       		.byte	0
 1612 0018 45       		.byte	69
ARM GAS  C:\Users\ddemidov\AppData\Local\Temp\ccBlgygZ.s 			page 62


 1613 0019 4E       		.byte	78
 1614 001a 81       		.byte	-127
 1615 001b E9       		.byte	-23
 1616 001c 53       		.byte	83
 1617 001d 58       		.byte	88
 1618 001e A5       		.byte	-91
 1619 001f 69       		.byte	105
 1620 0020 80       		.byte	-128
 1621 0021 8A       		.byte	-118
 1622 0022 A3       		.byte	-93
 1623 0023 8F       		.byte	-113
 1624 0024 2A       		.byte	42
 1625 0025 72       		.byte	114
 1626 0026 A6       		.byte	-90
 1627 0027 23       		.byte	35
 1628 0028 59       		.byte	89
 1629 0029 91       		.byte	-111
 1630 002a 5A       		.byte	90
 1631 002b 9F       		.byte	-97
 1632 002c 8A       		.byte	-118
 1633 002d 04       		.byte	4
 1634 002e CA       		.byte	-54
 1635 002f 68       		.byte	104
 1636              		.type	reseedEntropyA, %object
 1637              		.size	reseedEntropyA, 32
 1638              	reseedEntropyA:
 1639 0030 E6       		.byte	-26
 1640 0031 2B       		.byte	43
 1641 0032 8A       		.byte	-118
 1642 0033 8E       		.byte	-114
 1643 0034 E8       		.byte	-24
 1644 0035 F1       		.byte	-15
 1645 0036 41       		.byte	65
 1646 0037 B6       		.byte	-74
 1647 0038 98       		.byte	-104
 1648 0039 05       		.byte	5
 1649 003a 66       		.byte	102
 1650 003b E3       		.byte	-29
 1651 003c BF       		.byte	-65
 1652 003d E3       		.byte	-29
 1653 003e C0       		.byte	-64
 1654 003f 49       		.byte	73
 1655 0040 03       		.byte	3
 1656 0041 DA       		.byte	-38
 1657 0042 D4       		.byte	-44
 1658 0043 AC       		.byte	-84
 1659 0044 2C       		.byte	44
 1660 0045 DF       		.byte	-33
 1661 0046 9F       		.byte	-97
 1662 0047 22       		.byte	34
 1663 0048 80       		.byte	-128
 1664 0049 01       		.byte	1
 1665 004a 0A       		.byte	10
 1666 004b 67       		.byte	103
 1667 004c 39       		.byte	57
 1668 004d BC       		.byte	-68
 1669 004e 83       		.byte	-125
ARM GAS  C:\Users\ddemidov\AppData\Local\Temp\ccBlgygZ.s 			page 63


 1670 004f D3       		.byte	-45
 1671              		.type	outputA, %object
 1672              		.size	outputA, 128
 1673              	outputA:
 1674 0050 04       		.byte	4
 1675 0051 EE       		.byte	-18
 1676 0052 C6       		.byte	-58
 1677 0053 3B       		.byte	59
 1678 0054 B2       		.byte	-78
 1679 0055 31       		.byte	49
 1680 0056 DF       		.byte	-33
 1681 0057 2C       		.byte	44
 1682 0058 63       		.byte	99
 1683 0059 0A       		.byte	10
 1684 005a 1A       		.byte	26
 1685 005b FB       		.byte	-5
 1686 005c E7       		.byte	-25
 1687 005d 24       		.byte	36
 1688 005e 94       		.byte	-108
 1689 005f 9D       		.byte	-99
 1690 0060 00       		.byte	0
 1691 0061 5A       		.byte	90
 1692 0062 58       		.byte	88
 1693 0063 78       		.byte	120
 1694 0064 51       		.byte	81
 1695 0065 E1       		.byte	-31
 1696 0066 AA       		.byte	-86
 1697 0067 79       		.byte	121
 1698 0068 5E       		.byte	94
 1699 0069 47       		.byte	71
 1700 006a 73       		.byte	115
 1701 006b 47       		.byte	71
 1702 006c C8       		.byte	-56
 1703 006d B0       		.byte	-80
 1704 006e 56       		.byte	86
 1705 006f 62       		.byte	98
 1706 0070 1C       		.byte	28
 1707 0071 18       		.byte	24
 1708 0072 BD       		.byte	-67
 1709 0073 DC       		.byte	-36
 1710 0074 DD       		.byte	-35
 1711 0075 8D       		.byte	-115
 1712 0076 99       		.byte	-103
 1713 0077 FC       		.byte	-4
 1714 0078 5F       		.byte	95
 1715 0079 C2       		.byte	-62
 1716 007a B9       		.byte	-71
 1717 007b 20       		.byte	32
 1718 007c 53       		.byte	83
 1719 007d D8       		.byte	-40
 1720 007e CF       		.byte	-49
 1721 007f AC       		.byte	-84
 1722 0080 FB       		.byte	-5
 1723 0081 0B       		.byte	11
 1724 0082 B8       		.byte	-72
 1725 0083 83       		.byte	-125
 1726 0084 12       		.byte	18
ARM GAS  C:\Users\ddemidov\AppData\Local\Temp\ccBlgygZ.s 			page 64


 1727 0085 05       		.byte	5
 1728 0086 FA       		.byte	-6
 1729 0087 D1       		.byte	-47
 1730 0088 DD       		.byte	-35
 1731 0089 D6       		.byte	-42
 1732 008a C0       		.byte	-64
 1733 008b 71       		.byte	113
 1734 008c 31       		.byte	49
 1735 008d 8A       		.byte	-118
 1736 008e 60       		.byte	96
 1737 008f 18       		.byte	24
 1738 0090 F0       		.byte	-16
 1739 0091 3B       		.byte	59
 1740 0092 73       		.byte	115
 1741 0093 F5       		.byte	-11
 1742 0094 ED       		.byte	-19
 1743 0095 E4       		.byte	-28
 1744 0096 D4       		.byte	-44
 1745 0097 D0       		.byte	-48
 1746 0098 71       		.byte	113
 1747 0099 F9       		.byte	-7
 1748 009a DE       		.byte	-34
 1749 009b 03       		.byte	3
 1750 009c FD       		.byte	-3
 1751 009d 7A       		.byte	122
 1752 009e EA       		.byte	-22
 1753 009f 10       		.byte	16
 1754 00a0 5D       		.byte	93
 1755 00a1 92       		.byte	-110
 1756 00a2 99       		.byte	-103
 1757 00a3 B8       		.byte	-72
 1758 00a4 AF       		.byte	-81
 1759 00a5 99       		.byte	-103
 1760 00a6 AA       		.byte	-86
 1761 00a7 07       		.byte	7
 1762 00a8 5B       		.byte	91
 1763 00a9 DB       		.byte	-37
 1764 00aa 4D       		.byte	77
 1765 00ab B9       		.byte	-71
 1766 00ac AA       		.byte	-86
 1767 00ad 28       		.byte	40
 1768 00ae C1       		.byte	-63
 1769 00af 8D       		.byte	-115
 1770 00b0 17       		.byte	23
 1771 00b1 4B       		.byte	75
 1772 00b2 56       		.byte	86
 1773 00b3 EE       		.byte	-18
 1774 00b4 2A       		.byte	42
 1775 00b5 01       		.byte	1
 1776 00b6 4D       		.byte	77
 1777 00b7 09       		.byte	9
 1778 00b8 88       		.byte	-120
 1779 00b9 96       		.byte	-106
 1780 00ba FF       		.byte	-1
 1781 00bb 22       		.byte	34
 1782 00bc 82       		.byte	-126
 1783 00bd C9       		.byte	-55
ARM GAS  C:\Users\ddemidov\AppData\Local\Temp\ccBlgygZ.s 			page 65


 1784 00be 55       		.byte	85
 1785 00bf A8       		.byte	-88
 1786 00c0 19       		.byte	25
 1787 00c1 69       		.byte	105
 1788 00c2 E0       		.byte	-32
 1789 00c3 69       		.byte	105
 1790 00c4 FA       		.byte	-6
 1791 00c5 8C       		.byte	-116
 1792 00c6 E0       		.byte	-32
 1793 00c7 07       		.byte	7
 1794 00c8 A1       		.byte	-95
 1795 00c9 80       		.byte	-128
 1796 00ca 18       		.byte	24
 1797 00cb 3A       		.byte	58
 1798 00cc 07       		.byte	7
 1799 00cd DF       		.byte	-33
 1800 00ce AE       		.byte	-82
 1801 00cf 17       		.byte	23
 1802              		.type	entropyB, %object
 1803              		.size	entropyB, 48
 1804              	entropyB:
 1805 00d0 A6       		.byte	-90
 1806 00d1 5A       		.byte	90
 1807 00d2 D0       		.byte	-48
 1808 00d3 F3       		.byte	-13
 1809 00d4 45       		.byte	69
 1810 00d5 DB       		.byte	-37
 1811 00d6 4E       		.byte	78
 1812 00d7 0E       		.byte	14
 1813 00d8 FF       		.byte	-1
 1814 00d9 E8       		.byte	-24
 1815 00da 75       		.byte	117
 1816 00db C3       		.byte	-61
 1817 00dc A2       		.byte	-94
 1818 00dd E7       		.byte	-25
 1819 00de 1F       		.byte	31
 1820 00df 42       		.byte	66
 1821 00e0 C7       		.byte	-57
 1822 00e1 12       		.byte	18
 1823 00e2 9D       		.byte	-99
 1824 00e3 62       		.byte	98
 1825 00e4 0F       		.byte	15
 1826 00e5 F5       		.byte	-11
 1827 00e6 C1       		.byte	-63
 1828 00e7 19       		.byte	25
 1829 00e8 A9       		.byte	-87
 1830 00e9 EF       		.byte	-17
 1831 00ea 55       		.byte	85
 1832 00eb F0       		.byte	-16
 1833 00ec 51       		.byte	81
 1834 00ed 85       		.byte	-123
 1835 00ee E0       		.byte	-32
 1836 00ef FB       		.byte	-5
 1837 00f0 85       		.byte	-123
 1838 00f1 81       		.byte	-127
 1839 00f2 F9       		.byte	-7
 1840 00f3 31       		.byte	49
ARM GAS  C:\Users\ddemidov\AppData\Local\Temp\ccBlgygZ.s 			page 66


 1841 00f4 75       		.byte	117
 1842 00f5 17       		.byte	23
 1843 00f6 27       		.byte	39
 1844 00f7 6E       		.byte	110
 1845 00f8 06       		.byte	6
 1846 00f9 E9       		.byte	-23
 1847 00fa 60       		.byte	96
 1848 00fb 7D       		.byte	125
 1849 00fc DB       		.byte	-37
 1850 00fd CB       		.byte	-53
 1851 00fe CC       		.byte	-52
 1852 00ff 2E       		.byte	46
 1853              		.type	outputB, %object
 1854              		.size	outputB, 128
 1855              	outputB:
 1856 0100 D3       		.byte	-45
 1857 0101 E1       		.byte	-31
 1858 0102 60       		.byte	96
 1859 0103 C3       		.byte	-61
 1860 0104 5B       		.byte	91
 1861 0105 99       		.byte	-103
 1862 0106 F3       		.byte	-13
 1863 0107 40       		.byte	64
 1864 0108 B2       		.byte	-78
 1865 0109 62       		.byte	98
 1866 010a 82       		.byte	-126
 1867 010b 64       		.byte	100
 1868 010c D1       		.byte	-47
 1869 010d 75       		.byte	117
 1870 010e 10       		.byte	16
 1871 010f 60       		.byte	96
 1872 0110 E0       		.byte	-32
 1873 0111 04       		.byte	4
 1874 0112 5D       		.byte	93
 1875 0113 A3       		.byte	-93
 1876 0114 83       		.byte	-125
 1877 0115 FF       		.byte	-1
 1878 0116 57       		.byte	87
 1879 0117 A5       		.byte	-91
 1880 0118 7D       		.byte	125
 1881 0119 73       		.byte	115
 1882 011a A6       		.byte	-90
 1883 011b 73       		.byte	115
 1884 011c D2       		.byte	-46
 1885 011d B8       		.byte	-72
 1886 011e D8       		.byte	-40
 1887 011f 0D       		.byte	13
 1888 0120 AA       		.byte	-86
 1889 0121 F6       		.byte	-10
 1890 0122 A6       		.byte	-90
 1891 0123 C3       		.byte	-61
 1892 0124 5A       		.byte	90
 1893 0125 91       		.byte	-111
 1894 0126 BB       		.byte	-69
 1895 0127 45       		.byte	69
 1896 0128 79       		.byte	121
 1897 0129 D7       		.byte	-41
ARM GAS  C:\Users\ddemidov\AppData\Local\Temp\ccBlgygZ.s 			page 67


 1898 012a 3F       		.byte	63
 1899 012b D0       		.byte	-48
 1900 012c C8       		.byte	-56
 1901 012d FE       		.byte	-2
 1902 012e D1       		.byte	-47
 1903 012f 11       		.byte	17
 1904 0130 B0       		.byte	-80
 1905 0131 39       		.byte	57
 1906 0132 13       		.byte	19
 1907 0133 06       		.byte	6
 1908 0134 82       		.byte	-126
 1909 0135 8A       		.byte	-118
 1910 0136 DF       		.byte	-33
 1911 0137 ED       		.byte	-19
 1912 0138 52       		.byte	82
 1913 0139 8F       		.byte	-113
 1914 013a 01       		.byte	1
 1915 013b 81       		.byte	-127
 1916 013c 21       		.byte	33
 1917 013d B3       		.byte	-77
 1918 013e FE       		.byte	-2
 1919 013f BD       		.byte	-67
 1920 0140 C3       		.byte	-61
 1921 0141 43       		.byte	67
 1922 0142 E7       		.byte	-25
 1923 0143 97       		.byte	-105
 1924 0144 B8       		.byte	-72
 1925 0145 7D       		.byte	125
 1926 0146 BB       		.byte	-69
 1927 0147 63       		.byte	99
 1928 0148 DB       		.byte	-37
 1929 0149 13       		.byte	19
 1930 014a 33       		.byte	51
 1931 014b DE       		.byte	-34
 1932 014c D9       		.byte	-39
 1933 014d D1       		.byte	-47
 1934 014e EC       		.byte	-20
 1935 014f E1       		.byte	-31
 1936 0150 77       		.byte	119
 1937 0151 CF       		.byte	-49
 1938 0152 A6       		.byte	-90
 1939 0153 B7       		.byte	-73
 1940 0154 1F       		.byte	31
 1941 0155 E8       		.byte	-24
 1942 0156 AB       		.byte	-85
 1943 0157 1D       		.byte	29
 1944 0158 A4       		.byte	-92
 1945 0159 66       		.byte	102
 1946 015a 24       		.byte	36
 1947 015b ED       		.byte	-19
 1948 015c 64       		.byte	100
 1949 015d 15       		.byte	21
 1950 015e E5       		.byte	-27
 1951 015f 1C       		.byte	28
 1952 0160 CD       		.byte	-51
 1953 0161 E2       		.byte	-30
 1954 0162 C7       		.byte	-57
ARM GAS  C:\Users\ddemidov\AppData\Local\Temp\ccBlgygZ.s 			page 68


 1955 0163 CA       		.byte	-54
 1956 0164 86       		.byte	-122
 1957 0165 E2       		.byte	-30
 1958 0166 83       		.byte	-125
 1959 0167 99       		.byte	-103
 1960 0168 0E       		.byte	14
 1961 0169 EA       		.byte	-22
 1962 016a EB       		.byte	-21
 1963 016b 91       		.byte	-111
 1964 016c 12       		.byte	18
 1965 016d 04       		.byte	4
 1966 016e 15       		.byte	21
 1967 016f 52       		.byte	82
 1968 0170 8B       		.byte	-117
 1969 0171 22       		.byte	34
 1970 0172 95       		.byte	-107
 1971 0173 91       		.byte	-111
 1972 0174 02       		.byte	2
 1973 0175 81       		.byte	-127
 1974 0176 B0       		.byte	-80
 1975 0177 2D       		.byte	45
 1976 0178 D4       		.byte	-44
 1977 0179 31       		.byte	49
 1978 017a F4       		.byte	-12
 1979 017b C9       		.byte	-55
 1980 017c F7       		.byte	-9
 1981 017d 04       		.byte	4
 1982 017e 27       		.byte	39
 1983 017f DF       		.byte	-33
 1984              		.text
 1985              	.Letext0:
 1986              		.file 3 "..\\acn-sdk-c\\src\\wolfSSL/wolfssl/wolfcrypt/types.h"
 1987              		.file 4 "c:\\program files (x86)\\cypress\\psoc creator\\3.3\\psoc creator\\import\\gnu\\arm\\4.9.
 1988              		.file 5 "..\\acn-sdk-c\\src\\wolfSSL/wolfssl/wolfcrypt/sha256.h"
 1989              		.file 6 "..\\acn-sdk-c\\src\\wolfSSL/wolfssl/wolfcrypt/random.h"
 1990              		.file 7 "..\\acn-sdk-c\\src\\wolfSSL/wolfssl/wolfcrypt/error-crypt.h"
 1991              		.file 8 "..\\acn-sdk-c\\src\\wolfSSL/wolfssl/wolfcrypt/memory.h"