ARM GAS  C:\Users\ddemidov\AppData\Local\Temp\ccBlgygZ.s 			page 1


   1              		.cpu cortex-m0
   2              		.fpu softvfp
   3              		.eabi_attribute 20, 1
   4              		.eabi_attribute 21, 1
   5              		.eabi_attribute 23, 3
   6              		.eabi_attribute 24, 1
   7              		.eabi_attribute 25, 1
   8              		.eabi_attribute 26, 1
   9              		.eabi_attribute 30, 4
  10              		.eabi_attribute 34, 0
  11              		.eabi_attribute 18, 4
  12              		.code	16
  13              		.file	"random.c"
  14              		.text
  15              	.Ltext0:
  16              		.cfi_sections	.debug_frame
  17              		.section	.text.ForceZero,"ax",%progbits
  18              		.align	1
  19              		.code	16
  20              		.thumb_func
  21              		.type	ForceZero, %function
  22              	ForceZero:
  23              	.LFB10:
  24              		.file 1 "..\\acn-sdk-c\\src\\wolfSSL/wolfcrypt/src/misc.c"
   1:..\acn-sdk-c\src\wolfSSL/wolfcrypt/src/misc.c **** /* misc.c
   2:..\acn-sdk-c\src\wolfSSL/wolfcrypt/src/misc.c ****  *
   3:..\acn-sdk-c\src\wolfSSL/wolfcrypt/src/misc.c ****  * Copyright (C) 2006-2016 wolfSSL Inc.
   4:..\acn-sdk-c\src\wolfSSL/wolfcrypt/src/misc.c ****  *
   5:..\acn-sdk-c\src\wolfSSL/wolfcrypt/src/misc.c ****  * This file is part of wolfSSL.
   6:..\acn-sdk-c\src\wolfSSL/wolfcrypt/src/misc.c ****  *
   7:..\acn-sdk-c\src\wolfSSL/wolfcrypt/src/misc.c ****  * wolfSSL is free software; you can redistribute it and/or modify
   8:..\acn-sdk-c\src\wolfSSL/wolfcrypt/src/misc.c ****  * it under the terms of the GNU General Public License as published by
   9:..\acn-sdk-c\src\wolfSSL/wolfcrypt/src/misc.c ****  * the Free Software Foundation; either version 2 of the License, or
  10:..\acn-sdk-c\src\wolfSSL/wolfcrypt/src/misc.c ****  * (at your option) any later version.
  11:..\acn-sdk-c\src\wolfSSL/wolfcrypt/src/misc.c ****  *
  12:..\acn-sdk-c\src\wolfSSL/wolfcrypt/src/misc.c ****  * wolfSSL is distributed in the hope that it will be useful,
  13:..\acn-sdk-c\src\wolfSSL/wolfcrypt/src/misc.c ****  * but WITHOUT ANY WARRANTY; without even the implied warranty of
  14:..\acn-sdk-c\src\wolfSSL/wolfcrypt/src/misc.c ****  * MERCHANTABILITY or FITNESS FOR A PARTICULAR PURPOSE.  See the
  15:..\acn-sdk-c\src\wolfSSL/wolfcrypt/src/misc.c ****  * GNU General Public License for more details.
  16:..\acn-sdk-c\src\wolfSSL/wolfcrypt/src/misc.c ****  *
  17:..\acn-sdk-c\src\wolfSSL/wolfcrypt/src/misc.c ****  * You should have received a copy of the GNU General Public License
  18:..\acn-sdk-c\src\wolfSSL/wolfcrypt/src/misc.c ****  * along with this program; if not, write to the Free Software
  19:..\acn-sdk-c\src\wolfSSL/wolfcrypt/src/misc.c ****  * Foundation, Inc., 51 Franklin Street, Fifth Floor, Boston, MA 02110-1335, USA
  20:..\acn-sdk-c\src\wolfSSL/wolfcrypt/src/misc.c ****  */
  21:..\acn-sdk-c\src\wolfSSL/wolfcrypt/src/misc.c **** 
  22:..\acn-sdk-c\src\wolfSSL/wolfcrypt/src/misc.c **** 
  23:..\acn-sdk-c\src\wolfSSL/wolfcrypt/src/misc.c **** #ifdef HAVE_CONFIG_H
  24:..\acn-sdk-c\src\wolfSSL/wolfcrypt/src/misc.c ****     #include <config.h>
  25:..\acn-sdk-c\src\wolfSSL/wolfcrypt/src/misc.c **** #endif
  26:..\acn-sdk-c\src\wolfSSL/wolfcrypt/src/misc.c **** 
  27:..\acn-sdk-c\src\wolfSSL/wolfcrypt/src/misc.c **** #include <wolfssl/wolfcrypt/settings.h>
  28:..\acn-sdk-c\src\wolfSSL/wolfcrypt/src/misc.c **** 
  29:..\acn-sdk-c\src\wolfSSL/wolfcrypt/src/misc.c **** #ifndef WOLF_CRYPT_MISC_C
  30:..\acn-sdk-c\src\wolfSSL/wolfcrypt/src/misc.c **** #define WOLF_CRYPT_MISC_C
  31:..\acn-sdk-c\src\wolfSSL/wolfcrypt/src/misc.c **** 
  32:..\acn-sdk-c\src\wolfSSL/wolfcrypt/src/misc.c **** #include <wolfssl/wolfcrypt/misc.h>
  33:..\acn-sdk-c\src\wolfSSL/wolfcrypt/src/misc.c **** 
ARM GAS  C:\Users\ddemidov\AppData\Local\Temp\ccBlgygZ.s 			page 2


  34:..\acn-sdk-c\src\wolfSSL/wolfcrypt/src/misc.c **** /* inlining these functions is a huge speed increase and a small size decrease, 
  35:..\acn-sdk-c\src\wolfSSL/wolfcrypt/src/misc.c ****    because the functions are smaller than function call setup/cleanup, e.g.,
  36:..\acn-sdk-c\src\wolfSSL/wolfcrypt/src/misc.c ****    md5 benchmark is twice as fast with inline.  If you don't want it, then
  37:..\acn-sdk-c\src\wolfSSL/wolfcrypt/src/misc.c ****    define NO_INLINE and compile this file into wolfssl, otherwise it's used as
  38:..\acn-sdk-c\src\wolfSSL/wolfcrypt/src/misc.c ****    a source header
  39:..\acn-sdk-c\src\wolfSSL/wolfcrypt/src/misc.c ****  */
  40:..\acn-sdk-c\src\wolfSSL/wolfcrypt/src/misc.c **** 
  41:..\acn-sdk-c\src\wolfSSL/wolfcrypt/src/misc.c **** #ifdef NO_INLINE
  42:..\acn-sdk-c\src\wolfSSL/wolfcrypt/src/misc.c ****     #define STATIC
  43:..\acn-sdk-c\src\wolfSSL/wolfcrypt/src/misc.c **** #else
  44:..\acn-sdk-c\src\wolfSSL/wolfcrypt/src/misc.c ****     #define STATIC static
  45:..\acn-sdk-c\src\wolfSSL/wolfcrypt/src/misc.c **** #endif
  46:..\acn-sdk-c\src\wolfSSL/wolfcrypt/src/misc.c **** 
  47:..\acn-sdk-c\src\wolfSSL/wolfcrypt/src/misc.c **** 
  48:..\acn-sdk-c\src\wolfSSL/wolfcrypt/src/misc.c **** #ifdef INTEL_INTRINSICS
  49:..\acn-sdk-c\src\wolfSSL/wolfcrypt/src/misc.c **** 
  50:..\acn-sdk-c\src\wolfSSL/wolfcrypt/src/misc.c ****     #include <stdlib.h>      /* get intrinsic definitions */
  51:..\acn-sdk-c\src\wolfSSL/wolfcrypt/src/misc.c **** 
  52:..\acn-sdk-c\src\wolfSSL/wolfcrypt/src/misc.c ****     /* for non visual studio probably need no long version, 32 bit only
  53:..\acn-sdk-c\src\wolfSSL/wolfcrypt/src/misc.c ****      * i.e., _rotl and _rotr */
  54:..\acn-sdk-c\src\wolfSSL/wolfcrypt/src/misc.c ****     #pragma intrinsic(_lrotl, _lrotr)
  55:..\acn-sdk-c\src\wolfSSL/wolfcrypt/src/misc.c **** 
  56:..\acn-sdk-c\src\wolfSSL/wolfcrypt/src/misc.c ****     STATIC INLINE word32 rotlFixed(word32 x, word32 y)
  57:..\acn-sdk-c\src\wolfSSL/wolfcrypt/src/misc.c ****     {
  58:..\acn-sdk-c\src\wolfSSL/wolfcrypt/src/misc.c ****         return y ? _lrotl(x, y) : x;
  59:..\acn-sdk-c\src\wolfSSL/wolfcrypt/src/misc.c ****     }
  60:..\acn-sdk-c\src\wolfSSL/wolfcrypt/src/misc.c **** 
  61:..\acn-sdk-c\src\wolfSSL/wolfcrypt/src/misc.c ****     STATIC INLINE word32 rotrFixed(word32 x, word32 y)
  62:..\acn-sdk-c\src\wolfSSL/wolfcrypt/src/misc.c ****     {
  63:..\acn-sdk-c\src\wolfSSL/wolfcrypt/src/misc.c ****         return y ? _lrotr(x, y) : x;
  64:..\acn-sdk-c\src\wolfSSL/wolfcrypt/src/misc.c ****     }
  65:..\acn-sdk-c\src\wolfSSL/wolfcrypt/src/misc.c **** 
  66:..\acn-sdk-c\src\wolfSSL/wolfcrypt/src/misc.c **** #else /* generic */
  67:..\acn-sdk-c\src\wolfSSL/wolfcrypt/src/misc.c **** 
  68:..\acn-sdk-c\src\wolfSSL/wolfcrypt/src/misc.c ****     STATIC INLINE word32 rotlFixed(word32 x, word32 y)
  69:..\acn-sdk-c\src\wolfSSL/wolfcrypt/src/misc.c ****     {
  70:..\acn-sdk-c\src\wolfSSL/wolfcrypt/src/misc.c ****         return (x << y) | (x >> (sizeof(y) * 8 - y));
  71:..\acn-sdk-c\src\wolfSSL/wolfcrypt/src/misc.c ****     }   
  72:..\acn-sdk-c\src\wolfSSL/wolfcrypt/src/misc.c **** 
  73:..\acn-sdk-c\src\wolfSSL/wolfcrypt/src/misc.c **** 
  74:..\acn-sdk-c\src\wolfSSL/wolfcrypt/src/misc.c ****     STATIC INLINE word32 rotrFixed(word32 x, word32 y)
  75:..\acn-sdk-c\src\wolfSSL/wolfcrypt/src/misc.c ****     {
  76:..\acn-sdk-c\src\wolfSSL/wolfcrypt/src/misc.c ****         return (x >> y) | (x << (sizeof(y) * 8 - y));
  77:..\acn-sdk-c\src\wolfSSL/wolfcrypt/src/misc.c ****     }
  78:..\acn-sdk-c\src\wolfSSL/wolfcrypt/src/misc.c **** 
  79:..\acn-sdk-c\src\wolfSSL/wolfcrypt/src/misc.c **** #endif
  80:..\acn-sdk-c\src\wolfSSL/wolfcrypt/src/misc.c **** 
  81:..\acn-sdk-c\src\wolfSSL/wolfcrypt/src/misc.c **** 
  82:..\acn-sdk-c\src\wolfSSL/wolfcrypt/src/misc.c **** STATIC INLINE word32 ByteReverseWord32(word32 value)
  83:..\acn-sdk-c\src\wolfSSL/wolfcrypt/src/misc.c **** {
  84:..\acn-sdk-c\src\wolfSSL/wolfcrypt/src/misc.c **** #ifdef PPC_INTRINSICS
  85:..\acn-sdk-c\src\wolfSSL/wolfcrypt/src/misc.c ****     /* PPC: load reverse indexed instruction */
  86:..\acn-sdk-c\src\wolfSSL/wolfcrypt/src/misc.c ****     return (word32)__lwbrx(&value,0);
  87:..\acn-sdk-c\src\wolfSSL/wolfcrypt/src/misc.c **** #elif defined(KEIL_INTRINSICS)
  88:..\acn-sdk-c\src\wolfSSL/wolfcrypt/src/misc.c ****     return (word32)__rev(value);
  89:..\acn-sdk-c\src\wolfSSL/wolfcrypt/src/misc.c **** #elif defined(FAST_ROTATE)
  90:..\acn-sdk-c\src\wolfSSL/wolfcrypt/src/misc.c ****     /* 5 instructions with rotate instruction, 9 without */
ARM GAS  C:\Users\ddemidov\AppData\Local\Temp\ccBlgygZ.s 			page 3


  91:..\acn-sdk-c\src\wolfSSL/wolfcrypt/src/misc.c ****     return (rotrFixed(value, 8U) & 0xff00ff00) |
  92:..\acn-sdk-c\src\wolfSSL/wolfcrypt/src/misc.c ****            (rotlFixed(value, 8U) & 0x00ff00ff);
  93:..\acn-sdk-c\src\wolfSSL/wolfcrypt/src/misc.c **** #else
  94:..\acn-sdk-c\src\wolfSSL/wolfcrypt/src/misc.c ****     /* 6 instructions with rotate instruction, 8 without */
  95:..\acn-sdk-c\src\wolfSSL/wolfcrypt/src/misc.c ****     value = ((value & 0xFF00FF00) >> 8) | ((value & 0x00FF00FF) << 8);
  96:..\acn-sdk-c\src\wolfSSL/wolfcrypt/src/misc.c ****     return rotlFixed(value, 16U);
  97:..\acn-sdk-c\src\wolfSSL/wolfcrypt/src/misc.c **** #endif
  98:..\acn-sdk-c\src\wolfSSL/wolfcrypt/src/misc.c **** }
  99:..\acn-sdk-c\src\wolfSSL/wolfcrypt/src/misc.c **** 
 100:..\acn-sdk-c\src\wolfSSL/wolfcrypt/src/misc.c **** 
 101:..\acn-sdk-c\src\wolfSSL/wolfcrypt/src/misc.c **** STATIC INLINE void ByteReverseWords(word32* out, const word32* in,
 102:..\acn-sdk-c\src\wolfSSL/wolfcrypt/src/misc.c ****                                     word32 byteCount)
 103:..\acn-sdk-c\src\wolfSSL/wolfcrypt/src/misc.c **** {
 104:..\acn-sdk-c\src\wolfSSL/wolfcrypt/src/misc.c ****     word32 count = byteCount/(word32)sizeof(word32), i;
 105:..\acn-sdk-c\src\wolfSSL/wolfcrypt/src/misc.c **** 
 106:..\acn-sdk-c\src\wolfSSL/wolfcrypt/src/misc.c ****     for (i = 0; i < count; i++)
 107:..\acn-sdk-c\src\wolfSSL/wolfcrypt/src/misc.c ****         out[i] = ByteReverseWord32(in[i]);
 108:..\acn-sdk-c\src\wolfSSL/wolfcrypt/src/misc.c **** 
 109:..\acn-sdk-c\src\wolfSSL/wolfcrypt/src/misc.c **** }
 110:..\acn-sdk-c\src\wolfSSL/wolfcrypt/src/misc.c **** 
 111:..\acn-sdk-c\src\wolfSSL/wolfcrypt/src/misc.c **** 
 112:..\acn-sdk-c\src\wolfSSL/wolfcrypt/src/misc.c **** #ifdef WORD64_AVAILABLE
 113:..\acn-sdk-c\src\wolfSSL/wolfcrypt/src/misc.c **** 
 114:..\acn-sdk-c\src\wolfSSL/wolfcrypt/src/misc.c **** 
 115:..\acn-sdk-c\src\wolfSSL/wolfcrypt/src/misc.c **** STATIC INLINE word64 rotlFixed64(word64 x, word64 y)
 116:..\acn-sdk-c\src\wolfSSL/wolfcrypt/src/misc.c **** {
 117:..\acn-sdk-c\src\wolfSSL/wolfcrypt/src/misc.c ****     return (x << y) | (x >> (sizeof(y) * 8 - y));
 118:..\acn-sdk-c\src\wolfSSL/wolfcrypt/src/misc.c **** }  
 119:..\acn-sdk-c\src\wolfSSL/wolfcrypt/src/misc.c **** 
 120:..\acn-sdk-c\src\wolfSSL/wolfcrypt/src/misc.c **** 
 121:..\acn-sdk-c\src\wolfSSL/wolfcrypt/src/misc.c **** STATIC INLINE word64 rotrFixed64(word64 x, word64 y)
 122:..\acn-sdk-c\src\wolfSSL/wolfcrypt/src/misc.c **** {
 123:..\acn-sdk-c\src\wolfSSL/wolfcrypt/src/misc.c ****     return (x >> y) | (x << (sizeof(y) * 8 - y));
 124:..\acn-sdk-c\src\wolfSSL/wolfcrypt/src/misc.c **** }
 125:..\acn-sdk-c\src\wolfSSL/wolfcrypt/src/misc.c **** 
 126:..\acn-sdk-c\src\wolfSSL/wolfcrypt/src/misc.c **** 
 127:..\acn-sdk-c\src\wolfSSL/wolfcrypt/src/misc.c **** STATIC INLINE word64 ByteReverseWord64(word64 value)
 128:..\acn-sdk-c\src\wolfSSL/wolfcrypt/src/misc.c **** {
 129:..\acn-sdk-c\src\wolfSSL/wolfcrypt/src/misc.c **** #ifdef WOLFCRYPT_SLOW_WORD64
 130:..\acn-sdk-c\src\wolfSSL/wolfcrypt/src/misc.c **** 	return (word64)(ByteReverseWord32((word32)value)) << 32 | 
 131:..\acn-sdk-c\src\wolfSSL/wolfcrypt/src/misc.c ****                     ByteReverseWord32((word32)(value>>32));
 132:..\acn-sdk-c\src\wolfSSL/wolfcrypt/src/misc.c **** #else
 133:..\acn-sdk-c\src\wolfSSL/wolfcrypt/src/misc.c **** 	value = ((value & W64LIT(0xFF00FF00FF00FF00)) >> 8) |
 134:..\acn-sdk-c\src\wolfSSL/wolfcrypt/src/misc.c ****             ((value & W64LIT(0x00FF00FF00FF00FF)) << 8);
 135:..\acn-sdk-c\src\wolfSSL/wolfcrypt/src/misc.c **** 	value = ((value & W64LIT(0xFFFF0000FFFF0000)) >> 16) |
 136:..\acn-sdk-c\src\wolfSSL/wolfcrypt/src/misc.c ****             ((value & W64LIT(0x0000FFFF0000FFFF)) << 16);
 137:..\acn-sdk-c\src\wolfSSL/wolfcrypt/src/misc.c **** 	return rotlFixed64(value, 32U);
 138:..\acn-sdk-c\src\wolfSSL/wolfcrypt/src/misc.c **** #endif
 139:..\acn-sdk-c\src\wolfSSL/wolfcrypt/src/misc.c **** }
 140:..\acn-sdk-c\src\wolfSSL/wolfcrypt/src/misc.c **** 
 141:..\acn-sdk-c\src\wolfSSL/wolfcrypt/src/misc.c **** 
 142:..\acn-sdk-c\src\wolfSSL/wolfcrypt/src/misc.c **** STATIC INLINE void ByteReverseWords64(word64* out, const word64* in,
 143:..\acn-sdk-c\src\wolfSSL/wolfcrypt/src/misc.c ****                                       word32 byteCount)
 144:..\acn-sdk-c\src\wolfSSL/wolfcrypt/src/misc.c **** {
 145:..\acn-sdk-c\src\wolfSSL/wolfcrypt/src/misc.c ****     word32 count = byteCount/(word32)sizeof(word64), i;
 146:..\acn-sdk-c\src\wolfSSL/wolfcrypt/src/misc.c **** 
 147:..\acn-sdk-c\src\wolfSSL/wolfcrypt/src/misc.c ****     for (i = 0; i < count; i++)
ARM GAS  C:\Users\ddemidov\AppData\Local\Temp\ccBlgygZ.s 			page 4


 148:..\acn-sdk-c\src\wolfSSL/wolfcrypt/src/misc.c ****         out[i] = ByteReverseWord64(in[i]);
 149:..\acn-sdk-c\src\wolfSSL/wolfcrypt/src/misc.c **** 
 150:..\acn-sdk-c\src\wolfSSL/wolfcrypt/src/misc.c **** }
 151:..\acn-sdk-c\src\wolfSSL/wolfcrypt/src/misc.c **** 
 152:..\acn-sdk-c\src\wolfSSL/wolfcrypt/src/misc.c **** #endif /* WORD64_AVAILABLE */
 153:..\acn-sdk-c\src\wolfSSL/wolfcrypt/src/misc.c **** 
 154:..\acn-sdk-c\src\wolfSSL/wolfcrypt/src/misc.c **** 
 155:..\acn-sdk-c\src\wolfSSL/wolfcrypt/src/misc.c **** STATIC INLINE void XorWords(wolfssl_word* r, const wolfssl_word* a, word32 n)
 156:..\acn-sdk-c\src\wolfSSL/wolfcrypt/src/misc.c **** {
 157:..\acn-sdk-c\src\wolfSSL/wolfcrypt/src/misc.c ****     word32 i;
 158:..\acn-sdk-c\src\wolfSSL/wolfcrypt/src/misc.c **** 
 159:..\acn-sdk-c\src\wolfSSL/wolfcrypt/src/misc.c ****     for (i = 0; i < n; i++) r[i] ^= a[i];
 160:..\acn-sdk-c\src\wolfSSL/wolfcrypt/src/misc.c **** }
 161:..\acn-sdk-c\src\wolfSSL/wolfcrypt/src/misc.c **** 
 162:..\acn-sdk-c\src\wolfSSL/wolfcrypt/src/misc.c **** 
 163:..\acn-sdk-c\src\wolfSSL/wolfcrypt/src/misc.c **** STATIC INLINE void xorbuf(void* buf, const void* mask, word32 count)
 164:..\acn-sdk-c\src\wolfSSL/wolfcrypt/src/misc.c **** {
 165:..\acn-sdk-c\src\wolfSSL/wolfcrypt/src/misc.c ****     if (((wolfssl_word)buf | (wolfssl_word)mask | count) % WOLFSSL_WORD_SIZE == 0)
 166:..\acn-sdk-c\src\wolfSSL/wolfcrypt/src/misc.c ****         XorWords( (wolfssl_word*)buf,
 167:..\acn-sdk-c\src\wolfSSL/wolfcrypt/src/misc.c ****                   (const wolfssl_word*)mask, count / WOLFSSL_WORD_SIZE);
 168:..\acn-sdk-c\src\wolfSSL/wolfcrypt/src/misc.c ****     else {
 169:..\acn-sdk-c\src\wolfSSL/wolfcrypt/src/misc.c ****         word32 i;
 170:..\acn-sdk-c\src\wolfSSL/wolfcrypt/src/misc.c ****         byte*       b = (byte*)buf;
 171:..\acn-sdk-c\src\wolfSSL/wolfcrypt/src/misc.c ****         const byte* m = (const byte*)mask;
 172:..\acn-sdk-c\src\wolfSSL/wolfcrypt/src/misc.c **** 
 173:..\acn-sdk-c\src\wolfSSL/wolfcrypt/src/misc.c ****         for (i = 0; i < count; i++) b[i] ^= m[i];
 174:..\acn-sdk-c\src\wolfSSL/wolfcrypt/src/misc.c ****     }
 175:..\acn-sdk-c\src\wolfSSL/wolfcrypt/src/misc.c **** }
 176:..\acn-sdk-c\src\wolfSSL/wolfcrypt/src/misc.c **** 
 177:..\acn-sdk-c\src\wolfSSL/wolfcrypt/src/misc.c **** 
 178:..\acn-sdk-c\src\wolfSSL/wolfcrypt/src/misc.c **** /* Make sure compiler doesn't skip */
 179:..\acn-sdk-c\src\wolfSSL/wolfcrypt/src/misc.c **** STATIC INLINE void ForceZero(const void* mem, word32 len)
 180:..\acn-sdk-c\src\wolfSSL/wolfcrypt/src/misc.c **** {
  25              		.loc 1 180 0
  26              		.cfi_startproc
  27              	.LVL0:
  28 0000 4118     		add	r1, r0, r1
  29              	.LVL1:
  30              	.L2:
 181:..\acn-sdk-c\src\wolfSSL/wolfcrypt/src/misc.c ****     volatile byte* z = (volatile byte*)mem;
 182:..\acn-sdk-c\src\wolfSSL/wolfcrypt/src/misc.c **** 
 183:..\acn-sdk-c\src\wolfSSL/wolfcrypt/src/misc.c ****     while (len--) *z++ = 0;
  31              		.loc 1 183 0 discriminator 1
  32 0002 8842     		cmp	r0, r1
  33 0004 03D0     		beq	.L5
  34              	.LVL2:
  35              		.loc 1 183 0 is_stmt 0 discriminator 2
  36 0006 0023     		mov	r3, #0
  37 0008 0370     		strb	r3, [r0]
  38 000a 0130     		add	r0, r0, #1
  39              	.LVL3:
  40 000c F9E7     		b	.L2
  41              	.LVL4:
  42              	.L5:
 184:..\acn-sdk-c\src\wolfSSL/wolfcrypt/src/misc.c **** }
  43              		.loc 1 184 0 is_stmt 1
  44              		@ sp needed
ARM GAS  C:\Users\ddemidov\AppData\Local\Temp\ccBlgygZ.s 			page 5


  45 000e 7047     		bx	lr
  46              		.cfi_endproc
  47              	.LFE10:
  48              		.size	ForceZero, .-ForceZero
  49              		.section	.text.Hash_DRBG_Uninstantiate,"ax",%progbits
  50              		.align	1
  51              		.code	16
  52              		.thumb_func
  53              		.type	Hash_DRBG_Uninstantiate, %function
  54              	Hash_DRBG_Uninstantiate:
  55              	.LFB19:
  56              		.file 2 "..\\acn-sdk-c\\src\\wolfSSL\\wolfcrypt\\src\\random.c"
   1:..\acn-sdk-c\src\wolfSSL/wolfcrypt/src/random.c **** /* random.c
   2:..\acn-sdk-c\src\wolfSSL/wolfcrypt/src/random.c ****  *
   3:..\acn-sdk-c\src\wolfSSL/wolfcrypt/src/random.c ****  * Copyright (C) 2006-2016 wolfSSL Inc.
   4:..\acn-sdk-c\src\wolfSSL/wolfcrypt/src/random.c ****  *
   5:..\acn-sdk-c\src\wolfSSL/wolfcrypt/src/random.c ****  * This file is part of wolfSSL.
   6:..\acn-sdk-c\src\wolfSSL/wolfcrypt/src/random.c ****  *
   7:..\acn-sdk-c\src\wolfSSL/wolfcrypt/src/random.c ****  * wolfSSL is free software; you can redistribute it and/or modify
   8:..\acn-sdk-c\src\wolfSSL/wolfcrypt/src/random.c ****  * it under the terms of the GNU General Public License as published by
   9:..\acn-sdk-c\src\wolfSSL/wolfcrypt/src/random.c ****  * the Free Software Foundation; either version 2 of the License, or
  10:..\acn-sdk-c\src\wolfSSL/wolfcrypt/src/random.c ****  * (at your option) any later version.
  11:..\acn-sdk-c\src\wolfSSL/wolfcrypt/src/random.c ****  *
  12:..\acn-sdk-c\src\wolfSSL/wolfcrypt/src/random.c ****  * wolfSSL is distributed in the hope that it will be useful,
  13:..\acn-sdk-c\src\wolfSSL/wolfcrypt/src/random.c ****  * but WITHOUT ANY WARRANTY; without even the implied warranty of
  14:..\acn-sdk-c\src\wolfSSL/wolfcrypt/src/random.c ****  * MERCHANTABILITY or FITNESS FOR A PARTICULAR PURPOSE.  See the
  15:..\acn-sdk-c\src\wolfSSL/wolfcrypt/src/random.c ****  * GNU General Public License for more details.
  16:..\acn-sdk-c\src\wolfSSL/wolfcrypt/src/random.c ****  *
  17:..\acn-sdk-c\src\wolfSSL/wolfcrypt/src/random.c ****  * You should have received a copy of the GNU General Public License
  18:..\acn-sdk-c\src\wolfSSL/wolfcrypt/src/random.c ****  * along with this program; if not, write to the Free Software
  19:..\acn-sdk-c\src\wolfSSL/wolfcrypt/src/random.c ****  * Foundation, Inc., 51 Franklin Street, Fifth Floor, Boston, MA 02110-1335, USA
  20:..\acn-sdk-c\src\wolfSSL/wolfcrypt/src/random.c ****  */
  21:..\acn-sdk-c\src\wolfSSL/wolfcrypt/src/random.c **** 
  22:..\acn-sdk-c\src\wolfSSL/wolfcrypt/src/random.c **** 
  23:..\acn-sdk-c\src\wolfSSL/wolfcrypt/src/random.c **** #ifdef HAVE_CONFIG_H
  24:..\acn-sdk-c\src\wolfSSL/wolfcrypt/src/random.c ****     #include <config.h>
  25:..\acn-sdk-c\src\wolfSSL/wolfcrypt/src/random.c **** #endif
  26:..\acn-sdk-c\src\wolfSSL/wolfcrypt/src/random.c **** 
  27:..\acn-sdk-c\src\wolfSSL/wolfcrypt/src/random.c **** #include <wolfssl/wolfcrypt/settings.h>
  28:..\acn-sdk-c\src\wolfSSL/wolfcrypt/src/random.c **** 
  29:..\acn-sdk-c\src\wolfSSL/wolfcrypt/src/random.c **** /* on HPUX 11 you may need to install /dev/random see
  30:..\acn-sdk-c\src\wolfSSL/wolfcrypt/src/random.c ****    http://h20293.www2.hp.com/portal/swdepot/displayProductInfo.do?productNumber=KRNG11I
  31:..\acn-sdk-c\src\wolfSSL/wolfcrypt/src/random.c **** 
  32:..\acn-sdk-c\src\wolfSSL/wolfcrypt/src/random.c **** */
  33:..\acn-sdk-c\src\wolfSSL/wolfcrypt/src/random.c **** 
  34:..\acn-sdk-c\src\wolfSSL/wolfcrypt/src/random.c **** #include <wolfssl/wolfcrypt/random.h>
  35:..\acn-sdk-c\src\wolfSSL/wolfcrypt/src/random.c **** 
  36:..\acn-sdk-c\src\wolfSSL/wolfcrypt/src/random.c **** #if defined(CUSTOM_RAND_GENERATE) && !defined(CUSTOM_RAND_TYPE)
  37:..\acn-sdk-c\src\wolfSSL/wolfcrypt/src/random.c **** /* To maintain compatibility the default return value from CUSTOM_RAND_GENERATE is byte */
  38:..\acn-sdk-c\src\wolfSSL/wolfcrypt/src/random.c **** #define CUSTOM_RAND_TYPE    byte
  39:..\acn-sdk-c\src\wolfSSL/wolfcrypt/src/random.c **** #endif
  40:..\acn-sdk-c\src\wolfSSL/wolfcrypt/src/random.c **** 
  41:..\acn-sdk-c\src\wolfSSL/wolfcrypt/src/random.c **** 
  42:..\acn-sdk-c\src\wolfSSL/wolfcrypt/src/random.c **** #ifdef HAVE_FIPS
  43:..\acn-sdk-c\src\wolfSSL/wolfcrypt/src/random.c **** int wc_GenerateSeed(OS_Seed* os, byte* seed, word32 sz)
  44:..\acn-sdk-c\src\wolfSSL/wolfcrypt/src/random.c **** {
  45:..\acn-sdk-c\src\wolfSSL/wolfcrypt/src/random.c ****     return GenerateSeed(os, seed, sz);
ARM GAS  C:\Users\ddemidov\AppData\Local\Temp\ccBlgygZ.s 			page 6


  46:..\acn-sdk-c\src\wolfSSL/wolfcrypt/src/random.c **** }
  47:..\acn-sdk-c\src\wolfSSL/wolfcrypt/src/random.c **** 
  48:..\acn-sdk-c\src\wolfSSL/wolfcrypt/src/random.c **** #ifdef HAVE_CAVIUM
  49:..\acn-sdk-c\src\wolfSSL/wolfcrypt/src/random.c ****     int  wc_InitRngCavium(WC_RNG* rng, int i)
  50:..\acn-sdk-c\src\wolfSSL/wolfcrypt/src/random.c ****     {
  51:..\acn-sdk-c\src\wolfSSL/wolfcrypt/src/random.c ****         return InitRngCavium(rng, i);
  52:..\acn-sdk-c\src\wolfSSL/wolfcrypt/src/random.c ****     }
  53:..\acn-sdk-c\src\wolfSSL/wolfcrypt/src/random.c **** #endif
  54:..\acn-sdk-c\src\wolfSSL/wolfcrypt/src/random.c **** 
  55:..\acn-sdk-c\src\wolfSSL/wolfcrypt/src/random.c **** 
  56:..\acn-sdk-c\src\wolfSSL/wolfcrypt/src/random.c **** int  wc_InitRng(WC_RNG* rng)
  57:..\acn-sdk-c\src\wolfSSL/wolfcrypt/src/random.c **** {
  58:..\acn-sdk-c\src\wolfSSL/wolfcrypt/src/random.c ****     return InitRng_fips(rng);
  59:..\acn-sdk-c\src\wolfSSL/wolfcrypt/src/random.c **** }
  60:..\acn-sdk-c\src\wolfSSL/wolfcrypt/src/random.c **** 
  61:..\acn-sdk-c\src\wolfSSL/wolfcrypt/src/random.c **** 
  62:..\acn-sdk-c\src\wolfSSL/wolfcrypt/src/random.c **** int  wc_RNG_GenerateBlock(WC_RNG* rng, byte* b, word32 sz)
  63:..\acn-sdk-c\src\wolfSSL/wolfcrypt/src/random.c **** {
  64:..\acn-sdk-c\src\wolfSSL/wolfcrypt/src/random.c ****     return RNG_GenerateBlock_fips(rng, b, sz);
  65:..\acn-sdk-c\src\wolfSSL/wolfcrypt/src/random.c **** }
  66:..\acn-sdk-c\src\wolfSSL/wolfcrypt/src/random.c **** 
  67:..\acn-sdk-c\src\wolfSSL/wolfcrypt/src/random.c **** 
  68:..\acn-sdk-c\src\wolfSSL/wolfcrypt/src/random.c **** int  wc_RNG_GenerateByte(WC_RNG* rng, byte* b)
  69:..\acn-sdk-c\src\wolfSSL/wolfcrypt/src/random.c **** {
  70:..\acn-sdk-c\src\wolfSSL/wolfcrypt/src/random.c ****     return RNG_GenerateByte(rng, b);
  71:..\acn-sdk-c\src\wolfSSL/wolfcrypt/src/random.c **** }
  72:..\acn-sdk-c\src\wolfSSL/wolfcrypt/src/random.c **** 
  73:..\acn-sdk-c\src\wolfSSL/wolfcrypt/src/random.c **** #if defined(HAVE_HASHDRBG) || defined(NO_RC4)
  74:..\acn-sdk-c\src\wolfSSL/wolfcrypt/src/random.c **** 
  75:..\acn-sdk-c\src\wolfSSL/wolfcrypt/src/random.c ****     int wc_FreeRng(WC_RNG* rng)
  76:..\acn-sdk-c\src\wolfSSL/wolfcrypt/src/random.c ****     {
  77:..\acn-sdk-c\src\wolfSSL/wolfcrypt/src/random.c ****         return FreeRng_fips(rng);
  78:..\acn-sdk-c\src\wolfSSL/wolfcrypt/src/random.c ****     }
  79:..\acn-sdk-c\src\wolfSSL/wolfcrypt/src/random.c **** 
  80:..\acn-sdk-c\src\wolfSSL/wolfcrypt/src/random.c **** 
  81:..\acn-sdk-c\src\wolfSSL/wolfcrypt/src/random.c ****     int wc_RNG_HealthTest(int reseed,
  82:..\acn-sdk-c\src\wolfSSL/wolfcrypt/src/random.c ****                                         const byte* entropyA, word32 entropyASz,
  83:..\acn-sdk-c\src\wolfSSL/wolfcrypt/src/random.c ****                                         const byte* entropyB, word32 entropyBSz,
  84:..\acn-sdk-c\src\wolfSSL/wolfcrypt/src/random.c ****                                         byte* output, word32 outputSz)
  85:..\acn-sdk-c\src\wolfSSL/wolfcrypt/src/random.c ****     {
  86:..\acn-sdk-c\src\wolfSSL/wolfcrypt/src/random.c ****         return RNG_HealthTest_fips(reseed, entropyA, entropyASz,
  87:..\acn-sdk-c\src\wolfSSL/wolfcrypt/src/random.c ****                               entropyB, entropyBSz, output, outputSz);
  88:..\acn-sdk-c\src\wolfSSL/wolfcrypt/src/random.c ****     }
  89:..\acn-sdk-c\src\wolfSSL/wolfcrypt/src/random.c **** #endif /* HAVE_HASHDRBG || NO_RC4 */
  90:..\acn-sdk-c\src\wolfSSL/wolfcrypt/src/random.c **** #else /* else build without fips */
  91:..\acn-sdk-c\src\wolfSSL/wolfcrypt/src/random.c **** #include <wolfssl/wolfcrypt/error-crypt.h>
  92:..\acn-sdk-c\src\wolfSSL/wolfcrypt/src/random.c **** 
  93:..\acn-sdk-c\src\wolfSSL/wolfcrypt/src/random.c **** /* Allow custom RNG system */
  94:..\acn-sdk-c\src\wolfSSL/wolfcrypt/src/random.c **** #ifdef CUSTOM_RAND_GENERATE_BLOCK
  95:..\acn-sdk-c\src\wolfSSL/wolfcrypt/src/random.c **** 
  96:..\acn-sdk-c\src\wolfSSL/wolfcrypt/src/random.c **** int wc_InitRng(WC_RNG* rng)
  97:..\acn-sdk-c\src\wolfSSL/wolfcrypt/src/random.c **** {
  98:..\acn-sdk-c\src\wolfSSL/wolfcrypt/src/random.c ****     (void)rng;
  99:..\acn-sdk-c\src\wolfSSL/wolfcrypt/src/random.c ****     return 0;
 100:..\acn-sdk-c\src\wolfSSL/wolfcrypt/src/random.c **** }
 101:..\acn-sdk-c\src\wolfSSL/wolfcrypt/src/random.c **** 
 102:..\acn-sdk-c\src\wolfSSL/wolfcrypt/src/random.c **** int wc_RNG_GenerateBlock(WC_RNG* rng, byte* output, word32 sz)
ARM GAS  C:\Users\ddemidov\AppData\Local\Temp\ccBlgygZ.s 			page 7


 103:..\acn-sdk-c\src\wolfSSL/wolfcrypt/src/random.c **** {
 104:..\acn-sdk-c\src\wolfSSL/wolfcrypt/src/random.c ****     (void)rng;
 105:..\acn-sdk-c\src\wolfSSL/wolfcrypt/src/random.c ****     XMEMSET(output, 0, sz);
 106:..\acn-sdk-c\src\wolfSSL/wolfcrypt/src/random.c ****     return CUSTOM_RAND_GENERATE_BLOCK(output, sz);
 107:..\acn-sdk-c\src\wolfSSL/wolfcrypt/src/random.c **** }
 108:..\acn-sdk-c\src\wolfSSL/wolfcrypt/src/random.c **** 
 109:..\acn-sdk-c\src\wolfSSL/wolfcrypt/src/random.c **** 
 110:..\acn-sdk-c\src\wolfSSL/wolfcrypt/src/random.c **** int wc_RNG_GenerateByte(WC_RNG* rng, byte* b)
 111:..\acn-sdk-c\src\wolfSSL/wolfcrypt/src/random.c **** {
 112:..\acn-sdk-c\src\wolfSSL/wolfcrypt/src/random.c ****     return wc_RNG_GenerateBlock(rng, b, 1);
 113:..\acn-sdk-c\src\wolfSSL/wolfcrypt/src/random.c **** }
 114:..\acn-sdk-c\src\wolfSSL/wolfcrypt/src/random.c **** 
 115:..\acn-sdk-c\src\wolfSSL/wolfcrypt/src/random.c **** 
 116:..\acn-sdk-c\src\wolfSSL/wolfcrypt/src/random.c **** int wc_FreeRng(WC_RNG* rng)
 117:..\acn-sdk-c\src\wolfSSL/wolfcrypt/src/random.c **** {
 118:..\acn-sdk-c\src\wolfSSL/wolfcrypt/src/random.c ****     (void)rng;
 119:..\acn-sdk-c\src\wolfSSL/wolfcrypt/src/random.c ****     return 0;
 120:..\acn-sdk-c\src\wolfSSL/wolfcrypt/src/random.c **** }
 121:..\acn-sdk-c\src\wolfSSL/wolfcrypt/src/random.c **** 
 122:..\acn-sdk-c\src\wolfSSL/wolfcrypt/src/random.c **** #else
 123:..\acn-sdk-c\src\wolfSSL/wolfcrypt/src/random.c **** 
 124:..\acn-sdk-c\src\wolfSSL/wolfcrypt/src/random.c **** /* Use HASHDRGB with SHA256 */
 125:..\acn-sdk-c\src\wolfSSL/wolfcrypt/src/random.c **** #if defined(HAVE_HASHDRBG) || defined(NO_RC4)
 126:..\acn-sdk-c\src\wolfSSL/wolfcrypt/src/random.c **** 
 127:..\acn-sdk-c\src\wolfSSL/wolfcrypt/src/random.c ****     #include <wolfssl/wolfcrypt/sha256.h>
 128:..\acn-sdk-c\src\wolfSSL/wolfcrypt/src/random.c **** 
 129:..\acn-sdk-c\src\wolfSSL/wolfcrypt/src/random.c ****     #ifdef NO_INLINE
 130:..\acn-sdk-c\src\wolfSSL/wolfcrypt/src/random.c ****         #include <wolfssl/wolfcrypt/misc.h>
 131:..\acn-sdk-c\src\wolfSSL/wolfcrypt/src/random.c ****     #else
 132:..\acn-sdk-c\src\wolfSSL/wolfcrypt/src/random.c ****         #include <wolfcrypt/src/misc.c>
 133:..\acn-sdk-c\src\wolfSSL/wolfcrypt/src/random.c ****     #endif
 134:..\acn-sdk-c\src\wolfSSL/wolfcrypt/src/random.c **** #endif /* HAVE_HASHDRBG || NO_RC4 */
 135:..\acn-sdk-c\src\wolfSSL/wolfcrypt/src/random.c **** 
 136:..\acn-sdk-c\src\wolfSSL/wolfcrypt/src/random.c **** #if defined(USE_WINDOWS_API)
 137:..\acn-sdk-c\src\wolfSSL/wolfcrypt/src/random.c ****     #ifndef _WIN32_WINNT
 138:..\acn-sdk-c\src\wolfSSL/wolfcrypt/src/random.c ****         #define _WIN32_WINNT 0x0400
 139:..\acn-sdk-c\src\wolfSSL/wolfcrypt/src/random.c ****     #endif
 140:..\acn-sdk-c\src\wolfSSL/wolfcrypt/src/random.c ****     #include <windows.h>
 141:..\acn-sdk-c\src\wolfSSL/wolfcrypt/src/random.c ****     #include <wincrypt.h>
 142:..\acn-sdk-c\src\wolfSSL/wolfcrypt/src/random.c **** #else
 143:..\acn-sdk-c\src\wolfSSL/wolfcrypt/src/random.c ****     #if !defined(NO_DEV_RANDOM) && !defined(CUSTOM_RAND_GENERATE) && \
 144:..\acn-sdk-c\src\wolfSSL/wolfcrypt/src/random.c ****         !defined(WOLFSSL_GENSEED_FORTEST) && !defined(WOLFSSL_MDK_ARM) && \
 145:..\acn-sdk-c\src\wolfSSL/wolfcrypt/src/random.c ****         !defined(WOLFSSL_IAR_ARM) && !defined(WOLFSSL_ROWLEY_ARM)
 146:..\acn-sdk-c\src\wolfSSL/wolfcrypt/src/random.c ****             #include <fcntl.h>
 147:..\acn-sdk-c\src\wolfSSL/wolfcrypt/src/random.c ****         #ifndef EBSNET
 148:..\acn-sdk-c\src\wolfSSL/wolfcrypt/src/random.c ****             #include <unistd.h>
 149:..\acn-sdk-c\src\wolfSSL/wolfcrypt/src/random.c ****         #endif
 150:..\acn-sdk-c\src\wolfSSL/wolfcrypt/src/random.c ****     #else
 151:..\acn-sdk-c\src\wolfSSL/wolfcrypt/src/random.c ****         /* include headers that may be needed to get good seed */
 152:..\acn-sdk-c\src\wolfSSL/wolfcrypt/src/random.c ****     #endif
 153:..\acn-sdk-c\src\wolfSSL/wolfcrypt/src/random.c **** #endif /* USE_WINDOWS_API */
 154:..\acn-sdk-c\src\wolfSSL/wolfcrypt/src/random.c **** 
 155:..\acn-sdk-c\src\wolfSSL/wolfcrypt/src/random.c **** #ifdef HAVE_INTEL_RDGEN
 156:..\acn-sdk-c\src\wolfSSL/wolfcrypt/src/random.c ****     static int wc_InitRng_IntelRD(void) ;
 157:..\acn-sdk-c\src\wolfSSL/wolfcrypt/src/random.c ****     #if defined(HAVE_HASHDRBG) || defined(NO_RC4)
 158:..\acn-sdk-c\src\wolfSSL/wolfcrypt/src/random.c ****     static int wc_GenerateSeed_IntelRD(OS_Seed* os, byte* output, word32 sz) ;
 159:..\acn-sdk-c\src\wolfSSL/wolfcrypt/src/random.c ****     #else
ARM GAS  C:\Users\ddemidov\AppData\Local\Temp\ccBlgygZ.s 			page 8


 160:..\acn-sdk-c\src\wolfSSL/wolfcrypt/src/random.c ****     static int wc_GenerateRand_IntelRD(OS_Seed* os, byte* output, word32 sz) ;
 161:..\acn-sdk-c\src\wolfSSL/wolfcrypt/src/random.c ****     #endif
 162:..\acn-sdk-c\src\wolfSSL/wolfcrypt/src/random.c ****     static word32 cpuid_check = 0 ;
 163:..\acn-sdk-c\src\wolfSSL/wolfcrypt/src/random.c ****     static word32 cpuid_flags = 0 ;
 164:..\acn-sdk-c\src\wolfSSL/wolfcrypt/src/random.c ****     #define CPUID_RDRAND 0x4
 165:..\acn-sdk-c\src\wolfSSL/wolfcrypt/src/random.c ****     #define CPUID_RDSEED 0x8
 166:..\acn-sdk-c\src\wolfSSL/wolfcrypt/src/random.c ****     #define IS_INTEL_RDRAND     (cpuid_flags&CPUID_RDRAND)
 167:..\acn-sdk-c\src\wolfSSL/wolfcrypt/src/random.c ****     #define IS_INTEL_RDSEED     (cpuid_flags&CPUID_RDSEED)
 168:..\acn-sdk-c\src\wolfSSL/wolfcrypt/src/random.c **** #endif
 169:..\acn-sdk-c\src\wolfSSL/wolfcrypt/src/random.c **** 
 170:..\acn-sdk-c\src\wolfSSL/wolfcrypt/src/random.c **** #if defined(HAVE_HASHDRBG) || defined(NO_RC4)
 171:..\acn-sdk-c\src\wolfSSL/wolfcrypt/src/random.c **** 
 172:..\acn-sdk-c\src\wolfSSL/wolfcrypt/src/random.c **** /* Start NIST DRBG code */
 173:..\acn-sdk-c\src\wolfSSL/wolfcrypt/src/random.c **** 
 174:..\acn-sdk-c\src\wolfSSL/wolfcrypt/src/random.c **** #define OUTPUT_BLOCK_LEN  (SHA256_DIGEST_SIZE)
 175:..\acn-sdk-c\src\wolfSSL/wolfcrypt/src/random.c **** #define MAX_REQUEST_LEN   (0x10000)
 176:..\acn-sdk-c\src\wolfSSL/wolfcrypt/src/random.c **** #define RESEED_INTERVAL   (1000000)
 177:..\acn-sdk-c\src\wolfSSL/wolfcrypt/src/random.c **** #define SECURITY_STRENGTH (256)
 178:..\acn-sdk-c\src\wolfSSL/wolfcrypt/src/random.c **** #define ENTROPY_SZ        (SECURITY_STRENGTH/8)
 179:..\acn-sdk-c\src\wolfSSL/wolfcrypt/src/random.c **** #define NONCE_SZ          (ENTROPY_SZ/2)
 180:..\acn-sdk-c\src\wolfSSL/wolfcrypt/src/random.c **** #define ENTROPY_NONCE_SZ  (ENTROPY_SZ+NONCE_SZ)
 181:..\acn-sdk-c\src\wolfSSL/wolfcrypt/src/random.c **** 
 182:..\acn-sdk-c\src\wolfSSL/wolfcrypt/src/random.c **** /* Internal return codes */
 183:..\acn-sdk-c\src\wolfSSL/wolfcrypt/src/random.c **** #define DRBG_SUCCESS      0
 184:..\acn-sdk-c\src\wolfSSL/wolfcrypt/src/random.c **** #define DRBG_ERROR        1
 185:..\acn-sdk-c\src\wolfSSL/wolfcrypt/src/random.c **** #define DRBG_FAILURE      2
 186:..\acn-sdk-c\src\wolfSSL/wolfcrypt/src/random.c **** #define DRBG_NEED_RESEED  3
 187:..\acn-sdk-c\src\wolfSSL/wolfcrypt/src/random.c **** #define DRBG_CONT_FAILURE 4
 188:..\acn-sdk-c\src\wolfSSL/wolfcrypt/src/random.c **** 
 189:..\acn-sdk-c\src\wolfSSL/wolfcrypt/src/random.c **** /* RNG health states */
 190:..\acn-sdk-c\src\wolfSSL/wolfcrypt/src/random.c **** #define DRBG_NOT_INIT     0
 191:..\acn-sdk-c\src\wolfSSL/wolfcrypt/src/random.c **** #define DRBG_OK           1
 192:..\acn-sdk-c\src\wolfSSL/wolfcrypt/src/random.c **** #define DRBG_FAILED       2
 193:..\acn-sdk-c\src\wolfSSL/wolfcrypt/src/random.c **** #define DRBG_CONT_FAILED  3
 194:..\acn-sdk-c\src\wolfSSL/wolfcrypt/src/random.c **** 
 195:..\acn-sdk-c\src\wolfSSL/wolfcrypt/src/random.c **** 
 196:..\acn-sdk-c\src\wolfSSL/wolfcrypt/src/random.c **** enum {
 197:..\acn-sdk-c\src\wolfSSL/wolfcrypt/src/random.c ****     drbgInitC     = 0,
 198:..\acn-sdk-c\src\wolfSSL/wolfcrypt/src/random.c ****     drbgReseed    = 1,
 199:..\acn-sdk-c\src\wolfSSL/wolfcrypt/src/random.c ****     drbgGenerateW = 2,
 200:..\acn-sdk-c\src\wolfSSL/wolfcrypt/src/random.c ****     drbgGenerateH = 3,
 201:..\acn-sdk-c\src\wolfSSL/wolfcrypt/src/random.c ****     drbgInitV
 202:..\acn-sdk-c\src\wolfSSL/wolfcrypt/src/random.c **** };
 203:..\acn-sdk-c\src\wolfSSL/wolfcrypt/src/random.c **** 
 204:..\acn-sdk-c\src\wolfSSL/wolfcrypt/src/random.c **** 
 205:..\acn-sdk-c\src\wolfSSL/wolfcrypt/src/random.c **** typedef struct DRBG {
 206:..\acn-sdk-c\src\wolfSSL/wolfcrypt/src/random.c ****     word32 reseedCtr;
 207:..\acn-sdk-c\src\wolfSSL/wolfcrypt/src/random.c ****     word32 lastBlock;
 208:..\acn-sdk-c\src\wolfSSL/wolfcrypt/src/random.c ****     byte V[DRBG_SEED_LEN];
 209:..\acn-sdk-c\src\wolfSSL/wolfcrypt/src/random.c ****     byte C[DRBG_SEED_LEN];
 210:..\acn-sdk-c\src\wolfSSL/wolfcrypt/src/random.c ****     byte   matchCount;
 211:..\acn-sdk-c\src\wolfSSL/wolfcrypt/src/random.c **** } DRBG;
 212:..\acn-sdk-c\src\wolfSSL/wolfcrypt/src/random.c **** 
 213:..\acn-sdk-c\src\wolfSSL/wolfcrypt/src/random.c **** 
 214:..\acn-sdk-c\src\wolfSSL/wolfcrypt/src/random.c **** static int wc_RNG_HealthTestLocal(int reseed);
 215:..\acn-sdk-c\src\wolfSSL/wolfcrypt/src/random.c **** 
 216:..\acn-sdk-c\src\wolfSSL/wolfcrypt/src/random.c **** /* Hash Derivation Function */
ARM GAS  C:\Users\ddemidov\AppData\Local\Temp\ccBlgygZ.s 			page 9


 217:..\acn-sdk-c\src\wolfSSL/wolfcrypt/src/random.c **** /* Returns: DRBG_SUCCESS or DRBG_FAILURE */
 218:..\acn-sdk-c\src\wolfSSL/wolfcrypt/src/random.c **** static int Hash_df(DRBG* drbg, byte* out, word32 outSz, byte type,
 219:..\acn-sdk-c\src\wolfSSL/wolfcrypt/src/random.c ****                                                   const byte* inA, word32 inASz,
 220:..\acn-sdk-c\src\wolfSSL/wolfcrypt/src/random.c ****                                                   const byte* inB, word32 inBSz)
 221:..\acn-sdk-c\src\wolfSSL/wolfcrypt/src/random.c **** {
 222:..\acn-sdk-c\src\wolfSSL/wolfcrypt/src/random.c ****     byte ctr;
 223:..\acn-sdk-c\src\wolfSSL/wolfcrypt/src/random.c ****     int i;
 224:..\acn-sdk-c\src\wolfSSL/wolfcrypt/src/random.c ****     int len;
 225:..\acn-sdk-c\src\wolfSSL/wolfcrypt/src/random.c ****     word32 bits = (outSz * 8); /* reverse byte order */
 226:..\acn-sdk-c\src\wolfSSL/wolfcrypt/src/random.c ****     Sha256 sha;
 227:..\acn-sdk-c\src\wolfSSL/wolfcrypt/src/random.c ****     byte digest[SHA256_DIGEST_SIZE];
 228:..\acn-sdk-c\src\wolfSSL/wolfcrypt/src/random.c **** 
 229:..\acn-sdk-c\src\wolfSSL/wolfcrypt/src/random.c ****     (void)drbg;
 230:..\acn-sdk-c\src\wolfSSL/wolfcrypt/src/random.c ****     #ifdef LITTLE_ENDIAN_ORDER
 231:..\acn-sdk-c\src\wolfSSL/wolfcrypt/src/random.c ****         bits = ByteReverseWord32(bits);
 232:..\acn-sdk-c\src\wolfSSL/wolfcrypt/src/random.c ****     #endif
 233:..\acn-sdk-c\src\wolfSSL/wolfcrypt/src/random.c ****     len = (outSz / OUTPUT_BLOCK_LEN)
 234:..\acn-sdk-c\src\wolfSSL/wolfcrypt/src/random.c ****         + ((outSz % OUTPUT_BLOCK_LEN) ? 1 : 0);
 235:..\acn-sdk-c\src\wolfSSL/wolfcrypt/src/random.c **** 
 236:..\acn-sdk-c\src\wolfSSL/wolfcrypt/src/random.c ****     for (i = 0, ctr = 1; i < len; i++, ctr++)
 237:..\acn-sdk-c\src\wolfSSL/wolfcrypt/src/random.c ****     {
 238:..\acn-sdk-c\src\wolfSSL/wolfcrypt/src/random.c ****         if (wc_InitSha256(&sha) != 0)
 239:..\acn-sdk-c\src\wolfSSL/wolfcrypt/src/random.c ****             return DRBG_FAILURE;
 240:..\acn-sdk-c\src\wolfSSL/wolfcrypt/src/random.c **** 
 241:..\acn-sdk-c\src\wolfSSL/wolfcrypt/src/random.c ****         if (wc_Sha256Update(&sha, &ctr, sizeof(ctr)) != 0)
 242:..\acn-sdk-c\src\wolfSSL/wolfcrypt/src/random.c ****             return DRBG_FAILURE;
 243:..\acn-sdk-c\src\wolfSSL/wolfcrypt/src/random.c **** 
 244:..\acn-sdk-c\src\wolfSSL/wolfcrypt/src/random.c ****         if (wc_Sha256Update(&sha, (byte*)&bits, sizeof(bits)) != 0)
 245:..\acn-sdk-c\src\wolfSSL/wolfcrypt/src/random.c ****             return DRBG_FAILURE;
 246:..\acn-sdk-c\src\wolfSSL/wolfcrypt/src/random.c **** 
 247:..\acn-sdk-c\src\wolfSSL/wolfcrypt/src/random.c ****         /* churning V is the only string that doesn't have the type added */
 248:..\acn-sdk-c\src\wolfSSL/wolfcrypt/src/random.c ****         if (type != drbgInitV)
 249:..\acn-sdk-c\src\wolfSSL/wolfcrypt/src/random.c ****             if (wc_Sha256Update(&sha, &type, sizeof(type)) != 0)
 250:..\acn-sdk-c\src\wolfSSL/wolfcrypt/src/random.c ****                 return DRBG_FAILURE;
 251:..\acn-sdk-c\src\wolfSSL/wolfcrypt/src/random.c **** 
 252:..\acn-sdk-c\src\wolfSSL/wolfcrypt/src/random.c ****         if (wc_Sha256Update(&sha, inA, inASz) != 0)
 253:..\acn-sdk-c\src\wolfSSL/wolfcrypt/src/random.c ****             return DRBG_FAILURE;
 254:..\acn-sdk-c\src\wolfSSL/wolfcrypt/src/random.c **** 
 255:..\acn-sdk-c\src\wolfSSL/wolfcrypt/src/random.c ****         if (inB != NULL && inBSz > 0)
 256:..\acn-sdk-c\src\wolfSSL/wolfcrypt/src/random.c ****             if (wc_Sha256Update(&sha, inB, inBSz) != 0)
 257:..\acn-sdk-c\src\wolfSSL/wolfcrypt/src/random.c ****                 return DRBG_FAILURE;
 258:..\acn-sdk-c\src\wolfSSL/wolfcrypt/src/random.c **** 
 259:..\acn-sdk-c\src\wolfSSL/wolfcrypt/src/random.c ****         if (wc_Sha256Final(&sha, digest) != 0)
 260:..\acn-sdk-c\src\wolfSSL/wolfcrypt/src/random.c ****             return DRBG_FAILURE;
 261:..\acn-sdk-c\src\wolfSSL/wolfcrypt/src/random.c **** 
 262:..\acn-sdk-c\src\wolfSSL/wolfcrypt/src/random.c ****         if (outSz > OUTPUT_BLOCK_LEN) {
 263:..\acn-sdk-c\src\wolfSSL/wolfcrypt/src/random.c ****             XMEMCPY(out, digest, OUTPUT_BLOCK_LEN);
 264:..\acn-sdk-c\src\wolfSSL/wolfcrypt/src/random.c ****             outSz -= OUTPUT_BLOCK_LEN;
 265:..\acn-sdk-c\src\wolfSSL/wolfcrypt/src/random.c ****             out += OUTPUT_BLOCK_LEN;
 266:..\acn-sdk-c\src\wolfSSL/wolfcrypt/src/random.c ****         }
 267:..\acn-sdk-c\src\wolfSSL/wolfcrypt/src/random.c ****         else {
 268:..\acn-sdk-c\src\wolfSSL/wolfcrypt/src/random.c ****             XMEMCPY(out, digest, outSz);
 269:..\acn-sdk-c\src\wolfSSL/wolfcrypt/src/random.c ****         }
 270:..\acn-sdk-c\src\wolfSSL/wolfcrypt/src/random.c ****     }
 271:..\acn-sdk-c\src\wolfSSL/wolfcrypt/src/random.c ****     ForceZero(digest, sizeof(digest));
 272:..\acn-sdk-c\src\wolfSSL/wolfcrypt/src/random.c **** 
 273:..\acn-sdk-c\src\wolfSSL/wolfcrypt/src/random.c ****     return DRBG_SUCCESS;
ARM GAS  C:\Users\ddemidov\AppData\Local\Temp\ccBlgygZ.s 			page 10


 274:..\acn-sdk-c\src\wolfSSL/wolfcrypt/src/random.c **** }
 275:..\acn-sdk-c\src\wolfSSL/wolfcrypt/src/random.c **** 
 276:..\acn-sdk-c\src\wolfSSL/wolfcrypt/src/random.c **** 
 277:..\acn-sdk-c\src\wolfSSL/wolfcrypt/src/random.c **** /* Returns: DRBG_SUCCESS or DRBG_FAILURE */
 278:..\acn-sdk-c\src\wolfSSL/wolfcrypt/src/random.c **** static int Hash_DRBG_Reseed(DRBG* drbg, const byte* entropy, word32 entropySz)
 279:..\acn-sdk-c\src\wolfSSL/wolfcrypt/src/random.c **** {
 280:..\acn-sdk-c\src\wolfSSL/wolfcrypt/src/random.c ****     byte seed[DRBG_SEED_LEN];
 281:..\acn-sdk-c\src\wolfSSL/wolfcrypt/src/random.c **** 
 282:..\acn-sdk-c\src\wolfSSL/wolfcrypt/src/random.c ****     if (Hash_df(drbg, seed, sizeof(seed), drbgReseed, drbg->V, sizeof(drbg->V),
 283:..\acn-sdk-c\src\wolfSSL/wolfcrypt/src/random.c ****                                           entropy, entropySz) != DRBG_SUCCESS) {
 284:..\acn-sdk-c\src\wolfSSL/wolfcrypt/src/random.c ****         return DRBG_FAILURE;
 285:..\acn-sdk-c\src\wolfSSL/wolfcrypt/src/random.c ****     }
 286:..\acn-sdk-c\src\wolfSSL/wolfcrypt/src/random.c **** 
 287:..\acn-sdk-c\src\wolfSSL/wolfcrypt/src/random.c ****     XMEMCPY(drbg->V, seed, sizeof(drbg->V));
 288:..\acn-sdk-c\src\wolfSSL/wolfcrypt/src/random.c ****     ForceZero(seed, sizeof(seed));
 289:..\acn-sdk-c\src\wolfSSL/wolfcrypt/src/random.c **** 
 290:..\acn-sdk-c\src\wolfSSL/wolfcrypt/src/random.c ****     if (Hash_df(drbg, drbg->C, sizeof(drbg->C), drbgInitC, drbg->V,
 291:..\acn-sdk-c\src\wolfSSL/wolfcrypt/src/random.c ****                                     sizeof(drbg->V), NULL, 0) != DRBG_SUCCESS) {
 292:..\acn-sdk-c\src\wolfSSL/wolfcrypt/src/random.c ****         return DRBG_FAILURE;
 293:..\acn-sdk-c\src\wolfSSL/wolfcrypt/src/random.c ****     }
 294:..\acn-sdk-c\src\wolfSSL/wolfcrypt/src/random.c **** 
 295:..\acn-sdk-c\src\wolfSSL/wolfcrypt/src/random.c ****     drbg->reseedCtr = 1;
 296:..\acn-sdk-c\src\wolfSSL/wolfcrypt/src/random.c ****     drbg->lastBlock = 0;
 297:..\acn-sdk-c\src\wolfSSL/wolfcrypt/src/random.c ****     drbg->matchCount = 0;
 298:..\acn-sdk-c\src\wolfSSL/wolfcrypt/src/random.c ****     return DRBG_SUCCESS;
 299:..\acn-sdk-c\src\wolfSSL/wolfcrypt/src/random.c **** }
 300:..\acn-sdk-c\src\wolfSSL/wolfcrypt/src/random.c **** 
 301:..\acn-sdk-c\src\wolfSSL/wolfcrypt/src/random.c **** static INLINE void array_add_one(byte* data, word32 dataSz)
 302:..\acn-sdk-c\src\wolfSSL/wolfcrypt/src/random.c **** {
 303:..\acn-sdk-c\src\wolfSSL/wolfcrypt/src/random.c ****     int i;
 304:..\acn-sdk-c\src\wolfSSL/wolfcrypt/src/random.c **** 
 305:..\acn-sdk-c\src\wolfSSL/wolfcrypt/src/random.c ****     for (i = dataSz - 1; i >= 0; i--)
 306:..\acn-sdk-c\src\wolfSSL/wolfcrypt/src/random.c ****     {
 307:..\acn-sdk-c\src\wolfSSL/wolfcrypt/src/random.c ****         data[i]++;
 308:..\acn-sdk-c\src\wolfSSL/wolfcrypt/src/random.c ****         if (data[i] != 0) break;
 309:..\acn-sdk-c\src\wolfSSL/wolfcrypt/src/random.c ****     }
 310:..\acn-sdk-c\src\wolfSSL/wolfcrypt/src/random.c **** }
 311:..\acn-sdk-c\src\wolfSSL/wolfcrypt/src/random.c **** 
 312:..\acn-sdk-c\src\wolfSSL/wolfcrypt/src/random.c **** 
 313:..\acn-sdk-c\src\wolfSSL/wolfcrypt/src/random.c **** /* Returns: DRBG_SUCCESS or DRBG_FAILURE */
 314:..\acn-sdk-c\src\wolfSSL/wolfcrypt/src/random.c **** static int Hash_gen(DRBG* drbg, byte* out, word32 outSz, const byte* V)
 315:..\acn-sdk-c\src\wolfSSL/wolfcrypt/src/random.c **** {
 316:..\acn-sdk-c\src\wolfSSL/wolfcrypt/src/random.c ****     byte data[DRBG_SEED_LEN];
 317:..\acn-sdk-c\src\wolfSSL/wolfcrypt/src/random.c ****     int i;
 318:..\acn-sdk-c\src\wolfSSL/wolfcrypt/src/random.c ****     int len;
 319:..\acn-sdk-c\src\wolfSSL/wolfcrypt/src/random.c ****     word32 checkBlock;
 320:..\acn-sdk-c\src\wolfSSL/wolfcrypt/src/random.c ****     Sha256 sha;
 321:..\acn-sdk-c\src\wolfSSL/wolfcrypt/src/random.c ****     byte digest[SHA256_DIGEST_SIZE];
 322:..\acn-sdk-c\src\wolfSSL/wolfcrypt/src/random.c **** 
 323:..\acn-sdk-c\src\wolfSSL/wolfcrypt/src/random.c ****     /* Special case: outSz is 0 and out is NULL. wc_Generate a block to save for
 324:..\acn-sdk-c\src\wolfSSL/wolfcrypt/src/random.c ****      * the continuous test. */
 325:..\acn-sdk-c\src\wolfSSL/wolfcrypt/src/random.c **** 
 326:..\acn-sdk-c\src\wolfSSL/wolfcrypt/src/random.c ****     if (outSz == 0) outSz = 1;
 327:..\acn-sdk-c\src\wolfSSL/wolfcrypt/src/random.c **** 
 328:..\acn-sdk-c\src\wolfSSL/wolfcrypt/src/random.c ****     len = (outSz / OUTPUT_BLOCK_LEN) + ((outSz % OUTPUT_BLOCK_LEN) ? 1 : 0);
 329:..\acn-sdk-c\src\wolfSSL/wolfcrypt/src/random.c **** 
 330:..\acn-sdk-c\src\wolfSSL/wolfcrypt/src/random.c ****     XMEMCPY(data, V, sizeof(data));
ARM GAS  C:\Users\ddemidov\AppData\Local\Temp\ccBlgygZ.s 			page 11


 331:..\acn-sdk-c\src\wolfSSL/wolfcrypt/src/random.c ****     for (i = 0; i < len; i++) {
 332:..\acn-sdk-c\src\wolfSSL/wolfcrypt/src/random.c ****         if (wc_InitSha256(&sha) != 0 ||
 333:..\acn-sdk-c\src\wolfSSL/wolfcrypt/src/random.c ****             wc_Sha256Update(&sha, data, sizeof(data)) != 0 ||
 334:..\acn-sdk-c\src\wolfSSL/wolfcrypt/src/random.c ****             wc_Sha256Final(&sha, digest) != 0) {
 335:..\acn-sdk-c\src\wolfSSL/wolfcrypt/src/random.c **** 
 336:..\acn-sdk-c\src\wolfSSL/wolfcrypt/src/random.c ****             return DRBG_FAILURE;
 337:..\acn-sdk-c\src\wolfSSL/wolfcrypt/src/random.c ****         }
 338:..\acn-sdk-c\src\wolfSSL/wolfcrypt/src/random.c **** 
 339:..\acn-sdk-c\src\wolfSSL/wolfcrypt/src/random.c ****         XMEMCPY(&checkBlock, digest, sizeof(word32));
 340:..\acn-sdk-c\src\wolfSSL/wolfcrypt/src/random.c ****         if (drbg->reseedCtr > 1 && checkBlock == drbg->lastBlock) {
 341:..\acn-sdk-c\src\wolfSSL/wolfcrypt/src/random.c ****             if (drbg->matchCount == 1) {
 342:..\acn-sdk-c\src\wolfSSL/wolfcrypt/src/random.c ****                 return DRBG_CONT_FAILURE;
 343:..\acn-sdk-c\src\wolfSSL/wolfcrypt/src/random.c ****             }
 344:..\acn-sdk-c\src\wolfSSL/wolfcrypt/src/random.c ****             else {
 345:..\acn-sdk-c\src\wolfSSL/wolfcrypt/src/random.c ****                 if (i == len) {
 346:..\acn-sdk-c\src\wolfSSL/wolfcrypt/src/random.c ****                     len++;
 347:..\acn-sdk-c\src\wolfSSL/wolfcrypt/src/random.c ****                 }
 348:..\acn-sdk-c\src\wolfSSL/wolfcrypt/src/random.c ****                 drbg->matchCount = 1;
 349:..\acn-sdk-c\src\wolfSSL/wolfcrypt/src/random.c ****             }
 350:..\acn-sdk-c\src\wolfSSL/wolfcrypt/src/random.c ****         }
 351:..\acn-sdk-c\src\wolfSSL/wolfcrypt/src/random.c ****         else {
 352:..\acn-sdk-c\src\wolfSSL/wolfcrypt/src/random.c ****             drbg->matchCount = 0;
 353:..\acn-sdk-c\src\wolfSSL/wolfcrypt/src/random.c ****             drbg->lastBlock = checkBlock;
 354:..\acn-sdk-c\src\wolfSSL/wolfcrypt/src/random.c ****         }
 355:..\acn-sdk-c\src\wolfSSL/wolfcrypt/src/random.c **** 
 356:..\acn-sdk-c\src\wolfSSL/wolfcrypt/src/random.c ****         if (outSz >= OUTPUT_BLOCK_LEN) {
 357:..\acn-sdk-c\src\wolfSSL/wolfcrypt/src/random.c ****             XMEMCPY(out, digest, OUTPUT_BLOCK_LEN);
 358:..\acn-sdk-c\src\wolfSSL/wolfcrypt/src/random.c ****             outSz -= OUTPUT_BLOCK_LEN;
 359:..\acn-sdk-c\src\wolfSSL/wolfcrypt/src/random.c ****             out += OUTPUT_BLOCK_LEN;
 360:..\acn-sdk-c\src\wolfSSL/wolfcrypt/src/random.c ****             array_add_one(data, DRBG_SEED_LEN);
 361:..\acn-sdk-c\src\wolfSSL/wolfcrypt/src/random.c ****         }
 362:..\acn-sdk-c\src\wolfSSL/wolfcrypt/src/random.c ****         else if (out != NULL && outSz != 0) {
 363:..\acn-sdk-c\src\wolfSSL/wolfcrypt/src/random.c ****             XMEMCPY(out, digest, outSz);
 364:..\acn-sdk-c\src\wolfSSL/wolfcrypt/src/random.c ****             outSz = 0;
 365:..\acn-sdk-c\src\wolfSSL/wolfcrypt/src/random.c ****         }
 366:..\acn-sdk-c\src\wolfSSL/wolfcrypt/src/random.c ****     }
 367:..\acn-sdk-c\src\wolfSSL/wolfcrypt/src/random.c ****     ForceZero(data, sizeof(data));
 368:..\acn-sdk-c\src\wolfSSL/wolfcrypt/src/random.c **** 
 369:..\acn-sdk-c\src\wolfSSL/wolfcrypt/src/random.c ****     return DRBG_SUCCESS;
 370:..\acn-sdk-c\src\wolfSSL/wolfcrypt/src/random.c **** }
 371:..\acn-sdk-c\src\wolfSSL/wolfcrypt/src/random.c **** 
 372:..\acn-sdk-c\src\wolfSSL/wolfcrypt/src/random.c **** 
 373:..\acn-sdk-c\src\wolfSSL/wolfcrypt/src/random.c **** static INLINE void array_add(byte* d, word32 dLen, const byte* s, word32 sLen)
 374:..\acn-sdk-c\src\wolfSSL/wolfcrypt/src/random.c **** {
 375:..\acn-sdk-c\src\wolfSSL/wolfcrypt/src/random.c ****     word16 carry = 0;
 376:..\acn-sdk-c\src\wolfSSL/wolfcrypt/src/random.c **** 
 377:..\acn-sdk-c\src\wolfSSL/wolfcrypt/src/random.c ****     if (dLen > 0 && sLen > 0 && dLen >= sLen) {
 378:..\acn-sdk-c\src\wolfSSL/wolfcrypt/src/random.c ****         int sIdx, dIdx;
 379:..\acn-sdk-c\src\wolfSSL/wolfcrypt/src/random.c **** 
 380:..\acn-sdk-c\src\wolfSSL/wolfcrypt/src/random.c ****         for (sIdx = sLen - 1, dIdx = dLen - 1; sIdx >= 0; dIdx--, sIdx--)
 381:..\acn-sdk-c\src\wolfSSL/wolfcrypt/src/random.c ****         {
 382:..\acn-sdk-c\src\wolfSSL/wolfcrypt/src/random.c ****             carry += d[dIdx] + s[sIdx];
 383:..\acn-sdk-c\src\wolfSSL/wolfcrypt/src/random.c ****             d[dIdx] = (byte)carry;
 384:..\acn-sdk-c\src\wolfSSL/wolfcrypt/src/random.c ****             carry >>= 8;
 385:..\acn-sdk-c\src\wolfSSL/wolfcrypt/src/random.c ****         }
 386:..\acn-sdk-c\src\wolfSSL/wolfcrypt/src/random.c **** 
 387:..\acn-sdk-c\src\wolfSSL/wolfcrypt/src/random.c ****         for (; carry != 0 && dIdx >= 0; dIdx--) {
ARM GAS  C:\Users\ddemidov\AppData\Local\Temp\ccBlgygZ.s 			page 12


 388:..\acn-sdk-c\src\wolfSSL/wolfcrypt/src/random.c ****             carry += d[dIdx];
 389:..\acn-sdk-c\src\wolfSSL/wolfcrypt/src/random.c ****             d[dIdx] = (byte)carry;
 390:..\acn-sdk-c\src\wolfSSL/wolfcrypt/src/random.c ****             carry >>= 8;
 391:..\acn-sdk-c\src\wolfSSL/wolfcrypt/src/random.c ****         }
 392:..\acn-sdk-c\src\wolfSSL/wolfcrypt/src/random.c ****     }
 393:..\acn-sdk-c\src\wolfSSL/wolfcrypt/src/random.c **** }
 394:..\acn-sdk-c\src\wolfSSL/wolfcrypt/src/random.c **** 
 395:..\acn-sdk-c\src\wolfSSL/wolfcrypt/src/random.c **** 
 396:..\acn-sdk-c\src\wolfSSL/wolfcrypt/src/random.c **** /* Returns: DRBG_SUCCESS, DRBG_NEED_RESEED, or DRBG_FAILURE */
 397:..\acn-sdk-c\src\wolfSSL/wolfcrypt/src/random.c **** static int Hash_DRBG_Generate(DRBG* drbg, byte* out, word32 outSz)
 398:..\acn-sdk-c\src\wolfSSL/wolfcrypt/src/random.c **** {
 399:..\acn-sdk-c\src\wolfSSL/wolfcrypt/src/random.c ****     int ret = DRBG_NEED_RESEED;
 400:..\acn-sdk-c\src\wolfSSL/wolfcrypt/src/random.c ****     Sha256 sha;
 401:..\acn-sdk-c\src\wolfSSL/wolfcrypt/src/random.c ****     byte digest[SHA256_DIGEST_SIZE];
 402:..\acn-sdk-c\src\wolfSSL/wolfcrypt/src/random.c **** 
 403:..\acn-sdk-c\src\wolfSSL/wolfcrypt/src/random.c ****     if (drbg->reseedCtr != RESEED_INTERVAL) {
 404:..\acn-sdk-c\src\wolfSSL/wolfcrypt/src/random.c ****         byte type = drbgGenerateH;
 405:..\acn-sdk-c\src\wolfSSL/wolfcrypt/src/random.c ****         word32 reseedCtr = drbg->reseedCtr;
 406:..\acn-sdk-c\src\wolfSSL/wolfcrypt/src/random.c **** 
 407:..\acn-sdk-c\src\wolfSSL/wolfcrypt/src/random.c ****         ret = Hash_gen(drbg, out, outSz, drbg->V);
 408:..\acn-sdk-c\src\wolfSSL/wolfcrypt/src/random.c ****         if (ret == DRBG_SUCCESS) {
 409:..\acn-sdk-c\src\wolfSSL/wolfcrypt/src/random.c ****             if (wc_InitSha256(&sha) != 0 ||
 410:..\acn-sdk-c\src\wolfSSL/wolfcrypt/src/random.c ****                 wc_Sha256Update(&sha, &type, sizeof(type)) != 0 ||
 411:..\acn-sdk-c\src\wolfSSL/wolfcrypt/src/random.c ****                 wc_Sha256Update(&sha, drbg->V, sizeof(drbg->V)) != 0 ||
 412:..\acn-sdk-c\src\wolfSSL/wolfcrypt/src/random.c ****                 wc_Sha256Final(&sha, digest) != 0) {
 413:..\acn-sdk-c\src\wolfSSL/wolfcrypt/src/random.c **** 
 414:..\acn-sdk-c\src\wolfSSL/wolfcrypt/src/random.c ****                 ret = DRBG_FAILURE;
 415:..\acn-sdk-c\src\wolfSSL/wolfcrypt/src/random.c ****             }
 416:..\acn-sdk-c\src\wolfSSL/wolfcrypt/src/random.c ****             else {
 417:..\acn-sdk-c\src\wolfSSL/wolfcrypt/src/random.c ****                 array_add(drbg->V, sizeof(drbg->V), digest, sizeof(digest));
 418:..\acn-sdk-c\src\wolfSSL/wolfcrypt/src/random.c ****                 array_add(drbg->V, sizeof(drbg->V), drbg->C, sizeof(drbg->C));
 419:..\acn-sdk-c\src\wolfSSL/wolfcrypt/src/random.c ****                 #ifdef LITTLE_ENDIAN_ORDER
 420:..\acn-sdk-c\src\wolfSSL/wolfcrypt/src/random.c ****                     reseedCtr = ByteReverseWord32(reseedCtr);
 421:..\acn-sdk-c\src\wolfSSL/wolfcrypt/src/random.c ****                 #endif
 422:..\acn-sdk-c\src\wolfSSL/wolfcrypt/src/random.c ****                 array_add(drbg->V, sizeof(drbg->V),
 423:..\acn-sdk-c\src\wolfSSL/wolfcrypt/src/random.c ****                                           (byte*)&reseedCtr, sizeof(reseedCtr));
 424:..\acn-sdk-c\src\wolfSSL/wolfcrypt/src/random.c ****                 ret = DRBG_SUCCESS;
 425:..\acn-sdk-c\src\wolfSSL/wolfcrypt/src/random.c ****             }
 426:..\acn-sdk-c\src\wolfSSL/wolfcrypt/src/random.c ****             drbg->reseedCtr++;
 427:..\acn-sdk-c\src\wolfSSL/wolfcrypt/src/random.c ****         }
 428:..\acn-sdk-c\src\wolfSSL/wolfcrypt/src/random.c ****     }
 429:..\acn-sdk-c\src\wolfSSL/wolfcrypt/src/random.c ****     ForceZero(digest, sizeof(digest));
 430:..\acn-sdk-c\src\wolfSSL/wolfcrypt/src/random.c **** 
 431:..\acn-sdk-c\src\wolfSSL/wolfcrypt/src/random.c ****     return ret;
 432:..\acn-sdk-c\src\wolfSSL/wolfcrypt/src/random.c **** }
 433:..\acn-sdk-c\src\wolfSSL/wolfcrypt/src/random.c **** 
 434:..\acn-sdk-c\src\wolfSSL/wolfcrypt/src/random.c **** 
 435:..\acn-sdk-c\src\wolfSSL/wolfcrypt/src/random.c **** /* Returns: DRBG_SUCCESS or DRBG_FAILURE */
 436:..\acn-sdk-c\src\wolfSSL/wolfcrypt/src/random.c **** static int Hash_DRBG_Instantiate(DRBG* drbg, const byte* seed, word32 seedSz,
 437:..\acn-sdk-c\src\wolfSSL/wolfcrypt/src/random.c ****                                              const byte* nonce, word32 nonceSz)
 438:..\acn-sdk-c\src\wolfSSL/wolfcrypt/src/random.c **** {
 439:..\acn-sdk-c\src\wolfSSL/wolfcrypt/src/random.c ****     int ret = DRBG_FAILURE;
 440:..\acn-sdk-c\src\wolfSSL/wolfcrypt/src/random.c **** 
 441:..\acn-sdk-c\src\wolfSSL/wolfcrypt/src/random.c ****     XMEMSET(drbg, 0, sizeof(DRBG));
 442:..\acn-sdk-c\src\wolfSSL/wolfcrypt/src/random.c **** 
 443:..\acn-sdk-c\src\wolfSSL/wolfcrypt/src/random.c ****     if (Hash_df(drbg, drbg->V, sizeof(drbg->V), drbgInitV, seed, seedSz,
 444:..\acn-sdk-c\src\wolfSSL/wolfcrypt/src/random.c ****                                               nonce, nonceSz) == DRBG_SUCCESS &&
ARM GAS  C:\Users\ddemidov\AppData\Local\Temp\ccBlgygZ.s 			page 13


 445:..\acn-sdk-c\src\wolfSSL/wolfcrypt/src/random.c ****         Hash_df(drbg, drbg->C, sizeof(drbg->C), drbgInitC, drbg->V,
 446:..\acn-sdk-c\src\wolfSSL/wolfcrypt/src/random.c ****                                     sizeof(drbg->V), NULL, 0) == DRBG_SUCCESS) {
 447:..\acn-sdk-c\src\wolfSSL/wolfcrypt/src/random.c **** 
 448:..\acn-sdk-c\src\wolfSSL/wolfcrypt/src/random.c ****         drbg->reseedCtr = 1;
 449:..\acn-sdk-c\src\wolfSSL/wolfcrypt/src/random.c ****         drbg->lastBlock = 0;
 450:..\acn-sdk-c\src\wolfSSL/wolfcrypt/src/random.c ****         drbg->matchCount = 0;
 451:..\acn-sdk-c\src\wolfSSL/wolfcrypt/src/random.c ****         ret = DRBG_SUCCESS;
 452:..\acn-sdk-c\src\wolfSSL/wolfcrypt/src/random.c ****     }
 453:..\acn-sdk-c\src\wolfSSL/wolfcrypt/src/random.c **** 
 454:..\acn-sdk-c\src\wolfSSL/wolfcrypt/src/random.c ****     return ret;
 455:..\acn-sdk-c\src\wolfSSL/wolfcrypt/src/random.c **** }
 456:..\acn-sdk-c\src\wolfSSL/wolfcrypt/src/random.c **** 
 457:..\acn-sdk-c\src\wolfSSL/wolfcrypt/src/random.c **** 
 458:..\acn-sdk-c\src\wolfSSL/wolfcrypt/src/random.c **** /* Returns: DRBG_SUCCESS or DRBG_FAILURE */
 459:..\acn-sdk-c\src\wolfSSL/wolfcrypt/src/random.c **** static int Hash_DRBG_Uninstantiate(DRBG* drbg)
 460:..\acn-sdk-c\src\wolfSSL/wolfcrypt/src/random.c **** {
  57              		.loc 2 460 0
  58              		.cfi_startproc
  59              	.LVL5:
  60 0000 10B5     		push	{r4, lr}
  61              		.cfi_def_cfa_offset 8
  62              		.cfi_offset 4, -8
  63              		.cfi_offset 14, -4
  64              		.loc 2 460 0
  65 0002 041C     		mov	r4, r0
 461:..\acn-sdk-c\src\wolfSSL/wolfcrypt/src/random.c ****     word32 i;
 462:..\acn-sdk-c\src\wolfSSL/wolfcrypt/src/random.c ****     int    compareSum = 0;
 463:..\acn-sdk-c\src\wolfSSL/wolfcrypt/src/random.c ****     byte*  compareDrbg = (byte*)drbg;
 464:..\acn-sdk-c\src\wolfSSL/wolfcrypt/src/random.c **** 
 465:..\acn-sdk-c\src\wolfSSL/wolfcrypt/src/random.c ****     ForceZero(drbg, sizeof(DRBG));
  66              		.loc 2 465 0
  67 0004 7821     		mov	r1, #120
  68 0006 FFF7FEFF 		bl	ForceZero
  69              	.LVL6:
  70 000a 221C     		mov	r2, r4
  71 000c 201C     		mov	r0, r4
 462:..\acn-sdk-c\src\wolfSSL/wolfcrypt/src/random.c ****     byte*  compareDrbg = (byte*)drbg;
  72              		.loc 2 462 0
  73 000e 0023     		mov	r3, #0
  74 0010 7832     		add	r2, r2, #120
  75              	.LVL7:
  76              	.L7:
 466:..\acn-sdk-c\src\wolfSSL/wolfcrypt/src/random.c **** 
 467:..\acn-sdk-c\src\wolfSSL/wolfcrypt/src/random.c ****     for (i = 0; i < sizeof(DRBG); i++)
 468:..\acn-sdk-c\src\wolfSSL/wolfcrypt/src/random.c ****         compareSum |= compareDrbg[i] ^ 0;
  77              		.loc 2 468 0 discriminator 3
  78 0012 0178     		ldrb	r1, [r0]
  79 0014 0130     		add	r0, r0, #1
  80              	.LVL8:
  81 0016 0B43     		orr	r3, r1
  82              	.LVL9:
 467:..\acn-sdk-c\src\wolfSSL/wolfcrypt/src/random.c ****         compareSum |= compareDrbg[i] ^ 0;
  83              		.loc 2 467 0 discriminator 3
  84 0018 9042     		cmp	r0, r2
  85 001a FAD1     		bne	.L7
 469:..\acn-sdk-c\src\wolfSSL/wolfcrypt/src/random.c **** 
 470:..\acn-sdk-c\src\wolfSSL/wolfcrypt/src/random.c ****     return (compareSum == 0) ? DRBG_SUCCESS : DRBG_FAILURE;
ARM GAS  C:\Users\ddemidov\AppData\Local\Temp\ccBlgygZ.s 			page 14


  86              		.loc 2 470 0
  87 001c 181C     		mov	r0, r3
  88 001e 431E     		sub	r3, r0, #1
  89 0020 9841     		sbc	r0, r0, r3
  90              	.LVL10:
 471:..\acn-sdk-c\src\wolfSSL/wolfcrypt/src/random.c **** }
  91              		.loc 2 471 0
  92              		@ sp needed
 470:..\acn-sdk-c\src\wolfSSL/wolfcrypt/src/random.c **** }
  93              		.loc 2 470 0
  94 0022 4000     		lsl	r0, r0, #1
  95              	.LVL11:
  96              		.loc 2 471 0
  97 0024 10BD     		pop	{r4, pc}
  98              		.cfi_endproc
  99              	.LFE19:
 100              		.size	Hash_DRBG_Uninstantiate, .-Hash_DRBG_Uninstantiate
 101              		.section	.text.unlikely.array_add.part.0.constprop.8,"ax",%progbits
 102              		.align	1
 103              		.code	16
 104              		.thumb_func
 105              		.type	array_add.part.0.constprop.8, %function
 106              	array_add.part.0.constprop.8:
 107              	.LFB30:
 373:..\acn-sdk-c\src\wolfSSL/wolfcrypt/src/random.c **** {
 108              		.loc 2 373 0
 109              		.cfi_startproc
 110              	.LVL12:
 111 0000 70B5     		push	{r4, r5, r6, lr}
 112              		.cfi_def_cfa_offset 16
 113              		.cfi_offset 4, -16
 114              		.cfi_offset 5, -12
 115              		.cfi_offset 6, -8
 116              		.cfi_offset 14, -4
 375:..\acn-sdk-c\src\wolfSSL/wolfcrypt/src/random.c **** 
 117              		.loc 2 375 0
 118 0002 0023     		mov	r3, #0
 119              	.LBB13:
 380:..\acn-sdk-c\src\wolfSSL/wolfcrypt/src/random.c ****         {
 120              		.loc 2 380 0
 121 0004 3624     		mov	r4, #54
 122 0006 013A     		sub	r2, r2, #1
 123              	.LVL13:
 124              	.L11:
 125 0008 002A     		cmp	r2, #0
 126 000a 11DB     		blt	.L13
 382:..\acn-sdk-c\src\wolfSSL/wolfcrypt/src/random.c ****             d[dIdx] = (byte)carry;
 127              		.loc 2 382 0
 128 000c 065D     		ldrb	r6, [r0, r4]
 129 000e 8D5C     		ldrb	r5, [r1, r2]
 130 0010 9B19     		add	r3, r3, r6
 131              	.LVL14:
 132 0012 5B19     		add	r3, r3, r5
 133              	.LVL15:
 383:..\acn-sdk-c\src\wolfSSL/wolfcrypt/src/random.c ****             carry >>= 8;
 134              		.loc 2 383 0
 135 0014 0355     		strb	r3, [r0, r4]
ARM GAS  C:\Users\ddemidov\AppData\Local\Temp\ccBlgygZ.s 			page 15


 384:..\acn-sdk-c\src\wolfSSL/wolfcrypt/src/random.c ****         }
 136              		.loc 2 384 0
 137 0016 1B0A     		lsr	r3, r3, #8
 138              	.LVL16:
 139 0018 9BB2     		uxth	r3, r3
 140              	.LVL17:
 380:..\acn-sdk-c\src\wolfSSL/wolfcrypt/src/random.c ****         {
 141              		.loc 2 380 0
 142 001a 013C     		sub	r4, r4, #1
 143              	.LVL18:
 144 001c 013A     		sub	r2, r2, #1
 145              	.LVL19:
 146 001e F3E7     		b	.L11
 147              	.L19:
 387:..\acn-sdk-c\src\wolfSSL/wolfcrypt/src/random.c ****             carry += d[dIdx];
 148              		.loc 2 387 0
 149 0020 002C     		cmp	r4, #0
 150 0022 07DB     		blt	.L10
 388:..\acn-sdk-c\src\wolfSSL/wolfcrypt/src/random.c ****             d[dIdx] = (byte)carry;
 151              		.loc 2 388 0
 152 0024 035D     		ldrb	r3, [r0, r4]
 153              	.LVL20:
 154 0026 0133     		add	r3, r3, #1
 155              	.LVL21:
 389:..\acn-sdk-c\src\wolfSSL/wolfcrypt/src/random.c ****             carry >>= 8;
 156              		.loc 2 389 0
 157 0028 0355     		strb	r3, [r0, r4]
 390:..\acn-sdk-c\src\wolfSSL/wolfcrypt/src/random.c ****         }
 158              		.loc 2 390 0
 159 002a 1B0A     		lsr	r3, r3, #8
 160              	.LVL22:
 161 002c 9BB2     		uxth	r3, r3
 162              	.LVL23:
 387:..\acn-sdk-c\src\wolfSSL/wolfcrypt/src/random.c ****             carry += d[dIdx];
 163              		.loc 2 387 0
 164 002e 013C     		sub	r4, r4, #1
 165              	.LVL24:
 166              	.L13:
 167 0030 002B     		cmp	r3, #0
 168 0032 F5D1     		bne	.L19
 169              	.L10:
 170              	.LBE13:
 393:..\acn-sdk-c\src\wolfSSL/wolfcrypt/src/random.c **** 
 171              		.loc 2 393 0
 172              		@ sp needed
 173              	.LVL25:
 174 0034 70BD     		pop	{r4, r5, r6, pc}
 175              		.cfi_endproc
 176              	.LFE30:
 177              		.size	array_add.part.0.constprop.8, .-array_add.part.0.constprop.8
 178              		.section	.text.Hash_df.isra.1.constprop.7,"ax",%progbits
 179              		.align	1
 180              		.code	16
 181              		.thumb_func
 182              		.type	Hash_df.isra.1.constprop.7, %function
 183              	Hash_df.isra.1.constprop.7:
 184              	.LFB31:
ARM GAS  C:\Users\ddemidov\AppData\Local\Temp\ccBlgygZ.s 			page 16


 218:..\acn-sdk-c\src\wolfSSL/wolfcrypt/src/random.c ****                                                   const byte* inA, word32 inASz,
 185              		.loc 2 218 0
 186              		.cfi_startproc
 187              	.LVL26:
 188 0000 F0B5     		push	{r4, r5, r6, r7, lr}
 189              		.cfi_def_cfa_offset 20
 190              		.cfi_offset 4, -20
 191              		.cfi_offset 5, -16
 192              		.cfi_offset 6, -12
 193              		.cfi_offset 7, -8
 194              		.cfi_offset 14, -4
 195 0002 ABB0     		sub	sp, sp, #172
 196              		.cfi_def_cfa_offset 192
 218:..\acn-sdk-c\src\wolfSSL/wolfcrypt/src/random.c ****                                                   const byte* inA, word32 inASz,
 197              		.loc 2 218 0
 198 0004 0293     		str	r3, [sp, #8]
 199 0006 02AB     		add	r3, sp, #8
 200              	.LVL27:
 201 0008 D971     		strb	r1, [r3, #7]
 231:..\acn-sdk-c\src\wolfSSL/wolfcrypt/src/random.c ****     #endif
 202              		.loc 2 231 0
 203 000a 344B     		ldr	r3, .L40
 204              	.LVL28:
 218:..\acn-sdk-c\src\wolfSSL/wolfcrypt/src/random.c ****                                                   const byte* inA, word32 inASz,
 205              		.loc 2 218 0
 206 000c 0192     		str	r2, [sp, #4]
 231:..\acn-sdk-c\src\wolfSSL/wolfcrypt/src/random.c ****     #endif
 207              		.loc 2 231 0
 208 000e 0693     		str	r3, [sp, #24]
 209              	.LVL29:
 236:..\acn-sdk-c\src\wolfSSL/wolfcrypt/src/random.c ****     {
 210              		.loc 2 236 0
 211 0010 0F23     		mov	r3, #15
 212 0012 0122     		mov	r2, #1
 213              	.LVL30:
 218:..\acn-sdk-c\src\wolfSSL/wolfcrypt/src/random.c ****                                                   const byte* inA, word32 inASz,
 214              		.loc 2 218 0
 215 0014 041C     		mov	r4, r0
 236:..\acn-sdk-c\src\wolfSSL/wolfcrypt/src/random.c ****     {
 216              		.loc 2 236 0
 217 0016 0227     		mov	r7, #2
 218 0018 3726     		mov	r6, #55
 219 001a 02A9     		add	r1, sp, #8
 220              	.LVL31:
 221 001c 5B18     		add	r3, r3, r1
 222 001e 1A70     		strb	r2, [r3]
 223              	.LVL32:
 224              	.L32:
 238:..\acn-sdk-c\src\wolfSSL/wolfcrypt/src/random.c ****             return DRBG_FAILURE;
 225              		.loc 2 238 0
 226 0020 0FA8     		add	r0, sp, #60
 227 0022 FFF7FEFF 		bl	wc_InitSha256
 228              	.LVL33:
 229 0026 0028     		cmp	r0, #0
 230 0028 01D0     		beq	.L21
 231              	.L23:
 239:..\acn-sdk-c\src\wolfSSL/wolfcrypt/src/random.c **** 
ARM GAS  C:\Users\ddemidov\AppData\Local\Temp\ccBlgygZ.s 			page 17


 232              		.loc 2 239 0
 233 002a 0225     		mov	r5, #2
 234 002c 53E0     		b	.L22
 235              	.L21:
 241:..\acn-sdk-c\src\wolfSSL/wolfcrypt/src/random.c ****             return DRBG_FAILURE;
 236              		.loc 2 241 0
 237 002e 0F21     		mov	r1, #15
 238 0030 02AB     		add	r3, sp, #8
 239              	.LVL34:
 240 0032 0FA8     		add	r0, sp, #60
 241 0034 C918     		add	r1, r1, r3
 242 0036 0122     		mov	r2, #1
 243 0038 FFF7FEFF 		bl	wc_Sha256Update
 244              	.LVL35:
 245 003c 0028     		cmp	r0, #0
 246 003e F4D1     		bne	.L23
 244:..\acn-sdk-c\src\wolfSSL/wolfcrypt/src/random.c ****             return DRBG_FAILURE;
 247              		.loc 2 244 0
 248 0040 0FA8     		add	r0, sp, #60
 249 0042 06A9     		add	r1, sp, #24
 250 0044 0422     		mov	r2, #4
 251 0046 FFF7FEFF 		bl	wc_Sha256Update
 252              	.LVL36:
 253 004a 0028     		cmp	r0, #0
 254 004c EDD1     		bne	.L23
 248:..\acn-sdk-c\src\wolfSSL/wolfcrypt/src/random.c ****             if (wc_Sha256Update(&sha, &type, sizeof(type)) != 0)
 255              		.loc 2 248 0
 256 004e 02AB     		add	r3, sp, #8
 257              	.LVL37:
 258 0050 D91D     		add	r1, r3, #7
 259              	.LVL38:
 260 0052 0B78     		ldrb	r3, [r1]
 261              	.LVL39:
 262 0054 042B     		cmp	r3, #4
 263 0056 07D1     		bne	.L24
 264              	.LVL40:
 265              	.L26:
 252:..\acn-sdk-c\src\wolfSSL/wolfcrypt/src/random.c ****             return DRBG_FAILURE;
 266              		.loc 2 252 0
 267 0058 0FA8     		add	r0, sp, #60
 268 005a 0199     		ldr	r1, [sp, #4]
 269 005c 029A     		ldr	r2, [sp, #8]
 270 005e FFF7FEFF 		bl	wc_Sha256Update
 271              	.LVL41:
 272 0062 0028     		cmp	r0, #0
 273 0064 07D0     		beq	.L37
 274 0066 E0E7     		b	.L23
 275              	.LVL42:
 276              	.L24:
 249:..\acn-sdk-c\src\wolfSSL/wolfcrypt/src/random.c ****                 return DRBG_FAILURE;
 277              		.loc 2 249 0
 278 0068 0FA8     		add	r0, sp, #60
 279 006a 0122     		mov	r2, #1
 280 006c FFF7FEFF 		bl	wc_Sha256Update
 281              	.LVL43:
 282 0070 0028     		cmp	r0, #0
 283 0072 F1D0     		beq	.L26
ARM GAS  C:\Users\ddemidov\AppData\Local\Temp\ccBlgygZ.s 			page 18


 284 0074 D9E7     		b	.L23
 285              	.L37:
 255:..\acn-sdk-c\src\wolfSSL/wolfcrypt/src/random.c ****             if (wc_Sha256Update(&sha, inB, inBSz) != 0)
 286              		.loc 2 255 0
 287 0076 309B     		ldr	r3, [sp, #192]
 288 0078 002B     		cmp	r3, #0
 289 007a 06D1     		bne	.L27
 290              	.L29:
 259:..\acn-sdk-c\src\wolfSSL/wolfcrypt/src/random.c ****             return DRBG_FAILURE;
 291              		.loc 2 259 0
 292 007c 0FA8     		add	r0, sp, #60
 293 007e 07A9     		add	r1, sp, #28
 294 0080 FFF7FEFF 		bl	wc_Sha256Final
 295              	.LVL44:
 296 0084 051E     		sub	r5, r0, #0
 297 0086 0BD0     		beq	.L38
 298 0088 CFE7     		b	.L23
 299              	.L27:
 255:..\acn-sdk-c\src\wolfSSL/wolfcrypt/src/random.c ****             if (wc_Sha256Update(&sha, inB, inBSz) != 0)
 300              		.loc 2 255 0
 301 008a 319B     		ldr	r3, [sp, #196]
 302 008c 002B     		cmp	r3, #0
 303 008e F5D0     		beq	.L29
 256:..\acn-sdk-c\src\wolfSSL/wolfcrypt/src/random.c ****                 return DRBG_FAILURE;
 304              		.loc 2 256 0
 305 0090 0FA8     		add	r0, sp, #60
 306 0092 3099     		ldr	r1, [sp, #192]
 307 0094 1A1C     		mov	r2, r3
 308 0096 FFF7FEFF 		bl	wc_Sha256Update
 309              	.LVL45:
 310 009a 0028     		cmp	r0, #0
 311 009c EED0     		beq	.L29
 312 009e C4E7     		b	.L23
 313              	.L38:
 263:..\acn-sdk-c\src\wolfSSL/wolfcrypt/src/random.c ****             outSz -= OUTPUT_BLOCK_LEN;
 314              		.loc 2 263 0
 315 00a0 201C     		mov	r0, r4
 316 00a2 07A9     		add	r1, sp, #28
 262:..\acn-sdk-c\src\wolfSSL/wolfcrypt/src/random.c ****             XMEMCPY(out, digest, OUTPUT_BLOCK_LEN);
 317              		.loc 2 262 0
 318 00a4 202E     		cmp	r6, #32
 319 00a6 05D9     		bls	.L30
 320              	.LVL46:
 263:..\acn-sdk-c\src\wolfSSL/wolfcrypt/src/random.c ****             outSz -= OUTPUT_BLOCK_LEN;
 321              		.loc 2 263 0
 322 00a8 2022     		mov	r2, #32
 323 00aa FFF7FEFF 		bl	memcpy
 324              	.LVL47:
 265:..\acn-sdk-c\src\wolfSSL/wolfcrypt/src/random.c ****         }
 325              		.loc 2 265 0
 326 00ae 2034     		add	r4, r4, #32
 327              	.LVL48:
 264:..\acn-sdk-c\src\wolfSSL/wolfcrypt/src/random.c ****             out += OUTPUT_BLOCK_LEN;
 328              		.loc 2 264 0
 329 00b0 1726     		mov	r6, #23
 330 00b2 02E0     		b	.L31
 331              	.LVL49:
ARM GAS  C:\Users\ddemidov\AppData\Local\Temp\ccBlgygZ.s 			page 19


 332              	.L30:
 268:..\acn-sdk-c\src\wolfSSL/wolfcrypt/src/random.c ****         }
 333              		.loc 2 268 0
 334 00b4 321C     		mov	r2, r6
 335 00b6 FFF7FEFF 		bl	memcpy
 336              	.LVL50:
 337              	.L31:
 236:..\acn-sdk-c\src\wolfSSL/wolfcrypt/src/random.c ****     {
 338              		.loc 2 236 0
 339 00ba 0F22     		mov	r2, #15
 340 00bc 02AB     		add	r3, sp, #8
 341              	.LVL51:
 342 00be D218     		add	r2, r2, r3
 343 00c0 1378     		ldrb	r3, [r2]
 344              	.LVL52:
 345 00c2 0133     		add	r3, r3, #1
 346 00c4 1370     		strb	r3, [r2]
 347 00c6 012F     		cmp	r7, #1
 348 00c8 01D0     		beq	.L39
 349 00ca 0127     		mov	r7, #1
 350              	.LVL53:
 351 00cc A8E7     		b	.L32
 352              	.LVL54:
 353              	.L39:
 271:..\acn-sdk-c\src\wolfSSL/wolfcrypt/src/random.c **** 
 354              		.loc 2 271 0
 355 00ce 07A8     		add	r0, sp, #28
 356 00d0 2021     		mov	r1, #32
 357 00d2 FFF7FEFF 		bl	ForceZero
 358              	.LVL55:
 359              	.L22:
 274:..\acn-sdk-c\src\wolfSSL/wolfcrypt/src/random.c **** 
 360              		.loc 2 274 0
 361 00d6 281C     		mov	r0, r5
 362 00d8 2BB0     		add	sp, sp, #172
 363              		@ sp needed
 364              	.LVL56:
 365              	.LVL57:
 366 00da F0BD     		pop	{r4, r5, r6, r7, pc}
 367              	.L41:
 368              		.align	2
 369              	.L40:
 370 00dc 000001B8 		.word	-1207894016
 371              		.cfi_endproc
 372              	.LFE31:
 373              		.size	Hash_df.isra.1.constprop.7, .-Hash_df.isra.1.constprop.7
 374              		.section	.text.Hash_DRBG_Instantiate.constprop.4,"ax",%progbits
 375              		.align	1
 376              		.code	16
 377              		.thumb_func
 378              		.type	Hash_DRBG_Instantiate.constprop.4, %function
 379              	Hash_DRBG_Instantiate.constprop.4:
 380              	.LFB34:
 436:..\acn-sdk-c\src\wolfSSL/wolfcrypt/src/random.c ****                                              const byte* nonce, word32 nonceSz)
 381              		.loc 2 436 0
 382              		.cfi_startproc
 383              	.LVL58:
ARM GAS  C:\Users\ddemidov\AppData\Local\Temp\ccBlgygZ.s 			page 20


 384 0000 F7B5     		push	{r0, r1, r2, r4, r5, r6, r7, lr}
 385              		.cfi_def_cfa_offset 32
 386              		.cfi_offset 0, -32
 387              		.cfi_offset 1, -28
 388              		.cfi_offset 2, -24
 389              		.cfi_offset 4, -20
 390              		.cfi_offset 5, -16
 391              		.cfi_offset 6, -12
 392              		.cfi_offset 7, -8
 393              		.cfi_offset 14, -4
 436:..\acn-sdk-c\src\wolfSSL/wolfcrypt/src/random.c ****                                              const byte* nonce, word32 nonceSz)
 394              		.loc 2 436 0
 395 0002 041C     		mov	r4, r0
 396 0004 0F1C     		mov	r7, r1
 397 0006 161C     		mov	r6, r2
 441:..\acn-sdk-c\src\wolfSSL/wolfcrypt/src/random.c **** 
 398              		.loc 2 441 0
 399 0008 0021     		mov	r1, #0
 400              	.LVL59:
 401 000a 7822     		mov	r2, #120
 402              	.LVL60:
 443:..\acn-sdk-c\src\wolfSSL/wolfcrypt/src/random.c ****                                               nonce, nonceSz) == DRBG_SUCCESS &&
 403              		.loc 2 443 0
 404 000c 251C     		mov	r5, r4
 441:..\acn-sdk-c\src\wolfSSL/wolfcrypt/src/random.c **** 
 405              		.loc 2 441 0
 406 000e FFF7FEFF 		bl	memset
 407              	.LVL61:
 443:..\acn-sdk-c\src\wolfSSL/wolfcrypt/src/random.c ****                                               nonce, nonceSz) == DRBG_SUCCESS &&
 408              		.loc 2 443 0
 409 0012 0023     		mov	r3, #0
 410 0014 0835     		add	r5, r5, #8
 411 0016 0093     		str	r3, [sp]
 412 0018 0193     		str	r3, [sp, #4]
 413 001a 0421     		mov	r1, #4
 414 001c 281C     		mov	r0, r5
 415 001e 3A1C     		mov	r2, r7
 416 0020 331C     		mov	r3, r6
 417 0022 FFF7FEFF 		bl	Hash_df.isra.1.constprop.7
 418              	.LVL62:
 419 0026 011E     		sub	r1, r0, #0
 420 0028 01D0     		beq	.L43
 421              	.L45:
 439:..\acn-sdk-c\src\wolfSSL/wolfcrypt/src/random.c **** 
 422              		.loc 2 439 0
 423 002a 0220     		mov	r0, #2
 424 002c 0EE0     		b	.L44
 425              	.L43:
 445:..\acn-sdk-c\src\wolfSSL/wolfcrypt/src/random.c ****                                     sizeof(drbg->V), NULL, 0) == DRBG_SUCCESS) {
 426              		.loc 2 445 0
 427 002e 0090     		str	r0, [sp]
 428 0030 0190     		str	r0, [sp, #4]
 429 0032 201C     		mov	r0, r4
 430 0034 2A1C     		mov	r2, r5
 431 0036 3F30     		add	r0, r0, #63
 432 0038 3723     		mov	r3, #55
 433 003a FFF7FEFF 		bl	Hash_df.isra.1.constprop.7
ARM GAS  C:\Users\ddemidov\AppData\Local\Temp\ccBlgygZ.s 			page 21


 434              	.LVL63:
 444:..\acn-sdk-c\src\wolfSSL/wolfcrypt/src/random.c ****         Hash_df(drbg, drbg->C, sizeof(drbg->C), drbgInitC, drbg->V,
 435              		.loc 2 444 0
 436 003e 0028     		cmp	r0, #0
 437 0040 F3D1     		bne	.L45
 448:..\acn-sdk-c\src\wolfSSL/wolfcrypt/src/random.c ****         drbg->lastBlock = 0;
 438              		.loc 2 448 0
 439 0042 0123     		mov	r3, #1
 449:..\acn-sdk-c\src\wolfSSL/wolfcrypt/src/random.c ****         drbg->matchCount = 0;
 440              		.loc 2 449 0
 441 0044 6060     		str	r0, [r4, #4]
 448:..\acn-sdk-c\src\wolfSSL/wolfcrypt/src/random.c ****         drbg->lastBlock = 0;
 442              		.loc 2 448 0
 443 0046 2360     		str	r3, [r4]
 450:..\acn-sdk-c\src\wolfSSL/wolfcrypt/src/random.c ****         ret = DRBG_SUCCESS;
 444              		.loc 2 450 0
 445 0048 7634     		add	r4, r4, #118
 446              	.LVL64:
 447 004a 2070     		strb	r0, [r4]
 448              	.LVL65:
 449              	.L44:
 455:..\acn-sdk-c\src\wolfSSL/wolfcrypt/src/random.c **** 
 450              		.loc 2 455 0
 451              		@ sp needed
 452              	.LVL66:
 453              	.LVL67:
 454              	.LVL68:
 455 004c FEBD     		pop	{r1, r2, r3, r4, r5, r6, r7, pc}
 456              		.cfi_endproc
 457              	.LFE34:
 458              		.size	Hash_DRBG_Instantiate.constprop.4, .-Hash_DRBG_Instantiate.constprop.4
 459              		.section	.text.Hash_DRBG_Reseed,"ax",%progbits
 460              		.align	1
 461              		.code	16
 462              		.thumb_func
 463              		.type	Hash_DRBG_Reseed, %function
 464              	Hash_DRBG_Reseed:
 465              	.LFB13:
 279:..\acn-sdk-c\src\wolfSSL/wolfcrypt/src/random.c ****     byte seed[DRBG_SEED_LEN];
 466              		.loc 2 279 0
 467              		.cfi_startproc
 468              	.LVL69:
 469 0000 70B5     		push	{r4, r5, r6, lr}
 470              		.cfi_def_cfa_offset 16
 471              		.cfi_offset 4, -16
 472              		.cfi_offset 5, -12
 473              		.cfi_offset 6, -8
 474              		.cfi_offset 14, -4
 282:..\acn-sdk-c\src\wolfSSL/wolfcrypt/src/random.c ****                                           entropy, entropySz) != DRBG_SUCCESS) {
 475              		.loc 2 282 0
 476 0002 061C     		mov	r6, r0
 279:..\acn-sdk-c\src\wolfSSL/wolfcrypt/src/random.c ****     byte seed[DRBG_SEED_LEN];
 477              		.loc 2 279 0
 478 0004 90B0     		sub	sp, sp, #64
 479              		.cfi_def_cfa_offset 80
 282:..\acn-sdk-c\src\wolfSSL/wolfcrypt/src/random.c ****                                           entropy, entropySz) != DRBG_SUCCESS) {
 480              		.loc 2 282 0
ARM GAS  C:\Users\ddemidov\AppData\Local\Temp\ccBlgygZ.s 			page 22


 481 0006 0836     		add	r6, r6, #8
 482 0008 0091     		str	r1, [sp]
 483 000a 0192     		str	r2, [sp, #4]
 279:..\acn-sdk-c\src\wolfSSL/wolfcrypt/src/random.c ****     byte seed[DRBG_SEED_LEN];
 484              		.loc 2 279 0
 485 000c 041C     		mov	r4, r0
 282:..\acn-sdk-c\src\wolfSSL/wolfcrypt/src/random.c ****                                           entropy, entropySz) != DRBG_SUCCESS) {
 486              		.loc 2 282 0
 487 000e 0121     		mov	r1, #1
 488              	.LVL70:
 489 0010 02A8     		add	r0, sp, #8
 490              	.LVL71:
 491 0012 321C     		mov	r2, r6
 492              	.LVL72:
 493 0014 3723     		mov	r3, #55
 494 0016 FFF7FEFF 		bl	Hash_df.isra.1.constprop.7
 495              	.LVL73:
 496 001a 051E     		sub	r5, r0, #0
 497 001c 01D0     		beq	.L47
 498              	.L49:
 284:..\acn-sdk-c\src\wolfSSL/wolfcrypt/src/random.c ****     }
 499              		.loc 2 284 0
 500 001e 0220     		mov	r0, #2
 501 0020 18E0     		b	.L48
 502              	.L47:
 287:..\acn-sdk-c\src\wolfSSL/wolfcrypt/src/random.c ****     ForceZero(seed, sizeof(seed));
 503              		.loc 2 287 0
 504 0022 3722     		mov	r2, #55
 505 0024 02A9     		add	r1, sp, #8
 506 0026 301C     		mov	r0, r6
 507 0028 FFF7FEFF 		bl	memcpy
 508              	.LVL74:
 288:..\acn-sdk-c\src\wolfSSL/wolfcrypt/src/random.c **** 
 509              		.loc 2 288 0
 510 002c 02A8     		add	r0, sp, #8
 511 002e 3721     		mov	r1, #55
 512 0030 FFF7FEFF 		bl	ForceZero
 513              	.LVL75:
 290:..\acn-sdk-c\src\wolfSSL/wolfcrypt/src/random.c ****                                     sizeof(drbg->V), NULL, 0) != DRBG_SUCCESS) {
 514              		.loc 2 290 0
 515 0034 201C     		mov	r0, r4
 516 0036 0095     		str	r5, [sp]
 517 0038 0195     		str	r5, [sp, #4]
 518 003a 3F30     		add	r0, r0, #63
 519 003c 291C     		mov	r1, r5
 520 003e 321C     		mov	r2, r6
 521 0040 3723     		mov	r3, #55
 522 0042 FFF7FEFF 		bl	Hash_df.isra.1.constprop.7
 523              	.LVL76:
 524 0046 0028     		cmp	r0, #0
 525 0048 E9D1     		bne	.L49
 295:..\acn-sdk-c\src\wolfSSL/wolfcrypt/src/random.c ****     drbg->lastBlock = 0;
 526              		.loc 2 295 0
 527 004a 0123     		mov	r3, #1
 296:..\acn-sdk-c\src\wolfSSL/wolfcrypt/src/random.c ****     drbg->matchCount = 0;
 528              		.loc 2 296 0
 529 004c 6060     		str	r0, [r4, #4]
ARM GAS  C:\Users\ddemidov\AppData\Local\Temp\ccBlgygZ.s 			page 23


 295:..\acn-sdk-c\src\wolfSSL/wolfcrypt/src/random.c ****     drbg->lastBlock = 0;
 530              		.loc 2 295 0
 531 004e 2360     		str	r3, [r4]
 297:..\acn-sdk-c\src\wolfSSL/wolfcrypt/src/random.c ****     return DRBG_SUCCESS;
 532              		.loc 2 297 0
 533 0050 7634     		add	r4, r4, #118
 534              	.LVL77:
 535 0052 2070     		strb	r0, [r4]
 536              	.LVL78:
 537              	.L48:
 299:..\acn-sdk-c\src\wolfSSL/wolfcrypt/src/random.c **** 
 538              		.loc 2 299 0
 539 0054 10B0     		add	sp, sp, #64
 540              		@ sp needed
 541              	.LVL79:
 542 0056 70BD     		pop	{r4, r5, r6, pc}
 543              		.cfi_endproc
 544              	.LFE13:
 545              		.size	Hash_DRBG_Reseed, .-Hash_DRBG_Reseed
 546              		.section	.text.Hash_DRBG_Generate,"ax",%progbits
 547              		.align	1
 548              		.code	16
 549              		.thumb_func
 550              		.type	Hash_DRBG_Generate, %function
 551              	Hash_DRBG_Generate:
 552              	.LFB17:
 398:..\acn-sdk-c\src\wolfSSL/wolfcrypt/src/random.c ****     int ret = DRBG_NEED_RESEED;
 553              		.loc 2 398 0
 554              		.cfi_startproc
 555              	.LVL80:
 556 0000 F0B5     		push	{r4, r5, r6, r7, lr}
 557              		.cfi_def_cfa_offset 20
 558              		.cfi_offset 4, -20
 559              		.cfi_offset 5, -16
 560              		.cfi_offset 6, -12
 561              		.cfi_offset 7, -8
 562              		.cfi_offset 14, -4
 563 0002 151C     		mov	r5, r2
 564 0004 0322     		mov	r2, #3
 565              	.LVL81:
 566 0006 0F1C     		mov	r7, r1
 403:..\acn-sdk-c\src\wolfSSL/wolfcrypt/src/random.c ****         byte type = drbgGenerateH;
 567              		.loc 2 403 0
 568 0008 0368     		ldr	r3, [r0]
 569 000a 5A49     		ldr	r1, .L80
 570              	.LVL82:
 398:..\acn-sdk-c\src\wolfSSL/wolfcrypt/src/random.c ****     int ret = DRBG_NEED_RESEED;
 571              		.loc 2 398 0
 572 000c B7B0     		sub	sp, sp, #220
 573              		.cfi_def_cfa_offset 240
 398:..\acn-sdk-c\src\wolfSSL/wolfcrypt/src/random.c ****     int ret = DRBG_NEED_RESEED;
 574              		.loc 2 398 0
 575 000e 041C     		mov	r4, r0
 576 0010 0DAE     		add	r6, sp, #52
 399:..\acn-sdk-c\src\wolfSSL/wolfcrypt/src/random.c ****     Sha256 sha;
 577              		.loc 2 399 0
 578 0012 0092     		str	r2, [sp]
ARM GAS  C:\Users\ddemidov\AppData\Local\Temp\ccBlgygZ.s 			page 24


 403:..\acn-sdk-c\src\wolfSSL/wolfcrypt/src/random.c ****         byte type = drbgGenerateH;
 579              		.loc 2 403 0
 580 0014 8B42     		cmp	r3, r1
 581 0016 00D1     		bne	.LCB630
 582 0018 A5E0     		b	.L51	@long jump
 583              	.LCB630:
 584              	.LBB36:
 404:..\acn-sdk-c\src\wolfSSL/wolfcrypt/src/random.c ****         word32 reseedCtr = drbg->reseedCtr;
 585              		.loc 2 404 0
 586 001a 02A9     		add	r1, sp, #8
 587 001c CA71     		strb	r2, [r1, #7]
 405:..\acn-sdk-c\src\wolfSSL/wolfcrypt/src/random.c **** 
 588              		.loc 2 405 0
 589 001e 0493     		str	r3, [sp, #16]
 590              	.LVL83:
 591              	.LBB37:
 592              	.LBB38:
 326:..\acn-sdk-c\src\wolfSSL/wolfcrypt/src/random.c **** 
 593              		.loc 2 326 0
 594 0020 002D     		cmp	r5, #0
 595 0022 00D1     		bne	.L52
 596 0024 0135     		add	r5, r5, #1
 597              	.LVL84:
 598              	.L52:
 328:..\acn-sdk-c\src\wolfSSL/wolfcrypt/src/random.c **** 
 599              		.loc 2 328 0
 600 0026 1F23     		mov	r3, #31
 601 0028 2B40     		and	r3, r5
 602 002a 5A1E     		sub	r2, r3, #1
 603 002c 9341     		sbc	r3, r3, r2
 330:..\acn-sdk-c\src\wolfSSL/wolfcrypt/src/random.c ****     for (i = 0; i < len; i++) {
 604              		.loc 2 330 0
 605 002e 211C     		mov	r1, r4
 328:..\acn-sdk-c\src\wolfSSL/wolfcrypt/src/random.c **** 
 606              		.loc 2 328 0
 607 0030 6A09     		lsr	r2, r5, #5
 608 0032 9B18     		add	r3, r3, r2
 330:..\acn-sdk-c\src\wolfSSL/wolfcrypt/src/random.c ****     for (i = 0; i < len; i++) {
 609              		.loc 2 330 0
 610 0034 301C     		mov	r0, r6
 611              	.LVL85:
 612 0036 0831     		add	r1, r1, #8
 613 0038 3722     		mov	r2, #55
 328:..\acn-sdk-c\src\wolfSSL/wolfcrypt/src/random.c **** 
 614              		.loc 2 328 0
 615 003a 0193     		str	r3, [sp, #4]
 616              	.LVL86:
 330:..\acn-sdk-c\src\wolfSSL/wolfcrypt/src/random.c ****     for (i = 0; i < len; i++) {
 617              		.loc 2 330 0
 618 003c FFF7FEFF 		bl	memcpy
 619              	.LVL87:
 331:..\acn-sdk-c\src\wolfSSL/wolfcrypt/src/random.c ****         if (wc_InitSha256(&sha) != 0 ||
 620              		.loc 2 331 0
 621 0040 0023     		mov	r3, #0
 622              	.LVL88:
 623              	.L75:
 624 0042 0093     		str	r3, [sp]
ARM GAS  C:\Users\ddemidov\AppData\Local\Temp\ccBlgygZ.s 			page 25


 625              	.LVL89:
 626 0044 009B     		ldr	r3, [sp]
 627 0046 019A     		ldr	r2, [sp, #4]
 628 0048 9342     		cmp	r3, r2
 629 004a 45DA     		bge	.L77
 332:..\acn-sdk-c\src\wolfSSL/wolfcrypt/src/random.c ****             wc_Sha256Update(&sha, data, sizeof(data)) != 0 ||
 630              		.loc 2 332 0
 631 004c 1BA8     		add	r0, sp, #108
 632 004e FFF7FEFF 		bl	wc_InitSha256
 633              	.LVL90:
 634 0052 0028     		cmp	r0, #0
 635 0054 01D0     		beq	.L54
 636              	.L56:
 336:..\acn-sdk-c\src\wolfSSL/wolfcrypt/src/random.c ****         }
 637              		.loc 2 336 0
 638 0056 0223     		mov	r3, #2
 639 0058 4BE0     		b	.L76
 640              	.L54:
 333:..\acn-sdk-c\src\wolfSSL/wolfcrypt/src/random.c ****             wc_Sha256Final(&sha, digest) != 0) {
 641              		.loc 2 333 0
 642 005a 1BA8     		add	r0, sp, #108
 643 005c 0DA9     		add	r1, sp, #52
 644 005e 3722     		mov	r2, #55
 645 0060 FFF7FEFF 		bl	wc_Sha256Update
 646              	.LVL91:
 332:..\acn-sdk-c\src\wolfSSL/wolfcrypt/src/random.c ****             wc_Sha256Update(&sha, data, sizeof(data)) != 0 ||
 647              		.loc 2 332 0
 648 0064 0028     		cmp	r0, #0
 649 0066 F6D1     		bne	.L56
 334:..\acn-sdk-c\src\wolfSSL/wolfcrypt/src/random.c **** 
 650              		.loc 2 334 0
 651 0068 1BA8     		add	r0, sp, #108
 652 006a 05A9     		add	r1, sp, #20
 653 006c FFF7FEFF 		bl	wc_Sha256Final
 654              	.LVL92:
 333:..\acn-sdk-c\src\wolfSSL/wolfcrypt/src/random.c ****             wc_Sha256Final(&sha, digest) != 0) {
 655              		.loc 2 333 0
 656 0070 0028     		cmp	r0, #0
 657 0072 F0D1     		bne	.L56
 658 0074 231C     		mov	r3, r4
 340:..\acn-sdk-c\src\wolfSSL/wolfcrypt/src/random.c ****             if (drbg->matchCount == 1) {
 659              		.loc 2 340 0
 660 0076 2168     		ldr	r1, [r4]
 339:..\acn-sdk-c\src\wolfSSL/wolfcrypt/src/random.c ****         if (drbg->reseedCtr > 1 && checkBlock == drbg->lastBlock) {
 661              		.loc 2 339 0
 662 0078 059A     		ldr	r2, [sp, #20]
 663              	.LVL93:
 664 007a 7633     		add	r3, r3, #118
 340:..\acn-sdk-c\src\wolfSSL/wolfcrypt/src/random.c ****             if (drbg->matchCount == 1) {
 665              		.loc 2 340 0
 666 007c 0129     		cmp	r1, #1
 667 007e 08D9     		bls	.L57
 668 0080 6168     		ldr	r1, [r4, #4]
 669 0082 8A42     		cmp	r2, r1
 670 0084 05D1     		bne	.L57
 341:..\acn-sdk-c\src\wolfSSL/wolfcrypt/src/random.c ****                 return DRBG_CONT_FAILURE;
 671              		.loc 2 341 0
ARM GAS  C:\Users\ddemidov\AppData\Local\Temp\ccBlgygZ.s 			page 26


 672 0086 1A78     		ldrb	r2, [r3]
 673              	.LVL94:
 674 0088 012A     		cmp	r2, #1
 675 008a 31D0     		beq	.L68
 348:..\acn-sdk-c\src\wolfSSL/wolfcrypt/src/random.c ****             }
 676              		.loc 2 348 0
 677 008c 0122     		mov	r2, #1
 678 008e 1A70     		strb	r2, [r3]
 679 0090 02E0     		b	.L58
 680              	.LVL95:
 681              	.L57:
 352:..\acn-sdk-c\src\wolfSSL/wolfcrypt/src/random.c ****             drbg->lastBlock = checkBlock;
 682              		.loc 2 352 0
 683 0092 0021     		mov	r1, #0
 684 0094 1970     		strb	r1, [r3]
 353:..\acn-sdk-c\src\wolfSSL/wolfcrypt/src/random.c ****         }
 685              		.loc 2 353 0
 686 0096 6260     		str	r2, [r4, #4]
 687              	.LVL96:
 688              	.L58:
 356:..\acn-sdk-c\src\wolfSSL/wolfcrypt/src/random.c ****             XMEMCPY(out, digest, OUTPUT_BLOCK_LEN);
 689              		.loc 2 356 0
 690 0098 1F2D     		cmp	r5, #31
 691 009a 10D9     		bls	.L59
 357:..\acn-sdk-c\src\wolfSSL/wolfcrypt/src/random.c ****             outSz -= OUTPUT_BLOCK_LEN;
 692              		.loc 2 357 0
 693 009c 381C     		mov	r0, r7
 694 009e 2022     		mov	r2, #32
 695 00a0 05A9     		add	r1, sp, #20
 696              	.LVL97:
 697 00a2 FFF7FEFF 		bl	memcpy
 698              	.LVL98:
 699              	.LBB39:
 700              	.LBB40:
 305:..\acn-sdk-c\src\wolfSSL/wolfcrypt/src/random.c ****     {
 701              		.loc 2 305 0
 702 00a6 3622     		mov	r2, #54
 703              	.LBE40:
 704              	.LBE39:
 358:..\acn-sdk-c\src\wolfSSL/wolfcrypt/src/random.c ****             out += OUTPUT_BLOCK_LEN;
 705              		.loc 2 358 0
 706 00a8 203D     		sub	r5, r5, #32
 707              	.LVL99:
 359:..\acn-sdk-c\src\wolfSSL/wolfcrypt/src/random.c ****             array_add_one(data, DRBG_SEED_LEN);
 708              		.loc 2 359 0
 709 00aa 2037     		add	r7, r7, #32
 710              	.LVL100:
 711              	.L61:
 712              	.LBB42:
 713              	.LBB41:
 307:..\acn-sdk-c\src\wolfSSL/wolfcrypt/src/random.c ****         if (data[i] != 0) break;
 714              		.loc 2 307 0
 715 00ac B35C     		ldrb	r3, [r6, r2]
 716 00ae 0133     		add	r3, r3, #1
 717 00b0 DBB2     		uxtb	r3, r3
 718 00b2 B354     		strb	r3, [r6, r2]
 308:..\acn-sdk-c\src\wolfSSL/wolfcrypt/src/random.c ****     }
ARM GAS  C:\Users\ddemidov\AppData\Local\Temp\ccBlgygZ.s 			page 27


 719              		.loc 2 308 0
 720 00b4 002B     		cmp	r3, #0
 721 00b6 0CD1     		bne	.L60
 722              	.LVL101:
 305:..\acn-sdk-c\src\wolfSSL/wolfcrypt/src/random.c ****     {
 723              		.loc 2 305 0
 724 00b8 013A     		sub	r2, r2, #1
 725 00ba F7D2     		bcs	.L61
 726              	.LVL102:
 727 00bc 09E0     		b	.L60
 728              	.LVL103:
 729              	.L59:
 730              	.LBE41:
 731              	.LBE42:
 362:..\acn-sdk-c\src\wolfSSL/wolfcrypt/src/random.c ****             XMEMCPY(out, digest, outSz);
 732              		.loc 2 362 0
 733 00be 002F     		cmp	r7, #0
 734 00c0 07D0     		beq	.L60
 735 00c2 002D     		cmp	r5, #0
 736 00c4 05D0     		beq	.L60
 363:..\acn-sdk-c\src\wolfSSL/wolfcrypt/src/random.c ****             outSz = 0;
 737              		.loc 2 363 0
 738 00c6 2A1C     		mov	r2, r5
 739 00c8 381C     		mov	r0, r7
 740 00ca 05A9     		add	r1, sp, #20
 741              	.LVL104:
 742 00cc FFF7FEFF 		bl	memcpy
 743              	.LVL105:
 364:..\acn-sdk-c\src\wolfSSL/wolfcrypt/src/random.c ****         }
 744              		.loc 2 364 0
 745 00d0 0025     		mov	r5, #0
 746              	.LVL106:
 747              	.L60:
 331:..\acn-sdk-c\src\wolfSSL/wolfcrypt/src/random.c ****         if (wc_InitSha256(&sha) != 0 ||
 748              		.loc 2 331 0
 749 00d2 009B     		ldr	r3, [sp]
 750 00d4 0133     		add	r3, r3, #1
 751 00d6 B4E7     		b	.L75
 752              	.LVL107:
 753              	.L77:
 367:..\acn-sdk-c\src\wolfSSL/wolfcrypt/src/random.c **** 
 754              		.loc 2 367 0
 755 00d8 301C     		mov	r0, r6
 756 00da 3721     		mov	r1, #55
 757 00dc FFF7FEFF 		bl	ForceZero
 758              	.LVL108:
 369:..\acn-sdk-c\src\wolfSSL/wolfcrypt/src/random.c **** }
 759              		.loc 2 369 0
 760 00e0 0023     		mov	r3, #0
 761              	.LBE38:
 762              	.LBE37:
 409:..\acn-sdk-c\src\wolfSSL/wolfcrypt/src/random.c ****                 wc_Sha256Update(&sha, &type, sizeof(type)) != 0 ||
 763              		.loc 2 409 0
 764 00e2 1BA8     		add	r0, sp, #108
 765              	.LBB45:
 766              	.LBB43:
 369:..\acn-sdk-c\src\wolfSSL/wolfcrypt/src/random.c **** }
ARM GAS  C:\Users\ddemidov\AppData\Local\Temp\ccBlgygZ.s 			page 28


 767              		.loc 2 369 0
 768 00e4 0093     		str	r3, [sp]
 769              	.LVL109:
 770              	.LBE43:
 771              	.LBE45:
 409:..\acn-sdk-c\src\wolfSSL/wolfcrypt/src/random.c ****                 wc_Sha256Update(&sha, &type, sizeof(type)) != 0 ||
 772              		.loc 2 409 0
 773 00e6 FFF7FEFF 		bl	wc_InitSha256
 774              	.LVL110:
 775 00ea 0028     		cmp	r0, #0
 776 00ec 0BD1     		bne	.L66
 777 00ee 02E0     		b	.L78
 778              	.LVL111:
 779              	.L68:
 780              	.LBB46:
 781              	.LBB44:
 342:..\acn-sdk-c\src\wolfSSL/wolfcrypt/src/random.c ****             }
 782              		.loc 2 342 0
 783 00f0 0423     		mov	r3, #4
 784              	.LVL112:
 785              	.L76:
 786 00f2 0093     		str	r3, [sp]
 787              	.LVL113:
 788 00f4 37E0     		b	.L51
 789              	.LVL114:
 790              	.L78:
 791              	.LBE44:
 792              	.LBE46:
 410:..\acn-sdk-c\src\wolfSSL/wolfcrypt/src/random.c ****                 wc_Sha256Update(&sha, drbg->V, sizeof(drbg->V)) != 0 ||
 793              		.loc 2 410 0 discriminator 1
 794 00f6 02AB     		add	r3, sp, #8
 795 00f8 1BA8     		add	r0, sp, #108
 796 00fa D91D     		add	r1, r3, #7
 797 00fc 0122     		mov	r2, #1
 798 00fe FFF7FEFF 		bl	wc_Sha256Update
 799              	.LVL115:
 409:..\acn-sdk-c\src\wolfSSL/wolfcrypt/src/random.c ****                 wc_Sha256Update(&sha, &type, sizeof(type)) != 0 ||
 800              		.loc 2 409 0 discriminator 1
 801 0102 0028     		cmp	r0, #0
 802 0104 02D0     		beq	.L79
 803              	.LVL116:
 804              	.L66:
 414:..\acn-sdk-c\src\wolfSSL/wolfcrypt/src/random.c ****             }
 805              		.loc 2 414 0
 806 0106 0223     		mov	r3, #2
 807 0108 0093     		str	r3, [sp]
 808 010a 29E0     		b	.L65
 809              	.LVL117:
 810              	.L79:
 407:..\acn-sdk-c\src\wolfSSL/wolfcrypt/src/random.c ****         if (ret == DRBG_SUCCESS) {
 811              		.loc 2 407 0
 812 010c 251C     		mov	r5, r4
 813              	.LVL118:
 814 010e 0835     		add	r5, r5, #8
 411:..\acn-sdk-c\src\wolfSSL/wolfcrypt/src/random.c ****                 wc_Sha256Final(&sha, digest) != 0) {
 815              		.loc 2 411 0
 816 0110 1BA8     		add	r0, sp, #108
ARM GAS  C:\Users\ddemidov\AppData\Local\Temp\ccBlgygZ.s 			page 29


 817 0112 291C     		mov	r1, r5
 818 0114 3722     		mov	r2, #55
 819 0116 FFF7FEFF 		bl	wc_Sha256Update
 820              	.LVL119:
 410:..\acn-sdk-c\src\wolfSSL/wolfcrypt/src/random.c ****                 wc_Sha256Update(&sha, drbg->V, sizeof(drbg->V)) != 0 ||
 821              		.loc 2 410 0
 822 011a 0028     		cmp	r0, #0
 823 011c F3D1     		bne	.L66
 412:..\acn-sdk-c\src\wolfSSL/wolfcrypt/src/random.c **** 
 824              		.loc 2 412 0
 825 011e 1BA8     		add	r0, sp, #108
 826 0120 311C     		mov	r1, r6
 827 0122 FFF7FEFF 		bl	wc_Sha256Final
 828              	.LVL120:
 411:..\acn-sdk-c\src\wolfSSL/wolfcrypt/src/random.c ****                 wc_Sha256Final(&sha, digest) != 0) {
 829              		.loc 2 411 0
 830 0126 0028     		cmp	r0, #0
 831 0128 EDD1     		bne	.L66
 832              	.LVL121:
 833              	.LBB47:
 834              	.LBB48:
 835 012a 281C     		mov	r0, r5
 836 012c 311C     		mov	r1, r6
 837 012e 2022     		mov	r2, #32
 838 0130 FFF7FEFF 		bl	array_add.part.0.constprop.8
 839              	.LVL122:
 840              	.LBE48:
 841              	.LBE47:
 842              	.LBB49:
 843              	.LBB50:
 844 0134 211C     		mov	r1, r4
 845 0136 281C     		mov	r0, r5
 846 0138 3F31     		add	r1, r1, #63
 847              	.LVL123:
 848 013a 3722     		mov	r2, #55
 849 013c FFF7FEFF 		bl	array_add.part.0.constprop.8
 850              	.LVL124:
 851              	.LBE50:
 852              	.LBE49:
 420:..\acn-sdk-c\src\wolfSSL/wolfcrypt/src/random.c ****                 #endif
 853              		.loc 2 420 0
 854 0140 049B     		ldr	r3, [sp, #16]
 855              	.LVL125:
 856              	.LBB51:
 857              	.LBB52:
  95:..\acn-sdk-c\src\wolfSSL/wolfcrypt/src/misc.c ****     return rotlFixed(value, 16U);
 858              		.loc 1 95 0
 859 0142 0D4A     		ldr	r2, .L80+4
 860 0144 0D49     		ldr	r1, .L80+8
 861              	.LBE52:
 862              	.LBE51:
 863              	.LBB58:
 864              	.LBB59:
 865 0146 281C     		mov	r0, r5
 866              	.LBE59:
 867              	.LBE58:
 868              	.LBB62:
ARM GAS  C:\Users\ddemidov\AppData\Local\Temp\ccBlgygZ.s 			page 30


 869              	.LBB57:
 870 0148 1940     		and	r1, r3
 871 014a 1340     		and	r3, r2
 872              	.LVL126:
 873              	.LBB53:
 874              	.LBB54:
  70:..\acn-sdk-c\src\wolfSSL/wolfcrypt/src/misc.c ****     }   
 875              		.loc 1 70 0
 876 014c 1022     		mov	r2, #16
 877              	.LBE54:
 878              	.LBE53:
  95:..\acn-sdk-c\src\wolfSSL/wolfcrypt/src/misc.c ****     return rotlFixed(value, 16U);
 879              		.loc 1 95 0
 880 014e 0902     		lsl	r1, r1, #8
 881 0150 1B0A     		lsr	r3, r3, #8
 882 0152 0B43     		orr	r3, r1
 883              	.LVL127:
 884              	.LBB56:
 885              	.LBB55:
  70:..\acn-sdk-c\src\wolfSSL/wolfcrypt/src/misc.c ****     }   
 886              		.loc 1 70 0
 887 0154 D341     		ror	r3, r3, r2
 888              	.LVL128:
 889              	.LBE55:
 890              	.LBE56:
 891              	.LBE57:
 892              	.LBE62:
 893              	.LBB63:
 894              	.LBB60:
 895 0156 04A9     		add	r1, sp, #16
 896              	.LVL129:
 897 0158 0C3A     		sub	r2, r2, #12
 898              	.LBE60:
 899              	.LBE63:
 420:..\acn-sdk-c\src\wolfSSL/wolfcrypt/src/random.c ****                 #endif
 900              		.loc 2 420 0
 901 015a 0493     		str	r3, [sp, #16]
 902              	.LVL130:
 903              	.LBB64:
 904              	.LBB61:
 905 015c FFF7FEFF 		bl	array_add.part.0.constprop.8
 906              	.LVL131:
 907              	.L65:
 908              	.LBE61:
 909              	.LBE64:
 426:..\acn-sdk-c\src\wolfSSL/wolfcrypt/src/random.c ****         }
 910              		.loc 2 426 0
 911 0160 2368     		ldr	r3, [r4]
 912 0162 0133     		add	r3, r3, #1
 913 0164 2360     		str	r3, [r4]
 914              	.LVL132:
 915              	.L51:
 916              	.LBE36:
 429:..\acn-sdk-c\src\wolfSSL/wolfcrypt/src/random.c **** 
 917              		.loc 2 429 0
 918 0166 301C     		mov	r0, r6
 919 0168 2021     		mov	r1, #32
ARM GAS  C:\Users\ddemidov\AppData\Local\Temp\ccBlgygZ.s 			page 31


 920 016a FFF7FEFF 		bl	ForceZero
 921              	.LVL133:
 432:..\acn-sdk-c\src\wolfSSL/wolfcrypt/src/random.c **** 
 922              		.loc 2 432 0
 923 016e 0098     		ldr	r0, [sp]
 924 0170 37B0     		add	sp, sp, #220
 925              	.LVL134:
 926              		@ sp needed
 927              	.LVL135:
 928 0172 F0BD     		pop	{r4, r5, r6, r7, pc}
 929              	.L81:
 930              		.align	2
 931              	.L80:
 932 0174 40420F00 		.word	1000000
 933 0178 00FF00FF 		.word	-16711936
 934 017c FF00FF00 		.word	16711935
 935              		.cfi_endproc
 936              	.LFE17:
 937              		.size	Hash_DRBG_Generate, .-Hash_DRBG_Generate
 938              		.section	.text.wc_FreeRng,"ax",%progbits
 939              		.align	1
 940              		.global	wc_FreeRng
 941              		.code	16
 942              		.thumb_func
 943              		.type	wc_FreeRng, %function
 944              	wc_FreeRng:
 945              	.LFB23:
 472:..\acn-sdk-c\src\wolfSSL/wolfcrypt/src/random.c **** 
 473:..\acn-sdk-c\src\wolfSSL/wolfcrypt/src/random.c **** /* End NIST DRBG Code */
 474:..\acn-sdk-c\src\wolfSSL/wolfcrypt/src/random.c **** 
 475:..\acn-sdk-c\src\wolfSSL/wolfcrypt/src/random.c **** 
 476:..\acn-sdk-c\src\wolfSSL/wolfcrypt/src/random.c **** /* Get seed and key cipher */
 477:..\acn-sdk-c\src\wolfSSL/wolfcrypt/src/random.c **** int wc_InitRng(WC_RNG* rng)
 478:..\acn-sdk-c\src\wolfSSL/wolfcrypt/src/random.c **** {
 479:..\acn-sdk-c\src\wolfSSL/wolfcrypt/src/random.c ****     int ret = BAD_FUNC_ARG;
 480:..\acn-sdk-c\src\wolfSSL/wolfcrypt/src/random.c **** 
 481:..\acn-sdk-c\src\wolfSSL/wolfcrypt/src/random.c ****     if (rng != NULL) {
 482:..\acn-sdk-c\src\wolfSSL/wolfcrypt/src/random.c ****         if (wc_RNG_HealthTestLocal(0) == 0) {
 483:..\acn-sdk-c\src\wolfSSL/wolfcrypt/src/random.c ****             byte entropy[ENTROPY_NONCE_SZ];
 484:..\acn-sdk-c\src\wolfSSL/wolfcrypt/src/random.c **** 
 485:..\acn-sdk-c\src\wolfSSL/wolfcrypt/src/random.c ****             rng->drbg =
 486:..\acn-sdk-c\src\wolfSSL/wolfcrypt/src/random.c ****                     (struct DRBG*)XMALLOC(sizeof(DRBG), NULL, DYNAMIC_TYPE_RNG);
 487:..\acn-sdk-c\src\wolfSSL/wolfcrypt/src/random.c ****             if (rng->drbg == NULL) {
 488:..\acn-sdk-c\src\wolfSSL/wolfcrypt/src/random.c ****                 ret = MEMORY_E;
 489:..\acn-sdk-c\src\wolfSSL/wolfcrypt/src/random.c ****             }
 490:..\acn-sdk-c\src\wolfSSL/wolfcrypt/src/random.c ****             /* This doesn't use a separate nonce. The entropy input will be
 491:..\acn-sdk-c\src\wolfSSL/wolfcrypt/src/random.c ****              * the default size plus the size of the nonce making the seed
 492:..\acn-sdk-c\src\wolfSSL/wolfcrypt/src/random.c ****              * size. */
 493:..\acn-sdk-c\src\wolfSSL/wolfcrypt/src/random.c ****             else if (wc_GenerateSeed(&rng->seed,
 494:..\acn-sdk-c\src\wolfSSL/wolfcrypt/src/random.c ****                                               entropy, ENTROPY_NONCE_SZ) == 0 &&
 495:..\acn-sdk-c\src\wolfSSL/wolfcrypt/src/random.c ****                      Hash_DRBG_Instantiate(rng->drbg,
 496:..\acn-sdk-c\src\wolfSSL/wolfcrypt/src/random.c ****                           entropy, ENTROPY_NONCE_SZ, NULL, 0) == DRBG_SUCCESS) {
 497:..\acn-sdk-c\src\wolfSSL/wolfcrypt/src/random.c **** 
 498:..\acn-sdk-c\src\wolfSSL/wolfcrypt/src/random.c ****                 ret = Hash_DRBG_Generate(rng->drbg, NULL, 0);
 499:..\acn-sdk-c\src\wolfSSL/wolfcrypt/src/random.c ****             }
 500:..\acn-sdk-c\src\wolfSSL/wolfcrypt/src/random.c ****             else
 501:..\acn-sdk-c\src\wolfSSL/wolfcrypt/src/random.c ****                 ret = DRBG_FAILURE;
ARM GAS  C:\Users\ddemidov\AppData\Local\Temp\ccBlgygZ.s 			page 32


 502:..\acn-sdk-c\src\wolfSSL/wolfcrypt/src/random.c **** 
 503:..\acn-sdk-c\src\wolfSSL/wolfcrypt/src/random.c ****             ForceZero(entropy, ENTROPY_NONCE_SZ);
 504:..\acn-sdk-c\src\wolfSSL/wolfcrypt/src/random.c ****         }
 505:..\acn-sdk-c\src\wolfSSL/wolfcrypt/src/random.c ****         else
 506:..\acn-sdk-c\src\wolfSSL/wolfcrypt/src/random.c ****             ret = DRBG_CONT_FAILURE;
 507:..\acn-sdk-c\src\wolfSSL/wolfcrypt/src/random.c **** 
 508:..\acn-sdk-c\src\wolfSSL/wolfcrypt/src/random.c ****         if (ret == DRBG_SUCCESS) {
 509:..\acn-sdk-c\src\wolfSSL/wolfcrypt/src/random.c ****             rng->status = DRBG_OK;
 510:..\acn-sdk-c\src\wolfSSL/wolfcrypt/src/random.c ****             ret = 0;
 511:..\acn-sdk-c\src\wolfSSL/wolfcrypt/src/random.c ****         }
 512:..\acn-sdk-c\src\wolfSSL/wolfcrypt/src/random.c ****         else if (ret == DRBG_CONT_FAILURE) {
 513:..\acn-sdk-c\src\wolfSSL/wolfcrypt/src/random.c ****             rng->status = DRBG_CONT_FAILED;
 514:..\acn-sdk-c\src\wolfSSL/wolfcrypt/src/random.c ****             ret = DRBG_CONT_FIPS_E;
 515:..\acn-sdk-c\src\wolfSSL/wolfcrypt/src/random.c ****         }
 516:..\acn-sdk-c\src\wolfSSL/wolfcrypt/src/random.c ****         else if (ret == DRBG_FAILURE) {
 517:..\acn-sdk-c\src\wolfSSL/wolfcrypt/src/random.c ****             rng->status = DRBG_FAILED;
 518:..\acn-sdk-c\src\wolfSSL/wolfcrypt/src/random.c ****             ret = RNG_FAILURE_E;
 519:..\acn-sdk-c\src\wolfSSL/wolfcrypt/src/random.c ****         }
 520:..\acn-sdk-c\src\wolfSSL/wolfcrypt/src/random.c ****         else {
 521:..\acn-sdk-c\src\wolfSSL/wolfcrypt/src/random.c ****             rng->status = DRBG_FAILED;
 522:..\acn-sdk-c\src\wolfSSL/wolfcrypt/src/random.c ****         }
 523:..\acn-sdk-c\src\wolfSSL/wolfcrypt/src/random.c ****     }
 524:..\acn-sdk-c\src\wolfSSL/wolfcrypt/src/random.c **** 
 525:..\acn-sdk-c\src\wolfSSL/wolfcrypt/src/random.c ****     return ret;
 526:..\acn-sdk-c\src\wolfSSL/wolfcrypt/src/random.c **** }
 527:..\acn-sdk-c\src\wolfSSL/wolfcrypt/src/random.c **** 
 528:..\acn-sdk-c\src\wolfSSL/wolfcrypt/src/random.c **** 
 529:..\acn-sdk-c\src\wolfSSL/wolfcrypt/src/random.c **** /* place a generated block in output */
 530:..\acn-sdk-c\src\wolfSSL/wolfcrypt/src/random.c **** int wc_RNG_GenerateBlock(WC_RNG* rng, byte* output, word32 sz)
 531:..\acn-sdk-c\src\wolfSSL/wolfcrypt/src/random.c **** {
 532:..\acn-sdk-c\src\wolfSSL/wolfcrypt/src/random.c ****     int ret;
 533:..\acn-sdk-c\src\wolfSSL/wolfcrypt/src/random.c **** 
 534:..\acn-sdk-c\src\wolfSSL/wolfcrypt/src/random.c ****     if (rng == NULL || output == NULL || sz > MAX_REQUEST_LEN)
 535:..\acn-sdk-c\src\wolfSSL/wolfcrypt/src/random.c ****         return BAD_FUNC_ARG;
 536:..\acn-sdk-c\src\wolfSSL/wolfcrypt/src/random.c **** 
 537:..\acn-sdk-c\src\wolfSSL/wolfcrypt/src/random.c ****     if (rng->status != DRBG_OK)
 538:..\acn-sdk-c\src\wolfSSL/wolfcrypt/src/random.c ****         return RNG_FAILURE_E;
 539:..\acn-sdk-c\src\wolfSSL/wolfcrypt/src/random.c **** 
 540:..\acn-sdk-c\src\wolfSSL/wolfcrypt/src/random.c ****     ret = Hash_DRBG_Generate(rng->drbg, output, sz);
 541:..\acn-sdk-c\src\wolfSSL/wolfcrypt/src/random.c **** 
 542:..\acn-sdk-c\src\wolfSSL/wolfcrypt/src/random.c ****     if (ret == DRBG_NEED_RESEED) {
 543:..\acn-sdk-c\src\wolfSSL/wolfcrypt/src/random.c ****         if (wc_RNG_HealthTestLocal(1) == 0) {
 544:..\acn-sdk-c\src\wolfSSL/wolfcrypt/src/random.c ****             byte entropy[ENTROPY_SZ];
 545:..\acn-sdk-c\src\wolfSSL/wolfcrypt/src/random.c **** 
 546:..\acn-sdk-c\src\wolfSSL/wolfcrypt/src/random.c ****             if (wc_GenerateSeed(&rng->seed, entropy, ENTROPY_SZ) == 0 &&
 547:..\acn-sdk-c\src\wolfSSL/wolfcrypt/src/random.c ****                 Hash_DRBG_Reseed(rng->drbg, entropy, ENTROPY_SZ)
 548:..\acn-sdk-c\src\wolfSSL/wolfcrypt/src/random.c ****                                                               == DRBG_SUCCESS) {
 549:..\acn-sdk-c\src\wolfSSL/wolfcrypt/src/random.c **** 
 550:..\acn-sdk-c\src\wolfSSL/wolfcrypt/src/random.c ****                 ret = Hash_DRBG_Generate(rng->drbg, NULL, 0);
 551:..\acn-sdk-c\src\wolfSSL/wolfcrypt/src/random.c ****                 if (ret == DRBG_SUCCESS)
 552:..\acn-sdk-c\src\wolfSSL/wolfcrypt/src/random.c ****                     ret = Hash_DRBG_Generate(rng->drbg, output, sz);
 553:..\acn-sdk-c\src\wolfSSL/wolfcrypt/src/random.c ****             }
 554:..\acn-sdk-c\src\wolfSSL/wolfcrypt/src/random.c ****             else
 555:..\acn-sdk-c\src\wolfSSL/wolfcrypt/src/random.c ****                 ret = DRBG_FAILURE;
 556:..\acn-sdk-c\src\wolfSSL/wolfcrypt/src/random.c **** 
 557:..\acn-sdk-c\src\wolfSSL/wolfcrypt/src/random.c ****             ForceZero(entropy, ENTROPY_SZ);
 558:..\acn-sdk-c\src\wolfSSL/wolfcrypt/src/random.c ****         }
ARM GAS  C:\Users\ddemidov\AppData\Local\Temp\ccBlgygZ.s 			page 33


 559:..\acn-sdk-c\src\wolfSSL/wolfcrypt/src/random.c ****         else
 560:..\acn-sdk-c\src\wolfSSL/wolfcrypt/src/random.c ****             ret = DRBG_CONT_FAILURE;
 561:..\acn-sdk-c\src\wolfSSL/wolfcrypt/src/random.c ****     }
 562:..\acn-sdk-c\src\wolfSSL/wolfcrypt/src/random.c **** 
 563:..\acn-sdk-c\src\wolfSSL/wolfcrypt/src/random.c ****     if (ret == DRBG_SUCCESS) {
 564:..\acn-sdk-c\src\wolfSSL/wolfcrypt/src/random.c ****         ret = 0;
 565:..\acn-sdk-c\src\wolfSSL/wolfcrypt/src/random.c ****     }
 566:..\acn-sdk-c\src\wolfSSL/wolfcrypt/src/random.c ****     else if (ret == DRBG_CONT_FAILURE) {
 567:..\acn-sdk-c\src\wolfSSL/wolfcrypt/src/random.c ****         ret = DRBG_CONT_FIPS_E;
 568:..\acn-sdk-c\src\wolfSSL/wolfcrypt/src/random.c ****         rng->status = DRBG_CONT_FAILED;
 569:..\acn-sdk-c\src\wolfSSL/wolfcrypt/src/random.c ****     }
 570:..\acn-sdk-c\src\wolfSSL/wolfcrypt/src/random.c ****     else {
 571:..\acn-sdk-c\src\wolfSSL/wolfcrypt/src/random.c ****         ret = RNG_FAILURE_E;
 572:..\acn-sdk-c\src\wolfSSL/wolfcrypt/src/random.c ****         rng->status = DRBG_FAILED;
 573:..\acn-sdk-c\src\wolfSSL/wolfcrypt/src/random.c ****     }
 574:..\acn-sdk-c\src\wolfSSL/wolfcrypt/src/random.c **** 
 575:..\acn-sdk-c\src\wolfSSL/wolfcrypt/src/random.c ****     return ret;
 576:..\acn-sdk-c\src\wolfSSL/wolfcrypt/src/random.c **** }
 577:..\acn-sdk-c\src\wolfSSL/wolfcrypt/src/random.c **** 
 578:..\acn-sdk-c\src\wolfSSL/wolfcrypt/src/random.c **** 
 579:..\acn-sdk-c\src\wolfSSL/wolfcrypt/src/random.c **** int wc_RNG_GenerateByte(WC_RNG* rng, byte* b)
 580:..\acn-sdk-c\src\wolfSSL/wolfcrypt/src/random.c **** {
 581:..\acn-sdk-c\src\wolfSSL/wolfcrypt/src/random.c ****     return wc_RNG_GenerateBlock(rng, b, 1);
 582:..\acn-sdk-c\src\wolfSSL/wolfcrypt/src/random.c **** }
 583:..\acn-sdk-c\src\wolfSSL/wolfcrypt/src/random.c **** 
 584:..\acn-sdk-c\src\wolfSSL/wolfcrypt/src/random.c **** 
 585:..\acn-sdk-c\src\wolfSSL/wolfcrypt/src/random.c **** int wc_FreeRng(WC_RNG* rng)
 586:..\acn-sdk-c\src\wolfSSL/wolfcrypt/src/random.c **** {
 946              		.loc 2 586 0
 947              		.cfi_startproc
 948              	.LVL136:
 949 0000 70B5     		push	{r4, r5, r6, lr}
 950              		.cfi_def_cfa_offset 16
 951              		.cfi_offset 4, -16
 952              		.cfi_offset 5, -12
 953              		.cfi_offset 6, -8
 954              		.cfi_offset 14, -4
 587:..\acn-sdk-c\src\wolfSSL/wolfcrypt/src/random.c ****     int ret = BAD_FUNC_ARG;
 588:..\acn-sdk-c\src\wolfSSL/wolfcrypt/src/random.c **** 
 589:..\acn-sdk-c\src\wolfSSL/wolfcrypt/src/random.c ****     if (rng != NULL) {
 955              		.loc 2 589 0
 956 0002 0028     		cmp	r0, #0
 957 0004 16D0     		beq	.L87
 958 0006 041C     		mov	r4, r0
 590:..\acn-sdk-c\src\wolfSSL/wolfcrypt/src/random.c ****         if (rng->drbg != NULL) {
 959              		.loc 2 590 0
 960 0008 0068     		ldr	r0, [r0]
 961              	.LVL137:
 962 000a 0028     		cmp	r0, #0
 963 000c 0DD0     		beq	.L88
 964 000e 0026     		mov	r6, #0
 591:..\acn-sdk-c\src\wolfSSL/wolfcrypt/src/random.c ****             if (Hash_DRBG_Uninstantiate(rng->drbg) == DRBG_SUCCESS)
 965              		.loc 2 591 0
 966 0010 FFF7FEFF 		bl	Hash_DRBG_Uninstantiate
 967              	.LVL138:
 592:..\acn-sdk-c\src\wolfSSL/wolfcrypt/src/random.c ****                 ret = 0;
 968              		.loc 2 592 0
ARM GAS  C:\Users\ddemidov\AppData\Local\Temp\ccBlgygZ.s 			page 34


 969 0014 351C     		mov	r5, r6
 591:..\acn-sdk-c\src\wolfSSL/wolfcrypt/src/random.c ****             if (Hash_DRBG_Uninstantiate(rng->drbg) == DRBG_SUCCESS)
 970              		.loc 2 591 0
 971 0016 B042     		cmp	r0, r6
 972 0018 00D0     		beq	.L85
 593:..\acn-sdk-c\src\wolfSSL/wolfcrypt/src/random.c ****             else
 594:..\acn-sdk-c\src\wolfSSL/wolfcrypt/src/random.c ****                 ret = RNG_FAILURE_E;
 973              		.loc 2 594 0
 974 001a C73D     		sub	r5, r5, #199
 975              	.L85:
 976              	.LVL139:
 977              	.LBB65:
 595:..\acn-sdk-c\src\wolfSSL/wolfcrypt/src/random.c **** 
 596:..\acn-sdk-c\src\wolfSSL/wolfcrypt/src/random.c ****             XFREE(rng->drbg, NULL, DYNAMIC_TYPE_RNG);
 978              		.loc 2 596 0
 979 001c 2068     		ldr	r0, [r4]
 980              	.LVL140:
 981 001e 0028     		cmp	r0, #0
 982 0020 01D0     		beq	.L86
 983              		.loc 2 596 0 is_stmt 0 discriminator 1
 984 0022 FFF7FEFF 		bl	wolfSSL_Free
 985              	.LVL141:
 986              	.L86:
 987              	.LBE65:
 597:..\acn-sdk-c\src\wolfSSL/wolfcrypt/src/random.c ****             rng->drbg = NULL;
 988              		.loc 2 597 0 is_stmt 1
 989 0026 2660     		str	r6, [r4]
 990 0028 01E0     		b	.L84
 991              	.LVL142:
 992              	.L88:
 587:..\acn-sdk-c\src\wolfSSL/wolfcrypt/src/random.c **** 
 993              		.loc 2 587 0
 994 002a AD25     		mov	r5, #173
 995 002c 6D42     		neg	r5, r5
 996              	.LVL143:
 997              	.L84:
 598:..\acn-sdk-c\src\wolfSSL/wolfcrypt/src/random.c ****         }
 599:..\acn-sdk-c\src\wolfSSL/wolfcrypt/src/random.c **** 
 600:..\acn-sdk-c\src\wolfSSL/wolfcrypt/src/random.c ****         rng->status = DRBG_NOT_INIT;
 998              		.loc 2 600 0
 999 002e 0023     		mov	r3, #0
 1000 0030 2372     		strb	r3, [r4, #8]
 1001 0032 01E0     		b	.L83
 1002              	.LVL144:
 1003              	.L87:
 587:..\acn-sdk-c\src\wolfSSL/wolfcrypt/src/random.c **** 
 1004              		.loc 2 587 0
 1005 0034 AD25     		mov	r5, #173
 1006 0036 6D42     		neg	r5, r5
 1007              	.LVL145:
 1008              	.L83:
 601:..\acn-sdk-c\src\wolfSSL/wolfcrypt/src/random.c ****     }
 602:..\acn-sdk-c\src\wolfSSL/wolfcrypt/src/random.c **** 
 603:..\acn-sdk-c\src\wolfSSL/wolfcrypt/src/random.c ****     return ret;
 604:..\acn-sdk-c\src\wolfSSL/wolfcrypt/src/random.c **** }
 1009              		.loc 2 604 0
 1010 0038 281C     		mov	r0, r5
ARM GAS  C:\Users\ddemidov\AppData\Local\Temp\ccBlgygZ.s 			page 35


 1011              		@ sp needed
 1012              	.LVL146:
 1013 003a 70BD     		pop	{r4, r5, r6, pc}
 1014              		.cfi_endproc
 1015              	.LFE23:
 1016              		.size	wc_FreeRng, .-wc_FreeRng
 1017              		.section	.text.wc_RNG_HealthTest,"ax",%progbits
 1018              		.align	1
 1019              		.global	wc_RNG_HealthTest
 1020              		.code	16
 1021              		.thumb_func
 1022              		.type	wc_RNG_HealthTest, %function
 1023              	wc_RNG_HealthTest:
 1024              	.LFB24:
 605:..\acn-sdk-c\src\wolfSSL/wolfcrypt/src/random.c **** 
 606:..\acn-sdk-c\src\wolfSSL/wolfcrypt/src/random.c **** 
 607:..\acn-sdk-c\src\wolfSSL/wolfcrypt/src/random.c **** int wc_RNG_HealthTest(int reseed, const byte* entropyA, word32 entropyASz,
 608:..\acn-sdk-c\src\wolfSSL/wolfcrypt/src/random.c ****                                   const byte* entropyB, word32 entropyBSz,
 609:..\acn-sdk-c\src\wolfSSL/wolfcrypt/src/random.c ****                                   byte* output, word32 outputSz)
 610:..\acn-sdk-c\src\wolfSSL/wolfcrypt/src/random.c **** {
 1025              		.loc 2 610 0
 1026              		.cfi_startproc
 1027              	.LVL147:
 1028 0000 30B5     		push	{r4, r5, lr}
 1029              		.cfi_def_cfa_offset 12
 1030              		.cfi_offset 4, -12
 1031              		.cfi_offset 5, -8
 1032              		.cfi_offset 14, -4
 1033 0002 9FB0     		sub	sp, sp, #124
 1034              		.cfi_def_cfa_offset 136
 611:..\acn-sdk-c\src\wolfSSL/wolfcrypt/src/random.c ****     DRBG drbg;
 612:..\acn-sdk-c\src\wolfSSL/wolfcrypt/src/random.c **** 
 613:..\acn-sdk-c\src\wolfSSL/wolfcrypt/src/random.c ****     if (entropyA == NULL || output == NULL)
 1035              		.loc 2 613 0
 1036 0004 0029     		cmp	r1, #0
 1037 0006 32D0     		beq	.L103
 1038              		.loc 2 613 0 is_stmt 0 discriminator 1
 1039 0008 239C     		ldr	r4, [sp, #140]
 1040 000a 002C     		cmp	r4, #0
 1041 000c 2FD0     		beq	.L103
 614:..\acn-sdk-c\src\wolfSSL/wolfcrypt/src/random.c ****         return BAD_FUNC_ARG;
 615:..\acn-sdk-c\src\wolfSSL/wolfcrypt/src/random.c **** 
 616:..\acn-sdk-c\src\wolfSSL/wolfcrypt/src/random.c ****     if (reseed != 0 && entropyB == NULL)
 1042              		.loc 2 616 0 is_stmt 1
 1043 000e 0028     		cmp	r0, #0
 1044 0010 01D0     		beq	.L96
 1045              		.loc 2 616 0 is_stmt 0 discriminator 1
 1046 0012 002B     		cmp	r3, #0
 1047 0014 2BD0     		beq	.L103
 1048              	.L96:
 617:..\acn-sdk-c\src\wolfSSL/wolfcrypt/src/random.c ****         return BAD_FUNC_ARG;
 618:..\acn-sdk-c\src\wolfSSL/wolfcrypt/src/random.c **** 
 619:..\acn-sdk-c\src\wolfSSL/wolfcrypt/src/random.c ****     if (outputSz != (SHA256_DIGEST_SIZE * 4))
 1049              		.loc 2 619 0 is_stmt 1
 1050 0016 249C     		ldr	r4, [sp, #144]
 1051 0018 802C     		cmp	r4, #128
 1052 001a 12D1     		bne	.L114
ARM GAS  C:\Users\ddemidov\AppData\Local\Temp\ccBlgygZ.s 			page 36


 1053 001c 051C     		mov	r5, r0
 620:..\acn-sdk-c\src\wolfSSL/wolfcrypt/src/random.c ****         return -1;
 621:..\acn-sdk-c\src\wolfSSL/wolfcrypt/src/random.c **** 
 622:..\acn-sdk-c\src\wolfSSL/wolfcrypt/src/random.c ****     if (Hash_DRBG_Instantiate(&drbg, entropyA, entropyASz, NULL, 0) != 0)
 1054              		.loc 2 622 0
 1055 001e 6846     		mov	r0, sp
 1056              	.LVL148:
 1057 0020 1C1C     		mov	r4, r3
 1058 0022 FFF7FEFF 		bl	Hash_DRBG_Instantiate.constprop.4
 1059              	.LVL149:
 1060 0026 0028     		cmp	r0, #0
 1061 0028 0BD1     		bne	.L114
 623:..\acn-sdk-c\src\wolfSSL/wolfcrypt/src/random.c ****         return -1;
 624:..\acn-sdk-c\src\wolfSSL/wolfcrypt/src/random.c **** 
 625:..\acn-sdk-c\src\wolfSSL/wolfcrypt/src/random.c ****     if (reseed) {
 1062              		.loc 2 625 0
 1063 002a 002D     		cmp	r5, #0
 1064 002c 0BD0     		beq	.L99
 626:..\acn-sdk-c\src\wolfSSL/wolfcrypt/src/random.c ****         if (Hash_DRBG_Reseed(&drbg, entropyB, entropyBSz) != 0) {
 1065              		.loc 2 626 0
 1066 002e 6846     		mov	r0, sp
 1067 0030 211C     		mov	r1, r4
 1068 0032 229A     		ldr	r2, [sp, #136]
 1069 0034 FFF7FEFF 		bl	Hash_DRBG_Reseed
 1070              	.LVL150:
 1071 0038 0028     		cmp	r0, #0
 1072 003a 04D0     		beq	.L99
 1073              	.L100:
 627:..\acn-sdk-c\src\wolfSSL/wolfcrypt/src/random.c ****             Hash_DRBG_Uninstantiate(&drbg);
 1074              		.loc 2 627 0
 1075 003c 6846     		mov	r0, sp
 1076 003e FFF7FEFF 		bl	Hash_DRBG_Uninstantiate
 1077              	.LVL151:
 1078              	.L114:
 628:..\acn-sdk-c\src\wolfSSL/wolfcrypt/src/random.c ****             return -1;
 1079              		.loc 2 628 0
 1080 0042 0120     		mov	r0, #1
 1081 0044 14E0     		b	.L113
 1082              	.LVL152:
 1083              	.L99:
 629:..\acn-sdk-c\src\wolfSSL/wolfcrypt/src/random.c ****         }
 630:..\acn-sdk-c\src\wolfSSL/wolfcrypt/src/random.c ****     }
 631:..\acn-sdk-c\src\wolfSSL/wolfcrypt/src/random.c **** 
 632:..\acn-sdk-c\src\wolfSSL/wolfcrypt/src/random.c ****     if (Hash_DRBG_Generate(&drbg, output, outputSz) != 0) {
 1084              		.loc 2 632 0
 1085 0046 6846     		mov	r0, sp
 1086 0048 2399     		ldr	r1, [sp, #140]
 1087 004a 8022     		mov	r2, #128
 1088 004c FFF7FEFF 		bl	Hash_DRBG_Generate
 1089              	.LVL153:
 1090 0050 0028     		cmp	r0, #0
 1091 0052 F3D1     		bne	.L100
 633:..\acn-sdk-c\src\wolfSSL/wolfcrypt/src/random.c ****         Hash_DRBG_Uninstantiate(&drbg);
 634:..\acn-sdk-c\src\wolfSSL/wolfcrypt/src/random.c ****         return -1;
 635:..\acn-sdk-c\src\wolfSSL/wolfcrypt/src/random.c ****     }
 636:..\acn-sdk-c\src\wolfSSL/wolfcrypt/src/random.c **** 
 637:..\acn-sdk-c\src\wolfSSL/wolfcrypt/src/random.c ****     if (Hash_DRBG_Generate(&drbg, output, outputSz) != 0) {
ARM GAS  C:\Users\ddemidov\AppData\Local\Temp\ccBlgygZ.s 			page 37


 1092              		.loc 2 637 0
 1093 0054 6846     		mov	r0, sp
 1094 0056 2399     		ldr	r1, [sp, #140]
 1095 0058 8022     		mov	r2, #128
 1096 005a FFF7FEFF 		bl	Hash_DRBG_Generate
 1097              	.LVL154:
 1098 005e 0028     		cmp	r0, #0
 1099 0060 ECD1     		bne	.L100
 638:..\acn-sdk-c\src\wolfSSL/wolfcrypt/src/random.c ****         Hash_DRBG_Uninstantiate(&drbg);
 639:..\acn-sdk-c\src\wolfSSL/wolfcrypt/src/random.c ****         return -1;
 640:..\acn-sdk-c\src\wolfSSL/wolfcrypt/src/random.c ****     }
 641:..\acn-sdk-c\src\wolfSSL/wolfcrypt/src/random.c **** 
 642:..\acn-sdk-c\src\wolfSSL/wolfcrypt/src/random.c ****     if (Hash_DRBG_Uninstantiate(&drbg) != 0) {
 1100              		.loc 2 642 0
 1101 0062 6846     		mov	r0, sp
 1102 0064 FFF7FEFF 		bl	Hash_DRBG_Uninstantiate
 1103              	.LVL155:
 1104 0068 431E     		sub	r3, r0, #1
 1105 006a 9841     		sbc	r0, r0, r3
 1106 006c 00E0     		b	.L113
 1107              	.LVL156:
 1108              	.L103:
 614:..\acn-sdk-c\src\wolfSSL/wolfcrypt/src/random.c **** 
 1109              		.loc 2 614 0
 1110 006e AD20     		mov	r0, #173
 1111              	.LVL157:
 1112              	.L113:
 1113 0070 4042     		neg	r0, r0
 643:..\acn-sdk-c\src\wolfSSL/wolfcrypt/src/random.c ****         return -1;
 644:..\acn-sdk-c\src\wolfSSL/wolfcrypt/src/random.c ****     }
 645:..\acn-sdk-c\src\wolfSSL/wolfcrypt/src/random.c **** 
 646:..\acn-sdk-c\src\wolfSSL/wolfcrypt/src/random.c ****     return 0;
 647:..\acn-sdk-c\src\wolfSSL/wolfcrypt/src/random.c **** }
 1114              		.loc 2 647 0
 1115 0072 1FB0     		add	sp, sp, #124
 1116              		@ sp needed
 1117 0074 30BD     		pop	{r4, r5, pc}
 1118              		.cfi_endproc
 1119              	.LFE24:
 1120              		.size	wc_RNG_HealthTest, .-wc_RNG_HealthTest
 1121              		.section	.text.wc_RNG_GenerateBlock,"ax",%progbits
 1122              		.align	1
 1123              		.global	wc_RNG_GenerateBlock
 1124              		.code	16
 1125              		.thumb_func
 1126              		.type	wc_RNG_GenerateBlock, %function
 1127              	wc_RNG_GenerateBlock:
 1128              	.LFB21:
 531:..\acn-sdk-c\src\wolfSSL/wolfcrypt/src/random.c ****     int ret;
 1129              		.loc 2 531 0
 1130              		.cfi_startproc
 1131              	.LVL158:
 1132 0000 F0B5     		push	{r4, r5, r6, r7, lr}
 1133              		.cfi_def_cfa_offset 20
 1134              		.cfi_offset 4, -20
 1135              		.cfi_offset 5, -16
 1136              		.cfi_offset 6, -12
ARM GAS  C:\Users\ddemidov\AppData\Local\Temp\ccBlgygZ.s 			page 38


 1137              		.cfi_offset 7, -8
 1138              		.cfi_offset 14, -4
 1139 0002 A7B0     		sub	sp, sp, #156
 1140              		.cfi_def_cfa_offset 176
 534:..\acn-sdk-c\src\wolfSSL/wolfcrypt/src/random.c ****         return BAD_FUNC_ARG;
 1141              		.loc 2 534 0
 1142 0004 0028     		cmp	r0, #0
 1143 0006 57D0     		beq	.L125
 534:..\acn-sdk-c\src\wolfSSL/wolfcrypt/src/random.c ****         return BAD_FUNC_ARG;
 1144              		.loc 2 534 0 is_stmt 0 discriminator 1
 1145 0008 0029     		cmp	r1, #0
 1146 000a 55D0     		beq	.L125
 534:..\acn-sdk-c\src\wolfSSL/wolfcrypt/src/random.c ****         return BAD_FUNC_ARG;
 1147              		.loc 2 534 0 discriminator 2
 1148 000c 8023     		mov	r3, #128
 1149 000e 5B02     		lsl	r3, r3, #9
 1150 0010 9A42     		cmp	r2, r3
 1151 0012 51D8     		bhi	.L125
 537:..\acn-sdk-c\src\wolfSSL/wolfcrypt/src/random.c ****         return RNG_FAILURE_E;
 1152              		.loc 2 537 0 is_stmt 1
 1153 0014 037A     		ldrb	r3, [r0, #8]
 1154 0016 0493     		str	r3, [sp, #16]
 1155 0018 012B     		cmp	r3, #1
 1156 001a 4FD1     		bne	.L126
 1157 001c 041C     		mov	r4, r0
 540:..\acn-sdk-c\src\wolfSSL/wolfcrypt/src/random.c **** 
 1158              		.loc 2 540 0
 1159 001e 0068     		ldr	r0, [r0]
 1160              	.LVL159:
 1161 0020 0592     		str	r2, [sp, #20]
 1162 0022 0F1C     		mov	r7, r1
 1163 0024 FFF7FEFF 		bl	Hash_DRBG_Generate
 1164              	.LVL160:
 1165 0028 051E     		sub	r5, r0, #0
 1166              	.LVL161:
 542:..\acn-sdk-c\src\wolfSSL/wolfcrypt/src/random.c ****         if (wc_RNG_HealthTestLocal(1) == 0) {
 1167              		.loc 2 542 0
 1168 002a 032D     		cmp	r5, #3
 1169 002c 3BD1     		bne	.L117
 1170              	.LVL162:
 1171              	.LBB75:
 1172              	.LBB76:
 1173              	.LBB77:
 1174              	.LBB78:
 648:..\acn-sdk-c\src\wolfSSL/wolfcrypt/src/random.c **** 
 649:..\acn-sdk-c\src\wolfSSL/wolfcrypt/src/random.c **** 
 650:..\acn-sdk-c\src\wolfSSL/wolfcrypt/src/random.c **** const byte entropyA[] = {
 651:..\acn-sdk-c\src\wolfSSL/wolfcrypt/src/random.c ****     0x63, 0x36, 0x33, 0x77, 0xe4, 0x1e, 0x86, 0x46, 0x8d, 0xeb, 0x0a, 0xb4,
 652:..\acn-sdk-c\src\wolfSSL/wolfcrypt/src/random.c ****     0xa8, 0xed, 0x68, 0x3f, 0x6a, 0x13, 0x4e, 0x47, 0xe0, 0x14, 0xc7, 0x00,
 653:..\acn-sdk-c\src\wolfSSL/wolfcrypt/src/random.c ****     0x45, 0x4e, 0x81, 0xe9, 0x53, 0x58, 0xa5, 0x69, 0x80, 0x8a, 0xa3, 0x8f,
 654:..\acn-sdk-c\src\wolfSSL/wolfcrypt/src/random.c ****     0x2a, 0x72, 0xa6, 0x23, 0x59, 0x91, 0x5a, 0x9f, 0x8a, 0x04, 0xca, 0x68
 655:..\acn-sdk-c\src\wolfSSL/wolfcrypt/src/random.c **** };
 656:..\acn-sdk-c\src\wolfSSL/wolfcrypt/src/random.c **** 
 657:..\acn-sdk-c\src\wolfSSL/wolfcrypt/src/random.c **** const byte reseedEntropyA[] = {
 658:..\acn-sdk-c\src\wolfSSL/wolfcrypt/src/random.c ****     0xe6, 0x2b, 0x8a, 0x8e, 0xe8, 0xf1, 0x41, 0xb6, 0x98, 0x05, 0x66, 0xe3,
 659:..\acn-sdk-c\src\wolfSSL/wolfcrypt/src/random.c ****     0xbf, 0xe3, 0xc0, 0x49, 0x03, 0xda, 0xd4, 0xac, 0x2c, 0xdf, 0x9f, 0x22,
 660:..\acn-sdk-c\src\wolfSSL/wolfcrypt/src/random.c ****     0x80, 0x01, 0x0a, 0x67, 0x39, 0xbc, 0x83, 0xd3
ARM GAS  C:\Users\ddemidov\AppData\Local\Temp\ccBlgygZ.s 			page 39


 661:..\acn-sdk-c\src\wolfSSL/wolfcrypt/src/random.c **** };
 662:..\acn-sdk-c\src\wolfSSL/wolfcrypt/src/random.c **** 
 663:..\acn-sdk-c\src\wolfSSL/wolfcrypt/src/random.c **** const byte outputA[] = {
 664:..\acn-sdk-c\src\wolfSSL/wolfcrypt/src/random.c ****     0x04, 0xee, 0xc6, 0x3b, 0xb2, 0x31, 0xdf, 0x2c, 0x63, 0x0a, 0x1a, 0xfb,
 665:..\acn-sdk-c\src\wolfSSL/wolfcrypt/src/random.c ****     0xe7, 0x24, 0x94, 0x9d, 0x00, 0x5a, 0x58, 0x78, 0x51, 0xe1, 0xaa, 0x79,
 666:..\acn-sdk-c\src\wolfSSL/wolfcrypt/src/random.c ****     0x5e, 0x47, 0x73, 0x47, 0xc8, 0xb0, 0x56, 0x62, 0x1c, 0x18, 0xbd, 0xdc,
 667:..\acn-sdk-c\src\wolfSSL/wolfcrypt/src/random.c ****     0xdd, 0x8d, 0x99, 0xfc, 0x5f, 0xc2, 0xb9, 0x20, 0x53, 0xd8, 0xcf, 0xac,
 668:..\acn-sdk-c\src\wolfSSL/wolfcrypt/src/random.c ****     0xfb, 0x0b, 0xb8, 0x83, 0x12, 0x05, 0xfa, 0xd1, 0xdd, 0xd6, 0xc0, 0x71,
 669:..\acn-sdk-c\src\wolfSSL/wolfcrypt/src/random.c ****     0x31, 0x8a, 0x60, 0x18, 0xf0, 0x3b, 0x73, 0xf5, 0xed, 0xe4, 0xd4, 0xd0,
 670:..\acn-sdk-c\src\wolfSSL/wolfcrypt/src/random.c ****     0x71, 0xf9, 0xde, 0x03, 0xfd, 0x7a, 0xea, 0x10, 0x5d, 0x92, 0x99, 0xb8,
 671:..\acn-sdk-c\src\wolfSSL/wolfcrypt/src/random.c ****     0xaf, 0x99, 0xaa, 0x07, 0x5b, 0xdb, 0x4d, 0xb9, 0xaa, 0x28, 0xc1, 0x8d,
 672:..\acn-sdk-c\src\wolfSSL/wolfcrypt/src/random.c ****     0x17, 0x4b, 0x56, 0xee, 0x2a, 0x01, 0x4d, 0x09, 0x88, 0x96, 0xff, 0x22,
 673:..\acn-sdk-c\src\wolfSSL/wolfcrypt/src/random.c ****     0x82, 0xc9, 0x55, 0xa8, 0x19, 0x69, 0xe0, 0x69, 0xfa, 0x8c, 0xe0, 0x07,
 674:..\acn-sdk-c\src\wolfSSL/wolfcrypt/src/random.c ****     0xa1, 0x80, 0x18, 0x3a, 0x07, 0xdf, 0xae, 0x17
 675:..\acn-sdk-c\src\wolfSSL/wolfcrypt/src/random.c **** };
 676:..\acn-sdk-c\src\wolfSSL/wolfcrypt/src/random.c **** 
 677:..\acn-sdk-c\src\wolfSSL/wolfcrypt/src/random.c **** const byte entropyB[] = {
 678:..\acn-sdk-c\src\wolfSSL/wolfcrypt/src/random.c ****     0xa6, 0x5a, 0xd0, 0xf3, 0x45, 0xdb, 0x4e, 0x0e, 0xff, 0xe8, 0x75, 0xc3,
 679:..\acn-sdk-c\src\wolfSSL/wolfcrypt/src/random.c ****     0xa2, 0xe7, 0x1f, 0x42, 0xc7, 0x12, 0x9d, 0x62, 0x0f, 0xf5, 0xc1, 0x19,
 680:..\acn-sdk-c\src\wolfSSL/wolfcrypt/src/random.c ****     0xa9, 0xef, 0x55, 0xf0, 0x51, 0x85, 0xe0, 0xfb, 0x85, 0x81, 0xf9, 0x31,
 681:..\acn-sdk-c\src\wolfSSL/wolfcrypt/src/random.c ****     0x75, 0x17, 0x27, 0x6e, 0x06, 0xe9, 0x60, 0x7d, 0xdb, 0xcb, 0xcc, 0x2e
 682:..\acn-sdk-c\src\wolfSSL/wolfcrypt/src/random.c **** };
 683:..\acn-sdk-c\src\wolfSSL/wolfcrypt/src/random.c **** 
 684:..\acn-sdk-c\src\wolfSSL/wolfcrypt/src/random.c **** const byte outputB[] = {
 685:..\acn-sdk-c\src\wolfSSL/wolfcrypt/src/random.c ****     0xd3, 0xe1, 0x60, 0xc3, 0x5b, 0x99, 0xf3, 0x40, 0xb2, 0x62, 0x82, 0x64,
 686:..\acn-sdk-c\src\wolfSSL/wolfcrypt/src/random.c ****     0xd1, 0x75, 0x10, 0x60, 0xe0, 0x04, 0x5d, 0xa3, 0x83, 0xff, 0x57, 0xa5,
 687:..\acn-sdk-c\src\wolfSSL/wolfcrypt/src/random.c ****     0x7d, 0x73, 0xa6, 0x73, 0xd2, 0xb8, 0xd8, 0x0d, 0xaa, 0xf6, 0xa6, 0xc3,
 688:..\acn-sdk-c\src\wolfSSL/wolfcrypt/src/random.c ****     0x5a, 0x91, 0xbb, 0x45, 0x79, 0xd7, 0x3f, 0xd0, 0xc8, 0xfe, 0xd1, 0x11,
 689:..\acn-sdk-c\src\wolfSSL/wolfcrypt/src/random.c ****     0xb0, 0x39, 0x13, 0x06, 0x82, 0x8a, 0xdf, 0xed, 0x52, 0x8f, 0x01, 0x81,
 690:..\acn-sdk-c\src\wolfSSL/wolfcrypt/src/random.c ****     0x21, 0xb3, 0xfe, 0xbd, 0xc3, 0x43, 0xe7, 0x97, 0xb8, 0x7d, 0xbb, 0x63,
 691:..\acn-sdk-c\src\wolfSSL/wolfcrypt/src/random.c ****     0xdb, 0x13, 0x33, 0xde, 0xd9, 0xd1, 0xec, 0xe1, 0x77, 0xcf, 0xa6, 0xb7,
 692:..\acn-sdk-c\src\wolfSSL/wolfcrypt/src/random.c ****     0x1f, 0xe8, 0xab, 0x1d, 0xa4, 0x66, 0x24, 0xed, 0x64, 0x15, 0xe5, 0x1c,
 693:..\acn-sdk-c\src\wolfSSL/wolfcrypt/src/random.c ****     0xcd, 0xe2, 0xc7, 0xca, 0x86, 0xe2, 0x83, 0x99, 0x0e, 0xea, 0xeb, 0x91,
 694:..\acn-sdk-c\src\wolfSSL/wolfcrypt/src/random.c ****     0x12, 0x04, 0x15, 0x52, 0x8b, 0x22, 0x95, 0x91, 0x02, 0x81, 0xb0, 0x2d,
 695:..\acn-sdk-c\src\wolfSSL/wolfcrypt/src/random.c ****     0xd4, 0x31, 0xf4, 0xc9, 0xf7, 0x04, 0x27, 0xdf
 696:..\acn-sdk-c\src\wolfSSL/wolfcrypt/src/random.c **** };
 697:..\acn-sdk-c\src\wolfSSL/wolfcrypt/src/random.c **** 
 698:..\acn-sdk-c\src\wolfSSL/wolfcrypt/src/random.c **** 
 699:..\acn-sdk-c\src\wolfSSL/wolfcrypt/src/random.c **** static int wc_RNG_HealthTestLocal(int reseed)
 700:..\acn-sdk-c\src\wolfSSL/wolfcrypt/src/random.c **** {
 701:..\acn-sdk-c\src\wolfSSL/wolfcrypt/src/random.c ****     int ret = 0;
 702:..\acn-sdk-c\src\wolfSSL/wolfcrypt/src/random.c ****     byte check[SHA256_DIGEST_SIZE * 4];
 703:..\acn-sdk-c\src\wolfSSL/wolfcrypt/src/random.c **** 
 704:..\acn-sdk-c\src\wolfSSL/wolfcrypt/src/random.c ****     if (reseed) {
 705:..\acn-sdk-c\src\wolfSSL/wolfcrypt/src/random.c ****         ret = wc_RNG_HealthTest(1, entropyA, sizeof(entropyA),
 1175              		.loc 2 705 0
 1176 002e 254D     		ldr	r5, .L136
 1177 0030 2022     		mov	r2, #32
 1178 0032 2B1C     		mov	r3, r5
 1179 0034 0092     		str	r2, [sp]
 1180 0036 06AE     		add	r6, sp, #24
 1181 0038 6032     		add	r2, r2, #96
 1182 003a 0292     		str	r2, [sp, #8]
 1183 003c 3033     		add	r3, r3, #48
 1184 003e 0196     		str	r6, [sp, #4]
 1185 0040 0498     		ldr	r0, [sp, #16]
 1186              	.LVL163:
ARM GAS  C:\Users\ddemidov\AppData\Local\Temp\ccBlgygZ.s 			page 40


 1187 0042 291C     		mov	r1, r5
 1188 0044 503A     		sub	r2, r2, #80
 1189 0046 FFF7FEFF 		bl	wc_RNG_HealthTest
 1190              	.LVL164:
 706:..\acn-sdk-c\src\wolfSSL/wolfcrypt/src/random.c ****                                 reseedEntropyA, sizeof(reseedEntropyA),
 707:..\acn-sdk-c\src\wolfSSL/wolfcrypt/src/random.c ****                                 check, sizeof(check));
 708:..\acn-sdk-c\src\wolfSSL/wolfcrypt/src/random.c ****         if (ret == 0) {
 1191              		.loc 2 708 0
 1192 004a 0028     		cmp	r0, #0
 1193 004c 0CD1     		bne	.L122
 1194 004e 031C     		mov	r3, r0
 1195              	.LVL165:
 1196              	.L119:
 1197              	.LBB79:
 1198              	.LBB80:
 185:..\acn-sdk-c\src\wolfSSL/wolfcrypt/src/misc.c **** 
 186:..\acn-sdk-c\src\wolfSSL/wolfcrypt/src/misc.c **** 
 187:..\acn-sdk-c\src\wolfSSL/wolfcrypt/src/misc.c **** /* check all length bytes for equality, return 0 on success */
 188:..\acn-sdk-c\src\wolfSSL/wolfcrypt/src/misc.c **** STATIC INLINE int ConstantCompare(const byte* a, const byte* b, int length)
 189:..\acn-sdk-c\src\wolfSSL/wolfcrypt/src/misc.c **** {
 190:..\acn-sdk-c\src\wolfSSL/wolfcrypt/src/misc.c ****     int i;
 191:..\acn-sdk-c\src\wolfSSL/wolfcrypt/src/misc.c ****     int compareSum = 0;
 192:..\acn-sdk-c\src\wolfSSL/wolfcrypt/src/misc.c **** 
 193:..\acn-sdk-c\src\wolfSSL/wolfcrypt/src/misc.c ****     for (i = 0; i < length; i++) {
 194:..\acn-sdk-c\src\wolfSSL/wolfcrypt/src/misc.c ****         compareSum |= a[i] ^ b[i];
 1199              		.loc 1 194 0
 1200 0050 2A1C     		mov	r2, r5
 1201 0052 5032     		add	r2, r2, #80
 1202 0054 995C     		ldrb	r1, [r3, r2]
 1203 0056 F25C     		ldrb	r2, [r6, r3]
 193:..\acn-sdk-c\src\wolfSSL/wolfcrypt/src/misc.c ****         compareSum |= a[i] ^ b[i];
 1204              		.loc 1 193 0
 1205 0058 0133     		add	r3, r3, #1
 1206              	.LVL166:
 1207              		.loc 1 194 0
 1208 005a 4A40     		eor	r2, r1
 1209 005c 1043     		orr	r0, r2
 1210              	.LVL167:
 193:..\acn-sdk-c\src\wolfSSL/wolfcrypt/src/misc.c ****         compareSum |= a[i] ^ b[i];
 1211              		.loc 1 193 0
 1212 005e 802B     		cmp	r3, #128
 1213 0060 F6D1     		bne	.L119
 1214              	.LVL168:
 1215              	.LBE80:
 1216              	.LBE79:
 1217              	.LBE78:
 1218              	.LBE77:
 1219              	.LBE76:
 1220              	.LBE75:
 1221 0062 0022     		mov	r2, #0
 543:..\acn-sdk-c\src\wolfSSL/wolfcrypt/src/random.c ****             byte entropy[ENTROPY_SZ];
 1222              		.loc 2 543 0
 1223 0064 9042     		cmp	r0, r2
 1224 0066 03D0     		beq	.L120
 1225              	.LVL169:
 1226              	.L122:
 568:..\acn-sdk-c\src\wolfSSL/wolfcrypt/src/random.c ****     }
ARM GAS  C:\Users\ddemidov\AppData\Local\Temp\ccBlgygZ.s 			page 41


 1227              		.loc 2 568 0
 1228 0068 0323     		mov	r3, #3
 567:..\acn-sdk-c\src\wolfSSL/wolfcrypt/src/random.c ****         rng->status = DRBG_CONT_FAILED;
 1229              		.loc 2 567 0
 1230 006a D120     		mov	r0, #209
 568:..\acn-sdk-c\src\wolfSSL/wolfcrypt/src/random.c ****     }
 1231              		.loc 2 568 0
 1232 006c 2372     		strb	r3, [r4, #8]
 1233 006e 26E0     		b	.L135
 1234              	.LVL170:
 1235              	.L120:
 1236              	.LBB81:
 1237              	.LBB82:
 1238              	.LBB83:
 709:..\acn-sdk-c\src\wolfSSL/wolfcrypt/src/random.c ****             if (ConstantCompare(check, outputA, sizeof(check)) != 0)
 710:..\acn-sdk-c\src\wolfSSL/wolfcrypt/src/random.c ****                 ret = -1;
 711:..\acn-sdk-c\src\wolfSSL/wolfcrypt/src/random.c ****         }
 712:..\acn-sdk-c\src\wolfSSL/wolfcrypt/src/random.c ****     }
 713:..\acn-sdk-c\src\wolfSSL/wolfcrypt/src/random.c ****     else {
 714:..\acn-sdk-c\src\wolfSSL/wolfcrypt/src/random.c ****         ret = wc_RNG_HealthTest(0, entropyB, sizeof(entropyB),
 715:..\acn-sdk-c\src\wolfSSL/wolfcrypt/src/random.c ****                                 NULL, 0,
 716:..\acn-sdk-c\src\wolfSSL/wolfcrypt/src/random.c ****                                 check, sizeof(check));
 717:..\acn-sdk-c\src\wolfSSL/wolfcrypt/src/random.c ****         if (ret == 0) {
 718:..\acn-sdk-c\src\wolfSSL/wolfcrypt/src/random.c ****             if (ConstantCompare(check, outputB, sizeof(check)) != 0)
 719:..\acn-sdk-c\src\wolfSSL/wolfcrypt/src/random.c ****                 ret = -1;
 720:..\acn-sdk-c\src\wolfSSL/wolfcrypt/src/random.c ****         }
 721:..\acn-sdk-c\src\wolfSSL/wolfcrypt/src/random.c ****     }
 722:..\acn-sdk-c\src\wolfSSL/wolfcrypt/src/random.c **** 
 723:..\acn-sdk-c\src\wolfSSL/wolfcrypt/src/random.c ****     return ret;
 724:..\acn-sdk-c\src\wolfSSL/wolfcrypt/src/random.c **** }
 725:..\acn-sdk-c\src\wolfSSL/wolfcrypt/src/random.c **** 
 726:..\acn-sdk-c\src\wolfSSL/wolfcrypt/src/random.c **** 
 727:..\acn-sdk-c\src\wolfSSL/wolfcrypt/src/random.c **** #else /* HAVE_HASHDRBG || NO_RC4 */
 728:..\acn-sdk-c\src\wolfSSL/wolfcrypt/src/random.c **** 
 729:..\acn-sdk-c\src\wolfSSL/wolfcrypt/src/random.c **** /* Get seed and key cipher */
 730:..\acn-sdk-c\src\wolfSSL/wolfcrypt/src/random.c **** int wc_InitRng(WC_RNG* rng)
 731:..\acn-sdk-c\src\wolfSSL/wolfcrypt/src/random.c **** {
 732:..\acn-sdk-c\src\wolfSSL/wolfcrypt/src/random.c ****     int  ret;
 733:..\acn-sdk-c\src\wolfSSL/wolfcrypt/src/random.c **** #ifdef WOLFSSL_SMALL_STACK
 734:..\acn-sdk-c\src\wolfSSL/wolfcrypt/src/random.c ****     byte* key;
 735:..\acn-sdk-c\src\wolfSSL/wolfcrypt/src/random.c ****     byte* junk;
 736:..\acn-sdk-c\src\wolfSSL/wolfcrypt/src/random.c **** #else
 737:..\acn-sdk-c\src\wolfSSL/wolfcrypt/src/random.c ****     byte key[32];
 738:..\acn-sdk-c\src\wolfSSL/wolfcrypt/src/random.c ****     byte junk[256];
 739:..\acn-sdk-c\src\wolfSSL/wolfcrypt/src/random.c **** #endif
 740:..\acn-sdk-c\src\wolfSSL/wolfcrypt/src/random.c **** 
 741:..\acn-sdk-c\src\wolfSSL/wolfcrypt/src/random.c **** #ifdef HAVE_INTEL_RDGEN
 742:..\acn-sdk-c\src\wolfSSL/wolfcrypt/src/random.c ****     wc_InitRng_IntelRD() ;
 743:..\acn-sdk-c\src\wolfSSL/wolfcrypt/src/random.c ****     if(IS_INTEL_RDRAND)return 0 ;
 744:..\acn-sdk-c\src\wolfSSL/wolfcrypt/src/random.c **** #endif
 745:..\acn-sdk-c\src\wolfSSL/wolfcrypt/src/random.c **** #ifdef HAVE_CAVIUM
 746:..\acn-sdk-c\src\wolfSSL/wolfcrypt/src/random.c ****     if (rng->magic == WOLFSSL_RNG_CAVIUM_MAGIC)
 747:..\acn-sdk-c\src\wolfSSL/wolfcrypt/src/random.c ****         return 0;
 748:..\acn-sdk-c\src\wolfSSL/wolfcrypt/src/random.c **** #endif
 749:..\acn-sdk-c\src\wolfSSL/wolfcrypt/src/random.c **** 
 750:..\acn-sdk-c\src\wolfSSL/wolfcrypt/src/random.c **** #ifdef WOLFSSL_SMALL_STACK
 751:..\acn-sdk-c\src\wolfSSL/wolfcrypt/src/random.c ****     key = (byte*)XMALLOC(32, NULL, DYNAMIC_TYPE_TMP_BUFFER);
ARM GAS  C:\Users\ddemidov\AppData\Local\Temp\ccBlgygZ.s 			page 42


 752:..\acn-sdk-c\src\wolfSSL/wolfcrypt/src/random.c ****     if (key == NULL)
 753:..\acn-sdk-c\src\wolfSSL/wolfcrypt/src/random.c ****         return MEMORY_E;
 754:..\acn-sdk-c\src\wolfSSL/wolfcrypt/src/random.c **** 
 755:..\acn-sdk-c\src\wolfSSL/wolfcrypt/src/random.c ****     junk = (byte*)XMALLOC(256, NULL, DYNAMIC_TYPE_TMP_BUFFER);
 756:..\acn-sdk-c\src\wolfSSL/wolfcrypt/src/random.c ****     if (junk == NULL) {
 757:..\acn-sdk-c\src\wolfSSL/wolfcrypt/src/random.c ****         XFREE(key, NULL, DYNAMIC_TYPE_TMP_BUFFER);
 758:..\acn-sdk-c\src\wolfSSL/wolfcrypt/src/random.c ****         return MEMORY_E;
 759:..\acn-sdk-c\src\wolfSSL/wolfcrypt/src/random.c ****     }
 760:..\acn-sdk-c\src\wolfSSL/wolfcrypt/src/random.c **** #endif
 761:..\acn-sdk-c\src\wolfSSL/wolfcrypt/src/random.c **** 
 762:..\acn-sdk-c\src\wolfSSL/wolfcrypt/src/random.c ****     ret = wc_GenerateSeed(&rng->seed, key, 32);
 763:..\acn-sdk-c\src\wolfSSL/wolfcrypt/src/random.c **** 
 764:..\acn-sdk-c\src\wolfSSL/wolfcrypt/src/random.c ****     if (ret == 0) {
 765:..\acn-sdk-c\src\wolfSSL/wolfcrypt/src/random.c ****         wc_Arc4SetKey(&rng->cipher, key, sizeof(key));
 766:..\acn-sdk-c\src\wolfSSL/wolfcrypt/src/random.c **** 
 767:..\acn-sdk-c\src\wolfSSL/wolfcrypt/src/random.c ****         ret = wc_RNG_GenerateBlock(rng, junk, 256); /*rid initial state*/
 768:..\acn-sdk-c\src\wolfSSL/wolfcrypt/src/random.c ****     }
 769:..\acn-sdk-c\src\wolfSSL/wolfcrypt/src/random.c **** 
 770:..\acn-sdk-c\src\wolfSSL/wolfcrypt/src/random.c **** #ifdef WOLFSSL_SMALL_STACK
 771:..\acn-sdk-c\src\wolfSSL/wolfcrypt/src/random.c ****     XFREE(key, NULL, DYNAMIC_TYPE_TMP_BUFFER);
 772:..\acn-sdk-c\src\wolfSSL/wolfcrypt/src/random.c ****     XFREE(junk, NULL, DYNAMIC_TYPE_TMP_BUFFER);
 773:..\acn-sdk-c\src\wolfSSL/wolfcrypt/src/random.c **** #endif
 774:..\acn-sdk-c\src\wolfSSL/wolfcrypt/src/random.c **** 
 775:..\acn-sdk-c\src\wolfSSL/wolfcrypt/src/random.c ****     return ret;
 776:..\acn-sdk-c\src\wolfSSL/wolfcrypt/src/random.c **** }
 777:..\acn-sdk-c\src\wolfSSL/wolfcrypt/src/random.c **** 
 778:..\acn-sdk-c\src\wolfSSL/wolfcrypt/src/random.c **** #ifdef HAVE_CAVIUM
 779:..\acn-sdk-c\src\wolfSSL/wolfcrypt/src/random.c ****     static void CaviumRNG_GenerateBlock(WC_RNG* rng, byte* output, word32 sz);
 780:..\acn-sdk-c\src\wolfSSL/wolfcrypt/src/random.c **** #endif
 781:..\acn-sdk-c\src\wolfSSL/wolfcrypt/src/random.c **** 
 782:..\acn-sdk-c\src\wolfSSL/wolfcrypt/src/random.c **** /* place a generated block in output */
 783:..\acn-sdk-c\src\wolfSSL/wolfcrypt/src/random.c **** int wc_RNG_GenerateBlock(WC_RNG* rng, byte* output, word32 sz)
 784:..\acn-sdk-c\src\wolfSSL/wolfcrypt/src/random.c **** {
 785:..\acn-sdk-c\src\wolfSSL/wolfcrypt/src/random.c **** #ifdef HAVE_INTEL_RDGEN
 786:..\acn-sdk-c\src\wolfSSL/wolfcrypt/src/random.c ****     if(IS_INTEL_RDRAND)
 787:..\acn-sdk-c\src\wolfSSL/wolfcrypt/src/random.c ****         return wc_GenerateRand_IntelRD(NULL, output, sz) ;
 788:..\acn-sdk-c\src\wolfSSL/wolfcrypt/src/random.c **** #endif
 789:..\acn-sdk-c\src\wolfSSL/wolfcrypt/src/random.c **** #ifdef HAVE_CAVIUM
 790:..\acn-sdk-c\src\wolfSSL/wolfcrypt/src/random.c ****     if (rng->magic == WOLFSSL_RNG_CAVIUM_MAGIC)
 791:..\acn-sdk-c\src\wolfSSL/wolfcrypt/src/random.c ****         return CaviumRNG_GenerateBlock(rng, output, sz);
 792:..\acn-sdk-c\src\wolfSSL/wolfcrypt/src/random.c **** #endif
 793:..\acn-sdk-c\src\wolfSSL/wolfcrypt/src/random.c ****     XMEMSET(output, 0, sz);
 794:..\acn-sdk-c\src\wolfSSL/wolfcrypt/src/random.c ****     wc_Arc4Process(&rng->cipher, output, output, sz);
 795:..\acn-sdk-c\src\wolfSSL/wolfcrypt/src/random.c **** 
 796:..\acn-sdk-c\src\wolfSSL/wolfcrypt/src/random.c ****     return 0;
 797:..\acn-sdk-c\src\wolfSSL/wolfcrypt/src/random.c **** }
 798:..\acn-sdk-c\src\wolfSSL/wolfcrypt/src/random.c **** 
 799:..\acn-sdk-c\src\wolfSSL/wolfcrypt/src/random.c **** 
 800:..\acn-sdk-c\src\wolfSSL/wolfcrypt/src/random.c **** int wc_RNG_GenerateByte(WC_RNG* rng, byte* b)
 801:..\acn-sdk-c\src\wolfSSL/wolfcrypt/src/random.c **** {
 802:..\acn-sdk-c\src\wolfSSL/wolfcrypt/src/random.c ****     return wc_RNG_GenerateBlock(rng, b, 1);
 803:..\acn-sdk-c\src\wolfSSL/wolfcrypt/src/random.c **** }
 804:..\acn-sdk-c\src\wolfSSL/wolfcrypt/src/random.c **** 
 805:..\acn-sdk-c\src\wolfSSL/wolfcrypt/src/random.c **** 
 806:..\acn-sdk-c\src\wolfSSL/wolfcrypt/src/random.c **** int wc_FreeRng(WC_RNG* rng)
 807:..\acn-sdk-c\src\wolfSSL/wolfcrypt/src/random.c **** {
 808:..\acn-sdk-c\src\wolfSSL/wolfcrypt/src/random.c ****     (void)rng;
ARM GAS  C:\Users\ddemidov\AppData\Local\Temp\ccBlgygZ.s 			page 43


 809:..\acn-sdk-c\src\wolfSSL/wolfcrypt/src/random.c ****     return 0;
 810:..\acn-sdk-c\src\wolfSSL/wolfcrypt/src/random.c **** }
 811:..\acn-sdk-c\src\wolfSSL/wolfcrypt/src/random.c **** 
 812:..\acn-sdk-c\src\wolfSSL/wolfcrypt/src/random.c **** 
 813:..\acn-sdk-c\src\wolfSSL/wolfcrypt/src/random.c **** #ifdef HAVE_CAVIUM
 814:..\acn-sdk-c\src\wolfSSL/wolfcrypt/src/random.c **** 
 815:..\acn-sdk-c\src\wolfSSL/wolfcrypt/src/random.c **** #include <wolfssl/ctaocrypt/logging.h>
 816:..\acn-sdk-c\src\wolfSSL/wolfcrypt/src/random.c **** #include "cavium_common.h"
 817:..\acn-sdk-c\src\wolfSSL/wolfcrypt/src/random.c **** 
 818:..\acn-sdk-c\src\wolfSSL/wolfcrypt/src/random.c **** /* Initialize RNG for use with Nitrox device */
 819:..\acn-sdk-c\src\wolfSSL/wolfcrypt/src/random.c **** int wc_InitRngCavium(WC_RNG* rng, int devId)
 820:..\acn-sdk-c\src\wolfSSL/wolfcrypt/src/random.c **** {
 821:..\acn-sdk-c\src\wolfSSL/wolfcrypt/src/random.c ****     if (rng == NULL)
 822:..\acn-sdk-c\src\wolfSSL/wolfcrypt/src/random.c ****         return -1;
 823:..\acn-sdk-c\src\wolfSSL/wolfcrypt/src/random.c **** 
 824:..\acn-sdk-c\src\wolfSSL/wolfcrypt/src/random.c ****     rng->devId = devId;
 825:..\acn-sdk-c\src\wolfSSL/wolfcrypt/src/random.c ****     rng->magic = WOLFSSL_RNG_CAVIUM_MAGIC;
 826:..\acn-sdk-c\src\wolfSSL/wolfcrypt/src/random.c **** 
 827:..\acn-sdk-c\src\wolfSSL/wolfcrypt/src/random.c ****     return 0;
 828:..\acn-sdk-c\src\wolfSSL/wolfcrypt/src/random.c **** }
 829:..\acn-sdk-c\src\wolfSSL/wolfcrypt/src/random.c **** 
 830:..\acn-sdk-c\src\wolfSSL/wolfcrypt/src/random.c **** 
 831:..\acn-sdk-c\src\wolfSSL/wolfcrypt/src/random.c **** static void CaviumRNG_GenerateBlock(WC_RNG* rng, byte* output, word32 sz)
 832:..\acn-sdk-c\src\wolfSSL/wolfcrypt/src/random.c **** {
 833:..\acn-sdk-c\src\wolfSSL/wolfcrypt/src/random.c ****     wolfssl_word offset = 0;
 834:..\acn-sdk-c\src\wolfSSL/wolfcrypt/src/random.c ****     word32      requestId;
 835:..\acn-sdk-c\src\wolfSSL/wolfcrypt/src/random.c **** 
 836:..\acn-sdk-c\src\wolfSSL/wolfcrypt/src/random.c ****     while (sz > WOLFSSL_MAX_16BIT) {
 837:..\acn-sdk-c\src\wolfSSL/wolfcrypt/src/random.c ****         word16 slen = (word16)WOLFSSL_MAX_16BIT;
 838:..\acn-sdk-c\src\wolfSSL/wolfcrypt/src/random.c ****         if (CspRandom(CAVIUM_BLOCKING, slen, output + offset, &requestId,
 839:..\acn-sdk-c\src\wolfSSL/wolfcrypt/src/random.c ****                       rng->devId) != 0) {
 840:..\acn-sdk-c\src\wolfSSL/wolfcrypt/src/random.c ****             WOLFSSL_MSG("Cavium RNG failed");
 841:..\acn-sdk-c\src\wolfSSL/wolfcrypt/src/random.c ****         }
 842:..\acn-sdk-c\src\wolfSSL/wolfcrypt/src/random.c ****         sz     -= WOLFSSL_MAX_16BIT;
 843:..\acn-sdk-c\src\wolfSSL/wolfcrypt/src/random.c ****         offset += WOLFSSL_MAX_16BIT;
 844:..\acn-sdk-c\src\wolfSSL/wolfcrypt/src/random.c ****     }
 845:..\acn-sdk-c\src\wolfSSL/wolfcrypt/src/random.c ****     if (sz) {
 846:..\acn-sdk-c\src\wolfSSL/wolfcrypt/src/random.c ****         word16 slen = (word16)sz;
 847:..\acn-sdk-c\src\wolfSSL/wolfcrypt/src/random.c ****         if (CspRandom(CAVIUM_BLOCKING, slen, output + offset, &requestId,
 848:..\acn-sdk-c\src\wolfSSL/wolfcrypt/src/random.c ****                       rng->devId) != 0) {
 849:..\acn-sdk-c\src\wolfSSL/wolfcrypt/src/random.c ****             WOLFSSL_MSG("Cavium RNG failed");
 850:..\acn-sdk-c\src\wolfSSL/wolfcrypt/src/random.c ****         }
 851:..\acn-sdk-c\src\wolfSSL/wolfcrypt/src/random.c ****     }
 852:..\acn-sdk-c\src\wolfSSL/wolfcrypt/src/random.c **** }
 853:..\acn-sdk-c\src\wolfSSL/wolfcrypt/src/random.c **** 
 854:..\acn-sdk-c\src\wolfSSL/wolfcrypt/src/random.c **** #endif /* HAVE_CAVIUM */
 855:..\acn-sdk-c\src\wolfSSL/wolfcrypt/src/random.c **** 
 856:..\acn-sdk-c\src\wolfSSL/wolfcrypt/src/random.c **** #endif /* HAVE_HASHDRBG || NO_RC4 */
 857:..\acn-sdk-c\src\wolfSSL/wolfcrypt/src/random.c **** 
 858:..\acn-sdk-c\src\wolfSSL/wolfcrypt/src/random.c **** 
 859:..\acn-sdk-c\src\wolfSSL/wolfcrypt/src/random.c **** #if defined(HAVE_INTEL_RDGEN)
 860:..\acn-sdk-c\src\wolfSSL/wolfcrypt/src/random.c **** 
 861:..\acn-sdk-c\src\wolfSSL/wolfcrypt/src/random.c **** #ifndef _MSC_VER
 862:..\acn-sdk-c\src\wolfSSL/wolfcrypt/src/random.c ****     #define cpuid(reg, leaf, sub)\
 863:..\acn-sdk-c\src\wolfSSL/wolfcrypt/src/random.c ****             __asm__ __volatile__ ("cpuid":\
 864:..\acn-sdk-c\src\wolfSSL/wolfcrypt/src/random.c ****              "=a" (reg[0]), "=b" (reg[1]), "=c" (reg[2]), "=d" (reg[3]) :\
 865:..\acn-sdk-c\src\wolfSSL/wolfcrypt/src/random.c ****              "a" (leaf), "c"(sub));
ARM GAS  C:\Users\ddemidov\AppData\Local\Temp\ccBlgygZ.s 			page 44


 866:..\acn-sdk-c\src\wolfSSL/wolfcrypt/src/random.c **** 
 867:..\acn-sdk-c\src\wolfSSL/wolfcrypt/src/random.c ****     #define XASM_LINK(f) asm(f)
 868:..\acn-sdk-c\src\wolfSSL/wolfcrypt/src/random.c **** #else
 869:..\acn-sdk-c\src\wolfSSL/wolfcrypt/src/random.c **** 
 870:..\acn-sdk-c\src\wolfSSL/wolfcrypt/src/random.c ****     #include <intrin.h>
 871:..\acn-sdk-c\src\wolfSSL/wolfcrypt/src/random.c ****     #define cpuid(a,b) __cpuid((int*)a,b)
 872:..\acn-sdk-c\src\wolfSSL/wolfcrypt/src/random.c **** 
 873:..\acn-sdk-c\src\wolfSSL/wolfcrypt/src/random.c ****     #define XASM_LINK(f)
 874:..\acn-sdk-c\src\wolfSSL/wolfcrypt/src/random.c **** 
 875:..\acn-sdk-c\src\wolfSSL/wolfcrypt/src/random.c **** #endif /* _MSC_VER */
 876:..\acn-sdk-c\src\wolfSSL/wolfcrypt/src/random.c **** 
 877:..\acn-sdk-c\src\wolfSSL/wolfcrypt/src/random.c **** #define EAX 0
 878:..\acn-sdk-c\src\wolfSSL/wolfcrypt/src/random.c **** #define EBX 1
 879:..\acn-sdk-c\src\wolfSSL/wolfcrypt/src/random.c **** #define ECX 2
 880:..\acn-sdk-c\src\wolfSSL/wolfcrypt/src/random.c **** #define EDX 3
 881:..\acn-sdk-c\src\wolfSSL/wolfcrypt/src/random.c **** 
 882:..\acn-sdk-c\src\wolfSSL/wolfcrypt/src/random.c **** static word32 cpuid_flag(word32 leaf, word32 sub, word32 num, word32 bit) {
 883:..\acn-sdk-c\src\wolfSSL/wolfcrypt/src/random.c ****     int got_intel_cpu=0;
 884:..\acn-sdk-c\src\wolfSSL/wolfcrypt/src/random.c ****     unsigned int reg[5];
 885:..\acn-sdk-c\src\wolfSSL/wolfcrypt/src/random.c **** 
 886:..\acn-sdk-c\src\wolfSSL/wolfcrypt/src/random.c ****     reg[4] = '\0' ;
 887:..\acn-sdk-c\src\wolfSSL/wolfcrypt/src/random.c ****     cpuid(reg, 0, 0);
 888:..\acn-sdk-c\src\wolfSSL/wolfcrypt/src/random.c ****     if(memcmp((char *)&(reg[EBX]), "Genu", 4) == 0 &&
 889:..\acn-sdk-c\src\wolfSSL/wolfcrypt/src/random.c ****                 memcmp((char *)&(reg[EDX]), "ineI", 4) == 0 &&
 890:..\acn-sdk-c\src\wolfSSL/wolfcrypt/src/random.c ****                 memcmp((char *)&(reg[ECX]), "ntel", 4) == 0) {
 891:..\acn-sdk-c\src\wolfSSL/wolfcrypt/src/random.c ****         got_intel_cpu = 1;
 892:..\acn-sdk-c\src\wolfSSL/wolfcrypt/src/random.c ****     }
 893:..\acn-sdk-c\src\wolfSSL/wolfcrypt/src/random.c ****     if (got_intel_cpu) {
 894:..\acn-sdk-c\src\wolfSSL/wolfcrypt/src/random.c ****         cpuid(reg, leaf, sub);
 895:..\acn-sdk-c\src\wolfSSL/wolfcrypt/src/random.c ****         return((reg[num]>>bit)&0x1) ;
 896:..\acn-sdk-c\src\wolfSSL/wolfcrypt/src/random.c ****     }
 897:..\acn-sdk-c\src\wolfSSL/wolfcrypt/src/random.c ****     return 0 ;
 898:..\acn-sdk-c\src\wolfSSL/wolfcrypt/src/random.c **** }
 899:..\acn-sdk-c\src\wolfSSL/wolfcrypt/src/random.c **** 
 900:..\acn-sdk-c\src\wolfSSL/wolfcrypt/src/random.c **** static int wc_InitRng_IntelRD()
 901:..\acn-sdk-c\src\wolfSSL/wolfcrypt/src/random.c **** {
 902:..\acn-sdk-c\src\wolfSSL/wolfcrypt/src/random.c ****     if(cpuid_check==0) {
 903:..\acn-sdk-c\src\wolfSSL/wolfcrypt/src/random.c ****         if(cpuid_flag(1, 0, ECX, 30)){ cpuid_flags |= CPUID_RDRAND ;}
 904:..\acn-sdk-c\src\wolfSSL/wolfcrypt/src/random.c ****         if(cpuid_flag(7, 0, EBX, 18)){ cpuid_flags |= CPUID_RDSEED ;}
 905:..\acn-sdk-c\src\wolfSSL/wolfcrypt/src/random.c ****         cpuid_check = 1 ;
 906:..\acn-sdk-c\src\wolfSSL/wolfcrypt/src/random.c ****     }
 907:..\acn-sdk-c\src\wolfSSL/wolfcrypt/src/random.c ****     return 1 ;
 908:..\acn-sdk-c\src\wolfSSL/wolfcrypt/src/random.c **** }
 909:..\acn-sdk-c\src\wolfSSL/wolfcrypt/src/random.c **** 
 910:..\acn-sdk-c\src\wolfSSL/wolfcrypt/src/random.c **** #define INTELRD_RETRY 10
 911:..\acn-sdk-c\src\wolfSSL/wolfcrypt/src/random.c **** 
 912:..\acn-sdk-c\src\wolfSSL/wolfcrypt/src/random.c **** #if defined(HAVE_HASHDRBG) || defined(NO_RC4)
 913:..\acn-sdk-c\src\wolfSSL/wolfcrypt/src/random.c **** 
 914:..\acn-sdk-c\src\wolfSSL/wolfcrypt/src/random.c **** /* return 0 on success */
 915:..\acn-sdk-c\src\wolfSSL/wolfcrypt/src/random.c **** static INLINE int IntelRDseed32(unsigned int *seed)
 916:..\acn-sdk-c\src\wolfSSL/wolfcrypt/src/random.c **** {
 917:..\acn-sdk-c\src\wolfSSL/wolfcrypt/src/random.c ****     int rdseed;  unsigned char ok ;
 918:..\acn-sdk-c\src\wolfSSL/wolfcrypt/src/random.c **** 
 919:..\acn-sdk-c\src\wolfSSL/wolfcrypt/src/random.c ****     __asm__ volatile("rdseed %0; setc %1":"=r"(rdseed), "=qm"(ok));
 920:..\acn-sdk-c\src\wolfSSL/wolfcrypt/src/random.c ****     if(ok){
 921:..\acn-sdk-c\src\wolfSSL/wolfcrypt/src/random.c ****         *seed = rdseed ;
 922:..\acn-sdk-c\src\wolfSSL/wolfcrypt/src/random.c ****         return 0 ;
ARM GAS  C:\Users\ddemidov\AppData\Local\Temp\ccBlgygZ.s 			page 45


 923:..\acn-sdk-c\src\wolfSSL/wolfcrypt/src/random.c ****     } else
 924:..\acn-sdk-c\src\wolfSSL/wolfcrypt/src/random.c ****         return 1;
 925:..\acn-sdk-c\src\wolfSSL/wolfcrypt/src/random.c **** }
 926:..\acn-sdk-c\src\wolfSSL/wolfcrypt/src/random.c **** 
 927:..\acn-sdk-c\src\wolfSSL/wolfcrypt/src/random.c **** /* return 0 on success */
 928:..\acn-sdk-c\src\wolfSSL/wolfcrypt/src/random.c **** static INLINE int IntelRDseed32_r(unsigned int *rnd)
 929:..\acn-sdk-c\src\wolfSSL/wolfcrypt/src/random.c **** {
 930:..\acn-sdk-c\src\wolfSSL/wolfcrypt/src/random.c ****     int i ;
 931:..\acn-sdk-c\src\wolfSSL/wolfcrypt/src/random.c ****     for(i=0; i<INTELRD_RETRY;i++) {
 932:..\acn-sdk-c\src\wolfSSL/wolfcrypt/src/random.c ****        if(IntelRDseed32(rnd) == 0) return 0 ;
 933:..\acn-sdk-c\src\wolfSSL/wolfcrypt/src/random.c ****     }
 934:..\acn-sdk-c\src\wolfSSL/wolfcrypt/src/random.c ****     return 1 ;
 935:..\acn-sdk-c\src\wolfSSL/wolfcrypt/src/random.c **** }
 936:..\acn-sdk-c\src\wolfSSL/wolfcrypt/src/random.c **** 
 937:..\acn-sdk-c\src\wolfSSL/wolfcrypt/src/random.c **** /* return 0 on success */
 938:..\acn-sdk-c\src\wolfSSL/wolfcrypt/src/random.c **** static int wc_GenerateSeed_IntelRD(OS_Seed* os, byte* output, word32 sz)
 939:..\acn-sdk-c\src\wolfSSL/wolfcrypt/src/random.c **** {
 940:..\acn-sdk-c\src\wolfSSL/wolfcrypt/src/random.c ****     (void) os ;
 941:..\acn-sdk-c\src\wolfSSL/wolfcrypt/src/random.c ****     int ret ;
 942:..\acn-sdk-c\src\wolfSSL/wolfcrypt/src/random.c ****     unsigned int rndTmp ;
 943:..\acn-sdk-c\src\wolfSSL/wolfcrypt/src/random.c **** 
 944:..\acn-sdk-c\src\wolfSSL/wolfcrypt/src/random.c ****     for(  ; sz/4 > 0; sz-=4, output+=4) {
 945:..\acn-sdk-c\src\wolfSSL/wolfcrypt/src/random.c ****         if(IS_INTEL_RDSEED)ret = IntelRDseed32_r((word32 *)output) ;
 946:..\acn-sdk-c\src\wolfSSL/wolfcrypt/src/random.c ****         else return 1 ;
 947:..\acn-sdk-c\src\wolfSSL/wolfcrypt/src/random.c ****         if(ret)
 948:..\acn-sdk-c\src\wolfSSL/wolfcrypt/src/random.c ****              return 1 ;
 949:..\acn-sdk-c\src\wolfSSL/wolfcrypt/src/random.c ****     }
 950:..\acn-sdk-c\src\wolfSSL/wolfcrypt/src/random.c ****     if(sz == 0)return 0 ;
 951:..\acn-sdk-c\src\wolfSSL/wolfcrypt/src/random.c **** 
 952:..\acn-sdk-c\src\wolfSSL/wolfcrypt/src/random.c ****     if(IS_INTEL_RDSEED)ret = IntelRDseed32_r(&rndTmp) ;
 953:..\acn-sdk-c\src\wolfSSL/wolfcrypt/src/random.c ****     else return 1 ;
 954:..\acn-sdk-c\src\wolfSSL/wolfcrypt/src/random.c ****     if(ret)
 955:..\acn-sdk-c\src\wolfSSL/wolfcrypt/src/random.c ****          return 1 ;
 956:..\acn-sdk-c\src\wolfSSL/wolfcrypt/src/random.c ****     XMEMCPY(output, &rndTmp, sz) ;
 957:..\acn-sdk-c\src\wolfSSL/wolfcrypt/src/random.c ****     return 0;
 958:..\acn-sdk-c\src\wolfSSL/wolfcrypt/src/random.c **** }
 959:..\acn-sdk-c\src\wolfSSL/wolfcrypt/src/random.c **** 
 960:..\acn-sdk-c\src\wolfSSL/wolfcrypt/src/random.c **** #else
 961:..\acn-sdk-c\src\wolfSSL/wolfcrypt/src/random.c **** 
 962:..\acn-sdk-c\src\wolfSSL/wolfcrypt/src/random.c **** /* return 0 on success */
 963:..\acn-sdk-c\src\wolfSSL/wolfcrypt/src/random.c **** static INLINE int IntelRDrand32(unsigned int *rnd)
 964:..\acn-sdk-c\src\wolfSSL/wolfcrypt/src/random.c **** {
 965:..\acn-sdk-c\src\wolfSSL/wolfcrypt/src/random.c ****     int rdrand; unsigned char ok ;
 966:..\acn-sdk-c\src\wolfSSL/wolfcrypt/src/random.c ****     __asm__ volatile("rdrand %0; setc %1":"=r"(rdrand), "=qm"(ok));
 967:..\acn-sdk-c\src\wolfSSL/wolfcrypt/src/random.c ****     if(ok){
 968:..\acn-sdk-c\src\wolfSSL/wolfcrypt/src/random.c ****         *rnd = rdrand;
 969:..\acn-sdk-c\src\wolfSSL/wolfcrypt/src/random.c ****         return 0 ;
 970:..\acn-sdk-c\src\wolfSSL/wolfcrypt/src/random.c ****     } else
 971:..\acn-sdk-c\src\wolfSSL/wolfcrypt/src/random.c ****         return 1;
 972:..\acn-sdk-c\src\wolfSSL/wolfcrypt/src/random.c **** }
 973:..\acn-sdk-c\src\wolfSSL/wolfcrypt/src/random.c **** 
 974:..\acn-sdk-c\src\wolfSSL/wolfcrypt/src/random.c **** /* return 0 on success */
 975:..\acn-sdk-c\src\wolfSSL/wolfcrypt/src/random.c **** static INLINE int IntelRDrand32_r(unsigned int *rnd)
 976:..\acn-sdk-c\src\wolfSSL/wolfcrypt/src/random.c **** {
 977:..\acn-sdk-c\src\wolfSSL/wolfcrypt/src/random.c ****     int i ;
 978:..\acn-sdk-c\src\wolfSSL/wolfcrypt/src/random.c ****     for(i=0; i<INTELRD_RETRY;i++) {
 979:..\acn-sdk-c\src\wolfSSL/wolfcrypt/src/random.c ****        if(IntelRDrand32(rnd) == 0) return 0 ;
ARM GAS  C:\Users\ddemidov\AppData\Local\Temp\ccBlgygZ.s 			page 46


 980:..\acn-sdk-c\src\wolfSSL/wolfcrypt/src/random.c ****     }
 981:..\acn-sdk-c\src\wolfSSL/wolfcrypt/src/random.c ****     return 1 ;
 982:..\acn-sdk-c\src\wolfSSL/wolfcrypt/src/random.c **** }
 983:..\acn-sdk-c\src\wolfSSL/wolfcrypt/src/random.c **** 
 984:..\acn-sdk-c\src\wolfSSL/wolfcrypt/src/random.c **** /* return 0 on success */
 985:..\acn-sdk-c\src\wolfSSL/wolfcrypt/src/random.c **** static int wc_GenerateRand_IntelRD(OS_Seed* os, byte* output, word32 sz)
 986:..\acn-sdk-c\src\wolfSSL/wolfcrypt/src/random.c **** {
 987:..\acn-sdk-c\src\wolfSSL/wolfcrypt/src/random.c ****     (void) os ;
 988:..\acn-sdk-c\src\wolfSSL/wolfcrypt/src/random.c ****     int ret ;
 989:..\acn-sdk-c\src\wolfSSL/wolfcrypt/src/random.c ****     unsigned int rndTmp;
 990:..\acn-sdk-c\src\wolfSSL/wolfcrypt/src/random.c **** 
 991:..\acn-sdk-c\src\wolfSSL/wolfcrypt/src/random.c ****     for(  ; sz/4 > 0; sz-=4, output+=4) {
 992:..\acn-sdk-c\src\wolfSSL/wolfcrypt/src/random.c ****         if(IS_INTEL_RDRAND)ret = IntelRDrand32_r((word32 *)output);
 993:..\acn-sdk-c\src\wolfSSL/wolfcrypt/src/random.c ****         else return 1 ;
 994:..\acn-sdk-c\src\wolfSSL/wolfcrypt/src/random.c ****         if(ret)
 995:..\acn-sdk-c\src\wolfSSL/wolfcrypt/src/random.c ****              return 1 ;
 996:..\acn-sdk-c\src\wolfSSL/wolfcrypt/src/random.c ****     }
 997:..\acn-sdk-c\src\wolfSSL/wolfcrypt/src/random.c ****     if(sz == 0)return 0 ;
 998:..\acn-sdk-c\src\wolfSSL/wolfcrypt/src/random.c **** 
 999:..\acn-sdk-c\src\wolfSSL/wolfcrypt/src/random.c ****     if(IS_INTEL_RDRAND)ret = IntelRDrand32_r(&rndTmp);
1000:..\acn-sdk-c\src\wolfSSL/wolfcrypt/src/random.c ****     else return 1 ;
1001:..\acn-sdk-c\src\wolfSSL/wolfcrypt/src/random.c ****     if(ret)
1002:..\acn-sdk-c\src\wolfSSL/wolfcrypt/src/random.c ****          return 1 ;
1003:..\acn-sdk-c\src\wolfSSL/wolfcrypt/src/random.c ****     XMEMCPY(output, &rndTmp, sz) ;
1004:..\acn-sdk-c\src\wolfSSL/wolfcrypt/src/random.c ****     return 0;
1005:..\acn-sdk-c\src\wolfSSL/wolfcrypt/src/random.c **** }
1006:..\acn-sdk-c\src\wolfSSL/wolfcrypt/src/random.c **** #endif /* defined(HAVE_HASHDRBG) || defined(NO_RC4) */
1007:..\acn-sdk-c\src\wolfSSL/wolfcrypt/src/random.c **** 
1008:..\acn-sdk-c\src\wolfSSL/wolfcrypt/src/random.c **** #endif /* HAVE_INTEL_RDGEN */
1009:..\acn-sdk-c\src\wolfSSL/wolfcrypt/src/random.c **** 
1010:..\acn-sdk-c\src\wolfSSL/wolfcrypt/src/random.c **** 
1011:..\acn-sdk-c\src\wolfSSL/wolfcrypt/src/random.c **** /* wc_GenerateSeed Implementations */
1012:..\acn-sdk-c\src\wolfSSL/wolfcrypt/src/random.c **** #if defined(CUSTOM_RAND_GENERATE_SEED)
1013:..\acn-sdk-c\src\wolfSSL/wolfcrypt/src/random.c **** 
1014:..\acn-sdk-c\src\wolfSSL/wolfcrypt/src/random.c ****     /* Implement your own random generation function
1015:..\acn-sdk-c\src\wolfSSL/wolfcrypt/src/random.c ****      * Return 0 to indicate success
1016:..\acn-sdk-c\src\wolfSSL/wolfcrypt/src/random.c ****      * int rand_gen_seed(byte* output, word32 sz);
1017:..\acn-sdk-c\src\wolfSSL/wolfcrypt/src/random.c ****      * #define CUSTOM_RAND_GENERATE_SEED  rand_gen_seed */
1018:..\acn-sdk-c\src\wolfSSL/wolfcrypt/src/random.c **** 
1019:..\acn-sdk-c\src\wolfSSL/wolfcrypt/src/random.c ****     int wc_GenerateSeed(OS_Seed* os, byte* output, word32 sz)
1020:..\acn-sdk-c\src\wolfSSL/wolfcrypt/src/random.c ****     {
1021:..\acn-sdk-c\src\wolfSSL/wolfcrypt/src/random.c ****         (void)os; /* Suppress unused arg warning */
1022:..\acn-sdk-c\src\wolfSSL/wolfcrypt/src/random.c ****         return CUSTOM_RAND_GENERATE_SEED(output, sz);
1023:..\acn-sdk-c\src\wolfSSL/wolfcrypt/src/random.c ****     }
1024:..\acn-sdk-c\src\wolfSSL/wolfcrypt/src/random.c **** 
1025:..\acn-sdk-c\src\wolfSSL/wolfcrypt/src/random.c **** #elif defined(CUSTOM_RAND_GENERATE_SEED_OS)
1026:..\acn-sdk-c\src\wolfSSL/wolfcrypt/src/random.c **** 
1027:..\acn-sdk-c\src\wolfSSL/wolfcrypt/src/random.c ****     /* Implement your own random generation function,
1028:..\acn-sdk-c\src\wolfSSL/wolfcrypt/src/random.c ****      *  which includes OS_Seed.
1029:..\acn-sdk-c\src\wolfSSL/wolfcrypt/src/random.c ****      * Return 0 to indicate success
1030:..\acn-sdk-c\src\wolfSSL/wolfcrypt/src/random.c ****      * int rand_gen_seed(OS_Seed* os, byte* output, word32 sz);
1031:..\acn-sdk-c\src\wolfSSL/wolfcrypt/src/random.c ****      * #define CUSTOM_RAND_GENERATE_SEED_OS  rand_gen_seed */
1032:..\acn-sdk-c\src\wolfSSL/wolfcrypt/src/random.c **** 
1033:..\acn-sdk-c\src\wolfSSL/wolfcrypt/src/random.c ****     int wc_GenerateSeed(OS_Seed* os, byte* output, word32 sz)
1034:..\acn-sdk-c\src\wolfSSL/wolfcrypt/src/random.c ****     {
1035:..\acn-sdk-c\src\wolfSSL/wolfcrypt/src/random.c ****         return CUSTOM_RAND_GENERATE_SEED_OS(os, output, sz);
1036:..\acn-sdk-c\src\wolfSSL/wolfcrypt/src/random.c ****     }
ARM GAS  C:\Users\ddemidov\AppData\Local\Temp\ccBlgygZ.s 			page 47


1037:..\acn-sdk-c\src\wolfSSL/wolfcrypt/src/random.c **** 
1038:..\acn-sdk-c\src\wolfSSL/wolfcrypt/src/random.c **** 
1039:..\acn-sdk-c\src\wolfSSL/wolfcrypt/src/random.c **** #elif defined(USE_WINDOWS_API)
1040:..\acn-sdk-c\src\wolfSSL/wolfcrypt/src/random.c **** 
1041:..\acn-sdk-c\src\wolfSSL/wolfcrypt/src/random.c **** int wc_GenerateSeed(OS_Seed* os, byte* output, word32 sz)
1042:..\acn-sdk-c\src\wolfSSL/wolfcrypt/src/random.c **** {
1043:..\acn-sdk-c\src\wolfSSL/wolfcrypt/src/random.c ****     if(!CryptAcquireContext(&os->handle, 0, 0, PROV_RSA_FULL,
1044:..\acn-sdk-c\src\wolfSSL/wolfcrypt/src/random.c ****                             CRYPT_VERIFYCONTEXT))
1045:..\acn-sdk-c\src\wolfSSL/wolfcrypt/src/random.c ****         return WINCRYPT_E;
1046:..\acn-sdk-c\src\wolfSSL/wolfcrypt/src/random.c **** 
1047:..\acn-sdk-c\src\wolfSSL/wolfcrypt/src/random.c ****     if (!CryptGenRandom(os->handle, sz, output))
1048:..\acn-sdk-c\src\wolfSSL/wolfcrypt/src/random.c ****         return CRYPTGEN_E;
1049:..\acn-sdk-c\src\wolfSSL/wolfcrypt/src/random.c **** 
1050:..\acn-sdk-c\src\wolfSSL/wolfcrypt/src/random.c ****     CryptReleaseContext(os->handle, 0);
1051:..\acn-sdk-c\src\wolfSSL/wolfcrypt/src/random.c **** 
1052:..\acn-sdk-c\src\wolfSSL/wolfcrypt/src/random.c ****     return 0;
1053:..\acn-sdk-c\src\wolfSSL/wolfcrypt/src/random.c **** }
1054:..\acn-sdk-c\src\wolfSSL/wolfcrypt/src/random.c **** 
1055:..\acn-sdk-c\src\wolfSSL/wolfcrypt/src/random.c **** 
1056:..\acn-sdk-c\src\wolfSSL/wolfcrypt/src/random.c **** #elif defined(HAVE_RTP_SYS) || defined(EBSNET)
1057:..\acn-sdk-c\src\wolfSSL/wolfcrypt/src/random.c **** 
1058:..\acn-sdk-c\src\wolfSSL/wolfcrypt/src/random.c **** #include "rtprand.h"   /* rtp_rand () */
1059:..\acn-sdk-c\src\wolfSSL/wolfcrypt/src/random.c **** #include "rtptime.h"   /* rtp_get_system_msec() */
1060:..\acn-sdk-c\src\wolfSSL/wolfcrypt/src/random.c **** 
1061:..\acn-sdk-c\src\wolfSSL/wolfcrypt/src/random.c **** 
1062:..\acn-sdk-c\src\wolfSSL/wolfcrypt/src/random.c **** int wc_GenerateSeed(OS_Seed* os, byte* output, word32 sz)
1063:..\acn-sdk-c\src\wolfSSL/wolfcrypt/src/random.c **** {
1064:..\acn-sdk-c\src\wolfSSL/wolfcrypt/src/random.c ****     int i;
1065:..\acn-sdk-c\src\wolfSSL/wolfcrypt/src/random.c ****     rtp_srand(rtp_get_system_msec());
1066:..\acn-sdk-c\src\wolfSSL/wolfcrypt/src/random.c **** 
1067:..\acn-sdk-c\src\wolfSSL/wolfcrypt/src/random.c ****     for (i = 0; i < sz; i++ ) {
1068:..\acn-sdk-c\src\wolfSSL/wolfcrypt/src/random.c ****         output[i] = rtp_rand() % 256;
1069:..\acn-sdk-c\src\wolfSSL/wolfcrypt/src/random.c ****         if ( (i % 8) == 7)
1070:..\acn-sdk-c\src\wolfSSL/wolfcrypt/src/random.c ****             rtp_srand(rtp_get_system_msec());
1071:..\acn-sdk-c\src\wolfSSL/wolfcrypt/src/random.c ****     }
1072:..\acn-sdk-c\src\wolfSSL/wolfcrypt/src/random.c **** 
1073:..\acn-sdk-c\src\wolfSSL/wolfcrypt/src/random.c ****     return 0;
1074:..\acn-sdk-c\src\wolfSSL/wolfcrypt/src/random.c **** }
1075:..\acn-sdk-c\src\wolfSSL/wolfcrypt/src/random.c **** 
1076:..\acn-sdk-c\src\wolfSSL/wolfcrypt/src/random.c **** 
1077:..\acn-sdk-c\src\wolfSSL/wolfcrypt/src/random.c **** #elif defined(MICRIUM)
1078:..\acn-sdk-c\src\wolfSSL/wolfcrypt/src/random.c **** 
1079:..\acn-sdk-c\src\wolfSSL/wolfcrypt/src/random.c **** int wc_GenerateSeed(OS_Seed* os, byte* output, word32 sz)
1080:..\acn-sdk-c\src\wolfSSL/wolfcrypt/src/random.c **** {
1081:..\acn-sdk-c\src\wolfSSL/wolfcrypt/src/random.c ****     #if (NET_SECURE_MGR_CFG_EN == DEF_ENABLED)
1082:..\acn-sdk-c\src\wolfSSL/wolfcrypt/src/random.c ****         NetSecure_InitSeed(output, sz);
1083:..\acn-sdk-c\src\wolfSSL/wolfcrypt/src/random.c ****     #endif
1084:..\acn-sdk-c\src\wolfSSL/wolfcrypt/src/random.c ****     return 0;
1085:..\acn-sdk-c\src\wolfSSL/wolfcrypt/src/random.c **** }
1086:..\acn-sdk-c\src\wolfSSL/wolfcrypt/src/random.c **** 
1087:..\acn-sdk-c\src\wolfSSL/wolfcrypt/src/random.c **** #elif defined(MICROCHIP_PIC32)
1088:..\acn-sdk-c\src\wolfSSL/wolfcrypt/src/random.c **** 
1089:..\acn-sdk-c\src\wolfSSL/wolfcrypt/src/random.c **** #ifdef MICROCHIP_MPLAB_HARMONY
1090:..\acn-sdk-c\src\wolfSSL/wolfcrypt/src/random.c ****     #define PIC32_SEED_COUNT _CP0_GET_COUNT
1091:..\acn-sdk-c\src\wolfSSL/wolfcrypt/src/random.c **** #else
1092:..\acn-sdk-c\src\wolfSSL/wolfcrypt/src/random.c ****     #if !defined(WOLFSSL_MICROCHIP_PIC32MZ)
1093:..\acn-sdk-c\src\wolfSSL/wolfcrypt/src/random.c ****         #include <peripheral/timer.h>
ARM GAS  C:\Users\ddemidov\AppData\Local\Temp\ccBlgygZ.s 			page 48


1094:..\acn-sdk-c\src\wolfSSL/wolfcrypt/src/random.c ****     #endif
1095:..\acn-sdk-c\src\wolfSSL/wolfcrypt/src/random.c ****     #define PIC32_SEED_COUNT ReadCoreTimer
1096:..\acn-sdk-c\src\wolfSSL/wolfcrypt/src/random.c **** #endif
1097:..\acn-sdk-c\src\wolfSSL/wolfcrypt/src/random.c ****     #ifdef WOLFSSL_MIC32MZ_RNG
1098:..\acn-sdk-c\src\wolfSSL/wolfcrypt/src/random.c ****         #include "xc.h"
1099:..\acn-sdk-c\src\wolfSSL/wolfcrypt/src/random.c ****         int wc_GenerateSeed(OS_Seed* os, byte* output, word32 sz)
1100:..\acn-sdk-c\src\wolfSSL/wolfcrypt/src/random.c ****         {
1101:..\acn-sdk-c\src\wolfSSL/wolfcrypt/src/random.c ****             int i ;
1102:..\acn-sdk-c\src\wolfSSL/wolfcrypt/src/random.c ****             byte rnd[8] ;
1103:..\acn-sdk-c\src\wolfSSL/wolfcrypt/src/random.c ****             word32 *rnd32 = (word32 *)rnd ;
1104:..\acn-sdk-c\src\wolfSSL/wolfcrypt/src/random.c ****             word32 size = sz ;
1105:..\acn-sdk-c\src\wolfSSL/wolfcrypt/src/random.c ****             byte* op = output ;
1106:..\acn-sdk-c\src\wolfSSL/wolfcrypt/src/random.c **** 
1107:..\acn-sdk-c\src\wolfSSL/wolfcrypt/src/random.c ****             /* This part has to be replaced with better random seed */
1108:..\acn-sdk-c\src\wolfSSL/wolfcrypt/src/random.c ****             RNGNUMGEN1 = ReadCoreTimer();
1109:..\acn-sdk-c\src\wolfSSL/wolfcrypt/src/random.c ****             RNGPOLY1 = ReadCoreTimer();
1110:..\acn-sdk-c\src\wolfSSL/wolfcrypt/src/random.c ****             RNGPOLY2 = ReadCoreTimer();
1111:..\acn-sdk-c\src\wolfSSL/wolfcrypt/src/random.c ****             RNGNUMGEN2 = ReadCoreTimer();
1112:..\acn-sdk-c\src\wolfSSL/wolfcrypt/src/random.c **** #ifdef DEBUG_WOLFSSL
1113:..\acn-sdk-c\src\wolfSSL/wolfcrypt/src/random.c ****             printf("GenerateSeed::Seed=%08x, %08x\n", RNGNUMGEN1, RNGNUMGEN2) ;
1114:..\acn-sdk-c\src\wolfSSL/wolfcrypt/src/random.c **** #endif
1115:..\acn-sdk-c\src\wolfSSL/wolfcrypt/src/random.c ****             RNGCONbits.PLEN = 0x40;
1116:..\acn-sdk-c\src\wolfSSL/wolfcrypt/src/random.c ****             RNGCONbits.PRNGEN = 1;
1117:..\acn-sdk-c\src\wolfSSL/wolfcrypt/src/random.c ****             for(i=0; i<5; i++) { /* wait for RNGNUMGEN ready */
1118:..\acn-sdk-c\src\wolfSSL/wolfcrypt/src/random.c ****                 volatile int x ;
1119:..\acn-sdk-c\src\wolfSSL/wolfcrypt/src/random.c ****                 x = RNGNUMGEN1 ;
1120:..\acn-sdk-c\src\wolfSSL/wolfcrypt/src/random.c ****                 x = RNGNUMGEN2 ;
1121:..\acn-sdk-c\src\wolfSSL/wolfcrypt/src/random.c ****             }
1122:..\acn-sdk-c\src\wolfSSL/wolfcrypt/src/random.c ****             do {
1123:..\acn-sdk-c\src\wolfSSL/wolfcrypt/src/random.c ****                 rnd32[0] = RNGNUMGEN1;
1124:..\acn-sdk-c\src\wolfSSL/wolfcrypt/src/random.c ****                 rnd32[1] = RNGNUMGEN2;
1125:..\acn-sdk-c\src\wolfSSL/wolfcrypt/src/random.c **** 
1126:..\acn-sdk-c\src\wolfSSL/wolfcrypt/src/random.c ****                 for(i=0; i<8; i++, op++) {
1127:..\acn-sdk-c\src\wolfSSL/wolfcrypt/src/random.c ****                     *op = rnd[i] ;
1128:..\acn-sdk-c\src\wolfSSL/wolfcrypt/src/random.c ****                     size -- ;
1129:..\acn-sdk-c\src\wolfSSL/wolfcrypt/src/random.c ****                     if(size==0)break ;
1130:..\acn-sdk-c\src\wolfSSL/wolfcrypt/src/random.c ****                 }
1131:..\acn-sdk-c\src\wolfSSL/wolfcrypt/src/random.c ****             } while(size) ;
1132:..\acn-sdk-c\src\wolfSSL/wolfcrypt/src/random.c ****             return 0;
1133:..\acn-sdk-c\src\wolfSSL/wolfcrypt/src/random.c ****         }
1134:..\acn-sdk-c\src\wolfSSL/wolfcrypt/src/random.c ****     #else  /* WOLFSSL_MIC32MZ_RNG */
1135:..\acn-sdk-c\src\wolfSSL/wolfcrypt/src/random.c ****         /* uses the core timer, in nanoseconds to seed srand */
1136:..\acn-sdk-c\src\wolfSSL/wolfcrypt/src/random.c ****         int wc_GenerateSeed(OS_Seed* os, byte* output, word32 sz)
1137:..\acn-sdk-c\src\wolfSSL/wolfcrypt/src/random.c ****         {
1138:..\acn-sdk-c\src\wolfSSL/wolfcrypt/src/random.c ****             int i;
1139:..\acn-sdk-c\src\wolfSSL/wolfcrypt/src/random.c ****             srand(PIC32_SEED_COUNT() * 25);
1140:..\acn-sdk-c\src\wolfSSL/wolfcrypt/src/random.c **** 
1141:..\acn-sdk-c\src\wolfSSL/wolfcrypt/src/random.c ****             for (i = 0; i < sz; i++ ) {
1142:..\acn-sdk-c\src\wolfSSL/wolfcrypt/src/random.c ****                 output[i] = rand() % 256;
1143:..\acn-sdk-c\src\wolfSSL/wolfcrypt/src/random.c ****                 if ( (i % 8) == 7)
1144:..\acn-sdk-c\src\wolfSSL/wolfcrypt/src/random.c ****                     srand(PIC32_SEED_COUNT() * 25);
1145:..\acn-sdk-c\src\wolfSSL/wolfcrypt/src/random.c ****             }
1146:..\acn-sdk-c\src\wolfSSL/wolfcrypt/src/random.c ****             return 0;
1147:..\acn-sdk-c\src\wolfSSL/wolfcrypt/src/random.c ****         }
1148:..\acn-sdk-c\src\wolfSSL/wolfcrypt/src/random.c ****     #endif /* WOLFSSL_MIC32MZ_RNG */
1149:..\acn-sdk-c\src\wolfSSL/wolfcrypt/src/random.c **** 
1150:..\acn-sdk-c\src\wolfSSL/wolfcrypt/src/random.c **** #elif defined(FREESCALE_MQX) || defined(FREESCALE_KSDK_MQX) || \
ARM GAS  C:\Users\ddemidov\AppData\Local\Temp\ccBlgygZ.s 			page 49


1151:..\acn-sdk-c\src\wolfSSL/wolfcrypt/src/random.c ****       defined(FREESCALE_KSDK_BM) || defined(FREESCALE_FREE_RTOS)
1152:..\acn-sdk-c\src\wolfSSL/wolfcrypt/src/random.c **** 
1153:..\acn-sdk-c\src\wolfSSL/wolfcrypt/src/random.c ****     #if defined(FREESCALE_K70_RNGA) || defined(FREESCALE_RNGA)
1154:..\acn-sdk-c\src\wolfSSL/wolfcrypt/src/random.c ****         /*
1155:..\acn-sdk-c\src\wolfSSL/wolfcrypt/src/random.c ****          * wc_Generates a RNG seed using the Random Number Generator Accelerator
1156:..\acn-sdk-c\src\wolfSSL/wolfcrypt/src/random.c ****          * on the Kinetis K70. Documentation located in Chapter 37 of
1157:..\acn-sdk-c\src\wolfSSL/wolfcrypt/src/random.c ****          * K70 Sub-Family Reference Manual (see Note 3 in the README for link).
1158:..\acn-sdk-c\src\wolfSSL/wolfcrypt/src/random.c ****          */
1159:..\acn-sdk-c\src\wolfSSL/wolfcrypt/src/random.c ****         int wc_GenerateSeed(OS_Seed* os, byte* output, word32 sz)
1160:..\acn-sdk-c\src\wolfSSL/wolfcrypt/src/random.c ****         {
1161:..\acn-sdk-c\src\wolfSSL/wolfcrypt/src/random.c ****             int i;
1162:..\acn-sdk-c\src\wolfSSL/wolfcrypt/src/random.c **** 
1163:..\acn-sdk-c\src\wolfSSL/wolfcrypt/src/random.c ****             /* turn on RNGA module */
1164:..\acn-sdk-c\src\wolfSSL/wolfcrypt/src/random.c ****             #if defined(SIM_SCGC3_RNGA_MASK)
1165:..\acn-sdk-c\src\wolfSSL/wolfcrypt/src/random.c ****                 SIM_SCGC3 |= SIM_SCGC3_RNGA_MASK;
1166:..\acn-sdk-c\src\wolfSSL/wolfcrypt/src/random.c ****             #endif
1167:..\acn-sdk-c\src\wolfSSL/wolfcrypt/src/random.c ****             #if defined(SIM_SCGC6_RNGA_MASK)
1168:..\acn-sdk-c\src\wolfSSL/wolfcrypt/src/random.c ****                 /* additionally needed for at least K64F */
1169:..\acn-sdk-c\src\wolfSSL/wolfcrypt/src/random.c ****                 SIM_SCGC6 |= SIM_SCGC6_RNGA_MASK;
1170:..\acn-sdk-c\src\wolfSSL/wolfcrypt/src/random.c ****             #endif
1171:..\acn-sdk-c\src\wolfSSL/wolfcrypt/src/random.c **** 
1172:..\acn-sdk-c\src\wolfSSL/wolfcrypt/src/random.c ****             /* set SLP bit to 0 - "RNGA is not in sleep mode" */
1173:..\acn-sdk-c\src\wolfSSL/wolfcrypt/src/random.c ****             RNG_CR &= ~RNG_CR_SLP_MASK;
1174:..\acn-sdk-c\src\wolfSSL/wolfcrypt/src/random.c **** 
1175:..\acn-sdk-c\src\wolfSSL/wolfcrypt/src/random.c ****             /* set HA bit to 1 - "security violations masked" */
1176:..\acn-sdk-c\src\wolfSSL/wolfcrypt/src/random.c ****             RNG_CR |= RNG_CR_HA_MASK;
1177:..\acn-sdk-c\src\wolfSSL/wolfcrypt/src/random.c **** 
1178:..\acn-sdk-c\src\wolfSSL/wolfcrypt/src/random.c ****             /* set GO bit to 1 - "output register loaded with data" */
1179:..\acn-sdk-c\src\wolfSSL/wolfcrypt/src/random.c ****             RNG_CR |= RNG_CR_GO_MASK;
1180:..\acn-sdk-c\src\wolfSSL/wolfcrypt/src/random.c **** 
1181:..\acn-sdk-c\src\wolfSSL/wolfcrypt/src/random.c ****             for (i = 0; i < sz; i++) {
1182:..\acn-sdk-c\src\wolfSSL/wolfcrypt/src/random.c **** 
1183:..\acn-sdk-c\src\wolfSSL/wolfcrypt/src/random.c ****                 /* wait for RNG FIFO to be full */
1184:..\acn-sdk-c\src\wolfSSL/wolfcrypt/src/random.c ****                 while((RNG_SR & RNG_SR_OREG_LVL(0xF)) == 0) {}
1185:..\acn-sdk-c\src\wolfSSL/wolfcrypt/src/random.c **** 
1186:..\acn-sdk-c\src\wolfSSL/wolfcrypt/src/random.c ****                 /* get value */
1187:..\acn-sdk-c\src\wolfSSL/wolfcrypt/src/random.c ****                 output[i] = RNG_OR;
1188:..\acn-sdk-c\src\wolfSSL/wolfcrypt/src/random.c ****             }
1189:..\acn-sdk-c\src\wolfSSL/wolfcrypt/src/random.c **** 
1190:..\acn-sdk-c\src\wolfSSL/wolfcrypt/src/random.c ****             return 0;
1191:..\acn-sdk-c\src\wolfSSL/wolfcrypt/src/random.c ****         }
1192:..\acn-sdk-c\src\wolfSSL/wolfcrypt/src/random.c **** 
1193:..\acn-sdk-c\src\wolfSSL/wolfcrypt/src/random.c ****     #elif defined(FREESCALE_K53_RNGB) || defined(FREESCALE_RNGB)
1194:..\acn-sdk-c\src\wolfSSL/wolfcrypt/src/random.c ****         /*
1195:..\acn-sdk-c\src\wolfSSL/wolfcrypt/src/random.c ****          * wc_Generates a RNG seed using the Random Number Generator (RNGB)
1196:..\acn-sdk-c\src\wolfSSL/wolfcrypt/src/random.c ****          * on the Kinetis K53. Documentation located in Chapter 33 of
1197:..\acn-sdk-c\src\wolfSSL/wolfcrypt/src/random.c ****          * K53 Sub-Family Reference Manual (see note in the README for link).
1198:..\acn-sdk-c\src\wolfSSL/wolfcrypt/src/random.c ****          */
1199:..\acn-sdk-c\src\wolfSSL/wolfcrypt/src/random.c ****         int wc_GenerateSeed(OS_Seed* os, byte* output, word32 sz)
1200:..\acn-sdk-c\src\wolfSSL/wolfcrypt/src/random.c ****         {
1201:..\acn-sdk-c\src\wolfSSL/wolfcrypt/src/random.c ****             int i;
1202:..\acn-sdk-c\src\wolfSSL/wolfcrypt/src/random.c **** 
1203:..\acn-sdk-c\src\wolfSSL/wolfcrypt/src/random.c ****             /* turn on RNGB module */
1204:..\acn-sdk-c\src\wolfSSL/wolfcrypt/src/random.c ****             SIM_SCGC3 |= SIM_SCGC3_RNGB_MASK;
1205:..\acn-sdk-c\src\wolfSSL/wolfcrypt/src/random.c **** 
1206:..\acn-sdk-c\src\wolfSSL/wolfcrypt/src/random.c ****             /* reset RNGB */
1207:..\acn-sdk-c\src\wolfSSL/wolfcrypt/src/random.c ****             RNG_CMD |= RNG_CMD_SR_MASK;
ARM GAS  C:\Users\ddemidov\AppData\Local\Temp\ccBlgygZ.s 			page 50


1208:..\acn-sdk-c\src\wolfSSL/wolfcrypt/src/random.c **** 
1209:..\acn-sdk-c\src\wolfSSL/wolfcrypt/src/random.c ****             /* FIFO generate interrupt, return all zeros on underflow,
1210:..\acn-sdk-c\src\wolfSSL/wolfcrypt/src/random.c ****              * set auto reseed */
1211:..\acn-sdk-c\src\wolfSSL/wolfcrypt/src/random.c ****             RNG_CR |= (RNG_CR_FUFMOD_MASK | RNG_CR_AR_MASK);
1212:..\acn-sdk-c\src\wolfSSL/wolfcrypt/src/random.c **** 
1213:..\acn-sdk-c\src\wolfSSL/wolfcrypt/src/random.c ****             /* gen seed, clear interrupts, clear errors */
1214:..\acn-sdk-c\src\wolfSSL/wolfcrypt/src/random.c ****             RNG_CMD |= (RNG_CMD_GS_MASK | RNG_CMD_CI_MASK | RNG_CMD_CE_MASK);
1215:..\acn-sdk-c\src\wolfSSL/wolfcrypt/src/random.c **** 
1216:..\acn-sdk-c\src\wolfSSL/wolfcrypt/src/random.c ****             /* wait for seeding to complete */
1217:..\acn-sdk-c\src\wolfSSL/wolfcrypt/src/random.c ****             while ((RNG_SR & RNG_SR_SDN_MASK) == 0) {}
1218:..\acn-sdk-c\src\wolfSSL/wolfcrypt/src/random.c **** 
1219:..\acn-sdk-c\src\wolfSSL/wolfcrypt/src/random.c ****             for (i = 0; i < sz; i++) {
1220:..\acn-sdk-c\src\wolfSSL/wolfcrypt/src/random.c **** 
1221:..\acn-sdk-c\src\wolfSSL/wolfcrypt/src/random.c ****                 /* wait for a word to be available from FIFO */
1222:..\acn-sdk-c\src\wolfSSL/wolfcrypt/src/random.c ****                 while((RNG_SR & RNG_SR_FIFO_LVL_MASK) == 0) {}
1223:..\acn-sdk-c\src\wolfSSL/wolfcrypt/src/random.c **** 
1224:..\acn-sdk-c\src\wolfSSL/wolfcrypt/src/random.c ****                 /* get value */
1225:..\acn-sdk-c\src\wolfSSL/wolfcrypt/src/random.c ****                 output[i] = RNG_OUT;
1226:..\acn-sdk-c\src\wolfSSL/wolfcrypt/src/random.c ****             }
1227:..\acn-sdk-c\src\wolfSSL/wolfcrypt/src/random.c **** 
1228:..\acn-sdk-c\src\wolfSSL/wolfcrypt/src/random.c ****             return 0;
1229:..\acn-sdk-c\src\wolfSSL/wolfcrypt/src/random.c ****         }
1230:..\acn-sdk-c\src\wolfSSL/wolfcrypt/src/random.c **** 
1231:..\acn-sdk-c\src\wolfSSL/wolfcrypt/src/random.c ****     #elif defined(FREESCALE_TRNG)
1232:..\acn-sdk-c\src\wolfSSL/wolfcrypt/src/random.c **** 
1233:..\acn-sdk-c\src\wolfSSL/wolfcrypt/src/random.c ****         int wc_GenerateSeed(OS_Seed* os, byte* output, word32 sz)
1234:..\acn-sdk-c\src\wolfSSL/wolfcrypt/src/random.c ****         {
1235:..\acn-sdk-c\src\wolfSSL/wolfcrypt/src/random.c ****             TRNG_DRV_GetRandomData(TRNG_INSTANCE, output, sz);
1236:..\acn-sdk-c\src\wolfSSL/wolfcrypt/src/random.c ****             return 0;
1237:..\acn-sdk-c\src\wolfSSL/wolfcrypt/src/random.c ****         }
1238:..\acn-sdk-c\src\wolfSSL/wolfcrypt/src/random.c **** 
1239:..\acn-sdk-c\src\wolfSSL/wolfcrypt/src/random.c **** 
1240:..\acn-sdk-c\src\wolfSSL/wolfcrypt/src/random.c ****     #elif defined(FREESCALE_RNGA)
1241:..\acn-sdk-c\src\wolfSSL/wolfcrypt/src/random.c **** 
1242:..\acn-sdk-c\src\wolfSSL/wolfcrypt/src/random.c ****         int wc_GenerateSeed(OS_Seed* os, byte* output, word32 sz)
1243:..\acn-sdk-c\src\wolfSSL/wolfcrypt/src/random.c ****         {
1244:..\acn-sdk-c\src\wolfSSL/wolfcrypt/src/random.c ****             RNGA_DRV_GetRandomData(RNGA_INSTANCE, output, sz);
1245:..\acn-sdk-c\src\wolfSSL/wolfcrypt/src/random.c ****             return 0;
1246:..\acn-sdk-c\src\wolfSSL/wolfcrypt/src/random.c ****         }
1247:..\acn-sdk-c\src\wolfSSL/wolfcrypt/src/random.c **** 
1248:..\acn-sdk-c\src\wolfSSL/wolfcrypt/src/random.c ****     #else
1249:..\acn-sdk-c\src\wolfSSL/wolfcrypt/src/random.c ****         #warning "write a real random seed!!!!, just for testing now"
1250:..\acn-sdk-c\src\wolfSSL/wolfcrypt/src/random.c **** 
1251:..\acn-sdk-c\src\wolfSSL/wolfcrypt/src/random.c ****         int wc_GenerateSeed(OS_Seed* os, byte* output, word32 sz)
1252:..\acn-sdk-c\src\wolfSSL/wolfcrypt/src/random.c ****         {
1253:..\acn-sdk-c\src\wolfSSL/wolfcrypt/src/random.c ****             int i;
1254:..\acn-sdk-c\src\wolfSSL/wolfcrypt/src/random.c ****             for (i = 0; i < sz; i++ )
1255:..\acn-sdk-c\src\wolfSSL/wolfcrypt/src/random.c ****                 output[i] = i;
1256:..\acn-sdk-c\src\wolfSSL/wolfcrypt/src/random.c **** 
1257:..\acn-sdk-c\src\wolfSSL/wolfcrypt/src/random.c ****             return 0;
1258:..\acn-sdk-c\src\wolfSSL/wolfcrypt/src/random.c ****         }
1259:..\acn-sdk-c\src\wolfSSL/wolfcrypt/src/random.c ****     #endif /* FREESCALE_K70_RNGA */
1260:..\acn-sdk-c\src\wolfSSL/wolfcrypt/src/random.c **** 
1261:..\acn-sdk-c\src\wolfSSL/wolfcrypt/src/random.c **** #elif defined(WOLFSSL_SAFERTOS) || defined(WOLFSSL_LEANPSK) \
1262:..\acn-sdk-c\src\wolfSSL/wolfcrypt/src/random.c ****    || defined(WOLFSSL_IAR_ARM)  || defined(WOLFSSL_MDK_ARM) \
1263:..\acn-sdk-c\src\wolfSSL/wolfcrypt/src/random.c ****    || defined(WOLFSSL_uITRON4)  || defined(WOLFSSL_uTKERNEL2)\
1264:..\acn-sdk-c\src\wolfSSL/wolfcrypt/src/random.c ****    || defined(WOLFSSL_GENSEED_FORTEST)
ARM GAS  C:\Users\ddemidov\AppData\Local\Temp\ccBlgygZ.s 			page 51


1265:..\acn-sdk-c\src\wolfSSL/wolfcrypt/src/random.c **** 
1266:..\acn-sdk-c\src\wolfSSL/wolfcrypt/src/random.c **** #ifndef _MSC_VER
1267:..\acn-sdk-c\src\wolfSSL/wolfcrypt/src/random.c **** #warning "write a real random seed!!!!, just for testing now"
1268:..\acn-sdk-c\src\wolfSSL/wolfcrypt/src/random.c **** #else
1269:..\acn-sdk-c\src\wolfSSL/wolfcrypt/src/random.c **** #pragma message("Warning: write a real random seed!!!!, just for testing now")
1270:..\acn-sdk-c\src\wolfSSL/wolfcrypt/src/random.c **** #endif
1271:..\acn-sdk-c\src\wolfSSL/wolfcrypt/src/random.c **** 
1272:..\acn-sdk-c\src\wolfSSL/wolfcrypt/src/random.c **** int wc_GenerateSeed(OS_Seed* os, byte* output, word32 sz)
1273:..\acn-sdk-c\src\wolfSSL/wolfcrypt/src/random.c **** {
1274:..\acn-sdk-c\src\wolfSSL/wolfcrypt/src/random.c ****     word32 i;
1275:..\acn-sdk-c\src\wolfSSL/wolfcrypt/src/random.c ****     for (i = 0; i < sz; i++ )
1276:..\acn-sdk-c\src\wolfSSL/wolfcrypt/src/random.c ****         output[i] = i;
1277:..\acn-sdk-c\src\wolfSSL/wolfcrypt/src/random.c **** 
1278:..\acn-sdk-c\src\wolfSSL/wolfcrypt/src/random.c ****     (void)os;
1279:..\acn-sdk-c\src\wolfSSL/wolfcrypt/src/random.c **** 
1280:..\acn-sdk-c\src\wolfSSL/wolfcrypt/src/random.c ****     return 0;
1281:..\acn-sdk-c\src\wolfSSL/wolfcrypt/src/random.c **** }
1282:..\acn-sdk-c\src\wolfSSL/wolfcrypt/src/random.c **** 
1283:..\acn-sdk-c\src\wolfSSL/wolfcrypt/src/random.c **** #elif defined(STM32F2_RNG)
1284:..\acn-sdk-c\src\wolfSSL/wolfcrypt/src/random.c ****     #undef RNG
1285:..\acn-sdk-c\src\wolfSSL/wolfcrypt/src/random.c ****     #include "stm32f2xx_rng.h"
1286:..\acn-sdk-c\src\wolfSSL/wolfcrypt/src/random.c ****     #include "stm32f2xx_rcc.h"
1287:..\acn-sdk-c\src\wolfSSL/wolfcrypt/src/random.c ****     /*
1288:..\acn-sdk-c\src\wolfSSL/wolfcrypt/src/random.c ****      * wc_Generate a RNG seed using the hardware random number generator
1289:..\acn-sdk-c\src\wolfSSL/wolfcrypt/src/random.c ****      * on the STM32F2. Documentation located in STM32F2xx Standard Peripheral
1290:..\acn-sdk-c\src\wolfSSL/wolfcrypt/src/random.c ****      * Library document (See note in README).
1291:..\acn-sdk-c\src\wolfSSL/wolfcrypt/src/random.c ****      */
1292:..\acn-sdk-c\src\wolfSSL/wolfcrypt/src/random.c ****     int wc_GenerateSeed(OS_Seed* os, byte* output, word32 sz)
1293:..\acn-sdk-c\src\wolfSSL/wolfcrypt/src/random.c ****     {
1294:..\acn-sdk-c\src\wolfSSL/wolfcrypt/src/random.c ****         int i;
1295:..\acn-sdk-c\src\wolfSSL/wolfcrypt/src/random.c **** 
1296:..\acn-sdk-c\src\wolfSSL/wolfcrypt/src/random.c ****         /* enable RNG clock source */
1297:..\acn-sdk-c\src\wolfSSL/wolfcrypt/src/random.c ****         RCC_AHB2PeriphClockCmd(RCC_AHB2Periph_RNG, ENABLE);
1298:..\acn-sdk-c\src\wolfSSL/wolfcrypt/src/random.c **** 
1299:..\acn-sdk-c\src\wolfSSL/wolfcrypt/src/random.c ****         /* enable RNG peripheral */
1300:..\acn-sdk-c\src\wolfSSL/wolfcrypt/src/random.c ****         RNG_Cmd(ENABLE);
1301:..\acn-sdk-c\src\wolfSSL/wolfcrypt/src/random.c **** 
1302:..\acn-sdk-c\src\wolfSSL/wolfcrypt/src/random.c ****         for (i = 0; i < sz; i++) {
1303:..\acn-sdk-c\src\wolfSSL/wolfcrypt/src/random.c ****             /* wait until RNG number is ready */
1304:..\acn-sdk-c\src\wolfSSL/wolfcrypt/src/random.c ****             while(RNG_GetFlagStatus(RNG_FLAG_DRDY)== RESET) { }
1305:..\acn-sdk-c\src\wolfSSL/wolfcrypt/src/random.c **** 
1306:..\acn-sdk-c\src\wolfSSL/wolfcrypt/src/random.c ****             /* get value */
1307:..\acn-sdk-c\src\wolfSSL/wolfcrypt/src/random.c ****             output[i] = RNG_GetRandomNumber();
1308:..\acn-sdk-c\src\wolfSSL/wolfcrypt/src/random.c ****         }
1309:..\acn-sdk-c\src\wolfSSL/wolfcrypt/src/random.c **** 
1310:..\acn-sdk-c\src\wolfSSL/wolfcrypt/src/random.c ****         return 0;
1311:..\acn-sdk-c\src\wolfSSL/wolfcrypt/src/random.c ****     }
1312:..\acn-sdk-c\src\wolfSSL/wolfcrypt/src/random.c **** #elif defined(WOLFSSL_LPC43xx) || defined(WOLFSSL_STM32F2xx) || defined(MBED)
1313:..\acn-sdk-c\src\wolfSSL/wolfcrypt/src/random.c **** 
1314:..\acn-sdk-c\src\wolfSSL/wolfcrypt/src/random.c ****     #warning "write a real random seed!!!!, just for testing now"
1315:..\acn-sdk-c\src\wolfSSL/wolfcrypt/src/random.c **** 
1316:..\acn-sdk-c\src\wolfSSL/wolfcrypt/src/random.c ****     int wc_GenerateSeed(OS_Seed* os, byte* output, word32 sz)
1317:..\acn-sdk-c\src\wolfSSL/wolfcrypt/src/random.c ****     {
1318:..\acn-sdk-c\src\wolfSSL/wolfcrypt/src/random.c ****         int i;
1319:..\acn-sdk-c\src\wolfSSL/wolfcrypt/src/random.c **** 
1320:..\acn-sdk-c\src\wolfSSL/wolfcrypt/src/random.c ****         for (i = 0; i < (int)sz; i++ )
1321:..\acn-sdk-c\src\wolfSSL/wolfcrypt/src/random.c ****             output[i] = i;
ARM GAS  C:\Users\ddemidov\AppData\Local\Temp\ccBlgygZ.s 			page 52


1322:..\acn-sdk-c\src\wolfSSL/wolfcrypt/src/random.c **** 
1323:..\acn-sdk-c\src\wolfSSL/wolfcrypt/src/random.c ****         return 0;
1324:..\acn-sdk-c\src\wolfSSL/wolfcrypt/src/random.c ****     }
1325:..\acn-sdk-c\src\wolfSSL/wolfcrypt/src/random.c **** 
1326:..\acn-sdk-c\src\wolfSSL/wolfcrypt/src/random.c **** #elif defined(WOLFSSL_TIRTOS)
1327:..\acn-sdk-c\src\wolfSSL/wolfcrypt/src/random.c **** 
1328:..\acn-sdk-c\src\wolfSSL/wolfcrypt/src/random.c ****     #include <xdc/runtime/Timestamp.h>
1329:..\acn-sdk-c\src\wolfSSL/wolfcrypt/src/random.c ****     #include <stdlib.h>
1330:..\acn-sdk-c\src\wolfSSL/wolfcrypt/src/random.c ****     int wc_GenerateSeed(OS_Seed* os, byte* output, word32 sz)
1331:..\acn-sdk-c\src\wolfSSL/wolfcrypt/src/random.c ****     {
1332:..\acn-sdk-c\src\wolfSSL/wolfcrypt/src/random.c ****         int i;
1333:..\acn-sdk-c\src\wolfSSL/wolfcrypt/src/random.c ****         srand(xdc_runtime_Timestamp_get32());
1334:..\acn-sdk-c\src\wolfSSL/wolfcrypt/src/random.c **** 
1335:..\acn-sdk-c\src\wolfSSL/wolfcrypt/src/random.c ****         for (i = 0; i < sz; i++ ) {
1336:..\acn-sdk-c\src\wolfSSL/wolfcrypt/src/random.c ****             output[i] = rand() % 256;
1337:..\acn-sdk-c\src\wolfSSL/wolfcrypt/src/random.c ****             if ((i % 8) == 7) {
1338:..\acn-sdk-c\src\wolfSSL/wolfcrypt/src/random.c ****                 srand(xdc_runtime_Timestamp_get32());
1339:..\acn-sdk-c\src\wolfSSL/wolfcrypt/src/random.c ****             }
1340:..\acn-sdk-c\src\wolfSSL/wolfcrypt/src/random.c ****         }
1341:..\acn-sdk-c\src\wolfSSL/wolfcrypt/src/random.c **** 
1342:..\acn-sdk-c\src\wolfSSL/wolfcrypt/src/random.c ****         return 0;
1343:..\acn-sdk-c\src\wolfSSL/wolfcrypt/src/random.c ****     }
1344:..\acn-sdk-c\src\wolfSSL/wolfcrypt/src/random.c **** 
1345:..\acn-sdk-c\src\wolfSSL/wolfcrypt/src/random.c **** #elif defined(WOLFSSL_VXWORKS)
1346:..\acn-sdk-c\src\wolfSSL/wolfcrypt/src/random.c **** 
1347:..\acn-sdk-c\src\wolfSSL/wolfcrypt/src/random.c ****     #include <randomNumGen.h>
1348:..\acn-sdk-c\src\wolfSSL/wolfcrypt/src/random.c **** 
1349:..\acn-sdk-c\src\wolfSSL/wolfcrypt/src/random.c ****     int wc_GenerateSeed(OS_Seed* os, byte* output, word32 sz) {
1350:..\acn-sdk-c\src\wolfSSL/wolfcrypt/src/random.c ****         STATUS        status;
1351:..\acn-sdk-c\src\wolfSSL/wolfcrypt/src/random.c **** 
1352:..\acn-sdk-c\src\wolfSSL/wolfcrypt/src/random.c ****         #ifdef VXWORKS_SIM
1353:..\acn-sdk-c\src\wolfSSL/wolfcrypt/src/random.c ****             /* cannot generate true entropy with VxWorks simulator */
1354:..\acn-sdk-c\src\wolfSSL/wolfcrypt/src/random.c ****             #warning "not enough entropy, simulator for testing only"
1355:..\acn-sdk-c\src\wolfSSL/wolfcrypt/src/random.c ****             int i = 0;
1356:..\acn-sdk-c\src\wolfSSL/wolfcrypt/src/random.c **** 
1357:..\acn-sdk-c\src\wolfSSL/wolfcrypt/src/random.c ****             for (i = 0; i < 1000; i++) {
1358:..\acn-sdk-c\src\wolfSSL/wolfcrypt/src/random.c ****                 randomAddTimeStamp();
1359:..\acn-sdk-c\src\wolfSSL/wolfcrypt/src/random.c ****             }
1360:..\acn-sdk-c\src\wolfSSL/wolfcrypt/src/random.c ****         #endif
1361:..\acn-sdk-c\src\wolfSSL/wolfcrypt/src/random.c **** 
1362:..\acn-sdk-c\src\wolfSSL/wolfcrypt/src/random.c ****         status = randBytes (output, sz);
1363:..\acn-sdk-c\src\wolfSSL/wolfcrypt/src/random.c ****         if (status == ERROR) {
1364:..\acn-sdk-c\src\wolfSSL/wolfcrypt/src/random.c ****             return RNG_FAILURE_E;
1365:..\acn-sdk-c\src\wolfSSL/wolfcrypt/src/random.c ****         }
1366:..\acn-sdk-c\src\wolfSSL/wolfcrypt/src/random.c **** 
1367:..\acn-sdk-c\src\wolfSSL/wolfcrypt/src/random.c ****         return 0;
1368:..\acn-sdk-c\src\wolfSSL/wolfcrypt/src/random.c ****     }
1369:..\acn-sdk-c\src\wolfSSL/wolfcrypt/src/random.c **** 
1370:..\acn-sdk-c\src\wolfSSL/wolfcrypt/src/random.c **** #elif defined(WOLFSSL_NRF51)
1371:..\acn-sdk-c\src\wolfSSL/wolfcrypt/src/random.c ****     #include "app_error.h"
1372:..\acn-sdk-c\src\wolfSSL/wolfcrypt/src/random.c ****     #include "nrf_drv_rng.h"
1373:..\acn-sdk-c\src\wolfSSL/wolfcrypt/src/random.c ****     int wc_GenerateSeed(OS_Seed* os, byte* output, word32 sz)
1374:..\acn-sdk-c\src\wolfSSL/wolfcrypt/src/random.c ****     {
1375:..\acn-sdk-c\src\wolfSSL/wolfcrypt/src/random.c ****         int remaining = sz, length, pos = 0;
1376:..\acn-sdk-c\src\wolfSSL/wolfcrypt/src/random.c ****         uint8_t available;
1377:..\acn-sdk-c\src\wolfSSL/wolfcrypt/src/random.c ****         uint32_t err_code;
1378:..\acn-sdk-c\src\wolfSSL/wolfcrypt/src/random.c **** 
ARM GAS  C:\Users\ddemidov\AppData\Local\Temp\ccBlgygZ.s 			page 53


1379:..\acn-sdk-c\src\wolfSSL/wolfcrypt/src/random.c ****         (void)os;
1380:..\acn-sdk-c\src\wolfSSL/wolfcrypt/src/random.c **** 
1381:..\acn-sdk-c\src\wolfSSL/wolfcrypt/src/random.c ****         /* Make sure RNG is running */
1382:..\acn-sdk-c\src\wolfSSL/wolfcrypt/src/random.c ****         err_code = nrf_drv_rng_init(NULL);
1383:..\acn-sdk-c\src\wolfSSL/wolfcrypt/src/random.c ****         if (err_code != NRF_SUCCESS && err_code != NRF_ERROR_INVALID_STATE) {
1384:..\acn-sdk-c\src\wolfSSL/wolfcrypt/src/random.c ****             return -1;
1385:..\acn-sdk-c\src\wolfSSL/wolfcrypt/src/random.c ****         }
1386:..\acn-sdk-c\src\wolfSSL/wolfcrypt/src/random.c **** 
1387:..\acn-sdk-c\src\wolfSSL/wolfcrypt/src/random.c ****         while (remaining > 0) {
1388:..\acn-sdk-c\src\wolfSSL/wolfcrypt/src/random.c ****             err_code = nrf_drv_rng_bytes_available(&available);
1389:..\acn-sdk-c\src\wolfSSL/wolfcrypt/src/random.c ****             if (err_code == NRF_SUCCESS) {
1390:..\acn-sdk-c\src\wolfSSL/wolfcrypt/src/random.c ****                 length = (remaining < available) ? remaining : available;
1391:..\acn-sdk-c\src\wolfSSL/wolfcrypt/src/random.c ****                 if (length > 0) {
1392:..\acn-sdk-c\src\wolfSSL/wolfcrypt/src/random.c ****                     err_code = nrf_drv_rng_rand(&output[pos], length);
1393:..\acn-sdk-c\src\wolfSSL/wolfcrypt/src/random.c ****                     remaining -= length;
1394:..\acn-sdk-c\src\wolfSSL/wolfcrypt/src/random.c ****                     pos += length;
1395:..\acn-sdk-c\src\wolfSSL/wolfcrypt/src/random.c ****                 }
1396:..\acn-sdk-c\src\wolfSSL/wolfcrypt/src/random.c ****             }
1397:..\acn-sdk-c\src\wolfSSL/wolfcrypt/src/random.c **** 
1398:..\acn-sdk-c\src\wolfSSL/wolfcrypt/src/random.c ****             if (err_code != NRF_SUCCESS) {
1399:..\acn-sdk-c\src\wolfSSL/wolfcrypt/src/random.c ****                 break;
1400:..\acn-sdk-c\src\wolfSSL/wolfcrypt/src/random.c ****             }
1401:..\acn-sdk-c\src\wolfSSL/wolfcrypt/src/random.c ****         }
1402:..\acn-sdk-c\src\wolfSSL/wolfcrypt/src/random.c **** 
1403:..\acn-sdk-c\src\wolfSSL/wolfcrypt/src/random.c ****         return (err_code == NRF_SUCCESS) ? 0 : -1;
1404:..\acn-sdk-c\src\wolfSSL/wolfcrypt/src/random.c ****     }
1405:..\acn-sdk-c\src\wolfSSL/wolfcrypt/src/random.c **** 
1406:..\acn-sdk-c\src\wolfSSL/wolfcrypt/src/random.c **** #elif defined(CUSTOM_RAND_GENERATE)
1407:..\acn-sdk-c\src\wolfSSL/wolfcrypt/src/random.c **** 
1408:..\acn-sdk-c\src\wolfSSL/wolfcrypt/src/random.c ****    /* Implement your own random generation function
1409:..\acn-sdk-c\src\wolfSSL/wolfcrypt/src/random.c ****     * word32 rand_gen(void);
1410:..\acn-sdk-c\src\wolfSSL/wolfcrypt/src/random.c ****     * #define CUSTOM_RAND_GENERATE  rand_gen  */
1411:..\acn-sdk-c\src\wolfSSL/wolfcrypt/src/random.c **** 
1412:..\acn-sdk-c\src\wolfSSL/wolfcrypt/src/random.c ****     int wc_GenerateSeed(OS_Seed* os, byte* output, word32 sz)
1413:..\acn-sdk-c\src\wolfSSL/wolfcrypt/src/random.c ****     {
1414:..\acn-sdk-c\src\wolfSSL/wolfcrypt/src/random.c ****         word32 i = 0;
1415:..\acn-sdk-c\src\wolfSSL/wolfcrypt/src/random.c **** 
1416:..\acn-sdk-c\src\wolfSSL/wolfcrypt/src/random.c ****         (void)os;
1417:..\acn-sdk-c\src\wolfSSL/wolfcrypt/src/random.c **** 
1418:..\acn-sdk-c\src\wolfSSL/wolfcrypt/src/random.c ****         while (i < sz)
1419:..\acn-sdk-c\src\wolfSSL/wolfcrypt/src/random.c ****         {
1420:..\acn-sdk-c\src\wolfSSL/wolfcrypt/src/random.c ****             /* If not aligned or there is odd/remainder */
1421:..\acn-sdk-c\src\wolfSSL/wolfcrypt/src/random.c ****             if( (i + sizeof(CUSTOM_RAND_TYPE)) > sz ||
1422:..\acn-sdk-c\src\wolfSSL/wolfcrypt/src/random.c ****                 ((wolfssl_word)&output[i] % sizeof(CUSTOM_RAND_TYPE)) != 0
1423:..\acn-sdk-c\src\wolfSSL/wolfcrypt/src/random.c ****             ) {
1424:..\acn-sdk-c\src\wolfSSL/wolfcrypt/src/random.c ****                 /* Single byte at a time */
1425:..\acn-sdk-c\src\wolfSSL/wolfcrypt/src/random.c ****                 output[i++] = (byte)CUSTOM_RAND_GENERATE();
1426:..\acn-sdk-c\src\wolfSSL/wolfcrypt/src/random.c ****             }
1427:..\acn-sdk-c\src\wolfSSL/wolfcrypt/src/random.c ****             else {
1428:..\acn-sdk-c\src\wolfSSL/wolfcrypt/src/random.c ****                 /* Use native 8, 16, 32 or 64 copy instruction */
1429:..\acn-sdk-c\src\wolfSSL/wolfcrypt/src/random.c ****                 *((CUSTOM_RAND_TYPE*)&output[i]) = CUSTOM_RAND_GENERATE();
1430:..\acn-sdk-c\src\wolfSSL/wolfcrypt/src/random.c ****                 i += sizeof(CUSTOM_RAND_TYPE);
1431:..\acn-sdk-c\src\wolfSSL/wolfcrypt/src/random.c ****             }
1432:..\acn-sdk-c\src\wolfSSL/wolfcrypt/src/random.c ****         }
1433:..\acn-sdk-c\src\wolfSSL/wolfcrypt/src/random.c **** 
1434:..\acn-sdk-c\src\wolfSSL/wolfcrypt/src/random.c ****         return 0;
1435:..\acn-sdk-c\src\wolfSSL/wolfcrypt/src/random.c ****     }
ARM GAS  C:\Users\ddemidov\AppData\Local\Temp\ccBlgygZ.s 			page 54


1436:..\acn-sdk-c\src\wolfSSL/wolfcrypt/src/random.c **** #elif defined(_ARIS_)
1437:..\acn-sdk-c\src\wolfSSL/wolfcrypt/src/random.c ****     #warning "write a real random seed!!!!, just for testing now"
1438:..\acn-sdk-c\src\wolfSSL/wolfcrypt/src/random.c ****     int wc_GenerateSeed(OS_Seed* os, byte* output, word32 sz) {
1439:..\acn-sdk-c\src\wolfSSL/wolfcrypt/src/random.c ****         int i;
1440:..\acn-sdk-c\src\wolfSSL/wolfcrypt/src/random.c ****         for (i = 0; i < (int)sz; i++ )
1441:..\acn-sdk-c\src\wolfSSL/wolfcrypt/src/random.c ****             output[i] = i;
1442:..\acn-sdk-c\src\wolfSSL/wolfcrypt/src/random.c ****         return 0;
1443:..\acn-sdk-c\src\wolfSSL/wolfcrypt/src/random.c ****     }
1444:..\acn-sdk-c\src\wolfSSL/wolfcrypt/src/random.c **** #elif defined(__linux__)
1445:..\acn-sdk-c\src\wolfSSL/wolfcrypt/src/random.c ****     #warning "write a real random seed!!!!, just for testing now"
1446:..\acn-sdk-c\src\wolfSSL/wolfcrypt/src/random.c ****     int wc_GenerateSeed(OS_Seed* os, byte* output, word32 sz) {
1447:..\acn-sdk-c\src\wolfSSL/wolfcrypt/src/random.c ****         int i;
1448:..\acn-sdk-c\src\wolfSSL/wolfcrypt/src/random.c ****         for (i = 0; i < (int)sz; i++ )
1449:..\acn-sdk-c\src\wolfSSL/wolfcrypt/src/random.c ****             output[i] = i;
1450:..\acn-sdk-c\src\wolfSSL/wolfcrypt/src/random.c ****         return 0;
1451:..\acn-sdk-c\src\wolfSSL/wolfcrypt/src/random.c ****     }
1452:..\acn-sdk-c\src\wolfSSL/wolfcrypt/src/random.c ****     
1453:..\acn-sdk-c\src\wolfSSL/wolfcrypt/src/random.c **** #elif defined(__senseability__)
1454:..\acn-sdk-c\src\wolfSSL/wolfcrypt/src/random.c ****     #warning "write a real random seed!!!!, just for testing now"
1455:..\acn-sdk-c\src\wolfSSL/wolfcrypt/src/random.c ****     int wc_GenerateSeed(OS_Seed* os, byte* output, word32 sz) {
1456:..\acn-sdk-c\src\wolfSSL/wolfcrypt/src/random.c ****         int i;
1457:..\acn-sdk-c\src\wolfSSL/wolfcrypt/src/random.c ****         for (i = 0; i < (int)sz; i++ )
1458:..\acn-sdk-c\src\wolfSSL/wolfcrypt/src/random.c ****             output[i] = i;
 1239              		.loc 2 1458 0
 1240 0070 B254     		strb	r2, [r6, r2]
1457:..\acn-sdk-c\src\wolfSSL/wolfcrypt/src/random.c ****             output[i] = i;
 1241              		.loc 2 1457 0
 1242 0072 0132     		add	r2, r2, #1
 1243              	.LVL171:
 1244 0074 202A     		cmp	r2, #32
 1245 0076 FBD1     		bne	.L120
 1246              	.LBE83:
 1247              	.LBE82:
 547:..\acn-sdk-c\src\wolfSSL/wolfcrypt/src/random.c ****                                                               == DRBG_SUCCESS) {
 1248              		.loc 2 547 0 discriminator 1
 1249 0078 2068     		ldr	r0, [r4]
 1250              	.LVL172:
 1251 007a 311C     		mov	r1, r6
 1252 007c FFF7FEFF 		bl	Hash_DRBG_Reseed
 1253              	.LVL173:
 555:..\acn-sdk-c\src\wolfSSL/wolfcrypt/src/random.c **** 
 1254              		.loc 2 555 0 discriminator 1
 1255 0080 0225     		mov	r5, #2
 547:..\acn-sdk-c\src\wolfSSL/wolfcrypt/src/random.c ****                                                               == DRBG_SUCCESS) {
 1256              		.loc 2 547 0 discriminator 1
 1257 0082 021E     		sub	r2, r0, #0
 546:..\acn-sdk-c\src\wolfSSL/wolfcrypt/src/random.c ****                 Hash_DRBG_Reseed(rng->drbg, entropy, ENTROPY_SZ)
 1258              		.loc 2 546 0 discriminator 1
 1259 0084 0BD1     		bne	.L121
 550:..\acn-sdk-c\src\wolfSSL/wolfcrypt/src/random.c ****                 if (ret == DRBG_SUCCESS)
 1260              		.loc 2 550 0
 1261 0086 2068     		ldr	r0, [r4]
 1262 0088 111C     		mov	r1, r2
 1263 008a FFF7FEFF 		bl	Hash_DRBG_Generate
 1264              	.LVL174:
 1265 008e 051E     		sub	r5, r0, #0
 1266              	.LVL175:
ARM GAS  C:\Users\ddemidov\AppData\Local\Temp\ccBlgygZ.s 			page 55


 551:..\acn-sdk-c\src\wolfSSL/wolfcrypt/src/random.c ****                     ret = Hash_DRBG_Generate(rng->drbg, output, sz);
 1267              		.loc 2 551 0
 1268 0090 05D1     		bne	.L121
 552:..\acn-sdk-c\src\wolfSSL/wolfcrypt/src/random.c ****             }
 1269              		.loc 2 552 0
 1270 0092 2068     		ldr	r0, [r4]
 1271              	.LVL176:
 1272 0094 391C     		mov	r1, r7
 1273 0096 059A     		ldr	r2, [sp, #20]
 1274 0098 FFF7FEFF 		bl	Hash_DRBG_Generate
 1275              	.LVL177:
 1276 009c 051C     		mov	r5, r0
 1277              	.LVL178:
 1278              	.L121:
 557:..\acn-sdk-c\src\wolfSSL/wolfcrypt/src/random.c ****         }
 1279              		.loc 2 557 0 discriminator 1
 1280 009e 301C     		mov	r0, r6
 1281 00a0 2021     		mov	r1, #32
 1282 00a2 FFF7FEFF 		bl	ForceZero
 1283              	.LVL179:
 1284              	.L117:
 1285              	.LBE81:
 564:..\acn-sdk-c\src\wolfSSL/wolfcrypt/src/random.c ****     }
 1286              		.loc 2 564 0
 1287 00a6 0020     		mov	r0, #0
 563:..\acn-sdk-c\src\wolfSSL/wolfcrypt/src/random.c ****         ret = 0;
 1288              		.loc 2 563 0
 1289 00a8 8542     		cmp	r5, r0
 1290 00aa 09D0     		beq	.L116
 566:..\acn-sdk-c\src\wolfSSL/wolfcrypt/src/random.c ****         ret = DRBG_CONT_FIPS_E;
 1291              		.loc 2 566 0
 1292 00ac 042D     		cmp	r5, #4
 1293 00ae DBD0     		beq	.L122
 1294              	.LVL180:
 572:..\acn-sdk-c\src\wolfSSL/wolfcrypt/src/random.c ****     }
 1295              		.loc 2 572 0
 1296 00b0 0223     		mov	r3, #2
 571:..\acn-sdk-c\src\wolfSSL/wolfcrypt/src/random.c ****         rng->status = DRBG_FAILED;
 1297              		.loc 2 571 0
 1298 00b2 C738     		sub	r0, r0, #199
 572:..\acn-sdk-c\src\wolfSSL/wolfcrypt/src/random.c ****     }
 1299              		.loc 2 572 0
 1300 00b4 2372     		strb	r3, [r4, #8]
 1301 00b6 03E0     		b	.L116
 1302              	.LVL181:
 1303              	.L125:
 535:..\acn-sdk-c\src\wolfSSL/wolfcrypt/src/random.c **** 
 1304              		.loc 2 535 0
 1305 00b8 AD20     		mov	r0, #173
 1306              	.LVL182:
 1307 00ba 00E0     		b	.L135
 1308              	.LVL183:
 1309              	.L126:
 538:..\acn-sdk-c\src\wolfSSL/wolfcrypt/src/random.c **** 
 1310              		.loc 2 538 0
 1311 00bc C720     		mov	r0, #199
 1312              	.LVL184:
ARM GAS  C:\Users\ddemidov\AppData\Local\Temp\ccBlgygZ.s 			page 56


 1313              	.L135:
 1314 00be 4042     		neg	r0, r0
 1315              	.L116:
 576:..\acn-sdk-c\src\wolfSSL/wolfcrypt/src/random.c **** 
 1316              		.loc 2 576 0
 1317 00c0 27B0     		add	sp, sp, #156
 1318              		@ sp needed
 1319 00c2 F0BD     		pop	{r4, r5, r6, r7, pc}
 1320              	.L137:
 1321              		.align	2
 1322              	.L136:
 1323 00c4 00000000 		.word	.LANCHOR0
 1324              		.cfi_endproc
 1325              	.LFE21:
 1326              		.size	wc_RNG_GenerateBlock, .-wc_RNG_GenerateBlock
 1327              		.section	.text.wc_RNG_GenerateByte,"ax",%progbits
 1328              		.align	1
 1329              		.global	wc_RNG_GenerateByte
 1330              		.code	16
 1331              		.thumb_func
 1332              		.type	wc_RNG_GenerateByte, %function
 1333              	wc_RNG_GenerateByte:
 1334              	.LFB22:
 580:..\acn-sdk-c\src\wolfSSL/wolfcrypt/src/random.c ****     return wc_RNG_GenerateBlock(rng, b, 1);
 1335              		.loc 2 580 0
 1336              		.cfi_startproc
 1337              	.LVL185:
 1338 0000 08B5     		push	{r3, lr}
 1339              		.cfi_def_cfa_offset 8
 1340              		.cfi_offset 3, -8
 1341              		.cfi_offset 14, -4
 581:..\acn-sdk-c\src\wolfSSL/wolfcrypt/src/random.c **** }
 1342              		.loc 2 581 0
 1343 0002 0122     		mov	r2, #1
 1344 0004 FFF7FEFF 		bl	wc_RNG_GenerateBlock
 1345              	.LVL186:
 582:..\acn-sdk-c\src\wolfSSL/wolfcrypt/src/random.c **** 
 1346              		.loc 2 582 0
 1347              		@ sp needed
 1348 0008 08BD     		pop	{r3, pc}
 1349              		.cfi_endproc
 1350              	.LFE22:
 1351              		.size	wc_RNG_GenerateByte, .-wc_RNG_GenerateByte
 1352              		.section	.text.wc_InitRng,"ax",%progbits
 1353              		.align	1
 1354              		.global	wc_InitRng
 1355              		.code	16
 1356              		.thumb_func
 1357              		.type	wc_InitRng, %function
 1358              	wc_InitRng:
 1359              	.LFB20:
 478:..\acn-sdk-c\src\wolfSSL/wolfcrypt/src/random.c ****     int ret = BAD_FUNC_ARG;
 1360              		.loc 2 478 0
 1361              		.cfi_startproc
 1362              	.LVL187:
 1363 0000 70B5     		push	{r4, r5, r6, lr}
 1364              		.cfi_def_cfa_offset 16
ARM GAS  C:\Users\ddemidov\AppData\Local\Temp\ccBlgygZ.s 			page 57


 1365              		.cfi_offset 4, -16
 1366              		.cfi_offset 5, -12
 1367              		.cfi_offset 6, -8
 1368              		.cfi_offset 14, -4
 1369 0002 A4B0     		sub	sp, sp, #144
 1370              		.cfi_def_cfa_offset 160
 481:..\acn-sdk-c\src\wolfSSL/wolfcrypt/src/random.c ****         if (wc_RNG_HealthTestLocal(0) == 0) {
 1371              		.loc 2 481 0
 1372 0004 0028     		cmp	r0, #0
 1373 0006 4BD0     		beq	.L149
 1374              	.LBB91:
 1375              	.LBB92:
 714:..\acn-sdk-c\src\wolfSSL/wolfcrypt/src/random.c ****                                 NULL, 0,
 1376              		.loc 2 714 0
 1377 0008 0023     		mov	r3, #0
 1378 000a 8022     		mov	r2, #128
 1379 000c 2749     		ldr	r1, .L157
 1380 000e 04AE     		add	r6, sp, #16
 1381 0010 051C     		mov	r5, r0
 1382              	.LVL188:
 1383 0012 0292     		str	r2, [sp, #8]
 1384 0014 0093     		str	r3, [sp]
 1385 0016 0196     		str	r6, [sp, #4]
 1386 0018 181C     		mov	r0, r3
 1387              	.LVL189:
 1388 001a 5031     		add	r1, r1, #80
 1389 001c 503A     		sub	r2, r2, #80
 1390 001e FFF7FEFF 		bl	wc_RNG_HealthTest
 1391              	.LVL190:
 717:..\acn-sdk-c\src\wolfSSL/wolfcrypt/src/random.c ****             if (ConstantCompare(check, outputB, sizeof(check)) != 0)
 1392              		.loc 2 717 0
 1393 0022 0028     		cmp	r0, #0
 1394 0024 0ED1     		bne	.L147
 1395 0026 021C     		mov	r2, r0
 1396 0028 031C     		mov	r3, r0
 1397              	.LVL191:
 1398              	.L142:
 1399              	.LBB93:
 1400              	.LBB94:
 1401              		.loc 1 194 0
 1402 002a 2149     		ldr	r1, .L157+4
 1403 002c 585C     		ldrb	r0, [r3, r1]
 1404 002e F15C     		ldrb	r1, [r6, r3]
 193:..\acn-sdk-c\src\wolfSSL/wolfcrypt/src/misc.c ****         compareSum |= a[i] ^ b[i];
 1405              		.loc 1 193 0
 1406 0030 0133     		add	r3, r3, #1
 1407              	.LVL192:
 1408              		.loc 1 194 0
 1409 0032 4140     		eor	r1, r0
 1410 0034 0A43     		orr	r2, r1
 1411              	.LVL193:
 193:..\acn-sdk-c\src\wolfSSL/wolfcrypt/src/misc.c ****         compareSum |= a[i] ^ b[i];
 1412              		.loc 1 193 0
 1413 0036 802B     		cmp	r3, #128
 1414 0038 F7D1     		bne	.L142
 1415              	.LBE94:
 1416              	.LBE93:
ARM GAS  C:\Users\ddemidov\AppData\Local\Temp\ccBlgygZ.s 			page 58


 718:..\acn-sdk-c\src\wolfSSL/wolfcrypt/src/random.c ****                 ret = -1;
 1417              		.loc 2 718 0
 1418 003a 541E     		sub	r4, r2, #1
 1419 003c A241     		sbc	r2, r2, r4
 1420              	.LVL194:
 1421 003e 5442     		neg	r4, r2
 1422              	.LVL195:
 1423              	.LBE92:
 1424              	.LBE91:
 482:..\acn-sdk-c\src\wolfSSL/wolfcrypt/src/random.c ****             byte entropy[ENTROPY_NONCE_SZ];
 1425              		.loc 2 482 0
 1426 0040 002C     		cmp	r4, #0
 1427 0042 03D0     		beq	.L143
 1428              	.LVL196:
 1429              	.L147:
 513:..\acn-sdk-c\src\wolfSSL/wolfcrypt/src/random.c ****             ret = DRBG_CONT_FIPS_E;
 1430              		.loc 2 513 0
 1431 0044 0323     		mov	r3, #3
 514:..\acn-sdk-c\src\wolfSSL/wolfcrypt/src/random.c ****         }
 1432              		.loc 2 514 0
 1433 0046 D124     		mov	r4, #209
 513:..\acn-sdk-c\src\wolfSSL/wolfcrypt/src/random.c ****             ret = DRBG_CONT_FIPS_E;
 1434              		.loc 2 513 0
 1435 0048 2B72     		strb	r3, [r5, #8]
 1436              	.LVL197:
 1437 004a 2AE0     		b	.L155
 1438              	.LVL198:
 1439              	.L143:
 1440              	.LBB95:
 486:..\acn-sdk-c\src\wolfSSL/wolfcrypt/src/random.c ****             if (rng->drbg == NULL) {
 1441              		.loc 2 486 0
 1442 004c 7820     		mov	r0, #120
 1443 004e FFF7FEFF 		bl	wolfSSL_Malloc
 1444              	.LVL199:
 485:..\acn-sdk-c\src\wolfSSL/wolfcrypt/src/random.c ****                     (struct DRBG*)XMALLOC(sizeof(DRBG), NULL, DYNAMIC_TYPE_RNG);
 1445              		.loc 2 485 0
 1446 0052 2860     		str	r0, [r5]
 487:..\acn-sdk-c\src\wolfSSL/wolfcrypt/src/random.c ****                 ret = MEMORY_E;
 1447              		.loc 2 487 0
 1448 0054 0028     		cmp	r0, #0
 1449 0056 10D0     		beq	.L150
 1450 0058 221C     		mov	r2, r4
 1451              	.L145:
 1452              	.LVL200:
 1453              	.LBB96:
 1454              	.LBB97:
 1455              		.loc 2 1458 0
 1456 005a B254     		strb	r2, [r6, r2]
1457:..\acn-sdk-c\src\wolfSSL/wolfcrypt/src/random.c ****             output[i] = i;
 1457              		.loc 2 1457 0
 1458 005c 0132     		add	r2, r2, #1
 1459              	.LVL201:
 1460 005e 302A     		cmp	r2, #48
 1461 0060 FBD1     		bne	.L145
 1462              	.LBE97:
 1463              	.LBE96:
 495:..\acn-sdk-c\src\wolfSSL/wolfcrypt/src/random.c ****                           entropy, ENTROPY_NONCE_SZ, NULL, 0) == DRBG_SUCCESS) {
ARM GAS  C:\Users\ddemidov\AppData\Local\Temp\ccBlgygZ.s 			page 59


 1464              		.loc 2 495 0
 1465 0062 311C     		mov	r1, r6
 1466 0064 FFF7FEFF 		bl	Hash_DRBG_Instantiate.constprop.4
 1467              	.LVL202:
 501:..\acn-sdk-c\src\wolfSSL/wolfcrypt/src/random.c **** 
 1468              		.loc 2 501 0
 1469 0068 0224     		mov	r4, #2
 495:..\acn-sdk-c\src\wolfSSL/wolfcrypt/src/random.c ****                           entropy, ENTROPY_NONCE_SZ, NULL, 0) == DRBG_SUCCESS) {
 1470              		.loc 2 495 0
 1471 006a 021E     		sub	r2, r0, #0
 494:..\acn-sdk-c\src\wolfSSL/wolfcrypt/src/random.c ****                      Hash_DRBG_Instantiate(rng->drbg,
 1472              		.loc 2 494 0
 1473 006c 07D1     		bne	.L144
 498:..\acn-sdk-c\src\wolfSSL/wolfcrypt/src/random.c ****             }
 1474              		.loc 2 498 0
 1475 006e 2868     		ldr	r0, [r5]
 1476 0070 111C     		mov	r1, r2
 1477 0072 FFF7FEFF 		bl	Hash_DRBG_Generate
 1478              	.LVL203:
 1479 0076 041C     		mov	r4, r0
 1480              	.LVL204:
 1481 0078 01E0     		b	.L144
 1482              	.LVL205:
 1483              	.L150:
 488:..\acn-sdk-c\src\wolfSSL/wolfcrypt/src/random.c ****             }
 1484              		.loc 2 488 0
 1485 007a 7D24     		mov	r4, #125
 1486 007c 6442     		neg	r4, r4
 1487              	.LVL206:
 1488              	.L144:
 503:..\acn-sdk-c\src\wolfSSL/wolfcrypt/src/random.c ****         }
 1489              		.loc 2 503 0
 1490 007e 301C     		mov	r0, r6
 1491 0080 3021     		mov	r1, #48
 1492 0082 FFF7FEFF 		bl	ForceZero
 1493              	.LVL207:
 1494              	.LBE95:
 509:..\acn-sdk-c\src\wolfSSL/wolfcrypt/src/random.c ****             ret = 0;
 1495              		.loc 2 509 0
 1496 0086 0123     		mov	r3, #1
 508:..\acn-sdk-c\src\wolfSSL/wolfcrypt/src/random.c ****             rng->status = DRBG_OK;
 1497              		.loc 2 508 0
 1498 0088 002C     		cmp	r4, #0
 1499 008a 07D0     		beq	.L156
 512:..\acn-sdk-c\src\wolfSSL/wolfcrypt/src/random.c ****             rng->status = DRBG_CONT_FAILED;
 1500              		.loc 2 512 0
 1501 008c 042C     		cmp	r4, #4
 1502 008e D9D0     		beq	.L147
 521:..\acn-sdk-c\src\wolfSSL/wolfcrypt/src/random.c ****         }
 1503              		.loc 2 521 0
 1504 0090 0223     		mov	r3, #2
 516:..\acn-sdk-c\src\wolfSSL/wolfcrypt/src/random.c ****             rng->status = DRBG_FAILED;
 1505              		.loc 2 516 0
 1506 0092 022C     		cmp	r4, #2
 1507 0094 02D1     		bne	.L156
 1508              	.LVL208:
 517:..\acn-sdk-c\src\wolfSSL/wolfcrypt/src/random.c ****             ret = RNG_FAILURE_E;
ARM GAS  C:\Users\ddemidov\AppData\Local\Temp\ccBlgygZ.s 			page 60


 1509              		.loc 2 517 0
 1510 0096 2C72     		strb	r4, [r5, #8]
 1511              	.LVL209:
 518:..\acn-sdk-c\src\wolfSSL/wolfcrypt/src/random.c ****         }
 1512              		.loc 2 518 0
 1513 0098 C93C     		sub	r4, r4, #201
 1514 009a 03E0     		b	.L140
 1515              	.LVL210:
 1516              	.L156:
 521:..\acn-sdk-c\src\wolfSSL/wolfcrypt/src/random.c ****         }
 1517              		.loc 2 521 0
 1518 009c 2B72     		strb	r3, [r5, #8]
 1519 009e 01E0     		b	.L140
 1520              	.LVL211:
 1521              	.L149:
 479:..\acn-sdk-c\src\wolfSSL/wolfcrypt/src/random.c **** 
 1522              		.loc 2 479 0
 1523 00a0 AD24     		mov	r4, #173
 1524              	.LVL212:
 1525              	.L155:
 1526 00a2 6442     		neg	r4, r4
 1527              	.L140:
 1528              	.LVL213:
 526:..\acn-sdk-c\src\wolfSSL/wolfcrypt/src/random.c **** 
 1529              		.loc 2 526 0
 1530 00a4 201C     		mov	r0, r4
 1531 00a6 24B0     		add	sp, sp, #144
 1532              		@ sp needed
 1533              	.LVL214:
 1534 00a8 70BD     		pop	{r4, r5, r6, pc}
 1535              	.L158:
 1536 00aa C046     		.align	2
 1537              	.L157:
 1538 00ac 80000000 		.word	.LANCHOR1
 1539 00b0 00010000 		.word	.LANCHOR2
 1540              		.cfi_endproc
 1541              	.LFE20:
 1542              		.size	wc_InitRng, .-wc_InitRng
 1543              		.section	.text.wc_GenerateSeed,"ax",%progbits
 1544              		.align	1
 1545              		.global	wc_GenerateSeed
 1546              		.code	16
 1547              		.thumb_func
 1548              		.type	wc_GenerateSeed, %function
 1549              	wc_GenerateSeed:
 1550              	.LFB26:
1455:..\acn-sdk-c\src\wolfSSL/wolfcrypt/src/random.c ****         int i;
 1551              		.loc 2 1455 0
 1552              		.cfi_startproc
 1553              	.LVL215:
1457:..\acn-sdk-c\src\wolfSSL/wolfcrypt/src/random.c ****             output[i] = i;
 1554              		.loc 2 1457 0
 1555 0000 0023     		mov	r3, #0
 1556              	.LVL216:
 1557              	.L160:
1457:..\acn-sdk-c\src\wolfSSL/wolfcrypt/src/random.c ****             output[i] = i;
 1558              		.loc 2 1457 0 is_stmt 0 discriminator 1
ARM GAS  C:\Users\ddemidov\AppData\Local\Temp\ccBlgygZ.s 			page 61


 1559 0002 9342     		cmp	r3, r2
 1560 0004 02DA     		bge	.L162
 1561              		.loc 2 1458 0 is_stmt 1 discriminator 3
 1562 0006 CB54     		strb	r3, [r1, r3]
1457:..\acn-sdk-c\src\wolfSSL/wolfcrypt/src/random.c ****             output[i] = i;
 1563              		.loc 2 1457 0 discriminator 3
 1564 0008 0133     		add	r3, r3, #1
 1565              	.LVL217:
 1566 000a FAE7     		b	.L160
 1567              	.L162:
1459:..\acn-sdk-c\src\wolfSSL/wolfcrypt/src/random.c ****         return 0;
1460:..\acn-sdk-c\src\wolfSSL/wolfcrypt/src/random.c ****     }
 1568              		.loc 2 1460 0
 1569 000c 0020     		mov	r0, #0
 1570              	.LVL218:
 1571              		@ sp needed
 1572 000e 7047     		bx	lr
 1573              		.cfi_endproc
 1574              	.LFE26:
 1575              		.size	wc_GenerateSeed, .-wc_GenerateSeed
 1576              		.global	outputB
 1577              		.global	entropyB
 1578              		.global	outputA
 1579              		.global	reseedEntropyA
 1580              		.global	entropyA
 1581              		.section	.rodata
 1582              		.set	.LANCHOR0,. + 0
 1583              		.set	.LANCHOR1,. + 128
 1584              		.set	.LANCHOR2,. + 256
 1585              		.type	entropyA, %object
 1586              		.size	entropyA, 48
 1587              	entropyA:
 1588 0000 63       		.byte	99
 1589 0001 36       		.byte	54
 1590 0002 33       		.byte	51
 1591 0003 77       		.byte	119
 1592 0004 E4       		.byte	-28
 1593 0005 1E       		.byte	30
 1594 0006 86       		.byte	-122
 1595 0007 46       		.byte	70
 1596 0008 8D       		.byte	-115
 1597 0009 EB       		.byte	-21
 1598 000a 0A       		.byte	10
 1599 000b B4       		.byte	-76
 1600 000c A8       		.byte	-88
 1601 000d ED       		.byte	-19
 1602 000e 68       		.byte	104
 1603 000f 3F       		.byte	63
 1604 0010 6A       		.byte	106
 1605 0011 13       		.byte	19
 1606 0012 4E       		.byte	78
 1607 0013 47       		.byte	71
 1608 0014 E0       		.byte	-32
 1609 0015 14       		.byte	20
 1610 0016 C7       		.byte	-57
 1611 0017 00       		.byte	0
 1612 0018 45       		.byte	69
ARM GAS  C:\Users\ddemidov\AppData\Local\Temp\ccBlgygZ.s 			page 62


 1613 0019 4E       		.byte	78
 1614 001a 81       		.byte	-127
 1615 001b E9       		.byte	-23
 1616 001c 53       		.byte	83
 1617 001d 58       		.byte	88
 1618 001e A5       		.byte	-91
 1619 001f 69       		.byte	105
 1620 0020 80       		.byte	-128
 1621 0021 8A       		.byte	-118
 1622 0022 A3       		.byte	-93
 1623 0023 8F       		.byte	-113
 1624 0024 2A       		.byte	42
 1625 0025 72       		.byte	114
 1626 0026 A6       		.byte	-90
 1627 0027 23       		.byte	35
 1628 0028 59       		.byte	89
 1629 0029 91       		.byte	-111
 1630 002a 5A       		.byte	90
 1631 002b 9F       		.byte	-97
 1632 002c 8A       		.byte	-118
 1633 002d 04       		.byte	4
 1634 002e CA       		.byte	-54
 1635 002f 68       		.byte	104
 1636              		.type	reseedEntropyA, %object
 1637              		.size	reseedEntropyA, 32
 1638              	reseedEntropyA:
 1639 0030 E6       		.byte	-26
 1640 0031 2B       		.byte	43
 1641 0032 8A       		.byte	-118
 1642 0033 8E       		.byte	-114
 1643 0034 E8       		.byte	-24
 1644 0035 F1       		.byte	-15
 1645 0036 41       		.byte	65
 1646 0037 B6       		.byte	-74
 1647 0038 98       		.byte	-104
 1648 0039 05       		.byte	5
 1649 003a 66       		.byte	102
 1650 003b E3       		.byte	-29
 1651 003c BF       		.byte	-65
 1652 003d E3       		.byte	-29
 1653 003e C0       		.byte	-64
 1654 003f 49       		.byte	73
 1655 0040 03       		.byte	3
 1656 0041 DA       		.byte	-38
 1657 0042 D4       		.byte	-44
 1658 0043 AC       		.byte	-84
 1659 0044 2C       		.byte	44
 1660 0045 DF       		.byte	-33
 1661 0046 9F       		.byte	-97
 1662 0047 22       		.byte	34
 1663 0048 80       		.byte	-128
 1664 0049 01       		.byte	1
 1665 004a 0A       		.byte	10
 1666 004b 67       		.byte	103
 1667 004c 39       		.byte	57
 1668 004d BC       		.byte	-68
 1669 004e 83       		.byte	-125
ARM GAS  C:\Users\ddemidov\AppData\Local\Temp\ccBlgygZ.s 			page 63


 1670 004f D3       		.byte	-45
 1671              		.type	outputA, %object
 1672              		.size	outputA, 128
 1673              	outputA:
 1674 0050 04       		.byte	4
 1675 0051 EE       		.byte	-18
 1676 0052 C6       		.byte	-58
 1677 0053 3B       		.byte	59
 1678 0054 B2       		.byte	-78
 1679 0055 31       		.byte	49
 1680 0056 DF       		.byte	-33
 1681 0057 2C       		.byte	44
 1682 0058 63       		.byte	99
 1683 0059 0A       		.byte	10
 1684 005a 1A       		.byte	26
 1685 005b FB       		.byte	-5
 1686 005c E7       		.byte	-25
 1687 005d 24       		.byte	36
 1688 005e 94       		.byte	-108
 1689 005f 9D       		.byte	-99
 1690 0060 00       		.byte	0
 1691 0061 5A       		.byte	90
 1692 0062 58       		.byte	88
 1693 0063 78       		.byte	120
 1694 0064 51       		.byte	81
 1695 0065 E1       		.byte	-31
 1696 0066 AA       		.byte	-86
 1697 0067 79       		.byte	121
 1698 0068 5E       		.byte	94
 1699 0069 47       		.byte	71
 1700 006a 73       		.byte	115
 1701 006b 47       		.byte	71
 1702 006c C8       		.byte	-56
 1703 006d B0       		.byte	-80
 1704 006e 56       		.byte	86
 1705 006f 62       		.byte	98
 1706 0070 1C       		.byte	28
 1707 0071 18       		.byte	24
 1708 0072 BD       		.byte	-67
 1709 0073 DC       		.byte	-36
 1710 0074 DD       		.byte	-35
 1711 0075 8D       		.byte	-115
 1712 0076 99       		.byte	-103
 1713 0077 FC       		.byte	-4
 1714 0078 5F       		.byte	95
 1715 0079 C2       		.byte	-62
 1716 007a B9       		.byte	-71
 1717 007b 20       		.byte	32
 1718 007c 53       		.byte	83
 1719 007d D8       		.byte	-40
 1720 007e CF       		.byte	-49
 1721 007f AC       		.byte	-84
 1722 0080 FB       		.byte	-5
 1723 0081 0B       		.byte	11
 1724 0082 B8       		.byte	-72
 1725 0083 83       		.byte	-125
 1726 0084 12       		.byte	18
ARM GAS  C:\Users\ddemidov\AppData\Local\Temp\ccBlgygZ.s 			page 64


 1727 0085 05       		.byte	5
 1728 0086 FA       		.byte	-6
 1729 0087 D1       		.byte	-47
 1730 0088 DD       		.byte	-35
 1731 0089 D6       		.byte	-42
 1732 008a C0       		.byte	-64
 1733 008b 71       		.byte	113
 1734 008c 31       		.byte	49
 1735 008d 8A       		.byte	-118
 1736 008e 60       		.byte	96
 1737 008f 18       		.byte	24
 1738 0090 F0       		.byte	-16
 1739 0091 3B       		.byte	59
 1740 0092 73       		.byte	115
 1741 0093 F5       		.byte	-11
 1742 0094 ED       		.byte	-19
 1743 0095 E4       		.byte	-28
 1744 0096 D4       		.byte	-44
 1745 0097 D0       		.byte	-48
 1746 0098 71       		.byte	113
 1747 0099 F9       		.byte	-7
 1748 009a DE       		.byte	-34
 1749 009b 03       		.byte	3
 1750 009c FD       		.byte	-3
 1751 009d 7A       		.byte	122
 1752 009e EA       		.byte	-22
 1753 009f 10       		.byte	16
 1754 00a0 5D       		.byte	93
 1755 00a1 92       		.byte	-110
 1756 00a2 99       		.byte	-103
 1757 00a3 B8       		.byte	-72
 1758 00a4 AF       		.byte	-81
 1759 00a5 99       		.byte	-103
 1760 00a6 AA       		.byte	-86
 1761 00a7 07       		.byte	7
 1762 00a8 5B       		.byte	91
 1763 00a9 DB       		.byte	-37
 1764 00aa 4D       		.byte	77
 1765 00ab B9       		.byte	-71
 1766 00ac AA       		.byte	-86
 1767 00ad 28       		.byte	40
 1768 00ae C1       		.byte	-63
 1769 00af 8D       		.byte	-115
 1770 00b0 17       		.byte	23
 1771 00b1 4B       		.byte	75
 1772 00b2 56       		.byte	86
 1773 00b3 EE       		.byte	-18
 1774 00b4 2A       		.byte	42
 1775 00b5 01       		.byte	1
 1776 00b6 4D       		.byte	77
 1777 00b7 09       		.byte	9
 1778 00b8 88       		.byte	-120
 1779 00b9 96       		.byte	-106
 1780 00ba FF       		.byte	-1
 1781 00bb 22       		.byte	34
 1782 00bc 82       		.byte	-126
 1783 00bd C9       		.byte	-55
ARM GAS  C:\Users\ddemidov\AppData\Local\Temp\ccBlgygZ.s 			page 65


 1784 00be 55       		.byte	85
 1785 00bf A8       		.byte	-88
 1786 00c0 19       		.byte	25
 1787 00c1 69       		.byte	105
 1788 00c2 E0       		.byte	-32
 1789 00c3 69       		.byte	105
 1790 00c4 FA       		.byte	-6
 1791 00c5 8C       		.byte	-116
 1792 00c6 E0       		.byte	-32
 1793 00c7 07       		.byte	7
 1794 00c8 A1       		.byte	-95
 1795 00c9 80       		.byte	-128
 1796 00ca 18       		.byte	24
 1797 00cb 3A       		.byte	58
 1798 00cc 07       		.byte	7
 1799 00cd DF       		.byte	-33
 1800 00ce AE       		.byte	-82
 1801 00cf 17       		.byte	23
 1802              		.type	entropyB, %object
 1803              		.size	entropyB, 48
 1804              	entropyB:
 1805 00d0 A6       		.byte	-90
 1806 00d1 5A       		.byte	90
 1807 00d2 D0       		.byte	-48
 1808 00d3 F3       		.byte	-13
 1809 00d4 45       		.byte	69
 1810 00d5 DB       		.byte	-37
 1811 00d6 4E       		.byte	78
 1812 00d7 0E       		.byte	14
 1813 00d8 FF       		.byte	-1
 1814 00d9 E8       		.byte	-24
 1815 00da 75       		.byte	117
 1816 00db C3       		.byte	-61
 1817 00dc A2       		.byte	-94
 1818 00dd E7       		.byte	-25
 1819 00de 1F       		.byte	31
 1820 00df 42       		.byte	66
 1821 00e0 C7       		.byte	-57
 1822 00e1 12       		.byte	18
 1823 00e2 9D       		.byte	-99
 1824 00e3 62       		.byte	98
 1825 00e4 0F       		.byte	15
 1826 00e5 F5       		.byte	-11
 1827 00e6 C1       		.byte	-63
 1828 00e7 19       		.byte	25
 1829 00e8 A9       		.byte	-87
 1830 00e9 EF       		.byte	-17
 1831 00ea 55       		.byte	85
 1832 00eb F0       		.byte	-16
 1833 00ec 51       		.byte	81
 1834 00ed 85       		.byte	-123
 1835 00ee E0       		.byte	-32
 1836 00ef FB       		.byte	-5
 1837 00f0 85       		.byte	-123
 1838 00f1 81       		.byte	-127
 1839 00f2 F9       		.byte	-7
 1840 00f3 31       		.byte	49
ARM GAS  C:\Users\ddemidov\AppData\Local\Temp\ccBlgygZ.s 			page 66


 1841 00f4 75       		.byte	117
 1842 00f5 17       		.byte	23
 1843 00f6 27       		.byte	39
 1844 00f7 6E       		.byte	110
 1845 00f8 06       		.byte	6
 1846 00f9 E9       		.byte	-23
 1847 00fa 60       		.byte	96
 1848 00fb 7D       		.byte	125
 1849 00fc DB       		.byte	-37
 1850 00fd CB       		.byte	-53
 1851 00fe CC       		.byte	-52
 1852 00ff 2E       		.byte	46
 1853              		.type	outputB, %object
 1854              		.size	outputB, 128
 1855              	outputB:
 1856 0100 D3       		.byte	-45
 1857 0101 E1       		.byte	-31
 1858 0102 60       		.byte	96
 1859 0103 C3       		.byte	-61
 1860 0104 5B       		.byte	91
 1861 0105 99       		.byte	-103
 1862 0106 F3       		.byte	-13
 1863 0107 40       		.byte	64
 1864 0108 B2       		.byte	-78
 1865 0109 62       		.byte	98
 1866 010a 82       		.byte	-126
 1867 010b 64       		.byte	100
 1868 010c D1       		.byte	-47
 1869 010d 75       		.byte	117
 1870 010e 10       		.byte	16
 1871 010f 60       		.byte	96
 1872 0110 E0       		.byte	-32
 1873 0111 04       		.byte	4
 1874 0112 5D       		.byte	93
 1875 0113 A3       		.byte	-93
 1876 0114 83       		.byte	-125
 1877 0115 FF       		.byte	-1
 1878 0116 57       		.byte	87
 1879 0117 A5       		.byte	-91
 1880 0118 7D       		.byte	125
 1881 0119 73       		.byte	115
 1882 011a A6       		.byte	-90
 1883 011b 73       		.byte	115
 1884 011c D2       		.byte	-46
 1885 011d B8       		.byte	-72
 1886 011e D8       		.byte	-40
 1887 011f 0D       		.byte	13
 1888 0120 AA       		.byte	-86
 1889 0121 F6       		.byte	-10
 1890 0122 A6       		.byte	-90
 1891 0123 C3       		.byte	-61
 1892 0124 5A       		.byte	90
 1893 0125 91       		.byte	-111
 1894 0126 BB       		.byte	-69
 1895 0127 45       		.byte	69
 1896 0128 79       		.byte	121
 1897 0129 D7       		.byte	-41
ARM GAS  C:\Users\ddemidov\AppData\Local\Temp\ccBlgygZ.s 			page 67


 1898 012a 3F       		.byte	63
 1899 012b D0       		.byte	-48
 1900 012c C8       		.byte	-56
 1901 012d FE       		.byte	-2
 1902 012e D1       		.byte	-47
 1903 012f 11       		.byte	17
 1904 0130 B0       		.byte	-80
 1905 0131 39       		.byte	57
 1906 0132 13       		.byte	19
 1907 0133 06       		.byte	6
 1908 0134 82       		.byte	-126
 1909 0135 8A       		.byte	-118
 1910 0136 DF       		.byte	-33
 1911 0137 ED       		.byte	-19
 1912 0138 52       		.byte	82
 1913 0139 8F       		.byte	-113
 1914 013a 01       		.byte	1
 1915 013b 81       		.byte	-127
 1916 013c 21       		.byte	33
 1917 013d B3       		.byte	-77
 1918 013e FE       		.byte	-2
 1919 013f BD       		.byte	-67
 1920 0140 C3       		.byte	-61
 1921 0141 43       		.byte	67
 1922 0142 E7       		.byte	-25
 1923 0143 97       		.byte	-105
 1924 0144 B8       		.byte	-72
 1925 0145 7D       		.byte	125
 1926 0146 BB       		.byte	-69
 1927 0147 63       		.byte	99
 1928 0148 DB       		.byte	-37
 1929 0149 13       		.byte	19
 1930 014a 33       		.byte	51
 1931 014b DE       		.byte	-34
 1932 014c D9       		.byte	-39
 1933 014d D1       		.byte	-47
 1934 014e EC       		.byte	-20
 1935 014f E1       		.byte	-31
 1936 0150 77       		.byte	119
 1937 0151 CF       		.byte	-49
 1938 0152 A6       		.byte	-90
 1939 0153 B7       		.byte	-73
 1940 0154 1F       		.byte	31
 1941 0155 E8       		.byte	-24
 1942 0156 AB       		.byte	-85
 1943 0157 1D       		.byte	29
 1944 0158 A4       		.byte	-92
 1945 0159 66       		.byte	102
 1946 015a 24       		.byte	36
 1947 015b ED       		.byte	-19
 1948 015c 64       		.byte	100
 1949 015d 15       		.byte	21
 1950 015e E5       		.byte	-27
 1951 015f 1C       		.byte	28
 1952 0160 CD       		.byte	-51
 1953 0161 E2       		.byte	-30
 1954 0162 C7       		.byte	-57
ARM GAS  C:\Users\ddemidov\AppData\Local\Temp\ccBlgygZ.s 			page 68


 1955 0163 CA       		.byte	-54
 1956 0164 86       		.byte	-122
 1957 0165 E2       		.byte	-30
 1958 0166 83       		.byte	-125
 1959 0167 99       		.byte	-103
 1960 0168 0E       		.byte	14
 1961 0169 EA       		.byte	-22
 1962 016a EB       		.byte	-21
 1963 016b 91       		.byte	-111
 1964 016c 12       		.byte	18
 1965 016d 04       		.byte	4
 1966 016e 15       		.byte	21
 1967 016f 52       		.byte	82
 1968 0170 8B       		.byte	-117
 1969 0171 22       		.byte	34
 1970 0172 95       		.byte	-107
 1971 0173 91       		.byte	-111
 1972 0174 02       		.byte	2
 1973 0175 81       		.byte	-127
 1974 0176 B0       		.byte	-80
 1975 0177 2D       		.byte	45
 1976 0178 D4       		.byte	-44
 1977 0179 31       		.byte	49
 1978 017a F4       		.byte	-12
 1979 017b C9       		.byte	-55
 1980 017c F7       		.byte	-9
 1981 017d 04       		.byte	4
 1982 017e 27       		.byte	39
 1983 017f DF       		.byte	-33
 1984              		.text
 1985              	.Letext0:
 1986              		.file 3 "..\\acn-sdk-c\\src\\wolfSSL/wolfssl/wolfcrypt/types.h"
 1987              		.file 4 "c:\\program files (x86)\\cypress\\psoc creator\\3.3\\psoc creator\\import\\gnu\\arm\\4.9.
 1988              		.file 5 "..\\acn-sdk-c\\src\\wolfSSL/wolfssl/wolfcrypt/sha256.h"
 1989              		.file 6 "..\\acn-sdk-c\\src\\wolfSSL/wolfssl/wolfcrypt/random.h"
 1990              		.file 7 "..\\acn-sdk-c\\src\\wolfSSL/wolfssl/wolfcrypt/error-crypt.h"
 1991              		.file 8 "..\\acn-sdk-c\\src\\wolfSSL/wolfssl/wolfcrypt/memory.h"
 1992              		.section	.debug_info,"",%progbits
 1993              	.Ldebug_info0:
 1994 0000 65190000 		.4byte	0x1965
 1995 0004 0400     		.2byte	0x4
 1996 0006 00000000 		.4byte	.Ldebug_abbrev0
 1997 000a 04       		.byte	0x4
 1998 000b 01       		.uleb128 0x1
 1999 000c BF030000 		.4byte	.LASF265
 2000 0010 01       		.byte	0x1
 2001 0011 DC0C0000 		.4byte	.LASF266
 2002 0015 DD090000 		.4byte	.LASF267
 2003 0019 88000000 		.4byte	.Ldebug_ranges0+0x88
 2004 001d 00000000 		.4byte	0
 2005 0021 00000000 		.4byte	.Ldebug_line0
 2006 0025 02       		.uleb128 0x2
 2007 0026 04       		.byte	0x4
 2008 0027 05       		.byte	0x5
 2009 0028 696E7400 		.ascii	"int\000"
 2010 002c 03       		.uleb128 0x3
 2011 002d 0C0D0000 		.4byte	.LASF1
ARM GAS  C:\Users\ddemidov\AppData\Local\Temp\ccBlgygZ.s 			page 69


 2012 0031 03       		.byte	0x3
 2013 0032 2D       		.byte	0x2d
 2014 0033 37000000 		.4byte	0x37
 2015 0037 04       		.uleb128 0x4
 2016 0038 01       		.byte	0x1
 2017 0039 08       		.byte	0x8
 2018 003a 670D0000 		.4byte	.LASF0
 2019 003e 03       		.uleb128 0x3
 2020 003f A6080000 		.4byte	.LASF2
 2021 0043 03       		.byte	0x3
 2022 0044 2F       		.byte	0x2f
 2023 0045 49000000 		.4byte	0x49
 2024 0049 04       		.uleb128 0x4
 2025 004a 02       		.byte	0x2
 2026 004b 07       		.byte	0x7
 2027 004c 480E0000 		.4byte	.LASF3
 2028 0050 03       		.uleb128 0x3
 2029 0051 300B0000 		.4byte	.LASF4
 2030 0055 03       		.byte	0x3
 2031 0056 30       		.byte	0x30
 2032 0057 5B000000 		.4byte	0x5b
 2033 005b 04       		.uleb128 0x4
 2034 005c 04       		.byte	0x4
 2035 005d 07       		.byte	0x7
 2036 005e C9000000 		.4byte	.LASF5
 2037 0062 04       		.uleb128 0x4
 2038 0063 08       		.byte	0x8
 2039 0064 07       		.byte	0x7
 2040 0065 22030000 		.4byte	.LASF6
 2041 0069 03       		.uleb128 0x3
 2042 006a D5040000 		.4byte	.LASF7
 2043 006e 04       		.byte	0x4
 2044 006f D4       		.byte	0xd4
 2045 0070 5B000000 		.4byte	0x5b
 2046 0074 04       		.uleb128 0x4
 2047 0075 01       		.byte	0x1
 2048 0076 06       		.byte	0x6
 2049 0077 3C0E0000 		.4byte	.LASF8
 2050 007b 04       		.uleb128 0x4
 2051 007c 02       		.byte	0x2
 2052 007d 05       		.byte	0x5
 2053 007e 750A0000 		.4byte	.LASF9
 2054 0082 04       		.uleb128 0x4
 2055 0083 04       		.byte	0x4
 2056 0084 05       		.byte	0x5
 2057 0085 C40A0000 		.4byte	.LASF10
 2058 0089 04       		.uleb128 0x4
 2059 008a 04       		.byte	0x4
 2060 008b 07       		.byte	0x7
 2061 008c 9A0C0000 		.4byte	.LASF11
 2062 0090 04       		.uleb128 0x4
 2063 0091 08       		.byte	0x8
 2064 0092 05       		.byte	0x5
 2065 0093 F5060000 		.4byte	.LASF12
 2066 0097 04       		.uleb128 0x4
 2067 0098 04       		.byte	0x4
 2068 0099 07       		.byte	0x7
ARM GAS  C:\Users\ddemidov\AppData\Local\Temp\ccBlgygZ.s 			page 70


 2069 009a 910C0000 		.4byte	.LASF13
 2070 009e 05       		.uleb128 0x5
 2071 009f 04       		.byte	0x4
 2072 00a0 04       		.uleb128 0x4
 2073 00a1 01       		.byte	0x1
 2074 00a2 08       		.byte	0x8
 2075 00a3 EA050000 		.4byte	.LASF14
 2076 00a7 06       		.uleb128 0x6
 2077 00a8 04       		.byte	0x4
 2078 00a9 AD000000 		.4byte	0xad
 2079 00ad 07       		.uleb128 0x7
 2080 00ae 08       		.uleb128 0x8
 2081 00af 01       		.byte	0x1
 2082 00b0 03       		.byte	0x3
 2083 00b1 F2       		.byte	0xf2
 2084 00b2 07020000 		.4byte	0x207
 2085 00b6 09       		.uleb128 0x9
 2086 00b7 1C020000 		.4byte	.LASF15
 2087 00bb 01       		.sleb128 1
 2088 00bc 09       		.uleb128 0x9
 2089 00bd 2A0D0000 		.4byte	.LASF16
 2090 00c1 02       		.sleb128 2
 2091 00c2 09       		.uleb128 0x9
 2092 00c3 CA0D0000 		.4byte	.LASF17
 2093 00c7 03       		.sleb128 3
 2094 00c8 09       		.uleb128 0x9
 2095 00c9 680B0000 		.4byte	.LASF18
 2096 00cd 04       		.sleb128 4
 2097 00ce 09       		.uleb128 0x9
 2098 00cf FA0D0000 		.4byte	.LASF19
 2099 00d3 05       		.sleb128 5
 2100 00d4 09       		.uleb128 0x9
 2101 00d5 FB020000 		.4byte	.LASF20
 2102 00d9 06       		.sleb128 6
 2103 00da 09       		.uleb128 0x9
 2104 00db 39030000 		.4byte	.LASF21
 2105 00df 07       		.sleb128 7
 2106 00e0 09       		.uleb128 0x9
 2107 00e1 750D0000 		.4byte	.LASF22
 2108 00e5 08       		.sleb128 8
 2109 00e6 09       		.uleb128 0x9
 2110 00e7 9C070000 		.4byte	.LASF23
 2111 00eb 09       		.sleb128 9
 2112 00ec 09       		.uleb128 0x9
 2113 00ed EF070000 		.4byte	.LASF24
 2114 00f1 0A       		.sleb128 10
 2115 00f2 09       		.uleb128 0x9
 2116 00f3 B00A0000 		.4byte	.LASF25
 2117 00f7 0B       		.sleb128 11
 2118 00f8 09       		.uleb128 0x9
 2119 00f9 75020000 		.4byte	.LASF26
 2120 00fd 0C       		.sleb128 12
 2121 00fe 09       		.uleb128 0x9
 2122 00ff 7F0A0000 		.4byte	.LASF27
 2123 0103 0D       		.sleb128 13
 2124 0104 09       		.uleb128 0x9
 2125 0105 97000000 		.4byte	.LASF28
ARM GAS  C:\Users\ddemidov\AppData\Local\Temp\ccBlgygZ.s 			page 71


 2126 0109 0E       		.sleb128 14
 2127 010a 09       		.uleb128 0x9
 2128 010b 88030000 		.4byte	.LASF29
 2129 010f 0F       		.sleb128 15
 2130 0110 09       		.uleb128 0x9
 2131 0111 45080000 		.4byte	.LASF30
 2132 0115 10       		.sleb128 16
 2133 0116 09       		.uleb128 0x9
 2134 0117 D00E0000 		.4byte	.LASF31
 2135 011b 11       		.sleb128 17
 2136 011c 09       		.uleb128 0x9
 2137 011d E30A0000 		.4byte	.LASF32
 2138 0121 12       		.sleb128 18
 2139 0122 09       		.uleb128 0x9
 2140 0123 520F0000 		.4byte	.LASF33
 2141 0127 13       		.sleb128 19
 2142 0128 09       		.uleb128 0x9
 2143 0129 38020000 		.4byte	.LASF34
 2144 012d 14       		.sleb128 20
 2145 012e 09       		.uleb128 0x9
 2146 012f 660F0000 		.4byte	.LASF35
 2147 0133 15       		.sleb128 21
 2148 0134 09       		.uleb128 0x9
 2149 0135 DE070000 		.4byte	.LASF36
 2150 0139 16       		.sleb128 22
 2151 013a 09       		.uleb128 0x9
 2152 013b AE0B0000 		.4byte	.LASF37
 2153 013f 17       		.sleb128 23
 2154 0140 09       		.uleb128 0x9
 2155 0141 5B0E0000 		.4byte	.LASF38
 2156 0145 18       		.sleb128 24
 2157 0146 09       		.uleb128 0x9
 2158 0147 FF080000 		.4byte	.LASF39
 2159 014b 19       		.sleb128 25
 2160 014c 09       		.uleb128 0x9
 2161 014d 4C0A0000 		.4byte	.LASF40
 2162 0151 1A       		.sleb128 26
 2163 0152 09       		.uleb128 0x9
 2164 0153 110D0000 		.4byte	.LASF41
 2165 0157 1B       		.sleb128 27
 2166 0158 09       		.uleb128 0x9
 2167 0159 03070000 		.4byte	.LASF42
 2168 015d 1C       		.sleb128 28
 2169 015e 09       		.uleb128 0x9
 2170 015f FF010000 		.4byte	.LASF43
 2171 0163 1D       		.sleb128 29
 2172 0164 09       		.uleb128 0x9
 2173 0165 1B070000 		.4byte	.LASF44
 2174 0169 1E       		.sleb128 30
 2175 016a 09       		.uleb128 0x9
 2176 016b 5A050000 		.4byte	.LASF45
 2177 016f 1F       		.sleb128 31
 2178 0170 09       		.uleb128 0x9
 2179 0171 BC020000 		.4byte	.LASF46
 2180 0175 20       		.sleb128 32
 2181 0176 09       		.uleb128 0x9
 2182 0177 BE090000 		.4byte	.LASF47
ARM GAS  C:\Users\ddemidov\AppData\Local\Temp\ccBlgygZ.s 			page 72


 2183 017b 21       		.sleb128 33
 2184 017c 09       		.uleb128 0x9
 2185 017d D6080000 		.4byte	.LASF48
 2186 0181 22       		.sleb128 34
 2187 0182 09       		.uleb128 0x9
 2188 0183 7D070000 		.4byte	.LASF49
 2189 0187 23       		.sleb128 35
 2190 0188 09       		.uleb128 0x9
 2191 0189 15080000 		.4byte	.LASF50
 2192 018d 24       		.sleb128 36
 2193 018e 09       		.uleb128 0x9
 2194 018f FC040000 		.4byte	.LASF51
 2195 0193 25       		.sleb128 37
 2196 0194 09       		.uleb128 0x9
 2197 0195 340A0000 		.4byte	.LASF52
 2198 0199 26       		.sleb128 38
 2199 019a 09       		.uleb128 0x9
 2200 019b BF040000 		.4byte	.LASF53
 2201 019f 27       		.sleb128 39
 2202 01a0 09       		.uleb128 0x9
 2203 01a1 B20D0000 		.4byte	.LASF54
 2204 01a5 28       		.sleb128 40
 2205 01a6 09       		.uleb128 0x9
 2206 01a7 78060000 		.4byte	.LASF55
 2207 01ab 29       		.sleb128 41
 2208 01ac 09       		.uleb128 0x9
 2209 01ad DC040000 		.4byte	.LASF56
 2210 01b1 2A       		.sleb128 42
 2211 01b2 09       		.uleb128 0x9
 2212 01b3 AB060000 		.4byte	.LASF57
 2213 01b7 2B       		.sleb128 43
 2214 01b8 09       		.uleb128 0x9
 2215 01b9 35000000 		.4byte	.LASF58
 2216 01bd 2C       		.sleb128 44
 2217 01be 09       		.uleb128 0x9
 2218 01bf F6050000 		.4byte	.LASF59
 2219 01c3 2D       		.sleb128 45
 2220 01c4 09       		.uleb128 0x9
 2221 01c5 61020000 		.4byte	.LASF60
 2222 01c9 2E       		.sleb128 46
 2223 01ca 09       		.uleb128 0x9
 2224 01cb 120E0000 		.4byte	.LASF61
 2225 01cf 2F       		.sleb128 47
 2226 01d0 09       		.uleb128 0x9
 2227 01d1 18000000 		.4byte	.LASF62
 2228 01d5 30       		.sleb128 48
 2229 01d6 09       		.uleb128 0x9
 2230 01d7 1B060000 		.4byte	.LASF63
 2231 01db 31       		.sleb128 49
 2232 01dc 09       		.uleb128 0x9
 2233 01dd 2D010000 		.4byte	.LASF64
 2234 01e1 32       		.sleb128 50
 2235 01e2 09       		.uleb128 0x9
 2236 01e3 8C090000 		.4byte	.LASF65
 2237 01e7 33       		.sleb128 51
 2238 01e8 09       		.uleb128 0x9
 2239 01e9 74090000 		.4byte	.LASF66
ARM GAS  C:\Users\ddemidov\AppData\Local\Temp\ccBlgygZ.s 			page 73


 2240 01ed 34       		.sleb128 52
 2241 01ee 09       		.uleb128 0x9
 2242 01ef 160F0000 		.4byte	.LASF67
 2243 01f3 35       		.sleb128 53
 2244 01f4 09       		.uleb128 0x9
 2245 01f5 CD0A0000 		.4byte	.LASF68
 2246 01f9 36       		.sleb128 54
 2247 01fa 09       		.uleb128 0x9
 2248 01fb FE000000 		.4byte	.LASF69
 2249 01ff 37       		.sleb128 55
 2250 0200 09       		.uleb128 0x9
 2251 0201 C2060000 		.4byte	.LASF70
 2252 0205 38       		.sleb128 56
 2253 0206 00       		.byte	0
 2254 0207 08       		.uleb128 0x8
 2255 0208 01       		.byte	0x1
 2256 0209 05       		.byte	0x5
 2257 020a 30       		.byte	0x30
 2258 020b 29020000 		.4byte	0x229
 2259 020f 09       		.uleb128 0x9
 2260 0210 60070000 		.4byte	.LASF71
 2261 0214 02       		.sleb128 2
 2262 0215 09       		.uleb128 0x9
 2263 0216 EB0E0000 		.4byte	.LASF72
 2264 021a C000     		.sleb128 64
 2265 021c 09       		.uleb128 0x9
 2266 021d E40B0000 		.4byte	.LASF73
 2267 0221 20       		.sleb128 32
 2268 0222 09       		.uleb128 0x9
 2269 0223 B0070000 		.4byte	.LASF74
 2270 0227 38       		.sleb128 56
 2271 0228 00       		.byte	0
 2272 0229 0A       		.uleb128 0xa
 2273 022a 3C0D0000 		.4byte	.LASF80
 2274 022e 6C       		.byte	0x6c
 2275 022f 05       		.byte	0x5
 2276 0230 3A       		.byte	0x3a
 2277 0231 72020000 		.4byte	0x272
 2278 0235 0B       		.uleb128 0xb
 2279 0236 25010000 		.4byte	.LASF75
 2280 023a 05       		.byte	0x5
 2281 023b 3B       		.byte	0x3b
 2282 023c 50000000 		.4byte	0x50
 2283 0240 00       		.byte	0
 2284 0241 0B       		.uleb128 0xb
 2285 0242 CD020000 		.4byte	.LASF76
 2286 0246 05       		.byte	0x5
 2287 0247 3C       		.byte	0x3c
 2288 0248 50000000 		.4byte	0x50
 2289 024c 04       		.byte	0x4
 2290 024d 0B       		.uleb128 0xb
 2291 024e A9010000 		.4byte	.LASF77
 2292 0252 05       		.byte	0x5
 2293 0253 3D       		.byte	0x3d
 2294 0254 50000000 		.4byte	0x50
 2295 0258 08       		.byte	0x8
 2296 0259 0B       		.uleb128 0xb
ARM GAS  C:\Users\ddemidov\AppData\Local\Temp\ccBlgygZ.s 			page 74


 2297 025a 52090000 		.4byte	.LASF78
 2298 025e 05       		.byte	0x5
 2299 025f 3E       		.byte	0x3e
 2300 0260 72020000 		.4byte	0x272
 2301 0264 0C       		.byte	0xc
 2302 0265 0B       		.uleb128 0xb
 2303 0266 B0000000 		.4byte	.LASF79
 2304 026a 05       		.byte	0x5
 2305 026b 3F       		.byte	0x3f
 2306 026c 82020000 		.4byte	0x282
 2307 0270 2C       		.byte	0x2c
 2308 0271 00       		.byte	0
 2309 0272 0C       		.uleb128 0xc
 2310 0273 50000000 		.4byte	0x50
 2311 0277 82020000 		.4byte	0x282
 2312 027b 0D       		.uleb128 0xd
 2313 027c 97000000 		.4byte	0x97
 2314 0280 07       		.byte	0x7
 2315 0281 00       		.byte	0
 2316 0282 0C       		.uleb128 0xc
 2317 0283 50000000 		.4byte	0x50
 2318 0287 92020000 		.4byte	0x292
 2319 028b 0D       		.uleb128 0xd
 2320 028c 97000000 		.4byte	0x97
 2321 0290 0F       		.byte	0xf
 2322 0291 00       		.byte	0
 2323 0292 03       		.uleb128 0x3
 2324 0293 3C0D0000 		.4byte	.LASF80
 2325 0297 05       		.byte	0x5
 2326 0298 43       		.byte	0x43
 2327 0299 29020000 		.4byte	0x229
 2328 029d 0A       		.uleb128 0xa
 2329 029e EE040000 		.4byte	.LASF81
 2330 02a2 04       		.byte	0x4
 2331 02a3 06       		.byte	0x6
 2332 02a4 3F       		.byte	0x3f
 2333 02a5 B5020000 		.4byte	0x2b5
 2334 02a9 0E       		.uleb128 0xe
 2335 02aa 666400   		.ascii	"fd\000"
 2336 02ad 06       		.byte	0x6
 2337 02ae 43       		.byte	0x43
 2338 02af 25000000 		.4byte	0x25
 2339 02b3 00       		.byte	0
 2340 02b4 00       		.byte	0
 2341 02b5 03       		.uleb128 0x3
 2342 02b6 EE040000 		.4byte	.LASF81
 2343 02ba 06       		.byte	0x6
 2344 02bb 45       		.byte	0x45
 2345 02bc 9D020000 		.4byte	0x29d
 2346 02c0 0A       		.uleb128 0xa
 2347 02c1 53050000 		.4byte	.LASF82
 2348 02c5 0C       		.byte	0xc
 2349 02c6 06       		.byte	0x6
 2350 02c7 51       		.byte	0x51
 2351 02c8 F1020000 		.4byte	0x2f1
 2352 02cc 0B       		.uleb128 0xb
 2353 02cd 30000000 		.4byte	.LASF83
ARM GAS  C:\Users\ddemidov\AppData\Local\Temp\ccBlgygZ.s 			page 75


 2354 02d1 06       		.byte	0x6
 2355 02d2 52       		.byte	0x52
 2356 02d3 36030000 		.4byte	0x336
 2357 02d7 00       		.byte	0
 2358 02d8 0B       		.uleb128 0xb
 2359 02d9 AD080000 		.4byte	.LASF84
 2360 02dd 06       		.byte	0x6
 2361 02de 53       		.byte	0x53
 2362 02df B5020000 		.4byte	0x2b5
 2363 02e3 04       		.byte	0x4
 2364 02e4 0B       		.uleb128 0xb
 2365 02e5 68060000 		.4byte	.LASF85
 2366 02e9 06       		.byte	0x6
 2367 02ea 54       		.byte	0x54
 2368 02eb 2C000000 		.4byte	0x2c
 2369 02ef 08       		.byte	0x8
 2370 02f0 00       		.byte	0
 2371 02f1 0A       		.uleb128 0xa
 2372 02f2 630B0000 		.4byte	.LASF86
 2373 02f6 78       		.byte	0x78
 2374 02f7 02       		.byte	0x2
 2375 02f8 CD       		.byte	0xcd
 2376 02f9 36030000 		.4byte	0x336
 2377 02fd 0B       		.uleb128 0xb
 2378 02fe 67070000 		.4byte	.LASF87
 2379 0302 02       		.byte	0x2
 2380 0303 CE       		.byte	0xce
 2381 0304 50000000 		.4byte	0x50
 2382 0308 00       		.byte	0
 2383 0309 0B       		.uleb128 0xb
 2384 030a ED080000 		.4byte	.LASF88
 2385 030e 02       		.byte	0x2
 2386 030f CF       		.byte	0xcf
 2387 0310 50000000 		.4byte	0x50
 2388 0314 04       		.byte	0x4
 2389 0315 0E       		.uleb128 0xe
 2390 0316 5600     		.ascii	"V\000"
 2391 0318 02       		.byte	0x2
 2392 0319 D0       		.byte	0xd0
 2393 031a 87060000 		.4byte	0x687
 2394 031e 08       		.byte	0x8
 2395 031f 0E       		.uleb128 0xe
 2396 0320 4300     		.ascii	"C\000"
 2397 0322 02       		.byte	0x2
 2398 0323 D1       		.byte	0xd1
 2399 0324 87060000 		.4byte	0x687
 2400 0328 3F       		.byte	0x3f
 2401 0329 0B       		.uleb128 0xb
 2402 032a A50A0000 		.4byte	.LASF89
 2403 032e 02       		.byte	0x2
 2404 032f D2       		.byte	0xd2
 2405 0330 2C000000 		.4byte	0x2c
 2406 0334 76       		.byte	0x76
 2407 0335 00       		.byte	0
 2408 0336 06       		.uleb128 0x6
 2409 0337 04       		.byte	0x4
 2410 0338 F1020000 		.4byte	0x2f1
ARM GAS  C:\Users\ddemidov\AppData\Local\Temp\ccBlgygZ.s 			page 76


 2411 033c 03       		.uleb128 0x3
 2412 033d 53050000 		.4byte	.LASF82
 2413 0341 06       		.byte	0x6
 2414 0342 55       		.byte	0x55
 2415 0343 C0020000 		.4byte	0x2c0
 2416 0347 08       		.uleb128 0x8
 2417 0348 02       		.byte	0x2
 2418 0349 07       		.byte	0x7
 2419 034a 27       		.byte	0x27
 2420 034b 60060000 		.4byte	0x660
 2421 034f 09       		.uleb128 0x9
 2422 0350 8C000000 		.4byte	.LASF90
 2423 0354 9C7F     		.sleb128 -100
 2424 0356 09       		.uleb128 0x9
 2425 0357 E3020000 		.4byte	.LASF91
 2426 035b 9B7F     		.sleb128 -101
 2427 035d 09       		.uleb128 0x9
 2428 035e 580B0000 		.4byte	.LASF92
 2429 0362 9A7F     		.sleb128 -102
 2430 0364 09       		.uleb128 0x9
 2431 0365 820E0000 		.4byte	.LASF93
 2432 0369 997F     		.sleb128 -103
 2433 036b 09       		.uleb128 0x9
 2434 036c 5C0D0000 		.4byte	.LASF94
 2435 0370 987F     		.sleb128 -104
 2436 0372 09       		.uleb128 0x9
 2437 0373 0A0F0000 		.4byte	.LASF95
 2438 0377 977F     		.sleb128 -105
 2439 0379 09       		.uleb128 0x9
 2440 037a 460F0000 		.4byte	.LASF96
 2441 037e 967F     		.sleb128 -106
 2442 0380 09       		.uleb128 0x9
 2443 0381 230E0000 		.4byte	.LASF97
 2444 0385 927F     		.sleb128 -110
 2445 0387 09       		.uleb128 0x9
 2446 0388 2F070000 		.4byte	.LASF98
 2447 038c 917F     		.sleb128 -111
 2448 038e 09       		.uleb128 0x9
 2449 038f 47010000 		.4byte	.LASF99
 2450 0393 907F     		.sleb128 -112
 2451 0395 09       		.uleb128 0x9
 2452 0396 540D0000 		.4byte	.LASF100
 2453 039a 8F7F     		.sleb128 -113
 2454 039c 09       		.uleb128 0x9
 2455 039d 4D020000 		.4byte	.LASF101
 2456 03a1 8E7F     		.sleb128 -114
 2457 03a3 09       		.uleb128 0x9
 2458 03a4 6F060000 		.4byte	.LASF102
 2459 03a8 8D7F     		.sleb128 -115
 2460 03aa 09       		.uleb128 0x9
 2461 03ab 70030000 		.4byte	.LASF103
 2462 03af 8C7F     		.sleb128 -116
 2463 03b1 09       		.uleb128 0x9
 2464 03b2 2C020000 		.4byte	.LASF104
 2465 03b6 8B7F     		.sleb128 -117
 2466 03b8 09       		.uleb128 0x9
 2467 03b9 59090000 		.4byte	.LASF105
ARM GAS  C:\Users\ddemidov\AppData\Local\Temp\ccBlgygZ.s 			page 77


 2468 03bd 8A7F     		.sleb128 -118
 2469 03bf 09       		.uleb128 0x9
 2470 03c0 430D0000 		.4byte	.LASF106
 2471 03c4 897F     		.sleb128 -119
 2472 03c6 09       		.uleb128 0x9
 2473 03c7 370B0000 		.4byte	.LASF107
 2474 03cb 887F     		.sleb128 -120
 2475 03cd 09       		.uleb128 0x9
 2476 03ce 59080000 		.4byte	.LASF108
 2477 03d2 877F     		.sleb128 -121
 2478 03d4 09       		.uleb128 0x9
 2479 03d5 720E0000 		.4byte	.LASF109
 2480 03d9 837F     		.sleb128 -125
 2481 03db 09       		.uleb128 0x9
 2482 03dc 9D020000 		.4byte	.LASF110
 2483 03e0 FE7E     		.sleb128 -130
 2484 03e2 09       		.uleb128 0x9
 2485 03e3 A2030000 		.4byte	.LASF111
 2486 03e7 FD7E     		.sleb128 -131
 2487 03e9 09       		.uleb128 0x9
 2488 03ea 93070000 		.4byte	.LASF112
 2489 03ee FC7E     		.sleb128 -132
 2490 03f0 09       		.uleb128 0x9
 2491 03f1 E10E0000 		.4byte	.LASF113
 2492 03f5 FB7E     		.sleb128 -133
 2493 03f7 09       		.uleb128 0x9
 2494 03f8 970B0000 		.4byte	.LASF114
 2495 03fc FA7E     		.sleb128 -134
 2496 03fe 09       		.uleb128 0x9
 2497 03ff DE010000 		.4byte	.LASF115
 2498 0403 F97E     		.sleb128 -135
 2499 0405 09       		.uleb128 0x9
 2500 0406 27080000 		.4byte	.LASF116
 2501 040a F87E     		.sleb128 -136
 2502 040c 09       		.uleb128 0x9
 2503 040d DA020000 		.4byte	.LASF117
 2504 0411 F77E     		.sleb128 -137
 2505 0413 09       		.uleb128 0x9
 2506 0414 FB0A0000 		.4byte	.LASF118
 2507 0418 F67E     		.sleb128 -138
 2508 041a 09       		.uleb128 0x9
 2509 041b 9E060000 		.4byte	.LASF119
 2510 041f F57E     		.sleb128 -139
 2511 0421 09       		.uleb128 0x9
 2512 0422 E0000000 		.4byte	.LASF120
 2513 0426 F47E     		.sleb128 -140
 2514 0428 09       		.uleb128 0x9
 2515 0429 DB0D0000 		.4byte	.LASF121
 2516 042d F37E     		.sleb128 -141
 2517 042f 09       		.uleb128 0x9
 2518 0430 7A0B0000 		.4byte	.LASF122
 2519 0434 F27E     		.sleb128 -142
 2520 0436 09       		.uleb128 0x9
 2521 0437 0D060000 		.4byte	.LASF123
 2522 043b F17E     		.sleb128 -143
 2523 043d 09       		.uleb128 0x9
 2524 043e 9B040000 		.4byte	.LASF124
ARM GAS  C:\Users\ddemidov\AppData\Local\Temp\ccBlgygZ.s 			page 78


 2525 0442 F07E     		.sleb128 -144
 2526 0444 09       		.uleb128 0x9
 2527 0445 A4050000 		.4byte	.LASF125
 2528 0449 EF7E     		.sleb128 -145
 2529 044b 09       		.uleb128 0x9
 2530 044c 960A0000 		.4byte	.LASF126
 2531 0450 EE7E     		.sleb128 -146
 2532 0452 09       		.uleb128 0x9
 2533 0453 6D040000 		.4byte	.LASF127
 2534 0457 ED7E     		.sleb128 -147
 2535 0459 09       		.uleb128 0x9
 2536 045a 28050000 		.4byte	.LASF128
 2537 045e EC7E     		.sleb128 -148
 2538 0460 09       		.uleb128 0x9
 2539 0461 AE020000 		.4byte	.LASF129
 2540 0465 EB7E     		.sleb128 -149
 2541 0467 09       		.uleb128 0x9
 2542 0468 62010000 		.4byte	.LASF130
 2543 046c EA7E     		.sleb128 -150
 2544 046e 09       		.uleb128 0x9
 2545 046f 0F0C0000 		.4byte	.LASF131
 2546 0473 E97E     		.sleb128 -151
 2547 0475 09       		.uleb128 0x9
 2548 0476 6F000000 		.4byte	.LASF132
 2549 047a E87E     		.sleb128 -152
 2550 047c 09       		.uleb128 0x9
 2551 047d 0D050000 		.4byte	.LASF133
 2552 0481 E77E     		.sleb128 -153
 2553 0483 09       		.uleb128 0x9
 2554 0484 9E0E0000 		.4byte	.LASF134
 2555 0488 E67E     		.sleb128 -154
 2556 048a 09       		.uleb128 0x9
 2557 048b CA0C0000 		.4byte	.LASF135
 2558 048f E57E     		.sleb128 -155
 2559 0491 09       		.uleb128 0x9
 2560 0492 79030000 		.4byte	.LASF136
 2561 0496 E47E     		.sleb128 -156
 2562 0498 09       		.uleb128 0x9
 2563 0499 AA0E0000 		.4byte	.LASF137
 2564 049d E37E     		.sleb128 -157
 2565 049f 09       		.uleb128 0x9
 2566 04a0 99080000 		.4byte	.LASF138
 2567 04a4 E27E     		.sleb128 -158
 2568 04a6 09       		.uleb128 0x9
 2569 04a7 F0010000 		.4byte	.LASF139
 2570 04ab E17E     		.sleb128 -159
 2571 04ad 09       		.uleb128 0x9
 2572 04ae BD050000 		.4byte	.LASF140
 2573 04b2 E07E     		.sleb128 -160
 2574 04b4 09       		.uleb128 0x9
 2575 04b5 54010000 		.4byte	.LASF141
 2576 04b9 D67E     		.sleb128 -170
 2577 04bb 09       		.uleb128 0x9
 2578 04bc 61000000 		.4byte	.LASF142
 2579 04c0 D57E     		.sleb128 -171
 2580 04c2 09       		.uleb128 0x9
 2581 04c3 8D020000 		.4byte	.LASF143
ARM GAS  C:\Users\ddemidov\AppData\Local\Temp\ccBlgygZ.s 			page 79


 2582 04c7 D47E     		.sleb128 -172
 2583 04c9 09       		.uleb128 0x9
 2584 04ca 60040000 		.4byte	.LASF144
 2585 04ce D37E     		.sleb128 -173
 2586 04d0 09       		.uleb128 0x9
 2587 04d1 45070000 		.4byte	.LASF145
 2588 04d5 D27E     		.sleb128 -174
 2589 04d7 09       		.uleb128 0x9
 2590 04d8 DB060000 		.4byte	.LASF146
 2591 04dc D17E     		.sleb128 -175
 2592 04de 09       		.uleb128 0x9
 2593 04df C90B0000 		.4byte	.LASF147
 2594 04e3 D07E     		.sleb128 -176
 2595 04e5 09       		.uleb128 0x9
 2596 04e6 D2090000 		.4byte	.LASF148
 2597 04ea CF7E     		.sleb128 -177
 2598 04ec 09       		.uleb128 0x9
 2599 04ed 2D0E0000 		.4byte	.LASF149
 2600 04f1 CC7E     		.sleb128 -180
 2601 04f3 09       		.uleb128 0x9
 2602 04f4 8F010000 		.4byte	.LASF150
 2603 04f8 CB7E     		.sleb128 -181
 2604 04fa 09       		.uleb128 0x9
 2605 04fb 37080000 		.4byte	.LASF151
 2606 04ff CA7E     		.sleb128 -182
 2607 0501 09       		.uleb128 0x9
 2608 0502 63080000 		.4byte	.LASF152
 2609 0506 C97E     		.sleb128 -183
 2610 0508 09       		.uleb128 0x9
 2611 0509 9E010000 		.4byte	.LASF153
 2612 050d C87E     		.sleb128 -184
 2613 050f 09       		.uleb128 0x9
 2614 0510 2D090000 		.4byte	.LASF154
 2615 0514 C77E     		.sleb128 -185
 2616 0516 09       		.uleb128 0x9
 2617 0517 FD0E0000 		.4byte	.LASF155
 2618 051b C67E     		.sleb128 -186
 2619 051d 09       		.uleb128 0x9
 2620 051e 71070000 		.4byte	.LASF156
 2621 0522 C57E     		.sleb128 -187
 2622 0524 09       		.uleb128 0x9
 2623 0525 4D030000 		.4byte	.LASF157
 2624 0529 C47E     		.sleb128 -188
 2625 052b 09       		.uleb128 0x9
 2626 052c EC000000 		.4byte	.LASF158
 2627 0530 C37E     		.sleb128 -189
 2628 0532 09       		.uleb128 0x9
 2629 0533 870D0000 		.4byte	.LASF159
 2630 0537 C27E     		.sleb128 -190
 2631 0539 09       		.uleb128 0x9
 2632 053a 7E0C0000 		.4byte	.LASF160
 2633 053e C17E     		.sleb128 -191
 2634 0540 09       		.uleb128 0x9
 2635 0541 650A0000 		.4byte	.LASF161
 2636 0545 C07E     		.sleb128 -192
 2637 0547 09       		.uleb128 0x9
 2638 0548 6E050000 		.4byte	.LASF162
ARM GAS  C:\Users\ddemidov\AppData\Local\Temp\ccBlgygZ.s 			page 80


 2639 054c BF7E     		.sleb128 -193
 2640 054e 09       		.uleb128 0x9
 2641 054f C6080000 		.4byte	.LASF163
 2642 0553 BE7E     		.sleb128 -194
 2643 0555 09       		.uleb128 0x9
 2644 0556 C4010000 		.4byte	.LASF164
 2645 055a BD7E     		.sleb128 -195
 2646 055c 09       		.uleb128 0x9
 2647 055d B80E0000 		.4byte	.LASF165
 2648 0561 BC7E     		.sleb128 -196
 2649 0563 09       		.uleb128 0x9
 2650 0564 4D040000 		.4byte	.LASF166
 2651 0568 BB7E     		.sleb128 -197
 2652 056a 09       		.uleb128 0x9
 2653 056b 3F090000 		.4byte	.LASF167
 2654 056f BA7E     		.sleb128 -198
 2655 0571 09       		.uleb128 0x9
 2656 0572 3A050000 		.4byte	.LASF168
 2657 0576 B97E     		.sleb128 -199
 2658 0578 09       		.uleb128 0x9
 2659 0579 B7000000 		.4byte	.LASF169
 2660 057d B87E     		.sleb128 -200
 2661 057f 09       		.uleb128 0x9
 2662 0580 B3050000 		.4byte	.LASF170
 2663 0584 B77E     		.sleb128 -201
 2664 0586 09       		.uleb128 0x9
 2665 0587 B0090000 		.4byte	.LASF171
 2666 058b B67E     		.sleb128 -202
 2667 058d 09       		.uleb128 0x9
 2668 058e 7D000000 		.4byte	.LASF172
 2669 0592 B57E     		.sleb128 -203
 2670 0594 09       		.uleb128 0x9
 2671 0595 13030000 		.4byte	.LASF173
 2672 0599 B47E     		.sleb128 -204
 2673 059b 09       		.uleb128 0x9
 2674 059c 18050000 		.4byte	.LASF174
 2675 05a0 B37E     		.sleb128 -205
 2676 05a2 09       		.uleb128 0x9
 2677 05a3 870B0000 		.4byte	.LASF175
 2678 05a7 B27E     		.sleb128 -206
 2679 05a9 09       		.uleb128 0x9
 2680 05aa 73080000 		.4byte	.LASF176
 2681 05ae B17E     		.sleb128 -207
 2682 05b0 09       		.uleb128 0x9
 2683 05b1 200C0000 		.4byte	.LASF177
 2684 05b5 B07E     		.sleb128 -208
 2685 05b7 09       		.uleb128 0x9
 2686 05b8 300C0000 		.4byte	.LASF178
 2687 05bc AF7E     		.sleb128 -209
 2688 05be 09       		.uleb128 0x9
 2689 05bf 100B0000 		.4byte	.LASF179
 2690 05c3 AE7E     		.sleb128 -210
 2691 05c5 09       		.uleb128 0x9
 2692 05c6 B70C0000 		.4byte	.LASF180
 2693 05ca AD7E     		.sleb128 -211
 2694 05cc 09       		.uleb128 0x9
 2695 05cd 47000000 		.4byte	.LASF181
ARM GAS  C:\Users\ddemidov\AppData\Local\Temp\ccBlgygZ.s 			page 81


 2696 05d1 AC7E     		.sleb128 -212
 2697 05d3 09       		.uleb128 0x9
 2698 05d4 350F0000 		.4byte	.LASF182
 2699 05d8 AB7E     		.sleb128 -213
 2700 05da 09       		.uleb128 0x9
 2701 05db 55070000 		.4byte	.LASF183
 2702 05df AA7E     		.sleb128 -214
 2703 05e1 09       		.uleb128 0x9
 2704 05e2 A40B0000 		.4byte	.LASF184
 2705 05e6 A97E     		.sleb128 -215
 2706 05e8 09       		.uleb128 0x9
 2707 05e9 80010000 		.4byte	.LASF185
 2708 05ed A87E     		.sleb128 -216
 2709 05ef 09       		.uleb128 0x9
 2710 05f0 8D0E0000 		.4byte	.LASF186
 2711 05f4 A77E     		.sleb128 -217
 2712 05f6 09       		.uleb128 0x9
 2713 05f7 CA070000 		.4byte	.LASF187
 2714 05fb A67E     		.sleb128 -218
 2715 05fd 09       		.uleb128 0x9
 2716 05fe D0010000 		.4byte	.LASF188
 2717 0602 A57E     		.sleb128 -219
 2718 0604 09       		.uleb128 0x9
 2719 0605 E90D0000 		.4byte	.LASF189
 2720 0609 A47E     		.sleb128 -220
 2721 060b 09       		.uleb128 0x9
 2722 060c 39070000 		.4byte	.LASF190
 2723 0610 A37E     		.sleb128 -221
 2724 0612 09       		.uleb128 0x9
 2725 0613 7C050000 		.4byte	.LASF191
 2726 0617 A17E     		.sleb128 -223
 2727 0619 09       		.uleb128 0x9
 2728 061a 00000000 		.4byte	.LASF192
 2729 061e A07E     		.sleb128 -224
 2730 0620 09       		.uleb128 0x9
 2731 0621 79010000 		.4byte	.LASF193
 2732 0625 9F7E     		.sleb128 -225
 2733 0627 09       		.uleb128 0x9
 2734 0628 690C0000 		.4byte	.LASF194
 2735 062c 9E7E     		.sleb128 -226
 2736 062e 09       		.uleb128 0x9
 2737 062f 19090000 		.4byte	.LASF195
 2738 0633 9D7E     		.sleb128 -227
 2739 0635 09       		.uleb128 0x9
 2740 0636 15010000 		.4byte	.LASF196
 2741 063a 9C7E     		.sleb128 -228
 2742 063c 09       		.uleb128 0x9
 2743 063d 400B0000 		.4byte	.LASF197
 2744 0641 9B7E     		.sleb128 -229
 2745 0643 09       		.uleb128 0x9
 2746 0644 EA060000 		.4byte	.LASF198
 2747 0648 9A7E     		.sleb128 -230
 2748 064a 09       		.uleb128 0x9
 2749 064b 90040000 		.4byte	.LASF199
 2750 064f 997E     		.sleb128 -231
 2751 0651 09       		.uleb128 0x9
 2752 0652 CC050000 		.4byte	.LASF200
ARM GAS  C:\Users\ddemidov\AppData\Local\Temp\ccBlgygZ.s 			page 82


 2753 0656 987E     		.sleb128 -232
 2754 0658 09       		.uleb128 0x9
 2755 0659 050B0000 		.4byte	.LASF201
 2756 065d D47D     		.sleb128 -300
 2757 065f 00       		.byte	0
 2758 0660 08       		.uleb128 0x8
 2759 0661 01       		.byte	0x1
 2760 0662 02       		.byte	0x2
 2761 0663 C4       		.byte	0xc4
 2762 0664 87060000 		.4byte	0x687
 2763 0668 09       		.uleb128 0x9
 2764 0669 C60E0000 		.4byte	.LASF202
 2765 066d 00       		.sleb128 0
 2766 066e 09       		.uleb128 0x9
 2767 066f B4040000 		.4byte	.LASF203
 2768 0673 01       		.sleb128 1
 2769 0674 09       		.uleb128 0x9
 2770 0675 260A0000 		.4byte	.LASF204
 2771 0679 02       		.sleb128 2
 2772 067a 09       		.uleb128 0x9
 2773 067b A2090000 		.4byte	.LASF205
 2774 067f 03       		.sleb128 3
 2775 0680 09       		.uleb128 0x9
 2776 0681 C0070000 		.4byte	.LASF206
 2777 0685 04       		.sleb128 4
 2778 0686 00       		.byte	0
 2779 0687 0C       		.uleb128 0xc
 2780 0688 2C000000 		.4byte	0x2c
 2781 068c 97060000 		.4byte	0x697
 2782 0690 0D       		.uleb128 0xd
 2783 0691 97000000 		.4byte	0x97
 2784 0695 36       		.byte	0x36
 2785 0696 00       		.byte	0
 2786 0697 03       		.uleb128 0x3
 2787 0698 630B0000 		.4byte	.LASF86
 2788 069c 02       		.byte	0x2
 2789 069d D3       		.byte	0xd3
 2790 069e F1020000 		.4byte	0x2f1
 2791 06a2 0F       		.uleb128 0xf
 2792 06a3 740C0000 		.4byte	.LASF212
 2793 06a7 01       		.byte	0x1
 2794 06a8 44       		.byte	0x44
 2795 06a9 50000000 		.4byte	0x50
 2796 06ad 03       		.byte	0x3
 2797 06ae C5060000 		.4byte	0x6c5
 2798 06b2 10       		.uleb128 0x10
 2799 06b3 7800     		.ascii	"x\000"
 2800 06b5 01       		.byte	0x1
 2801 06b6 44       		.byte	0x44
 2802 06b7 50000000 		.4byte	0x50
 2803 06bb 10       		.uleb128 0x10
 2804 06bc 7900     		.ascii	"y\000"
 2805 06be 01       		.byte	0x1
 2806 06bf 44       		.byte	0x44
 2807 06c0 50000000 		.4byte	0x50
 2808 06c4 00       		.byte	0
 2809 06c5 11       		.uleb128 0x11
ARM GAS  C:\Users\ddemidov\AppData\Local\Temp\ccBlgygZ.s 			page 83


 2810 06c6 98030000 		.4byte	.LASF223
 2811 06ca 02       		.byte	0x2
 2812 06cb 7501     		.2byte	0x175
 2813 06cd 03       		.byte	0x3
 2814 06ce 25070000 		.4byte	0x725
 2815 06d2 12       		.uleb128 0x12
 2816 06d3 6400     		.ascii	"d\000"
 2817 06d5 02       		.byte	0x2
 2818 06d6 7501     		.2byte	0x175
 2819 06d8 25070000 		.4byte	0x725
 2820 06dc 13       		.uleb128 0x13
 2821 06dd 74010000 		.4byte	.LASF207
 2822 06e1 02       		.byte	0x2
 2823 06e2 7501     		.2byte	0x175
 2824 06e4 50000000 		.4byte	0x50
 2825 06e8 12       		.uleb128 0x12
 2826 06e9 7300     		.ascii	"s\000"
 2827 06eb 02       		.byte	0x2
 2828 06ec 7501     		.2byte	0x175
 2829 06ee 2B070000 		.4byte	0x72b
 2830 06f2 13       		.uleb128 0x13
 2831 06f3 DE0A0000 		.4byte	.LASF208
 2832 06f7 02       		.byte	0x2
 2833 06f8 7501     		.2byte	0x175
 2834 06fa 50000000 		.4byte	0x50
 2835 06fe 14       		.uleb128 0x14
 2836 06ff AF030000 		.4byte	.LASF209
 2837 0703 02       		.byte	0x2
 2838 0704 7701     		.2byte	0x177
 2839 0706 3E000000 		.4byte	0x3e
 2840 070a 15       		.uleb128 0x15
 2841 070b 14       		.uleb128 0x14
 2842 070c 44060000 		.4byte	.LASF210
 2843 0710 02       		.byte	0x2
 2844 0711 7A01     		.2byte	0x17a
 2845 0713 25000000 		.4byte	0x25
 2846 0717 14       		.uleb128 0x14
 2847 0718 F50D0000 		.4byte	.LASF211
 2848 071c 02       		.byte	0x2
 2849 071d 7A01     		.2byte	0x17a
 2850 071f 25000000 		.4byte	0x25
 2851 0723 00       		.byte	0
 2852 0724 00       		.byte	0
 2853 0725 06       		.uleb128 0x6
 2854 0726 04       		.byte	0x4
 2855 0727 2C000000 		.4byte	0x2c
 2856 072b 06       		.uleb128 0x6
 2857 072c 04       		.byte	0x4
 2858 072d 31070000 		.4byte	0x731
 2859 0731 16       		.uleb128 0x16
 2860 0732 2C000000 		.4byte	0x2c
 2861 0736 0F       		.uleb128 0xf
 2862 0737 F7080000 		.4byte	.LASF213
 2863 073b 02       		.byte	0x2
 2864 073c DA       		.byte	0xda
 2865 073d 25000000 		.4byte	0x25
 2866 0741 01       		.byte	0x1
ARM GAS  C:\Users\ddemidov\AppData\Local\Temp\ccBlgygZ.s 			page 84


 2867 0742 DF070000 		.4byte	0x7df
 2868 0746 17       		.uleb128 0x17
 2869 0747 30000000 		.4byte	.LASF83
 2870 074b 02       		.byte	0x2
 2871 074c DA       		.byte	0xda
 2872 074d DF070000 		.4byte	0x7df
 2873 0751 10       		.uleb128 0x10
 2874 0752 6F757400 		.ascii	"out\000"
 2875 0756 02       		.byte	0x2
 2876 0757 DA       		.byte	0xda
 2877 0758 25070000 		.4byte	0x725
 2878 075c 17       		.uleb128 0x17
 2879 075d F6040000 		.4byte	.LASF214
 2880 0761 02       		.byte	0x2
 2881 0762 DA       		.byte	0xda
 2882 0763 50000000 		.4byte	0x50
 2883 0767 17       		.uleb128 0x17
 2884 0768 4F0D0000 		.4byte	.LASF215
 2885 076c 02       		.byte	0x2
 2886 076d DA       		.byte	0xda
 2887 076e 2C000000 		.4byte	0x2c
 2888 0772 10       		.uleb128 0x10
 2889 0773 696E4100 		.ascii	"inA\000"
 2890 0777 02       		.byte	0x2
 2891 0778 DB       		.byte	0xdb
 2892 0779 2B070000 		.4byte	0x72b
 2893 077d 17       		.uleb128 0x17
 2894 077e AF010000 		.4byte	.LASF216
 2895 0782 02       		.byte	0x2
 2896 0783 DB       		.byte	0xdb
 2897 0784 50000000 		.4byte	0x50
 2898 0788 10       		.uleb128 0x10
 2899 0789 696E4200 		.ascii	"inB\000"
 2900 078d 02       		.byte	0x2
 2901 078e DC       		.byte	0xdc
 2902 078f 2B070000 		.4byte	0x72b
 2903 0793 17       		.uleb128 0x17
 2904 0794 31080000 		.4byte	.LASF217
 2905 0798 02       		.byte	0x2
 2906 0799 DC       		.byte	0xdc
 2907 079a 50000000 		.4byte	0x50
 2908 079e 18       		.uleb128 0x18
 2909 079f 63747200 		.ascii	"ctr\000"
 2910 07a3 02       		.byte	0x2
 2911 07a4 DE       		.byte	0xde
 2912 07a5 2C000000 		.4byte	0x2c
 2913 07a9 18       		.uleb128 0x18
 2914 07aa 6900     		.ascii	"i\000"
 2915 07ac 02       		.byte	0x2
 2916 07ad DF       		.byte	0xdf
 2917 07ae 25000000 		.4byte	0x25
 2918 07b2 18       		.uleb128 0x18
 2919 07b3 6C656E00 		.ascii	"len\000"
 2920 07b7 02       		.byte	0x2
 2921 07b8 E0       		.byte	0xe0
 2922 07b9 25000000 		.4byte	0x25
 2923 07bd 19       		.uleb128 0x19
ARM GAS  C:\Users\ddemidov\AppData\Local\Temp\ccBlgygZ.s 			page 85


 2924 07be BD060000 		.4byte	.LASF218
 2925 07c2 02       		.byte	0x2
 2926 07c3 E1       		.byte	0xe1
 2927 07c4 50000000 		.4byte	0x50
 2928 07c8 18       		.uleb128 0x18
 2929 07c9 73686100 		.ascii	"sha\000"
 2930 07cd 02       		.byte	0x2
 2931 07ce E2       		.byte	0xe2
 2932 07cf 92020000 		.4byte	0x292
 2933 07d3 19       		.uleb128 0x19
 2934 07d4 52090000 		.4byte	.LASF78
 2935 07d8 02       		.byte	0x2
 2936 07d9 E3       		.byte	0xe3
 2937 07da E5070000 		.4byte	0x7e5
 2938 07de 00       		.byte	0
 2939 07df 06       		.uleb128 0x6
 2940 07e0 04       		.byte	0x4
 2941 07e1 97060000 		.4byte	0x697
 2942 07e5 0C       		.uleb128 0xc
 2943 07e6 2C000000 		.4byte	0x2c
 2944 07ea F5070000 		.4byte	0x7f5
 2945 07ee 0D       		.uleb128 0xd
 2946 07ef 97000000 		.4byte	0x97
 2947 07f3 1F       		.byte	0x1f
 2948 07f4 00       		.byte	0
 2949 07f5 1A       		.uleb128 0x1a
 2950 07f6 82080000 		.4byte	.LASF219
 2951 07fa 02       		.byte	0x2
 2952 07fb BB02     		.2byte	0x2bb
 2953 07fd 25000000 		.4byte	0x25
 2954 0801 01       		.byte	0x1
 2955 0802 2B080000 		.4byte	0x82b
 2956 0806 13       		.uleb128 0x13
 2957 0807 EF050000 		.4byte	.LASF220
 2958 080b 02       		.byte	0x2
 2959 080c BB02     		.2byte	0x2bb
 2960 080e 25000000 		.4byte	0x25
 2961 0812 1B       		.uleb128 0x1b
 2962 0813 72657400 		.ascii	"ret\000"
 2963 0817 02       		.byte	0x2
 2964 0818 BD02     		.2byte	0x2bd
 2965 081a 25000000 		.4byte	0x25
 2966 081e 14       		.uleb128 0x14
 2967 081f 1F010000 		.4byte	.LASF221
 2968 0823 02       		.byte	0x2
 2969 0824 BE02     		.2byte	0x2be
 2970 0826 2B080000 		.4byte	0x82b
 2971 082a 00       		.byte	0
 2972 082b 0C       		.uleb128 0xc
 2973 082c 2C000000 		.4byte	0x2c
 2974 0830 3B080000 		.4byte	0x83b
 2975 0834 0D       		.uleb128 0xd
 2976 0835 97000000 		.4byte	0x97
 2977 0839 7F       		.byte	0x7f
 2978 083a 00       		.byte	0
 2979 083b 1C       		.uleb128 0x1c
 2980 083c 8C050000 		.4byte	.LASF257
ARM GAS  C:\Users\ddemidov\AppData\Local\Temp\ccBlgygZ.s 			page 86


 2981 0840 02       		.byte	0x2
 2982 0841 AF05     		.2byte	0x5af
 2983 0843 25000000 		.4byte	0x25
 2984 0847 01       		.byte	0x1
 2985 0848 79080000 		.4byte	0x879
 2986 084c 12       		.uleb128 0x12
 2987 084d 6F7300   		.ascii	"os\000"
 2988 0850 02       		.byte	0x2
 2989 0851 AF05     		.2byte	0x5af
 2990 0853 79080000 		.4byte	0x879
 2991 0857 13       		.uleb128 0x13
 2992 0858 5A000000 		.4byte	.LASF222
 2993 085c 02       		.byte	0x2
 2994 085d AF05     		.2byte	0x5af
 2995 085f 25070000 		.4byte	0x725
 2996 0863 12       		.uleb128 0x12
 2997 0864 737A00   		.ascii	"sz\000"
 2998 0867 02       		.byte	0x2
 2999 0868 AF05     		.2byte	0x5af
 3000 086a 50000000 		.4byte	0x50
 3001 086e 1B       		.uleb128 0x1b
 3002 086f 6900     		.ascii	"i\000"
 3003 0871 02       		.byte	0x2
 3004 0872 B005     		.2byte	0x5b0
 3005 0874 25000000 		.4byte	0x25
 3006 0878 00       		.byte	0
 3007 0879 06       		.uleb128 0x6
 3008 087a 04       		.byte	0x4
 3009 087b B5020000 		.4byte	0x2b5
 3010 087f 11       		.uleb128 0x11
 3011 0880 220B0000 		.4byte	.LASF224
 3012 0884 02       		.byte	0x2
 3013 0885 2D01     		.2byte	0x12d
 3014 0887 03       		.byte	0x3
 3015 0888 AF080000 		.4byte	0x8af
 3016 088c 13       		.uleb128 0x13
 3017 088d 28090000 		.4byte	.LASF225
 3018 0891 02       		.byte	0x2
 3019 0892 2D01     		.2byte	0x12d
 3020 0894 25070000 		.4byte	0x725
 3021 0898 13       		.uleb128 0x13
 3022 0899 D3020000 		.4byte	.LASF226
 3023 089d 02       		.byte	0x2
 3024 089e 2D01     		.2byte	0x12d
 3025 08a0 50000000 		.4byte	0x50
 3026 08a4 1B       		.uleb128 0x1b
 3027 08a5 6900     		.ascii	"i\000"
 3028 08a7 02       		.byte	0x2
 3029 08a8 2F01     		.2byte	0x12f
 3030 08aa 25000000 		.4byte	0x25
 3031 08ae 00       		.byte	0
 3032 08af 1A       		.uleb128 0x1a
 3033 08b0 530C0000 		.4byte	.LASF227
 3034 08b4 02       		.byte	0x2
 3035 08b5 B401     		.2byte	0x1b4
 3036 08b7 25000000 		.4byte	0x25
 3037 08bb 01       		.byte	0x1
ARM GAS  C:\Users\ddemidov\AppData\Local\Temp\ccBlgygZ.s 			page 87


 3038 08bc 09090000 		.4byte	0x909
 3039 08c0 13       		.uleb128 0x13
 3040 08c1 30000000 		.4byte	.LASF83
 3041 08c5 02       		.byte	0x2
 3042 08c6 B401     		.2byte	0x1b4
 3043 08c8 DF070000 		.4byte	0x7df
 3044 08cc 13       		.uleb128 0x13
 3045 08cd AD080000 		.4byte	.LASF84
 3046 08d1 02       		.byte	0x2
 3047 08d2 B401     		.2byte	0x1b4
 3048 08d4 2B070000 		.4byte	0x72b
 3049 08d8 13       		.uleb128 0x13
 3050 08d9 A9000000 		.4byte	.LASF228
 3051 08dd 02       		.byte	0x2
 3052 08de B401     		.2byte	0x1b4
 3053 08e0 50000000 		.4byte	0x50
 3054 08e4 13       		.uleb128 0x13
 3055 08e5 C30B0000 		.4byte	.LASF229
 3056 08e9 02       		.byte	0x2
 3057 08ea B501     		.2byte	0x1b5
 3058 08ec 2B070000 		.4byte	0x72b
 3059 08f0 13       		.uleb128 0x13
 3060 08f1 9C050000 		.4byte	.LASF230
 3061 08f5 02       		.byte	0x2
 3062 08f6 B501     		.2byte	0x1b5
 3063 08f8 50000000 		.4byte	0x50
 3064 08fc 1B       		.uleb128 0x1b
 3065 08fd 72657400 		.ascii	"ret\000"
 3066 0901 02       		.byte	0x2
 3067 0902 B701     		.2byte	0x1b7
 3068 0904 25000000 		.4byte	0x25
 3069 0908 00       		.byte	0
 3070 0909 0F       		.uleb128 0xf
 3071 090a 58060000 		.4byte	.LASF231
 3072 090e 01       		.byte	0x1
 3073 090f BC       		.byte	0xbc
 3074 0910 25000000 		.4byte	0x25
 3075 0914 03       		.byte	0x3
 3076 0915 4B090000 		.4byte	0x94b
 3077 0919 10       		.uleb128 0x10
 3078 091a 6100     		.ascii	"a\000"
 3079 091c 01       		.byte	0x1
 3080 091d BC       		.byte	0xbc
 3081 091e 2B070000 		.4byte	0x72b
 3082 0922 10       		.uleb128 0x10
 3083 0923 6200     		.ascii	"b\000"
 3084 0925 01       		.byte	0x1
 3085 0926 BC       		.byte	0xbc
 3086 0927 2B070000 		.4byte	0x72b
 3087 092b 17       		.uleb128 0x17
 3088 092c F40A0000 		.4byte	.LASF232
 3089 0930 01       		.byte	0x1
 3090 0931 BC       		.byte	0xbc
 3091 0932 25000000 		.4byte	0x25
 3092 0936 18       		.uleb128 0x18
 3093 0937 6900     		.ascii	"i\000"
 3094 0939 01       		.byte	0x1
ARM GAS  C:\Users\ddemidov\AppData\Local\Temp\ccBlgygZ.s 			page 88


 3095 093a BE       		.byte	0xbe
 3096 093b 25000000 		.4byte	0x25
 3097 093f 19       		.uleb128 0x19
 3098 0940 4D0B0000 		.4byte	.LASF233
 3099 0944 01       		.byte	0x1
 3100 0945 BF       		.byte	0xbf
 3101 0946 25000000 		.4byte	0x25
 3102 094a 00       		.byte	0
 3103 094b 1D       		.uleb128 0x1d
 3104 094c B5030000 		.4byte	.LASF268
 3105 0950 01       		.byte	0x1
 3106 0951 B3       		.byte	0xb3
 3107 0952 00000000 		.4byte	.LFB10
 3108 0956 10000000 		.4byte	.LFE10-.LFB10
 3109 095a 01       		.uleb128 0x1
 3110 095b 9C       		.byte	0x9c
 3111 095c 8C090000 		.4byte	0x98c
 3112 0960 1E       		.uleb128 0x1e
 3113 0961 6D656D00 		.ascii	"mem\000"
 3114 0965 01       		.byte	0x1
 3115 0966 B3       		.byte	0xb3
 3116 0967 A7000000 		.4byte	0xa7
 3117 096b 00000000 		.4byte	.LLST0
 3118 096f 1E       		.uleb128 0x1e
 3119 0970 6C656E00 		.ascii	"len\000"
 3120 0974 01       		.byte	0x1
 3121 0975 B3       		.byte	0xb3
 3122 0976 50000000 		.4byte	0x50
 3123 097a 21000000 		.4byte	.LLST1
 3124 097e 1F       		.uleb128 0x1f
 3125 097f 7A00     		.ascii	"z\000"
 3126 0981 01       		.byte	0x1
 3127 0982 B5       		.byte	0xb5
 3128 0983 8C090000 		.4byte	0x98c
 3129 0987 73000000 		.4byte	.LLST2
 3130 098b 00       		.byte	0
 3131 098c 06       		.uleb128 0x6
 3132 098d 04       		.byte	0x4
 3133 098e 92090000 		.4byte	0x992
 3134 0992 20       		.uleb128 0x20
 3135 0993 2C000000 		.4byte	0x2c
 3136 0997 21       		.uleb128 0x21
 3137 0998 F70B0000 		.4byte	.LASF237
 3138 099c 02       		.byte	0x2
 3139 099d CB01     		.2byte	0x1cb
 3140 099f 25000000 		.4byte	0x25
 3141 09a3 00000000 		.4byte	.LFB19
 3142 09a7 26000000 		.4byte	.LFE19-.LFB19
 3143 09ab 01       		.uleb128 0x1
 3144 09ac 9C       		.byte	0x9c
 3145 09ad 060A0000 		.4byte	0xa06
 3146 09b1 22       		.uleb128 0x22
 3147 09b2 30000000 		.4byte	.LASF83
 3148 09b6 02       		.byte	0x2
 3149 09b7 CB01     		.2byte	0x1cb
 3150 09b9 DF070000 		.4byte	0x7df
 3151 09bd 9E000000 		.4byte	.LLST3
ARM GAS  C:\Users\ddemidov\AppData\Local\Temp\ccBlgygZ.s 			page 89


 3152 09c1 23       		.uleb128 0x23
 3153 09c2 6900     		.ascii	"i\000"
 3154 09c4 02       		.byte	0x2
 3155 09c5 CD01     		.2byte	0x1cd
 3156 09c7 50000000 		.4byte	0x50
 3157 09cb CA000000 		.4byte	.LLST4
 3158 09cf 24       		.uleb128 0x24
 3159 09d0 4D0B0000 		.4byte	.LASF233
 3160 09d4 02       		.byte	0x2
 3161 09d5 CE01     		.2byte	0x1ce
 3162 09d7 25000000 		.4byte	0x25
 3163 09db FF000000 		.4byte	.LLST5
 3164 09df 24       		.uleb128 0x24
 3165 09e0 A60D0000 		.4byte	.LASF234
 3166 09e4 02       		.byte	0x2
 3167 09e5 CF01     		.2byte	0x1cf
 3168 09e7 25070000 		.4byte	0x725
 3169 09eb 9E000000 		.4byte	.LLST3
 3170 09ef 25       		.uleb128 0x25
 3171 09f0 0A000000 		.4byte	.LVL6
 3172 09f4 4B090000 		.4byte	0x94b
 3173 09f8 26       		.uleb128 0x26
 3174 09f9 01       		.uleb128 0x1
 3175 09fa 51       		.byte	0x51
 3176 09fb 02       		.uleb128 0x2
 3177 09fc 08       		.byte	0x8
 3178 09fd 78       		.byte	0x78
 3179 09fe 26       		.uleb128 0x26
 3180 09ff 01       		.uleb128 0x1
 3181 0a00 50       		.byte	0x50
 3182 0a01 02       		.uleb128 0x2
 3183 0a02 74       		.byte	0x74
 3184 0a03 00       		.sleb128 0
 3185 0a04 00       		.byte	0
 3186 0a05 00       		.byte	0
 3187 0a06 27       		.uleb128 0x27
 3188 0a07 C5060000 		.4byte	0x6c5
 3189 0a0b 00000000 		.4byte	.LFB30
 3190 0a0f 36000000 		.4byte	.LFE30-.LFB30
 3191 0a13 01       		.uleb128 0x1
 3192 0a14 9C       		.byte	0x9c
 3193 0a15 5A0A0000 		.4byte	0xa5a
 3194 0a19 28       		.uleb128 0x28
 3195 0a1a D2060000 		.4byte	0x6d2
 3196 0a1e 01       		.uleb128 0x1
 3197 0a1f 50       		.byte	0x50
 3198 0a20 28       		.uleb128 0x28
 3199 0a21 E8060000 		.4byte	0x6e8
 3200 0a25 01       		.uleb128 0x1
 3201 0a26 51       		.byte	0x51
 3202 0a27 29       		.uleb128 0x29
 3203 0a28 F2060000 		.4byte	0x6f2
 3204 0a2c 1E010000 		.4byte	.LLST7
 3205 0a30 2A       		.uleb128 0x2a
 3206 0a31 FE060000 		.4byte	0x6fe
 3207 0a35 3F010000 		.4byte	.LLST8
 3208 0a39 2B       		.uleb128 0x2b
ARM GAS  C:\Users\ddemidov\AppData\Local\Temp\ccBlgygZ.s 			page 90


 3209 0a3a DC060000 		.4byte	0x6dc
 3210 0a3e 37       		.byte	0x37
 3211 0a3f 2C       		.uleb128 0x2c
 3212 0a40 04000000 		.4byte	.LBB13
 3213 0a44 30000000 		.4byte	.LBE13-.LBB13
 3214 0a48 2D       		.uleb128 0x2d
 3215 0a49 0B070000 		.4byte	0x70b
 3216 0a4d 01       		.uleb128 0x1
 3217 0a4e 52       		.byte	0x52
 3218 0a4f 2A       		.uleb128 0x2a
 3219 0a50 17070000 		.4byte	0x717
 3220 0a54 7E010000 		.4byte	.LLST9
 3221 0a58 00       		.byte	0
 3222 0a59 00       		.byte	0
 3223 0a5a 0F       		.uleb128 0xf
 3224 0a5b 62090000 		.4byte	.LASF235
 3225 0a5f 01       		.byte	0x1
 3226 0a60 52       		.byte	0x52
 3227 0a61 50000000 		.4byte	0x50
 3228 0a65 03       		.byte	0x3
 3229 0a66 760A0000 		.4byte	0xa76
 3230 0a6a 17       		.uleb128 0x17
 3231 0a6b 7A040000 		.4byte	.LASF236
 3232 0a6f 01       		.byte	0x1
 3233 0a70 52       		.byte	0x52
 3234 0a71 50000000 		.4byte	0x50
 3235 0a75 00       		.byte	0
 3236 0a76 27       		.uleb128 0x27
 3237 0a77 36070000 		.4byte	0x736
 3238 0a7b 00000000 		.4byte	.LFB31
 3239 0a7f E0000000 		.4byte	.LFE31-.LFB31
 3240 0a83 01       		.uleb128 0x1
 3241 0a84 9C       		.byte	0x9c
 3242 0a85 270C0000 		.4byte	0xc27
 3243 0a89 29       		.uleb128 0x29
 3244 0a8a 51070000 		.4byte	0x751
 3245 0a8e 91010000 		.4byte	.LLST10
 3246 0a92 29       		.uleb128 0x29
 3247 0a93 67070000 		.4byte	0x767
 3248 0a97 DB010000 		.4byte	.LLST11
 3249 0a9b 29       		.uleb128 0x29
 3250 0a9c 72070000 		.4byte	0x772
 3251 0aa0 77020000 		.4byte	.LLST12
 3252 0aa4 29       		.uleb128 0x29
 3253 0aa5 7D070000 		.4byte	0x77d
 3254 0aa9 97020000 		.4byte	.LLST13
 3255 0aad 28       		.uleb128 0x28
 3256 0aae 88070000 		.4byte	0x788
 3257 0ab2 02       		.uleb128 0x2
 3258 0ab3 91       		.byte	0x91
 3259 0ab4 00       		.sleb128 0
 3260 0ab5 28       		.uleb128 0x28
 3261 0ab6 93070000 		.4byte	0x793
 3262 0aba 02       		.uleb128 0x2
 3263 0abb 91       		.byte	0x91
 3264 0abc 04       		.sleb128 4
 3265 0abd 28       		.uleb128 0x28
ARM GAS  C:\Users\ddemidov\AppData\Local\Temp\ccBlgygZ.s 			page 91


 3266 0abe 46070000 		.4byte	0x746
 3267 0ac2 06       		.uleb128 0x6
 3268 0ac3 FA       		.byte	0xfa
 3269 0ac4 46070000 		.4byte	0x746
 3270 0ac8 9F       		.byte	0x9f
 3271 0ac9 2D       		.uleb128 0x2d
 3272 0aca 9E070000 		.4byte	0x79e
 3273 0ace 03       		.uleb128 0x3
 3274 0acf 91       		.byte	0x91
 3275 0ad0 D77E     		.sleb128 -169
 3276 0ad2 2A       		.uleb128 0x2a
 3277 0ad3 A9070000 		.4byte	0x7a9
 3278 0ad7 33030000 		.4byte	.LLST14
 3279 0adb 2E       		.uleb128 0x2e
 3280 0adc B2070000 		.4byte	0x7b2
 3281 0ae0 02       		.byte	0x2
 3282 0ae1 2D       		.uleb128 0x2d
 3283 0ae2 BD070000 		.4byte	0x7bd
 3284 0ae6 03       		.uleb128 0x3
 3285 0ae7 91       		.byte	0x91
 3286 0ae8 D87E     		.sleb128 -168
 3287 0aea 2D       		.uleb128 0x2d
 3288 0aeb C8070000 		.4byte	0x7c8
 3289 0aef 03       		.uleb128 0x3
 3290 0af0 91       		.byte	0x91
 3291 0af1 FC7E     		.sleb128 -132
 3292 0af3 2D       		.uleb128 0x2d
 3293 0af4 D3070000 		.4byte	0x7d3
 3294 0af8 03       		.uleb128 0x3
 3295 0af9 91       		.byte	0x91
 3296 0afa DC7E     		.sleb128 -164
 3297 0afc 29       		.uleb128 0x29
 3298 0afd 5C070000 		.4byte	0x75c
 3299 0b01 74030000 		.4byte	.LLST15
 3300 0b05 2F       		.uleb128 0x2f
 3301 0b06 26000000 		.4byte	.LVL33
 3302 0b0a B8180000 		.4byte	0x18b8
 3303 0b0e 1A0B0000 		.4byte	0xb1a
 3304 0b12 26       		.uleb128 0x26
 3305 0b13 01       		.uleb128 0x1
 3306 0b14 50       		.byte	0x50
 3307 0b15 03       		.uleb128 0x3
 3308 0b16 91       		.byte	0x91
 3309 0b17 FC7E     		.sleb128 -132
 3310 0b19 00       		.byte	0
 3311 0b1a 2F       		.uleb128 0x2f
 3312 0b1b 3C000000 		.4byte	.LVL35
 3313 0b1f D3180000 		.4byte	0x18d3
 3314 0b23 3B0B0000 		.4byte	0xb3b
 3315 0b27 26       		.uleb128 0x26
 3316 0b28 01       		.uleb128 0x1
 3317 0b29 52       		.byte	0x52
 3318 0b2a 01       		.uleb128 0x1
 3319 0b2b 31       		.byte	0x31
 3320 0b2c 26       		.uleb128 0x26
 3321 0b2d 01       		.uleb128 0x1
 3322 0b2e 51       		.byte	0x51
ARM GAS  C:\Users\ddemidov\AppData\Local\Temp\ccBlgygZ.s 			page 92


 3323 0b2f 03       		.uleb128 0x3
 3324 0b30 91       		.byte	0x91
 3325 0b31 D77E     		.sleb128 -169
 3326 0b33 26       		.uleb128 0x26
 3327 0b34 01       		.uleb128 0x1
 3328 0b35 50       		.byte	0x50
 3329 0b36 03       		.uleb128 0x3
 3330 0b37 91       		.byte	0x91
 3331 0b38 FC7E     		.sleb128 -132
 3332 0b3a 00       		.byte	0
 3333 0b3b 2F       		.uleb128 0x2f
 3334 0b3c 4A000000 		.4byte	.LVL36
 3335 0b40 D3180000 		.4byte	0x18d3
 3336 0b44 5C0B0000 		.4byte	0xb5c
 3337 0b48 26       		.uleb128 0x26
 3338 0b49 01       		.uleb128 0x1
 3339 0b4a 52       		.byte	0x52
 3340 0b4b 01       		.uleb128 0x1
 3341 0b4c 34       		.byte	0x34
 3342 0b4d 26       		.uleb128 0x26
 3343 0b4e 01       		.uleb128 0x1
 3344 0b4f 51       		.byte	0x51
 3345 0b50 03       		.uleb128 0x3
 3346 0b51 91       		.byte	0x91
 3347 0b52 D87E     		.sleb128 -168
 3348 0b54 26       		.uleb128 0x26
 3349 0b55 01       		.uleb128 0x1
 3350 0b56 50       		.byte	0x50
 3351 0b57 03       		.uleb128 0x3
 3352 0b58 91       		.byte	0x91
 3353 0b59 FC7E     		.sleb128 -132
 3354 0b5b 00       		.byte	0
 3355 0b5c 2F       		.uleb128 0x2f
 3356 0b5d 62000000 		.4byte	.LVL41
 3357 0b61 D3180000 		.4byte	0x18d3
 3358 0b65 810B0000 		.4byte	0xb81
 3359 0b69 26       		.uleb128 0x26
 3360 0b6a 01       		.uleb128 0x1
 3361 0b6b 52       		.byte	0x52
 3362 0b6c 04       		.uleb128 0x4
 3363 0b6d 91       		.byte	0x91
 3364 0b6e C87E     		.sleb128 -184
 3365 0b70 06       		.byte	0x6
 3366 0b71 26       		.uleb128 0x26
 3367 0b72 01       		.uleb128 0x1
 3368 0b73 51       		.byte	0x51
 3369 0b74 04       		.uleb128 0x4
 3370 0b75 91       		.byte	0x91
 3371 0b76 C47E     		.sleb128 -188
 3372 0b78 06       		.byte	0x6
 3373 0b79 26       		.uleb128 0x26
 3374 0b7a 01       		.uleb128 0x1
 3375 0b7b 50       		.byte	0x50
 3376 0b7c 03       		.uleb128 0x3
 3377 0b7d 91       		.byte	0x91
 3378 0b7e FC7E     		.sleb128 -132
 3379 0b80 00       		.byte	0
ARM GAS  C:\Users\ddemidov\AppData\Local\Temp\ccBlgygZ.s 			page 93


 3380 0b81 2F       		.uleb128 0x2f
 3381 0b82 70000000 		.4byte	.LVL43
 3382 0b86 D3180000 		.4byte	0x18d3
 3383 0b8a 9B0B0000 		.4byte	0xb9b
 3384 0b8e 26       		.uleb128 0x26
 3385 0b8f 01       		.uleb128 0x1
 3386 0b90 52       		.byte	0x52
 3387 0b91 01       		.uleb128 0x1
 3388 0b92 31       		.byte	0x31
 3389 0b93 26       		.uleb128 0x26
 3390 0b94 01       		.uleb128 0x1
 3391 0b95 50       		.byte	0x50
 3392 0b96 03       		.uleb128 0x3
 3393 0b97 91       		.byte	0x91
 3394 0b98 FC7E     		.sleb128 -132
 3395 0b9a 00       		.byte	0
 3396 0b9b 2F       		.uleb128 0x2f
 3397 0b9c 84000000 		.4byte	.LVL44
 3398 0ba0 F2180000 		.4byte	0x18f2
 3399 0ba4 B70B0000 		.4byte	0xbb7
 3400 0ba8 26       		.uleb128 0x26
 3401 0ba9 01       		.uleb128 0x1
 3402 0baa 51       		.byte	0x51
 3403 0bab 03       		.uleb128 0x3
 3404 0bac 91       		.byte	0x91
 3405 0bad DC7E     		.sleb128 -164
 3406 0baf 26       		.uleb128 0x26
 3407 0bb0 01       		.uleb128 0x1
 3408 0bb1 50       		.byte	0x50
 3409 0bb2 03       		.uleb128 0x3
 3410 0bb3 91       		.byte	0x91
 3411 0bb4 FC7E     		.sleb128 -132
 3412 0bb6 00       		.byte	0
 3413 0bb7 2F       		.uleb128 0x2f
 3414 0bb8 9A000000 		.4byte	.LVL45
 3415 0bbc D3180000 		.4byte	0x18d3
 3416 0bc0 DA0B0000 		.4byte	0xbda
 3417 0bc4 26       		.uleb128 0x26
 3418 0bc5 01       		.uleb128 0x1
 3419 0bc6 52       		.byte	0x52
 3420 0bc7 03       		.uleb128 0x3
 3421 0bc8 91       		.byte	0x91
 3422 0bc9 04       		.sleb128 4
 3423 0bca 06       		.byte	0x6
 3424 0bcb 26       		.uleb128 0x26
 3425 0bcc 01       		.uleb128 0x1
 3426 0bcd 51       		.byte	0x51
 3427 0bce 03       		.uleb128 0x3
 3428 0bcf 91       		.byte	0x91
 3429 0bd0 00       		.sleb128 0
 3430 0bd1 06       		.byte	0x6
 3431 0bd2 26       		.uleb128 0x26
 3432 0bd3 01       		.uleb128 0x1
 3433 0bd4 50       		.byte	0x50
 3434 0bd5 03       		.uleb128 0x3
 3435 0bd6 91       		.byte	0x91
 3436 0bd7 FC7E     		.sleb128 -132
ARM GAS  C:\Users\ddemidov\AppData\Local\Temp\ccBlgygZ.s 			page 94


 3437 0bd9 00       		.byte	0
 3438 0bda 2F       		.uleb128 0x2f
 3439 0bdb AE000000 		.4byte	.LVL47
 3440 0bdf 0C190000 		.4byte	0x190c
 3441 0be3 FB0B0000 		.4byte	0xbfb
 3442 0be7 26       		.uleb128 0x26
 3443 0be8 01       		.uleb128 0x1
 3444 0be9 52       		.byte	0x52
 3445 0bea 02       		.uleb128 0x2
 3446 0beb 08       		.byte	0x8
 3447 0bec 20       		.byte	0x20
 3448 0bed 26       		.uleb128 0x26
 3449 0bee 01       		.uleb128 0x1
 3450 0bef 51       		.byte	0x51
 3451 0bf0 03       		.uleb128 0x3
 3452 0bf1 91       		.byte	0x91
 3453 0bf2 DC7E     		.sleb128 -164
 3454 0bf4 26       		.uleb128 0x26
 3455 0bf5 01       		.uleb128 0x1
 3456 0bf6 50       		.byte	0x50
 3457 0bf7 02       		.uleb128 0x2
 3458 0bf8 74       		.byte	0x74
 3459 0bf9 00       		.sleb128 0
 3460 0bfa 00       		.byte	0
 3461 0bfb 2F       		.uleb128 0x2f
 3462 0bfc BA000000 		.4byte	.LVL50
 3463 0c00 0C190000 		.4byte	0x190c
 3464 0c04 0F0C0000 		.4byte	0xc0f
 3465 0c08 26       		.uleb128 0x26
 3466 0c09 01       		.uleb128 0x1
 3467 0c0a 52       		.byte	0x52
 3468 0c0b 02       		.uleb128 0x2
 3469 0c0c 76       		.byte	0x76
 3470 0c0d 00       		.sleb128 0
 3471 0c0e 00       		.byte	0
 3472 0c0f 25       		.uleb128 0x25
 3473 0c10 D6000000 		.4byte	.LVL55
 3474 0c14 4B090000 		.4byte	0x94b
 3475 0c18 26       		.uleb128 0x26
 3476 0c19 01       		.uleb128 0x1
 3477 0c1a 51       		.byte	0x51
 3478 0c1b 02       		.uleb128 0x2
 3479 0c1c 08       		.byte	0x8
 3480 0c1d 20       		.byte	0x20
 3481 0c1e 26       		.uleb128 0x26
 3482 0c1f 01       		.uleb128 0x1
 3483 0c20 50       		.byte	0x50
 3484 0c21 03       		.uleb128 0x3
 3485 0c22 91       		.byte	0x91
 3486 0c23 DC7E     		.sleb128 -164
 3487 0c25 00       		.byte	0
 3488 0c26 00       		.byte	0
 3489 0c27 27       		.uleb128 0x27
 3490 0c28 AF080000 		.4byte	0x8af
 3491 0c2c 00000000 		.4byte	.LFB34
 3492 0c30 4E000000 		.4byte	.LFE34-.LFB34
 3493 0c34 01       		.uleb128 0x1
ARM GAS  C:\Users\ddemidov\AppData\Local\Temp\ccBlgygZ.s 			page 95


 3494 0c35 9C       		.byte	0x9c
 3495 0c36 E70C0000 		.4byte	0xce7
 3496 0c3a 29       		.uleb128 0x29
 3497 0c3b C0080000 		.4byte	0x8c0
 3498 0c3f AB030000 		.4byte	.LLST16
 3499 0c43 29       		.uleb128 0x29
 3500 0c44 CC080000 		.4byte	0x8cc
 3501 0c48 F2030000 		.4byte	.LLST17
 3502 0c4c 29       		.uleb128 0x29
 3503 0c4d D8080000 		.4byte	0x8d8
 3504 0c51 1E040000 		.4byte	.LLST18
 3505 0c55 2A       		.uleb128 0x2a
 3506 0c56 FC080000 		.4byte	0x8fc
 3507 0c5a 4A040000 		.4byte	.LLST19
 3508 0c5e 2B       		.uleb128 0x2b
 3509 0c5f F0080000 		.4byte	0x8f0
 3510 0c63 00       		.byte	0
 3511 0c64 2B       		.uleb128 0x2b
 3512 0c65 E4080000 		.4byte	0x8e4
 3513 0c69 00       		.byte	0
 3514 0c6a 2F       		.uleb128 0x2f
 3515 0c6b 12000000 		.4byte	.LVL61
 3516 0c6f 29190000 		.4byte	0x1929
 3517 0c73 890C0000 		.4byte	0xc89
 3518 0c77 26       		.uleb128 0x26
 3519 0c78 01       		.uleb128 0x1
 3520 0c79 52       		.byte	0x52
 3521 0c7a 02       		.uleb128 0x2
 3522 0c7b 08       		.byte	0x8
 3523 0c7c 78       		.byte	0x78
 3524 0c7d 26       		.uleb128 0x26
 3525 0c7e 01       		.uleb128 0x1
 3526 0c7f 51       		.byte	0x51
 3527 0c80 01       		.uleb128 0x1
 3528 0c81 30       		.byte	0x30
 3529 0c82 26       		.uleb128 0x26
 3530 0c83 01       		.uleb128 0x1
 3531 0c84 50       		.byte	0x50
 3532 0c85 02       		.uleb128 0x2
 3533 0c86 74       		.byte	0x74
 3534 0c87 00       		.sleb128 0
 3535 0c88 00       		.byte	0
 3536 0c89 2F       		.uleb128 0x2f
 3537 0c8a 26000000 		.4byte	.LVL62
 3538 0c8e 760A0000 		.4byte	0xa76
 3539 0c92 C20C0000 		.4byte	0xcc2
 3540 0c96 26       		.uleb128 0x26
 3541 0c97 01       		.uleb128 0x1
 3542 0c98 53       		.byte	0x53
 3543 0c99 02       		.uleb128 0x2
 3544 0c9a 76       		.byte	0x76
 3545 0c9b 00       		.sleb128 0
 3546 0c9c 26       		.uleb128 0x26
 3547 0c9d 01       		.uleb128 0x1
 3548 0c9e 52       		.byte	0x52
 3549 0c9f 02       		.uleb128 0x2
 3550 0ca0 77       		.byte	0x77
ARM GAS  C:\Users\ddemidov\AppData\Local\Temp\ccBlgygZ.s 			page 96


 3551 0ca1 00       		.sleb128 0
 3552 0ca2 26       		.uleb128 0x26
 3553 0ca3 01       		.uleb128 0x1
 3554 0ca4 51       		.byte	0x51
 3555 0ca5 01       		.uleb128 0x1
 3556 0ca6 34       		.byte	0x34
 3557 0ca7 26       		.uleb128 0x26
 3558 0ca8 01       		.uleb128 0x1
 3559 0ca9 50       		.byte	0x50
 3560 0caa 02       		.uleb128 0x2
 3561 0cab 75       		.byte	0x75
 3562 0cac 00       		.sleb128 0
 3563 0cad 26       		.uleb128 0x26
 3564 0cae 02       		.uleb128 0x2
 3565 0caf 7D       		.byte	0x7d
 3566 0cb0 04       		.sleb128 4
 3567 0cb1 01       		.uleb128 0x1
 3568 0cb2 30       		.byte	0x30
 3569 0cb3 26       		.uleb128 0x26
 3570 0cb4 02       		.uleb128 0x2
 3571 0cb5 7D       		.byte	0x7d
 3572 0cb6 00       		.sleb128 0
 3573 0cb7 01       		.uleb128 0x1
 3574 0cb8 30       		.byte	0x30
 3575 0cb9 30       		.uleb128 0x30
 3576 0cba 46070000 		.4byte	0x746
 3577 0cbe 02       		.uleb128 0x2
 3578 0cbf 74       		.byte	0x74
 3579 0cc0 00       		.sleb128 0
 3580 0cc1 00       		.byte	0
 3581 0cc2 25       		.uleb128 0x25
 3582 0cc3 3E000000 		.4byte	.LVL63
 3583 0cc7 760A0000 		.4byte	0xa76
 3584 0ccb 26       		.uleb128 0x26
 3585 0ccc 01       		.uleb128 0x1
 3586 0ccd 53       		.byte	0x53
 3587 0cce 02       		.uleb128 0x2
 3588 0ccf 08       		.byte	0x8
 3589 0cd0 37       		.byte	0x37
 3590 0cd1 26       		.uleb128 0x26
 3591 0cd2 01       		.uleb128 0x1
 3592 0cd3 52       		.byte	0x52
 3593 0cd4 02       		.uleb128 0x2
 3594 0cd5 75       		.byte	0x75
 3595 0cd6 00       		.sleb128 0
 3596 0cd7 26       		.uleb128 0x26
 3597 0cd8 01       		.uleb128 0x1
 3598 0cd9 50       		.byte	0x50
 3599 0cda 02       		.uleb128 0x2
 3600 0cdb 74       		.byte	0x74
 3601 0cdc 3F       		.sleb128 63
 3602 0cdd 30       		.uleb128 0x30
 3603 0cde 46070000 		.4byte	0x746
 3604 0ce2 02       		.uleb128 0x2
 3605 0ce3 74       		.byte	0x74
 3606 0ce4 00       		.sleb128 0
 3607 0ce5 00       		.byte	0
ARM GAS  C:\Users\ddemidov\AppData\Local\Temp\ccBlgygZ.s 			page 97


 3608 0ce6 00       		.byte	0
 3609 0ce7 21       		.uleb128 0x21
 3610 0ce8 07000000 		.4byte	.LASF238
 3611 0cec 02       		.byte	0x2
 3612 0ced 1601     		.2byte	0x116
 3613 0cef 25000000 		.4byte	0x25
 3614 0cf3 00000000 		.4byte	.LFB13
 3615 0cf7 58000000 		.4byte	.LFE13-.LFB13
 3616 0cfb 01       		.uleb128 0x1
 3617 0cfc 9C       		.byte	0x9c
 3618 0cfd F40D0000 		.4byte	0xdf4
 3619 0d01 22       		.uleb128 0x22
 3620 0d02 30000000 		.4byte	.LASF83
 3621 0d06 02       		.byte	0x2
 3622 0d07 1601     		.2byte	0x116
 3623 0d09 DF070000 		.4byte	0x7df
 3624 0d0d 69040000 		.4byte	.LLST20
 3625 0d11 22       		.uleb128 0x22
 3626 0d12 14020000 		.4byte	.LASF239
 3627 0d16 02       		.byte	0x2
 3628 0d17 1601     		.2byte	0x116
 3629 0d19 2B070000 		.4byte	0x72b
 3630 0d1d B0040000 		.4byte	.LLST21
 3631 0d21 22       		.uleb128 0x22
 3632 0d22 D6000000 		.4byte	.LASF240
 3633 0d26 02       		.byte	0x2
 3634 0d27 1601     		.2byte	0x116
 3635 0d29 50000000 		.4byte	0x50
 3636 0d2d DD040000 		.4byte	.LLST22
 3637 0d31 31       		.uleb128 0x31
 3638 0d32 AD080000 		.4byte	.LASF84
 3639 0d36 02       		.byte	0x2
 3640 0d37 1801     		.2byte	0x118
 3641 0d39 87060000 		.4byte	0x687
 3642 0d3d 03       		.uleb128 0x3
 3643 0d3e 91       		.byte	0x91
 3644 0d3f B87F     		.sleb128 -72
 3645 0d41 2F       		.uleb128 0x2f
 3646 0d42 1A000000 		.4byte	.LVL73
 3647 0d46 760A0000 		.4byte	0xa76
 3648 0d4a 7F0D0000 		.4byte	0xd7f
 3649 0d4e 26       		.uleb128 0x26
 3650 0d4f 01       		.uleb128 0x1
 3651 0d50 53       		.byte	0x53
 3652 0d51 02       		.uleb128 0x2
 3653 0d52 08       		.byte	0x8
 3654 0d53 37       		.byte	0x37
 3655 0d54 26       		.uleb128 0x26
 3656 0d55 01       		.uleb128 0x1
 3657 0d56 52       		.byte	0x52
 3658 0d57 02       		.uleb128 0x2
 3659 0d58 76       		.byte	0x76
 3660 0d59 00       		.sleb128 0
 3661 0d5a 26       		.uleb128 0x26
 3662 0d5b 01       		.uleb128 0x1
 3663 0d5c 51       		.byte	0x51
 3664 0d5d 01       		.uleb128 0x1
ARM GAS  C:\Users\ddemidov\AppData\Local\Temp\ccBlgygZ.s 			page 98


 3665 0d5e 31       		.byte	0x31
 3666 0d5f 26       		.uleb128 0x26
 3667 0d60 01       		.uleb128 0x1
 3668 0d61 50       		.byte	0x50
 3669 0d62 03       		.uleb128 0x3
 3670 0d63 91       		.byte	0x91
 3671 0d64 B87F     		.sleb128 -72
 3672 0d66 26       		.uleb128 0x26
 3673 0d67 02       		.uleb128 0x2
 3674 0d68 7D       		.byte	0x7d
 3675 0d69 04       		.sleb128 4
 3676 0d6a 03       		.uleb128 0x3
 3677 0d6b F3       		.byte	0xf3
 3678 0d6c 01       		.uleb128 0x1
 3679 0d6d 52       		.byte	0x52
 3680 0d6e 26       		.uleb128 0x26
 3681 0d6f 02       		.uleb128 0x2
 3682 0d70 7D       		.byte	0x7d
 3683 0d71 00       		.sleb128 0
 3684 0d72 03       		.uleb128 0x3
 3685 0d73 F3       		.byte	0xf3
 3686 0d74 01       		.uleb128 0x1
 3687 0d75 51       		.byte	0x51
 3688 0d76 30       		.uleb128 0x30
 3689 0d77 46070000 		.4byte	0x746
 3690 0d7b 02       		.uleb128 0x2
 3691 0d7c 74       		.byte	0x74
 3692 0d7d 00       		.sleb128 0
 3693 0d7e 00       		.byte	0
 3694 0d7f 2F       		.uleb128 0x2f
 3695 0d80 2C000000 		.4byte	.LVL74
 3696 0d84 0C190000 		.4byte	0x190c
 3697 0d88 A00D0000 		.4byte	0xda0
 3698 0d8c 26       		.uleb128 0x26
 3699 0d8d 01       		.uleb128 0x1
 3700 0d8e 52       		.byte	0x52
 3701 0d8f 02       		.uleb128 0x2
 3702 0d90 08       		.byte	0x8
 3703 0d91 37       		.byte	0x37
 3704 0d92 26       		.uleb128 0x26
 3705 0d93 01       		.uleb128 0x1
 3706 0d94 51       		.byte	0x51
 3707 0d95 03       		.uleb128 0x3
 3708 0d96 91       		.byte	0x91
 3709 0d97 B87F     		.sleb128 -72
 3710 0d99 26       		.uleb128 0x26
 3711 0d9a 01       		.uleb128 0x1
 3712 0d9b 50       		.byte	0x50
 3713 0d9c 02       		.uleb128 0x2
 3714 0d9d 76       		.byte	0x76
 3715 0d9e 00       		.sleb128 0
 3716 0d9f 00       		.byte	0
 3717 0da0 2F       		.uleb128 0x2f
 3718 0da1 34000000 		.4byte	.LVL75
 3719 0da5 4B090000 		.4byte	0x94b
 3720 0da9 BB0D0000 		.4byte	0xdbb
 3721 0dad 26       		.uleb128 0x26
ARM GAS  C:\Users\ddemidov\AppData\Local\Temp\ccBlgygZ.s 			page 99


 3722 0dae 01       		.uleb128 0x1
 3723 0daf 51       		.byte	0x51
 3724 0db0 02       		.uleb128 0x2
 3725 0db1 08       		.byte	0x8
 3726 0db2 37       		.byte	0x37
 3727 0db3 26       		.uleb128 0x26
 3728 0db4 01       		.uleb128 0x1
 3729 0db5 50       		.byte	0x50
 3730 0db6 03       		.uleb128 0x3
 3731 0db7 91       		.byte	0x91
 3732 0db8 B87F     		.sleb128 -72
 3733 0dba 00       		.byte	0
 3734 0dbb 25       		.uleb128 0x25
 3735 0dbc 46000000 		.4byte	.LVL76
 3736 0dc0 760A0000 		.4byte	0xa76
 3737 0dc4 26       		.uleb128 0x26
 3738 0dc5 01       		.uleb128 0x1
 3739 0dc6 53       		.byte	0x53
 3740 0dc7 02       		.uleb128 0x2
 3741 0dc8 08       		.byte	0x8
 3742 0dc9 37       		.byte	0x37
 3743 0dca 26       		.uleb128 0x26
 3744 0dcb 01       		.uleb128 0x1
 3745 0dcc 52       		.byte	0x52
 3746 0dcd 02       		.uleb128 0x2
 3747 0dce 76       		.byte	0x76
 3748 0dcf 00       		.sleb128 0
 3749 0dd0 26       		.uleb128 0x26
 3750 0dd1 01       		.uleb128 0x1
 3751 0dd2 51       		.byte	0x51
 3752 0dd3 02       		.uleb128 0x2
 3753 0dd4 75       		.byte	0x75
 3754 0dd5 00       		.sleb128 0
 3755 0dd6 26       		.uleb128 0x26
 3756 0dd7 01       		.uleb128 0x1
 3757 0dd8 50       		.byte	0x50
 3758 0dd9 02       		.uleb128 0x2
 3759 0dda 74       		.byte	0x74
 3760 0ddb 3F       		.sleb128 63
 3761 0ddc 26       		.uleb128 0x26
 3762 0ddd 02       		.uleb128 0x2
 3763 0dde 7D       		.byte	0x7d
 3764 0ddf 04       		.sleb128 4
 3765 0de0 02       		.uleb128 0x2
 3766 0de1 75       		.byte	0x75
 3767 0de2 00       		.sleb128 0
 3768 0de3 26       		.uleb128 0x26
 3769 0de4 02       		.uleb128 0x2
 3770 0de5 7D       		.byte	0x7d
 3771 0de6 00       		.sleb128 0
 3772 0de7 02       		.uleb128 0x2
 3773 0de8 75       		.byte	0x75
 3774 0de9 00       		.sleb128 0
 3775 0dea 30       		.uleb128 0x30
 3776 0deb 46070000 		.4byte	0x746
 3777 0def 02       		.uleb128 0x2
 3778 0df0 74       		.byte	0x74
ARM GAS  C:\Users\ddemidov\AppData\Local\Temp\ccBlgygZ.s 			page 100


 3779 0df1 00       		.sleb128 0
 3780 0df2 00       		.byte	0
 3781 0df3 00       		.byte	0
 3782 0df4 1A       		.uleb128 0x1a
 3783 0df5 2C0F0000 		.4byte	.LASF241
 3784 0df9 02       		.byte	0x2
 3785 0dfa 3A01     		.2byte	0x13a
 3786 0dfc 25000000 		.4byte	0x25
 3787 0e00 01       		.byte	0x1
 3788 0e01 7A0E0000 		.4byte	0xe7a
 3789 0e05 13       		.uleb128 0x13
 3790 0e06 30000000 		.4byte	.LASF83
 3791 0e0a 02       		.byte	0x2
 3792 0e0b 3A01     		.2byte	0x13a
 3793 0e0d DF070000 		.4byte	0x7df
 3794 0e11 12       		.uleb128 0x12
 3795 0e12 6F757400 		.ascii	"out\000"
 3796 0e16 02       		.byte	0x2
 3797 0e17 3A01     		.2byte	0x13a
 3798 0e19 25070000 		.4byte	0x725
 3799 0e1d 13       		.uleb128 0x13
 3800 0e1e F6040000 		.4byte	.LASF214
 3801 0e22 02       		.byte	0x2
 3802 0e23 3A01     		.2byte	0x13a
 3803 0e25 50000000 		.4byte	0x50
 3804 0e29 12       		.uleb128 0x12
 3805 0e2a 5600     		.ascii	"V\000"
 3806 0e2c 02       		.byte	0x2
 3807 0e2d 3A01     		.2byte	0x13a
 3808 0e2f 2B070000 		.4byte	0x72b
 3809 0e33 14       		.uleb128 0x14
 3810 0e34 28090000 		.4byte	.LASF225
 3811 0e38 02       		.byte	0x2
 3812 0e39 3C01     		.2byte	0x13c
 3813 0e3b 87060000 		.4byte	0x687
 3814 0e3f 1B       		.uleb128 0x1b
 3815 0e40 6900     		.ascii	"i\000"
 3816 0e42 02       		.byte	0x2
 3817 0e43 3D01     		.2byte	0x13d
 3818 0e45 25000000 		.4byte	0x25
 3819 0e49 1B       		.uleb128 0x1b
 3820 0e4a 6C656E00 		.ascii	"len\000"
 3821 0e4e 02       		.byte	0x2
 3822 0e4f 3E01     		.2byte	0x13e
 3823 0e51 25000000 		.4byte	0x25
 3824 0e55 14       		.uleb128 0x14
 3825 0e56 56020000 		.4byte	.LASF242
 3826 0e5a 02       		.byte	0x2
 3827 0e5b 3F01     		.2byte	0x13f
 3828 0e5d 50000000 		.4byte	0x50
 3829 0e61 1B       		.uleb128 0x1b
 3830 0e62 73686100 		.ascii	"sha\000"
 3831 0e66 02       		.byte	0x2
 3832 0e67 4001     		.2byte	0x140
 3833 0e69 92020000 		.4byte	0x292
 3834 0e6d 14       		.uleb128 0x14
 3835 0e6e 52090000 		.4byte	.LASF78
ARM GAS  C:\Users\ddemidov\AppData\Local\Temp\ccBlgygZ.s 			page 101


 3836 0e72 02       		.byte	0x2
 3837 0e73 4101     		.2byte	0x141
 3838 0e75 E5070000 		.4byte	0x7e5
 3839 0e79 00       		.byte	0
 3840 0e7a 21       		.uleb128 0x21
 3841 0e7b 5D030000 		.4byte	.LASF243
 3842 0e7f 02       		.byte	0x2
 3843 0e80 8D01     		.2byte	0x18d
 3844 0e82 25000000 		.4byte	0x25
 3845 0e86 00000000 		.4byte	.LFB17
 3846 0e8a 80010000 		.4byte	.LFE17-.LFB17
 3847 0e8e 01       		.uleb128 0x1
 3848 0e8f 9C       		.byte	0x9c
 3849 0e90 90120000 		.4byte	0x1290
 3850 0e94 22       		.uleb128 0x22
 3851 0e95 30000000 		.4byte	.LASF83
 3852 0e99 02       		.byte	0x2
 3853 0e9a 8D01     		.2byte	0x18d
 3854 0e9c DF070000 		.4byte	0x7df
 3855 0ea0 0B050000 		.4byte	.LLST23
 3856 0ea4 32       		.uleb128 0x32
 3857 0ea5 6F757400 		.ascii	"out\000"
 3858 0ea9 02       		.byte	0x2
 3859 0eaa 8D01     		.2byte	0x18d
 3860 0eac 25070000 		.4byte	0x725
 3861 0eb0 37050000 		.4byte	.LLST24
 3862 0eb4 22       		.uleb128 0x22
 3863 0eb5 F6040000 		.4byte	.LASF214
 3864 0eb9 02       		.byte	0x2
 3865 0eba 8D01     		.2byte	0x18d
 3866 0ebc 50000000 		.4byte	0x50
 3867 0ec0 63050000 		.4byte	.LLST25
 3868 0ec4 23       		.uleb128 0x23
 3869 0ec5 72657400 		.ascii	"ret\000"
 3870 0ec9 02       		.byte	0x2
 3871 0eca 8F01     		.2byte	0x18f
 3872 0ecc 25000000 		.4byte	0x25
 3873 0ed0 8F050000 		.4byte	.LLST26
 3874 0ed4 33       		.uleb128 0x33
 3875 0ed5 73686100 		.ascii	"sha\000"
 3876 0ed9 02       		.byte	0x2
 3877 0eda 9001     		.2byte	0x190
 3878 0edc 92020000 		.4byte	0x292
 3879 0ee0 03       		.uleb128 0x3
 3880 0ee1 91       		.byte	0x91
 3881 0ee2 FC7E     		.sleb128 -132
 3882 0ee4 31       		.uleb128 0x31
 3883 0ee5 52090000 		.4byte	.LASF78
 3884 0ee9 02       		.byte	0x2
 3885 0eea 9101     		.2byte	0x191
 3886 0eec E5070000 		.4byte	0x7e5
 3887 0ef0 03       		.uleb128 0x3
 3888 0ef1 91       		.byte	0x91
 3889 0ef2 C47E     		.sleb128 -188
 3890 0ef4 34       		.uleb128 0x34
 3891 0ef5 1A000000 		.4byte	.LBB36
 3892 0ef9 4C010000 		.4byte	.LBE36-.LBB36
ARM GAS  C:\Users\ddemidov\AppData\Local\Temp\ccBlgygZ.s 			page 102


 3893 0efd 79120000 		.4byte	0x1279
 3894 0f01 31       		.uleb128 0x31
 3895 0f02 4F0D0000 		.4byte	.LASF215
 3896 0f06 02       		.byte	0x2
 3897 0f07 9401     		.2byte	0x194
 3898 0f09 2C000000 		.4byte	0x2c
 3899 0f0d 03       		.uleb128 0x3
 3900 0f0e 91       		.byte	0x91
 3901 0f0f 9F7E     		.sleb128 -225
 3902 0f11 31       		.uleb128 0x31
 3903 0f12 67070000 		.4byte	.LASF87
 3904 0f16 02       		.byte	0x2
 3905 0f17 9501     		.2byte	0x195
 3906 0f19 50000000 		.4byte	0x50
 3907 0f1d 03       		.uleb128 0x3
 3908 0f1e 91       		.byte	0x91
 3909 0f1f A07E     		.sleb128 -224
 3910 0f21 35       		.uleb128 0x35
 3911 0f22 F40D0000 		.4byte	0xdf4
 3912 0f26 20000000 		.4byte	.LBB37
 3913 0f2a 00000000 		.4byte	.Ldebug_ranges0+0
 3914 0f2e 02       		.byte	0x2
 3915 0f2f 9701     		.2byte	0x197
 3916 0f31 96100000 		.4byte	0x1096
 3917 0f35 29       		.uleb128 0x29
 3918 0f36 290E0000 		.4byte	0xe29
 3919 0f3a C8050000 		.4byte	.LLST27
 3920 0f3e 29       		.uleb128 0x29
 3921 0f3f 1D0E0000 		.4byte	0xe1d
 3922 0f43 EA050000 		.4byte	.LLST28
 3923 0f47 29       		.uleb128 0x29
 3924 0f48 110E0000 		.4byte	0xe11
 3925 0f4c 1F060000 		.4byte	.LLST29
 3926 0f50 29       		.uleb128 0x29
 3927 0f51 050E0000 		.4byte	0xe05
 3928 0f55 32060000 		.4byte	.LLST30
 3929 0f59 36       		.uleb128 0x36
 3930 0f5a 00000000 		.4byte	.Ldebug_ranges0+0
 3931 0f5e 2D       		.uleb128 0x2d
 3932 0f5f 330E0000 		.4byte	0xe33
 3933 0f63 03       		.uleb128 0x3
 3934 0f64 91       		.byte	0x91
 3935 0f65 C47E     		.sleb128 -188
 3936 0f67 2A       		.uleb128 0x2a
 3937 0f68 3F0E0000 		.4byte	0xe3f
 3938 0f6c 50060000 		.4byte	.LLST31
 3939 0f70 2A       		.uleb128 0x2a
 3940 0f71 490E0000 		.4byte	0xe49
 3941 0f75 9E060000 		.4byte	.LLST32
 3942 0f79 2A       		.uleb128 0x2a
 3943 0f7a 550E0000 		.4byte	0xe55
 3944 0f7e D6060000 		.4byte	.LLST33
 3945 0f82 2D       		.uleb128 0x2d
 3946 0f83 610E0000 		.4byte	0xe61
 3947 0f87 03       		.uleb128 0x3
 3948 0f88 91       		.byte	0x91
 3949 0f89 FC7E     		.sleb128 -132
ARM GAS  C:\Users\ddemidov\AppData\Local\Temp\ccBlgygZ.s 			page 103


 3950 0f8b 2D       		.uleb128 0x2d
 3951 0f8c 6D0E0000 		.4byte	0xe6d
 3952 0f90 03       		.uleb128 0x3
 3953 0f91 91       		.byte	0x91
 3954 0f92 A47E     		.sleb128 -220
 3955 0f94 35       		.uleb128 0x35
 3956 0f95 7F080000 		.4byte	0x87f
 3957 0f99 A6000000 		.4byte	.LBB39
 3958 0f9d 20000000 		.4byte	.Ldebug_ranges0+0x20
 3959 0fa1 02       		.byte	0x2
 3960 0fa2 6801     		.2byte	0x168
 3961 0fa4 CA0F0000 		.4byte	0xfca
 3962 0fa8 29       		.uleb128 0x29
 3963 0fa9 98080000 		.4byte	0x898
 3964 0fad 40070000 		.4byte	.LLST34
 3965 0fb1 29       		.uleb128 0x29
 3966 0fb2 8C080000 		.4byte	0x88c
 3967 0fb6 55070000 		.4byte	.LLST35
 3968 0fba 36       		.uleb128 0x36
 3969 0fbb 20000000 		.4byte	.Ldebug_ranges0+0x20
 3970 0fbf 2A       		.uleb128 0x2a
 3971 0fc0 A4080000 		.4byte	0x8a4
 3972 0fc4 68070000 		.4byte	.LLST36
 3973 0fc8 00       		.byte	0
 3974 0fc9 00       		.byte	0
 3975 0fca 2F       		.uleb128 0x2f
 3976 0fcb 40000000 		.4byte	.LVL87
 3977 0fcf 0C190000 		.4byte	0x190c
 3978 0fd3 EA0F0000 		.4byte	0xfea
 3979 0fd7 26       		.uleb128 0x26
 3980 0fd8 01       		.uleb128 0x1
 3981 0fd9 52       		.byte	0x52
 3982 0fda 02       		.uleb128 0x2
 3983 0fdb 08       		.byte	0x8
 3984 0fdc 37       		.byte	0x37
 3985 0fdd 26       		.uleb128 0x26
 3986 0fde 01       		.uleb128 0x1
 3987 0fdf 51       		.byte	0x51
 3988 0fe0 02       		.uleb128 0x2
 3989 0fe1 74       		.byte	0x74
 3990 0fe2 08       		.sleb128 8
 3991 0fe3 26       		.uleb128 0x26
 3992 0fe4 01       		.uleb128 0x1
 3993 0fe5 50       		.byte	0x50
 3994 0fe6 02       		.uleb128 0x2
 3995 0fe7 76       		.byte	0x76
 3996 0fe8 00       		.sleb128 0
 3997 0fe9 00       		.byte	0
 3998 0fea 2F       		.uleb128 0x2f
 3999 0feb 52000000 		.4byte	.LVL90
 4000 0fef B8180000 		.4byte	0x18b8
 4001 0ff3 FF0F0000 		.4byte	0xfff
 4002 0ff7 26       		.uleb128 0x26
 4003 0ff8 01       		.uleb128 0x1
 4004 0ff9 50       		.byte	0x50
 4005 0ffa 03       		.uleb128 0x3
 4006 0ffb 91       		.byte	0x91
ARM GAS  C:\Users\ddemidov\AppData\Local\Temp\ccBlgygZ.s 			page 104


 4007 0ffc FC7E     		.sleb128 -132
 4008 0ffe 00       		.byte	0
 4009 0fff 2F       		.uleb128 0x2f
 4010 1000 64000000 		.4byte	.LVL91
 4011 1004 D3180000 		.4byte	0x18d3
 4012 1008 20100000 		.4byte	0x1020
 4013 100c 26       		.uleb128 0x26
 4014 100d 01       		.uleb128 0x1
 4015 100e 52       		.byte	0x52
 4016 100f 02       		.uleb128 0x2
 4017 1010 08       		.byte	0x8
 4018 1011 37       		.byte	0x37
 4019 1012 26       		.uleb128 0x26
 4020 1013 01       		.uleb128 0x1
 4021 1014 51       		.byte	0x51
 4022 1015 02       		.uleb128 0x2
 4023 1016 76       		.byte	0x76
 4024 1017 00       		.sleb128 0
 4025 1018 26       		.uleb128 0x26
 4026 1019 01       		.uleb128 0x1
 4027 101a 50       		.byte	0x50
 4028 101b 03       		.uleb128 0x3
 4029 101c 91       		.byte	0x91
 4030 101d FC7E     		.sleb128 -132
 4031 101f 00       		.byte	0
 4032 1020 2F       		.uleb128 0x2f
 4033 1021 70000000 		.4byte	.LVL92
 4034 1025 F2180000 		.4byte	0x18f2
 4035 1029 3C100000 		.4byte	0x103c
 4036 102d 26       		.uleb128 0x26
 4037 102e 01       		.uleb128 0x1
 4038 102f 51       		.byte	0x51
 4039 1030 03       		.uleb128 0x3
 4040 1031 91       		.byte	0x91
 4041 1032 A47E     		.sleb128 -220
 4042 1034 26       		.uleb128 0x26
 4043 1035 01       		.uleb128 0x1
 4044 1036 50       		.byte	0x50
 4045 1037 03       		.uleb128 0x3
 4046 1038 91       		.byte	0x91
 4047 1039 FC7E     		.sleb128 -132
 4048 103b 00       		.byte	0
 4049 103c 2F       		.uleb128 0x2f
 4050 103d A6000000 		.4byte	.LVL98
 4051 1041 0C190000 		.4byte	0x190c
 4052 1045 5D100000 		.4byte	0x105d
 4053 1049 26       		.uleb128 0x26
 4054 104a 01       		.uleb128 0x1
 4055 104b 52       		.byte	0x52
 4056 104c 02       		.uleb128 0x2
 4057 104d 08       		.byte	0x8
 4058 104e 20       		.byte	0x20
 4059 104f 26       		.uleb128 0x26
 4060 1050 01       		.uleb128 0x1
 4061 1051 51       		.byte	0x51
 4062 1052 03       		.uleb128 0x3
 4063 1053 91       		.byte	0x91
ARM GAS  C:\Users\ddemidov\AppData\Local\Temp\ccBlgygZ.s 			page 105


 4064 1054 A47E     		.sleb128 -220
 4065 1056 26       		.uleb128 0x26
 4066 1057 01       		.uleb128 0x1
 4067 1058 50       		.byte	0x50
 4068 1059 02       		.uleb128 0x2
 4069 105a 77       		.byte	0x77
 4070 105b 00       		.sleb128 0
 4071 105c 00       		.byte	0
 4072 105d 2F       		.uleb128 0x2f
 4073 105e D0000000 		.4byte	.LVL105
 4074 1062 0C190000 		.4byte	0x190c
 4075 1066 7E100000 		.4byte	0x107e
 4076 106a 26       		.uleb128 0x26
 4077 106b 01       		.uleb128 0x1
 4078 106c 52       		.byte	0x52
 4079 106d 02       		.uleb128 0x2
 4080 106e 75       		.byte	0x75
 4081 106f 00       		.sleb128 0
 4082 1070 26       		.uleb128 0x26
 4083 1071 01       		.uleb128 0x1
 4084 1072 51       		.byte	0x51
 4085 1073 03       		.uleb128 0x3
 4086 1074 91       		.byte	0x91
 4087 1075 A47E     		.sleb128 -220
 4088 1077 26       		.uleb128 0x26
 4089 1078 01       		.uleb128 0x1
 4090 1079 50       		.byte	0x50
 4091 107a 02       		.uleb128 0x2
 4092 107b 77       		.byte	0x77
 4093 107c 00       		.sleb128 0
 4094 107d 00       		.byte	0
 4095 107e 25       		.uleb128 0x25
 4096 107f E0000000 		.4byte	.LVL108
 4097 1083 4B090000 		.4byte	0x94b
 4098 1087 26       		.uleb128 0x26
 4099 1088 01       		.uleb128 0x1
 4100 1089 51       		.byte	0x51
 4101 108a 02       		.uleb128 0x2
 4102 108b 08       		.byte	0x8
 4103 108c 37       		.byte	0x37
 4104 108d 26       		.uleb128 0x26
 4105 108e 01       		.uleb128 0x1
 4106 108f 50       		.byte	0x50
 4107 1090 02       		.uleb128 0x2
 4108 1091 76       		.byte	0x76
 4109 1092 00       		.sleb128 0
 4110 1093 00       		.byte	0
 4111 1094 00       		.byte	0
 4112 1095 00       		.byte	0
 4113 1096 37       		.uleb128 0x37
 4114 1097 C5060000 		.4byte	0x6c5
 4115 109b 2A010000 		.4byte	.LBB47
 4116 109f 0A000000 		.4byte	.LBE47-.LBB47
 4117 10a3 02       		.byte	0x2
 4118 10a4 A101     		.2byte	0x1a1
 4119 10a6 FE100000 		.4byte	0x10fe
 4120 10aa 29       		.uleb128 0x29
ARM GAS  C:\Users\ddemidov\AppData\Local\Temp\ccBlgygZ.s 			page 106


 4121 10ab DC060000 		.4byte	0x6dc
 4122 10af 93070000 		.4byte	.LLST37
 4123 10b3 29       		.uleb128 0x29
 4124 10b4 F2060000 		.4byte	0x6f2
 4125 10b8 A8070000 		.4byte	.LLST38
 4126 10bc 29       		.uleb128 0x29
 4127 10bd E8060000 		.4byte	0x6e8
 4128 10c1 BD070000 		.4byte	.LLST39
 4129 10c5 29       		.uleb128 0x29
 4130 10c6 D2060000 		.4byte	0x6d2
 4131 10ca D0070000 		.4byte	.LLST40
 4132 10ce 2C       		.uleb128 0x2c
 4133 10cf 2A010000 		.4byte	.LBB48
 4134 10d3 0A000000 		.4byte	.LBE48-.LBB48
 4135 10d7 2A       		.uleb128 0x2a
 4136 10d8 FE060000 		.4byte	0x6fe
 4137 10dc E5070000 		.4byte	.LLST41
 4138 10e0 25       		.uleb128 0x25
 4139 10e1 34010000 		.4byte	.LVL122
 4140 10e5 060A0000 		.4byte	0xa06
 4141 10e9 26       		.uleb128 0x26
 4142 10ea 01       		.uleb128 0x1
 4143 10eb 52       		.byte	0x52
 4144 10ec 02       		.uleb128 0x2
 4145 10ed 08       		.byte	0x8
 4146 10ee 20       		.byte	0x20
 4147 10ef 26       		.uleb128 0x26
 4148 10f0 01       		.uleb128 0x1
 4149 10f1 51       		.byte	0x51
 4150 10f2 02       		.uleb128 0x2
 4151 10f3 76       		.byte	0x76
 4152 10f4 00       		.sleb128 0
 4153 10f5 26       		.uleb128 0x26
 4154 10f6 01       		.uleb128 0x1
 4155 10f7 50       		.byte	0x50
 4156 10f8 02       		.uleb128 0x2
 4157 10f9 75       		.byte	0x75
 4158 10fa 00       		.sleb128 0
 4159 10fb 00       		.byte	0
 4160 10fc 00       		.byte	0
 4161 10fd 00       		.byte	0
 4162 10fe 37       		.uleb128 0x37
 4163 10ff C5060000 		.4byte	0x6c5
 4164 1103 34010000 		.4byte	.LBB49
 4165 1107 0C000000 		.4byte	.LBE49-.LBB49
 4166 110b 02       		.byte	0x2
 4167 110c A201     		.2byte	0x1a2
 4168 110e 66110000 		.4byte	0x1166
 4169 1112 29       		.uleb128 0x29
 4170 1113 DC060000 		.4byte	0x6dc
 4171 1117 F9070000 		.4byte	.LLST42
 4172 111b 29       		.uleb128 0x29
 4173 111c F2060000 		.4byte	0x6f2
 4174 1120 F9070000 		.4byte	.LLST42
 4175 1124 29       		.uleb128 0x29
 4176 1125 E8060000 		.4byte	0x6e8
 4177 1129 0E080000 		.4byte	.LLST44
ARM GAS  C:\Users\ddemidov\AppData\Local\Temp\ccBlgygZ.s 			page 107


 4178 112d 29       		.uleb128 0x29
 4179 112e D2060000 		.4byte	0x6d2
 4180 1132 3B080000 		.4byte	.LLST45
 4181 1136 2C       		.uleb128 0x2c
 4182 1137 34010000 		.4byte	.LBB50
 4183 113b 0C000000 		.4byte	.LBE50-.LBB50
 4184 113f 2A       		.uleb128 0x2a
 4185 1140 FE060000 		.4byte	0x6fe
 4186 1144 50080000 		.4byte	.LLST46
 4187 1148 25       		.uleb128 0x25
 4188 1149 40010000 		.4byte	.LVL124
 4189 114d 060A0000 		.4byte	0xa06
 4190 1151 26       		.uleb128 0x26
 4191 1152 01       		.uleb128 0x1
 4192 1153 52       		.byte	0x52
 4193 1154 02       		.uleb128 0x2
 4194 1155 08       		.byte	0x8
 4195 1156 37       		.byte	0x37
 4196 1157 26       		.uleb128 0x26
 4197 1158 01       		.uleb128 0x1
 4198 1159 51       		.byte	0x51
 4199 115a 02       		.uleb128 0x2
 4200 115b 74       		.byte	0x74
 4201 115c 3F       		.sleb128 63
 4202 115d 26       		.uleb128 0x26
 4203 115e 01       		.uleb128 0x1
 4204 115f 50       		.byte	0x50
 4205 1160 02       		.uleb128 0x2
 4206 1161 75       		.byte	0x75
 4207 1162 00       		.sleb128 0
 4208 1163 00       		.byte	0
 4209 1164 00       		.byte	0
 4210 1165 00       		.byte	0
 4211 1166 35       		.uleb128 0x35
 4212 1167 5A0A0000 		.4byte	0xa5a
 4213 116b 42010000 		.4byte	.LBB51
 4214 116f 38000000 		.4byte	.Ldebug_ranges0+0x38
 4215 1173 02       		.byte	0x2
 4216 1174 A401     		.2byte	0x1a4
 4217 1176 A6110000 		.4byte	0x11a6
 4218 117a 29       		.uleb128 0x29
 4219 117b 6A0A0000 		.4byte	0xa6a
 4220 117f 64080000 		.4byte	.LLST47
 4221 1183 38       		.uleb128 0x38
 4222 1184 A2060000 		.4byte	0x6a2
 4223 1188 4C010000 		.4byte	.LBB53
 4224 118c 50000000 		.4byte	.Ldebug_ranges0+0x50
 4225 1190 01       		.byte	0x1
 4226 1191 60       		.byte	0x60
 4227 1192 29       		.uleb128 0x29
 4228 1193 BB060000 		.4byte	0x6bb
 4229 1197 01090000 		.4byte	.LLST48
 4230 119b 29       		.uleb128 0x29
 4231 119c B2060000 		.4byte	0x6b2
 4232 11a0 64080000 		.4byte	.LLST47
 4233 11a4 00       		.byte	0
 4234 11a5 00       		.byte	0
ARM GAS  C:\Users\ddemidov\AppData\Local\Temp\ccBlgygZ.s 			page 108


 4235 11a6 35       		.uleb128 0x35
 4236 11a7 C5060000 		.4byte	0x6c5
 4237 11ab 46010000 		.4byte	.LBB58
 4238 11af 68000000 		.4byte	.Ldebug_ranges0+0x68
 4239 11b3 02       		.byte	0x2
 4240 11b4 A601     		.2byte	0x1a6
 4241 11b6 0A120000 		.4byte	0x120a
 4242 11ba 29       		.uleb128 0x29
 4243 11bb DC060000 		.4byte	0x6dc
 4244 11bf 15090000 		.4byte	.LLST50
 4245 11c3 29       		.uleb128 0x29
 4246 11c4 F2060000 		.4byte	0x6f2
 4247 11c8 2A090000 		.4byte	.LLST51
 4248 11cc 29       		.uleb128 0x29
 4249 11cd E8060000 		.4byte	0x6e8
 4250 11d1 3E090000 		.4byte	.LLST52
 4251 11d5 29       		.uleb128 0x29
 4252 11d6 D2060000 		.4byte	0x6d2
 4253 11da 5F090000 		.4byte	.LLST53
 4254 11de 36       		.uleb128 0x36
 4255 11df 68000000 		.4byte	.Ldebug_ranges0+0x68
 4256 11e3 2A       		.uleb128 0x2a
 4257 11e4 FE060000 		.4byte	0x6fe
 4258 11e8 74090000 		.4byte	.LLST54
 4259 11ec 25       		.uleb128 0x25
 4260 11ed 60010000 		.4byte	.LVL131
 4261 11f1 060A0000 		.4byte	0xa06
 4262 11f5 26       		.uleb128 0x26
 4263 11f6 01       		.uleb128 0x1
 4264 11f7 52       		.byte	0x52
 4265 11f8 01       		.uleb128 0x1
 4266 11f9 34       		.byte	0x34
 4267 11fa 26       		.uleb128 0x26
 4268 11fb 01       		.uleb128 0x1
 4269 11fc 51       		.byte	0x51
 4270 11fd 03       		.uleb128 0x3
 4271 11fe 91       		.byte	0x91
 4272 11ff A07E     		.sleb128 -224
 4273 1201 26       		.uleb128 0x26
 4274 1202 01       		.uleb128 0x1
 4275 1203 50       		.byte	0x50
 4276 1204 02       		.uleb128 0x2
 4277 1205 75       		.byte	0x75
 4278 1206 00       		.sleb128 0
 4279 1207 00       		.byte	0
 4280 1208 00       		.byte	0
 4281 1209 00       		.byte	0
 4282 120a 2F       		.uleb128 0x2f
 4283 120b EA000000 		.4byte	.LVL110
 4284 120f B8180000 		.4byte	0x18b8
 4285 1213 1F120000 		.4byte	0x121f
 4286 1217 26       		.uleb128 0x26
 4287 1218 01       		.uleb128 0x1
 4288 1219 50       		.byte	0x50
 4289 121a 03       		.uleb128 0x3
 4290 121b 91       		.byte	0x91
 4291 121c FC7E     		.sleb128 -132
ARM GAS  C:\Users\ddemidov\AppData\Local\Temp\ccBlgygZ.s 			page 109


 4292 121e 00       		.byte	0
 4293 121f 2F       		.uleb128 0x2f
 4294 1220 02010000 		.4byte	.LVL115
 4295 1224 D3180000 		.4byte	0x18d3
 4296 1228 40120000 		.4byte	0x1240
 4297 122c 26       		.uleb128 0x26
 4298 122d 01       		.uleb128 0x1
 4299 122e 52       		.byte	0x52
 4300 122f 01       		.uleb128 0x1
 4301 1230 31       		.byte	0x31
 4302 1231 26       		.uleb128 0x26
 4303 1232 01       		.uleb128 0x1
 4304 1233 51       		.byte	0x51
 4305 1234 03       		.uleb128 0x3
 4306 1235 91       		.byte	0x91
 4307 1236 9F7E     		.sleb128 -225
 4308 1238 26       		.uleb128 0x26
 4309 1239 01       		.uleb128 0x1
 4310 123a 50       		.byte	0x50
 4311 123b 03       		.uleb128 0x3
 4312 123c 91       		.byte	0x91
 4313 123d FC7E     		.sleb128 -132
 4314 123f 00       		.byte	0
 4315 1240 2F       		.uleb128 0x2f
 4316 1241 1A010000 		.4byte	.LVL119
 4317 1245 D3180000 		.4byte	0x18d3
 4318 1249 61120000 		.4byte	0x1261
 4319 124d 26       		.uleb128 0x26
 4320 124e 01       		.uleb128 0x1
 4321 124f 52       		.byte	0x52
 4322 1250 02       		.uleb128 0x2
 4323 1251 08       		.byte	0x8
 4324 1252 37       		.byte	0x37
 4325 1253 26       		.uleb128 0x26
 4326 1254 01       		.uleb128 0x1
 4327 1255 51       		.byte	0x51
 4328 1256 02       		.uleb128 0x2
 4329 1257 75       		.byte	0x75
 4330 1258 00       		.sleb128 0
 4331 1259 26       		.uleb128 0x26
 4332 125a 01       		.uleb128 0x1
 4333 125b 50       		.byte	0x50
 4334 125c 03       		.uleb128 0x3
 4335 125d 91       		.byte	0x91
 4336 125e FC7E     		.sleb128 -132
 4337 1260 00       		.byte	0
 4338 1261 25       		.uleb128 0x25
 4339 1262 26010000 		.4byte	.LVL120
 4340 1266 F2180000 		.4byte	0x18f2
 4341 126a 26       		.uleb128 0x26
 4342 126b 01       		.uleb128 0x1
 4343 126c 51       		.byte	0x51
 4344 126d 02       		.uleb128 0x2
 4345 126e 76       		.byte	0x76
 4346 126f 00       		.sleb128 0
 4347 1270 26       		.uleb128 0x26
 4348 1271 01       		.uleb128 0x1
ARM GAS  C:\Users\ddemidov\AppData\Local\Temp\ccBlgygZ.s 			page 110


 4349 1272 50       		.byte	0x50
 4350 1273 03       		.uleb128 0x3
 4351 1274 91       		.byte	0x91
 4352 1275 FC7E     		.sleb128 -132
 4353 1277 00       		.byte	0
 4354 1278 00       		.byte	0
 4355 1279 25       		.uleb128 0x25
 4356 127a 6E010000 		.4byte	.LVL133
 4357 127e 4B090000 		.4byte	0x94b
 4358 1282 26       		.uleb128 0x26
 4359 1283 01       		.uleb128 0x1
 4360 1284 51       		.byte	0x51
 4361 1285 02       		.uleb128 0x2
 4362 1286 08       		.byte	0x8
 4363 1287 20       		.byte	0x20
 4364 1288 26       		.uleb128 0x26
 4365 1289 01       		.uleb128 0x1
 4366 128a 50       		.byte	0x50
 4367 128b 02       		.uleb128 0x2
 4368 128c 76       		.byte	0x76
 4369 128d 00       		.sleb128 0
 4370 128e 00       		.byte	0
 4371 128f 00       		.byte	0
 4372 1290 39       		.uleb128 0x39
 4373 1291 48050000 		.4byte	.LASF244
 4374 1295 02       		.byte	0x2
 4375 1296 4902     		.2byte	0x249
 4376 1298 25000000 		.4byte	0x25
 4377 129c 00000000 		.4byte	.LFB23
 4378 12a0 3C000000 		.4byte	.LFE23-.LFB23
 4379 12a4 01       		.uleb128 0x1
 4380 12a5 9C       		.byte	0x9c
 4381 12a6 FA120000 		.4byte	0x12fa
 4382 12aa 32       		.uleb128 0x32
 4383 12ab 726E6700 		.ascii	"rng\000"
 4384 12af 02       		.byte	0x2
 4385 12b0 4902     		.2byte	0x249
 4386 12b2 FA120000 		.4byte	0x12fa
 4387 12b6 88090000 		.4byte	.LLST55
 4388 12ba 23       		.uleb128 0x23
 4389 12bb 72657400 		.ascii	"ret\000"
 4390 12bf 02       		.byte	0x2
 4391 12c0 4B02     		.2byte	0x24b
 4392 12c2 25000000 		.4byte	0x25
 4393 12c6 BF090000 		.4byte	.LLST56
 4394 12ca 34       		.uleb128 0x34
 4395 12cb 1C000000 		.4byte	.LBB65
 4396 12cf 0A000000 		.4byte	.LBE65-.LBB65
 4397 12d3 F0120000 		.4byte	0x12f0
 4398 12d7 23       		.uleb128 0x23
 4399 12d8 787000   		.ascii	"xp\000"
 4400 12db 02       		.byte	0x2
 4401 12dc 5402     		.2byte	0x254
 4402 12de 9E000000 		.4byte	0x9e
 4403 12e2 1D0A0000 		.4byte	.LLST57
 4404 12e6 3A       		.uleb128 0x3a
 4405 12e7 26000000 		.4byte	.LVL141
ARM GAS  C:\Users\ddemidov\AppData\Local\Temp\ccBlgygZ.s 			page 111


 4406 12eb 46190000 		.4byte	0x1946
 4407 12ef 00       		.byte	0
 4408 12f0 3A       		.uleb128 0x3a
 4409 12f1 14000000 		.4byte	.LVL138
 4410 12f5 97090000 		.4byte	0x997
 4411 12f9 00       		.byte	0
 4412 12fa 06       		.uleb128 0x6
 4413 12fb 04       		.byte	0x4
 4414 12fc 3C030000 		.4byte	0x33c
 4415 1300 39       		.uleb128 0x39
 4416 1301 410C0000 		.4byte	.LASF245
 4417 1305 02       		.byte	0x2
 4418 1306 5F02     		.2byte	0x25f
 4419 1308 25000000 		.4byte	0x25
 4420 130c 00000000 		.4byte	.LFB24
 4421 1310 76000000 		.4byte	.LFE24-.LFB24
 4422 1314 01       		.uleb128 0x1
 4423 1315 9C       		.byte	0x9c
 4424 1316 33140000 		.4byte	0x1433
 4425 131a 22       		.uleb128 0x22
 4426 131b EF050000 		.4byte	.LASF220
 4427 131f 02       		.byte	0x2
 4428 1320 5F02     		.2byte	0x25f
 4429 1322 25000000 		.4byte	0x25
 4430 1326 300A0000 		.4byte	.LLST58
 4431 132a 22       		.uleb128 0x22
 4432 132b D8050000 		.4byte	.LASF246
 4433 132f 02       		.byte	0x2
 4434 1330 5F02     		.2byte	0x25f
 4435 1332 2B070000 		.4byte	0x72b
 4436 1336 800A0000 		.4byte	.LLST59
 4437 133a 22       		.uleb128 0x22
 4438 133b AC0C0000 		.4byte	.LASF247
 4439 133f 02       		.byte	0x2
 4440 1340 5F02     		.2byte	0x25f
 4441 1342 50000000 		.4byte	0x50
 4442 1346 BA0A0000 		.4byte	.LLST60
 4443 134a 22       		.uleb128 0x22
 4444 134b E1050000 		.4byte	.LASF248
 4445 134f 02       		.byte	0x2
 4446 1350 6002     		.2byte	0x260
 4447 1352 2B070000 		.4byte	0x72b
 4448 1356 F40A0000 		.4byte	.LLST61
 4449 135a 3B       		.uleb128 0x3b
 4450 135b E5010000 		.4byte	.LASF249
 4451 135f 02       		.byte	0x2
 4452 1360 6002     		.2byte	0x260
 4453 1362 50000000 		.4byte	0x50
 4454 1366 02       		.uleb128 0x2
 4455 1367 91       		.byte	0x91
 4456 1368 00       		.sleb128 0
 4457 1369 3B       		.uleb128 0x3b
 4458 136a 5A000000 		.4byte	.LASF222
 4459 136e 02       		.byte	0x2
 4460 136f 6102     		.2byte	0x261
 4461 1371 25070000 		.4byte	0x725
 4462 1375 02       		.uleb128 0x2
ARM GAS  C:\Users\ddemidov\AppData\Local\Temp\ccBlgygZ.s 			page 112


 4463 1376 91       		.byte	0x91
 4464 1377 04       		.sleb128 4
 4465 1378 3B       		.uleb128 0x3b
 4466 1379 AB040000 		.4byte	.LASF250
 4467 137d 02       		.byte	0x2
 4468 137e 6102     		.2byte	0x261
 4469 1380 50000000 		.4byte	0x50
 4470 1384 02       		.uleb128 0x2
 4471 1385 91       		.byte	0x91
 4472 1386 08       		.sleb128 8
 4473 1387 31       		.uleb128 0x31
 4474 1388 30000000 		.4byte	.LASF83
 4475 138c 02       		.byte	0x2
 4476 138d 6302     		.2byte	0x263
 4477 138f 97060000 		.4byte	0x697
 4478 1393 03       		.uleb128 0x3
 4479 1394 91       		.byte	0x91
 4480 1395 F87E     		.sleb128 -136
 4481 1397 2F       		.uleb128 0x2f
 4482 1398 26000000 		.4byte	.LVL149
 4483 139c 270C0000 		.4byte	0xc27
 4484 13a0 AB130000 		.4byte	0x13ab
 4485 13a4 26       		.uleb128 0x26
 4486 13a5 01       		.uleb128 0x1
 4487 13a6 50       		.byte	0x50
 4488 13a7 02       		.uleb128 0x2
 4489 13a8 7D       		.byte	0x7d
 4490 13a9 00       		.sleb128 0
 4491 13aa 00       		.byte	0
 4492 13ab 2F       		.uleb128 0x2f
 4493 13ac 38000000 		.4byte	.LVL150
 4494 13b0 E70C0000 		.4byte	0xce7
 4495 13b4 CC130000 		.4byte	0x13cc
 4496 13b8 26       		.uleb128 0x26
 4497 13b9 01       		.uleb128 0x1
 4498 13ba 52       		.byte	0x52
 4499 13bb 03       		.uleb128 0x3
 4500 13bc 91       		.byte	0x91
 4501 13bd 00       		.sleb128 0
 4502 13be 06       		.byte	0x6
 4503 13bf 26       		.uleb128 0x26
 4504 13c0 01       		.uleb128 0x1
 4505 13c1 51       		.byte	0x51
 4506 13c2 02       		.uleb128 0x2
 4507 13c3 74       		.byte	0x74
 4508 13c4 00       		.sleb128 0
 4509 13c5 26       		.uleb128 0x26
 4510 13c6 01       		.uleb128 0x1
 4511 13c7 50       		.byte	0x50
 4512 13c8 02       		.uleb128 0x2
 4513 13c9 7D       		.byte	0x7d
 4514 13ca 00       		.sleb128 0
 4515 13cb 00       		.byte	0
 4516 13cc 2F       		.uleb128 0x2f
 4517 13cd 42000000 		.4byte	.LVL151
 4518 13d1 97090000 		.4byte	0x997
 4519 13d5 E0130000 		.4byte	0x13e0
ARM GAS  C:\Users\ddemidov\AppData\Local\Temp\ccBlgygZ.s 			page 113


 4520 13d9 26       		.uleb128 0x26
 4521 13da 01       		.uleb128 0x1
 4522 13db 50       		.byte	0x50
 4523 13dc 02       		.uleb128 0x2
 4524 13dd 7D       		.byte	0x7d
 4525 13de 00       		.sleb128 0
 4526 13df 00       		.byte	0
 4527 13e0 2F       		.uleb128 0x2f
 4528 13e1 50000000 		.4byte	.LVL153
 4529 13e5 7A0E0000 		.4byte	0xe7a
 4530 13e9 01140000 		.4byte	0x1401
 4531 13ed 26       		.uleb128 0x26
 4532 13ee 01       		.uleb128 0x1
 4533 13ef 52       		.byte	0x52
 4534 13f0 02       		.uleb128 0x2
 4535 13f1 08       		.byte	0x8
 4536 13f2 80       		.byte	0x80
 4537 13f3 26       		.uleb128 0x26
 4538 13f4 01       		.uleb128 0x1
 4539 13f5 51       		.byte	0x51
 4540 13f6 03       		.uleb128 0x3
 4541 13f7 91       		.byte	0x91
 4542 13f8 04       		.sleb128 4
 4543 13f9 06       		.byte	0x6
 4544 13fa 26       		.uleb128 0x26
 4545 13fb 01       		.uleb128 0x1
 4546 13fc 50       		.byte	0x50
 4547 13fd 02       		.uleb128 0x2
 4548 13fe 7D       		.byte	0x7d
 4549 13ff 00       		.sleb128 0
 4550 1400 00       		.byte	0
 4551 1401 2F       		.uleb128 0x2f
 4552 1402 5E000000 		.4byte	.LVL154
 4553 1406 7A0E0000 		.4byte	0xe7a
 4554 140a 22140000 		.4byte	0x1422
 4555 140e 26       		.uleb128 0x26
 4556 140f 01       		.uleb128 0x1
 4557 1410 52       		.byte	0x52
 4558 1411 02       		.uleb128 0x2
 4559 1412 08       		.byte	0x8
 4560 1413 80       		.byte	0x80
 4561 1414 26       		.uleb128 0x26
 4562 1415 01       		.uleb128 0x1
 4563 1416 51       		.byte	0x51
 4564 1417 03       		.uleb128 0x3
 4565 1418 91       		.byte	0x91
 4566 1419 04       		.sleb128 4
 4567 141a 06       		.byte	0x6
 4568 141b 26       		.uleb128 0x26
 4569 141c 01       		.uleb128 0x1
 4570 141d 50       		.byte	0x50
 4571 141e 02       		.uleb128 0x2
 4572 141f 7D       		.byte	0x7d
 4573 1420 00       		.sleb128 0
 4574 1421 00       		.byte	0
 4575 1422 25       		.uleb128 0x25
 4576 1423 68000000 		.4byte	.LVL155
ARM GAS  C:\Users\ddemidov\AppData\Local\Temp\ccBlgygZ.s 			page 114


 4577 1427 97090000 		.4byte	0x997
 4578 142b 26       		.uleb128 0x26
 4579 142c 01       		.uleb128 0x1
 4580 142d 50       		.byte	0x50
 4581 142e 02       		.uleb128 0x2
 4582 142f 7D       		.byte	0x7d
 4583 1430 00       		.sleb128 0
 4584 1431 00       		.byte	0
 4585 1432 00       		.byte	0
 4586 1433 39       		.uleb128 0x39
 4587 1434 00080000 		.4byte	.LASF251
 4588 1438 02       		.byte	0x2
 4589 1439 1202     		.2byte	0x212
 4590 143b 25000000 		.4byte	0x25
 4591 143f 00000000 		.4byte	.LFB21
 4592 1443 C8000000 		.4byte	.LFE21-.LFB21
 4593 1447 01       		.uleb128 0x1
 4594 1448 9C       		.byte	0x9c
 4595 1449 27160000 		.4byte	0x1627
 4596 144d 32       		.uleb128 0x32
 4597 144e 726E6700 		.ascii	"rng\000"
 4598 1452 02       		.byte	0x2
 4599 1453 1202     		.2byte	0x212
 4600 1455 FA120000 		.4byte	0x12fa
 4601 1459 440B0000 		.4byte	.LLST62
 4602 145d 22       		.uleb128 0x22
 4603 145e 5A000000 		.4byte	.LASF222
 4604 1462 02       		.byte	0x2
 4605 1463 1202     		.2byte	0x212
 4606 1465 25070000 		.4byte	0x725
 4607 1469 940B0000 		.4byte	.LLST63
 4608 146d 32       		.uleb128 0x32
 4609 146e 737A00   		.ascii	"sz\000"
 4610 1471 02       		.byte	0x2
 4611 1472 1202     		.2byte	0x212
 4612 1474 50000000 		.4byte	0x50
 4613 1478 CB0B0000 		.4byte	.LLST64
 4614 147c 23       		.uleb128 0x23
 4615 147d 72657400 		.ascii	"ret\000"
 4616 1481 02       		.byte	0x2
 4617 1482 1402     		.2byte	0x214
 4618 1484 25000000 		.4byte	0x25
 4619 1488 040C0000 		.4byte	.LLST65
 4620 148c 37       		.uleb128 0x37
 4621 148d F5070000 		.4byte	0x7f5
 4622 1491 2E000000 		.4byte	.LBB75
 4623 1495 34000000 		.4byte	.LBE75-.LBB75
 4624 1499 02       		.byte	0x2
 4625 149a 1F02     		.2byte	0x21f
 4626 149c 6A150000 		.4byte	0x156a
 4627 14a0 29       		.uleb128 0x29
 4628 14a1 06080000 		.4byte	0x806
 4629 14a5 490C0000 		.4byte	.LLST66
 4630 14a9 2C       		.uleb128 0x2c
 4631 14aa 2E000000 		.4byte	.LBB76
 4632 14ae 34000000 		.4byte	.LBE76-.LBB76
 4633 14b2 2A       		.uleb128 0x2a
ARM GAS  C:\Users\ddemidov\AppData\Local\Temp\ccBlgygZ.s 			page 115


 4634 14b3 12080000 		.4byte	0x812
 4635 14b7 690C0000 		.4byte	.LLST67
 4636 14bb 3C       		.uleb128 0x3c
 4637 14bc 1E080000 		.4byte	0x81e
 4638 14c0 2C       		.uleb128 0x2c
 4639 14c1 2E000000 		.4byte	.LBB77
 4640 14c5 34000000 		.4byte	.LBE77-.LBB77
 4641 14c9 29       		.uleb128 0x29
 4642 14ca 06080000 		.4byte	0x806
 4643 14ce 490C0000 		.4byte	.LLST66
 4644 14d2 2C       		.uleb128 0x2c
 4645 14d3 2E000000 		.4byte	.LBB78
 4646 14d7 34000000 		.4byte	.LBE78-.LBB78
 4647 14db 2A       		.uleb128 0x2a
 4648 14dc 12080000 		.4byte	0x812
 4649 14e0 9D0C0000 		.4byte	.LLST69
 4650 14e4 2D       		.uleb128 0x2d
 4651 14e5 1E080000 		.4byte	0x81e
 4652 14e9 03       		.uleb128 0x3
 4653 14ea 91       		.byte	0x91
 4654 14eb E87E     		.sleb128 -152
 4655 14ed 37       		.uleb128 0x37
 4656 14ee 09090000 		.4byte	0x909
 4657 14f2 50000000 		.4byte	.LBB79
 4658 14f6 12000000 		.4byte	.LBE79-.LBB79
 4659 14fa 02       		.byte	0x2
 4660 14fb C502     		.2byte	0x2c5
 4661 14fd 2D150000 		.4byte	0x152d
 4662 1501 3D       		.uleb128 0x3d
 4663 1502 2B090000 		.4byte	0x92b
 4664 1506 3D       		.uleb128 0x3d
 4665 1507 22090000 		.4byte	0x922
 4666 150b 3D       		.uleb128 0x3d
 4667 150c 19090000 		.4byte	0x919
 4668 1510 2C       		.uleb128 0x2c
 4669 1511 50000000 		.4byte	.LBB80
 4670 1515 12000000 		.4byte	.LBE80-.LBB80
 4671 1519 2A       		.uleb128 0x2a
 4672 151a 36090000 		.4byte	0x936
 4673 151e D00C0000 		.4byte	.LLST70
 4674 1522 2A       		.uleb128 0x2a
 4675 1523 3F090000 		.4byte	0x93f
 4676 1527 060D0000 		.4byte	.LLST71
 4677 152b 00       		.byte	0
 4678 152c 00       		.byte	0
 4679 152d 25       		.uleb128 0x25
 4680 152e 4A000000 		.4byte	.LVL164
 4681 1532 00130000 		.4byte	0x1300
 4682 1536 26       		.uleb128 0x26
 4683 1537 01       		.uleb128 0x1
 4684 1538 53       		.byte	0x53
 4685 1539 02       		.uleb128 0x2
 4686 153a 75       		.byte	0x75
 4687 153b 30       		.sleb128 48
 4688 153c 26       		.uleb128 0x26
 4689 153d 01       		.uleb128 0x1
 4690 153e 52       		.byte	0x52
ARM GAS  C:\Users\ddemidov\AppData\Local\Temp\ccBlgygZ.s 			page 116


 4691 153f 02       		.uleb128 0x2
 4692 1540 08       		.byte	0x8
 4693 1541 30       		.byte	0x30
 4694 1542 26       		.uleb128 0x26
 4695 1543 01       		.uleb128 0x1
 4696 1544 51       		.byte	0x51
 4697 1545 02       		.uleb128 0x2
 4698 1546 75       		.byte	0x75
 4699 1547 00       		.sleb128 0
 4700 1548 26       		.uleb128 0x26
 4701 1549 01       		.uleb128 0x1
 4702 154a 50       		.byte	0x50
 4703 154b 04       		.uleb128 0x4
 4704 154c 91       		.byte	0x91
 4705 154d E07E     		.sleb128 -160
 4706 154f 06       		.byte	0x6
 4707 1550 26       		.uleb128 0x26
 4708 1551 02       		.uleb128 0x2
 4709 1552 7D       		.byte	0x7d
 4710 1553 08       		.sleb128 8
 4711 1554 02       		.uleb128 0x2
 4712 1555 08       		.byte	0x8
 4713 1556 80       		.byte	0x80
 4714 1557 26       		.uleb128 0x26
 4715 1558 02       		.uleb128 0x2
 4716 1559 7D       		.byte	0x7d
 4717 155a 04       		.sleb128 4
 4718 155b 02       		.uleb128 0x2
 4719 155c 76       		.byte	0x76
 4720 155d 00       		.sleb128 0
 4721 155e 26       		.uleb128 0x26
 4722 155f 02       		.uleb128 0x2
 4723 1560 7D       		.byte	0x7d
 4724 1561 00       		.sleb128 0
 4725 1562 02       		.uleb128 0x2
 4726 1563 08       		.byte	0x8
 4727 1564 20       		.byte	0x20
 4728 1565 00       		.byte	0
 4729 1566 00       		.byte	0
 4730 1567 00       		.byte	0
 4731 1568 00       		.byte	0
 4732 1569 00       		.byte	0
 4733 156a 34       		.uleb128 0x34
 4734 156b 70000000 		.4byte	.LBB81
 4735 156f 36000000 		.4byte	.LBE81-.LBB81
 4736 1573 0E160000 		.4byte	0x160e
 4737 1577 31       		.uleb128 0x31
 4738 1578 14020000 		.4byte	.LASF239
 4739 157c 02       		.byte	0x2
 4740 157d 2002     		.2byte	0x220
 4741 157f E5070000 		.4byte	0x7e5
 4742 1583 03       		.uleb128 0x3
 4743 1584 91       		.byte	0x91
 4744 1585 E87E     		.sleb128 -152
 4745 1587 37       		.uleb128 0x37
 4746 1588 3B080000 		.4byte	0x83b
 4747 158c 70000000 		.4byte	.LBB82
ARM GAS  C:\Users\ddemidov\AppData\Local\Temp\ccBlgygZ.s 			page 117


 4748 1590 08000000 		.4byte	.LBE82-.LBB82
 4749 1594 02       		.byte	0x2
 4750 1595 2202     		.2byte	0x222
 4751 1597 BE150000 		.4byte	0x15be
 4752 159b 3D       		.uleb128 0x3d
 4753 159c 63080000 		.4byte	0x863
 4754 15a0 3D       		.uleb128 0x3d
 4755 15a1 57080000 		.4byte	0x857
 4756 15a5 3D       		.uleb128 0x3d
 4757 15a6 4C080000 		.4byte	0x84c
 4758 15aa 2C       		.uleb128 0x2c
 4759 15ab 70000000 		.4byte	.LBB83
 4760 15af 08000000 		.4byte	.LBE83-.LBB83
 4761 15b3 2A       		.uleb128 0x2a
 4762 15b4 6E080000 		.4byte	0x86e
 4763 15b8 240D0000 		.4byte	.LLST72
 4764 15bc 00       		.byte	0
 4765 15bd 00       		.byte	0
 4766 15be 2F       		.uleb128 0x2f
 4767 15bf 80000000 		.4byte	.LVL173
 4768 15c3 E70C0000 		.4byte	0xce7
 4769 15c7 D2150000 		.4byte	0x15d2
 4770 15cb 26       		.uleb128 0x26
 4771 15cc 01       		.uleb128 0x1
 4772 15cd 51       		.byte	0x51
 4773 15ce 02       		.uleb128 0x2
 4774 15cf 76       		.byte	0x76
 4775 15d0 00       		.sleb128 0
 4776 15d1 00       		.byte	0
 4777 15d2 3A       		.uleb128 0x3a
 4778 15d3 8E000000 		.4byte	.LVL174
 4779 15d7 7A0E0000 		.4byte	0xe7a
 4780 15db 2F       		.uleb128 0x2f
 4781 15dc 9C000000 		.4byte	.LVL177
 4782 15e0 7A0E0000 		.4byte	0xe7a
 4783 15e4 F7150000 		.4byte	0x15f7
 4784 15e8 26       		.uleb128 0x26
 4785 15e9 01       		.uleb128 0x1
 4786 15ea 52       		.byte	0x52
 4787 15eb 04       		.uleb128 0x4
 4788 15ec 91       		.byte	0x91
 4789 15ed E47E     		.sleb128 -156
 4790 15ef 06       		.byte	0x6
 4791 15f0 26       		.uleb128 0x26
 4792 15f1 01       		.uleb128 0x1
 4793 15f2 51       		.byte	0x51
 4794 15f3 02       		.uleb128 0x2
 4795 15f4 77       		.byte	0x77
 4796 15f5 00       		.sleb128 0
 4797 15f6 00       		.byte	0
 4798 15f7 25       		.uleb128 0x25
 4799 15f8 A6000000 		.4byte	.LVL179
 4800 15fc 4B090000 		.4byte	0x94b
 4801 1600 26       		.uleb128 0x26
 4802 1601 01       		.uleb128 0x1
 4803 1602 51       		.byte	0x51
 4804 1603 02       		.uleb128 0x2
ARM GAS  C:\Users\ddemidov\AppData\Local\Temp\ccBlgygZ.s 			page 118


 4805 1604 08       		.byte	0x8
 4806 1605 20       		.byte	0x20
 4807 1606 26       		.uleb128 0x26
 4808 1607 01       		.uleb128 0x1
 4809 1608 50       		.byte	0x50
 4810 1609 02       		.uleb128 0x2
 4811 160a 76       		.byte	0x76
 4812 160b 00       		.sleb128 0
 4813 160c 00       		.byte	0
 4814 160d 00       		.byte	0
 4815 160e 25       		.uleb128 0x25
 4816 160f 28000000 		.4byte	.LVL160
 4817 1613 7A0E0000 		.4byte	0xe7a
 4818 1617 26       		.uleb128 0x26
 4819 1618 01       		.uleb128 0x1
 4820 1619 52       		.byte	0x52
 4821 161a 04       		.uleb128 0x4
 4822 161b 91       		.byte	0x91
 4823 161c E47E     		.sleb128 -156
 4824 161e 06       		.byte	0x6
 4825 161f 26       		.uleb128 0x26
 4826 1620 01       		.uleb128 0x1
 4827 1621 51       		.byte	0x51
 4828 1622 02       		.uleb128 0x2
 4829 1623 77       		.byte	0x77
 4830 1624 00       		.sleb128 0
 4831 1625 00       		.byte	0
 4832 1626 00       		.byte	0
 4833 1627 39       		.uleb128 0x39
 4834 1628 B2080000 		.4byte	.LASF252
 4835 162c 02       		.byte	0x2
 4836 162d 4302     		.2byte	0x243
 4837 162f 25000000 		.4byte	0x25
 4838 1633 00000000 		.4byte	.LFB22
 4839 1637 0A000000 		.4byte	.LFE22-.LFB22
 4840 163b 01       		.uleb128 0x1
 4841 163c 9C       		.byte	0x9c
 4842 163d 7D160000 		.4byte	0x167d
 4843 1641 32       		.uleb128 0x32
 4844 1642 726E6700 		.ascii	"rng\000"
 4845 1646 02       		.byte	0x2
 4846 1647 4302     		.2byte	0x243
 4847 1649 FA120000 		.4byte	0x12fa
 4848 164d 370D0000 		.4byte	.LLST73
 4849 1651 32       		.uleb128 0x32
 4850 1652 6200     		.ascii	"b\000"
 4851 1654 02       		.byte	0x2
 4852 1655 4302     		.2byte	0x243
 4853 1657 25070000 		.4byte	0x725
 4854 165b 580D0000 		.4byte	.LLST74
 4855 165f 25       		.uleb128 0x25
 4856 1660 08000000 		.4byte	.LVL186
 4857 1664 33140000 		.4byte	0x1433
 4858 1668 26       		.uleb128 0x26
 4859 1669 01       		.uleb128 0x1
 4860 166a 52       		.byte	0x52
 4861 166b 01       		.uleb128 0x1
ARM GAS  C:\Users\ddemidov\AppData\Local\Temp\ccBlgygZ.s 			page 119


 4862 166c 31       		.byte	0x31
 4863 166d 26       		.uleb128 0x26
 4864 166e 01       		.uleb128 0x1
 4865 166f 51       		.byte	0x51
 4866 1670 03       		.uleb128 0x3
 4867 1671 F3       		.byte	0xf3
 4868 1672 01       		.uleb128 0x1
 4869 1673 51       		.byte	0x51
 4870 1674 26       		.uleb128 0x26
 4871 1675 01       		.uleb128 0x1
 4872 1676 50       		.byte	0x50
 4873 1677 03       		.uleb128 0x3
 4874 1678 F3       		.byte	0xf3
 4875 1679 01       		.uleb128 0x1
 4876 167a 50       		.byte	0x50
 4877 167b 00       		.byte	0
 4878 167c 00       		.byte	0
 4879 167d 39       		.uleb128 0x39
 4880 167e 9B0D0000 		.4byte	.LASF253
 4881 1682 02       		.byte	0x2
 4882 1683 DD01     		.2byte	0x1dd
 4883 1685 25000000 		.4byte	0x25
 4884 1689 00000000 		.4byte	.LFB20
 4885 168d B4000000 		.4byte	.LFE20-.LFB20
 4886 1691 01       		.uleb128 0x1
 4887 1692 9C       		.byte	0x9c
 4888 1693 01180000 		.4byte	0x1801
 4889 1697 32       		.uleb128 0x32
 4890 1698 726E6700 		.ascii	"rng\000"
 4891 169c 02       		.byte	0x2
 4892 169d DD01     		.2byte	0x1dd
 4893 169f FA120000 		.4byte	0x12fa
 4894 16a3 790D0000 		.4byte	.LLST75
 4895 16a7 23       		.uleb128 0x23
 4896 16a8 72657400 		.ascii	"ret\000"
 4897 16ac 02       		.byte	0x2
 4898 16ad DF01     		.2byte	0x1df
 4899 16af 25000000 		.4byte	0x25
 4900 16b3 B00D0000 		.4byte	.LLST76
 4901 16b7 37       		.uleb128 0x37
 4902 16b8 F5070000 		.4byte	0x7f5
 4903 16bc 08000000 		.4byte	.LBB91
 4904 16c0 38000000 		.4byte	.LBE91-.LBB91
 4905 16c4 02       		.byte	0x2
 4906 16c5 E201     		.2byte	0x1e2
 4907 16c7 68170000 		.4byte	0x1768
 4908 16cb 29       		.uleb128 0x29
 4909 16cc 06080000 		.4byte	0x806
 4910 16d0 5B0E0000 		.4byte	.LLST77
 4911 16d4 2C       		.uleb128 0x2c
 4912 16d5 08000000 		.4byte	.LBB92
 4913 16d9 38000000 		.4byte	.LBE92-.LBB92
 4914 16dd 2A       		.uleb128 0x2a
 4915 16de 12080000 		.4byte	0x812
 4916 16e2 6F0E0000 		.4byte	.LLST78
 4917 16e6 2D       		.uleb128 0x2d
 4918 16e7 1E080000 		.4byte	0x81e
ARM GAS  C:\Users\ddemidov\AppData\Local\Temp\ccBlgygZ.s 			page 120


 4919 16eb 03       		.uleb128 0x3
 4920 16ec 91       		.byte	0x91
 4921 16ed F07E     		.sleb128 -144
 4922 16ef 37       		.uleb128 0x37
 4923 16f0 09090000 		.4byte	0x909
 4924 16f4 2A000000 		.4byte	.LBB93
 4925 16f8 10000000 		.4byte	.LBE93-.LBB93
 4926 16fc 02       		.byte	0x2
 4927 16fd CE02     		.2byte	0x2ce
 4928 16ff 2F170000 		.4byte	0x172f
 4929 1703 3D       		.uleb128 0x3d
 4930 1704 2B090000 		.4byte	0x92b
 4931 1708 3D       		.uleb128 0x3d
 4932 1709 22090000 		.4byte	0x922
 4933 170d 3D       		.uleb128 0x3d
 4934 170e 19090000 		.4byte	0x919
 4935 1712 2C       		.uleb128 0x2c
 4936 1713 2A000000 		.4byte	.LBB94
 4937 1717 10000000 		.4byte	.LBE94-.LBB94
 4938 171b 2A       		.uleb128 0x2a
 4939 171c 36090000 		.4byte	0x936
 4940 1720 A50E0000 		.4byte	.LLST79
 4941 1724 2A       		.uleb128 0x2a
 4942 1725 3F090000 		.4byte	0x93f
 4943 1729 DB0E0000 		.4byte	.LLST80
 4944 172d 00       		.byte	0
 4945 172e 00       		.byte	0
 4946 172f 25       		.uleb128 0x25
 4947 1730 22000000 		.4byte	.LVL190
 4948 1734 00130000 		.4byte	0x1300
 4949 1738 26       		.uleb128 0x26
 4950 1739 01       		.uleb128 0x1
 4951 173a 53       		.byte	0x53
 4952 173b 01       		.uleb128 0x1
 4953 173c 30       		.byte	0x30
 4954 173d 26       		.uleb128 0x26
 4955 173e 01       		.uleb128 0x1
 4956 173f 52       		.byte	0x52
 4957 1740 02       		.uleb128 0x2
 4958 1741 08       		.byte	0x8
 4959 1742 30       		.byte	0x30
 4960 1743 26       		.uleb128 0x26
 4961 1744 01       		.uleb128 0x1
 4962 1745 51       		.byte	0x51
 4963 1746 05       		.uleb128 0x5
 4964 1747 03       		.byte	0x3
 4965 1748 D0000000 		.4byte	.LANCHOR1+80
 4966 174c 26       		.uleb128 0x26
 4967 174d 01       		.uleb128 0x1
 4968 174e 50       		.byte	0x50
 4969 174f 01       		.uleb128 0x1
 4970 1750 30       		.byte	0x30
 4971 1751 26       		.uleb128 0x26
 4972 1752 02       		.uleb128 0x2
 4973 1753 7D       		.byte	0x7d
 4974 1754 08       		.sleb128 8
 4975 1755 02       		.uleb128 0x2
ARM GAS  C:\Users\ddemidov\AppData\Local\Temp\ccBlgygZ.s 			page 121


 4976 1756 08       		.byte	0x8
 4977 1757 80       		.byte	0x80
 4978 1758 26       		.uleb128 0x26
 4979 1759 02       		.uleb128 0x2
 4980 175a 7D       		.byte	0x7d
 4981 175b 04       		.sleb128 4
 4982 175c 02       		.uleb128 0x2
 4983 175d 76       		.byte	0x76
 4984 175e 00       		.sleb128 0
 4985 175f 26       		.uleb128 0x26
 4986 1760 02       		.uleb128 0x2
 4987 1761 7D       		.byte	0x7d
 4988 1762 00       		.sleb128 0
 4989 1763 01       		.uleb128 0x1
 4990 1764 30       		.byte	0x30
 4991 1765 00       		.byte	0
 4992 1766 00       		.byte	0
 4993 1767 00       		.byte	0
 4994 1768 2C       		.uleb128 0x2c
 4995 1769 4C000000 		.4byte	.LBB95
 4996 176d 3A000000 		.4byte	.LBE95-.LBB95
 4997 1771 31       		.uleb128 0x31
 4998 1772 14020000 		.4byte	.LASF239
 4999 1776 02       		.byte	0x2
 5000 1777 E301     		.2byte	0x1e3
 5001 1779 01180000 		.4byte	0x1801
 5002 177d 03       		.uleb128 0x3
 5003 177e 91       		.byte	0x91
 5004 177f F07E     		.sleb128 -144
 5005 1781 37       		.uleb128 0x37
 5006 1782 3B080000 		.4byte	0x83b
 5007 1786 5A000000 		.4byte	.LBB96
 5008 178a 08000000 		.4byte	.LBE96-.LBB96
 5009 178e 02       		.byte	0x2
 5010 178f ED01     		.2byte	0x1ed
 5011 1791 B8170000 		.4byte	0x17b8
 5012 1795 3D       		.uleb128 0x3d
 5013 1796 63080000 		.4byte	0x863
 5014 179a 3D       		.uleb128 0x3d
 5015 179b 57080000 		.4byte	0x857
 5016 179f 3D       		.uleb128 0x3d
 5017 17a0 4C080000 		.4byte	0x84c
 5018 17a4 2C       		.uleb128 0x2c
 5019 17a5 5A000000 		.4byte	.LBB97
 5020 17a9 08000000 		.4byte	.LBE97-.LBB97
 5021 17ad 2A       		.uleb128 0x2a
 5022 17ae 6E080000 		.4byte	0x86e
 5023 17b2 EE0E0000 		.4byte	.LLST81
 5024 17b6 00       		.byte	0
 5025 17b7 00       		.byte	0
 5026 17b8 2F       		.uleb128 0x2f
 5027 17b9 52000000 		.4byte	.LVL199
 5028 17bd 57190000 		.4byte	0x1957
 5029 17c1 CC170000 		.4byte	0x17cc
 5030 17c5 26       		.uleb128 0x26
 5031 17c6 01       		.uleb128 0x1
 5032 17c7 50       		.byte	0x50
ARM GAS  C:\Users\ddemidov\AppData\Local\Temp\ccBlgygZ.s 			page 122


 5033 17c8 02       		.uleb128 0x2
 5034 17c9 08       		.byte	0x8
 5035 17ca 78       		.byte	0x78
 5036 17cb 00       		.byte	0
 5037 17cc 2F       		.uleb128 0x2f
 5038 17cd 68000000 		.4byte	.LVL202
 5039 17d1 270C0000 		.4byte	0xc27
 5040 17d5 E0170000 		.4byte	0x17e0
 5041 17d9 26       		.uleb128 0x26
 5042 17da 01       		.uleb128 0x1
 5043 17db 51       		.byte	0x51
 5044 17dc 02       		.uleb128 0x2
 5045 17dd 76       		.byte	0x76
 5046 17de 00       		.sleb128 0
 5047 17df 00       		.byte	0
 5048 17e0 3A       		.uleb128 0x3a
 5049 17e1 76000000 		.4byte	.LVL203
 5050 17e5 7A0E0000 		.4byte	0xe7a
 5051 17e9 25       		.uleb128 0x25
 5052 17ea 86000000 		.4byte	.LVL207
 5053 17ee 4B090000 		.4byte	0x94b
 5054 17f2 26       		.uleb128 0x26
 5055 17f3 01       		.uleb128 0x1
 5056 17f4 51       		.byte	0x51
 5057 17f5 02       		.uleb128 0x2
 5058 17f6 08       		.byte	0x8
 5059 17f7 30       		.byte	0x30
 5060 17f8 26       		.uleb128 0x26
 5061 17f9 01       		.uleb128 0x1
 5062 17fa 50       		.byte	0x50
 5063 17fb 02       		.uleb128 0x2
 5064 17fc 76       		.byte	0x76
 5065 17fd 00       		.sleb128 0
 5066 17fe 00       		.byte	0
 5067 17ff 00       		.byte	0
 5068 1800 00       		.byte	0
 5069 1801 0C       		.uleb128 0xc
 5070 1802 2C000000 		.4byte	0x2c
 5071 1806 11180000 		.4byte	0x1811
 5072 180a 0D       		.uleb128 0xd
 5073 180b 97000000 		.4byte	0x97
 5074 180f 2F       		.byte	0x2f
 5075 1810 00       		.byte	0
 5076 1811 27       		.uleb128 0x27
 5077 1812 3B080000 		.4byte	0x83b
 5078 1816 00000000 		.4byte	.LFB26
 5079 181a 10000000 		.4byte	.LFE26-.LFB26
 5080 181e 01       		.uleb128 0x1
 5081 181f 9C       		.byte	0x9c
 5082 1820 45180000 		.4byte	0x1845
 5083 1824 29       		.uleb128 0x29
 5084 1825 4C080000 		.4byte	0x84c
 5085 1829 010F0000 		.4byte	.LLST82
 5086 182d 28       		.uleb128 0x28
 5087 182e 57080000 		.4byte	0x857
 5088 1832 01       		.uleb128 0x1
 5089 1833 51       		.byte	0x51
ARM GAS  C:\Users\ddemidov\AppData\Local\Temp\ccBlgygZ.s 			page 123


 5090 1834 28       		.uleb128 0x28
 5091 1835 63080000 		.4byte	0x863
 5092 1839 01       		.uleb128 0x1
 5093 183a 52       		.byte	0x52
 5094 183b 2A       		.uleb128 0x2a
 5095 183c 6E080000 		.4byte	0x86e
 5096 1840 220F0000 		.4byte	.LLST83
 5097 1844 00       		.byte	0
 5098 1845 3E       		.uleb128 0x3e
 5099 1846 D8050000 		.4byte	.LASF246
 5100 184a 02       		.byte	0x2
 5101 184b 8A02     		.2byte	0x28a
 5102 184d 57180000 		.4byte	0x1857
 5103 1851 05       		.uleb128 0x5
 5104 1852 03       		.byte	0x3
 5105 1853 00000000 		.4byte	entropyA
 5106 1857 16       		.uleb128 0x16
 5107 1858 01180000 		.4byte	0x1801
 5108 185c 3E       		.uleb128 0x3e
 5109 185d B5010000 		.4byte	.LASF254
 5110 1861 02       		.byte	0x2
 5111 1862 9102     		.2byte	0x291
 5112 1864 6E180000 		.4byte	0x186e
 5113 1868 05       		.uleb128 0x5
 5114 1869 03       		.byte	0x3
 5115 186a 00000000 		.4byte	reseedEntropyA
 5116 186e 16       		.uleb128 0x16
 5117 186f E5070000 		.4byte	0x7e5
 5118 1873 3E       		.uleb128 0x3e
 5119 1874 34060000 		.4byte	.LASF255
 5120 1878 02       		.byte	0x2
 5121 1879 9702     		.2byte	0x297
 5122 187b 85180000 		.4byte	0x1885
 5123 187f 05       		.uleb128 0x5
 5124 1880 03       		.byte	0x3
 5125 1881 00000000 		.4byte	outputA
 5126 1885 16       		.uleb128 0x16
 5127 1886 2B080000 		.4byte	0x82b
 5128 188a 3E       		.uleb128 0x3e
 5129 188b E1050000 		.4byte	.LASF248
 5130 188f 02       		.byte	0x2
 5131 1890 A502     		.2byte	0x2a5
 5132 1892 9C180000 		.4byte	0x189c
 5133 1896 05       		.uleb128 0x5
 5134 1897 03       		.byte	0x3
 5135 1898 00000000 		.4byte	entropyB
 5136 189c 16       		.uleb128 0x16
 5137 189d 01180000 		.4byte	0x1801
 5138 18a1 3E       		.uleb128 0x3e
 5139 18a2 3C060000 		.4byte	.LASF256
 5140 18a6 02       		.byte	0x2
 5141 18a7 AC02     		.2byte	0x2ac
 5142 18a9 B3180000 		.4byte	0x18b3
 5143 18ad 05       		.uleb128 0x5
 5144 18ae 03       		.byte	0x3
 5145 18af 00000000 		.4byte	outputB
 5146 18b3 16       		.uleb128 0x16
ARM GAS  C:\Users\ddemidov\AppData\Local\Temp\ccBlgygZ.s 			page 124


 5147 18b4 2B080000 		.4byte	0x82b
 5148 18b8 3F       		.uleb128 0x3f
 5149 18b9 90060000 		.4byte	.LASF258
 5150 18bd 05       		.byte	0x5
 5151 18be 4B       		.byte	0x4b
 5152 18bf 25000000 		.4byte	0x25
 5153 18c3 CD180000 		.4byte	0x18cd
 5154 18c7 40       		.uleb128 0x40
 5155 18c8 CD180000 		.4byte	0x18cd
 5156 18cc 00       		.byte	0
 5157 18cd 06       		.uleb128 0x6
 5158 18ce 04       		.byte	0x4
 5159 18cf 92020000 		.4byte	0x292
 5160 18d3 3F       		.uleb128 0x3f
 5161 18d4 80040000 		.4byte	.LASF259
 5162 18d8 05       		.byte	0x5
 5163 18d9 4C       		.byte	0x4c
 5164 18da 25000000 		.4byte	0x25
 5165 18de F2180000 		.4byte	0x18f2
 5166 18e2 40       		.uleb128 0x40
 5167 18e3 CD180000 		.4byte	0x18cd
 5168 18e7 40       		.uleb128 0x40
 5169 18e8 2B070000 		.4byte	0x72b
 5170 18ec 40       		.uleb128 0x40
 5171 18ed 50000000 		.4byte	0x50
 5172 18f1 00       		.byte	0
 5173 18f2 3F       		.uleb128 0x3f
 5174 18f3 49060000 		.4byte	.LASF260
 5175 18f7 05       		.byte	0x5
 5176 18f8 4D       		.byte	0x4d
 5177 18f9 25000000 		.4byte	0x25
 5178 18fd 0C190000 		.4byte	0x190c
 5179 1901 40       		.uleb128 0x40
 5180 1902 CD180000 		.4byte	0x18cd
 5181 1906 40       		.uleb128 0x40
 5182 1907 25070000 		.4byte	0x725
 5183 190b 00       		.byte	0
 5184 190c 41       		.uleb128 0x41
 5185 190d 7B0E0000 		.4byte	.LASF261
 5186 1911 9E000000 		.4byte	0x9e
 5187 1915 29190000 		.4byte	0x1929
 5188 1919 40       		.uleb128 0x40
 5189 191a 9E000000 		.4byte	0x9e
 5190 191e 40       		.uleb128 0x40
 5191 191f A7000000 		.4byte	0xa7
 5192 1923 40       		.uleb128 0x40
 5193 1924 97000000 		.4byte	0x97
 5194 1928 00       		.byte	0
 5195 1929 41       		.uleb128 0x41
 5196 192a D7070000 		.4byte	.LASF262
 5197 192e 9E000000 		.4byte	0x9e
 5198 1932 46190000 		.4byte	0x1946
 5199 1936 40       		.uleb128 0x40
 5200 1937 9E000000 		.4byte	0x9e
 5201 193b 40       		.uleb128 0x40
 5202 193c 25000000 		.4byte	0x25
 5203 1940 40       		.uleb128 0x40
ARM GAS  C:\Users\ddemidov\AppData\Local\Temp\ccBlgygZ.s 			page 125


 5204 1941 97000000 		.4byte	0x97
 5205 1945 00       		.byte	0
 5206 1946 42       		.uleb128 0x42
 5207 1947 EE020000 		.4byte	.LASF263
 5208 194b 08       		.byte	0x8
 5209 194c 30       		.byte	0x30
 5210 194d 57190000 		.4byte	0x1957
 5211 1951 40       		.uleb128 0x40
 5212 1952 9E000000 		.4byte	0x9e
 5213 1956 00       		.byte	0
 5214 1957 43       		.uleb128 0x43
 5215 1958 D50B0000 		.4byte	.LASF264
 5216 195c 08       		.byte	0x8
 5217 195d 2F       		.byte	0x2f
 5218 195e 9E000000 		.4byte	0x9e
 5219 1962 40       		.uleb128 0x40
 5220 1963 69000000 		.4byte	0x69
 5221 1967 00       		.byte	0
 5222 1968 00       		.byte	0
 5223              		.section	.debug_abbrev,"",%progbits
 5224              	.Ldebug_abbrev0:
 5225 0000 01       		.uleb128 0x1
 5226 0001 11       		.uleb128 0x11
 5227 0002 01       		.byte	0x1
 5228 0003 25       		.uleb128 0x25
 5229 0004 0E       		.uleb128 0xe
 5230 0005 13       		.uleb128 0x13
 5231 0006 0B       		.uleb128 0xb
 5232 0007 03       		.uleb128 0x3
 5233 0008 0E       		.uleb128 0xe
 5234 0009 1B       		.uleb128 0x1b
 5235 000a 0E       		.uleb128 0xe
 5236 000b 55       		.uleb128 0x55
 5237 000c 17       		.uleb128 0x17
 5238 000d 11       		.uleb128 0x11
 5239 000e 01       		.uleb128 0x1
 5240 000f 10       		.uleb128 0x10
 5241 0010 17       		.uleb128 0x17
 5242 0011 00       		.byte	0
 5243 0012 00       		.byte	0
 5244 0013 02       		.uleb128 0x2
 5245 0014 24       		.uleb128 0x24
 5246 0015 00       		.byte	0
 5247 0016 0B       		.uleb128 0xb
 5248 0017 0B       		.uleb128 0xb
 5249 0018 3E       		.uleb128 0x3e
 5250 0019 0B       		.uleb128 0xb
 5251 001a 03       		.uleb128 0x3
 5252 001b 08       		.uleb128 0x8
 5253 001c 00       		.byte	0
 5254 001d 00       		.byte	0
 5255 001e 03       		.uleb128 0x3
 5256 001f 16       		.uleb128 0x16
 5257 0020 00       		.byte	0
 5258 0021 03       		.uleb128 0x3
 5259 0022 0E       		.uleb128 0xe
 5260 0023 3A       		.uleb128 0x3a
ARM GAS  C:\Users\ddemidov\AppData\Local\Temp\ccBlgygZ.s 			page 126


 5261 0024 0B       		.uleb128 0xb
 5262 0025 3B       		.uleb128 0x3b
 5263 0026 0B       		.uleb128 0xb
 5264 0027 49       		.uleb128 0x49
 5265 0028 13       		.uleb128 0x13
 5266 0029 00       		.byte	0
 5267 002a 00       		.byte	0
 5268 002b 04       		.uleb128 0x4
 5269 002c 24       		.uleb128 0x24
 5270 002d 00       		.byte	0
 5271 002e 0B       		.uleb128 0xb
 5272 002f 0B       		.uleb128 0xb
 5273 0030 3E       		.uleb128 0x3e
 5274 0031 0B       		.uleb128 0xb
 5275 0032 03       		.uleb128 0x3
 5276 0033 0E       		.uleb128 0xe
 5277 0034 00       		.byte	0
 5278 0035 00       		.byte	0
 5279 0036 05       		.uleb128 0x5
 5280 0037 0F       		.uleb128 0xf
 5281 0038 00       		.byte	0
 5282 0039 0B       		.uleb128 0xb
 5283 003a 0B       		.uleb128 0xb
 5284 003b 00       		.byte	0
 5285 003c 00       		.byte	0
 5286 003d 06       		.uleb128 0x6
 5287 003e 0F       		.uleb128 0xf
 5288 003f 00       		.byte	0
 5289 0040 0B       		.uleb128 0xb
 5290 0041 0B       		.uleb128 0xb
 5291 0042 49       		.uleb128 0x49
 5292 0043 13       		.uleb128 0x13
 5293 0044 00       		.byte	0
 5294 0045 00       		.byte	0
 5295 0046 07       		.uleb128 0x7
 5296 0047 26       		.uleb128 0x26
 5297 0048 00       		.byte	0
 5298 0049 00       		.byte	0
 5299 004a 00       		.byte	0
 5300 004b 08       		.uleb128 0x8
 5301 004c 04       		.uleb128 0x4
 5302 004d 01       		.byte	0x1
 5303 004e 0B       		.uleb128 0xb
 5304 004f 0B       		.uleb128 0xb
 5305 0050 3A       		.uleb128 0x3a
 5306 0051 0B       		.uleb128 0xb
 5307 0052 3B       		.uleb128 0x3b
 5308 0053 0B       		.uleb128 0xb
 5309 0054 01       		.uleb128 0x1
 5310 0055 13       		.uleb128 0x13
 5311 0056 00       		.byte	0
 5312 0057 00       		.byte	0
 5313 0058 09       		.uleb128 0x9
 5314 0059 28       		.uleb128 0x28
 5315 005a 00       		.byte	0
 5316 005b 03       		.uleb128 0x3
 5317 005c 0E       		.uleb128 0xe
ARM GAS  C:\Users\ddemidov\AppData\Local\Temp\ccBlgygZ.s 			page 127


 5318 005d 1C       		.uleb128 0x1c
 5319 005e 0D       		.uleb128 0xd
 5320 005f 00       		.byte	0
 5321 0060 00       		.byte	0
 5322 0061 0A       		.uleb128 0xa
 5323 0062 13       		.uleb128 0x13
 5324 0063 01       		.byte	0x1
 5325 0064 03       		.uleb128 0x3
 5326 0065 0E       		.uleb128 0xe
 5327 0066 0B       		.uleb128 0xb
 5328 0067 0B       		.uleb128 0xb
 5329 0068 3A       		.uleb128 0x3a
 5330 0069 0B       		.uleb128 0xb
 5331 006a 3B       		.uleb128 0x3b
 5332 006b 0B       		.uleb128 0xb
 5333 006c 01       		.uleb128 0x1
 5334 006d 13       		.uleb128 0x13
 5335 006e 00       		.byte	0
 5336 006f 00       		.byte	0
 5337 0070 0B       		.uleb128 0xb
 5338 0071 0D       		.uleb128 0xd
 5339 0072 00       		.byte	0
 5340 0073 03       		.uleb128 0x3
 5341 0074 0E       		.uleb128 0xe
 5342 0075 3A       		.uleb128 0x3a
 5343 0076 0B       		.uleb128 0xb
 5344 0077 3B       		.uleb128 0x3b
 5345 0078 0B       		.uleb128 0xb
 5346 0079 49       		.uleb128 0x49
 5347 007a 13       		.uleb128 0x13
 5348 007b 38       		.uleb128 0x38
 5349 007c 0B       		.uleb128 0xb
 5350 007d 00       		.byte	0
 5351 007e 00       		.byte	0
 5352 007f 0C       		.uleb128 0xc
 5353 0080 01       		.uleb128 0x1
 5354 0081 01       		.byte	0x1
 5355 0082 49       		.uleb128 0x49
 5356 0083 13       		.uleb128 0x13
 5357 0084 01       		.uleb128 0x1
 5358 0085 13       		.uleb128 0x13
 5359 0086 00       		.byte	0
 5360 0087 00       		.byte	0
 5361 0088 0D       		.uleb128 0xd
 5362 0089 21       		.uleb128 0x21
 5363 008a 00       		.byte	0
 5364 008b 49       		.uleb128 0x49
 5365 008c 13       		.uleb128 0x13
 5366 008d 2F       		.uleb128 0x2f
 5367 008e 0B       		.uleb128 0xb
 5368 008f 00       		.byte	0
 5369 0090 00       		.byte	0
 5370 0091 0E       		.uleb128 0xe
 5371 0092 0D       		.uleb128 0xd
 5372 0093 00       		.byte	0
 5373 0094 03       		.uleb128 0x3
 5374 0095 08       		.uleb128 0x8
ARM GAS  C:\Users\ddemidov\AppData\Local\Temp\ccBlgygZ.s 			page 128


 5375 0096 3A       		.uleb128 0x3a
 5376 0097 0B       		.uleb128 0xb
 5377 0098 3B       		.uleb128 0x3b
 5378 0099 0B       		.uleb128 0xb
 5379 009a 49       		.uleb128 0x49
 5380 009b 13       		.uleb128 0x13
 5381 009c 38       		.uleb128 0x38
 5382 009d 0B       		.uleb128 0xb
 5383 009e 00       		.byte	0
 5384 009f 00       		.byte	0
 5385 00a0 0F       		.uleb128 0xf
 5386 00a1 2E       		.uleb128 0x2e
 5387 00a2 01       		.byte	0x1
 5388 00a3 03       		.uleb128 0x3
 5389 00a4 0E       		.uleb128 0xe
 5390 00a5 3A       		.uleb128 0x3a
 5391 00a6 0B       		.uleb128 0xb
 5392 00a7 3B       		.uleb128 0x3b
 5393 00a8 0B       		.uleb128 0xb
 5394 00a9 27       		.uleb128 0x27
 5395 00aa 19       		.uleb128 0x19
 5396 00ab 49       		.uleb128 0x49
 5397 00ac 13       		.uleb128 0x13
 5398 00ad 20       		.uleb128 0x20
 5399 00ae 0B       		.uleb128 0xb
 5400 00af 01       		.uleb128 0x1
 5401 00b0 13       		.uleb128 0x13
 5402 00b1 00       		.byte	0
 5403 00b2 00       		.byte	0
 5404 00b3 10       		.uleb128 0x10
 5405 00b4 05       		.uleb128 0x5
 5406 00b5 00       		.byte	0
 5407 00b6 03       		.uleb128 0x3
 5408 00b7 08       		.uleb128 0x8
 5409 00b8 3A       		.uleb128 0x3a
 5410 00b9 0B       		.uleb128 0xb
 5411 00ba 3B       		.uleb128 0x3b
 5412 00bb 0B       		.uleb128 0xb
 5413 00bc 49       		.uleb128 0x49
 5414 00bd 13       		.uleb128 0x13
 5415 00be 00       		.byte	0
 5416 00bf 00       		.byte	0
 5417 00c0 11       		.uleb128 0x11
 5418 00c1 2E       		.uleb128 0x2e
 5419 00c2 01       		.byte	0x1
 5420 00c3 03       		.uleb128 0x3
 5421 00c4 0E       		.uleb128 0xe
 5422 00c5 3A       		.uleb128 0x3a
 5423 00c6 0B       		.uleb128 0xb
 5424 00c7 3B       		.uleb128 0x3b
 5425 00c8 05       		.uleb128 0x5
 5426 00c9 27       		.uleb128 0x27
 5427 00ca 19       		.uleb128 0x19
 5428 00cb 20       		.uleb128 0x20
 5429 00cc 0B       		.uleb128 0xb
 5430 00cd 01       		.uleb128 0x1
 5431 00ce 13       		.uleb128 0x13
ARM GAS  C:\Users\ddemidov\AppData\Local\Temp\ccBlgygZ.s 			page 129


 5432 00cf 00       		.byte	0
 5433 00d0 00       		.byte	0
 5434 00d1 12       		.uleb128 0x12
 5435 00d2 05       		.uleb128 0x5
 5436 00d3 00       		.byte	0
 5437 00d4 03       		.uleb128 0x3
 5438 00d5 08       		.uleb128 0x8
 5439 00d6 3A       		.uleb128 0x3a
 5440 00d7 0B       		.uleb128 0xb
 5441 00d8 3B       		.uleb128 0x3b
 5442 00d9 05       		.uleb128 0x5
 5443 00da 49       		.uleb128 0x49
 5444 00db 13       		.uleb128 0x13
 5445 00dc 00       		.byte	0
 5446 00dd 00       		.byte	0
 5447 00de 13       		.uleb128 0x13
 5448 00df 05       		.uleb128 0x5
 5449 00e0 00       		.byte	0
 5450 00e1 03       		.uleb128 0x3
 5451 00e2 0E       		.uleb128 0xe
 5452 00e3 3A       		.uleb128 0x3a
 5453 00e4 0B       		.uleb128 0xb
 5454 00e5 3B       		.uleb128 0x3b
 5455 00e6 05       		.uleb128 0x5
 5456 00e7 49       		.uleb128 0x49
 5457 00e8 13       		.uleb128 0x13
 5458 00e9 00       		.byte	0
 5459 00ea 00       		.byte	0
 5460 00eb 14       		.uleb128 0x14
 5461 00ec 34       		.uleb128 0x34
 5462 00ed 00       		.byte	0
 5463 00ee 03       		.uleb128 0x3
 5464 00ef 0E       		.uleb128 0xe
 5465 00f0 3A       		.uleb128 0x3a
 5466 00f1 0B       		.uleb128 0xb
 5467 00f2 3B       		.uleb128 0x3b
 5468 00f3 05       		.uleb128 0x5
 5469 00f4 49       		.uleb128 0x49
 5470 00f5 13       		.uleb128 0x13
 5471 00f6 00       		.byte	0
 5472 00f7 00       		.byte	0
 5473 00f8 15       		.uleb128 0x15
 5474 00f9 0B       		.uleb128 0xb
 5475 00fa 01       		.byte	0x1
 5476 00fb 00       		.byte	0
 5477 00fc 00       		.byte	0
 5478 00fd 16       		.uleb128 0x16
 5479 00fe 26       		.uleb128 0x26
 5480 00ff 00       		.byte	0
 5481 0100 49       		.uleb128 0x49
 5482 0101 13       		.uleb128 0x13
 5483 0102 00       		.byte	0
 5484 0103 00       		.byte	0
 5485 0104 17       		.uleb128 0x17
 5486 0105 05       		.uleb128 0x5
 5487 0106 00       		.byte	0
 5488 0107 03       		.uleb128 0x3
ARM GAS  C:\Users\ddemidov\AppData\Local\Temp\ccBlgygZ.s 			page 130


 5489 0108 0E       		.uleb128 0xe
 5490 0109 3A       		.uleb128 0x3a
 5491 010a 0B       		.uleb128 0xb
 5492 010b 3B       		.uleb128 0x3b
 5493 010c 0B       		.uleb128 0xb
 5494 010d 49       		.uleb128 0x49
 5495 010e 13       		.uleb128 0x13
 5496 010f 00       		.byte	0
 5497 0110 00       		.byte	0
 5498 0111 18       		.uleb128 0x18
 5499 0112 34       		.uleb128 0x34
 5500 0113 00       		.byte	0
 5501 0114 03       		.uleb128 0x3
 5502 0115 08       		.uleb128 0x8
 5503 0116 3A       		.uleb128 0x3a
 5504 0117 0B       		.uleb128 0xb
 5505 0118 3B       		.uleb128 0x3b
 5506 0119 0B       		.uleb128 0xb
 5507 011a 49       		.uleb128 0x49
 5508 011b 13       		.uleb128 0x13
 5509 011c 00       		.byte	0
 5510 011d 00       		.byte	0
 5511 011e 19       		.uleb128 0x19
 5512 011f 34       		.uleb128 0x34
 5513 0120 00       		.byte	0
 5514 0121 03       		.uleb128 0x3
 5515 0122 0E       		.uleb128 0xe
 5516 0123 3A       		.uleb128 0x3a
 5517 0124 0B       		.uleb128 0xb
 5518 0125 3B       		.uleb128 0x3b
 5519 0126 0B       		.uleb128 0xb
 5520 0127 49       		.uleb128 0x49
 5521 0128 13       		.uleb128 0x13
 5522 0129 00       		.byte	0
 5523 012a 00       		.byte	0
 5524 012b 1A       		.uleb128 0x1a
 5525 012c 2E       		.uleb128 0x2e
 5526 012d 01       		.byte	0x1
 5527 012e 03       		.uleb128 0x3
 5528 012f 0E       		.uleb128 0xe
 5529 0130 3A       		.uleb128 0x3a
 5530 0131 0B       		.uleb128 0xb
 5531 0132 3B       		.uleb128 0x3b
 5532 0133 05       		.uleb128 0x5
 5533 0134 27       		.uleb128 0x27
 5534 0135 19       		.uleb128 0x19
 5535 0136 49       		.uleb128 0x49
 5536 0137 13       		.uleb128 0x13
 5537 0138 20       		.uleb128 0x20
 5538 0139 0B       		.uleb128 0xb
 5539 013a 01       		.uleb128 0x1
 5540 013b 13       		.uleb128 0x13
 5541 013c 00       		.byte	0
 5542 013d 00       		.byte	0
 5543 013e 1B       		.uleb128 0x1b
 5544 013f 34       		.uleb128 0x34
 5545 0140 00       		.byte	0
ARM GAS  C:\Users\ddemidov\AppData\Local\Temp\ccBlgygZ.s 			page 131


 5546 0141 03       		.uleb128 0x3
 5547 0142 08       		.uleb128 0x8
 5548 0143 3A       		.uleb128 0x3a
 5549 0144 0B       		.uleb128 0xb
 5550 0145 3B       		.uleb128 0x3b
 5551 0146 05       		.uleb128 0x5
 5552 0147 49       		.uleb128 0x49
 5553 0148 13       		.uleb128 0x13
 5554 0149 00       		.byte	0
 5555 014a 00       		.byte	0
 5556 014b 1C       		.uleb128 0x1c
 5557 014c 2E       		.uleb128 0x2e
 5558 014d 01       		.byte	0x1
 5559 014e 3F       		.uleb128 0x3f
 5560 014f 19       		.uleb128 0x19
 5561 0150 03       		.uleb128 0x3
 5562 0151 0E       		.uleb128 0xe
 5563 0152 3A       		.uleb128 0x3a
 5564 0153 0B       		.uleb128 0xb
 5565 0154 3B       		.uleb128 0x3b
 5566 0155 05       		.uleb128 0x5
 5567 0156 27       		.uleb128 0x27
 5568 0157 19       		.uleb128 0x19
 5569 0158 49       		.uleb128 0x49
 5570 0159 13       		.uleb128 0x13
 5571 015a 20       		.uleb128 0x20
 5572 015b 0B       		.uleb128 0xb
 5573 015c 01       		.uleb128 0x1
 5574 015d 13       		.uleb128 0x13
 5575 015e 00       		.byte	0
 5576 015f 00       		.byte	0
 5577 0160 1D       		.uleb128 0x1d
 5578 0161 2E       		.uleb128 0x2e
 5579 0162 01       		.byte	0x1
 5580 0163 03       		.uleb128 0x3
 5581 0164 0E       		.uleb128 0xe
 5582 0165 3A       		.uleb128 0x3a
 5583 0166 0B       		.uleb128 0xb
 5584 0167 3B       		.uleb128 0x3b
 5585 0168 0B       		.uleb128 0xb
 5586 0169 27       		.uleb128 0x27
 5587 016a 19       		.uleb128 0x19
 5588 016b 11       		.uleb128 0x11
 5589 016c 01       		.uleb128 0x1
 5590 016d 12       		.uleb128 0x12
 5591 016e 06       		.uleb128 0x6
 5592 016f 40       		.uleb128 0x40
 5593 0170 18       		.uleb128 0x18
 5594 0171 9742     		.uleb128 0x2117
 5595 0173 19       		.uleb128 0x19
 5596 0174 01       		.uleb128 0x1
 5597 0175 13       		.uleb128 0x13
 5598 0176 00       		.byte	0
 5599 0177 00       		.byte	0
 5600 0178 1E       		.uleb128 0x1e
 5601 0179 05       		.uleb128 0x5
 5602 017a 00       		.byte	0
ARM GAS  C:\Users\ddemidov\AppData\Local\Temp\ccBlgygZ.s 			page 132


 5603 017b 03       		.uleb128 0x3
 5604 017c 08       		.uleb128 0x8
 5605 017d 3A       		.uleb128 0x3a
 5606 017e 0B       		.uleb128 0xb
 5607 017f 3B       		.uleb128 0x3b
 5608 0180 0B       		.uleb128 0xb
 5609 0181 49       		.uleb128 0x49
 5610 0182 13       		.uleb128 0x13
 5611 0183 02       		.uleb128 0x2
 5612 0184 17       		.uleb128 0x17
 5613 0185 00       		.byte	0
 5614 0186 00       		.byte	0
 5615 0187 1F       		.uleb128 0x1f
 5616 0188 34       		.uleb128 0x34
 5617 0189 00       		.byte	0
 5618 018a 03       		.uleb128 0x3
 5619 018b 08       		.uleb128 0x8
 5620 018c 3A       		.uleb128 0x3a
 5621 018d 0B       		.uleb128 0xb
 5622 018e 3B       		.uleb128 0x3b
 5623 018f 0B       		.uleb128 0xb
 5624 0190 49       		.uleb128 0x49
 5625 0191 13       		.uleb128 0x13
 5626 0192 02       		.uleb128 0x2
 5627 0193 17       		.uleb128 0x17
 5628 0194 00       		.byte	0
 5629 0195 00       		.byte	0
 5630 0196 20       		.uleb128 0x20
 5631 0197 35       		.uleb128 0x35
 5632 0198 00       		.byte	0
 5633 0199 49       		.uleb128 0x49
 5634 019a 13       		.uleb128 0x13
 5635 019b 00       		.byte	0
 5636 019c 00       		.byte	0
 5637 019d 21       		.uleb128 0x21
 5638 019e 2E       		.uleb128 0x2e
 5639 019f 01       		.byte	0x1
 5640 01a0 03       		.uleb128 0x3
 5641 01a1 0E       		.uleb128 0xe
 5642 01a2 3A       		.uleb128 0x3a
 5643 01a3 0B       		.uleb128 0xb
 5644 01a4 3B       		.uleb128 0x3b
 5645 01a5 05       		.uleb128 0x5
 5646 01a6 27       		.uleb128 0x27
 5647 01a7 19       		.uleb128 0x19
 5648 01a8 49       		.uleb128 0x49
 5649 01a9 13       		.uleb128 0x13
 5650 01aa 11       		.uleb128 0x11
 5651 01ab 01       		.uleb128 0x1
 5652 01ac 12       		.uleb128 0x12
 5653 01ad 06       		.uleb128 0x6
 5654 01ae 40       		.uleb128 0x40
 5655 01af 18       		.uleb128 0x18
 5656 01b0 9742     		.uleb128 0x2117
 5657 01b2 19       		.uleb128 0x19
 5658 01b3 01       		.uleb128 0x1
 5659 01b4 13       		.uleb128 0x13
ARM GAS  C:\Users\ddemidov\AppData\Local\Temp\ccBlgygZ.s 			page 133


 5660 01b5 00       		.byte	0
 5661 01b6 00       		.byte	0
 5662 01b7 22       		.uleb128 0x22
 5663 01b8 05       		.uleb128 0x5
 5664 01b9 00       		.byte	0
 5665 01ba 03       		.uleb128 0x3
 5666 01bb 0E       		.uleb128 0xe
 5667 01bc 3A       		.uleb128 0x3a
 5668 01bd 0B       		.uleb128 0xb
 5669 01be 3B       		.uleb128 0x3b
 5670 01bf 05       		.uleb128 0x5
 5671 01c0 49       		.uleb128 0x49
 5672 01c1 13       		.uleb128 0x13
 5673 01c2 02       		.uleb128 0x2
 5674 01c3 17       		.uleb128 0x17
 5675 01c4 00       		.byte	0
 5676 01c5 00       		.byte	0
 5677 01c6 23       		.uleb128 0x23
 5678 01c7 34       		.uleb128 0x34
 5679 01c8 00       		.byte	0
 5680 01c9 03       		.uleb128 0x3
 5681 01ca 08       		.uleb128 0x8
 5682 01cb 3A       		.uleb128 0x3a
 5683 01cc 0B       		.uleb128 0xb
 5684 01cd 3B       		.uleb128 0x3b
 5685 01ce 05       		.uleb128 0x5
 5686 01cf 49       		.uleb128 0x49
 5687 01d0 13       		.uleb128 0x13
 5688 01d1 02       		.uleb128 0x2
 5689 01d2 17       		.uleb128 0x17
 5690 01d3 00       		.byte	0
 5691 01d4 00       		.byte	0
 5692 01d5 24       		.uleb128 0x24
 5693 01d6 34       		.uleb128 0x34
 5694 01d7 00       		.byte	0
 5695 01d8 03       		.uleb128 0x3
 5696 01d9 0E       		.uleb128 0xe
 5697 01da 3A       		.uleb128 0x3a
 5698 01db 0B       		.uleb128 0xb
 5699 01dc 3B       		.uleb128 0x3b
 5700 01dd 05       		.uleb128 0x5
 5701 01de 49       		.uleb128 0x49
 5702 01df 13       		.uleb128 0x13
 5703 01e0 02       		.uleb128 0x2
 5704 01e1 17       		.uleb128 0x17
 5705 01e2 00       		.byte	0
 5706 01e3 00       		.byte	0
 5707 01e4 25       		.uleb128 0x25
 5708 01e5 898201   		.uleb128 0x4109
 5709 01e8 01       		.byte	0x1
 5710 01e9 11       		.uleb128 0x11
 5711 01ea 01       		.uleb128 0x1
 5712 01eb 31       		.uleb128 0x31
 5713 01ec 13       		.uleb128 0x13
 5714 01ed 00       		.byte	0
 5715 01ee 00       		.byte	0
 5716 01ef 26       		.uleb128 0x26
ARM GAS  C:\Users\ddemidov\AppData\Local\Temp\ccBlgygZ.s 			page 134


 5717 01f0 8A8201   		.uleb128 0x410a
 5718 01f3 00       		.byte	0
 5719 01f4 02       		.uleb128 0x2
 5720 01f5 18       		.uleb128 0x18
 5721 01f6 9142     		.uleb128 0x2111
 5722 01f8 18       		.uleb128 0x18
 5723 01f9 00       		.byte	0
 5724 01fa 00       		.byte	0
 5725 01fb 27       		.uleb128 0x27
 5726 01fc 2E       		.uleb128 0x2e
 5727 01fd 01       		.byte	0x1
 5728 01fe 31       		.uleb128 0x31
 5729 01ff 13       		.uleb128 0x13
 5730 0200 11       		.uleb128 0x11
 5731 0201 01       		.uleb128 0x1
 5732 0202 12       		.uleb128 0x12
 5733 0203 06       		.uleb128 0x6
 5734 0204 40       		.uleb128 0x40
 5735 0205 18       		.uleb128 0x18
 5736 0206 9742     		.uleb128 0x2117
 5737 0208 19       		.uleb128 0x19
 5738 0209 01       		.uleb128 0x1
 5739 020a 13       		.uleb128 0x13
 5740 020b 00       		.byte	0
 5741 020c 00       		.byte	0
 5742 020d 28       		.uleb128 0x28
 5743 020e 05       		.uleb128 0x5
 5744 020f 00       		.byte	0
 5745 0210 31       		.uleb128 0x31
 5746 0211 13       		.uleb128 0x13
 5747 0212 02       		.uleb128 0x2
 5748 0213 18       		.uleb128 0x18
 5749 0214 00       		.byte	0
 5750 0215 00       		.byte	0
 5751 0216 29       		.uleb128 0x29
 5752 0217 05       		.uleb128 0x5
 5753 0218 00       		.byte	0
 5754 0219 31       		.uleb128 0x31
 5755 021a 13       		.uleb128 0x13
 5756 021b 02       		.uleb128 0x2
 5757 021c 17       		.uleb128 0x17
 5758 021d 00       		.byte	0
 5759 021e 00       		.byte	0
 5760 021f 2A       		.uleb128 0x2a
 5761 0220 34       		.uleb128 0x34
 5762 0221 00       		.byte	0
 5763 0222 31       		.uleb128 0x31
 5764 0223 13       		.uleb128 0x13
 5765 0224 02       		.uleb128 0x2
 5766 0225 17       		.uleb128 0x17
 5767 0226 00       		.byte	0
 5768 0227 00       		.byte	0
 5769 0228 2B       		.uleb128 0x2b
 5770 0229 05       		.uleb128 0x5
 5771 022a 00       		.byte	0
 5772 022b 31       		.uleb128 0x31
 5773 022c 13       		.uleb128 0x13
ARM GAS  C:\Users\ddemidov\AppData\Local\Temp\ccBlgygZ.s 			page 135


 5774 022d 1C       		.uleb128 0x1c
 5775 022e 0B       		.uleb128 0xb
 5776 022f 00       		.byte	0
 5777 0230 00       		.byte	0
 5778 0231 2C       		.uleb128 0x2c
 5779 0232 0B       		.uleb128 0xb
 5780 0233 01       		.byte	0x1
 5781 0234 11       		.uleb128 0x11
 5782 0235 01       		.uleb128 0x1
 5783 0236 12       		.uleb128 0x12
 5784 0237 06       		.uleb128 0x6
 5785 0238 00       		.byte	0
 5786 0239 00       		.byte	0
 5787 023a 2D       		.uleb128 0x2d
 5788 023b 34       		.uleb128 0x34
 5789 023c 00       		.byte	0
 5790 023d 31       		.uleb128 0x31
 5791 023e 13       		.uleb128 0x13
 5792 023f 02       		.uleb128 0x2
 5793 0240 18       		.uleb128 0x18
 5794 0241 00       		.byte	0
 5795 0242 00       		.byte	0
 5796 0243 2E       		.uleb128 0x2e
 5797 0244 34       		.uleb128 0x34
 5798 0245 00       		.byte	0
 5799 0246 31       		.uleb128 0x31
 5800 0247 13       		.uleb128 0x13
 5801 0248 1C       		.uleb128 0x1c
 5802 0249 0B       		.uleb128 0xb
 5803 024a 00       		.byte	0
 5804 024b 00       		.byte	0
 5805 024c 2F       		.uleb128 0x2f
 5806 024d 898201   		.uleb128 0x4109
 5807 0250 01       		.byte	0x1
 5808 0251 11       		.uleb128 0x11
 5809 0252 01       		.uleb128 0x1
 5810 0253 31       		.uleb128 0x31
 5811 0254 13       		.uleb128 0x13
 5812 0255 01       		.uleb128 0x1
 5813 0256 13       		.uleb128 0x13
 5814 0257 00       		.byte	0
 5815 0258 00       		.byte	0
 5816 0259 30       		.uleb128 0x30
 5817 025a 8A8201   		.uleb128 0x410a
 5818 025d 00       		.byte	0
 5819 025e 31       		.uleb128 0x31
 5820 025f 13       		.uleb128 0x13
 5821 0260 9142     		.uleb128 0x2111
 5822 0262 18       		.uleb128 0x18
 5823 0263 00       		.byte	0
 5824 0264 00       		.byte	0
 5825 0265 31       		.uleb128 0x31
 5826 0266 34       		.uleb128 0x34
 5827 0267 00       		.byte	0
 5828 0268 03       		.uleb128 0x3
 5829 0269 0E       		.uleb128 0xe
 5830 026a 3A       		.uleb128 0x3a
ARM GAS  C:\Users\ddemidov\AppData\Local\Temp\ccBlgygZ.s 			page 136


 5831 026b 0B       		.uleb128 0xb
 5832 026c 3B       		.uleb128 0x3b
 5833 026d 05       		.uleb128 0x5
 5834 026e 49       		.uleb128 0x49
 5835 026f 13       		.uleb128 0x13
 5836 0270 02       		.uleb128 0x2
 5837 0271 18       		.uleb128 0x18
 5838 0272 00       		.byte	0
 5839 0273 00       		.byte	0
 5840 0274 32       		.uleb128 0x32
 5841 0275 05       		.uleb128 0x5
 5842 0276 00       		.byte	0
 5843 0277 03       		.uleb128 0x3
 5844 0278 08       		.uleb128 0x8
 5845 0279 3A       		.uleb128 0x3a
 5846 027a 0B       		.uleb128 0xb
 5847 027b 3B       		.uleb128 0x3b
 5848 027c 05       		.uleb128 0x5
 5849 027d 49       		.uleb128 0x49
 5850 027e 13       		.uleb128 0x13
 5851 027f 02       		.uleb128 0x2
 5852 0280 17       		.uleb128 0x17
 5853 0281 00       		.byte	0
 5854 0282 00       		.byte	0
 5855 0283 33       		.uleb128 0x33
 5856 0284 34       		.uleb128 0x34
 5857 0285 00       		.byte	0
 5858 0286 03       		.uleb128 0x3
 5859 0287 08       		.uleb128 0x8
 5860 0288 3A       		.uleb128 0x3a
 5861 0289 0B       		.uleb128 0xb
 5862 028a 3B       		.uleb128 0x3b
 5863 028b 05       		.uleb128 0x5
 5864 028c 49       		.uleb128 0x49
 5865 028d 13       		.uleb128 0x13
 5866 028e 02       		.uleb128 0x2
 5867 028f 18       		.uleb128 0x18
 5868 0290 00       		.byte	0
 5869 0291 00       		.byte	0
 5870 0292 34       		.uleb128 0x34
 5871 0293 0B       		.uleb128 0xb
 5872 0294 01       		.byte	0x1
 5873 0295 11       		.uleb128 0x11
 5874 0296 01       		.uleb128 0x1
 5875 0297 12       		.uleb128 0x12
 5876 0298 06       		.uleb128 0x6
 5877 0299 01       		.uleb128 0x1
 5878 029a 13       		.uleb128 0x13
 5879 029b 00       		.byte	0
 5880 029c 00       		.byte	0
 5881 029d 35       		.uleb128 0x35
 5882 029e 1D       		.uleb128 0x1d
 5883 029f 01       		.byte	0x1
 5884 02a0 31       		.uleb128 0x31
 5885 02a1 13       		.uleb128 0x13
 5886 02a2 52       		.uleb128 0x52
 5887 02a3 01       		.uleb128 0x1
ARM GAS  C:\Users\ddemidov\AppData\Local\Temp\ccBlgygZ.s 			page 137


 5888 02a4 55       		.uleb128 0x55
 5889 02a5 17       		.uleb128 0x17
 5890 02a6 58       		.uleb128 0x58
 5891 02a7 0B       		.uleb128 0xb
 5892 02a8 59       		.uleb128 0x59
 5893 02a9 05       		.uleb128 0x5
 5894 02aa 01       		.uleb128 0x1
 5895 02ab 13       		.uleb128 0x13
 5896 02ac 00       		.byte	0
 5897 02ad 00       		.byte	0
 5898 02ae 36       		.uleb128 0x36
 5899 02af 0B       		.uleb128 0xb
 5900 02b0 01       		.byte	0x1
 5901 02b1 55       		.uleb128 0x55
 5902 02b2 17       		.uleb128 0x17
 5903 02b3 00       		.byte	0
 5904 02b4 00       		.byte	0
 5905 02b5 37       		.uleb128 0x37
 5906 02b6 1D       		.uleb128 0x1d
 5907 02b7 01       		.byte	0x1
 5908 02b8 31       		.uleb128 0x31
 5909 02b9 13       		.uleb128 0x13
 5910 02ba 11       		.uleb128 0x11
 5911 02bb 01       		.uleb128 0x1
 5912 02bc 12       		.uleb128 0x12
 5913 02bd 06       		.uleb128 0x6
 5914 02be 58       		.uleb128 0x58
 5915 02bf 0B       		.uleb128 0xb
 5916 02c0 59       		.uleb128 0x59
 5917 02c1 05       		.uleb128 0x5
 5918 02c2 01       		.uleb128 0x1
 5919 02c3 13       		.uleb128 0x13
 5920 02c4 00       		.byte	0
 5921 02c5 00       		.byte	0
 5922 02c6 38       		.uleb128 0x38
 5923 02c7 1D       		.uleb128 0x1d
 5924 02c8 01       		.byte	0x1
 5925 02c9 31       		.uleb128 0x31
 5926 02ca 13       		.uleb128 0x13
 5927 02cb 52       		.uleb128 0x52
 5928 02cc 01       		.uleb128 0x1
 5929 02cd 55       		.uleb128 0x55
 5930 02ce 17       		.uleb128 0x17
 5931 02cf 58       		.uleb128 0x58
 5932 02d0 0B       		.uleb128 0xb
 5933 02d1 59       		.uleb128 0x59
 5934 02d2 0B       		.uleb128 0xb
 5935 02d3 00       		.byte	0
 5936 02d4 00       		.byte	0
 5937 02d5 39       		.uleb128 0x39
 5938 02d6 2E       		.uleb128 0x2e
 5939 02d7 01       		.byte	0x1
 5940 02d8 3F       		.uleb128 0x3f
 5941 02d9 19       		.uleb128 0x19
 5942 02da 03       		.uleb128 0x3
 5943 02db 0E       		.uleb128 0xe
 5944 02dc 3A       		.uleb128 0x3a
ARM GAS  C:\Users\ddemidov\AppData\Local\Temp\ccBlgygZ.s 			page 138


 5945 02dd 0B       		.uleb128 0xb
 5946 02de 3B       		.uleb128 0x3b
 5947 02df 05       		.uleb128 0x5
 5948 02e0 27       		.uleb128 0x27
 5949 02e1 19       		.uleb128 0x19
 5950 02e2 49       		.uleb128 0x49
 5951 02e3 13       		.uleb128 0x13
 5952 02e4 11       		.uleb128 0x11
 5953 02e5 01       		.uleb128 0x1
 5954 02e6 12       		.uleb128 0x12
 5955 02e7 06       		.uleb128 0x6
 5956 02e8 40       		.uleb128 0x40
 5957 02e9 18       		.uleb128 0x18
 5958 02ea 9742     		.uleb128 0x2117
 5959 02ec 19       		.uleb128 0x19
 5960 02ed 01       		.uleb128 0x1
 5961 02ee 13       		.uleb128 0x13
 5962 02ef 00       		.byte	0
 5963 02f0 00       		.byte	0
 5964 02f1 3A       		.uleb128 0x3a
 5965 02f2 898201   		.uleb128 0x4109
 5966 02f5 00       		.byte	0
 5967 02f6 11       		.uleb128 0x11
 5968 02f7 01       		.uleb128 0x1
 5969 02f8 31       		.uleb128 0x31
 5970 02f9 13       		.uleb128 0x13
 5971 02fa 00       		.byte	0
 5972 02fb 00       		.byte	0
 5973 02fc 3B       		.uleb128 0x3b
 5974 02fd 05       		.uleb128 0x5
 5975 02fe 00       		.byte	0
 5976 02ff 03       		.uleb128 0x3
 5977 0300 0E       		.uleb128 0xe
 5978 0301 3A       		.uleb128 0x3a
 5979 0302 0B       		.uleb128 0xb
 5980 0303 3B       		.uleb128 0x3b
 5981 0304 05       		.uleb128 0x5
 5982 0305 49       		.uleb128 0x49
 5983 0306 13       		.uleb128 0x13
 5984 0307 02       		.uleb128 0x2
 5985 0308 18       		.uleb128 0x18
 5986 0309 00       		.byte	0
 5987 030a 00       		.byte	0
 5988 030b 3C       		.uleb128 0x3c
 5989 030c 34       		.uleb128 0x34
 5990 030d 00       		.byte	0
 5991 030e 31       		.uleb128 0x31
 5992 030f 13       		.uleb128 0x13
 5993 0310 00       		.byte	0
 5994 0311 00       		.byte	0
 5995 0312 3D       		.uleb128 0x3d
 5996 0313 05       		.uleb128 0x5
 5997 0314 00       		.byte	0
 5998 0315 31       		.uleb128 0x31
 5999 0316 13       		.uleb128 0x13
 6000 0317 00       		.byte	0
 6001 0318 00       		.byte	0
ARM GAS  C:\Users\ddemidov\AppData\Local\Temp\ccBlgygZ.s 			page 139


 6002 0319 3E       		.uleb128 0x3e
 6003 031a 34       		.uleb128 0x34
 6004 031b 00       		.byte	0
 6005 031c 03       		.uleb128 0x3
 6006 031d 0E       		.uleb128 0xe
 6007 031e 3A       		.uleb128 0x3a
 6008 031f 0B       		.uleb128 0xb
 6009 0320 3B       		.uleb128 0x3b
 6010 0321 05       		.uleb128 0x5
 6011 0322 49       		.uleb128 0x49
 6012 0323 13       		.uleb128 0x13
 6013 0324 3F       		.uleb128 0x3f
 6014 0325 19       		.uleb128 0x19
 6015 0326 02       		.uleb128 0x2
 6016 0327 18       		.uleb128 0x18
 6017 0328 00       		.byte	0
 6018 0329 00       		.byte	0
 6019 032a 3F       		.uleb128 0x3f
 6020 032b 2E       		.uleb128 0x2e
 6021 032c 01       		.byte	0x1
 6022 032d 3F       		.uleb128 0x3f
 6023 032e 19       		.uleb128 0x19
 6024 032f 03       		.uleb128 0x3
 6025 0330 0E       		.uleb128 0xe
 6026 0331 3A       		.uleb128 0x3a
 6027 0332 0B       		.uleb128 0xb
 6028 0333 3B       		.uleb128 0x3b
 6029 0334 0B       		.uleb128 0xb
 6030 0335 27       		.uleb128 0x27
 6031 0336 19       		.uleb128 0x19
 6032 0337 49       		.uleb128 0x49
 6033 0338 13       		.uleb128 0x13
 6034 0339 3C       		.uleb128 0x3c
 6035 033a 19       		.uleb128 0x19
 6036 033b 01       		.uleb128 0x1
 6037 033c 13       		.uleb128 0x13
 6038 033d 00       		.byte	0
 6039 033e 00       		.byte	0
 6040 033f 40       		.uleb128 0x40
 6041 0340 05       		.uleb128 0x5
 6042 0341 00       		.byte	0
 6043 0342 49       		.uleb128 0x49
 6044 0343 13       		.uleb128 0x13
 6045 0344 00       		.byte	0
 6046 0345 00       		.byte	0
 6047 0346 41       		.uleb128 0x41
 6048 0347 2E       		.uleb128 0x2e
 6049 0348 01       		.byte	0x1
 6050 0349 3F       		.uleb128 0x3f
 6051 034a 19       		.uleb128 0x19
 6052 034b 03       		.uleb128 0x3
 6053 034c 0E       		.uleb128 0xe
 6054 034d 27       		.uleb128 0x27
 6055 034e 19       		.uleb128 0x19
 6056 034f 49       		.uleb128 0x49
 6057 0350 13       		.uleb128 0x13
 6058 0351 34       		.uleb128 0x34
ARM GAS  C:\Users\ddemidov\AppData\Local\Temp\ccBlgygZ.s 			page 140


 6059 0352 19       		.uleb128 0x19
 6060 0353 3C       		.uleb128 0x3c
 6061 0354 19       		.uleb128 0x19
 6062 0355 01       		.uleb128 0x1
 6063 0356 13       		.uleb128 0x13
 6064 0357 00       		.byte	0
 6065 0358 00       		.byte	0
 6066 0359 42       		.uleb128 0x42
 6067 035a 2E       		.uleb128 0x2e
 6068 035b 01       		.byte	0x1
 6069 035c 3F       		.uleb128 0x3f
 6070 035d 19       		.uleb128 0x19
 6071 035e 03       		.uleb128 0x3
 6072 035f 0E       		.uleb128 0xe
 6073 0360 3A       		.uleb128 0x3a
 6074 0361 0B       		.uleb128 0xb
 6075 0362 3B       		.uleb128 0x3b
 6076 0363 0B       		.uleb128 0xb
 6077 0364 27       		.uleb128 0x27
 6078 0365 19       		.uleb128 0x19
 6079 0366 3C       		.uleb128 0x3c
 6080 0367 19       		.uleb128 0x19
 6081 0368 01       		.uleb128 0x1
 6082 0369 13       		.uleb128 0x13
 6083 036a 00       		.byte	0
 6084 036b 00       		.byte	0
 6085 036c 43       		.uleb128 0x43
 6086 036d 2E       		.uleb128 0x2e
 6087 036e 01       		.byte	0x1
 6088 036f 3F       		.uleb128 0x3f
 6089 0370 19       		.uleb128 0x19
 6090 0371 03       		.uleb128 0x3
 6091 0372 0E       		.uleb128 0xe
 6092 0373 3A       		.uleb128 0x3a
 6093 0374 0B       		.uleb128 0xb
 6094 0375 3B       		.uleb128 0x3b
 6095 0376 0B       		.uleb128 0xb
 6096 0377 27       		.uleb128 0x27
 6097 0378 19       		.uleb128 0x19
 6098 0379 49       		.uleb128 0x49
 6099 037a 13       		.uleb128 0x13
 6100 037b 3C       		.uleb128 0x3c
 6101 037c 19       		.uleb128 0x19
 6102 037d 00       		.byte	0
 6103 037e 00       		.byte	0
 6104 037f 00       		.byte	0
 6105              		.section	.debug_loc,"",%progbits
 6106              	.Ldebug_loc0:
 6107              	.LLST0:
 6108 0000 00000000 		.4byte	.LVL0
 6109 0004 02000000 		.4byte	.LVL1
 6110 0008 0100     		.2byte	0x1
 6111 000a 50       		.byte	0x50
 6112 000b 02000000 		.4byte	.LVL1
 6113 000f 10000000 		.4byte	.LFE10
 6114 0013 0400     		.2byte	0x4
 6115 0015 F3       		.byte	0xf3
ARM GAS  C:\Users\ddemidov\AppData\Local\Temp\ccBlgygZ.s 			page 141


 6116 0016 01       		.uleb128 0x1
 6117 0017 50       		.byte	0x50
 6118 0018 9F       		.byte	0x9f
 6119 0019 00000000 		.4byte	0
 6120 001d 00000000 		.4byte	0
 6121              	.LLST1:
 6122 0021 00000000 		.4byte	.LVL0
 6123 0025 02000000 		.4byte	.LVL1
 6124 0029 0100     		.2byte	0x1
 6125 002b 51       		.byte	0x51
 6126 002c 02000000 		.4byte	.LVL1
 6127 0030 0C000000 		.4byte	.LVL3
 6128 0034 0B00     		.2byte	0xb
 6129 0036 70       		.byte	0x70
 6130 0037 00       		.sleb128 0
 6131 0038 20       		.byte	0x20
 6132 0039 F3       		.byte	0xf3
 6133 003a 01       		.uleb128 0x1
 6134 003b 51       		.byte	0x51
 6135 003c 22       		.byte	0x22
 6136 003d 70       		.byte	0x70
 6137 003e 00       		.sleb128 0
 6138 003f 22       		.byte	0x22
 6139 0040 9F       		.byte	0x9f
 6140 0041 0C000000 		.4byte	.LVL3
 6141 0045 0E000000 		.4byte	.LVL4
 6142 0049 0B00     		.2byte	0xb
 6143 004b 70       		.byte	0x70
 6144 004c 00       		.sleb128 0
 6145 004d 20       		.byte	0x20
 6146 004e 70       		.byte	0x70
 6147 004f 00       		.sleb128 0
 6148 0050 22       		.byte	0x22
 6149 0051 F3       		.byte	0xf3
 6150 0052 01       		.uleb128 0x1
 6151 0053 51       		.byte	0x51
 6152 0054 22       		.byte	0x22
 6153 0055 9F       		.byte	0x9f
 6154 0056 0E000000 		.4byte	.LVL4
 6155 005a 10000000 		.4byte	.LFE10
 6156 005e 0B00     		.2byte	0xb
 6157 0060 70       		.byte	0x70
 6158 0061 00       		.sleb128 0
 6159 0062 20       		.byte	0x20
 6160 0063 F3       		.byte	0xf3
 6161 0064 01       		.uleb128 0x1
 6162 0065 51       		.byte	0x51
 6163 0066 22       		.byte	0x22
 6164 0067 70       		.byte	0x70
 6165 0068 00       		.sleb128 0
 6166 0069 22       		.byte	0x22
 6167 006a 9F       		.byte	0x9f
 6168 006b 00000000 		.4byte	0
 6169 006f 00000000 		.4byte	0
 6170              	.LLST2:
 6171 0073 00000000 		.4byte	.LVL0
 6172 0077 06000000 		.4byte	.LVL2
ARM GAS  C:\Users\ddemidov\AppData\Local\Temp\ccBlgygZ.s 			page 142


 6173 007b 0100     		.2byte	0x1
 6174 007d 50       		.byte	0x50
 6175 007e 06000000 		.4byte	.LVL2
 6176 0082 0C000000 		.4byte	.LVL3
 6177 0086 0300     		.2byte	0x3
 6178 0088 70       		.byte	0x70
 6179 0089 01       		.sleb128 1
 6180 008a 9F       		.byte	0x9f
 6181 008b 0C000000 		.4byte	.LVL3
 6182 008f 10000000 		.4byte	.LFE10
 6183 0093 0100     		.2byte	0x1
 6184 0095 50       		.byte	0x50
 6185 0096 00000000 		.4byte	0
 6186 009a 00000000 		.4byte	0
 6187              	.LLST3:
 6188 009e 00000000 		.4byte	.LVL5
 6189 00a2 09000000 		.4byte	.LVL6-1
 6190 00a6 0100     		.2byte	0x1
 6191 00a8 50       		.byte	0x50
 6192 00a9 09000000 		.4byte	.LVL6-1
 6193 00ad 24000000 		.4byte	.LVL11
 6194 00b1 0100     		.2byte	0x1
 6195 00b3 54       		.byte	0x54
 6196 00b4 24000000 		.4byte	.LVL11
 6197 00b8 26000000 		.4byte	.LFE19
 6198 00bc 0400     		.2byte	0x4
 6199 00be 72       		.byte	0x72
 6200 00bf 887F     		.sleb128 -120
 6201 00c1 9F       		.byte	0x9f
 6202 00c2 00000000 		.4byte	0
 6203 00c6 00000000 		.4byte	0
 6204              	.LLST4:
 6205 00ca 0A000000 		.4byte	.LVL6
 6206 00ce 12000000 		.4byte	.LVL7
 6207 00d2 0200     		.2byte	0x2
 6208 00d4 30       		.byte	0x30
 6209 00d5 9F       		.byte	0x9f
 6210 00d6 12000000 		.4byte	.LVL7
 6211 00da 16000000 		.4byte	.LVL8
 6212 00de 0600     		.2byte	0x6
 6213 00e0 70       		.byte	0x70
 6214 00e1 00       		.sleb128 0
 6215 00e2 74       		.byte	0x74
 6216 00e3 00       		.sleb128 0
 6217 00e4 1C       		.byte	0x1c
 6218 00e5 9F       		.byte	0x9f
 6219 00e6 16000000 		.4byte	.LVL8
 6220 00ea 18000000 		.4byte	.LVL9
 6221 00ee 0700     		.2byte	0x7
 6222 00f0 74       		.byte	0x74
 6223 00f1 00       		.sleb128 0
 6224 00f2 20       		.byte	0x20
 6225 00f3 70       		.byte	0x70
 6226 00f4 00       		.sleb128 0
 6227 00f5 22       		.byte	0x22
 6228 00f6 9F       		.byte	0x9f
 6229 00f7 00000000 		.4byte	0
ARM GAS  C:\Users\ddemidov\AppData\Local\Temp\ccBlgygZ.s 			page 143


 6230 00fb 00000000 		.4byte	0
 6231              	.LLST5:
 6232 00ff 00000000 		.4byte	.LVL5
 6233 0103 12000000 		.4byte	.LVL7
 6234 0107 0200     		.2byte	0x2
 6235 0109 30       		.byte	0x30
 6236 010a 9F       		.byte	0x9f
 6237 010b 12000000 		.4byte	.LVL7
 6238 010f 22000000 		.4byte	.LVL10
 6239 0113 0100     		.2byte	0x1
 6240 0115 53       		.byte	0x53
 6241 0116 00000000 		.4byte	0
 6242 011a 00000000 		.4byte	0
 6243              	.LLST7:
 6244 011e 00000000 		.4byte	.LVL12
 6245 0122 08000000 		.4byte	.LVL13
 6246 0126 0100     		.2byte	0x1
 6247 0128 52       		.byte	0x52
 6248 0129 08000000 		.4byte	.LVL13
 6249 012d 36000000 		.4byte	.LFE30
 6250 0131 0400     		.2byte	0x4
 6251 0133 F3       		.byte	0xf3
 6252 0134 01       		.uleb128 0x1
 6253 0135 52       		.byte	0x52
 6254 0136 9F       		.byte	0x9f
 6255 0137 00000000 		.4byte	0
 6256 013b 00000000 		.4byte	0
 6257              	.LLST8:
 6258 013f 08000000 		.4byte	.LVL13
 6259 0143 12000000 		.4byte	.LVL14
 6260 0147 0100     		.2byte	0x1
 6261 0149 53       		.byte	0x53
 6262 014a 14000000 		.4byte	.LVL15
 6263 014e 18000000 		.4byte	.LVL16
 6264 0152 0100     		.2byte	0x1
 6265 0154 53       		.byte	0x53
 6266 0155 1A000000 		.4byte	.LVL17
 6267 0159 26000000 		.4byte	.LVL20
 6268 015d 0100     		.2byte	0x1
 6269 015f 53       		.byte	0x53
 6270 0160 28000000 		.4byte	.LVL21
 6271 0164 2C000000 		.4byte	.LVL22
 6272 0168 0100     		.2byte	0x1
 6273 016a 53       		.byte	0x53
 6274 016b 2E000000 		.4byte	.LVL23
 6275 016f 36000000 		.4byte	.LFE30
 6276 0173 0100     		.2byte	0x1
 6277 0175 53       		.byte	0x53
 6278 0176 00000000 		.4byte	0
 6279 017a 00000000 		.4byte	0
 6280              	.LLST9:
 6281 017e 08000000 		.4byte	.LVL13
 6282 0182 34000000 		.4byte	.LVL25
 6283 0186 0100     		.2byte	0x1
 6284 0188 54       		.byte	0x54
 6285 0189 00000000 		.4byte	0
 6286 018d 00000000 		.4byte	0
ARM GAS  C:\Users\ddemidov\AppData\Local\Temp\ccBlgygZ.s 			page 144


 6287              	.LLST10:
 6288 0191 00000000 		.4byte	.LVL26
 6289 0195 20000000 		.4byte	.LVL32
 6290 0199 0100     		.2byte	0x1
 6291 019b 50       		.byte	0x50
 6292 019c 20000000 		.4byte	.LVL32
 6293 01a0 A8000000 		.4byte	.LVL46
 6294 01a4 0100     		.2byte	0x1
 6295 01a6 54       		.byte	0x54
 6296 01a7 A8000000 		.4byte	.LVL46
 6297 01ab AD000000 		.4byte	.LVL47-1
 6298 01af 0100     		.2byte	0x1
 6299 01b1 50       		.byte	0x50
 6300 01b2 AD000000 		.4byte	.LVL47-1
 6301 01b6 B4000000 		.4byte	.LVL49
 6302 01ba 0100     		.2byte	0x1
 6303 01bc 54       		.byte	0x54
 6304 01bd B4000000 		.4byte	.LVL49
 6305 01c1 B9000000 		.4byte	.LVL50-1
 6306 01c5 0100     		.2byte	0x1
 6307 01c7 50       		.byte	0x50
 6308 01c8 B9000000 		.4byte	.LVL50-1
 6309 01cc DA000000 		.4byte	.LVL56
 6310 01d0 0100     		.2byte	0x1
 6311 01d2 54       		.byte	0x54
 6312 01d3 00000000 		.4byte	0
 6313 01d7 00000000 		.4byte	0
 6314              	.LLST11:
 6315 01db 00000000 		.4byte	.LVL26
 6316 01df 1C000000 		.4byte	.LVL31
 6317 01e3 0100     		.2byte	0x1
 6318 01e5 51       		.byte	0x51
 6319 01e6 1C000000 		.4byte	.LVL31
 6320 01ea 20000000 		.4byte	.LVL32
 6321 01ee 0200     		.2byte	0x2
 6322 01f0 71       		.byte	0x71
 6323 01f1 07       		.sleb128 7
 6324 01f2 20000000 		.4byte	.LVL32
 6325 01f6 32000000 		.4byte	.LVL34
 6326 01fa 0300     		.2byte	0x3
 6327 01fc 91       		.byte	0x91
 6328 01fd CF7E     		.sleb128 -177
 6329 01ff 32000000 		.4byte	.LVL34
 6330 0203 3B000000 		.4byte	.LVL35-1
 6331 0207 0200     		.2byte	0x2
 6332 0209 73       		.byte	0x73
 6333 020a 07       		.sleb128 7
 6334 020b 3B000000 		.4byte	.LVL35-1
 6335 020f 50000000 		.4byte	.LVL37
 6336 0213 0300     		.2byte	0x3
 6337 0215 91       		.byte	0x91
 6338 0216 CF7E     		.sleb128 -177
 6339 0218 50000000 		.4byte	.LVL37
 6340 021c 52000000 		.4byte	.LVL38
 6341 0220 0200     		.2byte	0x2
 6342 0222 73       		.byte	0x73
 6343 0223 07       		.sleb128 7
ARM GAS  C:\Users\ddemidov\AppData\Local\Temp\ccBlgygZ.s 			page 145


 6344 0224 52000000 		.4byte	.LVL38
 6345 0228 58000000 		.4byte	.LVL40
 6346 022c 0200     		.2byte	0x2
 6347 022e 71       		.byte	0x71
 6348 022f 00       		.sleb128 0
 6349 0230 58000000 		.4byte	.LVL40
 6350 0234 68000000 		.4byte	.LVL42
 6351 0238 0300     		.2byte	0x3
 6352 023a 91       		.byte	0x91
 6353 023b CF7E     		.sleb128 -177
 6354 023d 68000000 		.4byte	.LVL42
 6355 0241 6F000000 		.4byte	.LVL43-1
 6356 0245 0200     		.2byte	0x2
 6357 0247 71       		.byte	0x71
 6358 0248 00       		.sleb128 0
 6359 0249 6F000000 		.4byte	.LVL43-1
 6360 024d BE000000 		.4byte	.LVL51
 6361 0251 0300     		.2byte	0x3
 6362 0253 91       		.byte	0x91
 6363 0254 CF7E     		.sleb128 -177
 6364 0256 BE000000 		.4byte	.LVL51
 6365 025a C2000000 		.4byte	.LVL52
 6366 025e 0200     		.2byte	0x2
 6367 0260 73       		.byte	0x73
 6368 0261 07       		.sleb128 7
 6369 0262 C2000000 		.4byte	.LVL52
 6370 0266 E0000000 		.4byte	.LFE31
 6371 026a 0300     		.2byte	0x3
 6372 026c 91       		.byte	0x91
 6373 026d CF7E     		.sleb128 -177
 6374 026f 00000000 		.4byte	0
 6375 0273 00000000 		.4byte	0
 6376              	.LLST12:
 6377 0277 00000000 		.4byte	.LVL26
 6378 027b 14000000 		.4byte	.LVL30
 6379 027f 0100     		.2byte	0x1
 6380 0281 52       		.byte	0x52
 6381 0282 14000000 		.4byte	.LVL30
 6382 0286 E0000000 		.4byte	.LFE31
 6383 028a 0300     		.2byte	0x3
 6384 028c 91       		.byte	0x91
 6385 028d C47E     		.sleb128 -188
 6386 028f 00000000 		.4byte	0
 6387 0293 00000000 		.4byte	0
 6388              	.LLST13:
 6389 0297 00000000 		.4byte	.LVL26
 6390 029b 08000000 		.4byte	.LVL27
 6391 029f 0100     		.2byte	0x1
 6392 02a1 53       		.byte	0x53
 6393 02a2 08000000 		.4byte	.LVL27
 6394 02a6 0C000000 		.4byte	.LVL28
 6395 02aa 0200     		.2byte	0x2
 6396 02ac 73       		.byte	0x73
 6397 02ad 00       		.sleb128 0
 6398 02ae 0C000000 		.4byte	.LVL28
 6399 02b2 1C000000 		.4byte	.LVL31
 6400 02b6 0300     		.2byte	0x3
ARM GAS  C:\Users\ddemidov\AppData\Local\Temp\ccBlgygZ.s 			page 146


 6401 02b8 91       		.byte	0x91
 6402 02b9 C87E     		.sleb128 -184
 6403 02bb 1C000000 		.4byte	.LVL31
 6404 02bf 20000000 		.4byte	.LVL32
 6405 02c3 0200     		.2byte	0x2
 6406 02c5 71       		.byte	0x71
 6407 02c6 00       		.sleb128 0
 6408 02c7 20000000 		.4byte	.LVL32
 6409 02cb 32000000 		.4byte	.LVL34
 6410 02cf 0300     		.2byte	0x3
 6411 02d1 91       		.byte	0x91
 6412 02d2 C87E     		.sleb128 -184
 6413 02d4 32000000 		.4byte	.LVL34
 6414 02d8 3B000000 		.4byte	.LVL35-1
 6415 02dc 0200     		.2byte	0x2
 6416 02de 73       		.byte	0x73
 6417 02df 00       		.sleb128 0
 6418 02e0 3B000000 		.4byte	.LVL35-1
 6419 02e4 50000000 		.4byte	.LVL37
 6420 02e8 0300     		.2byte	0x3
 6421 02ea 91       		.byte	0x91
 6422 02eb C87E     		.sleb128 -184
 6423 02ed 50000000 		.4byte	.LVL37
 6424 02f1 54000000 		.4byte	.LVL39
 6425 02f5 0200     		.2byte	0x2
 6426 02f7 73       		.byte	0x73
 6427 02f8 00       		.sleb128 0
 6428 02f9 54000000 		.4byte	.LVL39
 6429 02fd 58000000 		.4byte	.LVL40
 6430 0301 0200     		.2byte	0x2
 6431 0303 71       		.byte	0x71
 6432 0304 79       		.sleb128 -7
 6433 0305 58000000 		.4byte	.LVL40
 6434 0309 BE000000 		.4byte	.LVL51
 6435 030d 0300     		.2byte	0x3
 6436 030f 91       		.byte	0x91
 6437 0310 C87E     		.sleb128 -184
 6438 0312 BE000000 		.4byte	.LVL51
 6439 0316 C2000000 		.4byte	.LVL52
 6440 031a 0200     		.2byte	0x2
 6441 031c 73       		.byte	0x73
 6442 031d 00       		.sleb128 0
 6443 031e C2000000 		.4byte	.LVL52
 6444 0322 E0000000 		.4byte	.LFE31
 6445 0326 0300     		.2byte	0x3
 6446 0328 91       		.byte	0x91
 6447 0329 C87E     		.sleb128 -184
 6448 032b 00000000 		.4byte	0
 6449 032f 00000000 		.4byte	0
 6450              	.LLST14:
 6451 0333 10000000 		.4byte	.LVL29
 6452 0337 20000000 		.4byte	.LVL32
 6453 033b 0200     		.2byte	0x2
 6454 033d 30       		.byte	0x30
 6455 033e 9F       		.byte	0x9f
 6456 033f 20000000 		.4byte	.LVL32
 6457 0343 BA000000 		.4byte	.LVL50
ARM GAS  C:\Users\ddemidov\AppData\Local\Temp\ccBlgygZ.s 			page 147


 6458 0347 0500     		.2byte	0x5
 6459 0349 32       		.byte	0x32
 6460 034a 77       		.byte	0x77
 6461 034b 00       		.sleb128 0
 6462 034c 1C       		.byte	0x1c
 6463 034d 9F       		.byte	0x9f
 6464 034e BA000000 		.4byte	.LVL50
 6465 0352 CC000000 		.4byte	.LVL53
 6466 0356 0500     		.2byte	0x5
 6467 0358 33       		.byte	0x33
 6468 0359 77       		.byte	0x77
 6469 035a 00       		.sleb128 0
 6470 035b 1C       		.byte	0x1c
 6471 035c 9F       		.byte	0x9f
 6472 035d CE000000 		.4byte	.LVL54
 6473 0361 D6000000 		.4byte	.LVL55
 6474 0365 0500     		.2byte	0x5
 6475 0367 33       		.byte	0x33
 6476 0368 77       		.byte	0x77
 6477 0369 00       		.sleb128 0
 6478 036a 1C       		.byte	0x1c
 6479 036b 9F       		.byte	0x9f
 6480 036c 00000000 		.4byte	0
 6481 0370 00000000 		.4byte	0
 6482              	.LLST15:
 6483 0374 00000000 		.4byte	.LVL26
 6484 0378 20000000 		.4byte	.LVL32
 6485 037c 0300     		.2byte	0x3
 6486 037e 08       		.byte	0x8
 6487 037f 37       		.byte	0x37
 6488 0380 9F       		.byte	0x9f
 6489 0381 20000000 		.4byte	.LVL32
 6490 0385 AE000000 		.4byte	.LVL47
 6491 0389 0100     		.2byte	0x1
 6492 038b 56       		.byte	0x56
 6493 038c AE000000 		.4byte	.LVL47
 6494 0390 B4000000 		.4byte	.LVL49
 6495 0394 0200     		.2byte	0x2
 6496 0396 47       		.byte	0x47
 6497 0397 9F       		.byte	0x9f
 6498 0398 B4000000 		.4byte	.LVL49
 6499 039c DA000000 		.4byte	.LVL57
 6500 03a0 0100     		.2byte	0x1
 6501 03a2 56       		.byte	0x56
 6502 03a3 00000000 		.4byte	0
 6503 03a7 00000000 		.4byte	0
 6504              	.LLST16:
 6505 03ab 00000000 		.4byte	.LVL58
 6506 03af 11000000 		.4byte	.LVL61-1
 6507 03b3 0100     		.2byte	0x1
 6508 03b5 50       		.byte	0x50
 6509 03b6 11000000 		.4byte	.LVL61-1
 6510 03ba 4A000000 		.4byte	.LVL64
 6511 03be 0100     		.2byte	0x1
 6512 03c0 54       		.byte	0x54
 6513 03c1 4A000000 		.4byte	.LVL64
 6514 03c5 4C000000 		.4byte	.LVL65
ARM GAS  C:\Users\ddemidov\AppData\Local\Temp\ccBlgygZ.s 			page 148


 6515 03c9 0400     		.2byte	0x4
 6516 03cb 74       		.byte	0x74
 6517 03cc 8A7F     		.sleb128 -118
 6518 03ce 9F       		.byte	0x9f
 6519 03cf 4C000000 		.4byte	.LVL65
 6520 03d3 4C000000 		.4byte	.LVL66
 6521 03d7 0300     		.2byte	0x3
 6522 03d9 75       		.byte	0x75
 6523 03da 78       		.sleb128 -8
 6524 03db 9F       		.byte	0x9f
 6525 03dc 4C000000 		.4byte	.LVL66
 6526 03e0 4E000000 		.4byte	.LFE34
 6527 03e4 0400     		.2byte	0x4
 6528 03e6 F3       		.byte	0xf3
 6529 03e7 01       		.uleb128 0x1
 6530 03e8 50       		.byte	0x50
 6531 03e9 9F       		.byte	0x9f
 6532 03ea 00000000 		.4byte	0
 6533 03ee 00000000 		.4byte	0
 6534              	.LLST17:
 6535 03f2 00000000 		.4byte	.LVL58
 6536 03f6 0A000000 		.4byte	.LVL59
 6537 03fa 0100     		.2byte	0x1
 6538 03fc 51       		.byte	0x51
 6539 03fd 0A000000 		.4byte	.LVL59
 6540 0401 4C000000 		.4byte	.LVL68
 6541 0405 0100     		.2byte	0x1
 6542 0407 57       		.byte	0x57
 6543 0408 4C000000 		.4byte	.LVL68
 6544 040c 4E000000 		.4byte	.LFE34
 6545 0410 0400     		.2byte	0x4
 6546 0412 F3       		.byte	0xf3
 6547 0413 01       		.uleb128 0x1
 6548 0414 51       		.byte	0x51
 6549 0415 9F       		.byte	0x9f
 6550 0416 00000000 		.4byte	0
 6551 041a 00000000 		.4byte	0
 6552              	.LLST18:
 6553 041e 00000000 		.4byte	.LVL58
 6554 0422 0C000000 		.4byte	.LVL60
 6555 0426 0100     		.2byte	0x1
 6556 0428 52       		.byte	0x52
 6557 0429 0C000000 		.4byte	.LVL60
 6558 042d 4C000000 		.4byte	.LVL67
 6559 0431 0100     		.2byte	0x1
 6560 0433 56       		.byte	0x56
 6561 0434 4C000000 		.4byte	.LVL67
 6562 0438 4E000000 		.4byte	.LFE34
 6563 043c 0400     		.2byte	0x4
 6564 043e F3       		.byte	0xf3
 6565 043f 01       		.uleb128 0x1
 6566 0440 52       		.byte	0x52
 6567 0441 9F       		.byte	0x9f
 6568 0442 00000000 		.4byte	0
 6569 0446 00000000 		.4byte	0
 6570              	.LLST19:
 6571 044a 00000000 		.4byte	.LVL58
ARM GAS  C:\Users\ddemidov\AppData\Local\Temp\ccBlgygZ.s 			page 149


 6572 044e 4C000000 		.4byte	.LVL65
 6573 0452 0200     		.2byte	0x2
 6574 0454 32       		.byte	0x32
 6575 0455 9F       		.byte	0x9f
 6576 0456 4C000000 		.4byte	.LVL65
 6577 045a 4E000000 		.4byte	.LFE34
 6578 045e 0100     		.2byte	0x1
 6579 0460 50       		.byte	0x50
 6580 0461 00000000 		.4byte	0
 6581 0465 00000000 		.4byte	0
 6582              	.LLST20:
 6583 0469 00000000 		.4byte	.LVL69
 6584 046d 12000000 		.4byte	.LVL71
 6585 0471 0100     		.2byte	0x1
 6586 0473 50       		.byte	0x50
 6587 0474 12000000 		.4byte	.LVL71
 6588 0478 52000000 		.4byte	.LVL77
 6589 047c 0100     		.2byte	0x1
 6590 047e 54       		.byte	0x54
 6591 047f 52000000 		.4byte	.LVL77
 6592 0483 54000000 		.4byte	.LVL78
 6593 0487 0400     		.2byte	0x4
 6594 0489 74       		.byte	0x74
 6595 048a 8A7F     		.sleb128 -118
 6596 048c 9F       		.byte	0x9f
 6597 048d 54000000 		.4byte	.LVL78
 6598 0491 56000000 		.4byte	.LVL79
 6599 0495 0300     		.2byte	0x3
 6600 0497 76       		.byte	0x76
 6601 0498 78       		.sleb128 -8
 6602 0499 9F       		.byte	0x9f
 6603 049a 56000000 		.4byte	.LVL79
 6604 049e 58000000 		.4byte	.LFE13
 6605 04a2 0400     		.2byte	0x4
 6606 04a4 F3       		.byte	0xf3
 6607 04a5 01       		.uleb128 0x1
 6608 04a6 50       		.byte	0x50
 6609 04a7 9F       		.byte	0x9f
 6610 04a8 00000000 		.4byte	0
 6611 04ac 00000000 		.4byte	0
 6612              	.LLST21:
 6613 04b0 00000000 		.4byte	.LVL69
 6614 04b4 10000000 		.4byte	.LVL70
 6615 04b8 0100     		.2byte	0x1
 6616 04ba 51       		.byte	0x51
 6617 04bb 10000000 		.4byte	.LVL70
 6618 04bf 19000000 		.4byte	.LVL73-1
 6619 04c3 0200     		.2byte	0x2
 6620 04c5 7D       		.byte	0x7d
 6621 04c6 00       		.sleb128 0
 6622 04c7 19000000 		.4byte	.LVL73-1
 6623 04cb 58000000 		.4byte	.LFE13
 6624 04cf 0400     		.2byte	0x4
 6625 04d1 F3       		.byte	0xf3
 6626 04d2 01       		.uleb128 0x1
 6627 04d3 51       		.byte	0x51
 6628 04d4 9F       		.byte	0x9f
ARM GAS  C:\Users\ddemidov\AppData\Local\Temp\ccBlgygZ.s 			page 150


 6629 04d5 00000000 		.4byte	0
 6630 04d9 00000000 		.4byte	0
 6631              	.LLST22:
 6632 04dd 00000000 		.4byte	.LVL69
 6633 04e1 14000000 		.4byte	.LVL72
 6634 04e5 0100     		.2byte	0x1
 6635 04e7 52       		.byte	0x52
 6636 04e8 14000000 		.4byte	.LVL72
 6637 04ec 19000000 		.4byte	.LVL73-1
 6638 04f0 0300     		.2byte	0x3
 6639 04f2 91       		.byte	0x91
 6640 04f3 B47F     		.sleb128 -76
 6641 04f5 19000000 		.4byte	.LVL73-1
 6642 04f9 58000000 		.4byte	.LFE13
 6643 04fd 0400     		.2byte	0x4
 6644 04ff F3       		.byte	0xf3
 6645 0500 01       		.uleb128 0x1
 6646 0501 52       		.byte	0x52
 6647 0502 9F       		.byte	0x9f
 6648 0503 00000000 		.4byte	0
 6649 0507 00000000 		.4byte	0
 6650              	.LLST23:
 6651 050b 00000000 		.4byte	.LVL80
 6652 050f 36000000 		.4byte	.LVL85
 6653 0513 0100     		.2byte	0x1
 6654 0515 50       		.byte	0x50
 6655 0516 36000000 		.4byte	.LVL85
 6656 051a 72010000 		.4byte	.LVL135
 6657 051e 0100     		.2byte	0x1
 6658 0520 54       		.byte	0x54
 6659 0521 72010000 		.4byte	.LVL135
 6660 0525 80010000 		.4byte	.LFE17
 6661 0529 0400     		.2byte	0x4
 6662 052b F3       		.byte	0xf3
 6663 052c 01       		.uleb128 0x1
 6664 052d 50       		.byte	0x50
 6665 052e 9F       		.byte	0x9f
 6666 052f 00000000 		.4byte	0
 6667 0533 00000000 		.4byte	0
 6668              	.LLST24:
 6669 0537 00000000 		.4byte	.LVL80
 6670 053b 0C000000 		.4byte	.LVL82
 6671 053f 0100     		.2byte	0x1
 6672 0541 51       		.byte	0x51
 6673 0542 0C000000 		.4byte	.LVL82
 6674 0546 42000000 		.4byte	.LVL88
 6675 054a 0100     		.2byte	0x1
 6676 054c 57       		.byte	0x57
 6677 054d 42000000 		.4byte	.LVL88
 6678 0551 80010000 		.4byte	.LFE17
 6679 0555 0400     		.2byte	0x4
 6680 0557 F3       		.byte	0xf3
 6681 0558 01       		.uleb128 0x1
 6682 0559 51       		.byte	0x51
 6683 055a 9F       		.byte	0x9f
 6684 055b 00000000 		.4byte	0
 6685 055f 00000000 		.4byte	0
ARM GAS  C:\Users\ddemidov\AppData\Local\Temp\ccBlgygZ.s 			page 151


 6686              	.LLST25:
 6687 0563 00000000 		.4byte	.LVL80
 6688 0567 06000000 		.4byte	.LVL81
 6689 056b 0100     		.2byte	0x1
 6690 056d 52       		.byte	0x52
 6691 056e 06000000 		.4byte	.LVL81
 6692 0572 26000000 		.4byte	.LVL84
 6693 0576 0100     		.2byte	0x1
 6694 0578 55       		.byte	0x55
 6695 0579 26000000 		.4byte	.LVL84
 6696 057d 80010000 		.4byte	.LFE17
 6697 0581 0400     		.2byte	0x4
 6698 0583 F3       		.byte	0xf3
 6699 0584 01       		.uleb128 0x1
 6700 0585 52       		.byte	0x52
 6701 0586 9F       		.byte	0x9f
 6702 0587 00000000 		.4byte	0
 6703 058b 00000000 		.4byte	0
 6704              	.LLST26:
 6705 058f 00000000 		.4byte	.LVL80
 6706 0593 E6000000 		.4byte	.LVL109
 6707 0597 0200     		.2byte	0x2
 6708 0599 33       		.byte	0x33
 6709 059a 9F       		.byte	0x9f
 6710 059b F0000000 		.4byte	.LVL111
 6711 059f F6000000 		.4byte	.LVL114
 6712 05a3 0200     		.2byte	0x2
 6713 05a5 33       		.byte	0x33
 6714 05a6 9F       		.byte	0x9f
 6715 05a7 60010000 		.4byte	.LVL131
 6716 05ab 72010000 		.4byte	.LVL134
 6717 05af 0200     		.2byte	0x2
 6718 05b1 7D       		.byte	0x7d
 6719 05b2 00       		.sleb128 0
 6720 05b3 72010000 		.4byte	.LVL134
 6721 05b7 80010000 		.4byte	.LFE17
 6722 05bb 0300     		.2byte	0x3
 6723 05bd 91       		.byte	0x91
 6724 05be 907E     		.sleb128 -240
 6725 05c0 00000000 		.4byte	0
 6726 05c4 00000000 		.4byte	0
 6727              	.LLST27:
 6728 05c8 20000000 		.4byte	.LVL83
 6729 05cc 36000000 		.4byte	.LVL85
 6730 05d0 0300     		.2byte	0x3
 6731 05d2 70       		.byte	0x70
 6732 05d3 08       		.sleb128 8
 6733 05d4 9F       		.byte	0x9f
 6734 05d5 36000000 		.4byte	.LVL85
 6735 05d9 66010000 		.4byte	.LVL132
 6736 05dd 0300     		.2byte	0x3
 6737 05df 74       		.byte	0x74
 6738 05e0 08       		.sleb128 8
 6739 05e1 9F       		.byte	0x9f
 6740 05e2 00000000 		.4byte	0
 6741 05e6 00000000 		.4byte	0
 6742              	.LLST28:
ARM GAS  C:\Users\ddemidov\AppData\Local\Temp\ccBlgygZ.s 			page 152


 6743 05ea 20000000 		.4byte	.LVL83
 6744 05ee D0000000 		.4byte	.LVL105
 6745 05f2 0100     		.2byte	0x1
 6746 05f4 55       		.byte	0x55
 6747 05f5 D0000000 		.4byte	.LVL105
 6748 05f9 D2000000 		.4byte	.LVL106
 6749 05fd 0200     		.2byte	0x2
 6750 05ff 30       		.byte	0x30
 6751 0600 9F       		.byte	0x9f
 6752 0601 D2000000 		.4byte	.LVL106
 6753 0605 06010000 		.4byte	.LVL116
 6754 0609 0100     		.2byte	0x1
 6755 060b 55       		.byte	0x55
 6756 060c 0C010000 		.4byte	.LVL117
 6757 0610 0E010000 		.4byte	.LVL118
 6758 0614 0100     		.2byte	0x1
 6759 0616 55       		.byte	0x55
 6760 0617 00000000 		.4byte	0
 6761 061b 00000000 		.4byte	0
 6762              	.LLST29:
 6763 061f 20000000 		.4byte	.LVL83
 6764 0623 66010000 		.4byte	.LVL132
 6765 0627 0100     		.2byte	0x1
 6766 0629 57       		.byte	0x57
 6767 062a 00000000 		.4byte	0
 6768 062e 00000000 		.4byte	0
 6769              	.LLST30:
 6770 0632 20000000 		.4byte	.LVL83
 6771 0636 36000000 		.4byte	.LVL85
 6772 063a 0100     		.2byte	0x1
 6773 063c 50       		.byte	0x50
 6774 063d 36000000 		.4byte	.LVL85
 6775 0641 66010000 		.4byte	.LVL132
 6776 0645 0100     		.2byte	0x1
 6777 0647 54       		.byte	0x54
 6778 0648 00000000 		.4byte	0
 6779 064c 00000000 		.4byte	0
 6780              	.LLST31:
 6781 0650 40000000 		.4byte	.LVL87
 6782 0654 42000000 		.4byte	.LVL88
 6783 0658 0200     		.2byte	0x2
 6784 065a 30       		.byte	0x30
 6785 065b 9F       		.byte	0x9f
 6786 065c 44000000 		.4byte	.LVL89
 6787 0660 51000000 		.4byte	.LVL90-1
 6788 0664 0100     		.2byte	0x1
 6789 0666 53       		.byte	0x53
 6790 0667 51000000 		.4byte	.LVL90-1
 6791 066b D8000000 		.4byte	.LVL107
 6792 066f 0200     		.2byte	0x2
 6793 0671 7D       		.byte	0x7d
 6794 0672 00       		.sleb128 0
 6795 0673 D8000000 		.4byte	.LVL107
 6796 0677 DF000000 		.4byte	.LVL108-1
 6797 067b 0100     		.2byte	0x1
 6798 067d 53       		.byte	0x53
 6799 067e DF000000 		.4byte	.LVL108-1
ARM GAS  C:\Users\ddemidov\AppData\Local\Temp\ccBlgygZ.s 			page 153


 6800 0682 E6000000 		.4byte	.LVL109
 6801 0686 0200     		.2byte	0x2
 6802 0688 7D       		.byte	0x7d
 6803 0689 00       		.sleb128 0
 6804 068a F0000000 		.4byte	.LVL111
 6805 068e F4000000 		.4byte	.LVL113
 6806 0692 0200     		.2byte	0x2
 6807 0694 7D       		.byte	0x7d
 6808 0695 00       		.sleb128 0
 6809 0696 00000000 		.4byte	0
 6810 069a 00000000 		.4byte	0
 6811              	.LLST32:
 6812 069e 3C000000 		.4byte	.LVL86
 6813 06a2 3F000000 		.4byte	.LVL87-1
 6814 06a6 0100     		.2byte	0x1
 6815 06a8 53       		.byte	0x53
 6816 06a9 3F000000 		.4byte	.LVL87-1
 6817 06ad D8000000 		.4byte	.LVL107
 6818 06b1 0300     		.2byte	0x3
 6819 06b3 91       		.byte	0x91
 6820 06b4 947E     		.sleb128 -236
 6821 06b6 D8000000 		.4byte	.LVL107
 6822 06ba DF000000 		.4byte	.LVL108-1
 6823 06be 0100     		.2byte	0x1
 6824 06c0 52       		.byte	0x52
 6825 06c1 DF000000 		.4byte	.LVL108-1
 6826 06c5 66010000 		.4byte	.LVL132
 6827 06c9 0300     		.2byte	0x3
 6828 06cb 91       		.byte	0x91
 6829 06cc 947E     		.sleb128 -236
 6830 06ce 00000000 		.4byte	0
 6831 06d2 00000000 		.4byte	0
 6832              	.LLST33:
 6833 06d6 7A000000 		.4byte	.LVL93
 6834 06da 88000000 		.4byte	.LVL94
 6835 06de 0100     		.2byte	0x1
 6836 06e0 52       		.byte	0x52
 6837 06e1 88000000 		.4byte	.LVL94
 6838 06e5 92000000 		.4byte	.LVL95
 6839 06e9 0300     		.2byte	0x3
 6840 06eb 91       		.byte	0x91
 6841 06ec A47E     		.sleb128 -220
 6842 06ee 92000000 		.4byte	.LVL95
 6843 06f2 98000000 		.4byte	.LVL96
 6844 06f6 0100     		.2byte	0x1
 6845 06f8 52       		.byte	0x52
 6846 06f9 98000000 		.4byte	.LVL96
 6847 06fd A2000000 		.4byte	.LVL97
 6848 0701 0300     		.2byte	0x3
 6849 0703 91       		.byte	0x91
 6850 0704 A47E     		.sleb128 -220
 6851 0706 A2000000 		.4byte	.LVL97
 6852 070a A5000000 		.4byte	.LVL98-1
 6853 070e 0200     		.2byte	0x2
 6854 0710 71       		.byte	0x71
 6855 0711 00       		.sleb128 0
 6856 0712 BE000000 		.4byte	.LVL103
ARM GAS  C:\Users\ddemidov\AppData\Local\Temp\ccBlgygZ.s 			page 154


 6857 0716 CC000000 		.4byte	.LVL104
 6858 071a 0300     		.2byte	0x3
 6859 071c 91       		.byte	0x91
 6860 071d A47E     		.sleb128 -220
 6861 071f CC000000 		.4byte	.LVL104
 6862 0723 CF000000 		.4byte	.LVL105-1
 6863 0727 0200     		.2byte	0x2
 6864 0729 71       		.byte	0x71
 6865 072a 00       		.sleb128 0
 6866 072b F0000000 		.4byte	.LVL111
 6867 072f F2000000 		.4byte	.LVL112
 6868 0733 0300     		.2byte	0x3
 6869 0735 91       		.byte	0x91
 6870 0736 A47E     		.sleb128 -220
 6871 0738 00000000 		.4byte	0
 6872 073c 00000000 		.4byte	0
 6873              	.LLST34:
 6874 0740 AC000000 		.4byte	.LVL100
 6875 0744 BE000000 		.4byte	.LVL103
 6876 0748 0300     		.2byte	0x3
 6877 074a 08       		.byte	0x8
 6878 074b 37       		.byte	0x37
 6879 074c 9F       		.byte	0x9f
 6880 074d 00000000 		.4byte	0
 6881 0751 00000000 		.4byte	0
 6882              	.LLST35:
 6883 0755 AC000000 		.4byte	.LVL100
 6884 0759 BE000000 		.4byte	.LVL103
 6885 075d 0100     		.2byte	0x1
 6886 075f 56       		.byte	0x56
 6887 0760 00000000 		.4byte	0
 6888 0764 00000000 		.4byte	0
 6889              	.LLST36:
 6890 0768 AC000000 		.4byte	.LVL100
 6891 076c B8000000 		.4byte	.LVL101
 6892 0770 0100     		.2byte	0x1
 6893 0772 52       		.byte	0x52
 6894 0773 B8000000 		.4byte	.LVL101
 6895 0777 BC000000 		.4byte	.LVL102
 6896 077b 0300     		.2byte	0x3
 6897 077d 72       		.byte	0x72
 6898 077e 7F       		.sleb128 -1
 6899 077f 9F       		.byte	0x9f
 6900 0780 BC000000 		.4byte	.LVL102
 6901 0784 BE000000 		.4byte	.LVL103
 6902 0788 0100     		.2byte	0x1
 6903 078a 52       		.byte	0x52
 6904 078b 00000000 		.4byte	0
 6905 078f 00000000 		.4byte	0
 6906              	.LLST37:
 6907 0793 2A010000 		.4byte	.LVL121
 6908 0797 60010000 		.4byte	.LVL131
 6909 079b 0300     		.2byte	0x3
 6910 079d 08       		.byte	0x8
 6911 079e 37       		.byte	0x37
 6912 079f 9F       		.byte	0x9f
 6913 07a0 00000000 		.4byte	0
ARM GAS  C:\Users\ddemidov\AppData\Local\Temp\ccBlgygZ.s 			page 155


 6914 07a4 00000000 		.4byte	0
 6915              	.LLST38:
 6916 07a8 2A010000 		.4byte	.LVL121
 6917 07ac 60010000 		.4byte	.LVL131
 6918 07b0 0300     		.2byte	0x3
 6919 07b2 08       		.byte	0x8
 6920 07b3 20       		.byte	0x20
 6921 07b4 9F       		.byte	0x9f
 6922 07b5 00000000 		.4byte	0
 6923 07b9 00000000 		.4byte	0
 6924              	.LLST39:
 6925 07bd 2A010000 		.4byte	.LVL121
 6926 07c1 60010000 		.4byte	.LVL131
 6927 07c5 0100     		.2byte	0x1
 6928 07c7 56       		.byte	0x56
 6929 07c8 00000000 		.4byte	0
 6930 07cc 00000000 		.4byte	0
 6931              	.LLST40:
 6932 07d0 2A010000 		.4byte	.LVL121
 6933 07d4 60010000 		.4byte	.LVL131
 6934 07d8 0300     		.2byte	0x3
 6935 07da 74       		.byte	0x74
 6936 07db 08       		.sleb128 8
 6937 07dc 9F       		.byte	0x9f
 6938 07dd 00000000 		.4byte	0
 6939 07e1 00000000 		.4byte	0
 6940              	.LLST41:
 6941 07e5 2A010000 		.4byte	.LVL121
 6942 07e9 60010000 		.4byte	.LVL131
 6943 07ed 0200     		.2byte	0x2
 6944 07ef 30       		.byte	0x30
 6945 07f0 9F       		.byte	0x9f
 6946 07f1 00000000 		.4byte	0
 6947 07f5 00000000 		.4byte	0
 6948              	.LLST42:
 6949 07f9 34010000 		.4byte	.LVL122
 6950 07fd 60010000 		.4byte	.LVL131
 6951 0801 0300     		.2byte	0x3
 6952 0803 08       		.byte	0x8
 6953 0804 37       		.byte	0x37
 6954 0805 9F       		.byte	0x9f
 6955 0806 00000000 		.4byte	0
 6956 080a 00000000 		.4byte	0
 6957              	.LLST44:
 6958 080e 34010000 		.4byte	.LVL122
 6959 0812 3A010000 		.4byte	.LVL123
 6960 0816 0300     		.2byte	0x3
 6961 0818 74       		.byte	0x74
 6962 0819 3F       		.sleb128 63
 6963 081a 9F       		.byte	0x9f
 6964 081b 3A010000 		.4byte	.LVL123
 6965 081f 3F010000 		.4byte	.LVL124-1
 6966 0823 0100     		.2byte	0x1
 6967 0825 51       		.byte	0x51
 6968 0826 3F010000 		.4byte	.LVL124-1
 6969 082a 60010000 		.4byte	.LVL131
 6970 082e 0300     		.2byte	0x3
ARM GAS  C:\Users\ddemidov\AppData\Local\Temp\ccBlgygZ.s 			page 156


 6971 0830 74       		.byte	0x74
 6972 0831 3F       		.sleb128 63
 6973 0832 9F       		.byte	0x9f
 6974 0833 00000000 		.4byte	0
 6975 0837 00000000 		.4byte	0
 6976              	.LLST45:
 6977 083b 34010000 		.4byte	.LVL122
 6978 083f 60010000 		.4byte	.LVL131
 6979 0843 0300     		.2byte	0x3
 6980 0845 74       		.byte	0x74
 6981 0846 08       		.sleb128 8
 6982 0847 9F       		.byte	0x9f
 6983 0848 00000000 		.4byte	0
 6984 084c 00000000 		.4byte	0
 6985              	.LLST46:
 6986 0850 34010000 		.4byte	.LVL122
 6987 0854 60010000 		.4byte	.LVL131
 6988 0858 0200     		.2byte	0x2
 6989 085a 30       		.byte	0x30
 6990 085b 9F       		.byte	0x9f
 6991 085c 00000000 		.4byte	0
 6992 0860 00000000 		.4byte	0
 6993              	.LLST47:
 6994 0864 42010000 		.4byte	.LVL125
 6995 0868 4C010000 		.4byte	.LVL126
 6996 086c 1600     		.2byte	0x16
 6997 086e 73       		.byte	0x73
 6998 086f 00       		.sleb128 0
 6999 0870 0C       		.byte	0xc
 7000 0871 FF00FF00 		.4byte	0xff00ff
 7001 0875 1A       		.byte	0x1a
 7002 0876 38       		.byte	0x38
 7003 0877 24       		.byte	0x24
 7004 0878 73       		.byte	0x73
 7005 0879 00       		.sleb128 0
 7006 087a 11       		.byte	0x11
 7007 087b 80FE8378 		.sleb128 -16711936
 7008 087f 1A       		.byte	0x1a
 7009 0880 38       		.byte	0x38
 7010 0881 25       		.byte	0x25
 7011 0882 21       		.byte	0x21
 7012 0883 9F       		.byte	0x9f
 7013 0884 4C010000 		.4byte	.LVL126
 7014 0888 54010000 		.4byte	.LVL127
 7015 088c 1A00     		.2byte	0x1a
 7016 088e 91       		.byte	0x91
 7017 088f A07E     		.sleb128 -224
 7018 0891 06       		.byte	0x6
 7019 0892 0C       		.byte	0xc
 7020 0893 FF00FF00 		.4byte	0xff00ff
 7021 0897 1A       		.byte	0x1a
 7022 0898 38       		.byte	0x38
 7023 0899 24       		.byte	0x24
 7024 089a 91       		.byte	0x91
 7025 089b A07E     		.sleb128 -224
 7026 089d 06       		.byte	0x6
 7027 089e 11       		.byte	0x11
ARM GAS  C:\Users\ddemidov\AppData\Local\Temp\ccBlgygZ.s 			page 157


 7028 089f 80FE8378 		.sleb128 -16711936
 7029 08a3 1A       		.byte	0x1a
 7030 08a4 38       		.byte	0x38
 7031 08a5 25       		.byte	0x25
 7032 08a6 21       		.byte	0x21
 7033 08a7 9F       		.byte	0x9f
 7034 08a8 54010000 		.4byte	.LVL127
 7035 08ac 56010000 		.4byte	.LVL128
 7036 08b0 0100     		.2byte	0x1
 7037 08b2 53       		.byte	0x53
 7038 08b3 56010000 		.4byte	.LVL128
 7039 08b7 58010000 		.4byte	.LVL129
 7040 08bb 1A00     		.2byte	0x1a
 7041 08bd 91       		.byte	0x91
 7042 08be A07E     		.sleb128 -224
 7043 08c0 06       		.byte	0x6
 7044 08c1 0C       		.byte	0xc
 7045 08c2 FF00FF00 		.4byte	0xff00ff
 7046 08c6 1A       		.byte	0x1a
 7047 08c7 38       		.byte	0x38
 7048 08c8 24       		.byte	0x24
 7049 08c9 91       		.byte	0x91
 7050 08ca A07E     		.sleb128 -224
 7051 08cc 06       		.byte	0x6
 7052 08cd 11       		.byte	0x11
 7053 08ce 80FE8378 		.sleb128 -16711936
 7054 08d2 1A       		.byte	0x1a
 7055 08d3 38       		.byte	0x38
 7056 08d4 25       		.byte	0x25
 7057 08d5 21       		.byte	0x21
 7058 08d6 9F       		.byte	0x9f
 7059 08d7 58010000 		.4byte	.LVL129
 7060 08db 5C010000 		.4byte	.LVL130
 7061 08df 1800     		.2byte	0x18
 7062 08e1 71       		.byte	0x71
 7063 08e2 00       		.sleb128 0
 7064 08e3 06       		.byte	0x6
 7065 08e4 0C       		.byte	0xc
 7066 08e5 FF00FF00 		.4byte	0xff00ff
 7067 08e9 1A       		.byte	0x1a
 7068 08ea 38       		.byte	0x38
 7069 08eb 24       		.byte	0x24
 7070 08ec 71       		.byte	0x71
 7071 08ed 00       		.sleb128 0
 7072 08ee 06       		.byte	0x6
 7073 08ef 11       		.byte	0x11
 7074 08f0 80FE8378 		.sleb128 -16711936
 7075 08f4 1A       		.byte	0x1a
 7076 08f5 38       		.byte	0x38
 7077 08f6 25       		.byte	0x25
 7078 08f7 21       		.byte	0x21
 7079 08f8 9F       		.byte	0x9f
 7080 08f9 00000000 		.4byte	0
 7081 08fd 00000000 		.4byte	0
 7082              	.LLST48:
 7083 0901 42010000 		.4byte	.LVL125
 7084 0905 60010000 		.4byte	.LVL131
ARM GAS  C:\Users\ddemidov\AppData\Local\Temp\ccBlgygZ.s 			page 158


 7085 0909 0200     		.2byte	0x2
 7086 090b 40       		.byte	0x40
 7087 090c 9F       		.byte	0x9f
 7088 090d 00000000 		.4byte	0
 7089 0911 00000000 		.4byte	0
 7090              	.LLST50:
 7091 0915 5C010000 		.4byte	.LVL130
 7092 0919 60010000 		.4byte	.LVL131
 7093 091d 0300     		.2byte	0x3
 7094 091f 08       		.byte	0x8
 7095 0920 37       		.byte	0x37
 7096 0921 9F       		.byte	0x9f
 7097 0922 00000000 		.4byte	0
 7098 0926 00000000 		.4byte	0
 7099              	.LLST51:
 7100 092a 5C010000 		.4byte	.LVL130
 7101 092e 60010000 		.4byte	.LVL131
 7102 0932 0200     		.2byte	0x2
 7103 0934 34       		.byte	0x34
 7104 0935 9F       		.byte	0x9f
 7105 0936 00000000 		.4byte	0
 7106 093a 00000000 		.4byte	0
 7107              	.LLST52:
 7108 093e 5C010000 		.4byte	.LVL130
 7109 0942 5F010000 		.4byte	.LVL131-1
 7110 0946 0100     		.2byte	0x1
 7111 0948 51       		.byte	0x51
 7112 0949 5F010000 		.4byte	.LVL131-1
 7113 094d 60010000 		.4byte	.LVL131
 7114 0951 0400     		.2byte	0x4
 7115 0953 91       		.byte	0x91
 7116 0954 A07E     		.sleb128 -224
 7117 0956 9F       		.byte	0x9f
 7118 0957 00000000 		.4byte	0
 7119 095b 00000000 		.4byte	0
 7120              	.LLST53:
 7121 095f 5C010000 		.4byte	.LVL130
 7122 0963 60010000 		.4byte	.LVL131
 7123 0967 0300     		.2byte	0x3
 7124 0969 74       		.byte	0x74
 7125 096a 08       		.sleb128 8
 7126 096b 9F       		.byte	0x9f
 7127 096c 00000000 		.4byte	0
 7128 0970 00000000 		.4byte	0
 7129              	.LLST54:
 7130 0974 5C010000 		.4byte	.LVL130
 7131 0978 60010000 		.4byte	.LVL131
 7132 097c 0200     		.2byte	0x2
 7133 097e 30       		.byte	0x30
 7134 097f 9F       		.byte	0x9f
 7135 0980 00000000 		.4byte	0
 7136 0984 00000000 		.4byte	0
 7137              	.LLST55:
 7138 0988 00000000 		.4byte	.LVL136
 7139 098c 0A000000 		.4byte	.LVL137
 7140 0990 0100     		.2byte	0x1
 7141 0992 50       		.byte	0x50
ARM GAS  C:\Users\ddemidov\AppData\Local\Temp\ccBlgygZ.s 			page 159


 7142 0993 0A000000 		.4byte	.LVL137
 7143 0997 34000000 		.4byte	.LVL144
 7144 099b 0100     		.2byte	0x1
 7145 099d 54       		.byte	0x54
 7146 099e 34000000 		.4byte	.LVL144
 7147 09a2 38000000 		.4byte	.LVL145
 7148 09a6 0100     		.2byte	0x1
 7149 09a8 50       		.byte	0x50
 7150 09a9 38000000 		.4byte	.LVL145
 7151 09ad 3C000000 		.4byte	.LFE23
 7152 09b1 0400     		.2byte	0x4
 7153 09b3 F3       		.byte	0xf3
 7154 09b4 01       		.uleb128 0x1
 7155 09b5 50       		.byte	0x50
 7156 09b6 9F       		.byte	0x9f
 7157 09b7 00000000 		.4byte	0
 7158 09bb 00000000 		.4byte	0
 7159              	.LLST56:
 7160 09bf 00000000 		.4byte	.LVL136
 7161 09c3 1C000000 		.4byte	.LVL139
 7162 09c7 0400     		.2byte	0x4
 7163 09c9 0B       		.byte	0xb
 7164 09ca 53FF     		.2byte	0xff53
 7165 09cc 9F       		.byte	0x9f
 7166 09cd 1C000000 		.4byte	.LVL139
 7167 09d1 2A000000 		.4byte	.LVL142
 7168 09d5 0100     		.2byte	0x1
 7169 09d7 55       		.byte	0x55
 7170 09d8 2A000000 		.4byte	.LVL142
 7171 09dc 2E000000 		.4byte	.LVL143
 7172 09e0 0400     		.2byte	0x4
 7173 09e2 0B       		.byte	0xb
 7174 09e3 53FF     		.2byte	0xff53
 7175 09e5 9F       		.byte	0x9f
 7176 09e6 2E000000 		.4byte	.LVL143
 7177 09ea 34000000 		.4byte	.LVL144
 7178 09ee 0100     		.2byte	0x1
 7179 09f0 55       		.byte	0x55
 7180 09f1 34000000 		.4byte	.LVL144
 7181 09f5 38000000 		.4byte	.LVL145
 7182 09f9 0400     		.2byte	0x4
 7183 09fb 0B       		.byte	0xb
 7184 09fc 53FF     		.2byte	0xff53
 7185 09fe 9F       		.byte	0x9f
 7186 09ff 38000000 		.4byte	.LVL145
 7187 0a03 3A000000 		.4byte	.LVL146
 7188 0a07 0100     		.2byte	0x1
 7189 0a09 55       		.byte	0x55
 7190 0a0a 3A000000 		.4byte	.LVL146
 7191 0a0e 3C000000 		.4byte	.LFE23
 7192 0a12 0100     		.2byte	0x1
 7193 0a14 50       		.byte	0x50
 7194 0a15 00000000 		.4byte	0
 7195 0a19 00000000 		.4byte	0
 7196              	.LLST57:
 7197 0a1d 1E000000 		.4byte	.LVL140
 7198 0a21 25000000 		.4byte	.LVL141-1
ARM GAS  C:\Users\ddemidov\AppData\Local\Temp\ccBlgygZ.s 			page 160


 7199 0a25 0100     		.2byte	0x1
 7200 0a27 50       		.byte	0x50
 7201 0a28 00000000 		.4byte	0
 7202 0a2c 00000000 		.4byte	0
 7203              	.LLST58:
 7204 0a30 00000000 		.4byte	.LVL147
 7205 0a34 20000000 		.4byte	.LVL148
 7206 0a38 0100     		.2byte	0x1
 7207 0a3a 50       		.byte	0x50
 7208 0a3b 20000000 		.4byte	.LVL148
 7209 0a3f 42000000 		.4byte	.LVL151
 7210 0a43 0100     		.2byte	0x1
 7211 0a45 55       		.byte	0x55
 7212 0a46 42000000 		.4byte	.LVL151
 7213 0a4a 46000000 		.4byte	.LVL152
 7214 0a4e 0400     		.2byte	0x4
 7215 0a50 F3       		.byte	0xf3
 7216 0a51 01       		.uleb128 0x1
 7217 0a52 50       		.byte	0x50
 7218 0a53 9F       		.byte	0x9f
 7219 0a54 46000000 		.4byte	.LVL152
 7220 0a58 6E000000 		.4byte	.LVL156
 7221 0a5c 0100     		.2byte	0x1
 7222 0a5e 55       		.byte	0x55
 7223 0a5f 6E000000 		.4byte	.LVL156
 7224 0a63 70000000 		.4byte	.LVL157
 7225 0a67 0100     		.2byte	0x1
 7226 0a69 50       		.byte	0x50
 7227 0a6a 70000000 		.4byte	.LVL157
 7228 0a6e 76000000 		.4byte	.LFE24
 7229 0a72 0400     		.2byte	0x4
 7230 0a74 F3       		.byte	0xf3
 7231 0a75 01       		.uleb128 0x1
 7232 0a76 50       		.byte	0x50
 7233 0a77 9F       		.byte	0x9f
 7234 0a78 00000000 		.4byte	0
 7235 0a7c 00000000 		.4byte	0
 7236              	.LLST59:
 7237 0a80 00000000 		.4byte	.LVL147
 7238 0a84 25000000 		.4byte	.LVL149-1
 7239 0a88 0100     		.2byte	0x1
 7240 0a8a 51       		.byte	0x51
 7241 0a8b 25000000 		.4byte	.LVL149-1
 7242 0a8f 6E000000 		.4byte	.LVL156
 7243 0a93 0400     		.2byte	0x4
 7244 0a95 F3       		.byte	0xf3
 7245 0a96 01       		.uleb128 0x1
 7246 0a97 51       		.byte	0x51
 7247 0a98 9F       		.byte	0x9f
 7248 0a99 6E000000 		.4byte	.LVL156
 7249 0a9d 70000000 		.4byte	.LVL157
 7250 0aa1 0100     		.2byte	0x1
 7251 0aa3 51       		.byte	0x51
 7252 0aa4 70000000 		.4byte	.LVL157
 7253 0aa8 76000000 		.4byte	.LFE24
 7254 0aac 0400     		.2byte	0x4
 7255 0aae F3       		.byte	0xf3
ARM GAS  C:\Users\ddemidov\AppData\Local\Temp\ccBlgygZ.s 			page 161


 7256 0aaf 01       		.uleb128 0x1
 7257 0ab0 51       		.byte	0x51
 7258 0ab1 9F       		.byte	0x9f
 7259 0ab2 00000000 		.4byte	0
 7260 0ab6 00000000 		.4byte	0
 7261              	.LLST60:
 7262 0aba 00000000 		.4byte	.LVL147
 7263 0abe 25000000 		.4byte	.LVL149-1
 7264 0ac2 0100     		.2byte	0x1
 7265 0ac4 52       		.byte	0x52
 7266 0ac5 25000000 		.4byte	.LVL149-1
 7267 0ac9 6E000000 		.4byte	.LVL156
 7268 0acd 0400     		.2byte	0x4
 7269 0acf F3       		.byte	0xf3
 7270 0ad0 01       		.uleb128 0x1
 7271 0ad1 52       		.byte	0x52
 7272 0ad2 9F       		.byte	0x9f
 7273 0ad3 6E000000 		.4byte	.LVL156
 7274 0ad7 70000000 		.4byte	.LVL157
 7275 0adb 0100     		.2byte	0x1
 7276 0add 52       		.byte	0x52
 7277 0ade 70000000 		.4byte	.LVL157
 7278 0ae2 76000000 		.4byte	.LFE24
 7279 0ae6 0400     		.2byte	0x4
 7280 0ae8 F3       		.byte	0xf3
 7281 0ae9 01       		.uleb128 0x1
 7282 0aea 52       		.byte	0x52
 7283 0aeb 9F       		.byte	0x9f
 7284 0aec 00000000 		.4byte	0
 7285 0af0 00000000 		.4byte	0
 7286              	.LLST61:
 7287 0af4 00000000 		.4byte	.LVL147
 7288 0af8 25000000 		.4byte	.LVL149-1
 7289 0afc 0100     		.2byte	0x1
 7290 0afe 53       		.byte	0x53
 7291 0aff 25000000 		.4byte	.LVL149-1
 7292 0b03 42000000 		.4byte	.LVL151
 7293 0b07 0100     		.2byte	0x1
 7294 0b09 54       		.byte	0x54
 7295 0b0a 42000000 		.4byte	.LVL151
 7296 0b0e 46000000 		.4byte	.LVL152
 7297 0b12 0400     		.2byte	0x4
 7298 0b14 F3       		.byte	0xf3
 7299 0b15 01       		.uleb128 0x1
 7300 0b16 53       		.byte	0x53
 7301 0b17 9F       		.byte	0x9f
 7302 0b18 46000000 		.4byte	.LVL152
 7303 0b1c 6E000000 		.4byte	.LVL156
 7304 0b20 0100     		.2byte	0x1
 7305 0b22 54       		.byte	0x54
 7306 0b23 6E000000 		.4byte	.LVL156
 7307 0b27 70000000 		.4byte	.LVL157
 7308 0b2b 0100     		.2byte	0x1
 7309 0b2d 53       		.byte	0x53
 7310 0b2e 70000000 		.4byte	.LVL157
 7311 0b32 76000000 		.4byte	.LFE24
 7312 0b36 0400     		.2byte	0x4
ARM GAS  C:\Users\ddemidov\AppData\Local\Temp\ccBlgygZ.s 			page 162


 7313 0b38 F3       		.byte	0xf3
 7314 0b39 01       		.uleb128 0x1
 7315 0b3a 53       		.byte	0x53
 7316 0b3b 9F       		.byte	0x9f
 7317 0b3c 00000000 		.4byte	0
 7318 0b40 00000000 		.4byte	0
 7319              	.LLST62:
 7320 0b44 00000000 		.4byte	.LVL158
 7321 0b48 20000000 		.4byte	.LVL159
 7322 0b4c 0100     		.2byte	0x1
 7323 0b4e 50       		.byte	0x50
 7324 0b4f 20000000 		.4byte	.LVL159
 7325 0b53 B8000000 		.4byte	.LVL181
 7326 0b57 0100     		.2byte	0x1
 7327 0b59 54       		.byte	0x54
 7328 0b5a B8000000 		.4byte	.LVL181
 7329 0b5e BA000000 		.4byte	.LVL182
 7330 0b62 0100     		.2byte	0x1
 7331 0b64 50       		.byte	0x50
 7332 0b65 BA000000 		.4byte	.LVL182
 7333 0b69 BC000000 		.4byte	.LVL183
 7334 0b6d 0400     		.2byte	0x4
 7335 0b6f F3       		.byte	0xf3
 7336 0b70 01       		.uleb128 0x1
 7337 0b71 50       		.byte	0x50
 7338 0b72 9F       		.byte	0x9f
 7339 0b73 BC000000 		.4byte	.LVL183
 7340 0b77 BE000000 		.4byte	.LVL184
 7341 0b7b 0100     		.2byte	0x1
 7342 0b7d 50       		.byte	0x50
 7343 0b7e BE000000 		.4byte	.LVL184
 7344 0b82 C8000000 		.4byte	.LFE21
 7345 0b86 0400     		.2byte	0x4
 7346 0b88 F3       		.byte	0xf3
 7347 0b89 01       		.uleb128 0x1
 7348 0b8a 50       		.byte	0x50
 7349 0b8b 9F       		.byte	0x9f
 7350 0b8c 00000000 		.4byte	0
 7351 0b90 00000000 		.4byte	0
 7352              	.LLST63:
 7353 0b94 00000000 		.4byte	.LVL158
 7354 0b98 27000000 		.4byte	.LVL160-1
 7355 0b9c 0100     		.2byte	0x1
 7356 0b9e 51       		.byte	0x51
 7357 0b9f 27000000 		.4byte	.LVL160-1
 7358 0ba3 B8000000 		.4byte	.LVL181
 7359 0ba7 0100     		.2byte	0x1
 7360 0ba9 57       		.byte	0x57
 7361 0baa B8000000 		.4byte	.LVL181
 7362 0bae BE000000 		.4byte	.LVL184
 7363 0bb2 0100     		.2byte	0x1
 7364 0bb4 51       		.byte	0x51
 7365 0bb5 BE000000 		.4byte	.LVL184
 7366 0bb9 C8000000 		.4byte	.LFE21
 7367 0bbd 0400     		.2byte	0x4
 7368 0bbf F3       		.byte	0xf3
 7369 0bc0 01       		.uleb128 0x1
ARM GAS  C:\Users\ddemidov\AppData\Local\Temp\ccBlgygZ.s 			page 163


 7370 0bc1 51       		.byte	0x51
 7371 0bc2 9F       		.byte	0x9f
 7372 0bc3 00000000 		.4byte	0
 7373 0bc7 00000000 		.4byte	0
 7374              	.LLST64:
 7375 0bcb 00000000 		.4byte	.LVL158
 7376 0bcf 27000000 		.4byte	.LVL160-1
 7377 0bd3 0100     		.2byte	0x1
 7378 0bd5 52       		.byte	0x52
 7379 0bd6 27000000 		.4byte	.LVL160-1
 7380 0bda B8000000 		.4byte	.LVL181
 7381 0bde 0300     		.2byte	0x3
 7382 0be0 91       		.byte	0x91
 7383 0be1 E47E     		.sleb128 -156
 7384 0be3 B8000000 		.4byte	.LVL181
 7385 0be7 BE000000 		.4byte	.LVL184
 7386 0beb 0100     		.2byte	0x1
 7387 0bed 52       		.byte	0x52
 7388 0bee BE000000 		.4byte	.LVL184
 7389 0bf2 C8000000 		.4byte	.LFE21
 7390 0bf6 0400     		.2byte	0x4
 7391 0bf8 F3       		.byte	0xf3
 7392 0bf9 01       		.uleb128 0x1
 7393 0bfa 52       		.byte	0x52
 7394 0bfb 9F       		.byte	0x9f
 7395 0bfc 00000000 		.4byte	0
 7396 0c00 00000000 		.4byte	0
 7397              	.LLST65:
 7398 0c04 2A000000 		.4byte	.LVL161
 7399 0c08 42000000 		.4byte	.LVL163
 7400 0c0c 0100     		.2byte	0x1
 7401 0c0e 50       		.byte	0x50
 7402 0c0f 68000000 		.4byte	.LVL169
 7403 0c13 70000000 		.4byte	.LVL170
 7404 0c17 0400     		.2byte	0x4
 7405 0c19 0B       		.byte	0xb
 7406 0c1a 2FFF     		.2byte	0xff2f
 7407 0c1c 9F       		.byte	0x9f
 7408 0c1d 90000000 		.4byte	.LVL175
 7409 0c21 94000000 		.4byte	.LVL176
 7410 0c25 0100     		.2byte	0x1
 7411 0c27 50       		.byte	0x50
 7412 0c28 94000000 		.4byte	.LVL176
 7413 0c2c B0000000 		.4byte	.LVL180
 7414 0c30 0100     		.2byte	0x1
 7415 0c32 55       		.byte	0x55
 7416 0c33 B0000000 		.4byte	.LVL180
 7417 0c37 B8000000 		.4byte	.LVL181
 7418 0c3b 0400     		.2byte	0x4
 7419 0c3d 0B       		.byte	0xb
 7420 0c3e 39FF     		.2byte	0xff39
 7421 0c40 9F       		.byte	0x9f
 7422 0c41 00000000 		.4byte	0
 7423 0c45 00000000 		.4byte	0
 7424              	.LLST66:
 7425 0c49 2E000000 		.4byte	.LVL162
 7426 0c4d 68000000 		.4byte	.LVL169
ARM GAS  C:\Users\ddemidov\AppData\Local\Temp\ccBlgygZ.s 			page 164


 7427 0c51 0200     		.2byte	0x2
 7428 0c53 31       		.byte	0x31
 7429 0c54 9F       		.byte	0x9f
 7430 0c55 70000000 		.4byte	.LVL170
 7431 0c59 A6000000 		.4byte	.LVL179
 7432 0c5d 0200     		.2byte	0x2
 7433 0c5f 31       		.byte	0x31
 7434 0c60 9F       		.byte	0x9f
 7435 0c61 00000000 		.4byte	0
 7436 0c65 00000000 		.4byte	0
 7437              	.LLST67:
 7438 0c69 2E000000 		.4byte	.LVL162
 7439 0c6d 62000000 		.4byte	.LVL168
 7440 0c71 0200     		.2byte	0x2
 7441 0c73 30       		.byte	0x30
 7442 0c74 9F       		.byte	0x9f
 7443 0c75 62000000 		.4byte	.LVL168
 7444 0c79 68000000 		.4byte	.LVL169
 7445 0c7d 0600     		.2byte	0x6
 7446 0c7f 70       		.byte	0x70
 7447 0c80 00       		.sleb128 0
 7448 0c81 30       		.byte	0x30
 7449 0c82 2E       		.byte	0x2e
 7450 0c83 1F       		.byte	0x1f
 7451 0c84 9F       		.byte	0x9f
 7452 0c85 70000000 		.4byte	.LVL170
 7453 0c89 7A000000 		.4byte	.LVL172
 7454 0c8d 0600     		.2byte	0x6
 7455 0c8f 70       		.byte	0x70
 7456 0c90 00       		.sleb128 0
 7457 0c91 30       		.byte	0x30
 7458 0c92 2E       		.byte	0x2e
 7459 0c93 1F       		.byte	0x1f
 7460 0c94 9F       		.byte	0x9f
 7461 0c95 00000000 		.4byte	0
 7462 0c99 00000000 		.4byte	0
 7463              	.LLST69:
 7464 0c9d 4A000000 		.4byte	.LVL164
 7465 0ca1 50000000 		.4byte	.LVL165
 7466 0ca5 0100     		.2byte	0x1
 7467 0ca7 50       		.byte	0x50
 7468 0ca8 62000000 		.4byte	.LVL168
 7469 0cac 68000000 		.4byte	.LVL169
 7470 0cb0 0600     		.2byte	0x6
 7471 0cb2 70       		.byte	0x70
 7472 0cb3 00       		.sleb128 0
 7473 0cb4 30       		.byte	0x30
 7474 0cb5 2E       		.byte	0x2e
 7475 0cb6 1F       		.byte	0x1f
 7476 0cb7 9F       		.byte	0x9f
 7477 0cb8 70000000 		.4byte	.LVL170
 7478 0cbc 7A000000 		.4byte	.LVL172
 7479 0cc0 0600     		.2byte	0x6
 7480 0cc2 70       		.byte	0x70
 7481 0cc3 00       		.sleb128 0
 7482 0cc4 30       		.byte	0x30
 7483 0cc5 2E       		.byte	0x2e
ARM GAS  C:\Users\ddemidov\AppData\Local\Temp\ccBlgygZ.s 			page 165


 7484 0cc6 1F       		.byte	0x1f
 7485 0cc7 9F       		.byte	0x9f
 7486 0cc8 00000000 		.4byte	0
 7487 0ccc 00000000 		.4byte	0
 7488              	.LLST70:
 7489 0cd0 50000000 		.4byte	.LVL165
 7490 0cd4 5A000000 		.4byte	.LVL166
 7491 0cd8 0100     		.2byte	0x1
 7492 0cda 53       		.byte	0x53
 7493 0cdb 5A000000 		.4byte	.LVL166
 7494 0cdf 5E000000 		.4byte	.LVL167
 7495 0ce3 0300     		.2byte	0x3
 7496 0ce5 73       		.byte	0x73
 7497 0ce6 7F       		.sleb128 -1
 7498 0ce7 9F       		.byte	0x9f
 7499 0ce8 5E000000 		.4byte	.LVL167
 7500 0cec 68000000 		.4byte	.LVL169
 7501 0cf0 0100     		.2byte	0x1
 7502 0cf2 53       		.byte	0x53
 7503 0cf3 70000000 		.4byte	.LVL170
 7504 0cf7 7F000000 		.4byte	.LVL173-1
 7505 0cfb 0100     		.2byte	0x1
 7506 0cfd 53       		.byte	0x53
 7507 0cfe 00000000 		.4byte	0
 7508 0d02 00000000 		.4byte	0
 7509              	.LLST71:
 7510 0d06 50000000 		.4byte	.LVL165
 7511 0d0a 68000000 		.4byte	.LVL169
 7512 0d0e 0100     		.2byte	0x1
 7513 0d10 50       		.byte	0x50
 7514 0d11 70000000 		.4byte	.LVL170
 7515 0d15 7A000000 		.4byte	.LVL172
 7516 0d19 0100     		.2byte	0x1
 7517 0d1b 50       		.byte	0x50
 7518 0d1c 00000000 		.4byte	0
 7519 0d20 00000000 		.4byte	0
 7520              	.LLST72:
 7521 0d24 70000000 		.4byte	.LVL170
 7522 0d28 7F000000 		.4byte	.LVL173-1
 7523 0d2c 0100     		.2byte	0x1
 7524 0d2e 52       		.byte	0x52
 7525 0d2f 00000000 		.4byte	0
 7526 0d33 00000000 		.4byte	0
 7527              	.LLST73:
 7528 0d37 00000000 		.4byte	.LVL185
 7529 0d3b 07000000 		.4byte	.LVL186-1
 7530 0d3f 0100     		.2byte	0x1
 7531 0d41 50       		.byte	0x50
 7532 0d42 07000000 		.4byte	.LVL186-1
 7533 0d46 0A000000 		.4byte	.LFE22
 7534 0d4a 0400     		.2byte	0x4
 7535 0d4c F3       		.byte	0xf3
 7536 0d4d 01       		.uleb128 0x1
 7537 0d4e 50       		.byte	0x50
 7538 0d4f 9F       		.byte	0x9f
 7539 0d50 00000000 		.4byte	0
 7540 0d54 00000000 		.4byte	0
ARM GAS  C:\Users\ddemidov\AppData\Local\Temp\ccBlgygZ.s 			page 166


 7541              	.LLST74:
 7542 0d58 00000000 		.4byte	.LVL185
 7543 0d5c 07000000 		.4byte	.LVL186-1
 7544 0d60 0100     		.2byte	0x1
 7545 0d62 51       		.byte	0x51
 7546 0d63 07000000 		.4byte	.LVL186-1
 7547 0d67 0A000000 		.4byte	.LFE22
 7548 0d6b 0400     		.2byte	0x4
 7549 0d6d F3       		.byte	0xf3
 7550 0d6e 01       		.uleb128 0x1
 7551 0d6f 51       		.byte	0x51
 7552 0d70 9F       		.byte	0x9f
 7553 0d71 00000000 		.4byte	0
 7554 0d75 00000000 		.4byte	0
 7555              	.LLST75:
 7556 0d79 00000000 		.4byte	.LVL187
 7557 0d7d 1A000000 		.4byte	.LVL189
 7558 0d81 0100     		.2byte	0x1
 7559 0d83 50       		.byte	0x50
 7560 0d84 1A000000 		.4byte	.LVL189
 7561 0d88 A0000000 		.4byte	.LVL211
 7562 0d8c 0100     		.2byte	0x1
 7563 0d8e 55       		.byte	0x55
 7564 0d8f A0000000 		.4byte	.LVL211
 7565 0d93 A2000000 		.4byte	.LVL212
 7566 0d97 0100     		.2byte	0x1
 7567 0d99 50       		.byte	0x50
 7568 0d9a A2000000 		.4byte	.LVL212
 7569 0d9e B4000000 		.4byte	.LFE20
 7570 0da2 0400     		.2byte	0x4
 7571 0da4 F3       		.byte	0xf3
 7572 0da5 01       		.uleb128 0x1
 7573 0da6 50       		.byte	0x50
 7574 0da7 9F       		.byte	0x9f
 7575 0da8 00000000 		.4byte	0
 7576 0dac 00000000 		.4byte	0
 7577              	.LLST76:
 7578 0db0 00000000 		.4byte	.LVL187
 7579 0db4 44000000 		.4byte	.LVL196
 7580 0db8 0400     		.2byte	0x4
 7581 0dba 0B       		.byte	0xb
 7582 0dbb 53FF     		.2byte	0xff53
 7583 0dbd 9F       		.byte	0x9f
 7584 0dbe 44000000 		.4byte	.LVL196
 7585 0dc2 4A000000 		.4byte	.LVL197
 7586 0dc6 0200     		.2byte	0x2
 7587 0dc8 34       		.byte	0x34
 7588 0dc9 9F       		.byte	0x9f
 7589 0dca 4A000000 		.4byte	.LVL197
 7590 0dce 4C000000 		.4byte	.LVL198
 7591 0dd2 0400     		.2byte	0x4
 7592 0dd4 0B       		.byte	0xb
 7593 0dd5 2FFF     		.2byte	0xff2f
 7594 0dd7 9F       		.byte	0x9f
 7595 0dd8 4C000000 		.4byte	.LVL198
 7596 0ddc 78000000 		.4byte	.LVL204
 7597 0de0 0400     		.2byte	0x4
ARM GAS  C:\Users\ddemidov\AppData\Local\Temp\ccBlgygZ.s 			page 167


 7598 0de2 0B       		.byte	0xb
 7599 0de3 53FF     		.2byte	0xff53
 7600 0de5 9F       		.byte	0x9f
 7601 0de6 78000000 		.4byte	.LVL204
 7602 0dea 7A000000 		.4byte	.LVL205
 7603 0dee 0100     		.2byte	0x1
 7604 0df0 50       		.byte	0x50
 7605 0df1 7A000000 		.4byte	.LVL205
 7606 0df5 7E000000 		.4byte	.LVL206
 7607 0df9 0400     		.2byte	0x4
 7608 0dfb 0B       		.byte	0xb
 7609 0dfc 53FF     		.2byte	0xff53
 7610 0dfe 9F       		.byte	0x9f
 7611 0dff 7E000000 		.4byte	.LVL206
 7612 0e03 96000000 		.4byte	.LVL208
 7613 0e07 0100     		.2byte	0x1
 7614 0e09 54       		.byte	0x54
 7615 0e0a 96000000 		.4byte	.LVL208
 7616 0e0e 98000000 		.4byte	.LVL209
 7617 0e12 0200     		.2byte	0x2
 7618 0e14 32       		.byte	0x32
 7619 0e15 9F       		.byte	0x9f
 7620 0e16 98000000 		.4byte	.LVL209
 7621 0e1a 9C000000 		.4byte	.LVL210
 7622 0e1e 0400     		.2byte	0x4
 7623 0e20 0B       		.byte	0xb
 7624 0e21 39FF     		.2byte	0xff39
 7625 0e23 9F       		.byte	0x9f
 7626 0e24 9C000000 		.4byte	.LVL210
 7627 0e28 A0000000 		.4byte	.LVL211
 7628 0e2c 0100     		.2byte	0x1
 7629 0e2e 54       		.byte	0x54
 7630 0e2f A0000000 		.4byte	.LVL211
 7631 0e33 A2000000 		.4byte	.LVL212
 7632 0e37 0400     		.2byte	0x4
 7633 0e39 0B       		.byte	0xb
 7634 0e3a 53FF     		.2byte	0xff53
 7635 0e3c 9F       		.byte	0x9f
 7636 0e3d A4000000 		.4byte	.LVL213
 7637 0e41 A8000000 		.4byte	.LVL214
 7638 0e45 0100     		.2byte	0x1
 7639 0e47 54       		.byte	0x54
 7640 0e48 A8000000 		.4byte	.LVL214
 7641 0e4c B4000000 		.4byte	.LFE20
 7642 0e50 0100     		.2byte	0x1
 7643 0e52 50       		.byte	0x50
 7644 0e53 00000000 		.4byte	0
 7645 0e57 00000000 		.4byte	0
 7646              	.LLST77:
 7647 0e5b 12000000 		.4byte	.LVL188
 7648 0e5f A0000000 		.4byte	.LVL211
 7649 0e63 0200     		.2byte	0x2
 7650 0e65 30       		.byte	0x30
 7651 0e66 9F       		.byte	0x9f
 7652 0e67 00000000 		.4byte	0
 7653 0e6b 00000000 		.4byte	0
 7654              	.LLST78:
ARM GAS  C:\Users\ddemidov\AppData\Local\Temp\ccBlgygZ.s 			page 168


 7655 0e6f 12000000 		.4byte	.LVL188
 7656 0e73 22000000 		.4byte	.LVL190
 7657 0e77 0200     		.2byte	0x2
 7658 0e79 30       		.byte	0x30
 7659 0e7a 9F       		.byte	0x9f
 7660 0e7b 22000000 		.4byte	.LVL190
 7661 0e7f 2A000000 		.4byte	.LVL191
 7662 0e83 0100     		.2byte	0x1
 7663 0e85 50       		.byte	0x50
 7664 0e86 40000000 		.4byte	.LVL195
 7665 0e8a 44000000 		.4byte	.LVL196
 7666 0e8e 0100     		.2byte	0x1
 7667 0e90 54       		.byte	0x54
 7668 0e91 4C000000 		.4byte	.LVL198
 7669 0e95 A0000000 		.4byte	.LVL211
 7670 0e99 0200     		.2byte	0x2
 7671 0e9b 30       		.byte	0x30
 7672 0e9c 9F       		.byte	0x9f
 7673 0e9d 00000000 		.4byte	0
 7674 0ea1 00000000 		.4byte	0
 7675              	.LLST79:
 7676 0ea5 2A000000 		.4byte	.LVL191
 7677 0ea9 32000000 		.4byte	.LVL192
 7678 0ead 0100     		.2byte	0x1
 7679 0eaf 53       		.byte	0x53
 7680 0eb0 32000000 		.4byte	.LVL192
 7681 0eb4 36000000 		.4byte	.LVL193
 7682 0eb8 0300     		.2byte	0x3
 7683 0eba 73       		.byte	0x73
 7684 0ebb 7F       		.sleb128 -1
 7685 0ebc 9F       		.byte	0x9f
 7686 0ebd 36000000 		.4byte	.LVL193
 7687 0ec1 44000000 		.4byte	.LVL196
 7688 0ec5 0100     		.2byte	0x1
 7689 0ec7 53       		.byte	0x53
 7690 0ec8 4C000000 		.4byte	.LVL198
 7691 0ecc 51000000 		.4byte	.LVL199-1
 7692 0ed0 0100     		.2byte	0x1
 7693 0ed2 53       		.byte	0x53
 7694 0ed3 00000000 		.4byte	0
 7695 0ed7 00000000 		.4byte	0
 7696              	.LLST80:
 7697 0edb 2A000000 		.4byte	.LVL191
 7698 0edf 3E000000 		.4byte	.LVL194
 7699 0ee3 0100     		.2byte	0x1
 7700 0ee5 52       		.byte	0x52
 7701 0ee6 00000000 		.4byte	0
 7702 0eea 00000000 		.4byte	0
 7703              	.LLST81:
 7704 0eee 5A000000 		.4byte	.LVL200
 7705 0ef2 67000000 		.4byte	.LVL202-1
 7706 0ef6 0100     		.2byte	0x1
 7707 0ef8 52       		.byte	0x52
 7708 0ef9 00000000 		.4byte	0
 7709 0efd 00000000 		.4byte	0
 7710              	.LLST82:
 7711 0f01 00000000 		.4byte	.LVL215
ARM GAS  C:\Users\ddemidov\AppData\Local\Temp\ccBlgygZ.s 			page 169


 7712 0f05 0E000000 		.4byte	.LVL218
 7713 0f09 0100     		.2byte	0x1
 7714 0f0b 50       		.byte	0x50
 7715 0f0c 0E000000 		.4byte	.LVL218
 7716 0f10 10000000 		.4byte	.LFE26
 7717 0f14 0400     		.2byte	0x4
 7718 0f16 F3       		.byte	0xf3
 7719 0f17 01       		.uleb128 0x1
 7720 0f18 50       		.byte	0x50
 7721 0f19 9F       		.byte	0x9f
 7722 0f1a 00000000 		.4byte	0
 7723 0f1e 00000000 		.4byte	0
 7724              	.LLST83:
 7725 0f22 00000000 		.4byte	.LVL215
 7726 0f26 02000000 		.4byte	.LVL216
 7727 0f2a 0200     		.2byte	0x2
 7728 0f2c 30       		.byte	0x30
 7729 0f2d 9F       		.byte	0x9f
 7730 0f2e 02000000 		.4byte	.LVL216
 7731 0f32 10000000 		.4byte	.LFE26
 7732 0f36 0100     		.2byte	0x1
 7733 0f38 53       		.byte	0x53
 7734 0f39 00000000 		.4byte	0
 7735 0f3d 00000000 		.4byte	0
 7736              		.section	.debug_aranges,"",%progbits
 7737 0000 7C000000 		.4byte	0x7c
 7738 0004 0200     		.2byte	0x2
 7739 0006 00000000 		.4byte	.Ldebug_info0
 7740 000a 04       		.byte	0x4
 7741 000b 00       		.byte	0
 7742 000c 0000     		.2byte	0
 7743 000e 0000     		.2byte	0
 7744 0010 00000000 		.4byte	.LFB10
 7745 0014 10000000 		.4byte	.LFE10-.LFB10
 7746 0018 00000000 		.4byte	.LFB19
 7747 001c 26000000 		.4byte	.LFE19-.LFB19
 7748 0020 00000000 		.4byte	.LFB30
 7749 0024 36000000 		.4byte	.LFE30-.LFB30
 7750 0028 00000000 		.4byte	.LFB31
 7751 002c E0000000 		.4byte	.LFE31-.LFB31
 7752 0030 00000000 		.4byte	.LFB34
 7753 0034 4E000000 		.4byte	.LFE34-.LFB34
 7754 0038 00000000 		.4byte	.LFB13
 7755 003c 58000000 		.4byte	.LFE13-.LFB13
 7756 0040 00000000 		.4byte	.LFB17
 7757 0044 80010000 		.4byte	.LFE17-.LFB17
 7758 0048 00000000 		.4byte	.LFB23
 7759 004c 3C000000 		.4byte	.LFE23-.LFB23
 7760 0050 00000000 		.4byte	.LFB24
 7761 0054 76000000 		.4byte	.LFE24-.LFB24
 7762 0058 00000000 		.4byte	.LFB21
 7763 005c C8000000 		.4byte	.LFE21-.LFB21
 7764 0060 00000000 		.4byte	.LFB22
 7765 0064 0A000000 		.4byte	.LFE22-.LFB22
 7766 0068 00000000 		.4byte	.LFB20
 7767 006c B4000000 		.4byte	.LFE20-.LFB20
 7768 0070 00000000 		.4byte	.LFB26
ARM GAS  C:\Users\ddemidov\AppData\Local\Temp\ccBlgygZ.s 			page 170


 7769 0074 10000000 		.4byte	.LFE26-.LFB26
 7770 0078 00000000 		.4byte	0
 7771 007c 00000000 		.4byte	0
 7772              		.section	.debug_ranges,"",%progbits
 7773              	.Ldebug_ranges0:
 7774 0000 20000000 		.4byte	.LBB37
 7775 0004 E2000000 		.4byte	.LBE37
 7776 0008 E4000000 		.4byte	.LBB45
 7777 000c E6000000 		.4byte	.LBE45
 7778 0010 F0000000 		.4byte	.LBB46
 7779 0014 F6000000 		.4byte	.LBE46
 7780 0018 00000000 		.4byte	0
 7781 001c 00000000 		.4byte	0
 7782 0020 A6000000 		.4byte	.LBB39
 7783 0024 A8000000 		.4byte	.LBE39
 7784 0028 AC000000 		.4byte	.LBB42
 7785 002c BE000000 		.4byte	.LBE42
 7786 0030 00000000 		.4byte	0
 7787 0034 00000000 		.4byte	0
 7788 0038 42010000 		.4byte	.LBB51
 7789 003c 46010000 		.4byte	.LBE51
 7790 0040 48010000 		.4byte	.LBB62
 7791 0044 56010000 		.4byte	.LBE62
 7792 0048 00000000 		.4byte	0
 7793 004c 00000000 		.4byte	0
 7794 0050 4C010000 		.4byte	.LBB53
 7795 0054 4E010000 		.4byte	.LBE53
 7796 0058 54010000 		.4byte	.LBB56
 7797 005c 56010000 		.4byte	.LBE56
 7798 0060 00000000 		.4byte	0
 7799 0064 00000000 		.4byte	0
 7800 0068 46010000 		.4byte	.LBB58
 7801 006c 48010000 		.4byte	.LBE58
 7802 0070 56010000 		.4byte	.LBB63
 7803 0074 5A010000 		.4byte	.LBE63
 7804 0078 5C010000 		.4byte	.LBB64
 7805 007c 60010000 		.4byte	.LBE64
 7806 0080 00000000 		.4byte	0
 7807 0084 00000000 		.4byte	0
 7808 0088 00000000 		.4byte	.LFB10
 7809 008c 10000000 		.4byte	.LFE10
 7810 0090 00000000 		.4byte	.LFB19
 7811 0094 26000000 		.4byte	.LFE19
 7812 0098 00000000 		.4byte	.LFB30
 7813 009c 36000000 		.4byte	.LFE30
 7814 00a0 00000000 		.4byte	.LFB31
 7815 00a4 E0000000 		.4byte	.LFE31
 7816 00a8 00000000 		.4byte	.LFB34
 7817 00ac 4E000000 		.4byte	.LFE34
 7818 00b0 00000000 		.4byte	.LFB13
 7819 00b4 58000000 		.4byte	.LFE13
 7820 00b8 00000000 		.4byte	.LFB17
 7821 00bc 80010000 		.4byte	.LFE17
 7822 00c0 00000000 		.4byte	.LFB23
 7823 00c4 3C000000 		.4byte	.LFE23
 7824 00c8 00000000 		.4byte	.LFB24
 7825 00cc 76000000 		.4byte	.LFE24
ARM GAS  C:\Users\ddemidov\AppData\Local\Temp\ccBlgygZ.s 			page 171


 7826 00d0 00000000 		.4byte	.LFB21
 7827 00d4 C8000000 		.4byte	.LFE21
 7828 00d8 00000000 		.4byte	.LFB22
 7829 00dc 0A000000 		.4byte	.LFE22
 7830 00e0 00000000 		.4byte	.LFB20
 7831 00e4 B4000000 		.4byte	.LFE20
 7832 00e8 00000000 		.4byte	.LFB26
 7833 00ec 10000000 		.4byte	.LFE26
 7834 00f0 00000000 		.4byte	0
 7835 00f4 00000000 		.4byte	0
 7836              		.section	.debug_line,"",%progbits
 7837              	.Ldebug_line0:
 7838 0000 02040000 		.section	.debug_str,"MS",%progbits,1
 7838      02003D01 
 7838      00000201 
 7838      FB0E0D00 
 7838      01010101 
 7839              	.LASF192:
 7840 0000 534B4944 		.ascii	"SKID_E\000"
 7840      5F4500
 7841              	.LASF238:
 7842 0007 48617368 		.ascii	"Hash_DRBG_Reseed\000"
 7842      5F445242 
 7842      475F5265 
 7842      73656564 
 7842      00
 7843              	.LASF62:
 7844 0018 44594E41 		.ascii	"DYNAMIC_TYPE_COOKIE_PWD\000"
 7844      4D49435F 
 7844      54595045 
 7844      5F434F4F 
 7844      4B49455F 
 7845              	.LASF83:
 7846 0030 64726267 		.ascii	"drbg\000"
 7846      00
 7847              	.LASF58:
 7848 0035 44594E41 		.ascii	"DYNAMIC_TYPE_OCSP\000"
 7848      4D49435F 
 7848      54595045 
 7848      5F4F4353 
 7848      5000
 7849              	.LASF181:
 7850 0047 54485245 		.ascii	"THREAD_STORE_SET_E\000"
 7850      41445F53 
 7850      544F5245 
 7850      5F534554 
 7850      5F4500
 7851              	.LASF222:
 7852 005a 6F757470 		.ascii	"output\000"
 7852      757400
 7853              	.LASF142:
 7854 0061 41534E5F 		.ascii	"ASN_ECC_KEY_E\000"
 7854      4543435F 
 7854      4B45595F 
 7854      4500
 7855              	.LASF132:
 7856 006f 41534E5F 		.ascii	"ASN_SIG_OID_E\000"
ARM GAS  C:\Users\ddemidov\AppData\Local\Temp\ccBlgygZ.s 			page 172


 7856      5349475F 
 7856      4F49445F 
 7856      4500
 7857              	.LASF172:
 7858 007d 494E5F43 		.ascii	"IN_CORE_FIPS_E\000"
 7858      4F52455F 
 7858      46495053 
 7858      5F4500
 7859              	.LASF90:
 7860 008c 4D41585F 		.ascii	"MAX_CODE_E\000"
 7860      434F4445 
 7860      5F4500
 7861              	.LASF28:
 7862 0097 44594E41 		.ascii	"DYNAMIC_TYPE_INFO\000"
 7862      4D49435F 
 7862      54595045 
 7862      5F494E46 
 7862      4F00
 7863              	.LASF228:
 7864 00a9 73656564 		.ascii	"seedSz\000"
 7864      537A00
 7865              	.LASF79:
 7866 00b0 62756666 		.ascii	"buffer\000"
 7866      657200
 7867              	.LASF169:
 7868 00b7 484D4143 		.ascii	"HMAC_MIN_KEYLEN_E\000"
 7868      5F4D494E 
 7868      5F4B4559 
 7868      4C454E5F 
 7868      4500
 7869              	.LASF5:
 7870 00c9 756E7369 		.ascii	"unsigned int\000"
 7870      676E6564 
 7870      20696E74 
 7870      00
 7871              	.LASF240:
 7872 00d6 656E7472 		.ascii	"entropySz\000"
 7872      6F707953 
 7872      7A00
 7873              	.LASF120:
 7874 00e0 41534E5F 		.ascii	"ASN_PARSE_E\000"
 7874      50415253 
 7874      455F4500 
 7875              	.LASF158:
 7876 00ec 41534E5F 		.ascii	"ASN_CRL_CONFIRM_E\000"
 7876      43524C5F 
 7876      434F4E46 
 7876      49524D5F 
 7876      4500
 7877              	.LASF69:
 7878 00fe 44594E41 		.ascii	"DYNAMIC_TYPE_DTLS_FRAG\000"
 7878      4D49435F 
 7878      54595045 
 7878      5F44544C 
 7878      535F4652 
 7879              	.LASF196:
 7880 0115 57435F49 		.ascii	"WC_INIT_E\000"
ARM GAS  C:\Users\ddemidov\AppData\Local\Temp\ccBlgygZ.s 			page 173


 7880      4E49545F 
 7880      4500
 7881              	.LASF221:
 7882 011f 63686563 		.ascii	"check\000"
 7882      6B00
 7883              	.LASF75:
 7884 0125 62756666 		.ascii	"buffLen\000"
 7884      4C656E00 
 7885              	.LASF64:
 7886 012d 44594E41 		.ascii	"DYNAMIC_TYPE_OCSP_REQUEST\000"
 7886      4D49435F 
 7886      54595045 
 7886      5F4F4353 
 7886      505F5245 
 7887              	.LASF99:
 7888 0147 4D505F45 		.ascii	"MP_EXPTMOD_E\000"
 7888      5850544D 
 7888      4F445F45 
 7888      00
 7889              	.LASF141:
 7890 0154 4543435F 		.ascii	"ECC_BAD_ARG_E\000"
 7890      4241445F 
 7890      4152475F 
 7890      4500
 7891              	.LASF130:
 7892 0162 41534E5F 		.ascii	"ASN_BEFORE_DATE_E\000"
 7892      4245464F 
 7892      52455F44 
 7892      4154455F 
 7892      4500
 7893              	.LASF207:
 7894 0174 644C656E 		.ascii	"dLen\000"
 7894      00
 7895              	.LASF193:
 7896 0179 414B4944 		.ascii	"AKID_E\000"
 7896      5F4500
 7897              	.LASF185:
 7898 0180 4543435F 		.ascii	"ECC_PRIV_KEY_E\000"
 7898      50524956 
 7898      5F4B4559 
 7898      5F4500
 7899              	.LASF150:
 7900 018f 4145535F 		.ascii	"AES_CCM_AUTH_E\000"
 7900      43434D5F 
 7900      41555448 
 7900      5F4500
 7901              	.LASF153:
 7902 019e 434F4D50 		.ascii	"COMPRESS_E\000"
 7902      52455353 
 7902      5F4500
 7903              	.LASF77:
 7904 01a9 68694C65 		.ascii	"hiLen\000"
 7904      6E00
 7905              	.LASF216:
 7906 01af 696E4153 		.ascii	"inASz\000"
 7906      7A00
 7907              	.LASF254:
ARM GAS  C:\Users\ddemidov\AppData\Local\Temp\ccBlgygZ.s 			page 174


 7908 01b5 72657365 		.ascii	"reseedEntropyA\000"
 7908      6564456E 
 7908      74726F70 
 7908      794100
 7909              	.LASF164:
 7910 01c4 504B4353 		.ascii	"PKCS7_OID_E\000"
 7910      375F4F49 
 7910      445F4500 
 7911              	.LASF188:
 7912 01d0 5352505F 		.ascii	"SRP_BAD_KEY_E\000"
 7912      4241445F 
 7912      4B45595F 
 7912      4500
 7913              	.LASF115:
 7914 01de 44415445 		.ascii	"DATE_E\000"
 7914      5F4500
 7915              	.LASF249:
 7916 01e5 656E7472 		.ascii	"entropyBSz\000"
 7916      6F707942 
 7916      537A00
 7917              	.LASF139:
 7918 01f0 41534E5F 		.ascii	"ASN_NTRU_KEY_E\000"
 7918      4E545255 
 7918      5F4B4559 
 7918      5F4500
 7919              	.LASF43:
 7920 01ff 44594E41 		.ascii	"DYNAMIC_TYPE_ALTNAME\000"
 7920      4D49435F 
 7920      54595045 
 7920      5F414C54 
 7920      4E414D45 
 7921              	.LASF239:
 7922 0214 656E7472 		.ascii	"entropy\000"
 7922      6F707900 
 7923              	.LASF15:
 7924 021c 44594E41 		.ascii	"DYNAMIC_TYPE_CA\000"
 7924      4D49435F 
 7924      54595045 
 7924      5F434100 
 7925              	.LASF104:
 7926 022c 4D505F4D 		.ascii	"MP_MULMOD_E\000"
 7926      554C4D4F 
 7926      445F4500 
 7927              	.LASF34:
 7928 0238 44594E41 		.ascii	"DYNAMIC_TYPE_OPENSSL\000"
 7928      4D49435F 
 7928      54595045 
 7928      5F4F5045 
 7928      4E53534C 
 7929              	.LASF101:
 7930 024d 4D505F53 		.ascii	"MP_SUB_E\000"
 7930      55425F45 
 7930      00
 7931              	.LASF242:
 7932 0256 63686563 		.ascii	"checkBlock\000"
 7932      6B426C6F 
 7932      636B00
ARM GAS  C:\Users\ddemidov\AppData\Local\Temp\ccBlgygZ.s 			page 175


 7933              	.LASF60:
 7934 0261 44594E41 		.ascii	"DYNAMIC_TYPE_HASHES\000"
 7934      4D49435F 
 7934      54595045 
 7934      5F484153 
 7934      48455300 
 7935              	.LASF26:
 7936 0275 44594E41 		.ascii	"DYNAMIC_TYPE_OUT_BUFFER\000"
 7936      4D49435F 
 7936      54595045 
 7936      5F4F5554 
 7936      5F425546 
 7937              	.LASF143:
 7938 028d 4543435F 		.ascii	"ECC_CURVE_OID_E\000"
 7938      43555256 
 7938      455F4F49 
 7938      445F4500 
 7939              	.LASF110:
 7940 029d 5253415F 		.ascii	"RSA_WRONG_TYPE_E\000"
 7940      57524F4E 
 7940      475F5459 
 7940      50455F45 
 7940      00
 7941              	.LASF129:
 7942 02ae 41534E5F 		.ascii	"ASN_DATE_SZ_E\000"
 7942      44415445 
 7942      5F535A5F 
 7942      4500
 7943              	.LASF46:
 7944 02bc 44594E41 		.ascii	"DYNAMIC_TYPE_RNG\000"
 7944      4D49435F 
 7944      54595045 
 7944      5F524E47 
 7944      00
 7945              	.LASF76:
 7946 02cd 6C6F4C65 		.ascii	"loLen\000"
 7946      6E00
 7947              	.LASF226:
 7948 02d3 64617461 		.ascii	"dataSz\000"
 7948      537A00
 7949              	.LASF117:
 7950 02da 49535355 		.ascii	"ISSUER_E\000"
 7950      45525F45 
 7950      00
 7951              	.LASF91:
 7952 02e3 4F50454E 		.ascii	"OPEN_RAN_E\000"
 7952      5F52414E 
 7952      5F4500
 7953              	.LASF263:
 7954 02ee 776F6C66 		.ascii	"wolfSSL_Free\000"
 7954      53534C5F 
 7954      46726565 
 7954      00
 7955              	.LASF20:
 7956 02fb 44594E41 		.ascii	"DYNAMIC_TYPE_PUBLIC_KEY\000"
 7956      4D49435F 
 7956      54595045 
ARM GAS  C:\Users\ddemidov\AppData\Local\Temp\ccBlgygZ.s 			page 176


 7956      5F505542 
 7956      4C49435F 
 7957              	.LASF173:
 7958 0313 4145535F 		.ascii	"AES_KAT_FIPS_E\000"
 7958      4B41545F 
 7958      46495053 
 7958      5F4500
 7959              	.LASF6:
 7960 0322 6C6F6E67 		.ascii	"long long unsigned int\000"
 7960      206C6F6E 
 7960      6720756E 
 7960      7369676E 
 7960      65642069 
 7961              	.LASF21:
 7962 0339 44594E41 		.ascii	"DYNAMIC_TYPE_SIGNER\000"
 7962      4D49435F 
 7962      54595045 
 7962      5F534947 
 7962      4E455200 
 7963              	.LASF157:
 7964 034d 41534E5F 		.ascii	"ASN_NO_SIGNER_E\000"
 7964      4E4F5F53 
 7964      49474E45 
 7964      525F4500 
 7965              	.LASF243:
 7966 035d 48617368 		.ascii	"Hash_DRBG_Generate\000"
 7966      5F445242 
 7966      475F4765 
 7966      6E657261 
 7966      746500
 7967              	.LASF103:
 7968 0370 4D505F4D 		.ascii	"MP_MUL_E\000"
 7968      554C5F45 
 7968      00
 7969              	.LASF136:
 7970 0379 41534E5F 		.ascii	"ASN_SIG_HASH_E\000"
 7970      5349475F 
 7970      48415348 
 7970      5F4500
 7971              	.LASF29:
 7972 0388 44594E41 		.ascii	"DYNAMIC_TYPE_DH\000"
 7972      4D49435F 
 7972      54595045 
 7972      5F444800 
 7973              	.LASF223:
 7974 0398 61727261 		.ascii	"array_add\000"
 7974      795F6164 
 7974      6400
 7975              	.LASF111:
 7976 03a2 5253415F 		.ascii	"RSA_BUFFER_E\000"
 7976      42554646 
 7976      45525F45 
 7976      00
 7977              	.LASF209:
 7978 03af 63617272 		.ascii	"carry\000"
 7978      7900
 7979              	.LASF268:
ARM GAS  C:\Users\ddemidov\AppData\Local\Temp\ccBlgygZ.s 			page 177


 7980 03b5 466F7263 		.ascii	"ForceZero\000"
 7980      655A6572 
 7980      6F00
 7981              	.LASF265:
 7982 03bf 474E5520 		.ascii	"GNU C 4.9.3 20150303 (release) [ARM/embedded-4_9-br"
 7982      4320342E 
 7982      392E3320 
 7982      32303135 
 7982      30333033 
 7983 03f2 616E6368 		.ascii	"anch revision 221220] -mcpu=cortex-m0 -mthumb -g -O"
 7983      20726576 
 7983      6973696F 
 7983      6E203232 
 7983      31323230 
 7984 0425 73202D66 		.ascii	"s -ffunction-sections -ffat-lto-objects\000"
 7984      66756E63 
 7984      74696F6E 
 7984      2D736563 
 7984      74696F6E 
 7985              	.LASF166:
 7986 044d 46495053 		.ascii	"FIPS_NOT_ALLOWED_E\000"
 7986      5F4E4F54 
 7986      5F414C4C 
 7986      4F574544 
 7986      5F4500
 7987              	.LASF144:
 7988 0460 4241445F 		.ascii	"BAD_FUNC_ARG\000"
 7988      46554E43 
 7988      5F415247 
 7988      00
 7989              	.LASF127:
 7990 046d 41534E5F 		.ascii	"ASN_BITSTR_E\000"
 7990      42495453 
 7990      54525F45 
 7990      00
 7991              	.LASF236:
 7992 047a 76616C75 		.ascii	"value\000"
 7992      6500
 7993              	.LASF259:
 7994 0480 77635F53 		.ascii	"wc_Sha256Update\000"
 7994      68613235 
 7994      36557064 
 7994      61746500 
 7995              	.LASF199:
 7996 0490 5349475F 		.ascii	"SIG_TYPE_E\000"
 7996      54595045 
 7996      5F4500
 7997              	.LASF124:
 7998 049b 41534E5F 		.ascii	"ASN_OBJECT_ID_E\000"
 7998      4F424A45 
 7998      43545F49 
 7998      445F4500 
 7999              	.LASF250:
 8000 04ab 6F757470 		.ascii	"outputSz\000"
 8000      7574537A 
 8000      00
 8001              	.LASF203:
ARM GAS  C:\Users\ddemidov\AppData\Local\Temp\ccBlgygZ.s 			page 178


 8002 04b4 64726267 		.ascii	"drbgReseed\000"
 8002      52657365 
 8002      656400
 8003              	.LASF53:
 8004 04bf 44594E41 		.ascii	"DYNAMIC_TYPE_DTLS_MSG\000"
 8004      4D49435F 
 8004      54595045 
 8004      5F44544C 
 8004      535F4D53 
 8005              	.LASF7:
 8006 04d5 73697A65 		.ascii	"size_t\000"
 8006      5F7400
 8007              	.LASF56:
 8008 04dc 44594E41 		.ascii	"DYNAMIC_TYPE_X509\000"
 8008      4D49435F 
 8008      54595045 
 8008      5F583530 
 8008      3900
 8009              	.LASF81:
 8010 04ee 4F535F53 		.ascii	"OS_Seed\000"
 8010      65656400 
 8011              	.LASF214:
 8012 04f6 6F757453 		.ascii	"outSz\000"
 8012      7A00
 8013              	.LASF51:
 8014 04fc 44594E41 		.ascii	"DYNAMIC_TYPE_ECC\000"
 8014      4D49435F 
 8014      54595045 
 8014      5F454343 
 8014      00
 8015              	.LASF133:
 8016 050d 41534E5F 		.ascii	"ASN_TIME_E\000"
 8016      54494D45 
 8016      5F4500
 8017              	.LASF174:
 8018 0518 44455333 		.ascii	"DES3_KAT_FIPS_E\000"
 8018      5F4B4154 
 8018      5F464950 
 8018      535F4500 
 8019              	.LASF128:
 8020 0528 41534E5F 		.ascii	"ASN_UNKNOWN_OID_E\000"
 8020      554E4B4E 
 8020      4F574E5F 
 8020      4F49445F 
 8020      4500
 8021              	.LASF168:
 8022 053a 524E475F 		.ascii	"RNG_FAILURE_E\000"
 8022      4641494C 
 8022      5552455F 
 8022      4500
 8023              	.LASF244:
 8024 0548 77635F46 		.ascii	"wc_FreeRng\000"
 8024      72656552 
 8024      6E6700
 8025              	.LASF82:
 8026 0553 57435F52 		.ascii	"WC_RNG\000"
 8026      4E4700
ARM GAS  C:\Users\ddemidov\AppData\Local\Temp\ccBlgygZ.s 			page 179


 8027              	.LASF45:
 8028 055a 44594E41 		.ascii	"DYNAMIC_TYPE_CIPHER\000"
 8028      4D49435F 
 8028      54595045 
 8028      5F434950 
 8028      48455200 
 8029              	.LASF162:
 8030 056e 4241445F 		.ascii	"BAD_PADDING_E\000"
 8030      50414444 
 8030      494E475F 
 8030      4500
 8031              	.LASF191:
 8032 057c 41534E5F 		.ascii	"ASN_NO_KEYUSAGE\000"
 8032      4E4F5F4B 
 8032      45595553 
 8032      41474500 
 8033              	.LASF257:
 8034 058c 77635F47 		.ascii	"wc_GenerateSeed\000"
 8034      656E6572 
 8034      61746553 
 8034      65656400 
 8035              	.LASF230:
 8036 059c 6E6F6E63 		.ascii	"nonceSz\000"
 8036      65537A00 
 8037              	.LASF125:
 8038 05a4 41534E5F 		.ascii	"ASN_TAG_NULL_E\000"
 8038      5441475F 
 8038      4E554C4C 
 8038      5F4500
 8039              	.LASF170:
 8040 05b3 5253415F 		.ascii	"RSA_PAD_E\000"
 8040      5041445F 
 8040      4500
 8041              	.LASF140:
 8042 05bd 41534E5F 		.ascii	"ASN_CRIT_EXT_E\000"
 8042      43524954 
 8042      5F455854 
 8042      5F4500
 8043              	.LASF200:
 8044 05cc 48415348 		.ascii	"HASH_TYPE_E\000"
 8044      5F545950 
 8044      455F4500 
 8045              	.LASF246:
 8046 05d8 656E7472 		.ascii	"entropyA\000"
 8046      6F707941 
 8046      00
 8047              	.LASF248:
 8048 05e1 656E7472 		.ascii	"entropyB\000"
 8048      6F707942 
 8048      00
 8049              	.LASF14:
 8050 05ea 63686172 		.ascii	"char\000"
 8050      00
 8051              	.LASF220:
 8052 05ef 72657365 		.ascii	"reseed\000"
 8052      656400
 8053              	.LASF59:
ARM GAS  C:\Users\ddemidov\AppData\Local\Temp\ccBlgygZ.s 			page 180


 8054 05f6 44594E41 		.ascii	"DYNAMIC_TYPE_SIGNATURE\000"
 8054      4D49435F 
 8054      54595045 
 8054      5F534947 
 8054      4E415455 
 8055              	.LASF123:
 8056 060d 41534E5F 		.ascii	"ASN_RSA_KEY_E\000"
 8056      5253415F 
 8056      4B45595F 
 8056      4500
 8057              	.LASF63:
 8058 061b 44594E41 		.ascii	"DYNAMIC_TYPE_USER_CRYPTO\000"
 8058      4D49435F 
 8058      54595045 
 8058      5F555345 
 8058      525F4352 
 8059              	.LASF255:
 8060 0634 6F757470 		.ascii	"outputA\000"
 8060      75744100 
 8061              	.LASF256:
 8062 063c 6F757470 		.ascii	"outputB\000"
 8062      75744200 
 8063              	.LASF210:
 8064 0644 73496478 		.ascii	"sIdx\000"
 8064      00
 8065              	.LASF260:
 8066 0649 77635F53 		.ascii	"wc_Sha256Final\000"
 8066      68613235 
 8066      3646696E 
 8066      616C00
 8067              	.LASF231:
 8068 0658 436F6E73 		.ascii	"ConstantCompare\000"
 8068      74616E74 
 8068      436F6D70 
 8068      61726500 
 8069              	.LASF85:
 8070 0668 73746174 		.ascii	"status\000"
 8070      757300
 8071              	.LASF102:
 8072 066f 4D505F41 		.ascii	"MP_ADD_E\000"
 8072      44445F45 
 8072      00
 8073              	.LASF55:
 8074 0678 44594E41 		.ascii	"DYNAMIC_TYPE_CAVIUM_RSA\000"
 8074      4D49435F 
 8074      54595045 
 8074      5F434156 
 8074      49554D5F 
 8075              	.LASF258:
 8076 0690 77635F49 		.ascii	"wc_InitSha256\000"
 8076      6E697453 
 8076      68613235 
 8076      3600
 8077              	.LASF119:
 8078 069e 45585445 		.ascii	"EXTENSIONS_E\000"
 8078      4E53494F 
 8078      4E535F45 
ARM GAS  C:\Users\ddemidov\AppData\Local\Temp\ccBlgygZ.s 			page 181


 8078      00
 8079              	.LASF57:
 8080 06ab 44594E41 		.ascii	"DYNAMIC_TYPE_TLSX\000"
 8080      4D49435F 
 8080      54595045 
 8080      5F544C53 
 8080      5800
 8081              	.LASF218:
 8082 06bd 62697473 		.ascii	"bits\000"
 8082      00
 8083              	.LASF70:
 8084 06c2 44594E41 		.ascii	"DYNAMIC_TYPE_DTLS_BUFFER\000"
 8084      4D49435F 
 8084      54595045 
 8084      5F44544C 
 8084      535F4255 
 8085              	.LASF146:
 8086 06db 554E4943 		.ascii	"UNICODE_SIZE_E\000"
 8086      4F44455F 
 8086      53495A45 
 8086      5F4500
 8087              	.LASF198:
 8088 06ea 4241445F 		.ascii	"BAD_COND_E\000"
 8088      434F4E44 
 8088      5F4500
 8089              	.LASF12:
 8090 06f5 6C6F6E67 		.ascii	"long long int\000"
 8090      206C6F6E 
 8090      6720696E 
 8090      7400
 8091              	.LASF42:
 8092 0703 44594E41 		.ascii	"DYNAMIC_TYPE_OCSP_ENTRY\000"
 8092      4D49435F 
 8092      54595045 
 8092      5F4F4353 
 8092      505F454E 
 8093              	.LASF44:
 8094 071b 44594E41 		.ascii	"DYNAMIC_TYPE_SUITES\000"
 8094      4D49435F 
 8094      54595045 
 8094      5F535549 
 8094      54455300 
 8095              	.LASF98:
 8096 072f 4D505F52 		.ascii	"MP_READ_E\000"
 8096      4541445F 
 8096      4500
 8097              	.LASF190:
 8098 0739 41534E5F 		.ascii	"ASN_NO_AKID\000"
 8098      4E4F5F41 
 8098      4B494400 
 8099              	.LASF145:
 8100 0745 4E4F545F 		.ascii	"NOT_COMPILED_IN\000"
 8100      434F4D50 
 8100      494C4544 
 8100      5F494E00 
 8101              	.LASF183:
 8102 0755 49535F50 		.ascii	"IS_POINT_E\000"
ARM GAS  C:\Users\ddemidov\AppData\Local\Temp\ccBlgygZ.s 			page 182


 8102      4F494E54 
 8102      5F4500
 8103              	.LASF71:
 8104 0760 53484132 		.ascii	"SHA256\000"
 8104      353600
 8105              	.LASF87:
 8106 0767 72657365 		.ascii	"reseedCtr\000"
 8106      65644374 
 8106      7200
 8107              	.LASF156:
 8108 0771 4241445F 		.ascii	"BAD_ALIGN_E\000"
 8108      414C4947 
 8108      4E5F4500 
 8109              	.LASF49:
 8110 077d 44594E41 		.ascii	"DYNAMIC_TYPE_SOCKADDR\000"
 8110      4D49435F 
 8110      54595045 
 8110      5F534F43 
 8110      4B414444 
 8111              	.LASF112:
 8112 0793 42554646 		.ascii	"BUFFER_E\000"
 8112      45525F45 
 8112      00
 8113              	.LASF23:
 8114 079c 44594E41 		.ascii	"DYNAMIC_TYPE_BIGINT\000"
 8114      4D49435F 
 8114      54595045 
 8114      5F424947 
 8114      494E5400 
 8115              	.LASF74:
 8116 07b0 53484132 		.ascii	"SHA256_PAD_SIZE\000"
 8116      35365F50 
 8116      41445F53 
 8116      495A4500 
 8117              	.LASF206:
 8118 07c0 64726267 		.ascii	"drbgInitV\000"
 8118      496E6974 
 8118      5600
 8119              	.LASF187:
 8120 07ca 5352505F 		.ascii	"SRP_VERIFY_E\000"
 8120      56455249 
 8120      46595F45 
 8120      00
 8121              	.LASF262:
 8122 07d7 6D656D73 		.ascii	"memset\000"
 8122      657400
 8123              	.LASF36:
 8124 07de 44594E41 		.ascii	"DYNAMIC_TYPE_CRL\000"
 8124      4D49435F 
 8124      54595045 
 8124      5F43524C 
 8124      00
 8125              	.LASF24:
 8126 07ef 44594E41 		.ascii	"DYNAMIC_TYPE_RSA\000"
 8126      4D49435F 
 8126      54595045 
 8126      5F525341 
ARM GAS  C:\Users\ddemidov\AppData\Local\Temp\ccBlgygZ.s 			page 183


 8126      00
 8127              	.LASF251:
 8128 0800 77635F52 		.ascii	"wc_RNG_GenerateBlock\000"
 8128      4E475F47 
 8128      656E6572 
 8128      61746542 
 8128      6C6F636B 
 8129              	.LASF50:
 8130 0815 44594E41 		.ascii	"DYNAMIC_TYPE_LIBZ\000"
 8130      4D49435F 
 8130      54595045 
 8130      5F4C4942 
 8130      5A00
 8131              	.LASF116:
 8132 0827 5355424A 		.ascii	"SUBJECT_E\000"
 8132      4543545F 
 8132      4500
 8133              	.LASF217:
 8134 0831 696E4253 		.ascii	"inBSz\000"
 8134      7A00
 8135              	.LASF151:
 8136 0837 43415649 		.ascii	"CAVIUM_INIT_E\000"
 8136      554D5F49 
 8136      4E49545F 
 8136      4500
 8137              	.LASF30:
 8138 0845 44594E41 		.ascii	"DYNAMIC_TYPE_DOMAIN\000"
 8138      4D49435F 
 8138      54595045 
 8138      5F444F4D 
 8138      41494E00 
 8139              	.LASF108:
 8140 0859 4D505F5A 		.ascii	"MP_ZERO_E\000"
 8140      45524F5F 
 8140      4500
 8141              	.LASF152:
 8142 0863 434F4D50 		.ascii	"COMPRESS_INIT_E\000"
 8142      52455353 
 8142      5F494E49 
 8142      545F4500 
 8143              	.LASF176:
 8144 0873 5253415F 		.ascii	"RSA_KAT_FIPS_E\000"
 8144      4B41545F 
 8144      46495053 
 8144      5F4500
 8145              	.LASF219:
 8146 0882 77635F52 		.ascii	"wc_RNG_HealthTestLocal\000"
 8146      4E475F48 
 8146      65616C74 
 8146      68546573 
 8146      744C6F63 
 8147              	.LASF138:
 8148 0899 41534E5F 		.ascii	"ASN_DH_KEY_E\000"
 8148      44485F4B 
 8148      45595F45 
 8148      00
 8149              	.LASF2:
ARM GAS  C:\Users\ddemidov\AppData\Local\Temp\ccBlgygZ.s 			page 184


 8150 08a6 776F7264 		.ascii	"word16\000"
 8150      313600
 8151              	.LASF84:
 8152 08ad 73656564 		.ascii	"seed\000"
 8152      00
 8153              	.LASF252:
 8154 08b2 77635F52 		.ascii	"wc_RNG_GenerateByte\000"
 8154      4E475F47 
 8154      656E6572 
 8154      61746542 
 8154      79746500 
 8155              	.LASF163:
 8156 08c6 5245515F 		.ascii	"REQ_ATTRIBUTE_E\000"
 8156      41545452 
 8156      49425554 
 8156      455F4500 
 8157              	.LASF48:
 8158 08d6 44594E41 		.ascii	"DYNAMIC_TYPE_DTLS_POOL\000"
 8158      4D49435F 
 8158      54595045 
 8158      5F44544C 
 8158      535F504F 
 8159              	.LASF88:
 8160 08ed 6C617374 		.ascii	"lastBlock\000"
 8160      426C6F63 
 8160      6B00
 8161              	.LASF213:
 8162 08f7 48617368 		.ascii	"Hash_df\000"
 8162      5F646600 
 8163              	.LASF39:
 8164 08ff 44594E41 		.ascii	"DYNAMIC_TYPE_CERT_MANAGER\000"
 8164      4D49435F 
 8164      54595045 
 8164      5F434552 
 8164      545F4D41 
 8165              	.LASF195:
 8166 0919 43455254 		.ascii	"CERTPOLICIES_E\000"
 8166      504F4C49 
 8166      43494553 
 8166      5F4500
 8167              	.LASF225:
 8168 0928 64617461 		.ascii	"data\000"
 8168      00
 8169              	.LASF154:
 8170 092d 4445434F 		.ascii	"DECOMPRESS_INIT_E\000"
 8170      4D505245 
 8170      53535F49 
 8170      4E49545F 
 8170      4500
 8171              	.LASF167:
 8172 093f 41534E5F 		.ascii	"ASN_NAME_INVALID_E\000"
 8172      4E414D45 
 8172      5F494E56 
 8172      414C4944 
 8172      5F4500
 8173              	.LASF78:
 8174 0952 64696765 		.ascii	"digest\000"
ARM GAS  C:\Users\ddemidov\AppData\Local\Temp\ccBlgygZ.s 			page 185


 8174      737400
 8175              	.LASF105:
 8176 0959 4D505F4D 		.ascii	"MP_MOD_E\000"
 8176      4F445F45 
 8176      00
 8177              	.LASF235:
 8178 0962 42797465 		.ascii	"ByteReverseWord32\000"
 8178      52657665 
 8178      72736557 
 8178      6F726433 
 8178      3200
 8179              	.LASF66:
 8180 0974 44594E41 		.ascii	"DYNAMIC_TYPE_X509_STORE\000"
 8180      4D49435F 
 8180      54595045 
 8180      5F583530 
 8180      395F5354 
 8181              	.LASF65:
 8182 098c 44594E41 		.ascii	"DYNAMIC_TYPE_X509_EXT\000"
 8182      4D49435F 
 8182      54595045 
 8182      5F583530 
 8182      395F4558 
 8183              	.LASF205:
 8184 09a2 64726267 		.ascii	"drbgGenerateH\000"
 8184      47656E65 
 8184      72617465 
 8184      4800
 8185              	.LASF171:
 8186 09b0 4C454E47 		.ascii	"LENGTH_ONLY_E\000"
 8186      54485F4F 
 8186      4E4C595F 
 8186      4500
 8187              	.LASF47:
 8188 09be 44594E41 		.ascii	"DYNAMIC_TYPE_ARRAYS\000"
 8188      4D49435F 
 8188      54595045 
 8188      5F415252 
 8188      41595300 
 8189              	.LASF148:
 8190 09d2 414C545F 		.ascii	"ALT_NAME_E\000"
 8190      4E414D45 
 8190      5F4500
 8191              	.LASF267:
 8192 09dd 433A5C55 		.ascii	"C:\\Users\\ddemidov\\Documents\\PSoC Creator\\BLE_F"
 8192      73657273 
 8192      5C646465 
 8192      6D69646F 
 8192      765C446F 
 8193 0a0b 696E644D 		.ascii	"indMe01\\SenseAbility.cydsn\000"
 8193      6530315C 
 8193      53656E73 
 8193      65416269 
 8193      6C697479 
 8194              	.LASF204:
 8195 0a26 64726267 		.ascii	"drbgGenerateW\000"
 8195      47656E65 
ARM GAS  C:\Users\ddemidov\AppData\Local\Temp\ccBlgygZ.s 			page 186


 8195      72617465 
 8195      5700
 8196              	.LASF52:
 8197 0a34 44594E41 		.ascii	"DYNAMIC_TYPE_TMP_BUFFER\000"
 8197      4D49435F 
 8197      54595045 
 8197      5F544D50 
 8197      5F425546 
 8198              	.LASF40:
 8199 0a4c 44594E41 		.ascii	"DYNAMIC_TYPE_CRL_MONITOR\000"
 8199      4D49435F 
 8199      54595045 
 8199      5F43524C 
 8199      5F4D4F4E 
 8200              	.LASF161:
 8201 0a65 4241445F 		.ascii	"BAD_ENC_STATE_E\000"
 8201      454E435F 
 8201      53544154 
 8201      455F4500 
 8202              	.LASF9:
 8203 0a75 73686F72 		.ascii	"short int\000"
 8203      7420696E 
 8203      7400
 8204              	.LASF27:
 8205 0a7f 44594E41 		.ascii	"DYNAMIC_TYPE_IN_BUFFER\000"
 8205      4D49435F 
 8205      54595045 
 8205      5F494E5F 
 8205      42554646 
 8206              	.LASF126:
 8207 0a96 41534E5F 		.ascii	"ASN_EXPECT_0_E\000"
 8207      45585045 
 8207      43545F30 
 8207      5F4500
 8208              	.LASF89:
 8209 0aa5 6D617463 		.ascii	"matchCount\000"
 8209      68436F75 
 8209      6E7400
 8210              	.LASF25:
 8211 0ab0 44594E41 		.ascii	"DYNAMIC_TYPE_METHOD\000"
 8211      4D49435F 
 8211      54595045 
 8211      5F4D4554 
 8211      484F4400 
 8212              	.LASF10:
 8213 0ac4 6C6F6E67 		.ascii	"long int\000"
 8213      20696E74 
 8213      00
 8214              	.LASF68:
 8215 0acd 44594E41 		.ascii	"DYNAMIC_TYPE_URL\000"
 8215      4D49435F 
 8215      54595045 
 8215      5F55524C 
 8215      00
 8216              	.LASF208:
 8217 0ade 734C656E 		.ascii	"sLen\000"
 8217      00
ARM GAS  C:\Users\ddemidov\AppData\Local\Temp\ccBlgygZ.s 			page 187


 8218              	.LASF32:
 8219 0ae3 44594E41 		.ascii	"DYNAMIC_TYPE_CTX\000"
 8219      4D49435F 
 8219      54595045 
 8219      5F435458 
 8219      00
 8220              	.LASF232:
 8221 0af4 6C656E67 		.ascii	"length\000"
 8221      746800
 8222              	.LASF118:
 8223 0afb 43415F54 		.ascii	"CA_TRUE_E\000"
 8223      5255455F 
 8223      4500
 8224              	.LASF201:
 8225 0b05 4D494E5F 		.ascii	"MIN_CODE_E\000"
 8225      434F4445 
 8225      5F4500
 8226              	.LASF179:
 8227 0b10 41455347 		.ascii	"AESGCM_KAT_FIPS_E\000"
 8227      434D5F4B 
 8227      41545F46 
 8227      4950535F 
 8227      4500
 8228              	.LASF224:
 8229 0b22 61727261 		.ascii	"array_add_one\000"
 8229      795F6164 
 8229      645F6F6E 
 8229      6500
 8230              	.LASF4:
 8231 0b30 776F7264 		.ascii	"word32\000"
 8231      333200
 8232              	.LASF107:
 8233 0b37 4D505F43 		.ascii	"MP_CMP_E\000"
 8233      4D505F45 
 8233      00
 8234              	.LASF197:
 8235 0b40 5349475F 		.ascii	"SIG_VERIFY_E\000"
 8235      56455249 
 8235      46595F45 
 8235      00
 8236              	.LASF233:
 8237 0b4d 636F6D70 		.ascii	"compareSum\000"
 8237      61726553 
 8237      756D00
 8238              	.LASF92:
 8239 0b58 52454144 		.ascii	"READ_RAN_E\000"
 8239      5F52414E 
 8239      5F4500
 8240              	.LASF86:
 8241 0b63 44524247 		.ascii	"DRBG\000"
 8241      00
 8242              	.LASF18:
 8243 0b68 44594E41 		.ascii	"DYNAMIC_TYPE_FILE\000"
 8243      4D49435F 
 8243      54595045 
 8243      5F46494C 
 8243      4500
ARM GAS  C:\Users\ddemidov\AppData\Local\Temp\ccBlgygZ.s 			page 188


 8244              	.LASF122:
 8245 0b7a 41534E5F 		.ascii	"ASN_GETINT_E\000"
 8245      47455449 
 8245      4E545F45 
 8245      00
 8246              	.LASF175:
 8247 0b87 484D4143 		.ascii	"HMAC_KAT_FIPS_E\000"
 8247      5F4B4154 
 8247      5F464950 
 8247      535F4500 
 8248              	.LASF114:
 8249 0b97 5055424C 		.ascii	"PUBLIC_KEY_E\000"
 8249      49435F4B 
 8249      45595F45 
 8249      00
 8250              	.LASF184:
 8251 0ba4 4543435F 		.ascii	"ECC_INF_E\000"
 8251      494E465F 
 8251      4500
 8252              	.LASF37:
 8253 0bae 44594E41 		.ascii	"DYNAMIC_TYPE_REVOKED\000"
 8253      4D49435F 
 8253      54595045 
 8253      5F524556 
 8253      4F4B4544 
 8254              	.LASF229:
 8255 0bc3 6E6F6E63 		.ascii	"nonce\000"
 8255      6500
 8256              	.LASF147:
 8257 0bc9 4E4F5F50 		.ascii	"NO_PASSWORD\000"
 8257      41535357 
 8257      4F524400 
 8258              	.LASF264:
 8259 0bd5 776F6C66 		.ascii	"wolfSSL_Malloc\000"
 8259      53534C5F 
 8259      4D616C6C 
 8259      6F6300
 8260              	.LASF73:
 8261 0be4 53484132 		.ascii	"SHA256_DIGEST_SIZE\000"
 8261      35365F44 
 8261      49474553 
 8261      545F5349 
 8261      5A4500
 8262              	.LASF237:
 8263 0bf7 48617368 		.ascii	"Hash_DRBG_Uninstantiate\000"
 8263      5F445242 
 8263      475F556E 
 8263      696E7374 
 8263      616E7469 
 8264              	.LASF131:
 8265 0c0f 41534E5F 		.ascii	"ASN_AFTER_DATE_E\000"
 8265      41465445 
 8265      525F4441 
 8265      54455F45 
 8265      00
 8266              	.LASF177:
 8267 0c20 44524247 		.ascii	"DRBG_KAT_FIPS_E\000"
ARM GAS  C:\Users\ddemidov\AppData\Local\Temp\ccBlgygZ.s 			page 189


 8267      5F4B4154 
 8267      5F464950 
 8267      535F4500 
 8268              	.LASF178:
 8269 0c30 44524247 		.ascii	"DRBG_CONT_FIPS_E\000"
 8269      5F434F4E 
 8269      545F4649 
 8269      50535F45 
 8269      00
 8270              	.LASF245:
 8271 0c41 77635F52 		.ascii	"wc_RNG_HealthTest\000"
 8271      4E475F48 
 8271      65616C74 
 8271      68546573 
 8271      7400
 8272              	.LASF227:
 8273 0c53 48617368 		.ascii	"Hash_DRBG_Instantiate\000"
 8273      5F445242 
 8273      475F496E 
 8273      7374616E 
 8273      74696174 
 8274              	.LASF194:
 8275 0c69 4B455955 		.ascii	"KEYUSAGE_E\000"
 8275      53414745 
 8275      5F4500
 8276              	.LASF212:
 8277 0c74 726F746C 		.ascii	"rotlFixed\000"
 8277      46697865 
 8277      6400
 8278              	.LASF160:
 8279 0c7e 41534E5F 		.ascii	"ASN_OCSP_CONFIRM_E\000"
 8279      4F435350 
 8279      5F434F4E 
 8279      4649524D 
 8279      5F4500
 8280              	.LASF13:
 8281 0c91 73697A65 		.ascii	"sizetype\000"
 8281      74797065 
 8281      00
 8282              	.LASF11:
 8283 0c9a 6C6F6E67 		.ascii	"long unsigned int\000"
 8283      20756E73 
 8283      69676E65 
 8283      6420696E 
 8283      7400
 8284              	.LASF247:
 8285 0cac 656E7472 		.ascii	"entropyASz\000"
 8285      6F707941 
 8285      537A00
 8286              	.LASF180:
 8287 0cb7 54485245 		.ascii	"THREAD_STORE_KEY_E\000"
 8287      41445F53 
 8287      544F5245 
 8287      5F4B4559 
 8287      5F4500
 8288              	.LASF135:
 8289 0cca 41534E5F 		.ascii	"ASN_SIG_CONFIRM_E\000"
ARM GAS  C:\Users\ddemidov\AppData\Local\Temp\ccBlgygZ.s 			page 190


 8289      5349475F 
 8289      434F4E46 
 8289      49524D5F 
 8289      4500
 8290              	.LASF266:
 8291 0cdc 2E2E5C61 		.ascii	"..\\acn-sdk-c\\src\\wolfSSL\\wolfcrypt\\src\\random"
 8291      636E2D73 
 8291      646B2D63 
 8291      5C737263 
 8291      5C776F6C 
 8292 0d09 2E6300   		.ascii	".c\000"
 8293              	.LASF1:
 8294 0d0c 62797465 		.ascii	"byte\000"
 8294      00
 8295              	.LASF41:
 8296 0d11 44594E41 		.ascii	"DYNAMIC_TYPE_OCSP_STATUS\000"
 8296      4D49435F 
 8296      54595045 
 8296      5F4F4353 
 8296      505F5354 
 8297              	.LASF16:
 8298 0d2a 44594E41 		.ascii	"DYNAMIC_TYPE_CERT\000"
 8298      4D49435F 
 8298      54595045 
 8298      5F434552 
 8298      5400
 8299              	.LASF80:
 8300 0d3c 53686132 		.ascii	"Sha256\000"
 8300      353600
 8301              	.LASF106:
 8302 0d43 4D505F49 		.ascii	"MP_INVMOD_E\000"
 8302      4E564D4F 
 8302      445F4500 
 8303              	.LASF215:
 8304 0d4f 74797065 		.ascii	"type\000"
 8304      00
 8305              	.LASF100:
 8306 0d54 4D505F54 		.ascii	"MP_TO_E\000"
 8306      4F5F4500 
 8307              	.LASF94:
 8308 0d5c 43525950 		.ascii	"CRYPTGEN_E\000"
 8308      5447454E 
 8308      5F4500
 8309              	.LASF0:
 8310 0d67 756E7369 		.ascii	"unsigned char\000"
 8310      676E6564 
 8310      20636861 
 8310      7200
 8311              	.LASF22:
 8312 0d75 44594E41 		.ascii	"DYNAMIC_TYPE_NONE\000"
 8312      4D49435F 
 8312      54595045 
 8312      5F4E4F4E 
 8312      4500
 8313              	.LASF159:
 8314 0d87 41534E5F 		.ascii	"ASN_CRL_NO_SIGNER_E\000"
 8314      43524C5F 
ARM GAS  C:\Users\ddemidov\AppData\Local\Temp\ccBlgygZ.s 			page 191


 8314      4E4F5F53 
 8314      49474E45 
 8314      525F4500 
 8315              	.LASF253:
 8316 0d9b 77635F49 		.ascii	"wc_InitRng\000"
 8316      6E697452 
 8316      6E6700
 8317              	.LASF234:
 8318 0da6 636F6D70 		.ascii	"compareDrbg\000"
 8318      61726544 
 8318      72626700 
 8319              	.LASF54:
 8320 0db2 44594E41 		.ascii	"DYNAMIC_TYPE_CAVIUM_TMP\000"
 8320      4D49435F 
 8320      54595045 
 8320      5F434156 
 8320      49554D5F 
 8321              	.LASF17:
 8322 0dca 44594E41 		.ascii	"DYNAMIC_TYPE_KEY\000"
 8322      4D49435F 
 8322      54595045 
 8322      5F4B4559 
 8322      00
 8323              	.LASF121:
 8324 0ddb 41534E5F 		.ascii	"ASN_VERSION_E\000"
 8324      56455253 
 8324      494F4E5F 
 8324      4500
 8325              	.LASF189:
 8326 0de9 41534E5F 		.ascii	"ASN_NO_SKID\000"
 8326      4E4F5F53 
 8326      4B494400 
 8327              	.LASF211:
 8328 0df5 64496478 		.ascii	"dIdx\000"
 8328      00
 8329              	.LASF19:
 8330 0dfa 44594E41 		.ascii	"DYNAMIC_TYPE_SUBJECT_CN\000"
 8330      4D49435F 
 8330      54595045 
 8330      5F535542 
 8330      4A454354 
 8331              	.LASF61:
 8332 0e12 44594E41 		.ascii	"DYNAMIC_TYPE_SRP\000"
 8332      4D49435F 
 8332      54595045 
 8332      5F535250 
 8332      00
 8333              	.LASF97:
 8334 0e23 4D505F49 		.ascii	"MP_INIT_E\000"
 8334      4E49545F 
 8334      4500
 8335              	.LASF149:
 8336 0e2d 4145535F 		.ascii	"AES_GCM_AUTH_E\000"
 8336      47434D5F 
 8336      41555448 
 8336      5F4500
 8337              	.LASF8:
ARM GAS  C:\Users\ddemidov\AppData\Local\Temp\ccBlgygZ.s 			page 192


 8338 0e3c 7369676E 		.ascii	"signed char\000"
 8338      65642063 
 8338      68617200 
 8339              	.LASF3:
 8340 0e48 73686F72 		.ascii	"short unsigned int\000"
 8340      7420756E 
 8340      7369676E 
 8340      65642069 
 8340      6E7400
 8341              	.LASF38:
 8342 0e5b 44594E41 		.ascii	"DYNAMIC_TYPE_CRL_ENTRY\000"
 8342      4D49435F 
 8342      54595045 
 8342      5F43524C 
 8342      5F454E54 
 8343              	.LASF109:
 8344 0e72 4D454D4F 		.ascii	"MEMORY_E\000"
 8344      52595F45 
 8344      00
 8345              	.LASF261:
 8346 0e7b 6D656D63 		.ascii	"memcpy\000"
 8346      707900
 8347              	.LASF93:
 8348 0e82 57494E43 		.ascii	"WINCRYPT_E\000"
 8348      52595054 
 8348      5F4500
 8349              	.LASF186:
 8350 0e8d 5352505F 		.ascii	"SRP_CALL_ORDER_E\000"
 8350      43414C4C 
 8350      5F4F5244 
 8350      45525F45 
 8350      00
 8351              	.LASF134:
 8352 0e9e 41534E5F 		.ascii	"ASN_INPUT_E\000"
 8352      494E5055 
 8352      545F4500 
 8353              	.LASF137:
 8354 0eaa 41534E5F 		.ascii	"ASN_SIG_KEY_E\000"
 8354      5349475F 
 8354      4B45595F 
 8354      4500
 8355              	.LASF165:
 8356 0eb8 504B4353 		.ascii	"PKCS7_RECIP_E\000"
 8356      375F5245 
 8356      4349505F 
 8356      4500
 8357              	.LASF202:
 8358 0ec6 64726267 		.ascii	"drbgInitC\000"
 8358      496E6974 
 8358      4300
 8359              	.LASF31:
 8360 0ed0 44594E41 		.ascii	"DYNAMIC_TYPE_SSL\000"
 8360      4D49435F 
 8360      54595045 
 8360      5F53534C 
 8360      00
 8361              	.LASF113:
ARM GAS  C:\Users\ddemidov\AppData\Local\Temp\ccBlgygZ.s 			page 193


 8362 0ee1 414C474F 		.ascii	"ALGO_ID_E\000"
 8362      5F49445F 
 8362      4500
 8363              	.LASF72:
 8364 0eeb 53484132 		.ascii	"SHA256_BLOCK_SIZE\000"
 8364      35365F42 
 8364      4C4F434B 
 8364      5F53495A 
 8364      4500
 8365              	.LASF155:
 8366 0efd 4445434F 		.ascii	"DECOMPRESS_E\000"
 8366      4D505245 
 8366      53535F45 
 8366      00
 8367              	.LASF95:
 8368 0f0a 52414E5F 		.ascii	"RAN_BLOCK_E\000"
 8368      424C4F43 
 8368      4B5F4500 
 8369              	.LASF67:
 8370 0f16 44594E41 		.ascii	"DYNAMIC_TYPE_X509_CTX\000"
 8370      4D49435F 
 8370      54595045 
 8370      5F583530 
 8370      395F4354 
 8371              	.LASF241:
 8372 0f2c 48617368 		.ascii	"Hash_gen\000"
 8372      5F67656E 
 8372      00
 8373              	.LASF182:
 8374 0f35 4D41435F 		.ascii	"MAC_CMP_FAILED_E\000"
 8374      434D505F 
 8374      4641494C 
 8374      45445F45 
 8374      00
 8375              	.LASF96:
 8376 0f46 4241445F 		.ascii	"BAD_MUTEX_E\000"
 8376      4D555445 
 8376      585F4500 
 8377              	.LASF33:
 8378 0f52 44594E41 		.ascii	"DYNAMIC_TYPE_WRITEV\000"
 8378      4D49435F 
 8378      54595045 
 8378      5F575249 
 8378      54455600 
 8379              	.LASF35:
 8380 0f66 44594E41 		.ascii	"DYNAMIC_TYPE_DSA\000"
 8380      4D49435F 
 8380      54595045 
 8380      5F445341 
 8380      00
 8381              		.ident	"GCC: (GNU Tools for ARM Embedded Processors) 4.9.3 20150303 (release) [ARM/embedded-4_9-br
