ARM GAS  C:\Users\ddemidov\AppData\Local\Temp\ccr947bU.s 			page 1


   1              		.cpu cortex-m0
   2              		.fpu softvfp
   3              		.eabi_attribute 20, 1
   4              		.eabi_attribute 21, 1
   5              		.eabi_attribute 23, 3
   6              		.eabi_attribute 24, 1
   7              		.eabi_attribute 25, 1
   8              		.eabi_attribute 26, 1
   9              		.eabi_attribute 30, 1
  10              		.eabi_attribute 34, 0
  11              		.eabi_attribute 18, 4
  12              		.code	16
  13              		.file	"rsa.c"
  14              		.text
  15              	.Ltext0:
  16              		.cfi_sections	.debug_frame
  17              		.section	.text.RsaUnPad,"ax",%progbits
  18              		.align	2
  19              		.code	16
  20              		.thumb_func
  21              		.type	RsaUnPad, %function
  22              	RsaUnPad:
  23              	.LFB20:
  24              		.file 1 "..\\kronos-c-sdk\\src\\wolfSSL\\wolfcrypt\\src\\rsa.c"
   1:..\kronos-c-sdk\src\wolfSSL\wolfcrypt\src/rsa.c **** /* rsa.c
   2:..\kronos-c-sdk\src\wolfSSL\wolfcrypt\src/rsa.c ****  *
   3:..\kronos-c-sdk\src\wolfSSL\wolfcrypt\src/rsa.c ****  * Copyright (C) 2006-2016 wolfSSL Inc.
   4:..\kronos-c-sdk\src\wolfSSL\wolfcrypt\src/rsa.c ****  *
   5:..\kronos-c-sdk\src\wolfSSL\wolfcrypt\src/rsa.c ****  * This file is part of wolfSSL.
   6:..\kronos-c-sdk\src\wolfSSL\wolfcrypt\src/rsa.c ****  *
   7:..\kronos-c-sdk\src\wolfSSL\wolfcrypt\src/rsa.c ****  * wolfSSL is free software; you can redistribute it and/or modify
   8:..\kronos-c-sdk\src\wolfSSL\wolfcrypt\src/rsa.c ****  * it under the terms of the GNU General Public License as published by
   9:..\kronos-c-sdk\src\wolfSSL\wolfcrypt\src/rsa.c ****  * the Free Software Foundation; either version 2 of the License, or
  10:..\kronos-c-sdk\src\wolfSSL\wolfcrypt\src/rsa.c ****  * (at your option) any later version.
  11:..\kronos-c-sdk\src\wolfSSL\wolfcrypt\src/rsa.c ****  *
  12:..\kronos-c-sdk\src\wolfSSL\wolfcrypt\src/rsa.c ****  * wolfSSL is distributed in the hope that it will be useful,
  13:..\kronos-c-sdk\src\wolfSSL\wolfcrypt\src/rsa.c ****  * but WITHOUT ANY WARRANTY; without even the implied warranty of
  14:..\kronos-c-sdk\src\wolfSSL\wolfcrypt\src/rsa.c ****  * MERCHANTABILITY or FITNESS FOR A PARTICULAR PURPOSE.  See the
  15:..\kronos-c-sdk\src\wolfSSL\wolfcrypt\src/rsa.c ****  * GNU General Public License for more details.
  16:..\kronos-c-sdk\src\wolfSSL\wolfcrypt\src/rsa.c ****  *
  17:..\kronos-c-sdk\src\wolfSSL\wolfcrypt\src/rsa.c ****  * You should have received a copy of the GNU General Public License
  18:..\kronos-c-sdk\src\wolfSSL\wolfcrypt\src/rsa.c ****  * along with this program; if not, write to the Free Software
  19:..\kronos-c-sdk\src\wolfSSL\wolfcrypt\src/rsa.c ****  * Foundation, Inc., 51 Franklin Street, Fifth Floor, Boston, MA 02110-1335, USA
  20:..\kronos-c-sdk\src\wolfSSL\wolfcrypt\src/rsa.c ****  */
  21:..\kronos-c-sdk\src\wolfSSL\wolfcrypt\src/rsa.c **** 
  22:..\kronos-c-sdk\src\wolfSSL\wolfcrypt\src/rsa.c **** 
  23:..\kronos-c-sdk\src\wolfSSL\wolfcrypt\src/rsa.c **** #ifdef HAVE_CONFIG_H
  24:..\kronos-c-sdk\src\wolfSSL\wolfcrypt\src/rsa.c ****     #include <config.h>
  25:..\kronos-c-sdk\src\wolfSSL\wolfcrypt\src/rsa.c **** #endif
  26:..\kronos-c-sdk\src\wolfSSL\wolfcrypt\src/rsa.c **** 
  27:..\kronos-c-sdk\src\wolfSSL\wolfcrypt\src/rsa.c **** #include <wolfssl/wolfcrypt/settings.h>
  28:..\kronos-c-sdk\src\wolfSSL\wolfcrypt\src/rsa.c **** 
  29:..\kronos-c-sdk\src\wolfSSL\wolfcrypt\src/rsa.c **** #ifndef NO_RSA
  30:..\kronos-c-sdk\src\wolfSSL\wolfcrypt\src/rsa.c **** 
  31:..\kronos-c-sdk\src\wolfSSL\wolfcrypt\src/rsa.c **** #include <wolfssl/wolfcrypt/rsa.h>
  32:..\kronos-c-sdk\src\wolfSSL\wolfcrypt\src/rsa.c **** 
  33:..\kronos-c-sdk\src\wolfSSL\wolfcrypt\src/rsa.c **** #ifdef HAVE_FIPS
ARM GAS  C:\Users\ddemidov\AppData\Local\Temp\ccr947bU.s 			page 2


  34:..\kronos-c-sdk\src\wolfSSL\wolfcrypt\src/rsa.c **** int  wc_InitRsaKey(RsaKey* key, void* ptr)
  35:..\kronos-c-sdk\src\wolfSSL\wolfcrypt\src/rsa.c **** {
  36:..\kronos-c-sdk\src\wolfSSL\wolfcrypt\src/rsa.c ****     return InitRsaKey_fips(key, ptr);
  37:..\kronos-c-sdk\src\wolfSSL\wolfcrypt\src/rsa.c **** }
  38:..\kronos-c-sdk\src\wolfSSL\wolfcrypt\src/rsa.c **** 
  39:..\kronos-c-sdk\src\wolfSSL\wolfcrypt\src/rsa.c **** 
  40:..\kronos-c-sdk\src\wolfSSL\wolfcrypt\src/rsa.c **** int  wc_FreeRsaKey(RsaKey* key)
  41:..\kronos-c-sdk\src\wolfSSL\wolfcrypt\src/rsa.c **** {
  42:..\kronos-c-sdk\src\wolfSSL\wolfcrypt\src/rsa.c ****     return FreeRsaKey_fips(key);
  43:..\kronos-c-sdk\src\wolfSSL\wolfcrypt\src/rsa.c **** }
  44:..\kronos-c-sdk\src\wolfSSL\wolfcrypt\src/rsa.c **** 
  45:..\kronos-c-sdk\src\wolfSSL\wolfcrypt\src/rsa.c **** 
  46:..\kronos-c-sdk\src\wolfSSL\wolfcrypt\src/rsa.c **** int  wc_RsaPublicEncrypt(const byte* in, word32 inLen, byte* out,
  47:..\kronos-c-sdk\src\wolfSSL\wolfcrypt\src/rsa.c ****                                  word32 outLen, RsaKey* key, WC_RNG* rng)
  48:..\kronos-c-sdk\src\wolfSSL\wolfcrypt\src/rsa.c **** {
  49:..\kronos-c-sdk\src\wolfSSL\wolfcrypt\src/rsa.c ****     return RsaPublicEncrypt_fips(in, inLen, out, outLen, key, rng);
  50:..\kronos-c-sdk\src\wolfSSL\wolfcrypt\src/rsa.c **** }
  51:..\kronos-c-sdk\src\wolfSSL\wolfcrypt\src/rsa.c **** 
  52:..\kronos-c-sdk\src\wolfSSL\wolfcrypt\src/rsa.c **** 
  53:..\kronos-c-sdk\src\wolfSSL\wolfcrypt\src/rsa.c **** int  wc_RsaPrivateDecryptInline(byte* in, word32 inLen, byte** out,
  54:..\kronos-c-sdk\src\wolfSSL\wolfcrypt\src/rsa.c ****                                         RsaKey* key)
  55:..\kronos-c-sdk\src\wolfSSL\wolfcrypt\src/rsa.c **** {
  56:..\kronos-c-sdk\src\wolfSSL\wolfcrypt\src/rsa.c ****     return RsaPrivateDecryptInline_fips(in, inLen, out, key);
  57:..\kronos-c-sdk\src\wolfSSL\wolfcrypt\src/rsa.c **** }
  58:..\kronos-c-sdk\src\wolfSSL\wolfcrypt\src/rsa.c **** 
  59:..\kronos-c-sdk\src\wolfSSL\wolfcrypt\src/rsa.c **** 
  60:..\kronos-c-sdk\src\wolfSSL\wolfcrypt\src/rsa.c **** int  wc_RsaPrivateDecrypt(const byte* in, word32 inLen, byte* out,
  61:..\kronos-c-sdk\src\wolfSSL\wolfcrypt\src/rsa.c ****                                   word32 outLen, RsaKey* key)
  62:..\kronos-c-sdk\src\wolfSSL\wolfcrypt\src/rsa.c **** {
  63:..\kronos-c-sdk\src\wolfSSL\wolfcrypt\src/rsa.c ****     return RsaPrivateDecrypt_fips(in, inLen, out, outLen, key);
  64:..\kronos-c-sdk\src\wolfSSL\wolfcrypt\src/rsa.c **** }
  65:..\kronos-c-sdk\src\wolfSSL\wolfcrypt\src/rsa.c **** 
  66:..\kronos-c-sdk\src\wolfSSL\wolfcrypt\src/rsa.c **** 
  67:..\kronos-c-sdk\src\wolfSSL\wolfcrypt\src/rsa.c **** int  wc_RsaSSL_Sign(const byte* in, word32 inLen, byte* out,
  68:..\kronos-c-sdk\src\wolfSSL\wolfcrypt\src/rsa.c ****                             word32 outLen, RsaKey* key, WC_RNG* rng)
  69:..\kronos-c-sdk\src\wolfSSL\wolfcrypt\src/rsa.c **** {
  70:..\kronos-c-sdk\src\wolfSSL\wolfcrypt\src/rsa.c ****     return RsaSSL_Sign_fips(in, inLen, out, outLen, key, rng);
  71:..\kronos-c-sdk\src\wolfSSL\wolfcrypt\src/rsa.c **** }
  72:..\kronos-c-sdk\src\wolfSSL\wolfcrypt\src/rsa.c **** 
  73:..\kronos-c-sdk\src\wolfSSL\wolfcrypt\src/rsa.c **** 
  74:..\kronos-c-sdk\src\wolfSSL\wolfcrypt\src/rsa.c **** int  wc_RsaSSL_VerifyInline(byte* in, word32 inLen, byte** out, RsaKey* key)
  75:..\kronos-c-sdk\src\wolfSSL\wolfcrypt\src/rsa.c **** {
  76:..\kronos-c-sdk\src\wolfSSL\wolfcrypt\src/rsa.c ****     return RsaSSL_VerifyInline_fips(in, inLen, out, key);
  77:..\kronos-c-sdk\src\wolfSSL\wolfcrypt\src/rsa.c **** }
  78:..\kronos-c-sdk\src\wolfSSL\wolfcrypt\src/rsa.c **** 
  79:..\kronos-c-sdk\src\wolfSSL\wolfcrypt\src/rsa.c **** 
  80:..\kronos-c-sdk\src\wolfSSL\wolfcrypt\src/rsa.c **** int  wc_RsaSSL_Verify(const byte* in, word32 inLen, byte* out,
  81:..\kronos-c-sdk\src\wolfSSL\wolfcrypt\src/rsa.c ****                               word32 outLen, RsaKey* key)
  82:..\kronos-c-sdk\src\wolfSSL\wolfcrypt\src/rsa.c **** {
  83:..\kronos-c-sdk\src\wolfSSL\wolfcrypt\src/rsa.c ****     return RsaSSL_Verify_fips(in, inLen, out, outLen, key);
  84:..\kronos-c-sdk\src\wolfSSL\wolfcrypt\src/rsa.c **** }
  85:..\kronos-c-sdk\src\wolfSSL\wolfcrypt\src/rsa.c **** 
  86:..\kronos-c-sdk\src\wolfSSL\wolfcrypt\src/rsa.c **** 
  87:..\kronos-c-sdk\src\wolfSSL\wolfcrypt\src/rsa.c **** int  wc_RsaEncryptSize(RsaKey* key)
  88:..\kronos-c-sdk\src\wolfSSL\wolfcrypt\src/rsa.c **** {
  89:..\kronos-c-sdk\src\wolfSSL\wolfcrypt\src/rsa.c ****     return RsaEncryptSize_fips(key);
  90:..\kronos-c-sdk\src\wolfSSL\wolfcrypt\src/rsa.c **** }
ARM GAS  C:\Users\ddemidov\AppData\Local\Temp\ccr947bU.s 			page 3


  91:..\kronos-c-sdk\src\wolfSSL\wolfcrypt\src/rsa.c **** 
  92:..\kronos-c-sdk\src\wolfSSL\wolfcrypt\src/rsa.c **** 
  93:..\kronos-c-sdk\src\wolfSSL\wolfcrypt\src/rsa.c **** int wc_RsaFlattenPublicKey(RsaKey* key, byte* a, word32* aSz, byte* b,
  94:..\kronos-c-sdk\src\wolfSSL\wolfcrypt\src/rsa.c ****                            word32* bSz)
  95:..\kronos-c-sdk\src\wolfSSL\wolfcrypt\src/rsa.c **** {
  96:..\kronos-c-sdk\src\wolfSSL\wolfcrypt\src/rsa.c ****     /* not specified as fips so not needing _fips */
  97:..\kronos-c-sdk\src\wolfSSL\wolfcrypt\src/rsa.c ****     return RsaFlattenPublicKey(key, a, aSz, b, bSz);
  98:..\kronos-c-sdk\src\wolfSSL\wolfcrypt\src/rsa.c **** }
  99:..\kronos-c-sdk\src\wolfSSL\wolfcrypt\src/rsa.c **** #ifdef WOLFSSL_KEY_GEN
 100:..\kronos-c-sdk\src\wolfSSL\wolfcrypt\src/rsa.c ****     int wc_MakeRsaKey(RsaKey* key, int size, long e, WC_RNG* rng)
 101:..\kronos-c-sdk\src\wolfSSL\wolfcrypt\src/rsa.c ****     {
 102:..\kronos-c-sdk\src\wolfSSL\wolfcrypt\src/rsa.c ****         return MakeRsaKey(key, size, e, rng);
 103:..\kronos-c-sdk\src\wolfSSL\wolfcrypt\src/rsa.c ****     }
 104:..\kronos-c-sdk\src\wolfSSL\wolfcrypt\src/rsa.c **** #endif
 105:..\kronos-c-sdk\src\wolfSSL\wolfcrypt\src/rsa.c **** 
 106:..\kronos-c-sdk\src\wolfSSL\wolfcrypt\src/rsa.c **** 
 107:..\kronos-c-sdk\src\wolfSSL\wolfcrypt\src/rsa.c **** #ifdef HAVE_CAVIUM
 108:..\kronos-c-sdk\src\wolfSSL\wolfcrypt\src/rsa.c ****     int  wc_RsaInitCavium(RsaKey* key, int i)
 109:..\kronos-c-sdk\src\wolfSSL\wolfcrypt\src/rsa.c ****     {
 110:..\kronos-c-sdk\src\wolfSSL\wolfcrypt\src/rsa.c ****         return RsaInitCavium(key, i);
 111:..\kronos-c-sdk\src\wolfSSL\wolfcrypt\src/rsa.c ****     }
 112:..\kronos-c-sdk\src\wolfSSL\wolfcrypt\src/rsa.c **** 
 113:..\kronos-c-sdk\src\wolfSSL\wolfcrypt\src/rsa.c **** 
 114:..\kronos-c-sdk\src\wolfSSL\wolfcrypt\src/rsa.c ****     void wc_RsaFreeCavium(RsaKey* key)
 115:..\kronos-c-sdk\src\wolfSSL\wolfcrypt\src/rsa.c ****     {
 116:..\kronos-c-sdk\src\wolfSSL\wolfcrypt\src/rsa.c ****         RsaFreeCavium(key);
 117:..\kronos-c-sdk\src\wolfSSL\wolfcrypt\src/rsa.c ****     }
 118:..\kronos-c-sdk\src\wolfSSL\wolfcrypt\src/rsa.c **** #endif
 119:..\kronos-c-sdk\src\wolfSSL\wolfcrypt\src/rsa.c **** 
 120:..\kronos-c-sdk\src\wolfSSL\wolfcrypt\src/rsa.c **** /* these are functions in asn and are routed to wolfssl/wolfcrypt/asn.c
 121:..\kronos-c-sdk\src\wolfSSL\wolfcrypt\src/rsa.c **** * wc_RsaPrivateKeyDecode
 122:..\kronos-c-sdk\src\wolfSSL\wolfcrypt\src/rsa.c **** * wc_RsaPublicKeyDecode
 123:..\kronos-c-sdk\src\wolfSSL\wolfcrypt\src/rsa.c **** */
 124:..\kronos-c-sdk\src\wolfSSL\wolfcrypt\src/rsa.c **** 
 125:..\kronos-c-sdk\src\wolfSSL\wolfcrypt\src/rsa.c **** #else /* else build without fips */
 126:..\kronos-c-sdk\src\wolfSSL\wolfcrypt\src/rsa.c **** #include <wolfssl/wolfcrypt/random.h>
 127:..\kronos-c-sdk\src\wolfSSL\wolfcrypt\src/rsa.c **** #include <wolfssl/wolfcrypt/error-crypt.h>
 128:..\kronos-c-sdk\src\wolfSSL\wolfcrypt\src/rsa.c **** #include <wolfssl/wolfcrypt/logging.h>
 129:..\kronos-c-sdk\src\wolfSSL\wolfcrypt\src/rsa.c **** #ifdef NO_INLINE
 130:..\kronos-c-sdk\src\wolfSSL\wolfcrypt\src/rsa.c ****     #include <wolfssl/wolfcrypt/misc.h>
 131:..\kronos-c-sdk\src\wolfSSL\wolfcrypt\src/rsa.c **** #else
 132:..\kronos-c-sdk\src\wolfSSL\wolfcrypt\src/rsa.c ****     #include <wolfcrypt/src/misc.c>
 133:..\kronos-c-sdk\src\wolfSSL\wolfcrypt\src/rsa.c **** #endif
 134:..\kronos-c-sdk\src\wolfSSL\wolfcrypt\src/rsa.c **** 
 135:..\kronos-c-sdk\src\wolfSSL\wolfcrypt\src/rsa.c **** #ifdef HAVE_CAVIUM
 136:..\kronos-c-sdk\src\wolfSSL\wolfcrypt\src/rsa.c ****     static int  InitCaviumRsaKey(RsaKey* key, void* heap);
 137:..\kronos-c-sdk\src\wolfSSL\wolfcrypt\src/rsa.c ****     static int  FreeCaviumRsaKey(RsaKey* key);
 138:..\kronos-c-sdk\src\wolfSSL\wolfcrypt\src/rsa.c ****     static int  CaviumRsaPublicEncrypt(const byte* in, word32 inLen, byte* out,
 139:..\kronos-c-sdk\src\wolfSSL\wolfcrypt\src/rsa.c ****                                        word32 outLen, RsaKey* key);
 140:..\kronos-c-sdk\src\wolfSSL\wolfcrypt\src/rsa.c ****     static int  CaviumRsaPrivateDecrypt(const byte* in, word32 inLen, byte* out,
 141:..\kronos-c-sdk\src\wolfSSL\wolfcrypt\src/rsa.c ****                                         word32 outLen, RsaKey* key);
 142:..\kronos-c-sdk\src\wolfSSL\wolfcrypt\src/rsa.c ****     static int  CaviumRsaSSL_Sign(const byte* in, word32 inLen, byte* out,
 143:..\kronos-c-sdk\src\wolfSSL\wolfcrypt\src/rsa.c ****                                   word32 outLen, RsaKey* key);
 144:..\kronos-c-sdk\src\wolfSSL\wolfcrypt\src/rsa.c ****     static int  CaviumRsaSSL_Verify(const byte* in, word32 inLen, byte* out,
 145:..\kronos-c-sdk\src\wolfSSL\wolfcrypt\src/rsa.c ****                                     word32 outLen, RsaKey* key);
 146:..\kronos-c-sdk\src\wolfSSL\wolfcrypt\src/rsa.c **** #endif
 147:..\kronos-c-sdk\src\wolfSSL\wolfcrypt\src/rsa.c **** 
ARM GAS  C:\Users\ddemidov\AppData\Local\Temp\ccr947bU.s 			page 4


 148:..\kronos-c-sdk\src\wolfSSL\wolfcrypt\src/rsa.c **** enum {
 149:..\kronos-c-sdk\src\wolfSSL\wolfcrypt\src/rsa.c ****     RSA_PUBLIC_ENCRYPT  = 0,
 150:..\kronos-c-sdk\src\wolfSSL\wolfcrypt\src/rsa.c ****     RSA_PUBLIC_DECRYPT  = 1,
 151:..\kronos-c-sdk\src\wolfSSL\wolfcrypt\src/rsa.c ****     RSA_PRIVATE_ENCRYPT = 2,
 152:..\kronos-c-sdk\src\wolfSSL\wolfcrypt\src/rsa.c ****     RSA_PRIVATE_DECRYPT = 3,
 153:..\kronos-c-sdk\src\wolfSSL\wolfcrypt\src/rsa.c **** 
 154:..\kronos-c-sdk\src\wolfSSL\wolfcrypt\src/rsa.c ****     RSA_BLOCK_TYPE_1 = 1,
 155:..\kronos-c-sdk\src\wolfSSL\wolfcrypt\src/rsa.c ****     RSA_BLOCK_TYPE_2 = 2,
 156:..\kronos-c-sdk\src\wolfSSL\wolfcrypt\src/rsa.c **** 
 157:..\kronos-c-sdk\src\wolfSSL\wolfcrypt\src/rsa.c ****     RSA_MIN_SIZE = 512,
 158:..\kronos-c-sdk\src\wolfSSL\wolfcrypt\src/rsa.c ****     RSA_MAX_SIZE = 4096,
 159:..\kronos-c-sdk\src\wolfSSL\wolfcrypt\src/rsa.c **** 
 160:..\kronos-c-sdk\src\wolfSSL\wolfcrypt\src/rsa.c ****     RSA_MIN_PAD_SZ   = 11      /* separator + 0 + pad value + 8 pads */
 161:..\kronos-c-sdk\src\wolfSSL\wolfcrypt\src/rsa.c **** };
 162:..\kronos-c-sdk\src\wolfSSL\wolfcrypt\src/rsa.c **** 
 163:..\kronos-c-sdk\src\wolfSSL\wolfcrypt\src/rsa.c **** 
 164:..\kronos-c-sdk\src\wolfSSL\wolfcrypt\src/rsa.c **** int wc_InitRsaKey(RsaKey* key, void* heap)
 165:..\kronos-c-sdk\src\wolfSSL\wolfcrypt\src/rsa.c **** {
 166:..\kronos-c-sdk\src\wolfSSL\wolfcrypt\src/rsa.c **** #ifdef HAVE_CAVIUM
 167:..\kronos-c-sdk\src\wolfSSL\wolfcrypt\src/rsa.c ****     if (key->magic == WOLFSSL_RSA_CAVIUM_MAGIC)
 168:..\kronos-c-sdk\src\wolfSSL\wolfcrypt\src/rsa.c ****         return InitCaviumRsaKey(key, heap);
 169:..\kronos-c-sdk\src\wolfSSL\wolfcrypt\src/rsa.c **** #endif
 170:..\kronos-c-sdk\src\wolfSSL\wolfcrypt\src/rsa.c **** 
 171:..\kronos-c-sdk\src\wolfSSL\wolfcrypt\src/rsa.c ****     key->type = -1;  /* haven't decided yet */
 172:..\kronos-c-sdk\src\wolfSSL\wolfcrypt\src/rsa.c ****     key->heap = heap;
 173:..\kronos-c-sdk\src\wolfSSL\wolfcrypt\src/rsa.c **** 
 174:..\kronos-c-sdk\src\wolfSSL\wolfcrypt\src/rsa.c **** /* TomsFastMath doesn't use memory allocation */
 175:..\kronos-c-sdk\src\wolfSSL\wolfcrypt\src/rsa.c **** #ifndef USE_FAST_MATH
 176:..\kronos-c-sdk\src\wolfSSL\wolfcrypt\src/rsa.c ****     key->n.dp = key->e.dp = 0;  /* public  alloc parts */
 177:..\kronos-c-sdk\src\wolfSSL\wolfcrypt\src/rsa.c **** 
 178:..\kronos-c-sdk\src\wolfSSL\wolfcrypt\src/rsa.c ****     key->d.dp = key->p.dp  = 0;  /* private alloc parts */
 179:..\kronos-c-sdk\src\wolfSSL\wolfcrypt\src/rsa.c ****     key->q.dp = key->dP.dp = 0;
 180:..\kronos-c-sdk\src\wolfSSL\wolfcrypt\src/rsa.c ****     key->u.dp = key->dQ.dp = 0;
 181:..\kronos-c-sdk\src\wolfSSL\wolfcrypt\src/rsa.c **** #else
 182:..\kronos-c-sdk\src\wolfSSL\wolfcrypt\src/rsa.c ****     mp_init(&key->n);
 183:..\kronos-c-sdk\src\wolfSSL\wolfcrypt\src/rsa.c ****     mp_init(&key->e);
 184:..\kronos-c-sdk\src\wolfSSL\wolfcrypt\src/rsa.c ****     mp_init(&key->d);
 185:..\kronos-c-sdk\src\wolfSSL\wolfcrypt\src/rsa.c ****     mp_init(&key->p);
 186:..\kronos-c-sdk\src\wolfSSL\wolfcrypt\src/rsa.c ****     mp_init(&key->q);
 187:..\kronos-c-sdk\src\wolfSSL\wolfcrypt\src/rsa.c ****     mp_init(&key->dP);
 188:..\kronos-c-sdk\src\wolfSSL\wolfcrypt\src/rsa.c ****     mp_init(&key->dQ);
 189:..\kronos-c-sdk\src\wolfSSL\wolfcrypt\src/rsa.c ****     mp_init(&key->u);
 190:..\kronos-c-sdk\src\wolfSSL\wolfcrypt\src/rsa.c **** #endif
 191:..\kronos-c-sdk\src\wolfSSL\wolfcrypt\src/rsa.c **** 
 192:..\kronos-c-sdk\src\wolfSSL\wolfcrypt\src/rsa.c ****     return 0;
 193:..\kronos-c-sdk\src\wolfSSL\wolfcrypt\src/rsa.c **** }
 194:..\kronos-c-sdk\src\wolfSSL\wolfcrypt\src/rsa.c **** 
 195:..\kronos-c-sdk\src\wolfSSL\wolfcrypt\src/rsa.c **** 
 196:..\kronos-c-sdk\src\wolfSSL\wolfcrypt\src/rsa.c **** int wc_FreeRsaKey(RsaKey* key)
 197:..\kronos-c-sdk\src\wolfSSL\wolfcrypt\src/rsa.c **** {
 198:..\kronos-c-sdk\src\wolfSSL\wolfcrypt\src/rsa.c ****     (void)key;
 199:..\kronos-c-sdk\src\wolfSSL\wolfcrypt\src/rsa.c **** 
 200:..\kronos-c-sdk\src\wolfSSL\wolfcrypt\src/rsa.c ****     if (key == NULL)
 201:..\kronos-c-sdk\src\wolfSSL\wolfcrypt\src/rsa.c ****         return 0;
 202:..\kronos-c-sdk\src\wolfSSL\wolfcrypt\src/rsa.c **** 
 203:..\kronos-c-sdk\src\wolfSSL\wolfcrypt\src/rsa.c **** #ifdef HAVE_CAVIUM
 204:..\kronos-c-sdk\src\wolfSSL\wolfcrypt\src/rsa.c ****     if (key->magic == WOLFSSL_RSA_CAVIUM_MAGIC)
ARM GAS  C:\Users\ddemidov\AppData\Local\Temp\ccr947bU.s 			page 5


 205:..\kronos-c-sdk\src\wolfSSL\wolfcrypt\src/rsa.c ****         return FreeCaviumRsaKey(key);
 206:..\kronos-c-sdk\src\wolfSSL\wolfcrypt\src/rsa.c **** #endif
 207:..\kronos-c-sdk\src\wolfSSL\wolfcrypt\src/rsa.c **** 
 208:..\kronos-c-sdk\src\wolfSSL\wolfcrypt\src/rsa.c **** /* TomsFastMath doesn't use memory allocation */
 209:..\kronos-c-sdk\src\wolfSSL\wolfcrypt\src/rsa.c **** #ifndef USE_FAST_MATH
 210:..\kronos-c-sdk\src\wolfSSL\wolfcrypt\src/rsa.c ****     if (key->type == RSA_PRIVATE) {
 211:..\kronos-c-sdk\src\wolfSSL\wolfcrypt\src/rsa.c ****         mp_clear(&key->u);
 212:..\kronos-c-sdk\src\wolfSSL\wolfcrypt\src/rsa.c ****         mp_clear(&key->dQ);
 213:..\kronos-c-sdk\src\wolfSSL\wolfcrypt\src/rsa.c ****         mp_clear(&key->dP);
 214:..\kronos-c-sdk\src\wolfSSL\wolfcrypt\src/rsa.c ****         mp_clear(&key->q);
 215:..\kronos-c-sdk\src\wolfSSL\wolfcrypt\src/rsa.c ****         mp_clear(&key->p);
 216:..\kronos-c-sdk\src\wolfSSL\wolfcrypt\src/rsa.c ****         mp_clear(&key->d);
 217:..\kronos-c-sdk\src\wolfSSL\wolfcrypt\src/rsa.c ****     }
 218:..\kronos-c-sdk\src\wolfSSL\wolfcrypt\src/rsa.c ****     mp_clear(&key->e);
 219:..\kronos-c-sdk\src\wolfSSL\wolfcrypt\src/rsa.c ****     mp_clear(&key->n);
 220:..\kronos-c-sdk\src\wolfSSL\wolfcrypt\src/rsa.c **** #else
 221:..\kronos-c-sdk\src\wolfSSL\wolfcrypt\src/rsa.c ****     /* still clear private key memory information when free'd */
 222:..\kronos-c-sdk\src\wolfSSL\wolfcrypt\src/rsa.c ****     if (key->type == RSA_PRIVATE) {
 223:..\kronos-c-sdk\src\wolfSSL\wolfcrypt\src/rsa.c ****         mp_clear(&key->u);
 224:..\kronos-c-sdk\src\wolfSSL\wolfcrypt\src/rsa.c ****         mp_clear(&key->dQ);
 225:..\kronos-c-sdk\src\wolfSSL\wolfcrypt\src/rsa.c ****         mp_clear(&key->u);
 226:..\kronos-c-sdk\src\wolfSSL\wolfcrypt\src/rsa.c ****         mp_clear(&key->dP);
 227:..\kronos-c-sdk\src\wolfSSL\wolfcrypt\src/rsa.c ****         mp_clear(&key->q);
 228:..\kronos-c-sdk\src\wolfSSL\wolfcrypt\src/rsa.c ****         mp_clear(&key->p);
 229:..\kronos-c-sdk\src\wolfSSL\wolfcrypt\src/rsa.c ****         mp_clear(&key->d);
 230:..\kronos-c-sdk\src\wolfSSL\wolfcrypt\src/rsa.c ****     }
 231:..\kronos-c-sdk\src\wolfSSL\wolfcrypt\src/rsa.c **** #endif
 232:..\kronos-c-sdk\src\wolfSSL\wolfcrypt\src/rsa.c **** 
 233:..\kronos-c-sdk\src\wolfSSL\wolfcrypt\src/rsa.c ****     return 0;
 234:..\kronos-c-sdk\src\wolfSSL\wolfcrypt\src/rsa.c **** }
 235:..\kronos-c-sdk\src\wolfSSL\wolfcrypt\src/rsa.c **** 
 236:..\kronos-c-sdk\src\wolfSSL\wolfcrypt\src/rsa.c **** 
 237:..\kronos-c-sdk\src\wolfSSL\wolfcrypt\src/rsa.c **** #ifndef WC_NO_RSA_OAEP
 238:..\kronos-c-sdk\src\wolfSSL\wolfcrypt\src/rsa.c **** /* Uses MGF1 standard as a mask generation function
 239:..\kronos-c-sdk\src\wolfSSL\wolfcrypt\src/rsa.c ****    hType: hash type used
 240:..\kronos-c-sdk\src\wolfSSL\wolfcrypt\src/rsa.c ****    seed:  seed to use for generating mask
 241:..\kronos-c-sdk\src\wolfSSL\wolfcrypt\src/rsa.c ****    seedSz: size of seed buffer
 242:..\kronos-c-sdk\src\wolfSSL\wolfcrypt\src/rsa.c ****    out:   mask output after generation
 243:..\kronos-c-sdk\src\wolfSSL\wolfcrypt\src/rsa.c ****    outSz: size of output buffer
 244:..\kronos-c-sdk\src\wolfSSL\wolfcrypt\src/rsa.c ****  */
 245:..\kronos-c-sdk\src\wolfSSL\wolfcrypt\src/rsa.c **** static int wc_MGF1(enum wc_HashType hType, byte* seed, word32 seedSz,
 246:..\kronos-c-sdk\src\wolfSSL\wolfcrypt\src/rsa.c ****                                                         byte* out, word32 outSz)
 247:..\kronos-c-sdk\src\wolfSSL\wolfcrypt\src/rsa.c **** {
 248:..\kronos-c-sdk\src\wolfSSL\wolfcrypt\src/rsa.c ****     byte* tmp;
 249:..\kronos-c-sdk\src\wolfSSL\wolfcrypt\src/rsa.c ****     /* needs to be large enough for seed size plus counter(4) */
 250:..\kronos-c-sdk\src\wolfSSL\wolfcrypt\src/rsa.c ****     byte  tmpA[WC_MAX_DIGEST_SIZE + 4];
 251:..\kronos-c-sdk\src\wolfSSL\wolfcrypt\src/rsa.c ****     byte   tmpF;     /* 1 if dynamic memory needs freed */
 252:..\kronos-c-sdk\src\wolfSSL\wolfcrypt\src/rsa.c ****     word32 tmpSz;
 253:..\kronos-c-sdk\src\wolfSSL\wolfcrypt\src/rsa.c ****     int hLen;
 254:..\kronos-c-sdk\src\wolfSSL\wolfcrypt\src/rsa.c ****     int ret;
 255:..\kronos-c-sdk\src\wolfSSL\wolfcrypt\src/rsa.c ****     word32 counter;
 256:..\kronos-c-sdk\src\wolfSSL\wolfcrypt\src/rsa.c ****     word32 idx;
 257:..\kronos-c-sdk\src\wolfSSL\wolfcrypt\src/rsa.c ****     hLen    = wc_HashGetDigestSize(hType);
 258:..\kronos-c-sdk\src\wolfSSL\wolfcrypt\src/rsa.c ****     counter = 0;
 259:..\kronos-c-sdk\src\wolfSSL\wolfcrypt\src/rsa.c ****     idx     = 0;
 260:..\kronos-c-sdk\src\wolfSSL\wolfcrypt\src/rsa.c **** 
 261:..\kronos-c-sdk\src\wolfSSL\wolfcrypt\src/rsa.c ****     /* check error return of wc_HashGetDigestSize */
ARM GAS  C:\Users\ddemidov\AppData\Local\Temp\ccr947bU.s 			page 6


 262:..\kronos-c-sdk\src\wolfSSL\wolfcrypt\src/rsa.c ****     if (hLen < 0) {
 263:..\kronos-c-sdk\src\wolfSSL\wolfcrypt\src/rsa.c ****         return hLen;
 264:..\kronos-c-sdk\src\wolfSSL\wolfcrypt\src/rsa.c ****     }
 265:..\kronos-c-sdk\src\wolfSSL\wolfcrypt\src/rsa.c **** 
 266:..\kronos-c-sdk\src\wolfSSL\wolfcrypt\src/rsa.c ****     /* if tmp is not large enough than use some dynamic memory */
 267:..\kronos-c-sdk\src\wolfSSL\wolfcrypt\src/rsa.c ****     if ((seedSz + 4) > sizeof(tmpA) || (word32)hLen > sizeof(tmpA)) {
 268:..\kronos-c-sdk\src\wolfSSL\wolfcrypt\src/rsa.c ****         /* find largest amount of memory needed which will be the max of
 269:..\kronos-c-sdk\src\wolfSSL\wolfcrypt\src/rsa.c ****          * hLen and (seedSz + 4) since tmp is used to store the hash digest */
 270:..\kronos-c-sdk\src\wolfSSL\wolfcrypt\src/rsa.c ****         tmpSz = ((seedSz + 4) > (word32)hLen)? seedSz + 4: (word32)hLen;
 271:..\kronos-c-sdk\src\wolfSSL\wolfcrypt\src/rsa.c ****         tmp = (byte*)XMALLOC(tmpSz, NULL, DYNAMIC_TYPE_TMP_BUFFER);
 272:..\kronos-c-sdk\src\wolfSSL\wolfcrypt\src/rsa.c ****         if (tmp == NULL) {
 273:..\kronos-c-sdk\src\wolfSSL\wolfcrypt\src/rsa.c ****             return MEMORY_E;
 274:..\kronos-c-sdk\src\wolfSSL\wolfcrypt\src/rsa.c ****         }
 275:..\kronos-c-sdk\src\wolfSSL\wolfcrypt\src/rsa.c ****         tmpF = 1; /* make sure to free memory when done */
 276:..\kronos-c-sdk\src\wolfSSL\wolfcrypt\src/rsa.c ****     }
 277:..\kronos-c-sdk\src\wolfSSL\wolfcrypt\src/rsa.c ****     else {
 278:..\kronos-c-sdk\src\wolfSSL\wolfcrypt\src/rsa.c ****         /* use array on the stack */
 279:..\kronos-c-sdk\src\wolfSSL\wolfcrypt\src/rsa.c ****         tmpSz = sizeof(tmpA);
 280:..\kronos-c-sdk\src\wolfSSL\wolfcrypt\src/rsa.c ****         tmp  = tmpA;
 281:..\kronos-c-sdk\src\wolfSSL\wolfcrypt\src/rsa.c ****         tmpF = 0; /* no need to free memory at end */
 282:..\kronos-c-sdk\src\wolfSSL\wolfcrypt\src/rsa.c ****     }
 283:..\kronos-c-sdk\src\wolfSSL\wolfcrypt\src/rsa.c **** 
 284:..\kronos-c-sdk\src\wolfSSL\wolfcrypt\src/rsa.c ****     do {
 285:..\kronos-c-sdk\src\wolfSSL\wolfcrypt\src/rsa.c ****         int i = 0;
 286:..\kronos-c-sdk\src\wolfSSL\wolfcrypt\src/rsa.c ****         XMEMCPY(tmp, seed, seedSz);
 287:..\kronos-c-sdk\src\wolfSSL\wolfcrypt\src/rsa.c **** 
 288:..\kronos-c-sdk\src\wolfSSL\wolfcrypt\src/rsa.c ****         /* counter to byte array appended to tmp */
 289:..\kronos-c-sdk\src\wolfSSL\wolfcrypt\src/rsa.c ****         tmp[seedSz]     = (counter >> 24) & 0xFF;
 290:..\kronos-c-sdk\src\wolfSSL\wolfcrypt\src/rsa.c ****         tmp[seedSz + 1] = (counter >> 16) & 0xFF;
 291:..\kronos-c-sdk\src\wolfSSL\wolfcrypt\src/rsa.c ****         tmp[seedSz + 2] = (counter >>  8) & 0xFF;
 292:..\kronos-c-sdk\src\wolfSSL\wolfcrypt\src/rsa.c ****         tmp[seedSz + 3] = (counter)       & 0xFF;
 293:..\kronos-c-sdk\src\wolfSSL\wolfcrypt\src/rsa.c **** 
 294:..\kronos-c-sdk\src\wolfSSL\wolfcrypt\src/rsa.c ****         /* hash and append to existing output */
 295:..\kronos-c-sdk\src\wolfSSL\wolfcrypt\src/rsa.c ****         if ((ret = wc_Hash(hType, tmp, (seedSz + 4), tmp, tmpSz)) != 0) {
 296:..\kronos-c-sdk\src\wolfSSL\wolfcrypt\src/rsa.c ****             /* check for if dynamic memory was needed, then free */
 297:..\kronos-c-sdk\src\wolfSSL\wolfcrypt\src/rsa.c ****             if (tmpF) {
 298:..\kronos-c-sdk\src\wolfSSL\wolfcrypt\src/rsa.c ****                 XFREE(tmp, NULL, DYNAMIC_TYPE_TMP_BUFFER);
 299:..\kronos-c-sdk\src\wolfSSL\wolfcrypt\src/rsa.c ****             }
 300:..\kronos-c-sdk\src\wolfSSL\wolfcrypt\src/rsa.c ****             return ret;
 301:..\kronos-c-sdk\src\wolfSSL\wolfcrypt\src/rsa.c ****         }
 302:..\kronos-c-sdk\src\wolfSSL\wolfcrypt\src/rsa.c **** 
 303:..\kronos-c-sdk\src\wolfSSL\wolfcrypt\src/rsa.c ****         for (i = 0; i < hLen && idx < outSz; i++) {
 304:..\kronos-c-sdk\src\wolfSSL\wolfcrypt\src/rsa.c ****             out[idx++] = tmp[i];
 305:..\kronos-c-sdk\src\wolfSSL\wolfcrypt\src/rsa.c ****         }
 306:..\kronos-c-sdk\src\wolfSSL\wolfcrypt\src/rsa.c ****         counter++;
 307:..\kronos-c-sdk\src\wolfSSL\wolfcrypt\src/rsa.c ****     }
 308:..\kronos-c-sdk\src\wolfSSL\wolfcrypt\src/rsa.c ****     while (idx < outSz);
 309:..\kronos-c-sdk\src\wolfSSL\wolfcrypt\src/rsa.c **** 
 310:..\kronos-c-sdk\src\wolfSSL\wolfcrypt\src/rsa.c ****     /* check for if dynamic memory was needed, then free */
 311:..\kronos-c-sdk\src\wolfSSL\wolfcrypt\src/rsa.c ****     if (tmpF) {
 312:..\kronos-c-sdk\src\wolfSSL\wolfcrypt\src/rsa.c ****         XFREE(tmp, NULL, DYNAMIC_TYPE_TMP_BUFFER);
 313:..\kronos-c-sdk\src\wolfSSL\wolfcrypt\src/rsa.c ****     }
 314:..\kronos-c-sdk\src\wolfSSL\wolfcrypt\src/rsa.c **** 
 315:..\kronos-c-sdk\src\wolfSSL\wolfcrypt\src/rsa.c ****     return 0;
 316:..\kronos-c-sdk\src\wolfSSL\wolfcrypt\src/rsa.c **** }
 317:..\kronos-c-sdk\src\wolfSSL\wolfcrypt\src/rsa.c **** 
 318:..\kronos-c-sdk\src\wolfSSL\wolfcrypt\src/rsa.c **** 
ARM GAS  C:\Users\ddemidov\AppData\Local\Temp\ccr947bU.s 			page 7


 319:..\kronos-c-sdk\src\wolfSSL\wolfcrypt\src/rsa.c **** /* helper function to direct which mask generation function is used
 320:..\kronos-c-sdk\src\wolfSSL\wolfcrypt\src/rsa.c ****    switeched on type input
 321:..\kronos-c-sdk\src\wolfSSL\wolfcrypt\src/rsa.c ****  */
 322:..\kronos-c-sdk\src\wolfSSL\wolfcrypt\src/rsa.c **** static int wc_MGF(int type, byte* seed, word32 seedSz,
 323:..\kronos-c-sdk\src\wolfSSL\wolfcrypt\src/rsa.c ****                                                         byte* out, word32 outSz)
 324:..\kronos-c-sdk\src\wolfSSL\wolfcrypt\src/rsa.c **** {
 325:..\kronos-c-sdk\src\wolfSSL\wolfcrypt\src/rsa.c ****     int ret;
 326:..\kronos-c-sdk\src\wolfSSL\wolfcrypt\src/rsa.c **** 
 327:..\kronos-c-sdk\src\wolfSSL\wolfcrypt\src/rsa.c ****     switch(type) {
 328:..\kronos-c-sdk\src\wolfSSL\wolfcrypt\src/rsa.c ****         #ifndef NO_SHA
 329:..\kronos-c-sdk\src\wolfSSL\wolfcrypt\src/rsa.c ****         case WC_MGF1SHA1:
 330:..\kronos-c-sdk\src\wolfSSL\wolfcrypt\src/rsa.c ****                 ret = wc_MGF1(WC_HASH_TYPE_SHA, seed, seedSz, out, outSz);
 331:..\kronos-c-sdk\src\wolfSSL\wolfcrypt\src/rsa.c ****                 break;
 332:..\kronos-c-sdk\src\wolfSSL\wolfcrypt\src/rsa.c ****         #endif
 333:..\kronos-c-sdk\src\wolfSSL\wolfcrypt\src/rsa.c ****         #ifndef NO_SHA256
 334:..\kronos-c-sdk\src\wolfSSL\wolfcrypt\src/rsa.c ****         case WC_MGF1SHA256:
 335:..\kronos-c-sdk\src\wolfSSL\wolfcrypt\src/rsa.c ****                 ret = wc_MGF1(WC_HASH_TYPE_SHA256, seed, seedSz, out, outSz);
 336:..\kronos-c-sdk\src\wolfSSL\wolfcrypt\src/rsa.c ****                 break;
 337:..\kronos-c-sdk\src\wolfSSL\wolfcrypt\src/rsa.c ****         #endif
 338:..\kronos-c-sdk\src\wolfSSL\wolfcrypt\src/rsa.c ****         #ifdef WOLFSSL_SHA512
 339:..\kronos-c-sdk\src\wolfSSL\wolfcrypt\src/rsa.c ****         #ifdef WOLFSSL_SHA384
 340:..\kronos-c-sdk\src\wolfSSL\wolfcrypt\src/rsa.c ****         case WC_MGF1SHA384:
 341:..\kronos-c-sdk\src\wolfSSL\wolfcrypt\src/rsa.c ****                 ret = wc_MGF1(WC_HASH_TYPE_SHA384, seed, seedSz, out, outSz);
 342:..\kronos-c-sdk\src\wolfSSL\wolfcrypt\src/rsa.c ****                 break;
 343:..\kronos-c-sdk\src\wolfSSL\wolfcrypt\src/rsa.c ****         #endif
 344:..\kronos-c-sdk\src\wolfSSL\wolfcrypt\src/rsa.c ****         case WC_MGF1SHA512:
 345:..\kronos-c-sdk\src\wolfSSL\wolfcrypt\src/rsa.c ****                 ret = wc_MGF1(WC_HASH_TYPE_SHA512, seed, seedSz, out, outSz);
 346:..\kronos-c-sdk\src\wolfSSL\wolfcrypt\src/rsa.c ****                 break;
 347:..\kronos-c-sdk\src\wolfSSL\wolfcrypt\src/rsa.c ****         #endif
 348:..\kronos-c-sdk\src\wolfSSL\wolfcrypt\src/rsa.c ****         default:
 349:..\kronos-c-sdk\src\wolfSSL\wolfcrypt\src/rsa.c ****             WOLFSSL_MSG("Unknown MGF function: check build options");
 350:..\kronos-c-sdk\src\wolfSSL\wolfcrypt\src/rsa.c ****             ret = BAD_FUNC_ARG;
 351:..\kronos-c-sdk\src\wolfSSL\wolfcrypt\src/rsa.c ****     }
 352:..\kronos-c-sdk\src\wolfSSL\wolfcrypt\src/rsa.c **** 
 353:..\kronos-c-sdk\src\wolfSSL\wolfcrypt\src/rsa.c ****     /* in case of default avoid unused warning */
 354:..\kronos-c-sdk\src\wolfSSL\wolfcrypt\src/rsa.c ****     (void)seed;
 355:..\kronos-c-sdk\src\wolfSSL\wolfcrypt\src/rsa.c ****     (void)seedSz;
 356:..\kronos-c-sdk\src\wolfSSL\wolfcrypt\src/rsa.c ****     (void)out;
 357:..\kronos-c-sdk\src\wolfSSL\wolfcrypt\src/rsa.c ****     (void)outSz;
 358:..\kronos-c-sdk\src\wolfSSL\wolfcrypt\src/rsa.c **** 
 359:..\kronos-c-sdk\src\wolfSSL\wolfcrypt\src/rsa.c ****     return ret;
 360:..\kronos-c-sdk\src\wolfSSL\wolfcrypt\src/rsa.c **** }
 361:..\kronos-c-sdk\src\wolfSSL\wolfcrypt\src/rsa.c **** 
 362:..\kronos-c-sdk\src\wolfSSL\wolfcrypt\src/rsa.c **** 
 363:..\kronos-c-sdk\src\wolfSSL\wolfcrypt\src/rsa.c **** static int wc_RsaPad_OAEP(const byte* input, word32 inputLen, byte* pkcsBlock,
 364:..\kronos-c-sdk\src\wolfSSL\wolfcrypt\src/rsa.c ****         word32 pkcsBlockLen, byte padValue, WC_RNG* rng,
 365:..\kronos-c-sdk\src\wolfSSL\wolfcrypt\src/rsa.c ****         enum wc_HashType hType, int mgf, byte* optLabel, word32 labelLen)
 366:..\kronos-c-sdk\src\wolfSSL\wolfcrypt\src/rsa.c **** {
 367:..\kronos-c-sdk\src\wolfSSL\wolfcrypt\src/rsa.c ****     int ret;
 368:..\kronos-c-sdk\src\wolfSSL\wolfcrypt\src/rsa.c ****     int hLen;
 369:..\kronos-c-sdk\src\wolfSSL\wolfcrypt\src/rsa.c ****     int psLen;
 370:..\kronos-c-sdk\src\wolfSSL\wolfcrypt\src/rsa.c ****     int i;
 371:..\kronos-c-sdk\src\wolfSSL\wolfcrypt\src/rsa.c ****     word32 idx;
 372:..\kronos-c-sdk\src\wolfSSL\wolfcrypt\src/rsa.c **** 
 373:..\kronos-c-sdk\src\wolfSSL\wolfcrypt\src/rsa.c ****     byte* dbMask;
 374:..\kronos-c-sdk\src\wolfSSL\wolfcrypt\src/rsa.c **** 
 375:..\kronos-c-sdk\src\wolfSSL\wolfcrypt\src/rsa.c ****     #ifdef WOLFSSL_SMALL_STACK
ARM GAS  C:\Users\ddemidov\AppData\Local\Temp\ccr947bU.s 			page 8


 376:..\kronos-c-sdk\src\wolfSSL\wolfcrypt\src/rsa.c ****         byte* lHash = NULL;
 377:..\kronos-c-sdk\src\wolfSSL\wolfcrypt\src/rsa.c ****         byte* seed  = NULL;
 378:..\kronos-c-sdk\src\wolfSSL\wolfcrypt\src/rsa.c ****     #else
 379:..\kronos-c-sdk\src\wolfSSL\wolfcrypt\src/rsa.c ****         /* must be large enough to contain largest hash */
 380:..\kronos-c-sdk\src\wolfSSL\wolfcrypt\src/rsa.c ****         byte lHash[WC_MAX_DIGEST_SIZE];
 381:..\kronos-c-sdk\src\wolfSSL\wolfcrypt\src/rsa.c ****         byte seed[ WC_MAX_DIGEST_SIZE];
 382:..\kronos-c-sdk\src\wolfSSL\wolfcrypt\src/rsa.c ****     #endif
 383:..\kronos-c-sdk\src\wolfSSL\wolfcrypt\src/rsa.c **** 
 384:..\kronos-c-sdk\src\wolfSSL\wolfcrypt\src/rsa.c ****     /* can use with no lable but catch if no lable provided while having
 385:..\kronos-c-sdk\src\wolfSSL\wolfcrypt\src/rsa.c ****        length > 0 */
 386:..\kronos-c-sdk\src\wolfSSL\wolfcrypt\src/rsa.c ****     if (optLabel == NULL && labelLen > 0) {
 387:..\kronos-c-sdk\src\wolfSSL\wolfcrypt\src/rsa.c ****         return BUFFER_E;
 388:..\kronos-c-sdk\src\wolfSSL\wolfcrypt\src/rsa.c ****     }
 389:..\kronos-c-sdk\src\wolfSSL\wolfcrypt\src/rsa.c **** 
 390:..\kronos-c-sdk\src\wolfSSL\wolfcrypt\src/rsa.c ****     /* limit of label is the same as limit of hash function which is massive */
 391:..\kronos-c-sdk\src\wolfSSL\wolfcrypt\src/rsa.c ****     hLen = wc_HashGetDigestSize(hType);
 392:..\kronos-c-sdk\src\wolfSSL\wolfcrypt\src/rsa.c ****     if (hLen < 0) {
 393:..\kronos-c-sdk\src\wolfSSL\wolfcrypt\src/rsa.c ****         return hLen;
 394:..\kronos-c-sdk\src\wolfSSL\wolfcrypt\src/rsa.c ****     }
 395:..\kronos-c-sdk\src\wolfSSL\wolfcrypt\src/rsa.c **** 
 396:..\kronos-c-sdk\src\wolfSSL\wolfcrypt\src/rsa.c ****     #ifdef WOLFSSL_SMALL_STACK
 397:..\kronos-c-sdk\src\wolfSSL\wolfcrypt\src/rsa.c ****         lHash = (byte*)XMALLOC(hLen, NULL, DYNAMIC_TYPE_TMP_BUFFER);
 398:..\kronos-c-sdk\src\wolfSSL\wolfcrypt\src/rsa.c ****         if (lHash == NULL) {
 399:..\kronos-c-sdk\src\wolfSSL\wolfcrypt\src/rsa.c ****             return MEMORY_E;
 400:..\kronos-c-sdk\src\wolfSSL\wolfcrypt\src/rsa.c ****         }
 401:..\kronos-c-sdk\src\wolfSSL\wolfcrypt\src/rsa.c ****         seed = (byte*)XMALLOC(hLen, NULL, DYNAMIC_TYPE_TMP_BUFFER);
 402:..\kronos-c-sdk\src\wolfSSL\wolfcrypt\src/rsa.c ****         if (seed == NULL) {
 403:..\kronos-c-sdk\src\wolfSSL\wolfcrypt\src/rsa.c ****             XFREE(lHash, NULL, DYNAMIC_TYPE_TMP_BUFFER);
 404:..\kronos-c-sdk\src\wolfSSL\wolfcrypt\src/rsa.c ****             return MEMORY_E;
 405:..\kronos-c-sdk\src\wolfSSL\wolfcrypt\src/rsa.c ****         }
 406:..\kronos-c-sdk\src\wolfSSL\wolfcrypt\src/rsa.c ****     #else
 407:..\kronos-c-sdk\src\wolfSSL\wolfcrypt\src/rsa.c ****         /* hLen should never be larger than lHash since size is max digest size,
 408:..\kronos-c-sdk\src\wolfSSL\wolfcrypt\src/rsa.c ****            but check before blindly calling wc_Hash */
 409:..\kronos-c-sdk\src\wolfSSL\wolfcrypt\src/rsa.c ****         if ((word32)hLen > sizeof(lHash)) {
 410:..\kronos-c-sdk\src\wolfSSL\wolfcrypt\src/rsa.c ****             WOLFSSL_MSG("OAEP lHash to small for digest!!");
 411:..\kronos-c-sdk\src\wolfSSL\wolfcrypt\src/rsa.c ****             return MEMORY_E;
 412:..\kronos-c-sdk\src\wolfSSL\wolfcrypt\src/rsa.c ****         }
 413:..\kronos-c-sdk\src\wolfSSL\wolfcrypt\src/rsa.c ****     #endif
 414:..\kronos-c-sdk\src\wolfSSL\wolfcrypt\src/rsa.c **** 
 415:..\kronos-c-sdk\src\wolfSSL\wolfcrypt\src/rsa.c ****     if ((ret = wc_Hash(hType, optLabel, labelLen,
 416:..\kronos-c-sdk\src\wolfSSL\wolfcrypt\src/rsa.c ****                                                   lHash, hLen)) != 0) {
 417:..\kronos-c-sdk\src\wolfSSL\wolfcrypt\src/rsa.c ****         WOLFSSL_MSG("OAEP hash type possibly not supported or lHash to small");
 418:..\kronos-c-sdk\src\wolfSSL\wolfcrypt\src/rsa.c ****         #ifdef WOLFSSL_SMALL_STACK
 419:..\kronos-c-sdk\src\wolfSSL\wolfcrypt\src/rsa.c ****             XFREE(lHash, NULL, DYNAMIC_TYPE_TMP_BUFFER);
 420:..\kronos-c-sdk\src\wolfSSL\wolfcrypt\src/rsa.c ****             XFREE(seed,  NULL, DYNAMIC_TYPE_TMP_BUFFER);
 421:..\kronos-c-sdk\src\wolfSSL\wolfcrypt\src/rsa.c ****         #endif
 422:..\kronos-c-sdk\src\wolfSSL\wolfcrypt\src/rsa.c ****         return ret;
 423:..\kronos-c-sdk\src\wolfSSL\wolfcrypt\src/rsa.c ****     }
 424:..\kronos-c-sdk\src\wolfSSL\wolfcrypt\src/rsa.c **** 
 425:..\kronos-c-sdk\src\wolfSSL\wolfcrypt\src/rsa.c ****     /* handles check of location for idx as well as psLen, cast to int to check
 426:..\kronos-c-sdk\src\wolfSSL\wolfcrypt\src/rsa.c ****        for pkcsBlockLen(k) - 2 * hLen - 2 being negative
 427:..\kronos-c-sdk\src\wolfSSL\wolfcrypt\src/rsa.c ****        This check is similar to decryption where k > 2 * hLen + 2 as msg
 428:..\kronos-c-sdk\src\wolfSSL\wolfcrypt\src/rsa.c ****        size aproaches 0. In decryption if k is less than or equal -- then there
 429:..\kronos-c-sdk\src\wolfSSL\wolfcrypt\src/rsa.c ****        is no possible room for msg.
 430:..\kronos-c-sdk\src\wolfSSL\wolfcrypt\src/rsa.c ****        k = RSA key size
 431:..\kronos-c-sdk\src\wolfSSL\wolfcrypt\src/rsa.c ****        hLen = hash digest size -- will always be >= 0 at this point
 432:..\kronos-c-sdk\src\wolfSSL\wolfcrypt\src/rsa.c ****      */
ARM GAS  C:\Users\ddemidov\AppData\Local\Temp\ccr947bU.s 			page 9


 433:..\kronos-c-sdk\src\wolfSSL\wolfcrypt\src/rsa.c ****     if ((word32)(2 * hLen + 2) > pkcsBlockLen) {
 434:..\kronos-c-sdk\src\wolfSSL\wolfcrypt\src/rsa.c ****         WOLFSSL_MSG("OAEP pad error hash to big for RSA key size");
 435:..\kronos-c-sdk\src\wolfSSL\wolfcrypt\src/rsa.c ****         #ifdef WOLFSSL_SMALL_STACK
 436:..\kronos-c-sdk\src\wolfSSL\wolfcrypt\src/rsa.c ****             XFREE(lHash, NULL, DYNAMIC_TYPE_TMP_BUFFER);
 437:..\kronos-c-sdk\src\wolfSSL\wolfcrypt\src/rsa.c ****             XFREE(seed,  NULL, DYNAMIC_TYPE_TMP_BUFFER);
 438:..\kronos-c-sdk\src\wolfSSL\wolfcrypt\src/rsa.c ****         #endif
 439:..\kronos-c-sdk\src\wolfSSL\wolfcrypt\src/rsa.c ****         return BAD_FUNC_ARG;
 440:..\kronos-c-sdk\src\wolfSSL\wolfcrypt\src/rsa.c ****     }
 441:..\kronos-c-sdk\src\wolfSSL\wolfcrypt\src/rsa.c **** 
 442:..\kronos-c-sdk\src\wolfSSL\wolfcrypt\src/rsa.c ****     if (inputLen > (pkcsBlockLen - 2 * hLen - 2)) {
 443:..\kronos-c-sdk\src\wolfSSL\wolfcrypt\src/rsa.c ****         WOLFSSL_MSG("OAEP pad error message too long");
 444:..\kronos-c-sdk\src\wolfSSL\wolfcrypt\src/rsa.c ****         #ifdef WOLFSSL_SMALL_STACK
 445:..\kronos-c-sdk\src\wolfSSL\wolfcrypt\src/rsa.c ****             XFREE(lHash, NULL, DYNAMIC_TYPE_TMP_BUFFER);
 446:..\kronos-c-sdk\src\wolfSSL\wolfcrypt\src/rsa.c ****             XFREE(seed,  NULL, DYNAMIC_TYPE_TMP_BUFFER);
 447:..\kronos-c-sdk\src\wolfSSL\wolfcrypt\src/rsa.c ****         #endif
 448:..\kronos-c-sdk\src\wolfSSL\wolfcrypt\src/rsa.c ****         return BAD_FUNC_ARG;
 449:..\kronos-c-sdk\src\wolfSSL\wolfcrypt\src/rsa.c ****     }
 450:..\kronos-c-sdk\src\wolfSSL\wolfcrypt\src/rsa.c **** 
 451:..\kronos-c-sdk\src\wolfSSL\wolfcrypt\src/rsa.c ****     /* concatenate lHash || PS || 0x01 || msg */
 452:..\kronos-c-sdk\src\wolfSSL\wolfcrypt\src/rsa.c ****     idx = pkcsBlockLen - 1 - inputLen;
 453:..\kronos-c-sdk\src\wolfSSL\wolfcrypt\src/rsa.c ****     psLen = pkcsBlockLen - inputLen - 2 * hLen - 2;
 454:..\kronos-c-sdk\src\wolfSSL\wolfcrypt\src/rsa.c ****     if (pkcsBlockLen < inputLen) { /*make sure not writing over end of buffer */
 455:..\kronos-c-sdk\src\wolfSSL\wolfcrypt\src/rsa.c ****         #ifdef WOLFSSL_SMALL_STACK
 456:..\kronos-c-sdk\src\wolfSSL\wolfcrypt\src/rsa.c ****             XFREE(lHash, NULL, DYNAMIC_TYPE_TMP_BUFFER);
 457:..\kronos-c-sdk\src\wolfSSL\wolfcrypt\src/rsa.c ****             XFREE(seed,  NULL, DYNAMIC_TYPE_TMP_BUFFER);
 458:..\kronos-c-sdk\src\wolfSSL\wolfcrypt\src/rsa.c ****         #endif
 459:..\kronos-c-sdk\src\wolfSSL\wolfcrypt\src/rsa.c ****         return BUFFER_E;
 460:..\kronos-c-sdk\src\wolfSSL\wolfcrypt\src/rsa.c ****     }
 461:..\kronos-c-sdk\src\wolfSSL\wolfcrypt\src/rsa.c ****     XMEMCPY(pkcsBlock + (pkcsBlockLen - inputLen), input, inputLen);
 462:..\kronos-c-sdk\src\wolfSSL\wolfcrypt\src/rsa.c ****     pkcsBlock[idx--] = 0x01; /* PS and M separator */
 463:..\kronos-c-sdk\src\wolfSSL\wolfcrypt\src/rsa.c ****     while (psLen > 0 && idx > 0) {
 464:..\kronos-c-sdk\src\wolfSSL\wolfcrypt\src/rsa.c ****         pkcsBlock[idx--] = 0x00;
 465:..\kronos-c-sdk\src\wolfSSL\wolfcrypt\src/rsa.c ****         psLen--;
 466:..\kronos-c-sdk\src\wolfSSL\wolfcrypt\src/rsa.c ****     }
 467:..\kronos-c-sdk\src\wolfSSL\wolfcrypt\src/rsa.c **** 
 468:..\kronos-c-sdk\src\wolfSSL\wolfcrypt\src/rsa.c ****     idx = idx - hLen + 1;
 469:..\kronos-c-sdk\src\wolfSSL\wolfcrypt\src/rsa.c ****     XMEMCPY(pkcsBlock + idx, lHash, hLen);
 470:..\kronos-c-sdk\src\wolfSSL\wolfcrypt\src/rsa.c **** 
 471:..\kronos-c-sdk\src\wolfSSL\wolfcrypt\src/rsa.c ****     /* generate random seed */
 472:..\kronos-c-sdk\src\wolfSSL\wolfcrypt\src/rsa.c ****     if ((ret = wc_RNG_GenerateBlock(rng, seed, hLen)) != 0) {
 473:..\kronos-c-sdk\src\wolfSSL\wolfcrypt\src/rsa.c ****         #ifdef WOLFSSL_SMALL_STACK
 474:..\kronos-c-sdk\src\wolfSSL\wolfcrypt\src/rsa.c ****             XFREE(lHash, NULL, DYNAMIC_TYPE_TMP_BUFFER);
 475:..\kronos-c-sdk\src\wolfSSL\wolfcrypt\src/rsa.c ****             XFREE(seed,  NULL, DYNAMIC_TYPE_TMP_BUFFER);
 476:..\kronos-c-sdk\src\wolfSSL\wolfcrypt\src/rsa.c ****         #endif
 477:..\kronos-c-sdk\src\wolfSSL\wolfcrypt\src/rsa.c ****         return ret;
 478:..\kronos-c-sdk\src\wolfSSL\wolfcrypt\src/rsa.c ****     }
 479:..\kronos-c-sdk\src\wolfSSL\wolfcrypt\src/rsa.c **** 
 480:..\kronos-c-sdk\src\wolfSSL\wolfcrypt\src/rsa.c ****     /* create maskedDB from dbMask */
 481:..\kronos-c-sdk\src\wolfSSL\wolfcrypt\src/rsa.c ****     dbMask = (byte*)XMALLOC(pkcsBlockLen - hLen - 1, NULL, DYNAMIC_TYPE_RSA);
 482:..\kronos-c-sdk\src\wolfSSL\wolfcrypt\src/rsa.c ****     if (dbMask == NULL) {
 483:..\kronos-c-sdk\src\wolfSSL\wolfcrypt\src/rsa.c ****         #ifdef WOLFSSL_SMALL_STACK
 484:..\kronos-c-sdk\src\wolfSSL\wolfcrypt\src/rsa.c ****             XFREE(lHash, NULL, DYNAMIC_TYPE_TMP_BUFFER);
 485:..\kronos-c-sdk\src\wolfSSL\wolfcrypt\src/rsa.c ****             XFREE(seed,  NULL, DYNAMIC_TYPE_TMP_BUFFER);
 486:..\kronos-c-sdk\src\wolfSSL\wolfcrypt\src/rsa.c ****         #endif
 487:..\kronos-c-sdk\src\wolfSSL\wolfcrypt\src/rsa.c ****         return MEMORY_E;
 488:..\kronos-c-sdk\src\wolfSSL\wolfcrypt\src/rsa.c ****     }
 489:..\kronos-c-sdk\src\wolfSSL\wolfcrypt\src/rsa.c ****     XMEMSET(dbMask, 0, pkcsBlockLen - hLen - 1); /* help static analyzer */
ARM GAS  C:\Users\ddemidov\AppData\Local\Temp\ccr947bU.s 			page 10


 490:..\kronos-c-sdk\src\wolfSSL\wolfcrypt\src/rsa.c **** 
 491:..\kronos-c-sdk\src\wolfSSL\wolfcrypt\src/rsa.c ****     ret = wc_MGF(mgf, seed, hLen, dbMask, pkcsBlockLen - hLen - 1);
 492:..\kronos-c-sdk\src\wolfSSL\wolfcrypt\src/rsa.c ****     if (ret != 0) {
 493:..\kronos-c-sdk\src\wolfSSL\wolfcrypt\src/rsa.c ****         XFREE(dbMask, NULL, DYNAMIC_TYPE_RSA);
 494:..\kronos-c-sdk\src\wolfSSL\wolfcrypt\src/rsa.c ****         #ifdef WOLFSSL_SMALL_STACK
 495:..\kronos-c-sdk\src\wolfSSL\wolfcrypt\src/rsa.c ****             XFREE(lHash, NULL, DYNAMIC_TYPE_TMP_BUFFER);
 496:..\kronos-c-sdk\src\wolfSSL\wolfcrypt\src/rsa.c ****             XFREE(seed,  NULL, DYNAMIC_TYPE_TMP_BUFFER);
 497:..\kronos-c-sdk\src\wolfSSL\wolfcrypt\src/rsa.c ****         #endif
 498:..\kronos-c-sdk\src\wolfSSL\wolfcrypt\src/rsa.c ****         return ret;
 499:..\kronos-c-sdk\src\wolfSSL\wolfcrypt\src/rsa.c ****     }
 500:..\kronos-c-sdk\src\wolfSSL\wolfcrypt\src/rsa.c **** 
 501:..\kronos-c-sdk\src\wolfSSL\wolfcrypt\src/rsa.c ****     i = 0;
 502:..\kronos-c-sdk\src\wolfSSL\wolfcrypt\src/rsa.c ****     idx = hLen + 1;
 503:..\kronos-c-sdk\src\wolfSSL\wolfcrypt\src/rsa.c ****     while (idx < pkcsBlockLen && (word32)i < (pkcsBlockLen - hLen -1)) {
 504:..\kronos-c-sdk\src\wolfSSL\wolfcrypt\src/rsa.c ****         pkcsBlock[idx] = dbMask[i++] ^ pkcsBlock[idx];
 505:..\kronos-c-sdk\src\wolfSSL\wolfcrypt\src/rsa.c ****         idx++;
 506:..\kronos-c-sdk\src\wolfSSL\wolfcrypt\src/rsa.c ****     }
 507:..\kronos-c-sdk\src\wolfSSL\wolfcrypt\src/rsa.c ****     XFREE(dbMask, NULL, DYNAMIC_TYPE_RSA);
 508:..\kronos-c-sdk\src\wolfSSL\wolfcrypt\src/rsa.c **** 
 509:..\kronos-c-sdk\src\wolfSSL\wolfcrypt\src/rsa.c **** 
 510:..\kronos-c-sdk\src\wolfSSL\wolfcrypt\src/rsa.c ****     /* create maskedSeed from seedMask */
 511:..\kronos-c-sdk\src\wolfSSL\wolfcrypt\src/rsa.c ****     idx = 0;
 512:..\kronos-c-sdk\src\wolfSSL\wolfcrypt\src/rsa.c ****     pkcsBlock[idx++] = 0x00;
 513:..\kronos-c-sdk\src\wolfSSL\wolfcrypt\src/rsa.c ****     /* create seedMask inline */
 514:..\kronos-c-sdk\src\wolfSSL\wolfcrypt\src/rsa.c ****     if ((ret = wc_MGF(mgf, pkcsBlock + hLen + 1, pkcsBlockLen - hLen - 1,
 515:..\kronos-c-sdk\src\wolfSSL\wolfcrypt\src/rsa.c ****                                                    pkcsBlock + 1, hLen)) != 0) {
 516:..\kronos-c-sdk\src\wolfSSL\wolfcrypt\src/rsa.c ****         #ifdef WOLFSSL_SMALL_STACK
 517:..\kronos-c-sdk\src\wolfSSL\wolfcrypt\src/rsa.c ****             XFREE(lHash, NULL, DYNAMIC_TYPE_TMP_BUFFER);
 518:..\kronos-c-sdk\src\wolfSSL\wolfcrypt\src/rsa.c ****             XFREE(seed,  NULL, DYNAMIC_TYPE_TMP_BUFFER);
 519:..\kronos-c-sdk\src\wolfSSL\wolfcrypt\src/rsa.c ****         #endif
 520:..\kronos-c-sdk\src\wolfSSL\wolfcrypt\src/rsa.c ****         return ret;
 521:..\kronos-c-sdk\src\wolfSSL\wolfcrypt\src/rsa.c ****     }
 522:..\kronos-c-sdk\src\wolfSSL\wolfcrypt\src/rsa.c **** 
 523:..\kronos-c-sdk\src\wolfSSL\wolfcrypt\src/rsa.c ****     /* xor created seedMask with seed to make maskedSeed */
 524:..\kronos-c-sdk\src\wolfSSL\wolfcrypt\src/rsa.c ****     i = 0;
 525:..\kronos-c-sdk\src\wolfSSL\wolfcrypt\src/rsa.c ****     while (idx < (word32)(hLen + 1) && i < hLen) {
 526:..\kronos-c-sdk\src\wolfSSL\wolfcrypt\src/rsa.c ****         pkcsBlock[idx] = pkcsBlock[idx] ^ seed[i++];
 527:..\kronos-c-sdk\src\wolfSSL\wolfcrypt\src/rsa.c ****         idx++;
 528:..\kronos-c-sdk\src\wolfSSL\wolfcrypt\src/rsa.c ****     }
 529:..\kronos-c-sdk\src\wolfSSL\wolfcrypt\src/rsa.c **** 
 530:..\kronos-c-sdk\src\wolfSSL\wolfcrypt\src/rsa.c ****     #ifdef WOLFSSL_SMALL_STACK
 531:..\kronos-c-sdk\src\wolfSSL\wolfcrypt\src/rsa.c ****         XFREE(lHash, NULL, DYNAMIC_TYPE_TMP_BUFFER);
 532:..\kronos-c-sdk\src\wolfSSL\wolfcrypt\src/rsa.c ****         XFREE(seed,  NULL, DYNAMIC_TYPE_TMP_BUFFER);
 533:..\kronos-c-sdk\src\wolfSSL\wolfcrypt\src/rsa.c ****     #endif
 534:..\kronos-c-sdk\src\wolfSSL\wolfcrypt\src/rsa.c ****     (void)padValue;
 535:..\kronos-c-sdk\src\wolfSSL\wolfcrypt\src/rsa.c **** 
 536:..\kronos-c-sdk\src\wolfSSL\wolfcrypt\src/rsa.c ****     return 0;
 537:..\kronos-c-sdk\src\wolfSSL\wolfcrypt\src/rsa.c **** }
 538:..\kronos-c-sdk\src\wolfSSL\wolfcrypt\src/rsa.c **** #endif /* WC_NO_RSA_OAEP */
 539:..\kronos-c-sdk\src\wolfSSL\wolfcrypt\src/rsa.c **** 
 540:..\kronos-c-sdk\src\wolfSSL\wolfcrypt\src/rsa.c **** 
 541:..\kronos-c-sdk\src\wolfSSL\wolfcrypt\src/rsa.c **** static int wc_RsaPad(const byte* input, word32 inputLen, byte* pkcsBlock,
 542:..\kronos-c-sdk\src\wolfSSL\wolfcrypt\src/rsa.c ****                    word32 pkcsBlockLen, byte padValue, WC_RNG* rng)
 543:..\kronos-c-sdk\src\wolfSSL\wolfcrypt\src/rsa.c **** {
 544:..\kronos-c-sdk\src\wolfSSL\wolfcrypt\src/rsa.c ****     if (inputLen == 0)
 545:..\kronos-c-sdk\src\wolfSSL\wolfcrypt\src/rsa.c ****         return 0;
 546:..\kronos-c-sdk\src\wolfSSL\wolfcrypt\src/rsa.c **** 
ARM GAS  C:\Users\ddemidov\AppData\Local\Temp\ccr947bU.s 			page 11


 547:..\kronos-c-sdk\src\wolfSSL\wolfcrypt\src/rsa.c ****     pkcsBlock[0] = 0x0;       /* set first byte to zero and advance */
 548:..\kronos-c-sdk\src\wolfSSL\wolfcrypt\src/rsa.c ****     pkcsBlock++; pkcsBlockLen--;
 549:..\kronos-c-sdk\src\wolfSSL\wolfcrypt\src/rsa.c ****     pkcsBlock[0] = padValue;  /* insert padValue */
 550:..\kronos-c-sdk\src\wolfSSL\wolfcrypt\src/rsa.c **** 
 551:..\kronos-c-sdk\src\wolfSSL\wolfcrypt\src/rsa.c ****     if (padValue == RSA_BLOCK_TYPE_1)
 552:..\kronos-c-sdk\src\wolfSSL\wolfcrypt\src/rsa.c ****         /* pad with 0xff bytes */
 553:..\kronos-c-sdk\src\wolfSSL\wolfcrypt\src/rsa.c ****         XMEMSET(&pkcsBlock[1], 0xFF, pkcsBlockLen - inputLen - 2);
 554:..\kronos-c-sdk\src\wolfSSL\wolfcrypt\src/rsa.c ****     else {
 555:..\kronos-c-sdk\src\wolfSSL\wolfcrypt\src/rsa.c ****         /* pad with non-zero random bytes */
 556:..\kronos-c-sdk\src\wolfSSL\wolfcrypt\src/rsa.c ****         word32 padLen = pkcsBlockLen - inputLen - 1, i;
 557:..\kronos-c-sdk\src\wolfSSL\wolfcrypt\src/rsa.c ****         int    ret    = wc_RNG_GenerateBlock(rng, &pkcsBlock[1], padLen);
 558:..\kronos-c-sdk\src\wolfSSL\wolfcrypt\src/rsa.c **** 
 559:..\kronos-c-sdk\src\wolfSSL\wolfcrypt\src/rsa.c ****         if (ret != 0)
 560:..\kronos-c-sdk\src\wolfSSL\wolfcrypt\src/rsa.c ****             return ret;
 561:..\kronos-c-sdk\src\wolfSSL\wolfcrypt\src/rsa.c **** 
 562:..\kronos-c-sdk\src\wolfSSL\wolfcrypt\src/rsa.c ****         /* remove zeros */
 563:..\kronos-c-sdk\src\wolfSSL\wolfcrypt\src/rsa.c ****         for (i = 1; i < padLen; i++)
 564:..\kronos-c-sdk\src\wolfSSL\wolfcrypt\src/rsa.c ****             if (pkcsBlock[i] == 0) pkcsBlock[i] = 0x01;
 565:..\kronos-c-sdk\src\wolfSSL\wolfcrypt\src/rsa.c ****     }
 566:..\kronos-c-sdk\src\wolfSSL\wolfcrypt\src/rsa.c **** 
 567:..\kronos-c-sdk\src\wolfSSL\wolfcrypt\src/rsa.c ****     pkcsBlock[pkcsBlockLen-inputLen-1] = 0;     /* separator */
 568:..\kronos-c-sdk\src\wolfSSL\wolfcrypt\src/rsa.c ****     XMEMCPY(pkcsBlock+pkcsBlockLen-inputLen, input, inputLen);
 569:..\kronos-c-sdk\src\wolfSSL\wolfcrypt\src/rsa.c **** 
 570:..\kronos-c-sdk\src\wolfSSL\wolfcrypt\src/rsa.c ****     return 0;
 571:..\kronos-c-sdk\src\wolfSSL\wolfcrypt\src/rsa.c **** }
 572:..\kronos-c-sdk\src\wolfSSL\wolfcrypt\src/rsa.c **** 
 573:..\kronos-c-sdk\src\wolfSSL\wolfcrypt\src/rsa.c **** 
 574:..\kronos-c-sdk\src\wolfSSL\wolfcrypt\src/rsa.c **** #ifndef WC_NO_RSA_OAEP
 575:..\kronos-c-sdk\src\wolfSSL\wolfcrypt\src/rsa.c **** /* helper function to direct which padding is used */
 576:..\kronos-c-sdk\src\wolfSSL\wolfcrypt\src/rsa.c **** static int wc_RsaPad_ex(const byte* input, word32 inputLen, byte* pkcsBlock,
 577:..\kronos-c-sdk\src\wolfSSL\wolfcrypt\src/rsa.c ****                word32 pkcsBlockLen, byte padValue, WC_RNG* rng, int padType,
 578:..\kronos-c-sdk\src\wolfSSL\wolfcrypt\src/rsa.c ****                enum wc_HashType hType, int mgf, byte* optLabel, word32 labelLen)
 579:..\kronos-c-sdk\src\wolfSSL\wolfcrypt\src/rsa.c **** {
 580:..\kronos-c-sdk\src\wolfSSL\wolfcrypt\src/rsa.c ****     int ret;
 581:..\kronos-c-sdk\src\wolfSSL\wolfcrypt\src/rsa.c **** 
 582:..\kronos-c-sdk\src\wolfSSL\wolfcrypt\src/rsa.c ****     switch (padType)
 583:..\kronos-c-sdk\src\wolfSSL\wolfcrypt\src/rsa.c ****     {
 584:..\kronos-c-sdk\src\wolfSSL\wolfcrypt\src/rsa.c ****         case WC_RSA_PKCSV15_PAD:
 585:..\kronos-c-sdk\src\wolfSSL\wolfcrypt\src/rsa.c ****             WOLFSSL_MSG("wolfSSL Using RSA PKCSV15 padding");
 586:..\kronos-c-sdk\src\wolfSSL\wolfcrypt\src/rsa.c ****             ret = wc_RsaPad(input, inputLen, pkcsBlock, pkcsBlockLen,
 587:..\kronos-c-sdk\src\wolfSSL\wolfcrypt\src/rsa.c ****                                                                  padValue, rng);
 588:..\kronos-c-sdk\src\wolfSSL\wolfcrypt\src/rsa.c ****             break;
 589:..\kronos-c-sdk\src\wolfSSL\wolfcrypt\src/rsa.c **** 
 590:..\kronos-c-sdk\src\wolfSSL\wolfcrypt\src/rsa.c ****         case WC_RSA_OAEP_PAD:
 591:..\kronos-c-sdk\src\wolfSSL\wolfcrypt\src/rsa.c ****             WOLFSSL_MSG("wolfSSL Using RSA OAEP padding");
 592:..\kronos-c-sdk\src\wolfSSL\wolfcrypt\src/rsa.c ****             ret = wc_RsaPad_OAEP(input, inputLen, pkcsBlock, pkcsBlockLen,
 593:..\kronos-c-sdk\src\wolfSSL\wolfcrypt\src/rsa.c ****                              padValue, rng, hType, mgf, optLabel, labelLen);
 594:..\kronos-c-sdk\src\wolfSSL\wolfcrypt\src/rsa.c ****             break;
 595:..\kronos-c-sdk\src\wolfSSL\wolfcrypt\src/rsa.c **** 
 596:..\kronos-c-sdk\src\wolfSSL\wolfcrypt\src/rsa.c ****         default:
 597:..\kronos-c-sdk\src\wolfSSL\wolfcrypt\src/rsa.c ****             WOLFSSL_MSG("Unknown RSA Pad Type");
 598:..\kronos-c-sdk\src\wolfSSL\wolfcrypt\src/rsa.c ****             ret = RSA_PAD_E;
 599:..\kronos-c-sdk\src\wolfSSL\wolfcrypt\src/rsa.c ****     }
 600:..\kronos-c-sdk\src\wolfSSL\wolfcrypt\src/rsa.c **** 
 601:..\kronos-c-sdk\src\wolfSSL\wolfcrypt\src/rsa.c ****     /* silence warning if not used with padding scheme */
 602:..\kronos-c-sdk\src\wolfSSL\wolfcrypt\src/rsa.c ****     (void)padType;
 603:..\kronos-c-sdk\src\wolfSSL\wolfcrypt\src/rsa.c ****     (void)hType;
ARM GAS  C:\Users\ddemidov\AppData\Local\Temp\ccr947bU.s 			page 12


 604:..\kronos-c-sdk\src\wolfSSL\wolfcrypt\src/rsa.c ****     (void)mgf;
 605:..\kronos-c-sdk\src\wolfSSL\wolfcrypt\src/rsa.c ****     (void)optLabel;
 606:..\kronos-c-sdk\src\wolfSSL\wolfcrypt\src/rsa.c ****     (void)labelLen;
 607:..\kronos-c-sdk\src\wolfSSL\wolfcrypt\src/rsa.c **** 
 608:..\kronos-c-sdk\src\wolfSSL\wolfcrypt\src/rsa.c ****     return ret;
 609:..\kronos-c-sdk\src\wolfSSL\wolfcrypt\src/rsa.c **** }
 610:..\kronos-c-sdk\src\wolfSSL\wolfcrypt\src/rsa.c **** 
 611:..\kronos-c-sdk\src\wolfSSL\wolfcrypt\src/rsa.c **** 
 612:..\kronos-c-sdk\src\wolfSSL\wolfcrypt\src/rsa.c **** /* UnPad plaintext, set start to *output, return length of plaintext,
 613:..\kronos-c-sdk\src\wolfSSL\wolfcrypt\src/rsa.c ****  * < 0 on error */
 614:..\kronos-c-sdk\src\wolfSSL\wolfcrypt\src/rsa.c **** static int wc_RsaUnPad_OAEP(byte *pkcsBlock, unsigned int pkcsBlockLen,
 615:..\kronos-c-sdk\src\wolfSSL\wolfcrypt\src/rsa.c ****                             byte **output, enum wc_HashType hType, int mgf,
 616:..\kronos-c-sdk\src\wolfSSL\wolfcrypt\src/rsa.c ****                             byte* optLabel, word32 labelLen)
 617:..\kronos-c-sdk\src\wolfSSL\wolfcrypt\src/rsa.c **** {
 618:..\kronos-c-sdk\src\wolfSSL\wolfcrypt\src/rsa.c ****     int hLen;
 619:..\kronos-c-sdk\src\wolfSSL\wolfcrypt\src/rsa.c ****     int ret;
 620:..\kronos-c-sdk\src\wolfSSL\wolfcrypt\src/rsa.c ****     byte h[WC_MAX_DIGEST_SIZE]; /* max digest size */
 621:..\kronos-c-sdk\src\wolfSSL\wolfcrypt\src/rsa.c ****     byte* tmp;
 622:..\kronos-c-sdk\src\wolfSSL\wolfcrypt\src/rsa.c ****     word32 idx;
 623:..\kronos-c-sdk\src\wolfSSL\wolfcrypt\src/rsa.c **** 
 624:..\kronos-c-sdk\src\wolfSSL\wolfcrypt\src/rsa.c ****     hLen = wc_HashGetDigestSize(hType);
 625:..\kronos-c-sdk\src\wolfSSL\wolfcrypt\src/rsa.c ****     if ((hLen < 0) || (pkcsBlockLen < (2 * (word32)hLen + 2))) {
 626:..\kronos-c-sdk\src\wolfSSL\wolfcrypt\src/rsa.c ****         return BAD_FUNC_ARG;
 627:..\kronos-c-sdk\src\wolfSSL\wolfcrypt\src/rsa.c ****     }
 628:..\kronos-c-sdk\src\wolfSSL\wolfcrypt\src/rsa.c **** 
 629:..\kronos-c-sdk\src\wolfSSL\wolfcrypt\src/rsa.c ****     tmp = (byte*)XMALLOC(pkcsBlockLen, NULL, DYNAMIC_TYPE_TMP_BUFFER);
 630:..\kronos-c-sdk\src\wolfSSL\wolfcrypt\src/rsa.c ****     if (tmp == NULL) {
 631:..\kronos-c-sdk\src\wolfSSL\wolfcrypt\src/rsa.c ****         return MEMORY_E;
 632:..\kronos-c-sdk\src\wolfSSL\wolfcrypt\src/rsa.c ****     }
 633:..\kronos-c-sdk\src\wolfSSL\wolfcrypt\src/rsa.c ****     XMEMSET(tmp, 0, pkcsBlockLen);
 634:..\kronos-c-sdk\src\wolfSSL\wolfcrypt\src/rsa.c **** 
 635:..\kronos-c-sdk\src\wolfSSL\wolfcrypt\src/rsa.c ****     /* find seedMask value */
 636:..\kronos-c-sdk\src\wolfSSL\wolfcrypt\src/rsa.c ****     if ((ret = wc_MGF(mgf, (byte*)(pkcsBlock + (hLen + 1)),
 637:..\kronos-c-sdk\src\wolfSSL\wolfcrypt\src/rsa.c ****                                     pkcsBlockLen - hLen - 1, tmp, hLen)) != 0) {
 638:..\kronos-c-sdk\src\wolfSSL\wolfcrypt\src/rsa.c ****         XFREE(tmp, NULL, DYNAMIC_TYPE_TMP_BUFFER);
 639:..\kronos-c-sdk\src\wolfSSL\wolfcrypt\src/rsa.c ****         return ret;
 640:..\kronos-c-sdk\src\wolfSSL\wolfcrypt\src/rsa.c ****     }
 641:..\kronos-c-sdk\src\wolfSSL\wolfcrypt\src/rsa.c **** 
 642:..\kronos-c-sdk\src\wolfSSL\wolfcrypt\src/rsa.c ****     /* xor seedMask value with maskedSeed to get seed value */
 643:..\kronos-c-sdk\src\wolfSSL\wolfcrypt\src/rsa.c ****     for (idx = 0; idx < (word32)hLen; idx++) {
 644:..\kronos-c-sdk\src\wolfSSL\wolfcrypt\src/rsa.c ****         tmp[idx] = tmp[idx] ^ pkcsBlock[1 + idx];
 645:..\kronos-c-sdk\src\wolfSSL\wolfcrypt\src/rsa.c ****     }
 646:..\kronos-c-sdk\src\wolfSSL\wolfcrypt\src/rsa.c **** 
 647:..\kronos-c-sdk\src\wolfSSL\wolfcrypt\src/rsa.c ****     /* get dbMask value */
 648:..\kronos-c-sdk\src\wolfSSL\wolfcrypt\src/rsa.c ****     if ((ret = wc_MGF(mgf, tmp, hLen, tmp + hLen,
 649:..\kronos-c-sdk\src\wolfSSL\wolfcrypt\src/rsa.c ****                                                pkcsBlockLen - hLen - 1)) != 0) {
 650:..\kronos-c-sdk\src\wolfSSL\wolfcrypt\src/rsa.c ****         XFREE(tmp, NULL, DYNAMIC_TYPE_TMP_BUFFER);
 651:..\kronos-c-sdk\src\wolfSSL\wolfcrypt\src/rsa.c ****         return ret;
 652:..\kronos-c-sdk\src\wolfSSL\wolfcrypt\src/rsa.c ****     }
 653:..\kronos-c-sdk\src\wolfSSL\wolfcrypt\src/rsa.c **** 
 654:..\kronos-c-sdk\src\wolfSSL\wolfcrypt\src/rsa.c ****     /* get DB value by doing maskedDB xor dbMask */
 655:..\kronos-c-sdk\src\wolfSSL\wolfcrypt\src/rsa.c ****     for (idx = 0; idx < (pkcsBlockLen - hLen - 1); idx++) {
 656:..\kronos-c-sdk\src\wolfSSL\wolfcrypt\src/rsa.c ****         pkcsBlock[hLen + 1 + idx] = pkcsBlock[hLen + 1 + idx] ^ tmp[idx + hLen];
 657:..\kronos-c-sdk\src\wolfSSL\wolfcrypt\src/rsa.c ****     }
 658:..\kronos-c-sdk\src\wolfSSL\wolfcrypt\src/rsa.c **** 
 659:..\kronos-c-sdk\src\wolfSSL\wolfcrypt\src/rsa.c ****     /* done with use of tmp buffer */
 660:..\kronos-c-sdk\src\wolfSSL\wolfcrypt\src/rsa.c ****     XFREE(tmp, NULL, DYNAMIC_TYPE_TMP_BUFFER);
ARM GAS  C:\Users\ddemidov\AppData\Local\Temp\ccr947bU.s 			page 13


 661:..\kronos-c-sdk\src\wolfSSL\wolfcrypt\src/rsa.c **** 
 662:..\kronos-c-sdk\src\wolfSSL\wolfcrypt\src/rsa.c ****     /* advance idx to index of PS and msg separator */
 663:..\kronos-c-sdk\src\wolfSSL\wolfcrypt\src/rsa.c ****     idx = hLen + 2 + hLen;
 664:..\kronos-c-sdk\src\wolfSSL\wolfcrypt\src/rsa.c ****     while (idx < pkcsBlockLen && pkcsBlock[idx] == 0) {idx++;}
 665:..\kronos-c-sdk\src\wolfSSL\wolfcrypt\src/rsa.c **** 
 666:..\kronos-c-sdk\src\wolfSSL\wolfcrypt\src/rsa.c ****     /* create hash of label for comparision with hash sent */
 667:..\kronos-c-sdk\src\wolfSSL\wolfcrypt\src/rsa.c ****     if ((ret = wc_Hash(hType, optLabel, labelLen, h, hLen)) != 0) {
 668:..\kronos-c-sdk\src\wolfSSL\wolfcrypt\src/rsa.c ****         return ret;
 669:..\kronos-c-sdk\src\wolfSSL\wolfcrypt\src/rsa.c ****     }
 670:..\kronos-c-sdk\src\wolfSSL\wolfcrypt\src/rsa.c **** 
 671:..\kronos-c-sdk\src\wolfSSL\wolfcrypt\src/rsa.c ****     /* say no to chosen ciphertext attack.
 672:..\kronos-c-sdk\src\wolfSSL\wolfcrypt\src/rsa.c ****        Comparison of lHash, Y, and separator value needs to all happen in
 673:..\kronos-c-sdk\src\wolfSSL\wolfcrypt\src/rsa.c ****        constant time.
 674:..\kronos-c-sdk\src\wolfSSL\wolfcrypt\src/rsa.c ****        Attackers should not be able to get error condition from the timing of
 675:..\kronos-c-sdk\src\wolfSSL\wolfcrypt\src/rsa.c ****        these checks.
 676:..\kronos-c-sdk\src\wolfSSL\wolfcrypt\src/rsa.c ****      */
 677:..\kronos-c-sdk\src\wolfSSL\wolfcrypt\src/rsa.c ****     ret = 0;
 678:..\kronos-c-sdk\src\wolfSSL\wolfcrypt\src/rsa.c ****     ret |= ConstantCompare(pkcsBlock + hLen + 1, h, hLen);
 679:..\kronos-c-sdk\src\wolfSSL\wolfcrypt\src/rsa.c ****     ret += pkcsBlock[idx++] ^ 0x01; /* separator value is 0x01 */
 680:..\kronos-c-sdk\src\wolfSSL\wolfcrypt\src/rsa.c ****     ret += pkcsBlock[0]     ^ 0x00; /* Y, the first value, should be 0 */
 681:..\kronos-c-sdk\src\wolfSSL\wolfcrypt\src/rsa.c **** 
 682:..\kronos-c-sdk\src\wolfSSL\wolfcrypt\src/rsa.c ****     if (ret != 0) {
 683:..\kronos-c-sdk\src\wolfSSL\wolfcrypt\src/rsa.c ****         return BAD_PADDING_E;
 684:..\kronos-c-sdk\src\wolfSSL\wolfcrypt\src/rsa.c ****     }
 685:..\kronos-c-sdk\src\wolfSSL\wolfcrypt\src/rsa.c **** 
 686:..\kronos-c-sdk\src\wolfSSL\wolfcrypt\src/rsa.c ****     /* adjust pointer to correct location in array and return size of M */
 687:..\kronos-c-sdk\src\wolfSSL\wolfcrypt\src/rsa.c ****     *output = (byte*)(pkcsBlock + idx);
 688:..\kronos-c-sdk\src\wolfSSL\wolfcrypt\src/rsa.c ****     return pkcsBlockLen - idx;
 689:..\kronos-c-sdk\src\wolfSSL\wolfcrypt\src/rsa.c **** }
 690:..\kronos-c-sdk\src\wolfSSL\wolfcrypt\src/rsa.c **** #endif /* WC_NO_RSA_OAEP */
 691:..\kronos-c-sdk\src\wolfSSL\wolfcrypt\src/rsa.c **** 
 692:..\kronos-c-sdk\src\wolfSSL\wolfcrypt\src/rsa.c **** 
 693:..\kronos-c-sdk\src\wolfSSL\wolfcrypt\src/rsa.c **** /* UnPad plaintext, set start to *output, return length of plaintext,
 694:..\kronos-c-sdk\src\wolfSSL\wolfcrypt\src/rsa.c ****  * < 0 on error */
 695:..\kronos-c-sdk\src\wolfSSL\wolfcrypt\src/rsa.c **** static int RsaUnPad(const byte *pkcsBlock, unsigned int pkcsBlockLen,
 696:..\kronos-c-sdk\src\wolfSSL\wolfcrypt\src/rsa.c ****                        byte **output, byte padValue)
 697:..\kronos-c-sdk\src\wolfSSL\wolfcrypt\src/rsa.c **** {
  25              		.loc 1 697 0
  26              		.cfi_startproc
  27              	.LVL0:
  28 0000 F0B5     		push	{r4, r5, r6, r7, lr}
  29              		.cfi_def_cfa_offset 20
  30              		.cfi_offset 4, -20
  31              		.cfi_offset 5, -16
  32              		.cfi_offset 6, -12
  33              		.cfi_offset 7, -8
  34              		.cfi_offset 14, -4
 698:..\kronos-c-sdk\src\wolfSSL\wolfcrypt\src/rsa.c ****     word32 maxOutputLen = (pkcsBlockLen > 10) ? (pkcsBlockLen - 10) : 0,
  35              		.loc 1 698 0
  36 0002 0A29     		cmp	r1, #10
  37 0004 02D9     		bls	.L11
  38              		.loc 1 698 0 is_stmt 0 discriminator 1
  39 0006 0F1C     		mov	r7, r1
  40 0008 0A3F     		sub	r7, r7, #10
  41 000a 00E0     		b	.L2
  42              	.L11:
  43              		.loc 1 698 0
ARM GAS  C:\Users\ddemidov\AppData\Local\Temp\ccr947bU.s 			page 14


  44 000c 0027     		mov	r7, #0
  45              	.L2:
  46              	.LVL1:
 699:..\kronos-c-sdk\src\wolfSSL\wolfcrypt\src/rsa.c ****            invalid = 0,
 700:..\kronos-c-sdk\src\wolfSSL\wolfcrypt\src/rsa.c ****            i = 1,
 701:..\kronos-c-sdk\src\wolfSSL\wolfcrypt\src/rsa.c ****            outputLen;
 702:..\kronos-c-sdk\src\wolfSSL\wolfcrypt\src/rsa.c **** 
 703:..\kronos-c-sdk\src\wolfSSL\wolfcrypt\src/rsa.c ****     if (pkcsBlock[0] != 0x0) /* skip past zero */
  47              		.loc 1 703 0 is_stmt 1 discriminator 4
  48 000e 0478     		ldrb	r4, [r0]
  49 0010 002C     		cmp	r4, #0
  50 0012 00D0     		beq	.L3
 704:..\kronos-c-sdk\src\wolfSSL\wolfcrypt\src/rsa.c ****         invalid = 1;
  51              		.loc 1 704 0
  52 0014 0124     		mov	r4, #1
  53              	.L3:
  54              	.LVL2:
 705:..\kronos-c-sdk\src\wolfSSL\wolfcrypt\src/rsa.c ****     pkcsBlock++; pkcsBlockLen--;
  55              		.loc 1 705 0
  56 0016 451C     		add	r5, r0, #1
  57              	.LVL3:
  58 0018 0139     		sub	r1, r1, #1
  59              	.LVL4:
 706:..\kronos-c-sdk\src\wolfSSL\wolfcrypt\src/rsa.c **** 
 707:..\kronos-c-sdk\src\wolfSSL\wolfcrypt\src/rsa.c ****     /* Require block type padValue */
 708:..\kronos-c-sdk\src\wolfSSL\wolfcrypt\src/rsa.c ****     invalid = (pkcsBlock[0] != padValue) || invalid;
  60              		.loc 1 708 0
  61 001a 4078     		ldrb	r0, [r0, #1]
  62 001c 9842     		cmp	r0, r3
  63 001e 03D1     		bne	.L13
  64              		.loc 1 708 0 is_stmt 0 discriminator 2
  65 0020 002C     		cmp	r4, #0
  66 0022 03D0     		beq	.L14
  67              		.loc 1 708 0
  68 0024 0126     		mov	r6, #1
  69 0026 02E0     		b	.L4
  70              	.L13:
  71 0028 0126     		mov	r6, #1
  72 002a 00E0     		b	.L4
  73              	.L14:
  74 002c 0026     		mov	r6, #0
  75              	.L4:
  76              	.LVL5:
 709:..\kronos-c-sdk\src\wolfSSL\wolfcrypt\src/rsa.c **** 
 710:..\kronos-c-sdk\src\wolfSSL\wolfcrypt\src/rsa.c ****     /* verify the padding until we find the separator */
 711:..\kronos-c-sdk\src\wolfSSL\wolfcrypt\src/rsa.c ****     if (padValue == RSA_BLOCK_TYPE_1) {
  77              		.loc 1 711 0 is_stmt 1 discriminator 6
  78 002e 012B     		cmp	r3, #1
  79 0030 09D1     		bne	.L15
  80 0032 00E0     		b	.L7
  81              	.LVL6:
  82              	.L16:
 712:..\kronos-c-sdk\src\wolfSSL\wolfcrypt\src/rsa.c ****         while (i<pkcsBlockLen && pkcsBlock[i++] == 0xFF) {/* Null body */}
  83              		.loc 1 712 0
  84 0034 231C     		mov	r3, r4
  85              	.LVL7:
  86              	.L7:
ARM GAS  C:\Users\ddemidov\AppData\Local\Temp\ccr947bU.s 			page 15


  87              		.loc 1 712 0 is_stmt 0 discriminator 2
  88 0036 8B42     		cmp	r3, r1
  89 0038 0FD2     		bcs	.L6
  90              		.loc 1 712 0 discriminator 1
  91 003a 5C1C     		add	r4, r3, #1
  92              	.LVL8:
  93 003c E85C     		ldrb	r0, [r5, r3]
  94 003e FF28     		cmp	r0, #255
  95 0040 F8D0     		beq	.L16
  96              		.loc 1 712 0
  97 0042 231C     		mov	r3, r4
  98 0044 09E0     		b	.L6
  99              	.LVL9:
 100              	.L15:
 101 0046 0123     		mov	r3, #1
 102              	.LVL10:
 103 0048 00E0     		b	.L5
 104              	.LVL11:
 105              	.L17:
 713:..\kronos-c-sdk\src\wolfSSL\wolfcrypt\src/rsa.c ****     }
 714:..\kronos-c-sdk\src\wolfSSL\wolfcrypt\src/rsa.c ****     else {
 715:..\kronos-c-sdk\src\wolfSSL\wolfcrypt\src/rsa.c ****         while (i<pkcsBlockLen && pkcsBlock[i++]) {/* Null body */}
 106              		.loc 1 715 0 is_stmt 1
 107 004a 031C     		mov	r3, r0
 108              	.LVL12:
 109              	.L5:
 110              		.loc 1 715 0 is_stmt 0 discriminator 2
 111 004c 8B42     		cmp	r3, r1
 112 004e 04D2     		bcs	.L6
 113              		.loc 1 715 0 discriminator 1
 114 0050 581C     		add	r0, r3, #1
 115              	.LVL13:
 116 0052 EC5C     		ldrb	r4, [r5, r3]
 117 0054 002C     		cmp	r4, #0
 118 0056 F8D1     		bne	.L17
 119              		.loc 1 715 0
 120 0058 031C     		mov	r3, r0
 121              	.LVL14:
 122              	.L6:
 716:..\kronos-c-sdk\src\wolfSSL\wolfcrypt\src/rsa.c ****     }
 717:..\kronos-c-sdk\src\wolfSSL\wolfcrypt\src/rsa.c **** 
 718:..\kronos-c-sdk\src\wolfSSL\wolfcrypt\src/rsa.c ****     if(!(i==pkcsBlockLen || pkcsBlock[i-1]==0)) {
 123              		.loc 1 718 0 is_stmt 1
 124 005a 8B42     		cmp	r3, r1
 125 005c 04D0     		beq	.L8
 126              		.loc 1 718 0 is_stmt 0 discriminator 1
 127 005e E818     		add	r0, r5, r3
 128 0060 0138     		sub	r0, r0, #1
 129 0062 0078     		ldrb	r0, [r0]
 130 0064 0028     		cmp	r0, #0
 131 0066 0CD1     		bne	.L18
 132              	.L8:
 719:..\kronos-c-sdk\src\wolfSSL\wolfcrypt\src/rsa.c ****         WOLFSSL_MSG("RsaUnPad error, bad formatting");
 720:..\kronos-c-sdk\src\wolfSSL\wolfcrypt\src/rsa.c ****         return RSA_PAD_E;
 721:..\kronos-c-sdk\src\wolfSSL\wolfcrypt\src/rsa.c ****     }
 722:..\kronos-c-sdk\src\wolfSSL\wolfcrypt\src/rsa.c **** 
 723:..\kronos-c-sdk\src\wolfSSL\wolfcrypt\src/rsa.c ****     outputLen = pkcsBlockLen - i;
ARM GAS  C:\Users\ddemidov\AppData\Local\Temp\ccr947bU.s 			page 16


 133              		.loc 1 723 0 is_stmt 1
 134 0068 C81A     		sub	r0, r1, r3
 135              	.LVL15:
 724:..\kronos-c-sdk\src\wolfSSL\wolfcrypt\src/rsa.c ****     invalid = (outputLen > maxOutputLen) || invalid;
 136              		.loc 1 724 0
 137 006a 8742     		cmp	r7, r0
 138 006c 03D3     		bcc	.L19
 139              		.loc 1 724 0 is_stmt 0 discriminator 2
 140 006e 002E     		cmp	r6, #0
 141 0070 02D0     		beq	.L10
 142              		.loc 1 724 0
 143 0072 0126     		mov	r6, #1
 144              	.LVL16:
 145 0074 00E0     		b	.L10
 146              	.LVL17:
 147              	.L19:
 148 0076 0126     		mov	r6, #1
 149              	.LVL18:
 150              	.L10:
 725:..\kronos-c-sdk\src\wolfSSL\wolfcrypt\src/rsa.c **** 
 726:..\kronos-c-sdk\src\wolfSSL\wolfcrypt\src/rsa.c ****     if (invalid) {
 151              		.loc 1 726 0 is_stmt 1 discriminator 6
 152 0078 002E     		cmp	r6, #0
 153 007a 05D1     		bne	.L20
 727:..\kronos-c-sdk\src\wolfSSL\wolfcrypt\src/rsa.c ****         WOLFSSL_MSG("RsaUnPad error, bad formatting");
 728:..\kronos-c-sdk\src\wolfSSL\wolfcrypt\src/rsa.c ****         return RSA_PAD_E;
 729:..\kronos-c-sdk\src\wolfSSL\wolfcrypt\src/rsa.c ****     }
 730:..\kronos-c-sdk\src\wolfSSL\wolfcrypt\src/rsa.c **** 
 731:..\kronos-c-sdk\src\wolfSSL\wolfcrypt\src/rsa.c ****     *output = (byte *)(pkcsBlock + i);
 154              		.loc 1 731 0
 155 007c EB18     		add	r3, r5, r3
 156              	.LVL19:
 157 007e 1360     		str	r3, [r2]
 732:..\kronos-c-sdk\src\wolfSSL\wolfcrypt\src/rsa.c ****     return outputLen;
 158              		.loc 1 732 0
 159 0080 04E0     		b	.L9
 160              	.LVL20:
 161              	.L18:
 720:..\kronos-c-sdk\src\wolfSSL\wolfcrypt\src/rsa.c ****     }
 162              		.loc 1 720 0
 163 0082 C920     		mov	r0, #201
 164 0084 4042     		neg	r0, r0
 165 0086 01E0     		b	.L9
 166              	.LVL21:
 167              	.L20:
 728:..\kronos-c-sdk\src\wolfSSL\wolfcrypt\src/rsa.c ****     }
 168              		.loc 1 728 0
 169 0088 C920     		mov	r0, #201
 170              	.LVL22:
 171 008a 4042     		neg	r0, r0
 172              	.LVL23:
 173              	.L9:
 733:..\kronos-c-sdk\src\wolfSSL\wolfcrypt\src/rsa.c **** }
 174              		.loc 1 733 0
 175              		@ sp needed
 176              	.LVL24:
 177              	.LVL25:
ARM GAS  C:\Users\ddemidov\AppData\Local\Temp\ccr947bU.s 			page 17


 178              	.LVL26:
 179 008c F0BD     		pop	{r4, r5, r6, r7, pc}
 180              		.cfi_endproc
 181              	.LFE20:
 182              		.size	RsaUnPad, .-RsaUnPad
 183 008e C046     		.section	.text.wc_RsaPad,"ax",%progbits
 184              		.align	2
 185              		.code	16
 186              		.thumb_func
 187              		.type	wc_RsaPad, %function
 188              	wc_RsaPad:
 189              	.LFB17:
 543:..\kronos-c-sdk\src\wolfSSL\wolfcrypt\src/rsa.c ****     if (inputLen == 0)
 190              		.loc 1 543 0
 191              		.cfi_startproc
 192              	.LVL27:
 193 0000 F0B5     		push	{r4, r5, r6, r7, lr}
 194              		.cfi_def_cfa_offset 20
 195              		.cfi_offset 4, -20
 196              		.cfi_offset 5, -16
 197              		.cfi_offset 6, -12
 198              		.cfi_offset 7, -8
 199              		.cfi_offset 14, -4
 200 0002 4746     		mov	r7, r8
 201 0004 80B4     		push	{r7}
 202              		.cfi_def_cfa_offset 24
 203              		.cfi_offset 8, -24
 204 0006 82B0     		sub	sp, sp, #8
 205              		.cfi_def_cfa_offset 32
 206 0008 08AC     		add	r4, sp, #32
 207              	.LVL28:
 208 000a 2478     		ldrb	r4, [r4]
 209              	.LVL29:
 544:..\kronos-c-sdk\src\wolfSSL\wolfcrypt\src/rsa.c ****         return 0;
 210              		.loc 1 544 0
 211 000c 0029     		cmp	r1, #0
 212 000e 32D0     		beq	.L28
 213 0010 8846     		mov	r8, r1
 214 0012 0190     		str	r0, [sp, #4]
 547:..\kronos-c-sdk\src\wolfSSL\wolfcrypt\src/rsa.c ****     pkcsBlock++; pkcsBlockLen--;
 215              		.loc 1 547 0
 216 0014 0021     		mov	r1, #0
 217              	.LVL30:
 218 0016 1170     		strb	r1, [r2]
 548:..\kronos-c-sdk\src\wolfSSL\wolfcrypt\src/rsa.c ****     pkcsBlock[0] = padValue;  /* insert padValue */
 219              		.loc 1 548 0
 220 0018 561C     		add	r6, r2, #1
 221              	.LVL31:
 222 001a 5D1E     		sub	r5, r3, #1
 223              	.LVL32:
 549:..\kronos-c-sdk\src\wolfSSL\wolfcrypt\src/rsa.c **** 
 224              		.loc 1 549 0
 225 001c 5470     		strb	r4, [r2, #1]
 551:..\kronos-c-sdk\src\wolfSSL\wolfcrypt\src/rsa.c ****         /* pad with 0xff bytes */
 226              		.loc 1 551 0
 227 001e 012C     		cmp	r4, #1
 228 0020 07D1     		bne	.L23
ARM GAS  C:\Users\ddemidov\AppData\Local\Temp\ccr947bU.s 			page 18


 553:..\kronos-c-sdk\src\wolfSSL\wolfcrypt\src/rsa.c ****     else {
 229              		.loc 1 553 0
 230 0022 4346     		mov	r3, r8
 231 0024 EB1A     		sub	r3, r5, r3
 232 0026 901C     		add	r0, r2, #2
 233              	.LVL33:
 234 0028 9A1E     		sub	r2, r3, #2
 235 002a FF31     		add	r1, r1, #255
 236 002c FFF7FEFF 		bl	memset
 237              	.LVL34:
 238 0030 14E0     		b	.L24
 239              	.LVL35:
 240              	.L23:
 241              	.LBB19:
 556:..\kronos-c-sdk\src\wolfSSL\wolfcrypt\src/rsa.c ****         int    ret    = wc_RNG_GenerateBlock(rng, &pkcsBlock[1], padLen);
 242              		.loc 1 556 0
 243 0032 4346     		mov	r3, r8
 244 0034 EF1A     		sub	r7, r5, r3
 245 0036 013F     		sub	r7, r7, #1
 246              	.LVL36:
 557:..\kronos-c-sdk\src\wolfSSL\wolfcrypt\src/rsa.c **** 
 247              		.loc 1 557 0
 248 0038 911C     		add	r1, r2, #2
 249 003a 0998     		ldr	r0, [sp, #36]
 250              	.LVL37:
 251 003c 3A1C     		mov	r2, r7
 252 003e FFF7FEFF 		bl	wc_RNG_GenerateBlock
 253              	.LVL38:
 559:..\kronos-c-sdk\src\wolfSSL\wolfcrypt\src/rsa.c ****             return ret;
 254              		.loc 1 559 0
 255 0042 0028     		cmp	r0, #0
 256 0044 18D1     		bne	.L22
 257 0046 0122     		mov	r2, #1
 258 0048 06E0     		b	.L25
 259              	.LVL39:
 260              	.L27:
 564:..\kronos-c-sdk\src\wolfSSL\wolfcrypt\src/rsa.c ****     }
 261              		.loc 1 564 0
 262 004a B418     		add	r4, r6, r2
 263 004c 2378     		ldrb	r3, [r4]
 264 004e 002B     		cmp	r3, #0
 265 0050 01D1     		bne	.L26
 564:..\kronos-c-sdk\src\wolfSSL\wolfcrypt\src/rsa.c ****     }
 266              		.loc 1 564 0 is_stmt 0 discriminator 1
 267 0052 0133     		add	r3, r3, #1
 268 0054 2370     		strb	r3, [r4]
 269              	.L26:
 563:..\kronos-c-sdk\src\wolfSSL\wolfcrypt\src/rsa.c ****             if (pkcsBlock[i] == 0) pkcsBlock[i] = 0x01;
 270              		.loc 1 563 0 is_stmt 1 discriminator 2
 271 0056 0132     		add	r2, r2, #1
 272              	.LVL40:
 273              	.L25:
 563:..\kronos-c-sdk\src\wolfSSL\wolfcrypt\src/rsa.c ****             if (pkcsBlock[i] == 0) pkcsBlock[i] = 0x01;
 274              		.loc 1 563 0 is_stmt 0 discriminator 1
 275 0058 BA42     		cmp	r2, r7
 276 005a F6D3     		bcc	.L27
 277              	.LVL41:
ARM GAS  C:\Users\ddemidov\AppData\Local\Temp\ccr947bU.s 			page 19


 278              	.L24:
 279              	.LBE19:
 567:..\kronos-c-sdk\src\wolfSSL\wolfcrypt\src/rsa.c ****     XMEMCPY(pkcsBlock+pkcsBlockLen-inputLen, input, inputLen);
 280              		.loc 1 567 0 is_stmt 1
 281 005c 4346     		mov	r3, r8
 282 005e ED1A     		sub	r5, r5, r3
 283              	.LVL42:
 284 0060 6B1E     		sub	r3, r5, #1
 285 0062 F318     		add	r3, r6, r3
 286 0064 0022     		mov	r2, #0
 287 0066 1A70     		strb	r2, [r3]
 568:..\kronos-c-sdk\src\wolfSSL\wolfcrypt\src/rsa.c **** 
 288              		.loc 1 568 0
 289 0068 7019     		add	r0, r6, r5
 290 006a 0199     		ldr	r1, [sp, #4]
 291 006c 4246     		mov	r2, r8
 292 006e FFF7FEFF 		bl	memcpy
 293              	.LVL43:
 570:..\kronos-c-sdk\src\wolfSSL\wolfcrypt\src/rsa.c **** }
 294              		.loc 1 570 0
 295 0072 0020     		mov	r0, #0
 296 0074 00E0     		b	.L22
 297              	.LVL44:
 298              	.L28:
 545:..\kronos-c-sdk\src\wolfSSL\wolfcrypt\src/rsa.c **** 
 299              		.loc 1 545 0
 300 0076 0020     		mov	r0, #0
 301              	.LVL45:
 302              	.L22:
 571:..\kronos-c-sdk\src\wolfSSL\wolfcrypt\src/rsa.c **** 
 303              		.loc 1 571 0
 304 0078 02B0     		add	sp, sp, #8
 305              		@ sp needed
 306 007a 04BC     		pop	{r2}
 307 007c 9046     		mov	r8, r2
 308 007e F0BD     		pop	{r4, r5, r6, r7, pc}
 309              		.cfi_endproc
 310              	.LFE17:
 311              		.size	wc_RsaPad, .-wc_RsaPad
 312              		.section	.text.wc_RsaFunction,"ax",%progbits
 313              		.align	2
 314              		.code	16
 315              		.thumb_func
 316              		.type	wc_RsaFunction, %function
 317              	wc_RsaFunction:
 318              	.LFB22:
 734:..\kronos-c-sdk\src\wolfSSL\wolfcrypt\src/rsa.c **** 
 735:..\kronos-c-sdk\src\wolfSSL\wolfcrypt\src/rsa.c **** 
 736:..\kronos-c-sdk\src\wolfSSL\wolfcrypt\src/rsa.c **** #ifndef WC_NO_RSA_OAEP
 737:..\kronos-c-sdk\src\wolfSSL\wolfcrypt\src/rsa.c **** /* helper function to direct unpadding */
 738:..\kronos-c-sdk\src\wolfSSL\wolfcrypt\src/rsa.c **** static int wc_RsaUnPad_ex(byte* pkcsBlock, word32 pkcsBlockLen, byte** out,
 739:..\kronos-c-sdk\src\wolfSSL\wolfcrypt\src/rsa.c ****                           byte padValue, int padType, enum wc_HashType hType,
 740:..\kronos-c-sdk\src\wolfSSL\wolfcrypt\src/rsa.c ****                           int mgf, byte* optLabel, word32 labelLen)
 741:..\kronos-c-sdk\src\wolfSSL\wolfcrypt\src/rsa.c **** {
 742:..\kronos-c-sdk\src\wolfSSL\wolfcrypt\src/rsa.c ****     int ret;
 743:..\kronos-c-sdk\src\wolfSSL\wolfcrypt\src/rsa.c **** 
 744:..\kronos-c-sdk\src\wolfSSL\wolfcrypt\src/rsa.c ****     switch (padType)
ARM GAS  C:\Users\ddemidov\AppData\Local\Temp\ccr947bU.s 			page 20


 745:..\kronos-c-sdk\src\wolfSSL\wolfcrypt\src/rsa.c ****     {
 746:..\kronos-c-sdk\src\wolfSSL\wolfcrypt\src/rsa.c ****         case WC_RSA_PKCSV15_PAD:
 747:..\kronos-c-sdk\src\wolfSSL\wolfcrypt\src/rsa.c ****             WOLFSSL_MSG("wolfSSL Using RSA PKCSV15 padding");
 748:..\kronos-c-sdk\src\wolfSSL\wolfcrypt\src/rsa.c ****             ret = RsaUnPad(pkcsBlock, pkcsBlockLen, out, padValue);
 749:..\kronos-c-sdk\src\wolfSSL\wolfcrypt\src/rsa.c ****             break;
 750:..\kronos-c-sdk\src\wolfSSL\wolfcrypt\src/rsa.c **** 
 751:..\kronos-c-sdk\src\wolfSSL\wolfcrypt\src/rsa.c ****         case WC_RSA_OAEP_PAD:
 752:..\kronos-c-sdk\src\wolfSSL\wolfcrypt\src/rsa.c ****             WOLFSSL_MSG("wolfSSL Using RSA OAEP padding");
 753:..\kronos-c-sdk\src\wolfSSL\wolfcrypt\src/rsa.c ****             ret = wc_RsaUnPad_OAEP((byte*)pkcsBlock, pkcsBlockLen, out,
 754:..\kronos-c-sdk\src\wolfSSL\wolfcrypt\src/rsa.c ****                                                 hType, mgf, optLabel, labelLen);
 755:..\kronos-c-sdk\src\wolfSSL\wolfcrypt\src/rsa.c ****             break;
 756:..\kronos-c-sdk\src\wolfSSL\wolfcrypt\src/rsa.c **** 
 757:..\kronos-c-sdk\src\wolfSSL\wolfcrypt\src/rsa.c ****         default:
 758:..\kronos-c-sdk\src\wolfSSL\wolfcrypt\src/rsa.c ****             WOLFSSL_MSG("Unknown RSA Pad Type");
 759:..\kronos-c-sdk\src\wolfSSL\wolfcrypt\src/rsa.c ****             ret = RSA_PAD_E;
 760:..\kronos-c-sdk\src\wolfSSL\wolfcrypt\src/rsa.c ****     }
 761:..\kronos-c-sdk\src\wolfSSL\wolfcrypt\src/rsa.c **** 
 762:..\kronos-c-sdk\src\wolfSSL\wolfcrypt\src/rsa.c ****     /* silence warning if not used with padding scheme */
 763:..\kronos-c-sdk\src\wolfSSL\wolfcrypt\src/rsa.c ****     (void)padType;
 764:..\kronos-c-sdk\src\wolfSSL\wolfcrypt\src/rsa.c ****     (void)hType;
 765:..\kronos-c-sdk\src\wolfSSL\wolfcrypt\src/rsa.c ****     (void)mgf;
 766:..\kronos-c-sdk\src\wolfSSL\wolfcrypt\src/rsa.c ****     (void)optLabel;
 767:..\kronos-c-sdk\src\wolfSSL\wolfcrypt\src/rsa.c ****     (void)labelLen;
 768:..\kronos-c-sdk\src\wolfSSL\wolfcrypt\src/rsa.c **** 
 769:..\kronos-c-sdk\src\wolfSSL\wolfcrypt\src/rsa.c ****     return ret;
 770:..\kronos-c-sdk\src\wolfSSL\wolfcrypt\src/rsa.c **** }
 771:..\kronos-c-sdk\src\wolfSSL\wolfcrypt\src/rsa.c **** #endif /* WC_NO_RSA_OAEP */
 772:..\kronos-c-sdk\src\wolfSSL\wolfcrypt\src/rsa.c **** 
 773:..\kronos-c-sdk\src\wolfSSL\wolfcrypt\src/rsa.c **** 
 774:..\kronos-c-sdk\src\wolfSSL\wolfcrypt\src/rsa.c **** static int wc_RsaFunction(const byte* in, word32 inLen, byte* out,
 775:..\kronos-c-sdk\src\wolfSSL\wolfcrypt\src/rsa.c ****                           word32* outLen, int type, RsaKey* key)
 776:..\kronos-c-sdk\src\wolfSSL\wolfcrypt\src/rsa.c **** {
 319              		.loc 1 776 0
 320              		.cfi_startproc
 321              	.LVL46:
 322 0000 F0B5     		push	{r4, r5, r6, r7, lr}
 323              		.cfi_def_cfa_offset 20
 324              		.cfi_offset 4, -20
 325              		.cfi_offset 5, -16
 326              		.cfi_offset 6, -12
 327              		.cfi_offset 7, -8
 328              		.cfi_offset 14, -4
 329 0002 8DB0     		sub	sp, sp, #52
 330              		.cfi_def_cfa_offset 72
 331 0004 071C     		mov	r7, r0
 332 0006 0C1C     		mov	r4, r1
 333 0008 151C     		mov	r5, r2
 334 000a 1E1C     		mov	r6, r3
 335              	.LVL47:
 777:..\kronos-c-sdk\src\wolfSSL\wolfcrypt\src/rsa.c ****     #define ERROR_OUT(x) { ret = (x); goto done;}
 778:..\kronos-c-sdk\src\wolfSSL\wolfcrypt\src/rsa.c **** 
 779:..\kronos-c-sdk\src\wolfSSL\wolfcrypt\src/rsa.c ****     mp_int tmp;
 780:..\kronos-c-sdk\src\wolfSSL\wolfcrypt\src/rsa.c ****     int    ret = 0;
 781:..\kronos-c-sdk\src\wolfSSL\wolfcrypt\src/rsa.c ****     word32 keyLen, len;
 782:..\kronos-c-sdk\src\wolfSSL\wolfcrypt\src/rsa.c **** 
 783:..\kronos-c-sdk\src\wolfSSL\wolfcrypt\src/rsa.c ****     if (mp_init(&tmp) != MP_OKAY)
 336              		.loc 1 783 0
ARM GAS  C:\Users\ddemidov\AppData\Local\Temp\ccr947bU.s 			page 21


 337 000c 08A8     		add	r0, sp, #32
 338              	.LVL48:
 339 000e FFF7FEFF 		bl	mp_init
 340              	.LVL49:
 341 0012 0028     		cmp	r0, #0
 342 0014 00D0     		beq	.LCB378
 343 0016 A6E0     		b	.L41	@long jump
 344              	.LCB378:
 784:..\kronos-c-sdk\src\wolfSSL\wolfcrypt\src/rsa.c ****         return MP_INIT_E;
 785:..\kronos-c-sdk\src\wolfSSL\wolfcrypt\src/rsa.c **** 
 786:..\kronos-c-sdk\src\wolfSSL\wolfcrypt\src/rsa.c ****     if (mp_read_unsigned_bin(&tmp, (byte*)in, inLen) != MP_OKAY)
 345              		.loc 1 786 0
 346 0018 08A8     		add	r0, sp, #32
 347 001a 391C     		mov	r1, r7
 348 001c 221C     		mov	r2, r4
 349 001e FFF7FEFF 		bl	mp_read_unsigned_bin
 350              	.LVL50:
 351 0022 0028     		cmp	r0, #0
 352 0024 00D0     		beq	.LCB385
 353 0026 8BE0     		b	.L42	@long jump
 354              	.LCB385:
 787:..\kronos-c-sdk\src\wolfSSL\wolfcrypt\src/rsa.c ****         ERROR_OUT(MP_READ_E);
 788:..\kronos-c-sdk\src\wolfSSL\wolfcrypt\src/rsa.c **** 
 789:..\kronos-c-sdk\src\wolfSSL\wolfcrypt\src/rsa.c ****     if (type == RSA_PRIVATE_DECRYPT || type == RSA_PRIVATE_ENCRYPT) {
 355              		.loc 1 789 0
 356 0028 129A     		ldr	r2, [sp, #72]
 357 002a 131C     		mov	r3, r2
 358 002c 023B     		sub	r3, r3, #2
 359 002e 012B     		cmp	r3, #1
 360 0030 61D8     		bhi	.L33
 361              	.LBB20:
 790:..\kronos-c-sdk\src\wolfSSL\wolfcrypt\src/rsa.c ****         #ifdef RSA_LOW_MEM      /* half as much memory but twice as slow */
 791:..\kronos-c-sdk\src\wolfSSL\wolfcrypt\src/rsa.c ****             if (mp_exptmod(&tmp, &key->d, &key->n, &tmp) != MP_OKAY)
 792:..\kronos-c-sdk\src\wolfSSL\wolfcrypt\src/rsa.c ****                 ERROR_OUT(MP_EXPTMOD_E);
 793:..\kronos-c-sdk\src\wolfSSL\wolfcrypt\src/rsa.c ****         #else
 794:..\kronos-c-sdk\src\wolfSSL\wolfcrypt\src/rsa.c ****             #define INNER_ERROR_OUT(x) { ret = (x); goto inner_done; }
 795:..\kronos-c-sdk\src\wolfSSL\wolfcrypt\src/rsa.c **** 
 796:..\kronos-c-sdk\src\wolfSSL\wolfcrypt\src/rsa.c ****             mp_int tmpa, tmpb;
 797:..\kronos-c-sdk\src\wolfSSL\wolfcrypt\src/rsa.c **** 
 798:..\kronos-c-sdk\src\wolfSSL\wolfcrypt\src/rsa.c ****             if (mp_init(&tmpa) != MP_OKAY)
 362              		.loc 1 798 0
 363 0032 6846     		mov	r0, sp
 364 0034 FFF7FEFF 		bl	mp_init
 365              	.LVL51:
 366 0038 0028     		cmp	r0, #0
 367 003a 59D1     		bne	.L34
 799:..\kronos-c-sdk\src\wolfSSL\wolfcrypt\src/rsa.c ****                 ERROR_OUT(MP_INIT_E);
 800:..\kronos-c-sdk\src\wolfSSL\wolfcrypt\src/rsa.c **** 
 801:..\kronos-c-sdk\src\wolfSSL\wolfcrypt\src/rsa.c ****             if (mp_init(&tmpb) != MP_OKAY) {
 368              		.loc 1 801 0
 369 003c 04A8     		add	r0, sp, #16
 370 003e FFF7FEFF 		bl	mp_init
 371              	.LVL52:
 372 0042 0028     		cmp	r0, #0
 373 0044 03D0     		beq	.L35
 802:..\kronos-c-sdk\src\wolfSSL\wolfcrypt\src/rsa.c ****                 mp_clear(&tmpa);
 374              		.loc 1 802 0
ARM GAS  C:\Users\ddemidov\AppData\Local\Temp\ccr947bU.s 			page 22


 375 0046 6846     		mov	r0, sp
 376 0048 FFF7FEFF 		bl	mp_clear
 377              	.LVL53:
 803:..\kronos-c-sdk\src\wolfSSL\wolfcrypt\src/rsa.c ****                 ERROR_OUT(MP_INIT_E);
 378              		.loc 1 803 0
 379 004c 50E0     		b	.L34
 380              	.LVL54:
 381              	.L35:
 804:..\kronos-c-sdk\src\wolfSSL\wolfcrypt\src/rsa.c ****             }
 805:..\kronos-c-sdk\src\wolfSSL\wolfcrypt\src/rsa.c **** 
 806:..\kronos-c-sdk\src\wolfSSL\wolfcrypt\src/rsa.c ****             /* tmpa = tmp^dP mod p */
 807:..\kronos-c-sdk\src\wolfSSL\wolfcrypt\src/rsa.c ****             if (mp_exptmod(&tmp, &key->dP, &key->p, &tmpa) != MP_OKAY)
 382              		.loc 1 807 0
 383 004e 139C     		ldr	r4, [sp, #76]
 384              	.LVL55:
 385 0050 3034     		add	r4, r4, #48
 386 0052 1399     		ldr	r1, [sp, #76]
 387 0054 5031     		add	r1, r1, #80
 388 0056 08A8     		add	r0, sp, #32
 389 0058 221C     		mov	r2, r4
 390 005a 6B46     		mov	r3, sp
 391 005c FFF7FEFF 		bl	mp_exptmod
 392              	.LVL56:
 393 0060 0028     		cmp	r0, #0
 394 0062 2AD1     		bne	.L43
 808:..\kronos-c-sdk\src\wolfSSL\wolfcrypt\src/rsa.c ****                 INNER_ERROR_OUT(MP_EXPTMOD_E);
 809:..\kronos-c-sdk\src\wolfSSL\wolfcrypt\src/rsa.c **** 
 810:..\kronos-c-sdk\src\wolfSSL\wolfcrypt\src/rsa.c ****             /* tmpb = tmp^dQ mod q */
 811:..\kronos-c-sdk\src\wolfSSL\wolfcrypt\src/rsa.c ****             if (mp_exptmod(&tmp, &key->dQ, &key->q, &tmpb) != MP_OKAY)
 395              		.loc 1 811 0
 396 0064 139F     		ldr	r7, [sp, #76]
 397              	.LVL57:
 398 0066 4037     		add	r7, r7, #64
 399 0068 1399     		ldr	r1, [sp, #76]
 400 006a 6031     		add	r1, r1, #96
 401 006c 08A8     		add	r0, sp, #32
 402 006e 3A1C     		mov	r2, r7
 403 0070 04AB     		add	r3, sp, #16
 404 0072 FFF7FEFF 		bl	mp_exptmod
 405              	.LVL58:
 406 0076 0028     		cmp	r0, #0
 407 0078 22D1     		bne	.L44
 812:..\kronos-c-sdk\src\wolfSSL\wolfcrypt\src/rsa.c ****                 INNER_ERROR_OUT(MP_EXPTMOD_E);
 813:..\kronos-c-sdk\src\wolfSSL\wolfcrypt\src/rsa.c **** 
 814:..\kronos-c-sdk\src\wolfSSL\wolfcrypt\src/rsa.c ****             /* tmp = (tmpa - tmpb) * qInv (mod p) */
 815:..\kronos-c-sdk\src\wolfSSL\wolfcrypt\src/rsa.c ****             if (mp_sub(&tmpa, &tmpb, &tmp) != MP_OKAY)
 408              		.loc 1 815 0
 409 007a 6846     		mov	r0, sp
 410 007c 04A9     		add	r1, sp, #16
 411 007e 08AA     		add	r2, sp, #32
 412 0080 FFF7FEFF 		bl	mp_sub
 413              	.LVL59:
 414 0084 0028     		cmp	r0, #0
 415 0086 1ED1     		bne	.L45
 816:..\kronos-c-sdk\src\wolfSSL\wolfcrypt\src/rsa.c ****                 INNER_ERROR_OUT(MP_SUB_E);
 817:..\kronos-c-sdk\src\wolfSSL\wolfcrypt\src/rsa.c **** 
 818:..\kronos-c-sdk\src\wolfSSL\wolfcrypt\src/rsa.c ****             if (mp_mulmod(&tmp, &key->u, &key->p, &tmp) != MP_OKAY)
ARM GAS  C:\Users\ddemidov\AppData\Local\Temp\ccr947bU.s 			page 23


 416              		.loc 1 818 0
 417 0088 1399     		ldr	r1, [sp, #76]
 418 008a 7031     		add	r1, r1, #112
 419 008c 08A8     		add	r0, sp, #32
 420 008e 221C     		mov	r2, r4
 421 0090 031C     		mov	r3, r0
 422 0092 FFF7FEFF 		bl	mp_mulmod
 423              	.LVL60:
 424 0096 0028     		cmp	r0, #0
 425 0098 18D1     		bne	.L46
 819:..\kronos-c-sdk\src\wolfSSL\wolfcrypt\src/rsa.c ****                 INNER_ERROR_OUT(MP_MULMOD_E);
 820:..\kronos-c-sdk\src\wolfSSL\wolfcrypt\src/rsa.c **** 
 821:..\kronos-c-sdk\src\wolfSSL\wolfcrypt\src/rsa.c ****             /* tmp = tmpb + q * tmp */
 822:..\kronos-c-sdk\src\wolfSSL\wolfcrypt\src/rsa.c ****             if (mp_mul(&tmp, &key->q, &tmp) != MP_OKAY)
 426              		.loc 1 822 0
 427 009a 08A8     		add	r0, sp, #32
 428 009c 391C     		mov	r1, r7
 429 009e 021C     		mov	r2, r0
 430 00a0 FFF7FEFF 		bl	mp_mul
 431              	.LVL61:
 432 00a4 0028     		cmp	r0, #0
 433 00a6 14D1     		bne	.L47
 823:..\kronos-c-sdk\src\wolfSSL\wolfcrypt\src/rsa.c ****                 INNER_ERROR_OUT(MP_MUL_E);
 824:..\kronos-c-sdk\src\wolfSSL\wolfcrypt\src/rsa.c **** 
 825:..\kronos-c-sdk\src\wolfSSL\wolfcrypt\src/rsa.c ****             if (mp_add(&tmp, &tmpb, &tmp) != MP_OKAY)
 434              		.loc 1 825 0
 435 00a8 08A8     		add	r0, sp, #32
 436 00aa 04A9     		add	r1, sp, #16
 437 00ac 021C     		mov	r2, r0
 438 00ae FFF7FEFF 		bl	mp_add
 439              	.LVL62:
 440 00b2 0028     		cmp	r0, #0
 441 00b4 10D1     		bne	.L48
 442              	.LBE20:
 780:..\kronos-c-sdk\src\wolfSSL\wolfcrypt\src/rsa.c ****     word32 keyLen, len;
 443              		.loc 1 780 0
 444 00b6 0024     		mov	r4, #0
 445 00b8 10E0     		b	.L36
 446              	.LVL63:
 447              	.L43:
 448              	.LBB21:
 808:..\kronos-c-sdk\src\wolfSSL\wolfcrypt\src/rsa.c **** 
 449              		.loc 1 808 0
 450 00ba 7024     		mov	r4, #112
 451 00bc 6442     		neg	r4, r4
 452 00be 0DE0     		b	.L36
 453              	.LVL64:
 454              	.L44:
 812:..\kronos-c-sdk\src\wolfSSL\wolfcrypt\src/rsa.c **** 
 455              		.loc 1 812 0
 456 00c0 7024     		mov	r4, #112
 457 00c2 6442     		neg	r4, r4
 458 00c4 0AE0     		b	.L36
 459              	.L45:
 816:..\kronos-c-sdk\src\wolfSSL\wolfcrypt\src/rsa.c **** 
 460              		.loc 1 816 0
 461 00c6 7224     		mov	r4, #114
ARM GAS  C:\Users\ddemidov\AppData\Local\Temp\ccr947bU.s 			page 24


 462 00c8 6442     		neg	r4, r4
 463 00ca 07E0     		b	.L36
 464              	.L46:
 819:..\kronos-c-sdk\src\wolfSSL\wolfcrypt\src/rsa.c **** 
 465              		.loc 1 819 0
 466 00cc 7524     		mov	r4, #117
 467 00ce 6442     		neg	r4, r4
 468 00d0 04E0     		b	.L36
 469              	.L47:
 823:..\kronos-c-sdk\src\wolfSSL\wolfcrypt\src/rsa.c **** 
 470              		.loc 1 823 0
 471 00d2 7424     		mov	r4, #116
 472 00d4 6442     		neg	r4, r4
 473 00d6 01E0     		b	.L36
 474              	.L48:
 826:..\kronos-c-sdk\src\wolfSSL\wolfcrypt\src/rsa.c ****                 INNER_ERROR_OUT(MP_ADD_E);
 475              		.loc 1 826 0
 476 00d8 7324     		mov	r4, #115
 477 00da 6442     		neg	r4, r4
 478              	.L36:
 479              	.LVL65:
 827:..\kronos-c-sdk\src\wolfSSL\wolfcrypt\src/rsa.c **** 
 828:..\kronos-c-sdk\src\wolfSSL\wolfcrypt\src/rsa.c ****         inner_done:
 829:..\kronos-c-sdk\src\wolfSSL\wolfcrypt\src/rsa.c ****             mp_clear(&tmpa);
 480              		.loc 1 829 0
 481 00dc 6846     		mov	r0, sp
 482 00de FFF7FEFF 		bl	mp_clear
 483              	.LVL66:
 830:..\kronos-c-sdk\src\wolfSSL\wolfcrypt\src/rsa.c ****             mp_clear(&tmpb);
 484              		.loc 1 830 0
 485 00e2 04A8     		add	r0, sp, #16
 486 00e4 FFF7FEFF 		bl	mp_clear
 487              	.LVL67:
 831:..\kronos-c-sdk\src\wolfSSL\wolfcrypt\src/rsa.c **** 
 832:..\kronos-c-sdk\src\wolfSSL\wolfcrypt\src/rsa.c ****             if (ret != 0) return ret;
 488              		.loc 1 832 0
 489 00e8 002C     		cmp	r4, #0
 490 00ea 10D0     		beq	.L38
 491              		.loc 1 832 0 is_stmt 0 discriminator 1
 492 00ec 201C     		mov	r0, r4
 493 00ee 3CE0     		b	.L31
 494              	.LVL68:
 495              	.L34:
 799:..\kronos-c-sdk\src\wolfSSL\wolfcrypt\src/rsa.c **** 
 496              		.loc 1 799 0 is_stmt 1 discriminator 1
 497 00f0 6E24     		mov	r4, #110
 498              	.LVL69:
 499 00f2 6442     		neg	r4, r4
 500 00f4 32E0     		b	.L32
 501              	.LVL70:
 502              	.L33:
 503              	.LBE21:
 833:..\kronos-c-sdk\src\wolfSSL\wolfcrypt\src/rsa.c **** 
 834:..\kronos-c-sdk\src\wolfSSL\wolfcrypt\src/rsa.c ****         #endif   /* RSA_LOW_MEM */
 835:..\kronos-c-sdk\src\wolfSSL\wolfcrypt\src/rsa.c ****     }
 836:..\kronos-c-sdk\src\wolfSSL\wolfcrypt\src/rsa.c ****     else if (type == RSA_PUBLIC_ENCRYPT || type == RSA_PUBLIC_DECRYPT) {
 504              		.loc 1 836 0
ARM GAS  C:\Users\ddemidov\AppData\Local\Temp\ccr947bU.s 			page 25


 505 00f6 012A     		cmp	r2, #1
 506 00f8 25D8     		bhi	.L49
 837:..\kronos-c-sdk\src\wolfSSL\wolfcrypt\src/rsa.c ****         if (mp_exptmod(&tmp, &key->e, &key->n, &tmp) != MP_OKAY)
 507              		.loc 1 837 0
 508 00fa 1399     		ldr	r1, [sp, #76]
 509 00fc 1031     		add	r1, r1, #16
 510 00fe 08A8     		add	r0, sp, #32
 511 0100 139A     		ldr	r2, [sp, #76]
 512 0102 031C     		mov	r3, r0
 513 0104 FFF7FEFF 		bl	mp_exptmod
 514              	.LVL71:
 515 0108 0028     		cmp	r0, #0
 516 010a 1FD1     		bne	.L50
 780:..\kronos-c-sdk\src\wolfSSL\wolfcrypt\src/rsa.c ****     word32 keyLen, len;
 517              		.loc 1 780 0
 518 010c 0024     		mov	r4, #0
 519              	.LVL72:
 520              	.L38:
 838:..\kronos-c-sdk\src\wolfSSL\wolfcrypt\src/rsa.c ****             ERROR_OUT(MP_EXPTMOD_E);
 839:..\kronos-c-sdk\src\wolfSSL\wolfcrypt\src/rsa.c ****     }
 840:..\kronos-c-sdk\src\wolfSSL\wolfcrypt\src/rsa.c ****     else
 841:..\kronos-c-sdk\src\wolfSSL\wolfcrypt\src/rsa.c ****         ERROR_OUT(RSA_WRONG_TYPE_E);
 842:..\kronos-c-sdk\src\wolfSSL\wolfcrypt\src/rsa.c **** 
 843:..\kronos-c-sdk\src\wolfSSL\wolfcrypt\src/rsa.c ****     keyLen = mp_unsigned_bin_size(&key->n);
 521              		.loc 1 843 0
 522 010e 1398     		ldr	r0, [sp, #76]
 523 0110 FFF7FEFF 		bl	mp_unsigned_bin_size
 524              	.LVL73:
 525 0114 071C     		mov	r7, r0
 526              	.LVL74:
 844:..\kronos-c-sdk\src\wolfSSL\wolfcrypt\src/rsa.c ****     if (keyLen > *outLen)
 527              		.loc 1 844 0
 528 0116 3368     		ldr	r3, [r6]
 529 0118 8342     		cmp	r3, r0
 530 011a 1AD3     		bcc	.L51
 845:..\kronos-c-sdk\src\wolfSSL\wolfcrypt\src/rsa.c ****         ERROR_OUT(RSA_BUFFER_E);
 846:..\kronos-c-sdk\src\wolfSSL\wolfcrypt\src/rsa.c **** 
 847:..\kronos-c-sdk\src\wolfSSL\wolfcrypt\src/rsa.c ****     len = mp_unsigned_bin_size(&tmp);
 531              		.loc 1 847 0
 532 011c 08A8     		add	r0, sp, #32
 533              	.LVL75:
 534 011e FFF7FEFF 		bl	mp_unsigned_bin_size
 535              	.LVL76:
 848:..\kronos-c-sdk\src\wolfSSL\wolfcrypt\src/rsa.c **** 
 849:..\kronos-c-sdk\src\wolfSSL\wolfcrypt\src/rsa.c ****     /* pad front w/ zeros to match key length */
 850:..\kronos-c-sdk\src\wolfSSL\wolfcrypt\src/rsa.c ****     while (len < keyLen) {
 536              		.loc 1 850 0
 537 0122 03E0     		b	.L39
 538              	.L40:
 539              	.LVL77:
 851:..\kronos-c-sdk\src\wolfSSL\wolfcrypt\src/rsa.c ****         *out++ = 0x00;
 540              		.loc 1 851 0
 541 0124 0023     		mov	r3, #0
 542 0126 2B70     		strb	r3, [r5]
 852:..\kronos-c-sdk\src\wolfSSL\wolfcrypt\src/rsa.c ****         len++;
 543              		.loc 1 852 0
 544 0128 0130     		add	r0, r0, #1
ARM GAS  C:\Users\ddemidov\AppData\Local\Temp\ccr947bU.s 			page 26


 545              	.LVL78:
 851:..\kronos-c-sdk\src\wolfSSL\wolfcrypt\src/rsa.c ****         *out++ = 0x00;
 546              		.loc 1 851 0
 547 012a 0135     		add	r5, r5, #1
 548              	.LVL79:
 549              	.L39:
 850:..\kronos-c-sdk\src\wolfSSL\wolfcrypt\src/rsa.c ****         *out++ = 0x00;
 550              		.loc 1 850 0
 551 012c B842     		cmp	r0, r7
 552 012e F9D3     		bcc	.L40
 853:..\kronos-c-sdk\src\wolfSSL\wolfcrypt\src/rsa.c ****     }
 854:..\kronos-c-sdk\src\wolfSSL\wolfcrypt\src/rsa.c **** 
 855:..\kronos-c-sdk\src\wolfSSL\wolfcrypt\src/rsa.c ****     *outLen = keyLen;
 553              		.loc 1 855 0
 554 0130 3760     		str	r7, [r6]
 856:..\kronos-c-sdk\src\wolfSSL\wolfcrypt\src/rsa.c **** 
 857:..\kronos-c-sdk\src\wolfSSL\wolfcrypt\src/rsa.c ****     /* convert */
 858:..\kronos-c-sdk\src\wolfSSL\wolfcrypt\src/rsa.c ****     if (mp_to_unsigned_bin(&tmp, out) != MP_OKAY)
 555              		.loc 1 858 0
 556 0132 08A8     		add	r0, sp, #32
 557              	.LVL80:
 558 0134 291C     		mov	r1, r5
 559 0136 FFF7FEFF 		bl	mp_to_unsigned_bin
 560              	.LVL81:
 561 013a 0028     		cmp	r0, #0
 562 013c 0CD1     		bne	.L52
 563 013e 0DE0     		b	.L32
 564              	.LVL82:
 565              	.L42:
 787:..\kronos-c-sdk\src\wolfSSL\wolfcrypt\src/rsa.c **** 
 566              		.loc 1 787 0
 567 0140 6F24     		mov	r4, #111
 568              	.LVL83:
 569 0142 6442     		neg	r4, r4
 570 0144 0AE0     		b	.L32
 571              	.LVL84:
 572              	.L49:
 841:..\kronos-c-sdk\src\wolfSSL\wolfcrypt\src/rsa.c **** 
 573              		.loc 1 841 0
 574 0146 8224     		mov	r4, #130
 575              	.LVL85:
 576 0148 6442     		neg	r4, r4
 577 014a 07E0     		b	.L32
 578              	.LVL86:
 579              	.L50:
 838:..\kronos-c-sdk\src\wolfSSL\wolfcrypt\src/rsa.c ****     }
 580              		.loc 1 838 0
 581 014c 7024     		mov	r4, #112
 582              	.LVL87:
 583 014e 6442     		neg	r4, r4
 584 0150 04E0     		b	.L32
 585              	.LVL88:
 586              	.L51:
 845:..\kronos-c-sdk\src\wolfSSL\wolfcrypt\src/rsa.c **** 
 587              		.loc 1 845 0
 588 0152 8324     		mov	r4, #131
 589              	.LVL89:
ARM GAS  C:\Users\ddemidov\AppData\Local\Temp\ccr947bU.s 			page 27


 590 0154 6442     		neg	r4, r4
 591 0156 01E0     		b	.L32
 592              	.LVL90:
 593              	.L52:
 859:..\kronos-c-sdk\src\wolfSSL\wolfcrypt\src/rsa.c ****         ERROR_OUT(MP_TO_E);
 594              		.loc 1 859 0
 595 0158 7124     		mov	r4, #113
 596              	.LVL91:
 597 015a 6442     		neg	r4, r4
 598              	.LVL92:
 599              	.L32:
 860:..\kronos-c-sdk\src\wolfSSL\wolfcrypt\src/rsa.c **** 
 861:..\kronos-c-sdk\src\wolfSSL\wolfcrypt\src/rsa.c **** done:
 862:..\kronos-c-sdk\src\wolfSSL\wolfcrypt\src/rsa.c ****     mp_clear(&tmp);
 600              		.loc 1 862 0
 601 015c 08A8     		add	r0, sp, #32
 602 015e FFF7FEFF 		bl	mp_clear
 603              	.LVL93:
 863:..\kronos-c-sdk\src\wolfSSL\wolfcrypt\src/rsa.c ****     if (ret == MP_EXPTMOD_E) {
 864:..\kronos-c-sdk\src\wolfSSL\wolfcrypt\src/rsa.c ****         WOLFSSL_MSG("RSA_FUNCTION MP_EXPTMOD_E: memory/config problem");
 865:..\kronos-c-sdk\src\wolfSSL\wolfcrypt\src/rsa.c ****     }
 866:..\kronos-c-sdk\src\wolfSSL\wolfcrypt\src/rsa.c ****     return ret;
 604              		.loc 1 866 0
 605 0162 201C     		mov	r0, r4
 606 0164 01E0     		b	.L31
 607              	.LVL94:
 608              	.L41:
 784:..\kronos-c-sdk\src\wolfSSL\wolfcrypt\src/rsa.c **** 
 609              		.loc 1 784 0
 610 0166 6E20     		mov	r0, #110
 611 0168 4042     		neg	r0, r0
 612              	.LVL95:
 613              	.L31:
 867:..\kronos-c-sdk\src\wolfSSL\wolfcrypt\src/rsa.c **** }
 614              		.loc 1 867 0
 615 016a 0DB0     		add	sp, sp, #52
 616              		@ sp needed
 617              	.LVL96:
 618              	.LVL97:
 619 016c F0BD     		pop	{r4, r5, r6, r7, pc}
 620              		.cfi_endproc
 621              	.LFE22:
 622              		.size	wc_RsaFunction, .-wc_RsaFunction
 623 016e C046     		.section	.text.wc_MGF1,"ax",%progbits
 624              		.align	2
 625              		.code	16
 626              		.thumb_func
 627              		.type	wc_MGF1, %function
 628              	wc_MGF1:
 629              	.LFB14:
 247:..\kronos-c-sdk\src\wolfSSL\wolfcrypt\src/rsa.c ****     byte* tmp;
 630              		.loc 1 247 0
 631              		.cfi_startproc
 632              	.LVL98:
 633 0000 F0B5     		push	{r4, r5, r6, r7, lr}
 634              		.cfi_def_cfa_offset 20
 635              		.cfi_offset 4, -20
ARM GAS  C:\Users\ddemidov\AppData\Local\Temp\ccr947bU.s 			page 28


 636              		.cfi_offset 5, -16
 637              		.cfi_offset 6, -12
 638              		.cfi_offset 7, -8
 639              		.cfi_offset 14, -4
 640 0002 5F46     		mov	r7, fp
 641 0004 5646     		mov	r6, r10
 642 0006 4D46     		mov	r5, r9
 643 0008 4446     		mov	r4, r8
 644 000a F0B4     		push	{r4, r5, r6, r7}
 645              		.cfi_def_cfa_offset 36
 646              		.cfi_offset 8, -36
 647              		.cfi_offset 9, -32
 648              		.cfi_offset 10, -28
 649              		.cfi_offset 11, -24
 650 000c 91B0     		sub	sp, sp, #68
 651              		.cfi_def_cfa_offset 104
 652 000e 0390     		str	r0, [sp, #12]
 653 0010 0491     		str	r1, [sp, #16]
 654 0012 9346     		mov	fp, r2
 655 0014 9946     		mov	r9, r3
 656 0016 1A9B     		ldr	r3, [sp, #104]
 657              	.LVL99:
 658 0018 9846     		mov	r8, r3
 257:..\kronos-c-sdk\src\wolfSSL\wolfcrypt\src/rsa.c ****     counter = 0;
 659              		.loc 1 257 0
 660 001a FFF7FEFF 		bl	wc_HashGetDigestSize
 661              	.LVL100:
 662 001e 061E     		sub	r6, r0, #0
 663              	.LVL101:
 262:..\kronos-c-sdk\src\wolfSSL\wolfcrypt\src/rsa.c ****         return hLen;
 664              		.loc 1 262 0
 665 0020 66DB     		blt	.L63
 267:..\kronos-c-sdk\src\wolfSSL\wolfcrypt\src/rsa.c ****         /* find largest amount of memory needed which will be the max of
 666              		.loc 1 267 0
 667 0022 5B46     		mov	r3, fp
 668 0024 0433     		add	r3, r3, #4
 669 0026 0293     		str	r3, [sp, #8]
 670 0028 242B     		cmp	r3, #36
 671 002a 01D8     		bhi	.L55
 267:..\kronos-c-sdk\src\wolfSSL\wolfcrypt\src/rsa.c ****         /* find largest amount of memory needed which will be the max of
 672              		.loc 1 267 0 is_stmt 0 discriminator 1
 673 002c 2428     		cmp	r0, #36
 674 002e 0CD9     		bls	.L64
 675              	.L55:
 270:..\kronos-c-sdk\src\wolfSSL\wolfcrypt\src/rsa.c ****         tmp = (byte*)XMALLOC(tmpSz, NULL, DYNAMIC_TYPE_TMP_BUFFER);
 676              		.loc 1 270 0 is_stmt 1
 677 0030 029A     		ldr	r2, [sp, #8]
 678 0032 9246     		mov	r10, r2
 679 0034 B242     		cmp	r2, r6
 680 0036 00D2     		bcs	.L57
 681 0038 B246     		mov	r10, r6
 682              	.L57:
 683              	.LVL102:
 271:..\kronos-c-sdk\src\wolfSSL\wolfcrypt\src/rsa.c ****         if (tmp == NULL) {
 684              		.loc 1 271 0
 685 003a 5046     		mov	r0, r10
 686              	.LVL103:
ARM GAS  C:\Users\ddemidov\AppData\Local\Temp\ccr947bU.s 			page 29


 687 003c FFF7FEFF 		bl	wolfSSL_Malloc
 688              	.LVL104:
 689 0040 051E     		sub	r5, r0, #0
 690              	.LVL105:
 272:..\kronos-c-sdk\src\wolfSSL\wolfcrypt\src/rsa.c ****             return MEMORY_E;
 691              		.loc 1 272 0
 692 0042 56D0     		beq	.L65
 275:..\kronos-c-sdk\src\wolfSSL\wolfcrypt\src/rsa.c ****     }
 693              		.loc 1 275 0
 694 0044 0123     		mov	r3, #1
 695 0046 0593     		str	r3, [sp, #20]
 696 0048 04E0     		b	.L56
 697              	.LVL106:
 698              	.L64:
 279:..\kronos-c-sdk\src\wolfSSL\wolfcrypt\src/rsa.c ****         tmp  = tmpA;
 699              		.loc 1 279 0
 700 004a 2423     		mov	r3, #36
 701 004c 9A46     		mov	r10, r3
 281:..\kronos-c-sdk\src\wolfSSL\wolfcrypt\src/rsa.c ****     }
 702              		.loc 1 281 0
 703 004e 0023     		mov	r3, #0
 704 0050 0593     		str	r3, [sp, #20]
 280:..\kronos-c-sdk\src\wolfSSL\wolfcrypt\src/rsa.c ****         tmpF = 0; /* no need to free memory at end */
 705              		.loc 1 280 0
 706 0052 07AD     		add	r5, sp, #28
 707              	.LVL107:
 708              	.L56:
 709 0054 0024     		mov	r4, #0
 710 0056 0027     		mov	r7, #0
 711 0058 4346     		mov	r3, r8
 712 005a 1A93     		str	r3, [sp, #104]
 713 005c B846     		mov	r8, r7
 714 005e 371C     		mov	r7, r6
 715 0060 1E1C     		mov	r6, r3
 716              	.LVL108:
 717              	.L62:
 718              	.LBB22:
 286:..\kronos-c-sdk\src\wolfSSL\wolfcrypt\src/rsa.c **** 
 719              		.loc 1 286 0
 720 0062 281C     		mov	r0, r5
 721 0064 0499     		ldr	r1, [sp, #16]
 722 0066 5A46     		mov	r2, fp
 723 0068 FFF7FEFF 		bl	memcpy
 724              	.LVL109:
 289:..\kronos-c-sdk\src\wolfSSL\wolfcrypt\src/rsa.c ****         tmp[seedSz + 1] = (counter >> 16) & 0xFF;
 725              		.loc 1 289 0
 726 006c 4346     		mov	r3, r8
 727 006e 1B0E     		lsr	r3, r3, #24
 728 0070 5A46     		mov	r2, fp
 729 0072 AB54     		strb	r3, [r5, r2]
 290:..\kronos-c-sdk\src\wolfSSL\wolfcrypt\src/rsa.c ****         tmp[seedSz + 2] = (counter >>  8) & 0xFF;
 730              		.loc 1 290 0
 731 0074 5B46     		mov	r3, fp
 732 0076 0133     		add	r3, r3, #1
 733 0078 4246     		mov	r2, r8
 734 007a 120C     		lsr	r2, r2, #16
 735 007c EA54     		strb	r2, [r5, r3]
ARM GAS  C:\Users\ddemidov\AppData\Local\Temp\ccr947bU.s 			page 30


 291:..\kronos-c-sdk\src\wolfSSL\wolfcrypt\src/rsa.c ****         tmp[seedSz + 3] = (counter)       & 0xFF;
 736              		.loc 1 291 0
 737 007e 5B46     		mov	r3, fp
 738 0080 0233     		add	r3, r3, #2
 739 0082 4246     		mov	r2, r8
 740 0084 120A     		lsr	r2, r2, #8
 741 0086 EA54     		strb	r2, [r5, r3]
 292:..\kronos-c-sdk\src\wolfSSL\wolfcrypt\src/rsa.c **** 
 742              		.loc 1 292 0
 743 0088 5B46     		mov	r3, fp
 744 008a 0333     		add	r3, r3, #3
 745 008c 4246     		mov	r2, r8
 746 008e EA54     		strb	r2, [r5, r3]
 295:..\kronos-c-sdk\src\wolfSSL\wolfcrypt\src/rsa.c ****             /* check for if dynamic memory was needed, then free */
 747              		.loc 1 295 0
 748 0090 5346     		mov	r3, r10
 749 0092 0093     		str	r3, [sp]
 750 0094 0398     		ldr	r0, [sp, #12]
 751 0096 291C     		mov	r1, r5
 752 0098 029A     		ldr	r2, [sp, #8]
 753 009a 2B1C     		mov	r3, r5
 754 009c FFF7FEFF 		bl	wc_Hash
 755              	.LVL110:
 756 00a0 0028     		cmp	r0, #0
 757 00a2 0FD0     		beq	.L66
 758 00a4 041C     		mov	r4, r0
 759              	.LVL111:
 297:..\kronos-c-sdk\src\wolfSSL\wolfcrypt\src/rsa.c ****                 XFREE(tmp, NULL, DYNAMIC_TYPE_TMP_BUFFER);
 760              		.loc 1 297 0
 761 00a6 059B     		ldr	r3, [sp, #20]
 762 00a8 002B     		cmp	r3, #0
 763 00aa 04D0     		beq	.L59
 764              	.LVL112:
 765              	.LBB23:
 298:..\kronos-c-sdk\src\wolfSSL\wolfcrypt\src/rsa.c ****             }
 766              		.loc 1 298 0
 767 00ac 002D     		cmp	r5, #0
 768 00ae 02D0     		beq	.L59
 298:..\kronos-c-sdk\src\wolfSSL\wolfcrypt\src/rsa.c ****             }
 769              		.loc 1 298 0 is_stmt 0 discriminator 1
 770 00b0 281C     		mov	r0, r5
 771              	.LVL113:
 772 00b2 FFF7FEFF 		bl	wolfSSL_Free
 773              	.LVL114:
 774              	.L59:
 775              	.LBE23:
 300:..\kronos-c-sdk\src\wolfSSL\wolfcrypt\src/rsa.c ****         }
 776              		.loc 1 300 0 is_stmt 1
 777 00b6 201C     		mov	r0, r4
 778 00b8 21E0     		b	.L54
 779              	.LVL115:
 780              	.L61:
 304:..\kronos-c-sdk\src\wolfSSL\wolfcrypt\src/rsa.c ****         }
 781              		.loc 1 304 0 discriminator 4
 782 00ba EA5C     		ldrb	r2, [r5, r3]
 783 00bc 0A55     		strb	r2, [r1, r4]
 303:..\kronos-c-sdk\src\wolfSSL\wolfcrypt\src/rsa.c ****             out[idx++] = tmp[i];
ARM GAS  C:\Users\ddemidov\AppData\Local\Temp\ccr947bU.s 			page 31


 784              		.loc 1 303 0 discriminator 4
 785 00be 0133     		add	r3, r3, #1
 786              	.LVL116:
 304:..\kronos-c-sdk\src\wolfSSL\wolfcrypt\src/rsa.c ****         }
 787              		.loc 1 304 0 discriminator 4
 788 00c0 0134     		add	r4, r4, #1
 789              	.LVL117:
 790 00c2 01E0     		b	.L58
 791              	.LVL118:
 792              	.L66:
 793 00c4 0023     		mov	r3, #0
 794 00c6 4946     		mov	r1, r9
 795              	.LVL119:
 796              	.L58:
 303:..\kronos-c-sdk\src\wolfSSL\wolfcrypt\src/rsa.c ****             out[idx++] = tmp[i];
 797              		.loc 1 303 0 discriminator 1
 798 00c8 BB42     		cmp	r3, r7
 799 00ca 01DA     		bge	.L60
 303:..\kronos-c-sdk\src\wolfSSL\wolfcrypt\src/rsa.c ****             out[idx++] = tmp[i];
 800              		.loc 1 303 0 is_stmt 0 discriminator 3
 801 00cc B442     		cmp	r4, r6
 802 00ce F4D3     		bcc	.L61
 803              	.L60:
 804 00d0 8946     		mov	r9, r1
 306:..\kronos-c-sdk\src\wolfSSL\wolfcrypt\src/rsa.c ****     }
 805              		.loc 1 306 0 is_stmt 1
 806 00d2 0123     		mov	r3, #1
 807              	.LVL120:
 808 00d4 9C46     		mov	ip, r3
 809 00d6 E044     		add	r8, r8, ip
 810              	.LVL121:
 811              	.LBE22:
 308:..\kronos-c-sdk\src\wolfSSL\wolfcrypt\src/rsa.c **** 
 812              		.loc 1 308 0
 813 00d8 B442     		cmp	r4, r6
 814 00da C2D3     		bcc	.L62
 311:..\kronos-c-sdk\src\wolfSSL\wolfcrypt\src/rsa.c ****         XFREE(tmp, NULL, DYNAMIC_TYPE_TMP_BUFFER);
 815              		.loc 1 311 0
 816 00dc 059B     		ldr	r3, [sp, #20]
 817 00de 002B     		cmp	r3, #0
 818 00e0 0AD0     		beq	.L67
 819              	.LVL122:
 820              	.LBB24:
 312:..\kronos-c-sdk\src\wolfSSL\wolfcrypt\src/rsa.c ****     }
 821              		.loc 1 312 0
 822 00e2 002D     		cmp	r5, #0
 823 00e4 0AD0     		beq	.L68
 312:..\kronos-c-sdk\src\wolfSSL\wolfcrypt\src/rsa.c ****     }
 824              		.loc 1 312 0 is_stmt 0 discriminator 1
 825 00e6 281C     		mov	r0, r5
 826              	.LVL123:
 827 00e8 FFF7FEFF 		bl	wolfSSL_Free
 828              	.LVL124:
 829              	.LBE24:
 315:..\kronos-c-sdk\src\wolfSSL\wolfcrypt\src/rsa.c **** }
 830              		.loc 1 315 0 is_stmt 1 discriminator 1
 831 00ec 0020     		mov	r0, #0
ARM GAS  C:\Users\ddemidov\AppData\Local\Temp\ccr947bU.s 			page 32


 832 00ee 06E0     		b	.L54
 833              	.LVL125:
 834              	.L63:
 835 00f0 05E0     		b	.L54
 836              	.LVL126:
 837              	.L65:
 273:..\kronos-c-sdk\src\wolfSSL\wolfcrypt\src/rsa.c ****         }
 838              		.loc 1 273 0
 839 00f2 7D20     		mov	r0, #125
 840              	.LVL127:
 841 00f4 4042     		neg	r0, r0
 842 00f6 02E0     		b	.L54
 843              	.LVL128:
 844              	.L67:
 315:..\kronos-c-sdk\src\wolfSSL\wolfcrypt\src/rsa.c **** }
 845              		.loc 1 315 0
 846 00f8 0020     		mov	r0, #0
 847              	.LVL129:
 848 00fa 00E0     		b	.L54
 849              	.LVL130:
 850              	.L68:
 851 00fc 0020     		mov	r0, #0
 852              	.LVL131:
 853              	.L54:
 316:..\kronos-c-sdk\src\wolfSSL\wolfcrypt\src/rsa.c **** 
 854              		.loc 1 316 0
 855 00fe 11B0     		add	sp, sp, #68
 856              		@ sp needed
 857              	.LVL132:
 858              	.LVL133:
 859 0100 3CBC     		pop	{r2, r3, r4, r5}
 860 0102 9046     		mov	r8, r2
 861 0104 9946     		mov	r9, r3
 862 0106 A246     		mov	r10, r4
 863 0108 AB46     		mov	fp, r5
 864 010a F0BD     		pop	{r4, r5, r6, r7, pc}
 865              		.cfi_endproc
 866              	.LFE14:
 867              		.size	wc_MGF1, .-wc_MGF1
 868              		.section	.text.wc_MGF,"ax",%progbits
 869              		.align	2
 870              		.code	16
 871              		.thumb_func
 872              		.type	wc_MGF, %function
 873              	wc_MGF:
 874              	.LFB15:
 324:..\kronos-c-sdk\src\wolfSSL\wolfcrypt\src/rsa.c ****     int ret;
 875              		.loc 1 324 0
 876              		.cfi_startproc
 877              	.LVL134:
 878 0000 00B5     		push	{lr}
 879              		.cfi_def_cfa_offset 4
 880              		.cfi_offset 14, -4
 881 0002 83B0     		sub	sp, sp, #12
 882              		.cfi_def_cfa_offset 16
 327:..\kronos-c-sdk\src\wolfSSL\wolfcrypt\src/rsa.c ****         #ifndef NO_SHA
 883              		.loc 1 327 0
ARM GAS  C:\Users\ddemidov\AppData\Local\Temp\ccr947bU.s 			page 33


 884 0004 0128     		cmp	r0, #1
 885 0006 07D0     		beq	.L71
 886 0008 1A28     		cmp	r0, #26
 887 000a 0BD1     		bne	.L74
 330:..\kronos-c-sdk\src\wolfSSL\wolfcrypt\src/rsa.c ****                 break;
 888              		.loc 1 330 0
 889 000c 0498     		ldr	r0, [sp, #16]
 890              	.LVL135:
 891 000e 0090     		str	r0, [sp]
 892 0010 0420     		mov	r0, #4
 893 0012 FFF7FEFF 		bl	wc_MGF1
 894              	.LVL136:
 331:..\kronos-c-sdk\src\wolfSSL\wolfcrypt\src/rsa.c ****         #endif
 895              		.loc 1 331 0
 896 0016 07E0     		b	.L70
 897              	.LVL137:
 898              	.L71:
 335:..\kronos-c-sdk\src\wolfSSL\wolfcrypt\src/rsa.c ****                 break;
 899              		.loc 1 335 0
 900 0018 0498     		ldr	r0, [sp, #16]
 901              	.LVL138:
 902 001a 0090     		str	r0, [sp]
 903 001c 0520     		mov	r0, #5
 904 001e FFF7FEFF 		bl	wc_MGF1
 905              	.LVL139:
 336:..\kronos-c-sdk\src\wolfSSL\wolfcrypt\src/rsa.c ****         #endif
 906              		.loc 1 336 0
 907 0022 01E0     		b	.L70
 908              	.LVL140:
 909              	.L74:
 350:..\kronos-c-sdk\src\wolfSSL\wolfcrypt\src/rsa.c ****     }
 910              		.loc 1 350 0
 911 0024 AD20     		mov	r0, #173
 912              	.LVL141:
 913 0026 4042     		neg	r0, r0
 914              	.LVL142:
 915              	.L70:
 360:..\kronos-c-sdk\src\wolfSSL\wolfcrypt\src/rsa.c **** 
 916              		.loc 1 360 0
 917 0028 03B0     		add	sp, sp, #12
 918              		@ sp needed
 919 002a 00BD     		pop	{pc}
 920              		.cfi_endproc
 921              	.LFE15:
 922              		.size	wc_MGF, .-wc_MGF
 923              		.section	.text.wc_RsaPad_OAEP,"ax",%progbits
 924              		.align	2
 925              		.code	16
 926              		.thumb_func
 927              		.type	wc_RsaPad_OAEP, %function
 928              	wc_RsaPad_OAEP:
 929              	.LFB16:
 366:..\kronos-c-sdk\src\wolfSSL\wolfcrypt\src/rsa.c ****     int ret;
 930              		.loc 1 366 0
 931              		.cfi_startproc
 932              	.LVL143:
 933 0000 F0B5     		push	{r4, r5, r6, r7, lr}
ARM GAS  C:\Users\ddemidov\AppData\Local\Temp\ccr947bU.s 			page 34


 934              		.cfi_def_cfa_offset 20
 935              		.cfi_offset 4, -20
 936              		.cfi_offset 5, -16
 937              		.cfi_offset 6, -12
 938              		.cfi_offset 7, -8
 939              		.cfi_offset 14, -4
 940 0002 5F46     		mov	r7, fp
 941 0004 5646     		mov	r6, r10
 942 0006 4D46     		mov	r5, r9
 943 0008 4446     		mov	r4, r8
 944 000a F0B4     		push	{r4, r5, r6, r7}
 945              		.cfi_def_cfa_offset 36
 946              		.cfi_offset 8, -36
 947              		.cfi_offset 9, -32
 948              		.cfi_offset 10, -28
 949              		.cfi_offset 11, -24
 950 000c 95B0     		sub	sp, sp, #84
 951              		.cfi_def_cfa_offset 120
 952 000e 20AC     		add	r4, sp, #128
 953              	.LVL144:
 954 0010 2478     		ldrb	r4, [r4]
 955              	.LVL145:
 386:..\kronos-c-sdk\src\wolfSSL\wolfcrypt\src/rsa.c ****         return BUFFER_E;
 956              		.loc 1 386 0
 957 0012 229D     		ldr	r5, [sp, #136]
 958 0014 002D     		cmp	r5, #0
 959 0016 03D1     		bne	.L76
 386:..\kronos-c-sdk\src\wolfSSL\wolfcrypt\src/rsa.c ****         return BUFFER_E;
 960              		.loc 1 386 0 is_stmt 0 discriminator 1
 961 0018 239D     		ldr	r5, [sp, #140]
 962 001a 002D     		cmp	r5, #0
 963 001c 00D0     		beq	.LCB1134
 964 001e A3E0     		b	.L89	@long jump
 965              	.LCB1134:
 966              	.L76:
 967 0020 1F1C     		mov	r7, r3
 968 0022 151C     		mov	r5, r2
 969 0024 8946     		mov	r9, r1
 970 0026 0390     		str	r0, [sp, #12]
 391:..\kronos-c-sdk\src\wolfSSL\wolfcrypt\src/rsa.c ****     if (hLen < 0) {
 971              		.loc 1 391 0 is_stmt 1
 972 0028 201C     		mov	r0, r4
 973              	.LVL146:
 974 002a FFF7FEFF 		bl	wc_HashGetDigestSize
 975              	.LVL147:
 976 002e 061E     		sub	r6, r0, #0
 977              	.LVL148:
 392:..\kronos-c-sdk\src\wolfSSL\wolfcrypt\src/rsa.c ****         return hLen;
 978              		.loc 1 392 0
 979 0030 00DA     		bge	.LCB1152
 980 0032 9CE0     		b	.L90	@long jump
 981              	.LCB1152:
 409:..\kronos-c-sdk\src\wolfSSL\wolfcrypt\src/rsa.c ****             WOLFSSL_MSG("OAEP lHash to small for digest!!");
 982              		.loc 1 409 0
 983 0034 2028     		cmp	r0, #32
 984 0036 00D9     		bls	.LCB1158
 985 0038 9AE0     		b	.L91	@long jump
ARM GAS  C:\Users\ddemidov\AppData\Local\Temp\ccr947bU.s 			page 35


 986              	.LCB1158:
 415:..\kronos-c-sdk\src\wolfSSL\wolfcrypt\src/rsa.c ****                                                   lHash, hLen)) != 0) {
 987              		.loc 1 415 0
 988 003a 0090     		str	r0, [sp]
 989 003c 201C     		mov	r0, r4
 990              	.LVL149:
 991 003e 2299     		ldr	r1, [sp, #136]
 992 0040 239A     		ldr	r2, [sp, #140]
 993 0042 0CAB     		add	r3, sp, #48
 994 0044 FFF7FEFF 		bl	wc_Hash
 995              	.LVL150:
 996 0048 0028     		cmp	r0, #0
 997 004a 00D0     		beq	.LCB1169
 998 004c A0E0     		b	.L77	@long jump
 999              	.LCB1169:
 433:..\kronos-c-sdk\src\wolfSSL\wolfcrypt\src/rsa.c ****         WOLFSSL_MSG("OAEP pad error hash to big for RSA key size");
 1000              		.loc 1 433 0
 1001 004e 731C     		add	r3, r6, #1
 1002 0050 9A46     		mov	r10, r3
 1003 0052 5B00     		lsl	r3, r3, #1
 1004 0054 BB42     		cmp	r3, r7
 1005 0056 00D9     		bls	.LCB1174
 1006 0058 8DE0     		b	.L93	@long jump
 1007              	.LCB1174:
 442:..\kronos-c-sdk\src\wolfSSL\wolfcrypt\src/rsa.c ****         WOLFSSL_MSG("OAEP pad error message too long");
 1008              		.loc 1 442 0
 1009 005a 7400     		lsl	r4, r6, #1
 1010 005c 6442     		neg	r4, r4
 1011 005e E319     		add	r3, r4, r7
 1012 0060 023B     		sub	r3, r3, #2
 1013 0062 4B45     		cmp	r3, r9
 1014 0064 00D2     		bcs	.LCB1182
 1015 0066 89E0     		b	.L94	@long jump
 1016              	.LCB1182:
 452:..\kronos-c-sdk\src\wolfSSL\wolfcrypt\src/rsa.c ****     psLen = pkcsBlockLen - inputLen - 2 * hLen - 2;
 1017              		.loc 1 452 0
 1018 0068 4B46     		mov	r3, r9
 1019 006a F81A     		sub	r0, r7, r3
 1020              	.LVL151:
 1021 006c 431E     		sub	r3, r0, #1
 1022 006e 9B46     		mov	fp, r3
 1023              	.LVL152:
 453:..\kronos-c-sdk\src\wolfSSL\wolfcrypt\src/rsa.c ****     if (pkcsBlockLen < inputLen) { /*make sure not writing over end of buffer */
 1024              		.loc 1 453 0
 1025 0070 2418     		add	r4, r4, r0
 1026 0072 023C     		sub	r4, r4, #2
 1027              	.LVL153:
 454:..\kronos-c-sdk\src\wolfSSL\wolfcrypt\src/rsa.c ****         #ifdef WOLFSSL_SMALL_STACK
 1028              		.loc 1 454 0
 1029 0074 4F45     		cmp	r7, r9
 1030 0076 00D2     		bcs	.LCB1193
 1031 0078 83E0     		b	.L95	@long jump
 1032              	.LCB1193:
 461:..\kronos-c-sdk\src\wolfSSL\wolfcrypt\src/rsa.c ****     pkcsBlock[idx--] = 0x01; /* PS and M separator */
 1033              		.loc 1 461 0
 1034 007a 2818     		add	r0, r5, r0
 1035 007c 0399     		ldr	r1, [sp, #12]
ARM GAS  C:\Users\ddemidov\AppData\Local\Temp\ccr947bU.s 			page 36


 1036 007e 4A46     		mov	r2, r9
 1037 0080 FFF7FEFF 		bl	memcpy
 1038              	.LVL154:
 462:..\kronos-c-sdk\src\wolfSSL\wolfcrypt\src/rsa.c ****     while (psLen > 0 && idx > 0) {
 1039              		.loc 1 462 0
 1040 0084 5B46     		mov	r3, fp
 1041 0086 013B     		sub	r3, r3, #1
 1042              	.LVL155:
 1043 0088 0122     		mov	r2, #1
 1044 008a 5946     		mov	r1, fp
 1045 008c 6A54     		strb	r2, [r5, r1]
 463:..\kronos-c-sdk\src\wolfSSL\wolfcrypt\src/rsa.c ****         pkcsBlock[idx--] = 0x00;
 1046              		.loc 1 463 0
 1047 008e 04E0     		b	.L78
 1048              	.L80:
 1049              	.LVL156:
 464:..\kronos-c-sdk\src\wolfSSL\wolfcrypt\src/rsa.c ****         psLen--;
 1050              		.loc 1 464 0
 1051 0090 EA18     		add	r2, r5, r3
 1052 0092 0021     		mov	r1, #0
 1053 0094 1170     		strb	r1, [r2]
 465:..\kronos-c-sdk\src\wolfSSL\wolfcrypt\src/rsa.c ****     }
 1054              		.loc 1 465 0
 1055 0096 013C     		sub	r4, r4, #1
 1056              	.LVL157:
 464:..\kronos-c-sdk\src\wolfSSL\wolfcrypt\src/rsa.c ****         psLen--;
 1057              		.loc 1 464 0
 1058 0098 013B     		sub	r3, r3, #1
 1059              	.LVL158:
 1060              	.L78:
 463:..\kronos-c-sdk\src\wolfSSL\wolfcrypt\src/rsa.c ****         pkcsBlock[idx--] = 0x00;
 1061              		.loc 1 463 0
 1062 009a 002C     		cmp	r4, #0
 1063 009c 01DD     		ble	.L79
 463:..\kronos-c-sdk\src\wolfSSL\wolfcrypt\src/rsa.c ****         pkcsBlock[idx--] = 0x00;
 1064              		.loc 1 463 0 is_stmt 0 discriminator 1
 1065 009e 002B     		cmp	r3, #0
 1066 00a0 F6D1     		bne	.L80
 1067              	.L79:
 468:..\kronos-c-sdk\src\wolfSSL\wolfcrypt\src/rsa.c ****     XMEMCPY(pkcsBlock + idx, lHash, hLen);
 1068              		.loc 1 468 0 is_stmt 1
 1069 00a2 981B     		sub	r0, r3, r6
 1070 00a4 431C     		add	r3, r0, #1
 1071              	.LVL159:
 469:..\kronos-c-sdk\src\wolfSSL\wolfcrypt\src/rsa.c **** 
 1072              		.loc 1 469 0
 1073 00a6 E818     		add	r0, r5, r3
 1074 00a8 0CA9     		add	r1, sp, #48
 1075 00aa 321C     		mov	r2, r6
 1076 00ac FFF7FEFF 		bl	memcpy
 1077              	.LVL160:
 472:..\kronos-c-sdk\src\wolfSSL\wolfcrypt\src/rsa.c ****         #ifdef WOLFSSL_SMALL_STACK
 1078              		.loc 1 472 0
 1079 00b0 1F98     		ldr	r0, [sp, #124]
 1080 00b2 04A9     		add	r1, sp, #16
 1081 00b4 321C     		mov	r2, r6
 1082 00b6 FFF7FEFF 		bl	wc_RNG_GenerateBlock
ARM GAS  C:\Users\ddemidov\AppData\Local\Temp\ccr947bU.s 			page 37


 1083              	.LVL161:
 1084 00ba 0028     		cmp	r0, #0
 1085 00bc 68D1     		bne	.L77
 481:..\kronos-c-sdk\src\wolfSSL\wolfcrypt\src/rsa.c ****     if (dbMask == NULL) {
 1086              		.loc 1 481 0
 1087 00be BB1B     		sub	r3, r7, r6
 1088 00c0 013B     		sub	r3, r3, #1
 1089 00c2 9946     		mov	r9, r3
 1090              	.LVL162:
 1091 00c4 181C     		mov	r0, r3
 1092              	.LVL163:
 1093 00c6 FFF7FEFF 		bl	wolfSSL_Malloc
 1094              	.LVL164:
 1095 00ca 8346     		mov	fp, r0
 1096              	.LVL165:
 482:..\kronos-c-sdk\src\wolfSSL\wolfcrypt\src/rsa.c ****         #ifdef WOLFSSL_SMALL_STACK
 1097              		.loc 1 482 0
 1098 00cc 0028     		cmp	r0, #0
 1099 00ce 5BD0     		beq	.L97
 489:..\kronos-c-sdk\src\wolfSSL\wolfcrypt\src/rsa.c **** 
 1100              		.loc 1 489 0
 1101 00d0 0021     		mov	r1, #0
 1102 00d2 4A46     		mov	r2, r9
 1103 00d4 FFF7FEFF 		bl	memset
 1104              	.LVL166:
 491:..\kronos-c-sdk\src\wolfSSL\wolfcrypt\src/rsa.c ****     if (ret != 0) {
 1105              		.loc 1 491 0
 1106 00d8 4B46     		mov	r3, r9
 1107 00da 0093     		str	r3, [sp]
 1108 00dc 2198     		ldr	r0, [sp, #132]
 1109 00de 04A9     		add	r1, sp, #16
 1110 00e0 321C     		mov	r2, r6
 1111 00e2 5B46     		mov	r3, fp
 1112 00e4 FFF7FEFF 		bl	wc_MGF
 1113              	.LVL167:
 1114 00e8 041E     		sub	r4, r0, #0
 1115              	.LVL168:
 492:..\kronos-c-sdk\src\wolfSSL\wolfcrypt\src/rsa.c ****         XFREE(dbMask, NULL, DYNAMIC_TYPE_RSA);
 1116              		.loc 1 492 0
 1117 00ea 07D0     		beq	.L81
 1118              	.LVL169:
 1119              	.LBB25:
 493:..\kronos-c-sdk\src\wolfSSL\wolfcrypt\src/rsa.c ****         #ifdef WOLFSSL_SMALL_STACK
 1120              		.loc 1 493 0
 1121 00ec 5B46     		mov	r3, fp
 1122 00ee 002B     		cmp	r3, #0
 1123 00f0 02D0     		beq	.L82
 493:..\kronos-c-sdk\src\wolfSSL\wolfcrypt\src/rsa.c ****         #ifdef WOLFSSL_SMALL_STACK
 1124              		.loc 1 493 0 is_stmt 0 discriminator 1
 1125 00f2 5846     		mov	r0, fp
 1126              	.LVL170:
 1127 00f4 FFF7FEFF 		bl	wolfSSL_Free
 1128              	.LVL171:
 1129              	.L82:
 1130              	.LBE25:
 498:..\kronos-c-sdk\src\wolfSSL\wolfcrypt\src/rsa.c ****     }
 1131              		.loc 1 498 0 is_stmt 1
ARM GAS  C:\Users\ddemidov\AppData\Local\Temp\ccr947bU.s 			page 38


 1132 00f8 201C     		mov	r0, r4
 1133 00fa 49E0     		b	.L77
 1134              	.LVL172:
 1135              	.L81:
 502:..\kronos-c-sdk\src\wolfSSL\wolfcrypt\src/rsa.c ****     while (idx < pkcsBlockLen && (word32)i < (pkcsBlockLen - hLen -1)) {
 1136              		.loc 1 502 0
 1137 00fc D046     		mov	r8, r10
 1138              	.LVL173:
 1139 00fe 5346     		mov	r3, r10
 501:..\kronos-c-sdk\src\wolfSSL\wolfcrypt\src/rsa.c ****     idx = hLen + 1;
 1140              		.loc 1 501 0
 1141 0100 0022     		mov	r2, #0
 503:..\kronos-c-sdk\src\wolfSSL\wolfcrypt\src/rsa.c ****         pkcsBlock[idx] = dbMask[i++] ^ pkcsBlock[idx];
 1142              		.loc 1 503 0
 1143 0102 09E0     		b	.L83
 1144              	.LVL174:
 1145              	.L85:
 504:..\kronos-c-sdk\src\wolfSSL\wolfcrypt\src/rsa.c ****         idx++;
 1146              		.loc 1 504 0
 1147 0104 0132     		add	r2, r2, #1
 1148              	.LVL175:
 1149 0106 5846     		mov	r0, fp
 1150 0108 415C     		ldrb	r1, [r0, r1]
 1151 010a 8C46     		mov	ip, r1
 1152 010c E818     		add	r0, r5, r3
 1153 010e 0178     		ldrb	r1, [r0]
 1154 0110 6446     		mov	r4, ip
 1155 0112 6140     		eor	r1, r4
 1156 0114 0170     		strb	r1, [r0]
 505:..\kronos-c-sdk\src\wolfSSL\wolfcrypt\src/rsa.c ****     }
 1157              		.loc 1 505 0
 1158 0116 0133     		add	r3, r3, #1
 1159              	.LVL176:
 1160              	.L83:
 503:..\kronos-c-sdk\src\wolfSSL\wolfcrypt\src/rsa.c ****         pkcsBlock[idx] = dbMask[i++] ^ pkcsBlock[idx];
 1161              		.loc 1 503 0
 1162 0118 BB42     		cmp	r3, r7
 1163 011a 02D2     		bcs	.L84
 503:..\kronos-c-sdk\src\wolfSSL\wolfcrypt\src/rsa.c ****         pkcsBlock[idx] = dbMask[i++] ^ pkcsBlock[idx];
 1164              		.loc 1 503 0 is_stmt 0 discriminator 1
 1165 011c 111C     		mov	r1, r2
 1166 011e 9145     		cmp	r9, r2
 1167 0120 F0D8     		bhi	.L85
 1168              	.L84:
 1169              	.LVL177:
 1170              	.LBB26:
 507:..\kronos-c-sdk\src\wolfSSL\wolfcrypt\src/rsa.c **** 
 1171              		.loc 1 507 0 is_stmt 1
 1172 0122 5B46     		mov	r3, fp
 1173              	.LVL178:
 1174 0124 002B     		cmp	r3, #0
 1175 0126 02D0     		beq	.L86
 1176              	.LVL179:
 507:..\kronos-c-sdk\src\wolfSSL\wolfcrypt\src/rsa.c **** 
 1177              		.loc 1 507 0 is_stmt 0 discriminator 1
 1178 0128 5846     		mov	r0, fp
 1179 012a FFF7FEFF 		bl	wolfSSL_Free
ARM GAS  C:\Users\ddemidov\AppData\Local\Temp\ccr947bU.s 			page 39


 1180              	.LVL180:
 1181              	.L86:
 1182              	.LBE26:
 512:..\kronos-c-sdk\src\wolfSSL\wolfcrypt\src/rsa.c ****     /* create seedMask inline */
 1183              		.loc 1 512 0 is_stmt 1
 1184 012e 0023     		mov	r3, #0
 1185 0130 2B70     		strb	r3, [r5]
 514:..\kronos-c-sdk\src\wolfSSL\wolfcrypt\src/rsa.c ****                                                    pkcsBlock + 1, hLen)) != 0) {
 1186              		.loc 1 514 0
 1187 0132 711C     		add	r1, r6, #1
 1188 0134 6918     		add	r1, r5, r1
 1189 0136 6B1C     		add	r3, r5, #1
 1190 0138 0096     		str	r6, [sp]
 1191 013a 2198     		ldr	r0, [sp, #132]
 1192 013c 4A46     		mov	r2, r9
 1193 013e FFF7FEFF 		bl	wc_MGF
 1194              	.LVL181:
 1195 0142 0028     		cmp	r0, #0
 1196 0144 24D1     		bne	.L77
 1197 0146 0123     		mov	r3, #1
 1198 0148 0022     		mov	r2, #0
 1199 014a 07E0     		b	.L87
 1200              	.LVL182:
 1201              	.L88:
 526:..\kronos-c-sdk\src\wolfSSL\wolfcrypt\src/rsa.c ****         idx++;
 1202              		.loc 1 526 0
 1203 014c E818     		add	r0, r5, r3
 1204 014e 0778     		ldrb	r7, [r0]
 1205              	.LVL183:
 1206 0150 04A9     		add	r1, sp, #16
 1207 0152 895C     		ldrb	r1, [r1, r2]
 1208 0154 7940     		eor	r1, r7
 1209 0156 0170     		strb	r1, [r0]
 527:..\kronos-c-sdk\src\wolfSSL\wolfcrypt\src/rsa.c ****     }
 1210              		.loc 1 527 0
 1211 0158 0133     		add	r3, r3, #1
 1212              	.LVL184:
 526:..\kronos-c-sdk\src\wolfSSL\wolfcrypt\src/rsa.c ****         idx++;
 1213              		.loc 1 526 0
 1214 015a 0132     		add	r2, r2, #1
 1215              	.LVL185:
 1216              	.L87:
 525:..\kronos-c-sdk\src\wolfSSL\wolfcrypt\src/rsa.c ****         pkcsBlock[idx] = pkcsBlock[idx] ^ seed[i++];
 1217              		.loc 1 525 0
 1218 015c 4345     		cmp	r3, r8
 1219 015e 16D2     		bcs	.L99
 525:..\kronos-c-sdk\src\wolfSSL\wolfcrypt\src/rsa.c ****         pkcsBlock[idx] = pkcsBlock[idx] ^ seed[i++];
 1220              		.loc 1 525 0 is_stmt 0 discriminator 1
 1221 0160 B242     		cmp	r2, r6
 1222 0162 F3DB     		blt	.L88
 536:..\kronos-c-sdk\src\wolfSSL\wolfcrypt\src/rsa.c **** }
 1223              		.loc 1 536 0 is_stmt 1
 1224 0164 0020     		mov	r0, #0
 1225 0166 13E0     		b	.L77
 1226              	.LVL186:
 1227              	.L89:
 387:..\kronos-c-sdk\src\wolfSSL\wolfcrypt\src/rsa.c ****     }
ARM GAS  C:\Users\ddemidov\AppData\Local\Temp\ccr947bU.s 			page 40


 1228              		.loc 1 387 0
 1229 0168 8420     		mov	r0, #132
 1230              	.LVL187:
 1231 016a 4042     		neg	r0, r0
 1232 016c 10E0     		b	.L77
 1233              	.LVL188:
 1234              	.L90:
 1235 016e 0FE0     		b	.L77
 1236              	.L91:
 411:..\kronos-c-sdk\src\wolfSSL\wolfcrypt\src/rsa.c ****         }
 1237              		.loc 1 411 0
 1238 0170 7D20     		mov	r0, #125
 1239              	.LVL189:
 1240 0172 4042     		neg	r0, r0
 1241 0174 0CE0     		b	.L77
 1242              	.LVL190:
 1243              	.L93:
 439:..\kronos-c-sdk\src\wolfSSL\wolfcrypt\src/rsa.c ****     }
 1244              		.loc 1 439 0
 1245 0176 AD20     		mov	r0, #173
 1246              	.LVL191:
 1247 0178 4042     		neg	r0, r0
 1248 017a 09E0     		b	.L77
 1249              	.LVL192:
 1250              	.L94:
 448:..\kronos-c-sdk\src\wolfSSL\wolfcrypt\src/rsa.c ****     }
 1251              		.loc 1 448 0
 1252 017c AD20     		mov	r0, #173
 1253              	.LVL193:
 1254 017e 4042     		neg	r0, r0
 1255 0180 06E0     		b	.L77
 1256              	.LVL194:
 1257              	.L95:
 459:..\kronos-c-sdk\src\wolfSSL\wolfcrypt\src/rsa.c ****     }
 1258              		.loc 1 459 0
 1259 0182 8420     		mov	r0, #132
 1260 0184 4042     		neg	r0, r0
 1261 0186 03E0     		b	.L77
 1262              	.LVL195:
 1263              	.L97:
 487:..\kronos-c-sdk\src\wolfSSL\wolfcrypt\src/rsa.c ****     }
 1264              		.loc 1 487 0
 1265 0188 7D20     		mov	r0, #125
 1266              	.LVL196:
 1267 018a 4042     		neg	r0, r0
 1268 018c 00E0     		b	.L77
 1269              	.LVL197:
 1270              	.L99:
 536:..\kronos-c-sdk\src\wolfSSL\wolfcrypt\src/rsa.c **** }
 1271              		.loc 1 536 0
 1272 018e 0020     		mov	r0, #0
 1273              	.LVL198:
 1274              	.L77:
 537:..\kronos-c-sdk\src\wolfSSL\wolfcrypt\src/rsa.c **** #endif /* WC_NO_RSA_OAEP */
 1275              		.loc 1 537 0
 1276 0190 15B0     		add	sp, sp, #84
 1277              		@ sp needed
ARM GAS  C:\Users\ddemidov\AppData\Local\Temp\ccr947bU.s 			page 41


 1278 0192 3CBC     		pop	{r2, r3, r4, r5}
 1279 0194 9046     		mov	r8, r2
 1280 0196 9946     		mov	r9, r3
 1281 0198 A246     		mov	r10, r4
 1282 019a AB46     		mov	fp, r5
 1283 019c F0BD     		pop	{r4, r5, r6, r7, pc}
 1284              		.cfi_endproc
 1285              	.LFE16:
 1286              		.size	wc_RsaPad_OAEP, .-wc_RsaPad_OAEP
 1287 019e C046     		.section	.text.wc_RsaPad_ex,"ax",%progbits
 1288              		.align	2
 1289              		.code	16
 1290              		.thumb_func
 1291              		.type	wc_RsaPad_ex, %function
 1292              	wc_RsaPad_ex:
 1293              	.LFB18:
 579:..\kronos-c-sdk\src\wolfSSL\wolfcrypt\src/rsa.c ****     int ret;
 1294              		.loc 1 579 0
 1295              		.cfi_startproc
 1296              	.LVL199:
 1297 0000 70B5     		push	{r4, r5, r6, lr}
 1298              		.cfi_def_cfa_offset 16
 1299              		.cfi_offset 4, -16
 1300              		.cfi_offset 5, -12
 1301              		.cfi_offset 6, -8
 1302              		.cfi_offset 14, -4
 1303 0002 86B0     		sub	sp, sp, #24
 1304              		.cfi_def_cfa_offset 40
 1305 0004 0AAC     		add	r4, sp, #40
 1306              	.LVL200:
 1307 0006 2578     		ldrb	r5, [r4]
 1308 0008 0DAC     		add	r4, sp, #52
 1309              	.LVL201:
 1310 000a 2478     		ldrb	r4, [r4]
 1311              	.LVL202:
 582:..\kronos-c-sdk\src\wolfSSL\wolfcrypt\src/rsa.c ****     {
 1312              		.loc 1 582 0
 1313 000c 0C9E     		ldr	r6, [sp, #48]
 1314 000e 002E     		cmp	r6, #0
 1315 0010 02D0     		beq	.L102
 1316 0012 012E     		cmp	r6, #1
 1317 0014 06D0     		beq	.L103
 1318 0016 12E0     		b	.L105
 1319              	.L102:
 586:..\kronos-c-sdk\src\wolfSSL\wolfcrypt\src/rsa.c ****                                                                  padValue, rng);
 1320              		.loc 1 586 0
 1321 0018 0095     		str	r5, [sp]
 1322 001a 0B9C     		ldr	r4, [sp, #44]
 1323 001c 0194     		str	r4, [sp, #4]
 1324 001e FFF7FEFF 		bl	wc_RsaPad
 1325              	.LVL203:
 588:..\kronos-c-sdk\src\wolfSSL\wolfcrypt\src/rsa.c **** 
 1326              		.loc 1 588 0
 1327 0022 0EE0     		b	.L101
 1328              	.LVL204:
 1329              	.L103:
 592:..\kronos-c-sdk\src\wolfSSL\wolfcrypt\src/rsa.c ****                              padValue, rng, hType, mgf, optLabel, labelLen);
ARM GAS  C:\Users\ddemidov\AppData\Local\Temp\ccr947bU.s 			page 42


 1330              		.loc 1 592 0
 1331 0024 0095     		str	r5, [sp]
 1332 0026 0B9D     		ldr	r5, [sp, #44]
 1333 0028 0195     		str	r5, [sp, #4]
 1334 002a 0294     		str	r4, [sp, #8]
 1335 002c 0E9C     		ldr	r4, [sp, #56]
 1336 002e 0394     		str	r4, [sp, #12]
 1337 0030 0F9C     		ldr	r4, [sp, #60]
 1338 0032 0494     		str	r4, [sp, #16]
 1339 0034 109C     		ldr	r4, [sp, #64]
 1340 0036 0594     		str	r4, [sp, #20]
 1341 0038 FFF7FEFF 		bl	wc_RsaPad_OAEP
 1342              	.LVL205:
 594:..\kronos-c-sdk\src\wolfSSL\wolfcrypt\src/rsa.c **** 
 1343              		.loc 1 594 0
 1344 003c 01E0     		b	.L101
 1345              	.LVL206:
 1346              	.L105:
 598:..\kronos-c-sdk\src\wolfSSL\wolfcrypt\src/rsa.c ****     }
 1347              		.loc 1 598 0
 1348 003e C920     		mov	r0, #201
 1349              	.LVL207:
 1350 0040 4042     		neg	r0, r0
 1351              	.LVL208:
 1352              	.L101:
 609:..\kronos-c-sdk\src\wolfSSL\wolfcrypt\src/rsa.c **** 
 1353              		.loc 1 609 0
 1354 0042 06B0     		add	sp, sp, #24
 1355              		@ sp needed
 1356 0044 70BD     		pop	{r4, r5, r6, pc}
 1357              		.cfi_endproc
 1358              	.LFE18:
 1359              		.size	wc_RsaPad_ex, .-wc_RsaPad_ex
 1360 0046 C046     		.section	.text.wc_RsaUnPad_OAEP,"ax",%progbits
 1361              		.align	2
 1362              		.code	16
 1363              		.thumb_func
 1364              		.type	wc_RsaUnPad_OAEP, %function
 1365              	wc_RsaUnPad_OAEP:
 1366              	.LFB19:
 617:..\kronos-c-sdk\src\wolfSSL\wolfcrypt\src/rsa.c ****     int hLen;
 1367              		.loc 1 617 0
 1368              		.cfi_startproc
 1369              	.LVL209:
 1370 0000 F0B5     		push	{r4, r5, r6, r7, lr}
 1371              		.cfi_def_cfa_offset 20
 1372              		.cfi_offset 4, -20
 1373              		.cfi_offset 5, -16
 1374              		.cfi_offset 6, -12
 1375              		.cfi_offset 7, -8
 1376              		.cfi_offset 14, -4
 1377 0002 5F46     		mov	r7, fp
 1378 0004 5646     		mov	r6, r10
 1379 0006 4D46     		mov	r5, r9
 1380 0008 4446     		mov	r4, r8
 1381 000a F0B4     		push	{r4, r5, r6, r7}
 1382              		.cfi_def_cfa_offset 36
ARM GAS  C:\Users\ddemidov\AppData\Local\Temp\ccr947bU.s 			page 43


 1383              		.cfi_offset 8, -36
 1384              		.cfi_offset 9, -32
 1385              		.cfi_offset 10, -28
 1386              		.cfi_offset 11, -24
 1387 000c 8DB0     		sub	sp, sp, #52
 1388              		.cfi_def_cfa_offset 88
 1389 000e 041C     		mov	r4, r0
 1390 0010 8946     		mov	r9, r1
 1391 0012 0392     		str	r2, [sp, #12]
 1392 0014 0293     		str	r3, [sp, #8]
 624:..\kronos-c-sdk\src\wolfSSL\wolfcrypt\src/rsa.c ****     if ((hLen < 0) || (pkcsBlockLen < (2 * (word32)hLen + 2))) {
 1393              		.loc 1 624 0
 1394 0016 181C     		mov	r0, r3
 1395              	.LVL210:
 1396 0018 FFF7FEFF 		bl	wc_HashGetDigestSize
 1397              	.LVL211:
 1398 001c 061E     		sub	r6, r0, #0
 1399              	.LVL212:
 625:..\kronos-c-sdk\src\wolfSSL\wolfcrypt\src/rsa.c ****         return BAD_FUNC_ARG;
 1400              		.loc 1 625 0
 1401 001e 00DA     		bge	.LCB1728
 1402 0020 7EE0     		b	.L120	@long jump
 1403              	.LCB1728:
 625:..\kronos-c-sdk\src\wolfSSL\wolfcrypt\src/rsa.c ****         return BAD_FUNC_ARG;
 1404              		.loc 1 625 0 is_stmt 0 discriminator 1
 1405 0022 8046     		mov	r8, r0
 1406 0024 431C     		add	r3, r0, #1
 1407 0026 9A46     		mov	r10, r3
 1408 0028 5B00     		lsl	r3, r3, #1
 1409 002a 4B45     		cmp	r3, r9
 1410 002c 7BD8     		bhi	.L121
 629:..\kronos-c-sdk\src\wolfSSL\wolfcrypt\src/rsa.c ****     if (tmp == NULL) {
 1411              		.loc 1 629 0 is_stmt 1
 1412 002e 4846     		mov	r0, r9
 1413              	.LVL213:
 1414 0030 FFF7FEFF 		bl	wolfSSL_Malloc
 1415              	.LVL214:
 1416 0034 051E     		sub	r5, r0, #0
 1417              	.LVL215:
 630:..\kronos-c-sdk\src\wolfSSL\wolfcrypt\src/rsa.c ****         return MEMORY_E;
 1418              		.loc 1 630 0
 1419 0036 79D0     		beq	.L122
 633:..\kronos-c-sdk\src\wolfSSL\wolfcrypt\src/rsa.c **** 
 1420              		.loc 1 633 0
 1421 0038 0021     		mov	r1, #0
 1422 003a 4A46     		mov	r2, r9
 1423 003c FFF7FEFF 		bl	memset
 1424              	.LVL216:
 636:..\kronos-c-sdk\src\wolfSSL\wolfcrypt\src/rsa.c ****                                     pkcsBlockLen - hLen - 1, tmp, hLen)) != 0) {
 1425              		.loc 1 636 0
 1426 0040 5346     		mov	r3, r10
 1427 0042 E118     		add	r1, r4, r3
 637:..\kronos-c-sdk\src\wolfSSL\wolfcrypt\src/rsa.c ****         XFREE(tmp, NULL, DYNAMIC_TYPE_TMP_BUFFER);
 1428              		.loc 1 637 0
 1429 0044 4B46     		mov	r3, r9
 1430 0046 9B1B     		sub	r3, r3, r6
 636:..\kronos-c-sdk\src\wolfSSL\wolfcrypt\src/rsa.c ****                                     pkcsBlockLen - hLen - 1, tmp, hLen)) != 0) {
ARM GAS  C:\Users\ddemidov\AppData\Local\Temp\ccr947bU.s 			page 44


 1431              		.loc 1 636 0
 1432 0048 013B     		sub	r3, r3, #1
 1433 004a 9B46     		mov	fp, r3
 1434 004c 0096     		str	r6, [sp]
 1435 004e 1698     		ldr	r0, [sp, #88]
 1436 0050 1A1C     		mov	r2, r3
 1437 0052 2B1C     		mov	r3, r5
 1438 0054 FFF7FEFF 		bl	wc_MGF
 1439              	.LVL217:
 1440 0058 071E     		sub	r7, r0, #0
 1441              	.LVL218:
 1442 005a 0DD0     		beq	.L123
 1443              	.LVL219:
 1444              	.LBB27:
 638:..\kronos-c-sdk\src\wolfSSL\wolfcrypt\src/rsa.c ****         return ret;
 1445              		.loc 1 638 0
 1446 005c 002D     		cmp	r5, #0
 1447 005e 02D0     		beq	.L109
 638:..\kronos-c-sdk\src\wolfSSL\wolfcrypt\src/rsa.c ****         return ret;
 1448              		.loc 1 638 0 is_stmt 0 discriminator 1
 1449 0060 281C     		mov	r0, r5
 1450              	.LVL220:
 1451 0062 FFF7FEFF 		bl	wolfSSL_Free
 1452              	.LVL221:
 1453              	.L109:
 1454              	.LBE27:
 639:..\kronos-c-sdk\src\wolfSSL\wolfcrypt\src/rsa.c ****     }
 1455              		.loc 1 639 0 is_stmt 1
 1456 0066 381C     		mov	r0, r7
 1457 0068 65E0     		b	.L107
 1458              	.LVL222:
 1459              	.L110:
 644:..\kronos-c-sdk\src\wolfSSL\wolfcrypt\src/rsa.c ****     }
 1460              		.loc 1 644 0 discriminator 3
 1461 006a E918     		add	r1, r5, r3
 1462 006c 0878     		ldrb	r0, [r1]
 1463 006e 0133     		add	r3, r3, #1
 1464              	.LVL223:
 1465 0070 E25C     		ldrb	r2, [r4, r3]
 1466 0072 4240     		eor	r2, r0
 1467 0074 0A70     		strb	r2, [r1]
 1468              	.LVL224:
 1469 0076 00E0     		b	.L108
 1470              	.LVL225:
 1471              	.L123:
 1472 0078 0023     		mov	r3, #0
 1473              	.LVL226:
 1474              	.L108:
 643:..\kronos-c-sdk\src\wolfSSL\wolfcrypt\src/rsa.c ****         tmp[idx] = tmp[idx] ^ pkcsBlock[1 + idx];
 1475              		.loc 1 643 0 discriminator 1
 1476 007a 4345     		cmp	r3, r8
 1477 007c F5D3     		bcc	.L110
 648:..\kronos-c-sdk\src\wolfSSL\wolfcrypt\src/rsa.c ****                                                pkcsBlockLen - hLen - 1)) != 0) {
 1478              		.loc 1 648 0
 1479 007e AB19     		add	r3, r5, r6
 1480              	.LVL227:
 1481 0080 5A46     		mov	r2, fp
ARM GAS  C:\Users\ddemidov\AppData\Local\Temp\ccr947bU.s 			page 45


 1482 0082 0092     		str	r2, [sp]
 1483 0084 1698     		ldr	r0, [sp, #88]
 1484 0086 291C     		mov	r1, r5
 1485 0088 321C     		mov	r2, r6
 1486 008a FFF7FEFF 		bl	wc_MGF
 1487              	.LVL228:
 1488 008e 071E     		sub	r7, r0, #0
 1489              	.LVL229:
 1490 0090 10D0     		beq	.L124
 1491              	.LVL230:
 1492              	.LBB28:
 650:..\kronos-c-sdk\src\wolfSSL\wolfcrypt\src/rsa.c ****         return ret;
 1493              		.loc 1 650 0
 1494 0092 002D     		cmp	r5, #0
 1495 0094 02D0     		beq	.L112
 650:..\kronos-c-sdk\src\wolfSSL\wolfcrypt\src/rsa.c ****         return ret;
 1496              		.loc 1 650 0 is_stmt 0 discriminator 1
 1497 0096 281C     		mov	r0, r5
 1498              	.LVL231:
 1499 0098 FFF7FEFF 		bl	wolfSSL_Free
 1500              	.LVL232:
 1501              	.L112:
 1502              	.LBE28:
 651:..\kronos-c-sdk\src\wolfSSL\wolfcrypt\src/rsa.c ****     }
 1503              		.loc 1 651 0 is_stmt 1
 1504 009c 381C     		mov	r0, r7
 1505 009e 4AE0     		b	.L107
 1506              	.LVL233:
 1507              	.L113:
 656:..\kronos-c-sdk\src\wolfSSL\wolfcrypt\src/rsa.c ****     }
 1508              		.loc 1 656 0 discriminator 3
 1509 00a0 4346     		mov	r3, r8
 1510 00a2 D018     		add	r0, r2, r3
 1511 00a4 431C     		add	r3, r0, #1
 1512 00a6 E318     		add	r3, r4, r3
 1513 00a8 1F78     		ldrb	r7, [r3]
 1514 00aa 295C     		ldrb	r1, [r5, r0]
 1515 00ac 7940     		eor	r1, r7
 1516 00ae 1970     		strb	r1, [r3]
 655:..\kronos-c-sdk\src\wolfSSL\wolfcrypt\src/rsa.c ****         pkcsBlock[hLen + 1 + idx] = pkcsBlock[hLen + 1 + idx] ^ tmp[idx + hLen];
 1517              		.loc 1 655 0 discriminator 3
 1518 00b0 0132     		add	r2, r2, #1
 1519              	.LVL234:
 1520 00b2 00E0     		b	.L111
 1521              	.LVL235:
 1522              	.L124:
 1523 00b4 0022     		mov	r2, #0
 1524              	.LVL236:
 1525              	.L111:
 655:..\kronos-c-sdk\src\wolfSSL\wolfcrypt\src/rsa.c ****         pkcsBlock[hLen + 1 + idx] = pkcsBlock[hLen + 1 + idx] ^ tmp[idx + hLen];
 1526              		.loc 1 655 0 is_stmt 0 discriminator 1
 1527 00b6 5A45     		cmp	r2, fp
 1528 00b8 F2D3     		bcc	.L113
 1529              	.LVL237:
 1530              	.LBB29:
 660:..\kronos-c-sdk\src\wolfSSL\wolfcrypt\src/rsa.c **** 
 1531              		.loc 1 660 0 is_stmt 1
ARM GAS  C:\Users\ddemidov\AppData\Local\Temp\ccr947bU.s 			page 46


 1532 00ba 002D     		cmp	r5, #0
 1533 00bc 02D0     		beq	.L114
 660:..\kronos-c-sdk\src\wolfSSL\wolfcrypt\src/rsa.c **** 
 1534              		.loc 1 660 0 is_stmt 0 discriminator 1
 1535 00be 281C     		mov	r0, r5
 1536 00c0 FFF7FEFF 		bl	wolfSSL_Free
 1537              	.LVL238:
 1538              	.L114:
 1539              	.LBE29:
 663:..\kronos-c-sdk\src\wolfSSL\wolfcrypt\src/rsa.c ****     while (idx < pkcsBlockLen && pkcsBlock[idx] == 0) {idx++;}
 1540              		.loc 1 663 0 is_stmt 1
 1541 00c4 7500     		lsl	r5, r6, #1
 1542              	.LVL239:
 1543 00c6 0235     		add	r5, r5, #2
 1544              	.LVL240:
 664:..\kronos-c-sdk\src\wolfSSL\wolfcrypt\src/rsa.c **** 
 1545              		.loc 1 664 0
 1546 00c8 00E0     		b	.L115
 1547              	.L117:
 664:..\kronos-c-sdk\src\wolfSSL\wolfcrypt\src/rsa.c **** 
 1548              		.loc 1 664 0 is_stmt 0 discriminator 3
 1549 00ca 0135     		add	r5, r5, #1
 1550              	.LVL241:
 1551              	.L115:
 664:..\kronos-c-sdk\src\wolfSSL\wolfcrypt\src/rsa.c **** 
 1552              		.loc 1 664 0 discriminator 1
 1553 00cc 4D45     		cmp	r5, r9
 1554 00ce 02D2     		bcs	.L116
 664:..\kronos-c-sdk\src\wolfSSL\wolfcrypt\src/rsa.c **** 
 1555              		.loc 1 664 0 discriminator 2
 1556 00d0 635D     		ldrb	r3, [r4, r5]
 1557 00d2 002B     		cmp	r3, #0
 1558 00d4 F9D0     		beq	.L117
 1559              	.L116:
 667:..\kronos-c-sdk\src\wolfSSL\wolfcrypt\src/rsa.c ****         return ret;
 1560              		.loc 1 667 0 is_stmt 1
 1561 00d6 0096     		str	r6, [sp]
 1562 00d8 0298     		ldr	r0, [sp, #8]
 1563 00da 1799     		ldr	r1, [sp, #92]
 1564 00dc 189A     		ldr	r2, [sp, #96]
 1565 00de 04AB     		add	r3, sp, #16
 1566 00e0 FFF7FEFF 		bl	wc_Hash
 1567              	.LVL242:
 1568 00e4 0028     		cmp	r0, #0
 1569 00e6 26D1     		bne	.L107
 1570 00e8 0021     		mov	r1, #0
 1571 00ea 0023     		mov	r3, #0
 1572 00ec 07E0     		b	.L118
 1573              	.LVL243:
 1574              	.L119:
 1575              	.LBB30:
 1576              	.LBB31:
 1577              		.file 2 "..\\kronos-c-sdk\\src\\wolfSSL/wolfcrypt/src/misc.c"
   1:..\kronos-c-sdk\src\wolfSSL\wolfcrypt\src/misc.c **** /* misc.c
   2:..\kronos-c-sdk\src\wolfSSL\wolfcrypt\src/misc.c ****  *
   3:..\kronos-c-sdk\src\wolfSSL\wolfcrypt\src/misc.c ****  * Copyright (C) 2006-2016 wolfSSL Inc.
   4:..\kronos-c-sdk\src\wolfSSL\wolfcrypt\src/misc.c ****  *
ARM GAS  C:\Users\ddemidov\AppData\Local\Temp\ccr947bU.s 			page 47


   5:..\kronos-c-sdk\src\wolfSSL\wolfcrypt\src/misc.c ****  * This file is part of wolfSSL.
   6:..\kronos-c-sdk\src\wolfSSL\wolfcrypt\src/misc.c ****  *
   7:..\kronos-c-sdk\src\wolfSSL\wolfcrypt\src/misc.c ****  * wolfSSL is free software; you can redistribute it and/or modify
   8:..\kronos-c-sdk\src\wolfSSL\wolfcrypt\src/misc.c ****  * it under the terms of the GNU General Public License as published by
   9:..\kronos-c-sdk\src\wolfSSL\wolfcrypt\src/misc.c ****  * the Free Software Foundation; either version 2 of the License, or
  10:..\kronos-c-sdk\src\wolfSSL\wolfcrypt\src/misc.c ****  * (at your option) any later version.
  11:..\kronos-c-sdk\src\wolfSSL\wolfcrypt\src/misc.c ****  *
  12:..\kronos-c-sdk\src\wolfSSL\wolfcrypt\src/misc.c ****  * wolfSSL is distributed in the hope that it will be useful,
  13:..\kronos-c-sdk\src\wolfSSL\wolfcrypt\src/misc.c ****  * but WITHOUT ANY WARRANTY; without even the implied warranty of
  14:..\kronos-c-sdk\src\wolfSSL\wolfcrypt\src/misc.c ****  * MERCHANTABILITY or FITNESS FOR A PARTICULAR PURPOSE.  See the
  15:..\kronos-c-sdk\src\wolfSSL\wolfcrypt\src/misc.c ****  * GNU General Public License for more details.
  16:..\kronos-c-sdk\src\wolfSSL\wolfcrypt\src/misc.c ****  *
  17:..\kronos-c-sdk\src\wolfSSL\wolfcrypt\src/misc.c ****  * You should have received a copy of the GNU General Public License
  18:..\kronos-c-sdk\src\wolfSSL\wolfcrypt\src/misc.c ****  * along with this program; if not, write to the Free Software
  19:..\kronos-c-sdk\src\wolfSSL\wolfcrypt\src/misc.c ****  * Foundation, Inc., 51 Franklin Street, Fifth Floor, Boston, MA 02110-1335, USA
  20:..\kronos-c-sdk\src\wolfSSL\wolfcrypt\src/misc.c ****  */
  21:..\kronos-c-sdk\src\wolfSSL\wolfcrypt\src/misc.c **** 
  22:..\kronos-c-sdk\src\wolfSSL\wolfcrypt\src/misc.c **** 
  23:..\kronos-c-sdk\src\wolfSSL\wolfcrypt\src/misc.c **** #ifdef HAVE_CONFIG_H
  24:..\kronos-c-sdk\src\wolfSSL\wolfcrypt\src/misc.c ****     #include <config.h>
  25:..\kronos-c-sdk\src\wolfSSL\wolfcrypt\src/misc.c **** #endif
  26:..\kronos-c-sdk\src\wolfSSL\wolfcrypt\src/misc.c **** 
  27:..\kronos-c-sdk\src\wolfSSL\wolfcrypt\src/misc.c **** #include <wolfssl/wolfcrypt/settings.h>
  28:..\kronos-c-sdk\src\wolfSSL\wolfcrypt\src/misc.c **** 
  29:..\kronos-c-sdk\src\wolfSSL\wolfcrypt\src/misc.c **** #ifndef WOLF_CRYPT_MISC_C
  30:..\kronos-c-sdk\src\wolfSSL\wolfcrypt\src/misc.c **** #define WOLF_CRYPT_MISC_C
  31:..\kronos-c-sdk\src\wolfSSL\wolfcrypt\src/misc.c **** 
  32:..\kronos-c-sdk\src\wolfSSL\wolfcrypt\src/misc.c **** #include <wolfssl/wolfcrypt/misc.h>
  33:..\kronos-c-sdk\src\wolfSSL\wolfcrypt\src/misc.c **** 
  34:..\kronos-c-sdk\src\wolfSSL\wolfcrypt\src/misc.c **** /* inlining these functions is a huge speed increase and a small size decrease, 
  35:..\kronos-c-sdk\src\wolfSSL\wolfcrypt\src/misc.c ****    because the functions are smaller than function call setup/cleanup, e.g.,
  36:..\kronos-c-sdk\src\wolfSSL\wolfcrypt\src/misc.c ****    md5 benchmark is twice as fast with inline.  If you don't want it, then
  37:..\kronos-c-sdk\src\wolfSSL\wolfcrypt\src/misc.c ****    define NO_INLINE and compile this file into wolfssl, otherwise it's used as
  38:..\kronos-c-sdk\src\wolfSSL\wolfcrypt\src/misc.c ****    a source header
  39:..\kronos-c-sdk\src\wolfSSL\wolfcrypt\src/misc.c ****  */
  40:..\kronos-c-sdk\src\wolfSSL\wolfcrypt\src/misc.c **** 
  41:..\kronos-c-sdk\src\wolfSSL\wolfcrypt\src/misc.c **** #ifdef NO_INLINE
  42:..\kronos-c-sdk\src\wolfSSL\wolfcrypt\src/misc.c ****     #define STATIC
  43:..\kronos-c-sdk\src\wolfSSL\wolfcrypt\src/misc.c **** #else
  44:..\kronos-c-sdk\src\wolfSSL\wolfcrypt\src/misc.c ****     #define STATIC static
  45:..\kronos-c-sdk\src\wolfSSL\wolfcrypt\src/misc.c **** #endif
  46:..\kronos-c-sdk\src\wolfSSL\wolfcrypt\src/misc.c **** 
  47:..\kronos-c-sdk\src\wolfSSL\wolfcrypt\src/misc.c **** 
  48:..\kronos-c-sdk\src\wolfSSL\wolfcrypt\src/misc.c **** #ifdef INTEL_INTRINSICS
  49:..\kronos-c-sdk\src\wolfSSL\wolfcrypt\src/misc.c **** 
  50:..\kronos-c-sdk\src\wolfSSL\wolfcrypt\src/misc.c ****     #include <stdlib.h>      /* get intrinsic definitions */
  51:..\kronos-c-sdk\src\wolfSSL\wolfcrypt\src/misc.c **** 
  52:..\kronos-c-sdk\src\wolfSSL\wolfcrypt\src/misc.c ****     /* for non visual studio probably need no long version, 32 bit only
  53:..\kronos-c-sdk\src\wolfSSL\wolfcrypt\src/misc.c ****      * i.e., _rotl and _rotr */
  54:..\kronos-c-sdk\src\wolfSSL\wolfcrypt\src/misc.c ****     #pragma intrinsic(_lrotl, _lrotr)
  55:..\kronos-c-sdk\src\wolfSSL\wolfcrypt\src/misc.c **** 
  56:..\kronos-c-sdk\src\wolfSSL\wolfcrypt\src/misc.c ****     STATIC INLINE word32 rotlFixed(word32 x, word32 y)
  57:..\kronos-c-sdk\src\wolfSSL\wolfcrypt\src/misc.c ****     {
  58:..\kronos-c-sdk\src\wolfSSL\wolfcrypt\src/misc.c ****         return y ? _lrotl(x, y) : x;
  59:..\kronos-c-sdk\src\wolfSSL\wolfcrypt\src/misc.c ****     }
  60:..\kronos-c-sdk\src\wolfSSL\wolfcrypt\src/misc.c **** 
  61:..\kronos-c-sdk\src\wolfSSL\wolfcrypt\src/misc.c ****     STATIC INLINE word32 rotrFixed(word32 x, word32 y)
ARM GAS  C:\Users\ddemidov\AppData\Local\Temp\ccr947bU.s 			page 48


  62:..\kronos-c-sdk\src\wolfSSL\wolfcrypt\src/misc.c ****     {
  63:..\kronos-c-sdk\src\wolfSSL\wolfcrypt\src/misc.c ****         return y ? _lrotr(x, y) : x;
  64:..\kronos-c-sdk\src\wolfSSL\wolfcrypt\src/misc.c ****     }
  65:..\kronos-c-sdk\src\wolfSSL\wolfcrypt\src/misc.c **** 
  66:..\kronos-c-sdk\src\wolfSSL\wolfcrypt\src/misc.c **** #else /* generic */
  67:..\kronos-c-sdk\src\wolfSSL\wolfcrypt\src/misc.c **** 
  68:..\kronos-c-sdk\src\wolfSSL\wolfcrypt\src/misc.c ****     STATIC INLINE word32 rotlFixed(word32 x, word32 y)
  69:..\kronos-c-sdk\src\wolfSSL\wolfcrypt\src/misc.c ****     {
  70:..\kronos-c-sdk\src\wolfSSL\wolfcrypt\src/misc.c ****         return (x << y) | (x >> (sizeof(y) * 8 - y));
  71:..\kronos-c-sdk\src\wolfSSL\wolfcrypt\src/misc.c ****     }   
  72:..\kronos-c-sdk\src\wolfSSL\wolfcrypt\src/misc.c **** 
  73:..\kronos-c-sdk\src\wolfSSL\wolfcrypt\src/misc.c **** 
  74:..\kronos-c-sdk\src\wolfSSL\wolfcrypt\src/misc.c ****     STATIC INLINE word32 rotrFixed(word32 x, word32 y)
  75:..\kronos-c-sdk\src\wolfSSL\wolfcrypt\src/misc.c ****     {
  76:..\kronos-c-sdk\src\wolfSSL\wolfcrypt\src/misc.c ****         return (x >> y) | (x << (sizeof(y) * 8 - y));
  77:..\kronos-c-sdk\src\wolfSSL\wolfcrypt\src/misc.c ****     }
  78:..\kronos-c-sdk\src\wolfSSL\wolfcrypt\src/misc.c **** 
  79:..\kronos-c-sdk\src\wolfSSL\wolfcrypt\src/misc.c **** #endif
  80:..\kronos-c-sdk\src\wolfSSL\wolfcrypt\src/misc.c **** 
  81:..\kronos-c-sdk\src\wolfSSL\wolfcrypt\src/misc.c **** 
  82:..\kronos-c-sdk\src\wolfSSL\wolfcrypt\src/misc.c **** STATIC INLINE word32 ByteReverseWord32(word32 value)
  83:..\kronos-c-sdk\src\wolfSSL\wolfcrypt\src/misc.c **** {
  84:..\kronos-c-sdk\src\wolfSSL\wolfcrypt\src/misc.c **** #ifdef PPC_INTRINSICS
  85:..\kronos-c-sdk\src\wolfSSL\wolfcrypt\src/misc.c ****     /* PPC: load reverse indexed instruction */
  86:..\kronos-c-sdk\src\wolfSSL\wolfcrypt\src/misc.c ****     return (word32)__lwbrx(&value,0);
  87:..\kronos-c-sdk\src\wolfSSL\wolfcrypt\src/misc.c **** #elif defined(KEIL_INTRINSICS)
  88:..\kronos-c-sdk\src\wolfSSL\wolfcrypt\src/misc.c ****     return (word32)__rev(value);
  89:..\kronos-c-sdk\src\wolfSSL\wolfcrypt\src/misc.c **** #elif defined(FAST_ROTATE)
  90:..\kronos-c-sdk\src\wolfSSL\wolfcrypt\src/misc.c ****     /* 5 instructions with rotate instruction, 9 without */
  91:..\kronos-c-sdk\src\wolfSSL\wolfcrypt\src/misc.c ****     return (rotrFixed(value, 8U) & 0xff00ff00) |
  92:..\kronos-c-sdk\src\wolfSSL\wolfcrypt\src/misc.c ****            (rotlFixed(value, 8U) & 0x00ff00ff);
  93:..\kronos-c-sdk\src\wolfSSL\wolfcrypt\src/misc.c **** #else
  94:..\kronos-c-sdk\src\wolfSSL\wolfcrypt\src/misc.c ****     /* 6 instructions with rotate instruction, 8 without */
  95:..\kronos-c-sdk\src\wolfSSL\wolfcrypt\src/misc.c ****     value = ((value & 0xFF00FF00) >> 8) | ((value & 0x00FF00FF) << 8);
  96:..\kronos-c-sdk\src\wolfSSL\wolfcrypt\src/misc.c ****     return rotlFixed(value, 16U);
  97:..\kronos-c-sdk\src\wolfSSL\wolfcrypt\src/misc.c **** #endif
  98:..\kronos-c-sdk\src\wolfSSL\wolfcrypt\src/misc.c **** }
  99:..\kronos-c-sdk\src\wolfSSL\wolfcrypt\src/misc.c **** 
 100:..\kronos-c-sdk\src\wolfSSL\wolfcrypt\src/misc.c **** 
 101:..\kronos-c-sdk\src\wolfSSL\wolfcrypt\src/misc.c **** STATIC INLINE void ByteReverseWords(word32* out, const word32* in,
 102:..\kronos-c-sdk\src\wolfSSL\wolfcrypt\src/misc.c ****                                     word32 byteCount)
 103:..\kronos-c-sdk\src\wolfSSL\wolfcrypt\src/misc.c **** {
 104:..\kronos-c-sdk\src\wolfSSL\wolfcrypt\src/misc.c ****     word32 count = byteCount/(word32)sizeof(word32), i;
 105:..\kronos-c-sdk\src\wolfSSL\wolfcrypt\src/misc.c **** 
 106:..\kronos-c-sdk\src\wolfSSL\wolfcrypt\src/misc.c ****     for (i = 0; i < count; i++)
 107:..\kronos-c-sdk\src\wolfSSL\wolfcrypt\src/misc.c ****         out[i] = ByteReverseWord32(in[i]);
 108:..\kronos-c-sdk\src\wolfSSL\wolfcrypt\src/misc.c **** 
 109:..\kronos-c-sdk\src\wolfSSL\wolfcrypt\src/misc.c **** }
 110:..\kronos-c-sdk\src\wolfSSL\wolfcrypt\src/misc.c **** 
 111:..\kronos-c-sdk\src\wolfSSL\wolfcrypt\src/misc.c **** 
 112:..\kronos-c-sdk\src\wolfSSL\wolfcrypt\src/misc.c **** #ifdef WORD64_AVAILABLE
 113:..\kronos-c-sdk\src\wolfSSL\wolfcrypt\src/misc.c **** 
 114:..\kronos-c-sdk\src\wolfSSL\wolfcrypt\src/misc.c **** 
 115:..\kronos-c-sdk\src\wolfSSL\wolfcrypt\src/misc.c **** STATIC INLINE word64 rotlFixed64(word64 x, word64 y)
 116:..\kronos-c-sdk\src\wolfSSL\wolfcrypt\src/misc.c **** {
 117:..\kronos-c-sdk\src\wolfSSL\wolfcrypt\src/misc.c ****     return (x << y) | (x >> (sizeof(y) * 8 - y));
 118:..\kronos-c-sdk\src\wolfSSL\wolfcrypt\src/misc.c **** }  
ARM GAS  C:\Users\ddemidov\AppData\Local\Temp\ccr947bU.s 			page 49


 119:..\kronos-c-sdk\src\wolfSSL\wolfcrypt\src/misc.c **** 
 120:..\kronos-c-sdk\src\wolfSSL\wolfcrypt\src/misc.c **** 
 121:..\kronos-c-sdk\src\wolfSSL\wolfcrypt\src/misc.c **** STATIC INLINE word64 rotrFixed64(word64 x, word64 y)
 122:..\kronos-c-sdk\src\wolfSSL\wolfcrypt\src/misc.c **** {
 123:..\kronos-c-sdk\src\wolfSSL\wolfcrypt\src/misc.c ****     return (x >> y) | (x << (sizeof(y) * 8 - y));
 124:..\kronos-c-sdk\src\wolfSSL\wolfcrypt\src/misc.c **** }
 125:..\kronos-c-sdk\src\wolfSSL\wolfcrypt\src/misc.c **** 
 126:..\kronos-c-sdk\src\wolfSSL\wolfcrypt\src/misc.c **** 
 127:..\kronos-c-sdk\src\wolfSSL\wolfcrypt\src/misc.c **** STATIC INLINE word64 ByteReverseWord64(word64 value)
 128:..\kronos-c-sdk\src\wolfSSL\wolfcrypt\src/misc.c **** {
 129:..\kronos-c-sdk\src\wolfSSL\wolfcrypt\src/misc.c **** #ifdef WOLFCRYPT_SLOW_WORD64
 130:..\kronos-c-sdk\src\wolfSSL\wolfcrypt\src/misc.c **** 	return (word64)(ByteReverseWord32((word32)value)) << 32 | 
 131:..\kronos-c-sdk\src\wolfSSL\wolfcrypt\src/misc.c ****                     ByteReverseWord32((word32)(value>>32));
 132:..\kronos-c-sdk\src\wolfSSL\wolfcrypt\src/misc.c **** #else
 133:..\kronos-c-sdk\src\wolfSSL\wolfcrypt\src/misc.c **** 	value = ((value & W64LIT(0xFF00FF00FF00FF00)) >> 8) |
 134:..\kronos-c-sdk\src\wolfSSL\wolfcrypt\src/misc.c ****             ((value & W64LIT(0x00FF00FF00FF00FF)) << 8);
 135:..\kronos-c-sdk\src\wolfSSL\wolfcrypt\src/misc.c **** 	value = ((value & W64LIT(0xFFFF0000FFFF0000)) >> 16) |
 136:..\kronos-c-sdk\src\wolfSSL\wolfcrypt\src/misc.c ****             ((value & W64LIT(0x0000FFFF0000FFFF)) << 16);
 137:..\kronos-c-sdk\src\wolfSSL\wolfcrypt\src/misc.c **** 	return rotlFixed64(value, 32U);
 138:..\kronos-c-sdk\src\wolfSSL\wolfcrypt\src/misc.c **** #endif
 139:..\kronos-c-sdk\src\wolfSSL\wolfcrypt\src/misc.c **** }
 140:..\kronos-c-sdk\src\wolfSSL\wolfcrypt\src/misc.c **** 
 141:..\kronos-c-sdk\src\wolfSSL\wolfcrypt\src/misc.c **** 
 142:..\kronos-c-sdk\src\wolfSSL\wolfcrypt\src/misc.c **** STATIC INLINE void ByteReverseWords64(word64* out, const word64* in,
 143:..\kronos-c-sdk\src\wolfSSL\wolfcrypt\src/misc.c ****                                       word32 byteCount)
 144:..\kronos-c-sdk\src\wolfSSL\wolfcrypt\src/misc.c **** {
 145:..\kronos-c-sdk\src\wolfSSL\wolfcrypt\src/misc.c ****     word32 count = byteCount/(word32)sizeof(word64), i;
 146:..\kronos-c-sdk\src\wolfSSL\wolfcrypt\src/misc.c **** 
 147:..\kronos-c-sdk\src\wolfSSL\wolfcrypt\src/misc.c ****     for (i = 0; i < count; i++)
 148:..\kronos-c-sdk\src\wolfSSL\wolfcrypt\src/misc.c ****         out[i] = ByteReverseWord64(in[i]);
 149:..\kronos-c-sdk\src\wolfSSL\wolfcrypt\src/misc.c **** 
 150:..\kronos-c-sdk\src\wolfSSL\wolfcrypt\src/misc.c **** }
 151:..\kronos-c-sdk\src\wolfSSL\wolfcrypt\src/misc.c **** 
 152:..\kronos-c-sdk\src\wolfSSL\wolfcrypt\src/misc.c **** #endif /* WORD64_AVAILABLE */
 153:..\kronos-c-sdk\src\wolfSSL\wolfcrypt\src/misc.c **** 
 154:..\kronos-c-sdk\src\wolfSSL\wolfcrypt\src/misc.c **** 
 155:..\kronos-c-sdk\src\wolfSSL\wolfcrypt\src/misc.c **** STATIC INLINE void XorWords(wolfssl_word* r, const wolfssl_word* a, word32 n)
 156:..\kronos-c-sdk\src\wolfSSL\wolfcrypt\src/misc.c **** {
 157:..\kronos-c-sdk\src\wolfSSL\wolfcrypt\src/misc.c ****     word32 i;
 158:..\kronos-c-sdk\src\wolfSSL\wolfcrypt\src/misc.c **** 
 159:..\kronos-c-sdk\src\wolfSSL\wolfcrypt\src/misc.c ****     for (i = 0; i < n; i++) r[i] ^= a[i];
 160:..\kronos-c-sdk\src\wolfSSL\wolfcrypt\src/misc.c **** }
 161:..\kronos-c-sdk\src\wolfSSL\wolfcrypt\src/misc.c **** 
 162:..\kronos-c-sdk\src\wolfSSL\wolfcrypt\src/misc.c **** 
 163:..\kronos-c-sdk\src\wolfSSL\wolfcrypt\src/misc.c **** STATIC INLINE void xorbuf(void* buf, const void* mask, word32 count)
 164:..\kronos-c-sdk\src\wolfSSL\wolfcrypt\src/misc.c **** {
 165:..\kronos-c-sdk\src\wolfSSL\wolfcrypt\src/misc.c ****     if (((wolfssl_word)buf | (wolfssl_word)mask | count) % WOLFSSL_WORD_SIZE == 0)
 166:..\kronos-c-sdk\src\wolfSSL\wolfcrypt\src/misc.c ****         XorWords( (wolfssl_word*)buf,
 167:..\kronos-c-sdk\src\wolfSSL\wolfcrypt\src/misc.c ****                   (const wolfssl_word*)mask, count / WOLFSSL_WORD_SIZE);
 168:..\kronos-c-sdk\src\wolfSSL\wolfcrypt\src/misc.c ****     else {
 169:..\kronos-c-sdk\src\wolfSSL\wolfcrypt\src/misc.c ****         word32 i;
 170:..\kronos-c-sdk\src\wolfSSL\wolfcrypt\src/misc.c ****         byte*       b = (byte*)buf;
 171:..\kronos-c-sdk\src\wolfSSL\wolfcrypt\src/misc.c ****         const byte* m = (const byte*)mask;
 172:..\kronos-c-sdk\src\wolfSSL\wolfcrypt\src/misc.c **** 
 173:..\kronos-c-sdk\src\wolfSSL\wolfcrypt\src/misc.c ****         for (i = 0; i < count; i++) b[i] ^= m[i];
 174:..\kronos-c-sdk\src\wolfSSL\wolfcrypt\src/misc.c ****     }
 175:..\kronos-c-sdk\src\wolfSSL\wolfcrypt\src/misc.c **** }
ARM GAS  C:\Users\ddemidov\AppData\Local\Temp\ccr947bU.s 			page 50


 176:..\kronos-c-sdk\src\wolfSSL\wolfcrypt\src/misc.c **** 
 177:..\kronos-c-sdk\src\wolfSSL\wolfcrypt\src/misc.c **** 
 178:..\kronos-c-sdk\src\wolfSSL\wolfcrypt\src/misc.c **** /* Make sure compiler doesn't skip */
 179:..\kronos-c-sdk\src\wolfSSL\wolfcrypt\src/misc.c **** STATIC INLINE void ForceZero(const void* mem, word32 len)
 180:..\kronos-c-sdk\src\wolfSSL\wolfcrypt\src/misc.c **** {
 181:..\kronos-c-sdk\src\wolfSSL\wolfcrypt\src/misc.c ****     volatile byte* z = (volatile byte*)mem;
 182:..\kronos-c-sdk\src\wolfSSL\wolfcrypt\src/misc.c **** 
 183:..\kronos-c-sdk\src\wolfSSL\wolfcrypt\src/misc.c ****     while (len--) *z++ = 0;
 184:..\kronos-c-sdk\src\wolfSSL\wolfcrypt\src/misc.c **** }
 185:..\kronos-c-sdk\src\wolfSSL\wolfcrypt\src/misc.c **** 
 186:..\kronos-c-sdk\src\wolfSSL\wolfcrypt\src/misc.c **** 
 187:..\kronos-c-sdk\src\wolfSSL\wolfcrypt\src/misc.c **** /* check all length bytes for equality, return 0 on success */
 188:..\kronos-c-sdk\src\wolfSSL\wolfcrypt\src/misc.c **** STATIC INLINE int ConstantCompare(const byte* a, const byte* b, int length)
 189:..\kronos-c-sdk\src\wolfSSL\wolfcrypt\src/misc.c **** {
 190:..\kronos-c-sdk\src\wolfSSL\wolfcrypt\src/misc.c ****     int i;
 191:..\kronos-c-sdk\src\wolfSSL\wolfcrypt\src/misc.c ****     int compareSum = 0;
 192:..\kronos-c-sdk\src\wolfSSL\wolfcrypt\src/misc.c **** 
 193:..\kronos-c-sdk\src\wolfSSL\wolfcrypt\src/misc.c ****     for (i = 0; i < length; i++) {
 194:..\kronos-c-sdk\src\wolfSSL\wolfcrypt\src/misc.c ****         compareSum |= a[i] ^ b[i];
 1578              		.loc 2 194 0
 1579 00ee 5246     		mov	r2, r10
 1580 00f0 A218     		add	r2, r4, r2
 1581 00f2 D05C     		ldrb	r0, [r2, r3]
 1582 00f4 04AA     		add	r2, sp, #16
 1583 00f6 D25C     		ldrb	r2, [r2, r3]
 1584 00f8 4240     		eor	r2, r0
 1585 00fa 1143     		orr	r1, r2
 1586              	.LVL244:
 193:..\kronos-c-sdk\src\wolfSSL\wolfcrypt\src/misc.c ****         compareSum |= a[i] ^ b[i];
 1587              		.loc 2 193 0
 1588 00fc 0133     		add	r3, r3, #1
 1589              	.LVL245:
 1590              	.L118:
 1591 00fe 9E42     		cmp	r6, r3
 1592 0100 F5DC     		bgt	.L119
 1593              	.LVL246:
 1594              	.LBE31:
 1595              	.LBE30:
 679:..\kronos-c-sdk\src\wolfSSL\wolfcrypt\src/rsa.c ****     ret += pkcsBlock[0]     ^ 0x00; /* Y, the first value, should be 0 */
 1596              		.loc 1 679 0
 1597 0102 6F1C     		add	r7, r5, #1
 1598              	.LVL247:
 1599 0104 625D     		ldrb	r2, [r4, r5]
 1600 0106 0123     		mov	r3, #1
 1601              	.LVL248:
 1602 0108 5340     		eor	r3, r2
 1603 010a 5918     		add	r1, r3, r1
 1604              	.LVL249:
 680:..\kronos-c-sdk\src\wolfSSL\wolfcrypt\src/rsa.c **** 
 1605              		.loc 1 680 0
 1606 010c 2378     		ldrb	r3, [r4]
 1607 010e 5918     		add	r1, r3, r1
 1608              	.LVL250:
 682:..\kronos-c-sdk\src\wolfSSL\wolfcrypt\src/rsa.c ****         return BAD_PADDING_E;
 1609              		.loc 1 682 0
 1610 0110 0029     		cmp	r1, #0
 1611 0112 0ED1     		bne	.L126
ARM GAS  C:\Users\ddemidov\AppData\Local\Temp\ccr947bU.s 			page 51


 687:..\kronos-c-sdk\src\wolfSSL\wolfcrypt\src/rsa.c ****     return pkcsBlockLen - idx;
 1612              		.loc 1 687 0
 1613 0114 E419     		add	r4, r4, r7
 1614              	.LVL251:
 1615 0116 039B     		ldr	r3, [sp, #12]
 1616 0118 1C60     		str	r4, [r3]
 688:..\kronos-c-sdk\src\wolfSSL\wolfcrypt\src/rsa.c **** }
 1617              		.loc 1 688 0
 1618 011a 4B46     		mov	r3, r9
 1619 011c D81B     		sub	r0, r3, r7
 1620 011e 0AE0     		b	.L107
 1621              	.LVL252:
 1622              	.L120:
 626:..\kronos-c-sdk\src\wolfSSL\wolfcrypt\src/rsa.c ****     }
 1623              		.loc 1 626 0
 1624 0120 AD20     		mov	r0, #173
 1625              	.LVL253:
 1626 0122 4042     		neg	r0, r0
 1627 0124 07E0     		b	.L107
 1628              	.LVL254:
 1629              	.L121:
 1630 0126 AD20     		mov	r0, #173
 1631              	.LVL255:
 1632 0128 4042     		neg	r0, r0
 1633 012a 04E0     		b	.L107
 1634              	.LVL256:
 1635              	.L122:
 631:..\kronos-c-sdk\src\wolfSSL\wolfcrypt\src/rsa.c ****     }
 1636              		.loc 1 631 0
 1637 012c 7D20     		mov	r0, #125
 1638              	.LVL257:
 1639 012e 4042     		neg	r0, r0
 1640 0130 01E0     		b	.L107
 1641              	.LVL258:
 1642              	.L126:
 683:..\kronos-c-sdk\src\wolfSSL\wolfcrypt\src/rsa.c ****     }
 1643              		.loc 1 683 0
 1644 0132 C120     		mov	r0, #193
 1645 0134 4042     		neg	r0, r0
 1646              	.LVL259:
 1647              	.L107:
 689:..\kronos-c-sdk\src\wolfSSL\wolfcrypt\src/rsa.c **** #endif /* WC_NO_RSA_OAEP */
 1648              		.loc 1 689 0
 1649 0136 0DB0     		add	sp, sp, #52
 1650              		@ sp needed
 1651              	.LVL260:
 1652              	.LVL261:
 1653 0138 3CBC     		pop	{r2, r3, r4, r5}
 1654 013a 9046     		mov	r8, r2
 1655 013c 9946     		mov	r9, r3
 1656 013e A246     		mov	r10, r4
 1657 0140 AB46     		mov	fp, r5
 1658 0142 F0BD     		pop	{r4, r5, r6, r7, pc}
 1659              		.cfi_endproc
 1660              	.LFE19:
 1661              		.size	wc_RsaUnPad_OAEP, .-wc_RsaUnPad_OAEP
 1662              		.section	.text.wc_RsaUnPad_ex,"ax",%progbits
ARM GAS  C:\Users\ddemidov\AppData\Local\Temp\ccr947bU.s 			page 52


 1663              		.align	2
 1664              		.code	16
 1665              		.thumb_func
 1666              		.type	wc_RsaUnPad_ex, %function
 1667              	wc_RsaUnPad_ex:
 1668              	.LFB21:
 741:..\kronos-c-sdk\src\wolfSSL\wolfcrypt\src/rsa.c ****     int ret;
 1669              		.loc 1 741 0
 1670              		.cfi_startproc
 1671              	.LVL262:
 1672 0000 30B5     		push	{r4, r5, lr}
 1673              		.cfi_def_cfa_offset 12
 1674              		.cfi_offset 4, -12
 1675              		.cfi_offset 5, -8
 1676              		.cfi_offset 14, -4
 1677 0002 85B0     		sub	sp, sp, #20
 1678              		.cfi_def_cfa_offset 32
 1679 0004 08AC     		add	r4, sp, #32
 1680              	.LVL263:
 1681 0006 20CC     		ldmia	r4!, {r5}
 1682              	.LVL264:
 1683 0008 2478     		ldrb	r4, [r4]
 1684              	.LVL265:
 744:..\kronos-c-sdk\src\wolfSSL\wolfcrypt\src/rsa.c ****     {
 1685              		.loc 1 744 0
 1686 000a 002D     		cmp	r5, #0
 1687 000c 02D0     		beq	.L129
 1688 000e 012D     		cmp	r5, #1
 1689 0010 03D0     		beq	.L130
 1690 0012 0CE0     		b	.L132
 1691              	.L129:
 748:..\kronos-c-sdk\src\wolfSSL\wolfcrypt\src/rsa.c ****             break;
 1692              		.loc 1 748 0
 1693 0014 FFF7FEFF 		bl	RsaUnPad
 1694              	.LVL266:
 749:..\kronos-c-sdk\src\wolfSSL\wolfcrypt\src/rsa.c **** 
 1695              		.loc 1 749 0
 1696 0018 0BE0     		b	.L128
 1697              	.LVL267:
 1698              	.L130:
 753:..\kronos-c-sdk\src\wolfSSL\wolfcrypt\src/rsa.c ****                                                 hType, mgf, optLabel, labelLen);
 1699              		.loc 1 753 0
 1700 001a 0A9B     		ldr	r3, [sp, #40]
 1701              	.LVL268:
 1702 001c 0093     		str	r3, [sp]
 1703 001e 0B9B     		ldr	r3, [sp, #44]
 1704 0020 0193     		str	r3, [sp, #4]
 1705 0022 0C9B     		ldr	r3, [sp, #48]
 1706 0024 0293     		str	r3, [sp, #8]
 1707 0026 231C     		mov	r3, r4
 1708 0028 FFF7FEFF 		bl	wc_RsaUnPad_OAEP
 1709              	.LVL269:
 755:..\kronos-c-sdk\src\wolfSSL\wolfcrypt\src/rsa.c **** 
 1710              		.loc 1 755 0
 1711 002c 01E0     		b	.L128
 1712              	.LVL270:
 1713              	.L132:
ARM GAS  C:\Users\ddemidov\AppData\Local\Temp\ccr947bU.s 			page 53


 759:..\kronos-c-sdk\src\wolfSSL\wolfcrypt\src/rsa.c ****     }
 1714              		.loc 1 759 0
 1715 002e C920     		mov	r0, #201
 1716              	.LVL271:
 1717 0030 4042     		neg	r0, r0
 1718              	.LVL272:
 1719              	.L128:
 770:..\kronos-c-sdk\src\wolfSSL\wolfcrypt\src/rsa.c **** #endif /* WC_NO_RSA_OAEP */
 1720              		.loc 1 770 0
 1721 0032 05B0     		add	sp, sp, #20
 1722              		@ sp needed
 1723 0034 30BD     		pop	{r4, r5, pc}
 1724              		.cfi_endproc
 1725              	.LFE21:
 1726              		.size	wc_RsaUnPad_ex, .-wc_RsaUnPad_ex
 1727 0036 C046     		.section	.text.wc_InitRsaKey,"ax",%progbits
 1728              		.align	2
 1729              		.global	wc_InitRsaKey
 1730              		.code	16
 1731              		.thumb_func
 1732              		.type	wc_InitRsaKey, %function
 1733              	wc_InitRsaKey:
 1734              	.LFB12:
 165:..\kronos-c-sdk\src\wolfSSL\wolfcrypt\src/rsa.c **** #ifdef HAVE_CAVIUM
 1735              		.loc 1 165 0
 1736              		.cfi_startproc
 1737              	.LVL273:
 171:..\kronos-c-sdk\src\wolfSSL\wolfcrypt\src/rsa.c ****     key->heap = heap;
 1738              		.loc 1 171 0
 1739 0000 0122     		mov	r2, #1
 1740 0002 5242     		neg	r2, r2
 1741 0004 8023     		mov	r3, #128
 1742 0006 C250     		str	r2, [r0, r3]
 172:..\kronos-c-sdk\src\wolfSSL\wolfcrypt\src/rsa.c **** 
 1743              		.loc 1 172 0
 1744 0008 0433     		add	r3, r3, #4
 1745 000a C150     		str	r1, [r0, r3]
 176:..\kronos-c-sdk\src\wolfSSL\wolfcrypt\src/rsa.c **** 
 1746              		.loc 1 176 0
 1747 000c 0023     		mov	r3, #0
 1748 000e C361     		str	r3, [r0, #28]
 1749 0010 C360     		str	r3, [r0, #12]
 178:..\kronos-c-sdk\src\wolfSSL\wolfcrypt\src/rsa.c ****     key->q.dp = key->dP.dp = 0;
 1750              		.loc 1 178 0
 1751 0012 C363     		str	r3, [r0, #60]
 1752 0014 C362     		str	r3, [r0, #44]
 179:..\kronos-c-sdk\src\wolfSSL\wolfcrypt\src/rsa.c ****     key->u.dp = key->dQ.dp = 0;
 1753              		.loc 1 179 0
 1754 0016 C365     		str	r3, [r0, #92]
 1755 0018 C364     		str	r3, [r0, #76]
 180:..\kronos-c-sdk\src\wolfSSL\wolfcrypt\src/rsa.c **** #else
 1756              		.loc 1 180 0
 1757 001a C366     		str	r3, [r0, #108]
 1758 001c C367     		str	r3, [r0, #124]
 193:..\kronos-c-sdk\src\wolfSSL\wolfcrypt\src/rsa.c **** 
 1759              		.loc 1 193 0
 1760 001e 0020     		mov	r0, #0
ARM GAS  C:\Users\ddemidov\AppData\Local\Temp\ccr947bU.s 			page 54


 1761              	.LVL274:
 1762              		@ sp needed
 1763 0020 7047     		bx	lr
 1764              		.cfi_endproc
 1765              	.LFE12:
 1766              		.size	wc_InitRsaKey, .-wc_InitRsaKey
 1767 0022 C046     		.section	.text.wc_FreeRsaKey,"ax",%progbits
 1768              		.align	2
 1769              		.global	wc_FreeRsaKey
 1770              		.code	16
 1771              		.thumb_func
 1772              		.type	wc_FreeRsaKey, %function
 1773              	wc_FreeRsaKey:
 1774              	.LFB13:
 197:..\kronos-c-sdk\src\wolfSSL\wolfcrypt\src/rsa.c ****     (void)key;
 1775              		.loc 1 197 0
 1776              		.cfi_startproc
 1777              	.LVL275:
 1778 0000 10B5     		push	{r4, lr}
 1779              		.cfi_def_cfa_offset 8
 1780              		.cfi_offset 4, -8
 1781              		.cfi_offset 14, -4
 200:..\kronos-c-sdk\src\wolfSSL\wolfcrypt\src/rsa.c ****         return 0;
 1782              		.loc 1 200 0
 1783 0002 0028     		cmp	r0, #0
 1784 0004 22D0     		beq	.L135
 1785 0006 041C     		mov	r4, r0
 210:..\kronos-c-sdk\src\wolfSSL\wolfcrypt\src/rsa.c ****         mp_clear(&key->u);
 1786              		.loc 1 210 0
 1787 0008 8023     		mov	r3, #128
 1788 000a C358     		ldr	r3, [r0, r3]
 1789 000c 012B     		cmp	r3, #1
 1790 000e 16D1     		bne	.L136
 211:..\kronos-c-sdk\src\wolfSSL\wolfcrypt\src/rsa.c ****         mp_clear(&key->dQ);
 1791              		.loc 1 211 0
 1792 0010 7030     		add	r0, r0, #112
 1793              	.LVL276:
 1794 0012 FFF7FEFF 		bl	mp_clear
 1795              	.LVL277:
 212:..\kronos-c-sdk\src\wolfSSL\wolfcrypt\src/rsa.c ****         mp_clear(&key->dP);
 1796              		.loc 1 212 0
 1797 0016 201C     		mov	r0, r4
 1798 0018 6030     		add	r0, r0, #96
 1799 001a FFF7FEFF 		bl	mp_clear
 1800              	.LVL278:
 213:..\kronos-c-sdk\src\wolfSSL\wolfcrypt\src/rsa.c ****         mp_clear(&key->q);
 1801              		.loc 1 213 0
 1802 001e 201C     		mov	r0, r4
 1803 0020 5030     		add	r0, r0, #80
 1804 0022 FFF7FEFF 		bl	mp_clear
 1805              	.LVL279:
 214:..\kronos-c-sdk\src\wolfSSL\wolfcrypt\src/rsa.c ****         mp_clear(&key->p);
 1806              		.loc 1 214 0
 1807 0026 201C     		mov	r0, r4
 1808 0028 4030     		add	r0, r0, #64
 1809 002a FFF7FEFF 		bl	mp_clear
 1810              	.LVL280:
ARM GAS  C:\Users\ddemidov\AppData\Local\Temp\ccr947bU.s 			page 55


 215:..\kronos-c-sdk\src\wolfSSL\wolfcrypt\src/rsa.c ****         mp_clear(&key->d);
 1811              		.loc 1 215 0
 1812 002e 201C     		mov	r0, r4
 1813 0030 3030     		add	r0, r0, #48
 1814 0032 FFF7FEFF 		bl	mp_clear
 1815              	.LVL281:
 216:..\kronos-c-sdk\src\wolfSSL\wolfcrypt\src/rsa.c ****     }
 1816              		.loc 1 216 0
 1817 0036 201C     		mov	r0, r4
 1818 0038 2030     		add	r0, r0, #32
 1819 003a FFF7FEFF 		bl	mp_clear
 1820              	.LVL282:
 1821              	.L136:
 218:..\kronos-c-sdk\src\wolfSSL\wolfcrypt\src/rsa.c ****     mp_clear(&key->n);
 1822              		.loc 1 218 0
 1823 003e 201C     		mov	r0, r4
 1824 0040 1030     		add	r0, r0, #16
 1825 0042 FFF7FEFF 		bl	mp_clear
 1826              	.LVL283:
 219:..\kronos-c-sdk\src\wolfSSL\wolfcrypt\src/rsa.c **** #else
 1827              		.loc 1 219 0
 1828 0046 201C     		mov	r0, r4
 1829 0048 FFF7FEFF 		bl	mp_clear
 1830              	.LVL284:
 1831              	.L135:
 234:..\kronos-c-sdk\src\wolfSSL\wolfcrypt\src/rsa.c **** 
 1832              		.loc 1 234 0
 1833 004c 0020     		mov	r0, #0
 1834              		@ sp needed
 1835 004e 10BD     		pop	{r4, pc}
 1836              		.cfi_endproc
 1837              	.LFE13:
 1838              		.size	wc_FreeRsaKey, .-wc_FreeRsaKey
 1839              		.section	.text.wc_RsaPublicEncrypt,"ax",%progbits
 1840              		.align	2
 1841              		.global	wc_RsaPublicEncrypt
 1842              		.code	16
 1843              		.thumb_func
 1844              		.type	wc_RsaPublicEncrypt, %function
 1845              	wc_RsaPublicEncrypt:
 1846              	.LFB23:
 868:..\kronos-c-sdk\src\wolfSSL\wolfcrypt\src/rsa.c **** 
 869:..\kronos-c-sdk\src\wolfSSL\wolfcrypt\src/rsa.c **** 
 870:..\kronos-c-sdk\src\wolfSSL\wolfcrypt\src/rsa.c **** int wc_RsaPublicEncrypt(const byte* in, word32 inLen, byte* out, word32 outLen,
 871:..\kronos-c-sdk\src\wolfSSL\wolfcrypt\src/rsa.c ****                      RsaKey* key, WC_RNG* rng)
 872:..\kronos-c-sdk\src\wolfSSL\wolfcrypt\src/rsa.c **** {
 1847              		.loc 1 872 0
 1848              		.cfi_startproc
 1849              	.LVL285:
 1850 0000 F0B5     		push	{r4, r5, r6, r7, lr}
 1851              		.cfi_def_cfa_offset 20
 1852              		.cfi_offset 4, -20
 1853              		.cfi_offset 5, -16
 1854              		.cfi_offset 6, -12
 1855              		.cfi_offset 7, -8
 1856              		.cfi_offset 14, -4
 1857 0002 85B0     		sub	sp, sp, #20
ARM GAS  C:\Users\ddemidov\AppData\Local\Temp\ccr947bU.s 			page 56


 1858              		.cfi_def_cfa_offset 40
 1859 0004 071C     		mov	r7, r0
 1860 0006 0D1C     		mov	r5, r1
 1861 0008 161C     		mov	r6, r2
 1862 000a 0393     		str	r3, [sp, #12]
 873:..\kronos-c-sdk\src\wolfSSL\wolfcrypt\src/rsa.c ****     int sz, ret;
 874:..\kronos-c-sdk\src\wolfSSL\wolfcrypt\src/rsa.c **** 
 875:..\kronos-c-sdk\src\wolfSSL\wolfcrypt\src/rsa.c **** #ifdef HAVE_CAVIUM
 876:..\kronos-c-sdk\src\wolfSSL\wolfcrypt\src/rsa.c ****     if (key->magic == WOLFSSL_RSA_CAVIUM_MAGIC)
 877:..\kronos-c-sdk\src\wolfSSL\wolfcrypt\src/rsa.c ****         return CaviumRsaPublicEncrypt(in, inLen, out, outLen, key);
 878:..\kronos-c-sdk\src\wolfSSL\wolfcrypt\src/rsa.c **** #endif
 879:..\kronos-c-sdk\src\wolfSSL\wolfcrypt\src/rsa.c **** 
 880:..\kronos-c-sdk\src\wolfSSL\wolfcrypt\src/rsa.c ****     sz = mp_unsigned_bin_size(&key->n);
 1863              		.loc 1 880 0
 1864 000c 0A98     		ldr	r0, [sp, #40]
 1865              	.LVL286:
 1866 000e FFF7FEFF 		bl	mp_unsigned_bin_size
 1867              	.LVL287:
 1868 0012 041C     		mov	r4, r0
 1869              	.LVL288:
 881:..\kronos-c-sdk\src\wolfSSL\wolfcrypt\src/rsa.c ****     if (sz > (int)outLen)
 1870              		.loc 1 881 0
 1871 0014 039B     		ldr	r3, [sp, #12]
 1872 0016 8342     		cmp	r3, r0
 1873 0018 1EDB     		blt	.L140
 882:..\kronos-c-sdk\src\wolfSSL\wolfcrypt\src/rsa.c ****         return RSA_BUFFER_E;
 883:..\kronos-c-sdk\src\wolfSSL\wolfcrypt\src/rsa.c **** 
 884:..\kronos-c-sdk\src\wolfSSL\wolfcrypt\src/rsa.c ****     if (inLen > (word32)(sz - RSA_MIN_PAD_SZ))
 1874              		.loc 1 884 0
 1875 001a 031C     		mov	r3, r0
 1876 001c 0B3B     		sub	r3, r3, #11
 1877 001e AB42     		cmp	r3, r5
 1878 0020 1DD3     		bcc	.L141
 885:..\kronos-c-sdk\src\wolfSSL\wolfcrypt\src/rsa.c ****         return RSA_BUFFER_E;
 886:..\kronos-c-sdk\src\wolfSSL\wolfcrypt\src/rsa.c **** 
 887:..\kronos-c-sdk\src\wolfSSL\wolfcrypt\src/rsa.c ****     ret = wc_RsaPad(in, inLen, out, sz, RSA_BLOCK_TYPE_2, rng);
 1879              		.loc 1 887 0
 1880 0022 0223     		mov	r3, #2
 1881 0024 0093     		str	r3, [sp]
 1882 0026 0B9B     		ldr	r3, [sp, #44]
 1883 0028 0193     		str	r3, [sp, #4]
 1884 002a 381C     		mov	r0, r7
 1885              	.LVL289:
 1886 002c 291C     		mov	r1, r5
 1887 002e 321C     		mov	r2, r6
 1888 0030 231C     		mov	r3, r4
 1889 0032 FFF7FEFF 		bl	wc_RsaPad
 1890              	.LVL290:
 888:..\kronos-c-sdk\src\wolfSSL\wolfcrypt\src/rsa.c ****     if (ret != 0)
 1891              		.loc 1 888 0
 1892 0036 0028     		cmp	r0, #0
 1893 0038 13D1     		bne	.L138
 889:..\kronos-c-sdk\src\wolfSSL\wolfcrypt\src/rsa.c ****         return ret;
 890:..\kronos-c-sdk\src\wolfSSL\wolfcrypt\src/rsa.c **** 
 891:..\kronos-c-sdk\src\wolfSSL\wolfcrypt\src/rsa.c ****     if ((ret = wc_RsaFunction(out, sz, out, &outLen,
 1894              		.loc 1 891 0
 1895 003a 0023     		mov	r3, #0
ARM GAS  C:\Users\ddemidov\AppData\Local\Temp\ccr947bU.s 			page 57


 1896 003c 0093     		str	r3, [sp]
 1897 003e 0A9B     		ldr	r3, [sp, #40]
 1898 0040 0193     		str	r3, [sp, #4]
 1899 0042 301C     		mov	r0, r6
 1900              	.LVL291:
 1901 0044 211C     		mov	r1, r4
 1902 0046 321C     		mov	r2, r6
 1903 0048 03AB     		add	r3, sp, #12
 1904              	.LVL292:
 1905 004a FFF7FEFF 		bl	wc_RsaFunction
 1906              	.LVL293:
 1907 004e 0028     		cmp	r0, #0
 1908 0050 00DA     		bge	.L139
 892:..\kronos-c-sdk\src\wolfSSL\wolfcrypt\src/rsa.c ****                               RSA_PUBLIC_ENCRYPT, key)) < 0)
 893:..\kronos-c-sdk\src\wolfSSL\wolfcrypt\src/rsa.c ****         sz = ret;
 1909              		.loc 1 893 0
 1910 0052 041C     		mov	r4, r0
 1911              	.LVL294:
 1912              	.L139:
 894:..\kronos-c-sdk\src\wolfSSL\wolfcrypt\src/rsa.c **** 
 895:..\kronos-c-sdk\src\wolfSSL\wolfcrypt\src/rsa.c ****     return sz;
 1913              		.loc 1 895 0
 1914 0054 201C     		mov	r0, r4
 1915              	.LVL295:
 1916 0056 04E0     		b	.L138
 1917              	.LVL296:
 1918              	.L140:
 882:..\kronos-c-sdk\src\wolfSSL\wolfcrypt\src/rsa.c **** 
 1919              		.loc 1 882 0
 1920 0058 8320     		mov	r0, #131
 1921              	.LVL297:
 1922 005a 4042     		neg	r0, r0
 1923 005c 01E0     		b	.L138
 1924              	.LVL298:
 1925              	.L141:
 885:..\kronos-c-sdk\src\wolfSSL\wolfcrypt\src/rsa.c **** 
 1926              		.loc 1 885 0
 1927 005e 8320     		mov	r0, #131
 1928              	.LVL299:
 1929 0060 4042     		neg	r0, r0
 1930              	.L138:
 896:..\kronos-c-sdk\src\wolfSSL\wolfcrypt\src/rsa.c **** }
 1931              		.loc 1 896 0
 1932 0062 05B0     		add	sp, sp, #20
 1933              		@ sp needed
 1934              	.LVL300:
 1935              	.LVL301:
 1936              	.LVL302:
 1937              	.LVL303:
 1938 0064 F0BD     		pop	{r4, r5, r6, r7, pc}
 1939              		.cfi_endproc
 1940              	.LFE23:
 1941              		.size	wc_RsaPublicEncrypt, .-wc_RsaPublicEncrypt
 1942 0066 C046     		.section	.text.wc_RsaPublicEncrypt_ex,"ax",%progbits
 1943              		.align	2
 1944              		.global	wc_RsaPublicEncrypt_ex
 1945              		.code	16
ARM GAS  C:\Users\ddemidov\AppData\Local\Temp\ccr947bU.s 			page 58


 1946              		.thumb_func
 1947              		.type	wc_RsaPublicEncrypt_ex, %function
 1948              	wc_RsaPublicEncrypt_ex:
 1949              	.LFB24:
 897:..\kronos-c-sdk\src\wolfSSL\wolfcrypt\src/rsa.c **** 
 898:..\kronos-c-sdk\src\wolfSSL\wolfcrypt\src/rsa.c **** 
 899:..\kronos-c-sdk\src\wolfSSL\wolfcrypt\src/rsa.c **** #ifndef WC_NO_RSA_OAEP
 900:..\kronos-c-sdk\src\wolfSSL\wolfcrypt\src/rsa.c **** /* Gives the option of choosing padding type
 901:..\kronos-c-sdk\src\wolfSSL\wolfcrypt\src/rsa.c ****    in : input to be encrypted
 902:..\kronos-c-sdk\src\wolfSSL\wolfcrypt\src/rsa.c ****    inLen: length of input buffer
 903:..\kronos-c-sdk\src\wolfSSL\wolfcrypt\src/rsa.c ****    out: encrypted output
 904:..\kronos-c-sdk\src\wolfSSL\wolfcrypt\src/rsa.c ****    outLen: length of encrypted output buffer
 905:..\kronos-c-sdk\src\wolfSSL\wolfcrypt\src/rsa.c ****    key   : wolfSSL initialized RSA key struct
 906:..\kronos-c-sdk\src\wolfSSL\wolfcrypt\src/rsa.c ****    rng   : wolfSSL initialized random number struct
 907:..\kronos-c-sdk\src\wolfSSL\wolfcrypt\src/rsa.c ****    type  : type of padding to use ie WC_RSA_OAEP_PAD
 908:..\kronos-c-sdk\src\wolfSSL\wolfcrypt\src/rsa.c ****    hash  : type of hash algorithm to use found in wolfssl/wolfcrypt/hash.h
 909:..\kronos-c-sdk\src\wolfSSL\wolfcrypt\src/rsa.c ****    mgf   : type of mask generation function to use
 910:..\kronos-c-sdk\src\wolfSSL\wolfcrypt\src/rsa.c ****    label : optional label
 911:..\kronos-c-sdk\src\wolfSSL\wolfcrypt\src/rsa.c ****    labelSz : size of optional label buffer */
 912:..\kronos-c-sdk\src\wolfSSL\wolfcrypt\src/rsa.c **** int wc_RsaPublicEncrypt_ex(const byte* in, word32 inLen, byte* out,
 913:..\kronos-c-sdk\src\wolfSSL\wolfcrypt\src/rsa.c ****                     word32 outLen, RsaKey* key, WC_RNG* rng, int type,
 914:..\kronos-c-sdk\src\wolfSSL\wolfcrypt\src/rsa.c ****                     enum wc_HashType hash, int mgf, byte* label, word32 labelSz)
 915:..\kronos-c-sdk\src\wolfSSL\wolfcrypt\src/rsa.c **** {
 1950              		.loc 1 915 0
 1951              		.cfi_startproc
 1952              	.LVL304:
 1953 0000 F0B5     		push	{r4, r5, r6, r7, lr}
 1954              		.cfi_def_cfa_offset 20
 1955              		.cfi_offset 4, -20
 1956              		.cfi_offset 5, -16
 1957              		.cfi_offset 6, -12
 1958              		.cfi_offset 7, -8
 1959              		.cfi_offset 14, -4
 1960 0002 8BB0     		sub	sp, sp, #44
 1961              		.cfi_def_cfa_offset 64
 1962 0004 0890     		str	r0, [sp, #32]
 1963 0006 0D1C     		mov	r5, r1
 1964 0008 161C     		mov	r6, r2
 1965 000a 0993     		str	r3, [sp, #36]
 1966 000c 13AB     		add	r3, sp, #76
 1967              	.LVL305:
 1968 000e 1F78     		ldrb	r7, [r3]
 916:..\kronos-c-sdk\src\wolfSSL\wolfcrypt\src/rsa.c ****     int sz, ret;
 917:..\kronos-c-sdk\src\wolfSSL\wolfcrypt\src/rsa.c **** 
 918:..\kronos-c-sdk\src\wolfSSL\wolfcrypt\src/rsa.c **** #ifdef HAVE_CAVIUM
 919:..\kronos-c-sdk\src\wolfSSL\wolfcrypt\src/rsa.c ****     if (key->magic == WOLFSSL_RSA_CAVIUM_MAGIC)
 920:..\kronos-c-sdk\src\wolfSSL\wolfcrypt\src/rsa.c ****         return CaviumRsaPublicEncrypt(in, inLen, out, outLen, key);
 921:..\kronos-c-sdk\src\wolfSSL\wolfcrypt\src/rsa.c **** #endif
 922:..\kronos-c-sdk\src\wolfSSL\wolfcrypt\src/rsa.c **** 
 923:..\kronos-c-sdk\src\wolfSSL\wolfcrypt\src/rsa.c ****     sz = mp_unsigned_bin_size(&key->n);
 1969              		.loc 1 923 0
 1970 0010 1098     		ldr	r0, [sp, #64]
 1971              	.LVL306:
 1972 0012 FFF7FEFF 		bl	mp_unsigned_bin_size
 1973              	.LVL307:
 1974 0016 041C     		mov	r4, r0
 1975              	.LVL308:
ARM GAS  C:\Users\ddemidov\AppData\Local\Temp\ccr947bU.s 			page 59


 924:..\kronos-c-sdk\src\wolfSSL\wolfcrypt\src/rsa.c ****     if (sz > (int)outLen)
 1976              		.loc 1 924 0
 1977 0018 099B     		ldr	r3, [sp, #36]
 1978 001a 8342     		cmp	r3, r0
 1979 001c 27DB     		blt	.L147
 925:..\kronos-c-sdk\src\wolfSSL\wolfcrypt\src/rsa.c ****         return RSA_BUFFER_E;
 926:..\kronos-c-sdk\src\wolfSSL\wolfcrypt\src/rsa.c **** 
 927:..\kronos-c-sdk\src\wolfSSL\wolfcrypt\src/rsa.c ****     if (inLen > (word32)(sz - RSA_MIN_PAD_SZ))
 1980              		.loc 1 927 0
 1981 001e 031C     		mov	r3, r0
 1982 0020 0B3B     		sub	r3, r3, #11
 1983 0022 AB42     		cmp	r3, r5
 1984 0024 26D3     		bcc	.L148
 928:..\kronos-c-sdk\src\wolfSSL\wolfcrypt\src/rsa.c ****         return RSA_BUFFER_E;
 929:..\kronos-c-sdk\src\wolfSSL\wolfcrypt\src/rsa.c **** 
 930:..\kronos-c-sdk\src\wolfSSL\wolfcrypt\src/rsa.c ****     ret = wc_RsaPad_ex(in, inLen, out, sz, RSA_BLOCK_TYPE_2, rng,
 1985              		.loc 1 930 0
 1986 0026 0223     		mov	r3, #2
 1987 0028 0093     		str	r3, [sp]
 1988 002a 119B     		ldr	r3, [sp, #68]
 1989 002c 0193     		str	r3, [sp, #4]
 1990 002e 129B     		ldr	r3, [sp, #72]
 1991 0030 0293     		str	r3, [sp, #8]
 1992 0032 0397     		str	r7, [sp, #12]
 1993 0034 149B     		ldr	r3, [sp, #80]
 1994 0036 0493     		str	r3, [sp, #16]
 1995 0038 159B     		ldr	r3, [sp, #84]
 1996 003a 0593     		str	r3, [sp, #20]
 1997 003c 169B     		ldr	r3, [sp, #88]
 1998 003e 0693     		str	r3, [sp, #24]
 1999 0040 0898     		ldr	r0, [sp, #32]
 2000              	.LVL309:
 2001 0042 291C     		mov	r1, r5
 2002 0044 321C     		mov	r2, r6
 2003 0046 231C     		mov	r3, r4
 2004 0048 FFF7FEFF 		bl	wc_RsaPad_ex
 2005              	.LVL310:
 931:..\kronos-c-sdk\src\wolfSSL\wolfcrypt\src/rsa.c ****                                                type, hash, mgf, label, labelSz);
 932:..\kronos-c-sdk\src\wolfSSL\wolfcrypt\src/rsa.c ****     if (ret != 0)
 2006              		.loc 1 932 0
 2007 004c 0028     		cmp	r0, #0
 2008 004e 13D1     		bne	.L145
 933:..\kronos-c-sdk\src\wolfSSL\wolfcrypt\src/rsa.c ****         return ret;
 934:..\kronos-c-sdk\src\wolfSSL\wolfcrypt\src/rsa.c **** 
 935:..\kronos-c-sdk\src\wolfSSL\wolfcrypt\src/rsa.c ****     if ((ret = wc_RsaFunction(out, sz, out, &outLen,
 2009              		.loc 1 935 0
 2010 0050 0023     		mov	r3, #0
 2011 0052 0093     		str	r3, [sp]
 2012 0054 109B     		ldr	r3, [sp, #64]
 2013 0056 0193     		str	r3, [sp, #4]
 2014 0058 301C     		mov	r0, r6
 2015              	.LVL311:
 2016 005a 211C     		mov	r1, r4
 2017 005c 321C     		mov	r2, r6
 2018 005e 09AB     		add	r3, sp, #36
 2019              	.LVL312:
 2020 0060 FFF7FEFF 		bl	wc_RsaFunction
ARM GAS  C:\Users\ddemidov\AppData\Local\Temp\ccr947bU.s 			page 60


 2021              	.LVL313:
 2022 0064 0028     		cmp	r0, #0
 2023 0066 00DA     		bge	.L146
 936:..\kronos-c-sdk\src\wolfSSL\wolfcrypt\src/rsa.c ****                               RSA_PUBLIC_ENCRYPT, key)) < 0)
 937:..\kronos-c-sdk\src\wolfSSL\wolfcrypt\src/rsa.c ****         sz = ret;
 2024              		.loc 1 937 0
 2025 0068 041C     		mov	r4, r0
 2026              	.LVL314:
 2027              	.L146:
 938:..\kronos-c-sdk\src\wolfSSL\wolfcrypt\src/rsa.c **** 
 939:..\kronos-c-sdk\src\wolfSSL\wolfcrypt\src/rsa.c ****     return sz;
 2028              		.loc 1 939 0
 2029 006a 201C     		mov	r0, r4
 2030              	.LVL315:
 2031 006c 04E0     		b	.L145
 2032              	.LVL316:
 2033              	.L147:
 925:..\kronos-c-sdk\src\wolfSSL\wolfcrypt\src/rsa.c **** 
 2034              		.loc 1 925 0
 2035 006e 8320     		mov	r0, #131
 2036              	.LVL317:
 2037 0070 4042     		neg	r0, r0
 2038 0072 01E0     		b	.L145
 2039              	.LVL318:
 2040              	.L148:
 928:..\kronos-c-sdk\src\wolfSSL\wolfcrypt\src/rsa.c **** 
 2041              		.loc 1 928 0
 2042 0074 8320     		mov	r0, #131
 2043              	.LVL319:
 2044 0076 4042     		neg	r0, r0
 2045              	.L145:
 940:..\kronos-c-sdk\src\wolfSSL\wolfcrypt\src/rsa.c **** }
 2046              		.loc 1 940 0
 2047 0078 0BB0     		add	sp, sp, #44
 2048              		@ sp needed
 2049              	.LVL320:
 2050              	.LVL321:
 2051              	.LVL322:
 2052 007a F0BD     		pop	{r4, r5, r6, r7, pc}
 2053              		.cfi_endproc
 2054              	.LFE24:
 2055              		.size	wc_RsaPublicEncrypt_ex, .-wc_RsaPublicEncrypt_ex
 2056              		.section	.text.wc_RsaPrivateDecryptInline,"ax",%progbits
 2057              		.align	2
 2058              		.global	wc_RsaPrivateDecryptInline
 2059              		.code	16
 2060              		.thumb_func
 2061              		.type	wc_RsaPrivateDecryptInline, %function
 2062              	wc_RsaPrivateDecryptInline:
 2063              	.LFB25:
 941:..\kronos-c-sdk\src\wolfSSL\wolfcrypt\src/rsa.c **** #endif /* WC_NO_RSA_OAEP */
 942:..\kronos-c-sdk\src\wolfSSL\wolfcrypt\src/rsa.c **** 
 943:..\kronos-c-sdk\src\wolfSSL\wolfcrypt\src/rsa.c **** 
 944:..\kronos-c-sdk\src\wolfSSL\wolfcrypt\src/rsa.c **** int wc_RsaPrivateDecryptInline(byte* in, word32 inLen, byte** out, RsaKey* key)
 945:..\kronos-c-sdk\src\wolfSSL\wolfcrypt\src/rsa.c **** {
 2064              		.loc 1 945 0
 2065              		.cfi_startproc
ARM GAS  C:\Users\ddemidov\AppData\Local\Temp\ccr947bU.s 			page 61


 2066              	.LVL323:
 2067 0000 30B5     		push	{r4, r5, lr}
 2068              		.cfi_def_cfa_offset 12
 2069              		.cfi_offset 4, -12
 2070              		.cfi_offset 5, -8
 2071              		.cfi_offset 14, -4
 2072 0002 85B0     		sub	sp, sp, #20
 2073              		.cfi_def_cfa_offset 32
 2074 0004 041C     		mov	r4, r0
 2075 0006 0391     		str	r1, [sp, #12]
 2076 0008 151C     		mov	r5, r2
 946:..\kronos-c-sdk\src\wolfSSL\wolfcrypt\src/rsa.c ****     int ret;
 947:..\kronos-c-sdk\src\wolfSSL\wolfcrypt\src/rsa.c **** 
 948:..\kronos-c-sdk\src\wolfSSL\wolfcrypt\src/rsa.c **** #ifdef HAVE_CAVIUM
 949:..\kronos-c-sdk\src\wolfSSL\wolfcrypt\src/rsa.c ****     if (key->magic == WOLFSSL_RSA_CAVIUM_MAGIC) {
 950:..\kronos-c-sdk\src\wolfSSL\wolfcrypt\src/rsa.c ****         ret = CaviumRsaPrivateDecrypt(in, inLen, in, inLen, key);
 951:..\kronos-c-sdk\src\wolfSSL\wolfcrypt\src/rsa.c ****         if (ret > 0)
 952:..\kronos-c-sdk\src\wolfSSL\wolfcrypt\src/rsa.c ****             *out = in;
 953:..\kronos-c-sdk\src\wolfSSL\wolfcrypt\src/rsa.c ****         return ret;
 954:..\kronos-c-sdk\src\wolfSSL\wolfcrypt\src/rsa.c ****     }
 955:..\kronos-c-sdk\src\wolfSSL\wolfcrypt\src/rsa.c **** #endif
 956:..\kronos-c-sdk\src\wolfSSL\wolfcrypt\src/rsa.c **** 
 957:..\kronos-c-sdk\src\wolfSSL\wolfcrypt\src/rsa.c ****     if ((ret = wc_RsaFunction(in, inLen, in, &inLen, RSA_PRIVATE_DECRYPT, key))
 2077              		.loc 1 957 0
 2078 000a 0322     		mov	r2, #3
 2079              	.LVL324:
 2080 000c 0092     		str	r2, [sp]
 2081 000e 0193     		str	r3, [sp, #4]
 2082 0010 201C     		mov	r0, r4
 2083 0012 221C     		mov	r2, r4
 2084 0014 03AB     		add	r3, sp, #12
 2085              	.LVL325:
 2086 0016 FFF7FEFF 		bl	wc_RsaFunction
 2087              	.LVL326:
 2088 001a 0028     		cmp	r0, #0
 2089 001c 05DB     		blt	.L152
 958:..\kronos-c-sdk\src\wolfSSL\wolfcrypt\src/rsa.c ****             < 0) {
 959:..\kronos-c-sdk\src\wolfSSL\wolfcrypt\src/rsa.c ****         return ret;
 960:..\kronos-c-sdk\src\wolfSSL\wolfcrypt\src/rsa.c ****     }
 961:..\kronos-c-sdk\src\wolfSSL\wolfcrypt\src/rsa.c **** 
 962:..\kronos-c-sdk\src\wolfSSL\wolfcrypt\src/rsa.c ****     return RsaUnPad(in, inLen, out, RSA_BLOCK_TYPE_2);
 2090              		.loc 1 962 0
 2091 001e 201C     		mov	r0, r4
 2092              	.LVL327:
 2093 0020 0399     		ldr	r1, [sp, #12]
 2094 0022 2A1C     		mov	r2, r5
 2095 0024 0223     		mov	r3, #2
 2096 0026 FFF7FEFF 		bl	RsaUnPad
 2097              	.LVL328:
 2098              	.L152:
 963:..\kronos-c-sdk\src\wolfSSL\wolfcrypt\src/rsa.c **** }
 2099              		.loc 1 963 0
 2100 002a 05B0     		add	sp, sp, #20
 2101              		@ sp needed
 2102              	.LVL329:
 2103              	.LVL330:
 2104 002c 30BD     		pop	{r4, r5, pc}
ARM GAS  C:\Users\ddemidov\AppData\Local\Temp\ccr947bU.s 			page 62


 2105              		.cfi_endproc
 2106              	.LFE25:
 2107              		.size	wc_RsaPrivateDecryptInline, .-wc_RsaPrivateDecryptInline
 2108 002e C046     		.section	.text.wc_RsaPrivateDecryptInline_ex,"ax",%progbits
 2109              		.align	2
 2110              		.global	wc_RsaPrivateDecryptInline_ex
 2111              		.code	16
 2112              		.thumb_func
 2113              		.type	wc_RsaPrivateDecryptInline_ex, %function
 2114              	wc_RsaPrivateDecryptInline_ex:
 2115              	.LFB26:
 964:..\kronos-c-sdk\src\wolfSSL\wolfcrypt\src/rsa.c **** 
 965:..\kronos-c-sdk\src\wolfSSL\wolfcrypt\src/rsa.c **** 
 966:..\kronos-c-sdk\src\wolfSSL\wolfcrypt\src/rsa.c **** #ifndef WC_NO_RSA_OAEP
 967:..\kronos-c-sdk\src\wolfSSL\wolfcrypt\src/rsa.c **** /* Gives the option of choosing padding type
 968:..\kronos-c-sdk\src\wolfSSL\wolfcrypt\src/rsa.c ****    in : input to be decrypted
 969:..\kronos-c-sdk\src\wolfSSL\wolfcrypt\src/rsa.c ****    inLen: length of input buffer
 970:..\kronos-c-sdk\src\wolfSSL\wolfcrypt\src/rsa.c ****    out: pointer to place of decrypted message
 971:..\kronos-c-sdk\src\wolfSSL\wolfcrypt\src/rsa.c ****    key   : wolfSSL initialized RSA key struct
 972:..\kronos-c-sdk\src\wolfSSL\wolfcrypt\src/rsa.c ****    type  : type of padding to use ie WC_RSA_OAEP_PAD
 973:..\kronos-c-sdk\src\wolfSSL\wolfcrypt\src/rsa.c ****    hash  : type of hash algorithm to use found in wolfssl/wolfcrypt/hash.h
 974:..\kronos-c-sdk\src\wolfSSL\wolfcrypt\src/rsa.c ****    mgf   : type of mask generation function to use
 975:..\kronos-c-sdk\src\wolfSSL\wolfcrypt\src/rsa.c ****    label : optional label
 976:..\kronos-c-sdk\src\wolfSSL\wolfcrypt\src/rsa.c ****    labelSz : size of optional label buffer */
 977:..\kronos-c-sdk\src\wolfSSL\wolfcrypt\src/rsa.c **** int wc_RsaPrivateDecryptInline_ex(byte* in, word32 inLen, byte** out,
 978:..\kronos-c-sdk\src\wolfSSL\wolfcrypt\src/rsa.c ****                           RsaKey* key, int type, enum wc_HashType hash, int mgf,
 979:..\kronos-c-sdk\src\wolfSSL\wolfcrypt\src/rsa.c ****                           byte* label, word32 labelSz)
 980:..\kronos-c-sdk\src\wolfSSL\wolfcrypt\src/rsa.c **** {
 2116              		.loc 1 980 0
 2117              		.cfi_startproc
 2118              	.LVL331:
 2119 0000 F0B5     		push	{r4, r5, r6, r7, lr}
 2120              		.cfi_def_cfa_offset 20
 2121              		.cfi_offset 4, -20
 2122              		.cfi_offset 5, -16
 2123              		.cfi_offset 6, -12
 2124              		.cfi_offset 7, -8
 2125              		.cfi_offset 14, -4
 2126 0002 89B0     		sub	sp, sp, #36
 2127              		.cfi_def_cfa_offset 56
 2128 0004 041C     		mov	r4, r0
 2129 0006 0791     		str	r1, [sp, #28]
 2130 0008 151C     		mov	r5, r2
 2131 000a 0EAA     		add	r2, sp, #56
 2132              	.LVL332:
 2133 000c 80CA     		ldmia	r2!, {r7}
 2134              	.LVL333:
 2135 000e 1678     		ldrb	r6, [r2]
 981:..\kronos-c-sdk\src\wolfSSL\wolfcrypt\src/rsa.c ****     int ret;
 982:..\kronos-c-sdk\src\wolfSSL\wolfcrypt\src/rsa.c **** 
 983:..\kronos-c-sdk\src\wolfSSL\wolfcrypt\src/rsa.c ****     /* sanity check on arguments */
 984:..\kronos-c-sdk\src\wolfSSL\wolfcrypt\src/rsa.c ****     if (in == NULL || key == NULL) {
 2136              		.loc 1 984 0
 2137 0010 0028     		cmp	r0, #0
 2138 0012 21D0     		beq	.L157
 2139              		.loc 1 984 0 is_stmt 0 discriminator 1
 2140 0014 002B     		cmp	r3, #0
ARM GAS  C:\Users\ddemidov\AppData\Local\Temp\ccr947bU.s 			page 63


 2141 0016 22D0     		beq	.L158
 985:..\kronos-c-sdk\src\wolfSSL\wolfcrypt\src/rsa.c ****         return BAD_FUNC_ARG;
 986:..\kronos-c-sdk\src\wolfSSL\wolfcrypt\src/rsa.c ****     }
 987:..\kronos-c-sdk\src\wolfSSL\wolfcrypt\src/rsa.c **** 
 988:..\kronos-c-sdk\src\wolfSSL\wolfcrypt\src/rsa.c ****     /* check if given a label size but not given a label buffer */
 989:..\kronos-c-sdk\src\wolfSSL\wolfcrypt\src/rsa.c ****     if (label == NULL && labelSz > 0) {
 2142              		.loc 1 989 0 is_stmt 1
 2143 0018 119A     		ldr	r2, [sp, #68]
 2144              	.LVL334:
 2145 001a 002A     		cmp	r2, #0
 2146 001c 02D1     		bne	.L156
 2147              		.loc 1 989 0 is_stmt 0 discriminator 1
 2148 001e 129A     		ldr	r2, [sp, #72]
 2149 0020 002A     		cmp	r2, #0
 2150 0022 1FD1     		bne	.L159
 2151              	.L156:
 990:..\kronos-c-sdk\src\wolfSSL\wolfcrypt\src/rsa.c ****         return BAD_FUNC_ARG;
 991:..\kronos-c-sdk\src\wolfSSL\wolfcrypt\src/rsa.c ****     }
 992:..\kronos-c-sdk\src\wolfSSL\wolfcrypt\src/rsa.c **** 
 993:..\kronos-c-sdk\src\wolfSSL\wolfcrypt\src/rsa.c **** #ifdef HAVE_CAVIUM
 994:..\kronos-c-sdk\src\wolfSSL\wolfcrypt\src/rsa.c ****     if (key->magic == WOLFSSL_RSA_CAVIUM_MAGIC) {
 995:..\kronos-c-sdk\src\wolfSSL\wolfcrypt\src/rsa.c ****         ret = CaviumRsaPrivateDecrypt(in, inLen, in, inLen, key);
 996:..\kronos-c-sdk\src\wolfSSL\wolfcrypt\src/rsa.c ****         if (ret > 0)
 997:..\kronos-c-sdk\src\wolfSSL\wolfcrypt\src/rsa.c ****             *out = in;
 998:..\kronos-c-sdk\src\wolfSSL\wolfcrypt\src/rsa.c ****         return ret;
 999:..\kronos-c-sdk\src\wolfSSL\wolfcrypt\src/rsa.c ****     }
1000:..\kronos-c-sdk\src\wolfSSL\wolfcrypt\src/rsa.c **** #endif
1001:..\kronos-c-sdk\src\wolfSSL\wolfcrypt\src/rsa.c **** 
1002:..\kronos-c-sdk\src\wolfSSL\wolfcrypt\src/rsa.c ****     if ((ret = wc_RsaFunction(in, inLen, in, &inLen, RSA_PRIVATE_DECRYPT, key))
 2152              		.loc 1 1002 0 is_stmt 1
 2153 0024 0322     		mov	r2, #3
 2154 0026 0092     		str	r2, [sp]
 2155 0028 0193     		str	r3, [sp, #4]
 2156 002a 201C     		mov	r0, r4
 2157              	.LVL335:
 2158 002c 0799     		ldr	r1, [sp, #28]
 2159              	.LVL336:
 2160 002e 221C     		mov	r2, r4
 2161 0030 07AB     		add	r3, sp, #28
 2162              	.LVL337:
 2163 0032 FFF7FEFF 		bl	wc_RsaFunction
 2164              	.LVL338:
 2165 0036 0028     		cmp	r0, #0
 2166 0038 16DB     		blt	.L155
1003:..\kronos-c-sdk\src\wolfSSL\wolfcrypt\src/rsa.c ****             < 0) {
1004:..\kronos-c-sdk\src\wolfSSL\wolfcrypt\src/rsa.c ****         return ret;
1005:..\kronos-c-sdk\src\wolfSSL\wolfcrypt\src/rsa.c ****     }
1006:..\kronos-c-sdk\src\wolfSSL\wolfcrypt\src/rsa.c **** 
1007:..\kronos-c-sdk\src\wolfSSL\wolfcrypt\src/rsa.c ****     return wc_RsaUnPad_ex(in, inLen, out, RSA_BLOCK_TYPE_2, type, hash, mgf,
 2167              		.loc 1 1007 0
 2168 003a 0097     		str	r7, [sp]
 2169 003c 0196     		str	r6, [sp, #4]
 2170 003e 109B     		ldr	r3, [sp, #64]
 2171 0040 0293     		str	r3, [sp, #8]
 2172 0042 119B     		ldr	r3, [sp, #68]
 2173 0044 0393     		str	r3, [sp, #12]
 2174 0046 129B     		ldr	r3, [sp, #72]
ARM GAS  C:\Users\ddemidov\AppData\Local\Temp\ccr947bU.s 			page 64


 2175 0048 0493     		str	r3, [sp, #16]
 2176 004a 201C     		mov	r0, r4
 2177              	.LVL339:
 2178 004c 0799     		ldr	r1, [sp, #28]
 2179 004e 2A1C     		mov	r2, r5
 2180 0050 0223     		mov	r3, #2
 2181 0052 FFF7FEFF 		bl	wc_RsaUnPad_ex
 2182              	.LVL340:
 2183 0056 07E0     		b	.L155
 2184              	.LVL341:
 2185              	.L157:
 985:..\kronos-c-sdk\src\wolfSSL\wolfcrypt\src/rsa.c ****     }
 2186              		.loc 1 985 0
 2187 0058 AD20     		mov	r0, #173
 2188              	.LVL342:
 2189 005a 4042     		neg	r0, r0
 2190 005c 04E0     		b	.L155
 2191              	.LVL343:
 2192              	.L158:
 2193 005e AD20     		mov	r0, #173
 2194              	.LVL344:
 2195 0060 4042     		neg	r0, r0
 2196 0062 01E0     		b	.L155
 2197              	.LVL345:
 2198              	.L159:
 990:..\kronos-c-sdk\src\wolfSSL\wolfcrypt\src/rsa.c ****         return BAD_FUNC_ARG;
 2199              		.loc 1 990 0
 2200 0064 AD20     		mov	r0, #173
 2201              	.LVL346:
 2202 0066 4042     		neg	r0, r0
 2203              	.LVL347:
 2204              	.L155:
1008:..\kronos-c-sdk\src\wolfSSL\wolfcrypt\src/rsa.c ****                                                                 label, labelSz);
1009:..\kronos-c-sdk\src\wolfSSL\wolfcrypt\src/rsa.c **** }
 2205              		.loc 1 1009 0
 2206 0068 09B0     		add	sp, sp, #36
 2207              		@ sp needed
 2208              	.LVL348:
 2209              	.LVL349:
 2210 006a F0BD     		pop	{r4, r5, r6, r7, pc}
 2211              		.cfi_endproc
 2212              	.LFE26:
 2213              		.size	wc_RsaPrivateDecryptInline_ex, .-wc_RsaPrivateDecryptInline_ex
 2214              		.section	.text.wc_RsaPrivateDecrypt,"ax",%progbits
 2215              		.align	2
 2216              		.global	wc_RsaPrivateDecrypt
 2217              		.code	16
 2218              		.thumb_func
 2219              		.type	wc_RsaPrivateDecrypt, %function
 2220              	wc_RsaPrivateDecrypt:
 2221              	.LFB27:
1010:..\kronos-c-sdk\src\wolfSSL\wolfcrypt\src/rsa.c **** #endif /* WC_NO_RSA_OAEP */
1011:..\kronos-c-sdk\src\wolfSSL\wolfcrypt\src/rsa.c **** 
1012:..\kronos-c-sdk\src\wolfSSL\wolfcrypt\src/rsa.c **** 
1013:..\kronos-c-sdk\src\wolfSSL\wolfcrypt\src/rsa.c **** int wc_RsaPrivateDecrypt(const byte* in, word32 inLen, byte* out, word32 outLen,
1014:..\kronos-c-sdk\src\wolfSSL\wolfcrypt\src/rsa.c ****                      RsaKey* key)
1015:..\kronos-c-sdk\src\wolfSSL\wolfcrypt\src/rsa.c **** {
ARM GAS  C:\Users\ddemidov\AppData\Local\Temp\ccr947bU.s 			page 65


 2222              		.loc 1 1015 0
 2223              		.cfi_startproc
 2224              	.LVL350:
 2225 0000 F0B5     		push	{r4, r5, r6, r7, lr}
 2226              		.cfi_def_cfa_offset 20
 2227              		.cfi_offset 4, -20
 2228              		.cfi_offset 5, -16
 2229              		.cfi_offset 6, -12
 2230              		.cfi_offset 7, -8
 2231              		.cfi_offset 14, -4
 2232 0002 85B0     		sub	sp, sp, #20
 2233              		.cfi_def_cfa_offset 40
 2234 0004 051C     		mov	r5, r0
 2235 0006 0F1C     		mov	r7, r1
 2236 0008 0192     		str	r2, [sp, #4]
 2237 000a 1E1C     		mov	r6, r3
1016:..\kronos-c-sdk\src\wolfSSL\wolfcrypt\src/rsa.c ****     int plainLen;
1017:..\kronos-c-sdk\src\wolfSSL\wolfcrypt\src/rsa.c ****     byte*  tmp;
1018:..\kronos-c-sdk\src\wolfSSL\wolfcrypt\src/rsa.c ****     byte*  pad = 0;
 2238              		.loc 1 1018 0
 2239 000c 0023     		mov	r3, #0
 2240              	.LVL351:
 2241 000e 0393     		str	r3, [sp, #12]
1019:..\kronos-c-sdk\src\wolfSSL\wolfcrypt\src/rsa.c **** 
1020:..\kronos-c-sdk\src\wolfSSL\wolfcrypt\src/rsa.c **** #ifdef HAVE_CAVIUM
1021:..\kronos-c-sdk\src\wolfSSL\wolfcrypt\src/rsa.c ****     if (key->magic == WOLFSSL_RSA_CAVIUM_MAGIC)
1022:..\kronos-c-sdk\src\wolfSSL\wolfcrypt\src/rsa.c ****         return CaviumRsaPrivateDecrypt(in, inLen, out, outLen, key);
1023:..\kronos-c-sdk\src\wolfSSL\wolfcrypt\src/rsa.c **** #endif
1024:..\kronos-c-sdk\src\wolfSSL\wolfcrypt\src/rsa.c **** 
1025:..\kronos-c-sdk\src\wolfSSL\wolfcrypt\src/rsa.c ****     tmp = (byte*)XMALLOC(inLen, key->heap, DYNAMIC_TYPE_RSA);
 2242              		.loc 1 1025 0
 2243 0010 081C     		mov	r0, r1
 2244              	.LVL352:
 2245 0012 FFF7FEFF 		bl	wolfSSL_Malloc
 2246              	.LVL353:
 2247 0016 041E     		sub	r4, r0, #0
 2248              	.LVL354:
1026:..\kronos-c-sdk\src\wolfSSL\wolfcrypt\src/rsa.c ****     if (tmp == NULL) {
 2249              		.loc 1 1026 0
 2250 0018 2CD0     		beq	.L169
1027:..\kronos-c-sdk\src\wolfSSL\wolfcrypt\src/rsa.c ****         return MEMORY_E;
1028:..\kronos-c-sdk\src\wolfSSL\wolfcrypt\src/rsa.c ****     }
1029:..\kronos-c-sdk\src\wolfSSL\wolfcrypt\src/rsa.c **** 
1030:..\kronos-c-sdk\src\wolfSSL\wolfcrypt\src/rsa.c ****     XMEMCPY(tmp, in, inLen);
 2251              		.loc 1 1030 0
 2252 001a 291C     		mov	r1, r5
 2253 001c 3A1C     		mov	r2, r7
 2254 001e FFF7FEFF 		bl	memcpy
 2255              	.LVL355:
1031:..\kronos-c-sdk\src\wolfSSL\wolfcrypt\src/rsa.c **** 
1032:..\kronos-c-sdk\src\wolfSSL\wolfcrypt\src/rsa.c ****     if ( (plainLen = wc_RsaPrivateDecryptInline(tmp, inLen, &pad, key) ) < 0) {
 2256              		.loc 1 1032 0
 2257 0022 201C     		mov	r0, r4
 2258 0024 391C     		mov	r1, r7
 2259 0026 03AA     		add	r2, sp, #12
 2260 0028 0A9B     		ldr	r3, [sp, #40]
 2261 002a FFF7FEFF 		bl	wc_RsaPrivateDecryptInline
ARM GAS  C:\Users\ddemidov\AppData\Local\Temp\ccr947bU.s 			page 66


 2262              	.LVL356:
 2263 002e 051E     		sub	r5, r0, #0
 2264              	.LVL357:
 2265 0030 06DA     		bge	.L163
 2266              	.LVL358:
 2267              	.LBB32:
1033:..\kronos-c-sdk\src\wolfSSL\wolfcrypt\src/rsa.c ****         XFREE(tmp, key->heap, DYNAMIC_TYPE_RSA);
 2268              		.loc 1 1033 0
 2269 0032 002C     		cmp	r4, #0
 2270 0034 02D0     		beq	.L164
 2271              		.loc 1 1033 0 is_stmt 0 discriminator 1
 2272 0036 201C     		mov	r0, r4
 2273              	.LVL359:
 2274 0038 FFF7FEFF 		bl	wolfSSL_Free
 2275              	.LVL360:
 2276              	.L164:
 2277              	.LBE32:
1034:..\kronos-c-sdk\src\wolfSSL\wolfcrypt\src/rsa.c ****         return plainLen;
 2278              		.loc 1 1034 0 is_stmt 1
 2279 003c 281C     		mov	r0, r5
 2280 003e 1BE0     		b	.L162
 2281              	.LVL361:
 2282              	.L163:
1035:..\kronos-c-sdk\src\wolfSSL\wolfcrypt\src/rsa.c ****     }
1036:..\kronos-c-sdk\src\wolfSSL\wolfcrypt\src/rsa.c ****     if (plainLen > (int)outLen)
 2283              		.loc 1 1036 0
 2284 0040 8642     		cmp	r6, r0
 2285 0042 05DB     		blt	.L170
1037:..\kronos-c-sdk\src\wolfSSL\wolfcrypt\src/rsa.c ****         plainLen = BAD_FUNC_ARG;
1038:..\kronos-c-sdk\src\wolfSSL\wolfcrypt\src/rsa.c ****     else
1039:..\kronos-c-sdk\src\wolfSSL\wolfcrypt\src/rsa.c ****         XMEMCPY(out, pad, plainLen);
 2286              		.loc 1 1039 0
 2287 0044 0198     		ldr	r0, [sp, #4]
 2288              	.LVL362:
 2289 0046 0399     		ldr	r1, [sp, #12]
 2290 0048 2A1C     		mov	r2, r5
 2291 004a FFF7FEFF 		bl	memcpy
 2292              	.LVL363:
 2293 004e 01E0     		b	.L165
 2294              	.LVL364:
 2295              	.L170:
1037:..\kronos-c-sdk\src\wolfSSL\wolfcrypt\src/rsa.c ****         plainLen = BAD_FUNC_ARG;
 2296              		.loc 1 1037 0
 2297 0050 AD25     		mov	r5, #173
 2298 0052 6D42     		neg	r5, r5
 2299              	.LVL365:
 2300              	.L165:
 2301              	.LBB33:
 2302              	.LBB34:
 181:..\kronos-c-sdk\src\wolfSSL\wolfcrypt\src/misc.c **** 
 2303              		.loc 2 181 0
 2304 0054 231C     		mov	r3, r4
 2305 0056 03E0     		b	.L166
 2306              	.LVL366:
 2307              	.L167:
 183:..\kronos-c-sdk\src\wolfSSL\wolfcrypt\src/misc.c **** }
 2308              		.loc 2 183 0
ARM GAS  C:\Users\ddemidov\AppData\Local\Temp\ccr947bU.s 			page 67


 2309 0058 0021     		mov	r1, #0
 2310 005a 1970     		strb	r1, [r3]
 2311 005c 171C     		mov	r7, r2
 2312 005e 0133     		add	r3, r3, #1
 2313              	.LVL367:
 2314              	.L166:
 2315 0060 7A1E     		sub	r2, r7, #1
 2316              	.LVL368:
 2317 0062 002F     		cmp	r7, #0
 2318 0064 F8D1     		bne	.L167
 2319              	.LVL369:
 2320              	.LBE34:
 2321              	.LBE33:
 2322              	.LBB35:
1040:..\kronos-c-sdk\src\wolfSSL\wolfcrypt\src/rsa.c **** 
1041:..\kronos-c-sdk\src\wolfSSL\wolfcrypt\src/rsa.c ****     ForceZero(tmp, inLen);
1042:..\kronos-c-sdk\src\wolfSSL\wolfcrypt\src/rsa.c ****     XFREE(tmp, key->heap, DYNAMIC_TYPE_RSA);
 2323              		.loc 1 1042 0
 2324 0066 002C     		cmp	r4, #0
 2325 0068 02D0     		beq	.L168
 2326              		.loc 1 1042 0 is_stmt 0 discriminator 1
 2327 006a 201C     		mov	r0, r4
 2328 006c FFF7FEFF 		bl	wolfSSL_Free
 2329              	.LVL370:
 2330              	.L168:
 2331              	.LBE35:
1043:..\kronos-c-sdk\src\wolfSSL\wolfcrypt\src/rsa.c **** 
1044:..\kronos-c-sdk\src\wolfSSL\wolfcrypt\src/rsa.c ****     return plainLen;
 2332              		.loc 1 1044 0 is_stmt 1
 2333 0070 281C     		mov	r0, r5
 2334 0072 01E0     		b	.L162
 2335              	.LVL371:
 2336              	.L169:
1027:..\kronos-c-sdk\src\wolfSSL\wolfcrypt\src/rsa.c ****     }
 2337              		.loc 1 1027 0
 2338 0074 7D20     		mov	r0, #125
 2339              	.LVL372:
 2340 0076 4042     		neg	r0, r0
 2341              	.LVL373:
 2342              	.L162:
1045:..\kronos-c-sdk\src\wolfSSL\wolfcrypt\src/rsa.c **** }
 2343              		.loc 1 1045 0
 2344 0078 05B0     		add	sp, sp, #20
 2345              		@ sp needed
 2346              	.LVL374:
 2347              	.LVL375:
 2348 007a F0BD     		pop	{r4, r5, r6, r7, pc}
 2349              		.cfi_endproc
 2350              	.LFE27:
 2351              		.size	wc_RsaPrivateDecrypt, .-wc_RsaPrivateDecrypt
 2352              		.section	.text.wc_RsaPrivateDecrypt_ex,"ax",%progbits
 2353              		.align	2
 2354              		.global	wc_RsaPrivateDecrypt_ex
 2355              		.code	16
 2356              		.thumb_func
 2357              		.type	wc_RsaPrivateDecrypt_ex, %function
 2358              	wc_RsaPrivateDecrypt_ex:
ARM GAS  C:\Users\ddemidov\AppData\Local\Temp\ccr947bU.s 			page 68


 2359              	.LFB28:
1046:..\kronos-c-sdk\src\wolfSSL\wolfcrypt\src/rsa.c **** 
1047:..\kronos-c-sdk\src\wolfSSL\wolfcrypt\src/rsa.c **** 
1048:..\kronos-c-sdk\src\wolfSSL\wolfcrypt\src/rsa.c **** #ifndef WC_NO_RSA_OAEP
1049:..\kronos-c-sdk\src\wolfSSL\wolfcrypt\src/rsa.c **** /* Gives the option of choosing padding type
1050:..\kronos-c-sdk\src\wolfSSL\wolfcrypt\src/rsa.c ****    in : input to be decrypted
1051:..\kronos-c-sdk\src\wolfSSL\wolfcrypt\src/rsa.c ****    inLen: length of input buffer
1052:..\kronos-c-sdk\src\wolfSSL\wolfcrypt\src/rsa.c ****    out:  decrypted message
1053:..\kronos-c-sdk\src\wolfSSL\wolfcrypt\src/rsa.c ****    outLen: length of decrypted message in bytes
1054:..\kronos-c-sdk\src\wolfSSL\wolfcrypt\src/rsa.c ****    key   : wolfSSL initialized RSA key struct
1055:..\kronos-c-sdk\src\wolfSSL\wolfcrypt\src/rsa.c ****    type  : type of padding to use ie WC_RSA_OAEP_PAD
1056:..\kronos-c-sdk\src\wolfSSL\wolfcrypt\src/rsa.c ****    hash  : type of hash algorithm to use found in wolfssl/wolfcrypt/hash.h
1057:..\kronos-c-sdk\src\wolfSSL\wolfcrypt\src/rsa.c ****    mgf   : type of mask generation function to use
1058:..\kronos-c-sdk\src\wolfSSL\wolfcrypt\src/rsa.c ****    label : optional label
1059:..\kronos-c-sdk\src\wolfSSL\wolfcrypt\src/rsa.c ****    labelSz : size of optional label buffer */
1060:..\kronos-c-sdk\src\wolfSSL\wolfcrypt\src/rsa.c **** int wc_RsaPrivateDecrypt_ex(const byte* in, word32 inLen, byte* out, word32 outLen,
1061:..\kronos-c-sdk\src\wolfSSL\wolfcrypt\src/rsa.c ****                           RsaKey* key, int type, enum wc_HashType hash, int mgf,
1062:..\kronos-c-sdk\src\wolfSSL\wolfcrypt\src/rsa.c ****                           byte* label, word32 labelSz)
1063:..\kronos-c-sdk\src\wolfSSL\wolfcrypt\src/rsa.c **** {
 2360              		.loc 1 1063 0
 2361              		.cfi_startproc
 2362              	.LVL376:
 2363 0000 F0B5     		push	{r4, r5, r6, r7, lr}
 2364              		.cfi_def_cfa_offset 20
 2365              		.cfi_offset 4, -20
 2366              		.cfi_offset 5, -16
 2367              		.cfi_offset 6, -12
 2368              		.cfi_offset 7, -8
 2369              		.cfi_offset 14, -4
 2370 0002 4F46     		mov	r7, r9
 2371 0004 80B4     		push	{r7}
 2372              		.cfi_def_cfa_offset 24
 2373              		.cfi_offset 9, -24
 2374 0006 8AB0     		sub	sp, sp, #40
 2375              		.cfi_def_cfa_offset 64
 2376 0008 061C     		mov	r6, r0
 2377 000a 0C1C     		mov	r4, r1
 2378 000c 171C     		mov	r7, r2
 2379 000e 0793     		str	r3, [sp, #28]
 2380 0010 12AB     		add	r3, sp, #72
 2381              	.LVL377:
 2382 0012 1B78     		ldrb	r3, [r3]
 2383              	.LVL378:
 2384 0014 9946     		mov	r9, r3
1064:..\kronos-c-sdk\src\wolfSSL\wolfcrypt\src/rsa.c ****     int plainLen;
1065:..\kronos-c-sdk\src\wolfSSL\wolfcrypt\src/rsa.c ****     byte*  tmp;
1066:..\kronos-c-sdk\src\wolfSSL\wolfcrypt\src/rsa.c ****     byte*  pad = 0;
 2385              		.loc 1 1066 0
 2386 0016 0023     		mov	r3, #0
 2387 0018 0993     		str	r3, [sp, #36]
1067:..\kronos-c-sdk\src\wolfSSL\wolfcrypt\src/rsa.c **** 
1068:..\kronos-c-sdk\src\wolfSSL\wolfcrypt\src/rsa.c ****     /* sanity check on arguments */
1069:..\kronos-c-sdk\src\wolfSSL\wolfcrypt\src/rsa.c ****     if (out == NULL || in == NULL || key == NULL) {
 2388              		.loc 1 1069 0
 2389 001a 002A     		cmp	r2, #0
 2390 001c 4CD0     		beq	.L180
 2391              		.loc 1 1069 0 is_stmt 0 discriminator 1
ARM GAS  C:\Users\ddemidov\AppData\Local\Temp\ccr947bU.s 			page 69


 2392 001e 0028     		cmp	r0, #0
 2393 0020 4DD0     		beq	.L181
 2394              		.loc 1 1069 0 discriminator 2
 2395 0022 109B     		ldr	r3, [sp, #64]
 2396 0024 002B     		cmp	r3, #0
 2397 0026 4DD0     		beq	.L182
1070:..\kronos-c-sdk\src\wolfSSL\wolfcrypt\src/rsa.c ****         return BAD_FUNC_ARG;
1071:..\kronos-c-sdk\src\wolfSSL\wolfcrypt\src/rsa.c ****     }
1072:..\kronos-c-sdk\src\wolfSSL\wolfcrypt\src/rsa.c **** 
1073:..\kronos-c-sdk\src\wolfSSL\wolfcrypt\src/rsa.c ****     /* check if given a label size but not given a label buffer */
1074:..\kronos-c-sdk\src\wolfSSL\wolfcrypt\src/rsa.c ****     if (label == NULL && labelSz > 0) {
 2398              		.loc 1 1074 0 is_stmt 1
 2399 0028 149B     		ldr	r3, [sp, #80]
 2400 002a 002B     		cmp	r3, #0
 2401 002c 02D1     		bne	.L173
 2402              		.loc 1 1074 0 is_stmt 0 discriminator 1
 2403 002e 159B     		ldr	r3, [sp, #84]
 2404 0030 002B     		cmp	r3, #0
 2405 0032 4AD1     		bne	.L183
 2406              	.L173:
1075:..\kronos-c-sdk\src\wolfSSL\wolfcrypt\src/rsa.c ****         return BAD_FUNC_ARG;
1076:..\kronos-c-sdk\src\wolfSSL\wolfcrypt\src/rsa.c ****     }
1077:..\kronos-c-sdk\src\wolfSSL\wolfcrypt\src/rsa.c **** 
1078:..\kronos-c-sdk\src\wolfSSL\wolfcrypt\src/rsa.c **** #ifdef HAVE_CAVIUM
1079:..\kronos-c-sdk\src\wolfSSL\wolfcrypt\src/rsa.c ****     if (key->magic == WOLFSSL_RSA_CAVIUM_MAGIC)
1080:..\kronos-c-sdk\src\wolfSSL\wolfcrypt\src/rsa.c ****         return CaviumRsaPrivateDecrypt(in, inLen, out, outLen, key);
1081:..\kronos-c-sdk\src\wolfSSL\wolfcrypt\src/rsa.c **** #endif
1082:..\kronos-c-sdk\src\wolfSSL\wolfcrypt\src/rsa.c **** 
1083:..\kronos-c-sdk\src\wolfSSL\wolfcrypt\src/rsa.c ****     tmp = (byte*)XMALLOC(inLen, key->heap, DYNAMIC_TYPE_RSA);
 2407              		.loc 1 1083 0 is_stmt 1
 2408 0034 201C     		mov	r0, r4
 2409              	.LVL379:
 2410 0036 FFF7FEFF 		bl	wolfSSL_Malloc
 2411              	.LVL380:
 2412 003a 051E     		sub	r5, r0, #0
 2413              	.LVL381:
1084:..\kronos-c-sdk\src\wolfSSL\wolfcrypt\src/rsa.c ****     if (tmp == NULL) {
 2414              		.loc 1 1084 0
 2415 003c 48D0     		beq	.L184
1085:..\kronos-c-sdk\src\wolfSSL\wolfcrypt\src/rsa.c ****         return MEMORY_E;
1086:..\kronos-c-sdk\src\wolfSSL\wolfcrypt\src/rsa.c ****     }
1087:..\kronos-c-sdk\src\wolfSSL\wolfcrypt\src/rsa.c **** 
1088:..\kronos-c-sdk\src\wolfSSL\wolfcrypt\src/rsa.c ****     XMEMCPY(tmp, in, inLen);
 2416              		.loc 1 1088 0
 2417 003e 311C     		mov	r1, r6
 2418 0040 221C     		mov	r2, r4
 2419 0042 FFF7FEFF 		bl	memcpy
 2420              	.LVL382:
1089:..\kronos-c-sdk\src\wolfSSL\wolfcrypt\src/rsa.c **** 
1090:..\kronos-c-sdk\src\wolfSSL\wolfcrypt\src/rsa.c ****     if ( (plainLen = wc_RsaPrivateDecryptInline_ex(tmp, inLen, &pad, key,
 2421              		.loc 1 1090 0
 2422 0046 119B     		ldr	r3, [sp, #68]
 2423 0048 0093     		str	r3, [sp]
 2424 004a 4B46     		mov	r3, r9
 2425 004c 0193     		str	r3, [sp, #4]
 2426 004e 139B     		ldr	r3, [sp, #76]
 2427 0050 0293     		str	r3, [sp, #8]
ARM GAS  C:\Users\ddemidov\AppData\Local\Temp\ccr947bU.s 			page 70


 2428 0052 149B     		ldr	r3, [sp, #80]
 2429 0054 0393     		str	r3, [sp, #12]
 2430 0056 159B     		ldr	r3, [sp, #84]
 2431 0058 0493     		str	r3, [sp, #16]
 2432 005a 281C     		mov	r0, r5
 2433 005c 211C     		mov	r1, r4
 2434 005e 09AA     		add	r2, sp, #36
 2435 0060 109B     		ldr	r3, [sp, #64]
 2436 0062 FFF7FEFF 		bl	wc_RsaPrivateDecryptInline_ex
 2437              	.LVL383:
 2438 0066 061E     		sub	r6, r0, #0
 2439              	.LVL384:
 2440 0068 06DA     		bge	.L174
 2441              	.LVL385:
 2442              	.LBB36:
1091:..\kronos-c-sdk\src\wolfSSL\wolfcrypt\src/rsa.c ****                                        type, hash, mgf, label, labelSz) ) < 0) {
1092:..\kronos-c-sdk\src\wolfSSL\wolfcrypt\src/rsa.c ****         XFREE(tmp, key->heap, DYNAMIC_TYPE_RSA);
 2443              		.loc 1 1092 0
 2444 006a 002D     		cmp	r5, #0
 2445 006c 02D0     		beq	.L175
 2446              		.loc 1 1092 0 is_stmt 0 discriminator 1
 2447 006e 281C     		mov	r0, r5
 2448              	.LVL386:
 2449 0070 FFF7FEFF 		bl	wolfSSL_Free
 2450              	.LVL387:
 2451              	.L175:
 2452              	.LBE36:
1093:..\kronos-c-sdk\src\wolfSSL\wolfcrypt\src/rsa.c ****         return plainLen;
 2453              		.loc 1 1093 0 is_stmt 1
 2454 0074 301C     		mov	r0, r6
 2455 0076 2DE0     		b	.L172
 2456              	.LVL388:
 2457              	.L174:
1094:..\kronos-c-sdk\src\wolfSSL\wolfcrypt\src/rsa.c ****     }
1095:..\kronos-c-sdk\src\wolfSSL\wolfcrypt\src/rsa.c ****     if (plainLen > (int)outLen || pad == NULL)
 2458              		.loc 1 1095 0
 2459 0078 079B     		ldr	r3, [sp, #28]
 2460 007a 8342     		cmp	r3, r0
 2461 007c 07DB     		blt	.L185
 2462              		.loc 1 1095 0 is_stmt 0 discriminator 1
 2463 007e 0999     		ldr	r1, [sp, #36]
 2464 0080 0029     		cmp	r1, #0
 2465 0082 07D0     		beq	.L186
1096:..\kronos-c-sdk\src\wolfSSL\wolfcrypt\src/rsa.c ****         plainLen = BAD_FUNC_ARG;
1097:..\kronos-c-sdk\src\wolfSSL\wolfcrypt\src/rsa.c ****     else
1098:..\kronos-c-sdk\src\wolfSSL\wolfcrypt\src/rsa.c ****         XMEMCPY(out, pad, plainLen);
 2466              		.loc 1 1098 0 is_stmt 1
 2467 0084 381C     		mov	r0, r7
 2468              	.LVL389:
 2469 0086 321C     		mov	r2, r6
 2470 0088 FFF7FEFF 		bl	memcpy
 2471              	.LVL390:
 2472 008c 04E0     		b	.L176
 2473              	.LVL391:
 2474              	.L185:
1096:..\kronos-c-sdk\src\wolfSSL\wolfcrypt\src/rsa.c ****         plainLen = BAD_FUNC_ARG;
 2475              		.loc 1 1096 0
ARM GAS  C:\Users\ddemidov\AppData\Local\Temp\ccr947bU.s 			page 71


 2476 008e AD26     		mov	r6, #173
 2477 0090 7642     		neg	r6, r6
 2478 0092 01E0     		b	.L176
 2479              	.L186:
 2480 0094 AD26     		mov	r6, #173
 2481 0096 7642     		neg	r6, r6
 2482              	.LVL392:
 2483              	.L176:
 2484              	.LBB37:
 2485              	.LBB38:
 181:..\kronos-c-sdk\src\wolfSSL\wolfcrypt\src/misc.c **** 
 2486              		.loc 2 181 0
 2487 0098 2B1C     		mov	r3, r5
 2488 009a 03E0     		b	.L177
 2489              	.LVL393:
 2490              	.L178:
 183:..\kronos-c-sdk\src\wolfSSL\wolfcrypt\src/misc.c **** }
 2491              		.loc 2 183 0
 2492 009c 0021     		mov	r1, #0
 2493 009e 1970     		strb	r1, [r3]
 2494 00a0 141C     		mov	r4, r2
 2495 00a2 0133     		add	r3, r3, #1
 2496              	.LVL394:
 2497              	.L177:
 2498 00a4 621E     		sub	r2, r4, #1
 2499              	.LVL395:
 2500 00a6 002C     		cmp	r4, #0
 2501 00a8 F8D1     		bne	.L178
 2502              	.LVL396:
 2503              	.LBE38:
 2504              	.LBE37:
 2505              	.LBB39:
1099:..\kronos-c-sdk\src\wolfSSL\wolfcrypt\src/rsa.c **** 
1100:..\kronos-c-sdk\src\wolfSSL\wolfcrypt\src/rsa.c ****     ForceZero(tmp, inLen);
1101:..\kronos-c-sdk\src\wolfSSL\wolfcrypt\src/rsa.c ****     XFREE(tmp, key->heap, DYNAMIC_TYPE_RSA);
 2506              		.loc 1 1101 0
 2507 00aa 002D     		cmp	r5, #0
 2508 00ac 02D0     		beq	.L179
 2509              		.loc 1 1101 0 is_stmt 0 discriminator 1
 2510 00ae 281C     		mov	r0, r5
 2511 00b0 FFF7FEFF 		bl	wolfSSL_Free
 2512              	.LVL397:
 2513              	.L179:
 2514              	.LBE39:
1102:..\kronos-c-sdk\src\wolfSSL\wolfcrypt\src/rsa.c **** 
1103:..\kronos-c-sdk\src\wolfSSL\wolfcrypt\src/rsa.c ****     return plainLen;
 2515              		.loc 1 1103 0 is_stmt 1
 2516 00b4 301C     		mov	r0, r6
 2517 00b6 0DE0     		b	.L172
 2518              	.LVL398:
 2519              	.L180:
1070:..\kronos-c-sdk\src\wolfSSL\wolfcrypt\src/rsa.c ****     }
 2520              		.loc 1 1070 0
 2521 00b8 AD20     		mov	r0, #173
 2522              	.LVL399:
 2523 00ba 4042     		neg	r0, r0
 2524 00bc 0AE0     		b	.L172
ARM GAS  C:\Users\ddemidov\AppData\Local\Temp\ccr947bU.s 			page 72


 2525              	.LVL400:
 2526              	.L181:
 2527 00be AD20     		mov	r0, #173
 2528              	.LVL401:
 2529 00c0 4042     		neg	r0, r0
 2530 00c2 07E0     		b	.L172
 2531              	.LVL402:
 2532              	.L182:
 2533 00c4 AD20     		mov	r0, #173
 2534              	.LVL403:
 2535 00c6 4042     		neg	r0, r0
 2536 00c8 04E0     		b	.L172
 2537              	.LVL404:
 2538              	.L183:
1075:..\kronos-c-sdk\src\wolfSSL\wolfcrypt\src/rsa.c ****     }
 2539              		.loc 1 1075 0
 2540 00ca AD20     		mov	r0, #173
 2541              	.LVL405:
 2542 00cc 4042     		neg	r0, r0
 2543 00ce 01E0     		b	.L172
 2544              	.LVL406:
 2545              	.L184:
1085:..\kronos-c-sdk\src\wolfSSL\wolfcrypt\src/rsa.c ****     }
 2546              		.loc 1 1085 0
 2547 00d0 7D20     		mov	r0, #125
 2548              	.LVL407:
 2549 00d2 4042     		neg	r0, r0
 2550              	.LVL408:
 2551              	.L172:
1104:..\kronos-c-sdk\src\wolfSSL\wolfcrypt\src/rsa.c **** }
 2552              		.loc 1 1104 0
 2553 00d4 0AB0     		add	sp, sp, #40
 2554              		@ sp needed
 2555              	.LVL409:
 2556 00d6 04BC     		pop	{r2}
 2557 00d8 9146     		mov	r9, r2
 2558 00da F0BD     		pop	{r4, r5, r6, r7, pc}
 2559              		.cfi_endproc
 2560              	.LFE28:
 2561              		.size	wc_RsaPrivateDecrypt_ex, .-wc_RsaPrivateDecrypt_ex
 2562              		.section	.text.wc_RsaSSL_VerifyInline,"ax",%progbits
 2563              		.align	2
 2564              		.global	wc_RsaSSL_VerifyInline
 2565              		.code	16
 2566              		.thumb_func
 2567              		.type	wc_RsaSSL_VerifyInline, %function
 2568              	wc_RsaSSL_VerifyInline:
 2569              	.LFB29:
1105:..\kronos-c-sdk\src\wolfSSL\wolfcrypt\src/rsa.c **** #endif /* WC_NO_RSA_OAEP */
1106:..\kronos-c-sdk\src\wolfSSL\wolfcrypt\src/rsa.c **** 
1107:..\kronos-c-sdk\src\wolfSSL\wolfcrypt\src/rsa.c **** 
1108:..\kronos-c-sdk\src\wolfSSL\wolfcrypt\src/rsa.c **** /* for Rsa Verify */
1109:..\kronos-c-sdk\src\wolfSSL\wolfcrypt\src/rsa.c **** int wc_RsaSSL_VerifyInline(byte* in, word32 inLen, byte** out, RsaKey* key)
1110:..\kronos-c-sdk\src\wolfSSL\wolfcrypt\src/rsa.c **** {
 2570              		.loc 1 1110 0
 2571              		.cfi_startproc
 2572              	.LVL410:
ARM GAS  C:\Users\ddemidov\AppData\Local\Temp\ccr947bU.s 			page 73


 2573 0000 30B5     		push	{r4, r5, lr}
 2574              		.cfi_def_cfa_offset 12
 2575              		.cfi_offset 4, -12
 2576              		.cfi_offset 5, -8
 2577              		.cfi_offset 14, -4
 2578 0002 85B0     		sub	sp, sp, #20
 2579              		.cfi_def_cfa_offset 32
 2580 0004 041C     		mov	r4, r0
 2581 0006 0391     		str	r1, [sp, #12]
 2582 0008 151C     		mov	r5, r2
1111:..\kronos-c-sdk\src\wolfSSL\wolfcrypt\src/rsa.c ****     int ret;
1112:..\kronos-c-sdk\src\wolfSSL\wolfcrypt\src/rsa.c **** 
1113:..\kronos-c-sdk\src\wolfSSL\wolfcrypt\src/rsa.c **** #ifdef HAVE_CAVIUM
1114:..\kronos-c-sdk\src\wolfSSL\wolfcrypt\src/rsa.c ****     if (key->magic == WOLFSSL_RSA_CAVIUM_MAGIC) {
1115:..\kronos-c-sdk\src\wolfSSL\wolfcrypt\src/rsa.c ****         ret = CaviumRsaSSL_Verify(in, inLen, in, inLen, key);
1116:..\kronos-c-sdk\src\wolfSSL\wolfcrypt\src/rsa.c ****         if (ret > 0)
1117:..\kronos-c-sdk\src\wolfSSL\wolfcrypt\src/rsa.c ****             *out = in;
1118:..\kronos-c-sdk\src\wolfSSL\wolfcrypt\src/rsa.c ****         return ret;
1119:..\kronos-c-sdk\src\wolfSSL\wolfcrypt\src/rsa.c ****     }
1120:..\kronos-c-sdk\src\wolfSSL\wolfcrypt\src/rsa.c **** #endif
1121:..\kronos-c-sdk\src\wolfSSL\wolfcrypt\src/rsa.c **** 
1122:..\kronos-c-sdk\src\wolfSSL\wolfcrypt\src/rsa.c ****     if ((ret = wc_RsaFunction(in, inLen, in, &inLen, RSA_PUBLIC_DECRYPT, key))
 2583              		.loc 1 1122 0
 2584 000a 0122     		mov	r2, #1
 2585              	.LVL411:
 2586 000c 0092     		str	r2, [sp]
 2587 000e 0193     		str	r3, [sp, #4]
 2588 0010 201C     		mov	r0, r4
 2589 0012 221C     		mov	r2, r4
 2590 0014 03AB     		add	r3, sp, #12
 2591              	.LVL412:
 2592 0016 FFF7FEFF 		bl	wc_RsaFunction
 2593              	.LVL413:
 2594 001a 0028     		cmp	r0, #0
 2595 001c 05DB     		blt	.L188
1123:..\kronos-c-sdk\src\wolfSSL\wolfcrypt\src/rsa.c ****             < 0) {
1124:..\kronos-c-sdk\src\wolfSSL\wolfcrypt\src/rsa.c ****         return ret;
1125:..\kronos-c-sdk\src\wolfSSL\wolfcrypt\src/rsa.c ****     }
1126:..\kronos-c-sdk\src\wolfSSL\wolfcrypt\src/rsa.c **** 
1127:..\kronos-c-sdk\src\wolfSSL\wolfcrypt\src/rsa.c ****     return RsaUnPad(in, inLen, out, RSA_BLOCK_TYPE_1);
 2596              		.loc 1 1127 0
 2597 001e 201C     		mov	r0, r4
 2598              	.LVL414:
 2599 0020 0399     		ldr	r1, [sp, #12]
 2600 0022 2A1C     		mov	r2, r5
 2601 0024 0123     		mov	r3, #1
 2602 0026 FFF7FEFF 		bl	RsaUnPad
 2603              	.LVL415:
 2604              	.L188:
1128:..\kronos-c-sdk\src\wolfSSL\wolfcrypt\src/rsa.c **** }
 2605              		.loc 1 1128 0
 2606 002a 05B0     		add	sp, sp, #20
 2607              		@ sp needed
 2608              	.LVL416:
 2609              	.LVL417:
 2610 002c 30BD     		pop	{r4, r5, pc}
 2611              		.cfi_endproc
ARM GAS  C:\Users\ddemidov\AppData\Local\Temp\ccr947bU.s 			page 74


 2612              	.LFE29:
 2613              		.size	wc_RsaSSL_VerifyInline, .-wc_RsaSSL_VerifyInline
 2614 002e C046     		.section	.text.wc_RsaSSL_Verify,"ax",%progbits
 2615              		.align	2
 2616              		.global	wc_RsaSSL_Verify
 2617              		.code	16
 2618              		.thumb_func
 2619              		.type	wc_RsaSSL_Verify, %function
 2620              	wc_RsaSSL_Verify:
 2621              	.LFB30:
1129:..\kronos-c-sdk\src\wolfSSL\wolfcrypt\src/rsa.c **** 
1130:..\kronos-c-sdk\src\wolfSSL\wolfcrypt\src/rsa.c **** 
1131:..\kronos-c-sdk\src\wolfSSL\wolfcrypt\src/rsa.c **** int wc_RsaSSL_Verify(const byte* in, word32 inLen, byte* out, word32 outLen,
1132:..\kronos-c-sdk\src\wolfSSL\wolfcrypt\src/rsa.c ****                      RsaKey* key)
1133:..\kronos-c-sdk\src\wolfSSL\wolfcrypt\src/rsa.c **** {
 2622              		.loc 1 1133 0
 2623              		.cfi_startproc
 2624              	.LVL418:
 2625 0000 F0B5     		push	{r4, r5, r6, r7, lr}
 2626              		.cfi_def_cfa_offset 20
 2627              		.cfi_offset 4, -20
 2628              		.cfi_offset 5, -16
 2629              		.cfi_offset 6, -12
 2630              		.cfi_offset 7, -8
 2631              		.cfi_offset 14, -4
 2632 0002 85B0     		sub	sp, sp, #20
 2633              		.cfi_def_cfa_offset 40
 2634 0004 051C     		mov	r5, r0
 2635 0006 0F1C     		mov	r7, r1
 2636 0008 0192     		str	r2, [sp, #4]
 2637 000a 1E1C     		mov	r6, r3
1134:..\kronos-c-sdk\src\wolfSSL\wolfcrypt\src/rsa.c ****     int plainLen;
1135:..\kronos-c-sdk\src\wolfSSL\wolfcrypt\src/rsa.c ****     byte*  tmp;
1136:..\kronos-c-sdk\src\wolfSSL\wolfcrypt\src/rsa.c ****     byte*  pad = 0;
 2638              		.loc 1 1136 0
 2639 000c 0023     		mov	r3, #0
 2640              	.LVL419:
 2641 000e 0393     		str	r3, [sp, #12]
1137:..\kronos-c-sdk\src\wolfSSL\wolfcrypt\src/rsa.c **** 
1138:..\kronos-c-sdk\src\wolfSSL\wolfcrypt\src/rsa.c **** #ifdef HAVE_CAVIUM
1139:..\kronos-c-sdk\src\wolfSSL\wolfcrypt\src/rsa.c ****     if (key->magic == WOLFSSL_RSA_CAVIUM_MAGIC)
1140:..\kronos-c-sdk\src\wolfSSL\wolfcrypt\src/rsa.c ****         return CaviumRsaSSL_Verify(in, inLen, out, outLen, key);
1141:..\kronos-c-sdk\src\wolfSSL\wolfcrypt\src/rsa.c **** #endif
1142:..\kronos-c-sdk\src\wolfSSL\wolfcrypt\src/rsa.c **** 
1143:..\kronos-c-sdk\src\wolfSSL\wolfcrypt\src/rsa.c ****     tmp = (byte*)XMALLOC(inLen, key->heap, DYNAMIC_TYPE_RSA);
 2642              		.loc 1 1143 0
 2643 0010 081C     		mov	r0, r1
 2644              	.LVL420:
 2645 0012 FFF7FEFF 		bl	wolfSSL_Malloc
 2646              	.LVL421:
 2647 0016 041E     		sub	r4, r0, #0
 2648              	.LVL422:
1144:..\kronos-c-sdk\src\wolfSSL\wolfcrypt\src/rsa.c ****     if (tmp == NULL) {
 2649              		.loc 1 1144 0
 2650 0018 2CD0     		beq	.L198
1145:..\kronos-c-sdk\src\wolfSSL\wolfcrypt\src/rsa.c ****         return MEMORY_E;
1146:..\kronos-c-sdk\src\wolfSSL\wolfcrypt\src/rsa.c ****     }
ARM GAS  C:\Users\ddemidov\AppData\Local\Temp\ccr947bU.s 			page 75


1147:..\kronos-c-sdk\src\wolfSSL\wolfcrypt\src/rsa.c **** 
1148:..\kronos-c-sdk\src\wolfSSL\wolfcrypt\src/rsa.c ****     XMEMCPY(tmp, in, inLen);
 2651              		.loc 1 1148 0
 2652 001a 291C     		mov	r1, r5
 2653 001c 3A1C     		mov	r2, r7
 2654 001e FFF7FEFF 		bl	memcpy
 2655              	.LVL423:
1149:..\kronos-c-sdk\src\wolfSSL\wolfcrypt\src/rsa.c **** 
1150:..\kronos-c-sdk\src\wolfSSL\wolfcrypt\src/rsa.c ****     if ( (plainLen = wc_RsaSSL_VerifyInline(tmp, inLen, &pad, key) ) < 0) {
 2656              		.loc 1 1150 0
 2657 0022 201C     		mov	r0, r4
 2658 0024 391C     		mov	r1, r7
 2659 0026 03AA     		add	r2, sp, #12
 2660 0028 0A9B     		ldr	r3, [sp, #40]
 2661 002a FFF7FEFF 		bl	wc_RsaSSL_VerifyInline
 2662              	.LVL424:
 2663 002e 051E     		sub	r5, r0, #0
 2664              	.LVL425:
 2665 0030 06DA     		bge	.L192
 2666              	.LVL426:
 2667              	.LBB40:
1151:..\kronos-c-sdk\src\wolfSSL\wolfcrypt\src/rsa.c ****         XFREE(tmp, key->heap, DYNAMIC_TYPE_RSA);
 2668              		.loc 1 1151 0
 2669 0032 002C     		cmp	r4, #0
 2670 0034 02D0     		beq	.L193
 2671              		.loc 1 1151 0 is_stmt 0 discriminator 1
 2672 0036 201C     		mov	r0, r4
 2673              	.LVL427:
 2674 0038 FFF7FEFF 		bl	wolfSSL_Free
 2675              	.LVL428:
 2676              	.L193:
 2677              	.LBE40:
1152:..\kronos-c-sdk\src\wolfSSL\wolfcrypt\src/rsa.c ****         return plainLen;
 2678              		.loc 1 1152 0 is_stmt 1
 2679 003c 281C     		mov	r0, r5
 2680 003e 1BE0     		b	.L191
 2681              	.LVL429:
 2682              	.L192:
1153:..\kronos-c-sdk\src\wolfSSL\wolfcrypt\src/rsa.c ****     }
1154:..\kronos-c-sdk\src\wolfSSL\wolfcrypt\src/rsa.c **** 
1155:..\kronos-c-sdk\src\wolfSSL\wolfcrypt\src/rsa.c ****     if (plainLen > (int)outLen)
 2683              		.loc 1 1155 0
 2684 0040 8642     		cmp	r6, r0
 2685 0042 05DB     		blt	.L199
1156:..\kronos-c-sdk\src\wolfSSL\wolfcrypt\src/rsa.c ****         plainLen = BAD_FUNC_ARG;
1157:..\kronos-c-sdk\src\wolfSSL\wolfcrypt\src/rsa.c ****     else
1158:..\kronos-c-sdk\src\wolfSSL\wolfcrypt\src/rsa.c ****         XMEMCPY(out, pad, plainLen);
 2686              		.loc 1 1158 0
 2687 0044 0198     		ldr	r0, [sp, #4]
 2688              	.LVL430:
 2689 0046 0399     		ldr	r1, [sp, #12]
 2690 0048 2A1C     		mov	r2, r5
 2691 004a FFF7FEFF 		bl	memcpy
 2692              	.LVL431:
 2693 004e 01E0     		b	.L194
 2694              	.LVL432:
 2695              	.L199:
ARM GAS  C:\Users\ddemidov\AppData\Local\Temp\ccr947bU.s 			page 76


1156:..\kronos-c-sdk\src\wolfSSL\wolfcrypt\src/rsa.c ****         plainLen = BAD_FUNC_ARG;
 2696              		.loc 1 1156 0
 2697 0050 AD25     		mov	r5, #173
 2698 0052 6D42     		neg	r5, r5
 2699              	.LVL433:
 2700              	.L194:
 2701              	.LBB41:
 2702              	.LBB42:
 181:..\kronos-c-sdk\src\wolfSSL\wolfcrypt\src/misc.c **** 
 2703              		.loc 2 181 0
 2704 0054 231C     		mov	r3, r4
 2705 0056 03E0     		b	.L195
 2706              	.LVL434:
 2707              	.L196:
 183:..\kronos-c-sdk\src\wolfSSL\wolfcrypt\src/misc.c **** }
 2708              		.loc 2 183 0
 2709 0058 0021     		mov	r1, #0
 2710 005a 1970     		strb	r1, [r3]
 2711 005c 171C     		mov	r7, r2
 2712 005e 0133     		add	r3, r3, #1
 2713              	.LVL435:
 2714              	.L195:
 2715 0060 7A1E     		sub	r2, r7, #1
 2716              	.LVL436:
 2717 0062 002F     		cmp	r7, #0
 2718 0064 F8D1     		bne	.L196
 2719              	.LVL437:
 2720              	.LBE42:
 2721              	.LBE41:
 2722              	.LBB43:
1159:..\kronos-c-sdk\src\wolfSSL\wolfcrypt\src/rsa.c **** 
1160:..\kronos-c-sdk\src\wolfSSL\wolfcrypt\src/rsa.c ****     ForceZero(tmp, inLen);
1161:..\kronos-c-sdk\src\wolfSSL\wolfcrypt\src/rsa.c ****     XFREE(tmp, key->heap, DYNAMIC_TYPE_RSA);
 2723              		.loc 1 1161 0
 2724 0066 002C     		cmp	r4, #0
 2725 0068 02D0     		beq	.L197
 2726              		.loc 1 1161 0 is_stmt 0 discriminator 1
 2727 006a 201C     		mov	r0, r4
 2728 006c FFF7FEFF 		bl	wolfSSL_Free
 2729              	.LVL438:
 2730              	.L197:
 2731              	.LBE43:
1162:..\kronos-c-sdk\src\wolfSSL\wolfcrypt\src/rsa.c **** 
1163:..\kronos-c-sdk\src\wolfSSL\wolfcrypt\src/rsa.c ****     return plainLen;
 2732              		.loc 1 1163 0 is_stmt 1
 2733 0070 281C     		mov	r0, r5
 2734 0072 01E0     		b	.L191
 2735              	.LVL439:
 2736              	.L198:
1145:..\kronos-c-sdk\src\wolfSSL\wolfcrypt\src/rsa.c ****     }
 2737              		.loc 1 1145 0
 2738 0074 7D20     		mov	r0, #125
 2739              	.LVL440:
 2740 0076 4042     		neg	r0, r0
 2741              	.LVL441:
 2742              	.L191:
1164:..\kronos-c-sdk\src\wolfSSL\wolfcrypt\src/rsa.c **** }
ARM GAS  C:\Users\ddemidov\AppData\Local\Temp\ccr947bU.s 			page 77


 2743              		.loc 1 1164 0
 2744 0078 05B0     		add	sp, sp, #20
 2745              		@ sp needed
 2746              	.LVL442:
 2747              	.LVL443:
 2748 007a F0BD     		pop	{r4, r5, r6, r7, pc}
 2749              		.cfi_endproc
 2750              	.LFE30:
 2751              		.size	wc_RsaSSL_Verify, .-wc_RsaSSL_Verify
 2752              		.section	.text.wc_RsaSSL_Sign,"ax",%progbits
 2753              		.align	2
 2754              		.global	wc_RsaSSL_Sign
 2755              		.code	16
 2756              		.thumb_func
 2757              		.type	wc_RsaSSL_Sign, %function
 2758              	wc_RsaSSL_Sign:
 2759              	.LFB31:
1165:..\kronos-c-sdk\src\wolfSSL\wolfcrypt\src/rsa.c **** 
1166:..\kronos-c-sdk\src\wolfSSL\wolfcrypt\src/rsa.c **** 
1167:..\kronos-c-sdk\src\wolfSSL\wolfcrypt\src/rsa.c **** /* for Rsa Sign */
1168:..\kronos-c-sdk\src\wolfSSL\wolfcrypt\src/rsa.c **** int wc_RsaSSL_Sign(const byte* in, word32 inLen, byte* out, word32 outLen,
1169:..\kronos-c-sdk\src\wolfSSL\wolfcrypt\src/rsa.c ****                       RsaKey* key, WC_RNG* rng)
1170:..\kronos-c-sdk\src\wolfSSL\wolfcrypt\src/rsa.c **** {
 2760              		.loc 1 1170 0
 2761              		.cfi_startproc
 2762              	.LVL444:
 2763 0000 F0B5     		push	{r4, r5, r6, r7, lr}
 2764              		.cfi_def_cfa_offset 20
 2765              		.cfi_offset 4, -20
 2766              		.cfi_offset 5, -16
 2767              		.cfi_offset 6, -12
 2768              		.cfi_offset 7, -8
 2769              		.cfi_offset 14, -4
 2770 0002 85B0     		sub	sp, sp, #20
 2771              		.cfi_def_cfa_offset 40
 2772 0004 071C     		mov	r7, r0
 2773 0006 0D1C     		mov	r5, r1
 2774 0008 161C     		mov	r6, r2
 2775 000a 0393     		str	r3, [sp, #12]
1171:..\kronos-c-sdk\src\wolfSSL\wolfcrypt\src/rsa.c ****     int sz, ret;
1172:..\kronos-c-sdk\src\wolfSSL\wolfcrypt\src/rsa.c **** 
1173:..\kronos-c-sdk\src\wolfSSL\wolfcrypt\src/rsa.c **** #ifdef HAVE_CAVIUM
1174:..\kronos-c-sdk\src\wolfSSL\wolfcrypt\src/rsa.c ****     if (key->magic == WOLFSSL_RSA_CAVIUM_MAGIC)
1175:..\kronos-c-sdk\src\wolfSSL\wolfcrypt\src/rsa.c ****         return CaviumRsaSSL_Sign(in, inLen, out, outLen, key);
1176:..\kronos-c-sdk\src\wolfSSL\wolfcrypt\src/rsa.c **** #endif
1177:..\kronos-c-sdk\src\wolfSSL\wolfcrypt\src/rsa.c **** 
1178:..\kronos-c-sdk\src\wolfSSL\wolfcrypt\src/rsa.c ****     sz = mp_unsigned_bin_size(&key->n);
 2776              		.loc 1 1178 0
 2777 000c 0A98     		ldr	r0, [sp, #40]
 2778              	.LVL445:
 2779 000e FFF7FEFF 		bl	mp_unsigned_bin_size
 2780              	.LVL446:
 2781 0012 041C     		mov	r4, r0
 2782              	.LVL447:
1179:..\kronos-c-sdk\src\wolfSSL\wolfcrypt\src/rsa.c ****     if (sz > (int)outLen)
 2783              		.loc 1 1179 0
 2784 0014 039B     		ldr	r3, [sp, #12]
ARM GAS  C:\Users\ddemidov\AppData\Local\Temp\ccr947bU.s 			page 78


 2785 0016 8342     		cmp	r3, r0
 2786 0018 1EDB     		blt	.L203
1180:..\kronos-c-sdk\src\wolfSSL\wolfcrypt\src/rsa.c ****         return RSA_BUFFER_E;
1181:..\kronos-c-sdk\src\wolfSSL\wolfcrypt\src/rsa.c **** 
1182:..\kronos-c-sdk\src\wolfSSL\wolfcrypt\src/rsa.c ****     if (inLen > (word32)(sz - RSA_MIN_PAD_SZ))
 2787              		.loc 1 1182 0
 2788 001a 031C     		mov	r3, r0
 2789 001c 0B3B     		sub	r3, r3, #11
 2790 001e AB42     		cmp	r3, r5
 2791 0020 1DD3     		bcc	.L204
1183:..\kronos-c-sdk\src\wolfSSL\wolfcrypt\src/rsa.c ****         return RSA_BUFFER_E;
1184:..\kronos-c-sdk\src\wolfSSL\wolfcrypt\src/rsa.c **** 
1185:..\kronos-c-sdk\src\wolfSSL\wolfcrypt\src/rsa.c ****     ret = wc_RsaPad(in, inLen, out, sz, RSA_BLOCK_TYPE_1, rng);
 2792              		.loc 1 1185 0
 2793 0022 0123     		mov	r3, #1
 2794 0024 0093     		str	r3, [sp]
 2795 0026 0B9B     		ldr	r3, [sp, #44]
 2796 0028 0193     		str	r3, [sp, #4]
 2797 002a 381C     		mov	r0, r7
 2798              	.LVL448:
 2799 002c 291C     		mov	r1, r5
 2800 002e 321C     		mov	r2, r6
 2801 0030 231C     		mov	r3, r4
 2802 0032 FFF7FEFF 		bl	wc_RsaPad
 2803              	.LVL449:
1186:..\kronos-c-sdk\src\wolfSSL\wolfcrypt\src/rsa.c ****     if (ret != 0)
 2804              		.loc 1 1186 0
 2805 0036 0028     		cmp	r0, #0
 2806 0038 13D1     		bne	.L201
1187:..\kronos-c-sdk\src\wolfSSL\wolfcrypt\src/rsa.c ****         return ret;
1188:..\kronos-c-sdk\src\wolfSSL\wolfcrypt\src/rsa.c **** 
1189:..\kronos-c-sdk\src\wolfSSL\wolfcrypt\src/rsa.c ****     if ((ret = wc_RsaFunction(out, sz, out, &outLen,
 2807              		.loc 1 1189 0
 2808 003a 0223     		mov	r3, #2
 2809 003c 0093     		str	r3, [sp]
 2810 003e 0A9B     		ldr	r3, [sp, #40]
 2811 0040 0193     		str	r3, [sp, #4]
 2812 0042 301C     		mov	r0, r6
 2813              	.LVL450:
 2814 0044 211C     		mov	r1, r4
 2815 0046 321C     		mov	r2, r6
 2816 0048 03AB     		add	r3, sp, #12
 2817              	.LVL451:
 2818 004a FFF7FEFF 		bl	wc_RsaFunction
 2819              	.LVL452:
 2820 004e 0028     		cmp	r0, #0
 2821 0050 00DA     		bge	.L202
1190:..\kronos-c-sdk\src\wolfSSL\wolfcrypt\src/rsa.c ****                               RSA_PRIVATE_ENCRYPT,key)) < 0)
1191:..\kronos-c-sdk\src\wolfSSL\wolfcrypt\src/rsa.c ****         sz = ret;
 2822              		.loc 1 1191 0
 2823 0052 041C     		mov	r4, r0
 2824              	.LVL453:
 2825              	.L202:
1192:..\kronos-c-sdk\src\wolfSSL\wolfcrypt\src/rsa.c **** 
1193:..\kronos-c-sdk\src\wolfSSL\wolfcrypt\src/rsa.c ****     return sz;
 2826              		.loc 1 1193 0
 2827 0054 201C     		mov	r0, r4
ARM GAS  C:\Users\ddemidov\AppData\Local\Temp\ccr947bU.s 			page 79


 2828              	.LVL454:
 2829 0056 04E0     		b	.L201
 2830              	.LVL455:
 2831              	.L203:
1180:..\kronos-c-sdk\src\wolfSSL\wolfcrypt\src/rsa.c **** 
 2832              		.loc 1 1180 0
 2833 0058 8320     		mov	r0, #131
 2834              	.LVL456:
 2835 005a 4042     		neg	r0, r0
 2836 005c 01E0     		b	.L201
 2837              	.LVL457:
 2838              	.L204:
1183:..\kronos-c-sdk\src\wolfSSL\wolfcrypt\src/rsa.c **** 
 2839              		.loc 1 1183 0
 2840 005e 8320     		mov	r0, #131
 2841              	.LVL458:
 2842 0060 4042     		neg	r0, r0
 2843              	.L201:
1194:..\kronos-c-sdk\src\wolfSSL\wolfcrypt\src/rsa.c **** }
 2844              		.loc 1 1194 0
 2845 0062 05B0     		add	sp, sp, #20
 2846              		@ sp needed
 2847              	.LVL459:
 2848              	.LVL460:
 2849              	.LVL461:
 2850              	.LVL462:
 2851 0064 F0BD     		pop	{r4, r5, r6, r7, pc}
 2852              		.cfi_endproc
 2853              	.LFE31:
 2854              		.size	wc_RsaSSL_Sign, .-wc_RsaSSL_Sign
 2855 0066 C046     		.section	.text.wc_RsaEncryptSize,"ax",%progbits
 2856              		.align	2
 2857              		.global	wc_RsaEncryptSize
 2858              		.code	16
 2859              		.thumb_func
 2860              		.type	wc_RsaEncryptSize, %function
 2861              	wc_RsaEncryptSize:
 2862              	.LFB32:
1195:..\kronos-c-sdk\src\wolfSSL\wolfcrypt\src/rsa.c **** 
1196:..\kronos-c-sdk\src\wolfSSL\wolfcrypt\src/rsa.c **** 
1197:..\kronos-c-sdk\src\wolfSSL\wolfcrypt\src/rsa.c **** int wc_RsaEncryptSize(RsaKey* key)
1198:..\kronos-c-sdk\src\wolfSSL\wolfcrypt\src/rsa.c **** {
 2863              		.loc 1 1198 0
 2864              		.cfi_startproc
 2865              	.LVL463:
 2866 0000 08B5     		push	{r3, lr}
 2867              		.cfi_def_cfa_offset 8
 2868              		.cfi_offset 3, -8
 2869              		.cfi_offset 14, -4
1199:..\kronos-c-sdk\src\wolfSSL\wolfcrypt\src/rsa.c **** #ifdef HAVE_CAVIUM
1200:..\kronos-c-sdk\src\wolfSSL\wolfcrypt\src/rsa.c ****     if (key->magic == WOLFSSL_RSA_CAVIUM_MAGIC)
1201:..\kronos-c-sdk\src\wolfSSL\wolfcrypt\src/rsa.c ****         return key->c_nSz;
1202:..\kronos-c-sdk\src\wolfSSL\wolfcrypt\src/rsa.c **** #endif
1203:..\kronos-c-sdk\src\wolfSSL\wolfcrypt\src/rsa.c ****     return mp_unsigned_bin_size(&key->n);
 2870              		.loc 1 1203 0
 2871 0002 FFF7FEFF 		bl	mp_unsigned_bin_size
 2872              	.LVL464:
ARM GAS  C:\Users\ddemidov\AppData\Local\Temp\ccr947bU.s 			page 80


1204:..\kronos-c-sdk\src\wolfSSL\wolfcrypt\src/rsa.c **** }
 2873              		.loc 1 1204 0
 2874              		@ sp needed
 2875 0006 08BD     		pop	{r3, pc}
 2876              		.cfi_endproc
 2877              	.LFE32:
 2878              		.size	wc_RsaEncryptSize, .-wc_RsaEncryptSize
 2879              		.section	.text.wc_RsaFlattenPublicKey,"ax",%progbits
 2880              		.align	2
 2881              		.global	wc_RsaFlattenPublicKey
 2882              		.code	16
 2883              		.thumb_func
 2884              		.type	wc_RsaFlattenPublicKey, %function
 2885              	wc_RsaFlattenPublicKey:
 2886              	.LFB33:
1205:..\kronos-c-sdk\src\wolfSSL\wolfcrypt\src/rsa.c **** 
1206:..\kronos-c-sdk\src\wolfSSL\wolfcrypt\src/rsa.c **** /* flatten RsaKey structure into individual elements (e, n) */
1207:..\kronos-c-sdk\src\wolfSSL\wolfcrypt\src/rsa.c **** int wc_RsaFlattenPublicKey(RsaKey* key, byte* e, word32* eSz, byte* n,
1208:..\kronos-c-sdk\src\wolfSSL\wolfcrypt\src/rsa.c ****                            word32* nSz)
1209:..\kronos-c-sdk\src\wolfSSL\wolfcrypt\src/rsa.c **** {
 2887              		.loc 1 1209 0
 2888              		.cfi_startproc
 2889              	.LVL465:
 2890 0000 F0B5     		push	{r4, r5, r6, r7, lr}
 2891              		.cfi_def_cfa_offset 20
 2892              		.cfi_offset 4, -20
 2893              		.cfi_offset 5, -16
 2894              		.cfi_offset 6, -12
 2895              		.cfi_offset 7, -8
 2896              		.cfi_offset 14, -4
 2897 0002 4746     		mov	r7, r8
 2898 0004 80B4     		push	{r7}
 2899              		.cfi_def_cfa_offset 24
 2900              		.cfi_offset 8, -24
 2901 0006 82B0     		sub	sp, sp, #8
 2902              		.cfi_def_cfa_offset 32
 2903 0008 089E     		ldr	r6, [sp, #32]
1210:..\kronos-c-sdk\src\wolfSSL\wolfcrypt\src/rsa.c ****     int sz, ret;
1211:..\kronos-c-sdk\src\wolfSSL\wolfcrypt\src/rsa.c **** 
1212:..\kronos-c-sdk\src\wolfSSL\wolfcrypt\src/rsa.c ****     if (key == NULL || e == NULL || eSz == NULL || n == NULL || nSz == NULL)
 2904              		.loc 1 1212 0
 2905 000a 0028     		cmp	r0, #0
 2906 000c 2BD0     		beq	.L210
 2907              		.loc 1 1212 0 is_stmt 0 discriminator 1
 2908 000e 0029     		cmp	r1, #0
 2909 0010 2CD0     		beq	.L211
 2910              		.loc 1 1212 0 discriminator 2
 2911 0012 002A     		cmp	r2, #0
 2912 0014 2DD0     		beq	.L212
 2913              		.loc 1 1212 0 discriminator 3
 2914 0016 002B     		cmp	r3, #0
 2915 0018 2ED0     		beq	.L213
 2916              		.loc 1 1212 0 discriminator 4
 2917 001a 002E     		cmp	r6, #0
 2918 001c 2FD0     		beq	.L214
 2919 001e 0193     		str	r3, [sp, #4]
 2920 0020 9046     		mov	r8, r2
ARM GAS  C:\Users\ddemidov\AppData\Local\Temp\ccr947bU.s 			page 81


 2921 0022 0091     		str	r1, [sp]
 2922 0024 041C     		mov	r4, r0
1213:..\kronos-c-sdk\src\wolfSSL\wolfcrypt\src/rsa.c ****        return BAD_FUNC_ARG;
1214:..\kronos-c-sdk\src\wolfSSL\wolfcrypt\src/rsa.c **** 
1215:..\kronos-c-sdk\src\wolfSSL\wolfcrypt\src/rsa.c ****     sz = mp_unsigned_bin_size(&key->e);
 2923              		.loc 1 1215 0 is_stmt 1
 2924 0026 071C     		mov	r7, r0
 2925 0028 1037     		add	r7, r7, #16
 2926 002a 381C     		mov	r0, r7
 2927              	.LVL466:
 2928 002c FFF7FEFF 		bl	mp_unsigned_bin_size
 2929              	.LVL467:
 2930 0030 051E     		sub	r5, r0, #0
1216:..\kronos-c-sdk\src\wolfSSL\wolfcrypt\src/rsa.c ****     if ((word32)sz > *nSz)
 2931              		.loc 1 1216 0
 2932 0032 3368     		ldr	r3, [r6]
 2933 0034 9D42     		cmp	r5, r3
 2934 0036 25D8     		bhi	.L215
1217:..\kronos-c-sdk\src\wolfSSL\wolfcrypt\src/rsa.c ****         return RSA_BUFFER_E;
1218:..\kronos-c-sdk\src\wolfSSL\wolfcrypt\src/rsa.c ****     ret = mp_to_unsigned_bin(&key->e, e);
 2935              		.loc 1 1218 0
 2936 0038 381C     		mov	r0, r7
 2937 003a 0099     		ldr	r1, [sp]
 2938 003c FFF7FEFF 		bl	mp_to_unsigned_bin
 2939              	.LVL468:
1219:..\kronos-c-sdk\src\wolfSSL\wolfcrypt\src/rsa.c ****     if (ret != MP_OKAY)
 2940              		.loc 1 1219 0
 2941 0040 0028     		cmp	r0, #0
 2942 0042 24D1     		bne	.L209
1220:..\kronos-c-sdk\src\wolfSSL\wolfcrypt\src/rsa.c ****         return ret;
1221:..\kronos-c-sdk\src\wolfSSL\wolfcrypt\src/rsa.c ****     *eSz = (word32)sz;
 2943              		.loc 1 1221 0
 2944 0044 4346     		mov	r3, r8
 2945 0046 1D60     		str	r5, [r3]
1222:..\kronos-c-sdk\src\wolfSSL\wolfcrypt\src/rsa.c **** 
1223:..\kronos-c-sdk\src\wolfSSL\wolfcrypt\src/rsa.c ****     sz = mp_unsigned_bin_size(&key->n);
 2946              		.loc 1 1223 0
 2947 0048 201C     		mov	r0, r4
 2948              	.LVL469:
 2949 004a FFF7FEFF 		bl	mp_unsigned_bin_size
 2950              	.LVL470:
 2951 004e 051E     		sub	r5, r0, #0
1224:..\kronos-c-sdk\src\wolfSSL\wolfcrypt\src/rsa.c ****     if ((word32)sz > *nSz)
 2952              		.loc 1 1224 0
 2953 0050 3368     		ldr	r3, [r6]
 2954 0052 9D42     		cmp	r5, r3
 2955 0054 19D8     		bhi	.L217
1225:..\kronos-c-sdk\src\wolfSSL\wolfcrypt\src/rsa.c ****         return RSA_BUFFER_E;
1226:..\kronos-c-sdk\src\wolfSSL\wolfcrypt\src/rsa.c ****     ret = mp_to_unsigned_bin(&key->n, n);
 2956              		.loc 1 1226 0
 2957 0056 201C     		mov	r0, r4
 2958 0058 0199     		ldr	r1, [sp, #4]
 2959 005a FFF7FEFF 		bl	mp_to_unsigned_bin
 2960              	.LVL471:
1227:..\kronos-c-sdk\src\wolfSSL\wolfcrypt\src/rsa.c ****     if (ret != MP_OKAY)
 2961              		.loc 1 1227 0
 2962 005e 0028     		cmp	r0, #0
ARM GAS  C:\Users\ddemidov\AppData\Local\Temp\ccr947bU.s 			page 82


 2963 0060 15D1     		bne	.L209
1228:..\kronos-c-sdk\src\wolfSSL\wolfcrypt\src/rsa.c ****         return ret;
1229:..\kronos-c-sdk\src\wolfSSL\wolfcrypt\src/rsa.c ****     *nSz = (word32)sz;
 2964              		.loc 1 1229 0
 2965 0062 3560     		str	r5, [r6]
1230:..\kronos-c-sdk\src\wolfSSL\wolfcrypt\src/rsa.c **** 
1231:..\kronos-c-sdk\src\wolfSSL\wolfcrypt\src/rsa.c ****     return 0;
 2966              		.loc 1 1231 0
 2967 0064 13E0     		b	.L209
 2968              	.LVL472:
 2969              	.L210:
1213:..\kronos-c-sdk\src\wolfSSL\wolfcrypt\src/rsa.c **** 
 2970              		.loc 1 1213 0
 2971 0066 AD20     		mov	r0, #173
 2972              	.LVL473:
 2973 0068 4042     		neg	r0, r0
 2974 006a 10E0     		b	.L209
 2975              	.LVL474:
 2976              	.L211:
 2977 006c AD20     		mov	r0, #173
 2978              	.LVL475:
 2979 006e 4042     		neg	r0, r0
 2980 0070 0DE0     		b	.L209
