ARM GAS  C:\Users\ddemidov\AppData\Local\Temp\ccr947bU.s 			page 1


   1              		.cpu cortex-m0
   2              		.fpu softvfp
   3              		.eabi_attribute 20, 1
   4              		.eabi_attribute 21, 1
   5              		.eabi_attribute 23, 3
   6              		.eabi_attribute 24, 1
   7              		.eabi_attribute 25, 1
   8              		.eabi_attribute 26, 1
   9              		.eabi_attribute 30, 1
  10              		.eabi_attribute 34, 0
  11              		.eabi_attribute 18, 4
  12              		.code	16
  13              		.file	"rsa.c"
  14              		.text
  15              	.Ltext0:
  16              		.cfi_sections	.debug_frame
  17              		.section	.text.RsaUnPad,"ax",%progbits
  18              		.align	2
  19              		.code	16
  20              		.thumb_func
  21              		.type	RsaUnPad, %function
  22              	RsaUnPad:
  23              	.LFB20:
  24              		.file 1 "..\\kronos-c-sdk\\src\\wolfSSL\\wolfcrypt\\src\\rsa.c"
   1:..\kronos-c-sdk\src\wolfSSL\wolfcrypt\src/rsa.c **** /* rsa.c
   2:..\kronos-c-sdk\src\wolfSSL\wolfcrypt\src/rsa.c ****  *
   3:..\kronos-c-sdk\src\wolfSSL\wolfcrypt\src/rsa.c ****  * Copyright (C) 2006-2016 wolfSSL Inc.
   4:..\kronos-c-sdk\src\wolfSSL\wolfcrypt\src/rsa.c ****  *
   5:..\kronos-c-sdk\src\wolfSSL\wolfcrypt\src/rsa.c ****  * This file is part of wolfSSL.
   6:..\kronos-c-sdk\src\wolfSSL\wolfcrypt\src/rsa.c ****  *
   7:..\kronos-c-sdk\src\wolfSSL\wolfcrypt\src/rsa.c ****  * wolfSSL is free software; you can redistribute it and/or modify
   8:..\kronos-c-sdk\src\wolfSSL\wolfcrypt\src/rsa.c ****  * it under the terms of the GNU General Public License as published by
   9:..\kronos-c-sdk\src\wolfSSL\wolfcrypt\src/rsa.c ****  * the Free Software Foundation; either version 2 of the License, or
  10:..\kronos-c-sdk\src\wolfSSL\wolfcrypt\src/rsa.c ****  * (at your option) any later version.
  11:..\kronos-c-sdk\src\wolfSSL\wolfcrypt\src/rsa.c ****  *
  12:..\kronos-c-sdk\src\wolfSSL\wolfcrypt\src/rsa.c ****  * wolfSSL is distributed in the hope that it will be useful,
  13:..\kronos-c-sdk\src\wolfSSL\wolfcrypt\src/rsa.c ****  * but WITHOUT ANY WARRANTY; without even the implied warranty of
  14:..\kronos-c-sdk\src\wolfSSL\wolfcrypt\src/rsa.c ****  * MERCHANTABILITY or FITNESS FOR A PARTICULAR PURPOSE.  See the
  15:..\kronos-c-sdk\src\wolfSSL\wolfcrypt\src/rsa.c ****  * GNU General Public License for more details.
  16:..\kronos-c-sdk\src\wolfSSL\wolfcrypt\src/rsa.c ****  *
  17:..\kronos-c-sdk\src\wolfSSL\wolfcrypt\src/rsa.c ****  * You should have received a copy of the GNU General Public License
  18:..\kronos-c-sdk\src\wolfSSL\wolfcrypt\src/rsa.c ****  * along with this program; if not, write to the Free Software
  19:..\kronos-c-sdk\src\wolfSSL\wolfcrypt\src/rsa.c ****  * Foundation, Inc., 51 Franklin Street, Fifth Floor, Boston, MA 02110-1335, USA
  20:..\kronos-c-sdk\src\wolfSSL\wolfcrypt\src/rsa.c ****  */
  21:..\kronos-c-sdk\src\wolfSSL\wolfcrypt\src/rsa.c **** 
  22:..\kronos-c-sdk\src\wolfSSL\wolfcrypt\src/rsa.c **** 
  23:..\kronos-c-sdk\src\wolfSSL\wolfcrypt\src/rsa.c **** #ifdef HAVE_CONFIG_H
  24:..\kronos-c-sdk\src\wolfSSL\wolfcrypt\src/rsa.c ****     #include <config.h>
  25:..\kronos-c-sdk\src\wolfSSL\wolfcrypt\src/rsa.c **** #endif
  26:..\kronos-c-sdk\src\wolfSSL\wolfcrypt\src/rsa.c **** 
  27:..\kronos-c-sdk\src\wolfSSL\wolfcrypt\src/rsa.c **** #include <wolfssl/wolfcrypt/settings.h>
  28:..\kronos-c-sdk\src\wolfSSL\wolfcrypt\src/rsa.c **** 
  29:..\kronos-c-sdk\src\wolfSSL\wolfcrypt\src/rsa.c **** #ifndef NO_RSA
  30:..\kronos-c-sdk\src\wolfSSL\wolfcrypt\src/rsa.c **** 
  31:..\kronos-c-sdk\src\wolfSSL\wolfcrypt\src/rsa.c **** #include <wolfssl/wolfcrypt/rsa.h>
  32:..\kronos-c-sdk\src\wolfSSL\wolfcrypt\src/rsa.c **** 
  33:..\kronos-c-sdk\src\wolfSSL\wolfcrypt\src/rsa.c **** #ifdef HAVE_FIPS
ARM GAS  C:\Users\ddemidov\AppData\Local\Temp\ccr947bU.s 			page 2


  34:..\kronos-c-sdk\src\wolfSSL\wolfcrypt\src/rsa.c **** int  wc_InitRsaKey(RsaKey* key, void* ptr)
  35:..\kronos-c-sdk\src\wolfSSL\wolfcrypt\src/rsa.c **** {
  36:..\kronos-c-sdk\src\wolfSSL\wolfcrypt\src/rsa.c ****     return InitRsaKey_fips(key, ptr);
  37:..\kronos-c-sdk\src\wolfSSL\wolfcrypt\src/rsa.c **** }
  38:..\kronos-c-sdk\src\wolfSSL\wolfcrypt\src/rsa.c **** 
  39:..\kronos-c-sdk\src\wolfSSL\wolfcrypt\src/rsa.c **** 
  40:..\kronos-c-sdk\src\wolfSSL\wolfcrypt\src/rsa.c **** int  wc_FreeRsaKey(RsaKey* key)
  41:..\kronos-c-sdk\src\wolfSSL\wolfcrypt\src/rsa.c **** {
  42:..\kronos-c-sdk\src\wolfSSL\wolfcrypt\src/rsa.c ****     return FreeRsaKey_fips(key);
  43:..\kronos-c-sdk\src\wolfSSL\wolfcrypt\src/rsa.c **** }
  44:..\kronos-c-sdk\src\wolfSSL\wolfcrypt\src/rsa.c **** 
  45:..\kronos-c-sdk\src\wolfSSL\wolfcrypt\src/rsa.c **** 
  46:..\kronos-c-sdk\src\wolfSSL\wolfcrypt\src/rsa.c **** int  wc_RsaPublicEncrypt(const byte* in, word32 inLen, byte* out,
  47:..\kronos-c-sdk\src\wolfSSL\wolfcrypt\src/rsa.c ****                                  word32 outLen, RsaKey* key, WC_RNG* rng)
  48:..\kronos-c-sdk\src\wolfSSL\wolfcrypt\src/rsa.c **** {
  49:..\kronos-c-sdk\src\wolfSSL\wolfcrypt\src/rsa.c ****     return RsaPublicEncrypt_fips(in, inLen, out, outLen, key, rng);
  50:..\kronos-c-sdk\src\wolfSSL\wolfcrypt\src/rsa.c **** }
  51:..\kronos-c-sdk\src\wolfSSL\wolfcrypt\src/rsa.c **** 
  52:..\kronos-c-sdk\src\wolfSSL\wolfcrypt\src/rsa.c **** 
  53:..\kronos-c-sdk\src\wolfSSL\wolfcrypt\src/rsa.c **** int  wc_RsaPrivateDecryptInline(byte* in, word32 inLen, byte** out,
  54:..\kronos-c-sdk\src\wolfSSL\wolfcrypt\src/rsa.c ****                                         RsaKey* key)
  55:..\kronos-c-sdk\src\wolfSSL\wolfcrypt\src/rsa.c **** {
  56:..\kronos-c-sdk\src\wolfSSL\wolfcrypt\src/rsa.c ****     return RsaPrivateDecryptInline_fips(in, inLen, out, key);
  57:..\kronos-c-sdk\src\wolfSSL\wolfcrypt\src/rsa.c **** }
  58:..\kronos-c-sdk\src\wolfSSL\wolfcrypt\src/rsa.c **** 
  59:..\kronos-c-sdk\src\wolfSSL\wolfcrypt\src/rsa.c **** 
  60:..\kronos-c-sdk\src\wolfSSL\wolfcrypt\src/rsa.c **** int  wc_RsaPrivateDecrypt(const byte* in, word32 inLen, byte* out,
  61:..\kronos-c-sdk\src\wolfSSL\wolfcrypt\src/rsa.c ****                                   word32 outLen, RsaKey* key)
  62:..\kronos-c-sdk\src\wolfSSL\wolfcrypt\src/rsa.c **** {
  63:..\kronos-c-sdk\src\wolfSSL\wolfcrypt\src/rsa.c ****     return RsaPrivateDecrypt_fips(in, inLen, out, outLen, key);
  64:..\kronos-c-sdk\src\wolfSSL\wolfcrypt\src/rsa.c **** }
  65:..\kronos-c-sdk\src\wolfSSL\wolfcrypt\src/rsa.c **** 
  66:..\kronos-c-sdk\src\wolfSSL\wolfcrypt\src/rsa.c **** 
  67:..\kronos-c-sdk\src\wolfSSL\wolfcrypt\src/rsa.c **** int  wc_RsaSSL_Sign(const byte* in, word32 inLen, byte* out,
  68:..\kronos-c-sdk\src\wolfSSL\wolfcrypt\src/rsa.c ****                             word32 outLen, RsaKey* key, WC_RNG* rng)
  69:..\kronos-c-sdk\src\wolfSSL\wolfcrypt\src/rsa.c **** {
  70:..\kronos-c-sdk\src\wolfSSL\wolfcrypt\src/rsa.c ****     return RsaSSL_Sign_fips(in, inLen, out, outLen, key, rng);
  71:..\kronos-c-sdk\src\wolfSSL\wolfcrypt\src/rsa.c **** }
  72:..\kronos-c-sdk\src\wolfSSL\wolfcrypt\src/rsa.c **** 
  73:..\kronos-c-sdk\src\wolfSSL\wolfcrypt\src/rsa.c **** 
  74:..\kronos-c-sdk\src\wolfSSL\wolfcrypt\src/rsa.c **** int  wc_RsaSSL_VerifyInline(byte* in, word32 inLen, byte** out, RsaKey* key)
  75:..\kronos-c-sdk\src\wolfSSL\wolfcrypt\src/rsa.c **** {
  76:..\kronos-c-sdk\src\wolfSSL\wolfcrypt\src/rsa.c ****     return RsaSSL_VerifyInline_fips(in, inLen, out, key);
  77:..\kronos-c-sdk\src\wolfSSL\wolfcrypt\src/rsa.c **** }
  78:..\kronos-c-sdk\src\wolfSSL\wolfcrypt\src/rsa.c **** 
  79:..\kronos-c-sdk\src\wolfSSL\wolfcrypt\src/rsa.c **** 
  80:..\kronos-c-sdk\src\wolfSSL\wolfcrypt\src/rsa.c **** int  wc_RsaSSL_Verify(const byte* in, word32 inLen, byte* out,
  81:..\kronos-c-sdk\src\wolfSSL\wolfcrypt\src/rsa.c ****                               word32 outLen, RsaKey* key)
  82:..\kronos-c-sdk\src\wolfSSL\wolfcrypt\src/rsa.c **** {
  83:..\kronos-c-sdk\src\wolfSSL\wolfcrypt\src/rsa.c ****     return RsaSSL_Verify_fips(in, inLen, out, outLen, key);
  84:..\kronos-c-sdk\src\wolfSSL\wolfcrypt\src/rsa.c **** }
  85:..\kronos-c-sdk\src\wolfSSL\wolfcrypt\src/rsa.c **** 
  86:..\kronos-c-sdk\src\wolfSSL\wolfcrypt\src/rsa.c **** 
  87:..\kronos-c-sdk\src\wolfSSL\wolfcrypt\src/rsa.c **** int  wc_RsaEncryptSize(RsaKey* key)
  88:..\kronos-c-sdk\src\wolfSSL\wolfcrypt\src/rsa.c **** {
  89:..\kronos-c-sdk\src\wolfSSL\wolfcrypt\src/rsa.c ****     return RsaEncryptSize_fips(key);
  90:..\kronos-c-sdk\src\wolfSSL\wolfcrypt\src/rsa.c **** }
ARM GAS  C:\Users\ddemidov\AppData\Local\Temp\ccr947bU.s 			page 3


  91:..\kronos-c-sdk\src\wolfSSL\wolfcrypt\src/rsa.c **** 
  92:..\kronos-c-sdk\src\wolfSSL\wolfcrypt\src/rsa.c **** 
  93:..\kronos-c-sdk\src\wolfSSL\wolfcrypt\src/rsa.c **** int wc_RsaFlattenPublicKey(RsaKey* key, byte* a, word32* aSz, byte* b,
  94:..\kronos-c-sdk\src\wolfSSL\wolfcrypt\src/rsa.c ****                            word32* bSz)
  95:..\kronos-c-sdk\src\wolfSSL\wolfcrypt\src/rsa.c **** {
  96:..\kronos-c-sdk\src\wolfSSL\wolfcrypt\src/rsa.c ****     /* not specified as fips so not needing _fips */
  97:..\kronos-c-sdk\src\wolfSSL\wolfcrypt\src/rsa.c ****     return RsaFlattenPublicKey(key, a, aSz, b, bSz);
  98:..\kronos-c-sdk\src\wolfSSL\wolfcrypt\src/rsa.c **** }
  99:..\kronos-c-sdk\src\wolfSSL\wolfcrypt\src/rsa.c **** #ifdef WOLFSSL_KEY_GEN
 100:..\kronos-c-sdk\src\wolfSSL\wolfcrypt\src/rsa.c ****     int wc_MakeRsaKey(RsaKey* key, int size, long e, WC_RNG* rng)
 101:..\kronos-c-sdk\src\wolfSSL\wolfcrypt\src/rsa.c ****     {
 102:..\kronos-c-sdk\src\wolfSSL\wolfcrypt\src/rsa.c ****         return MakeRsaKey(key, size, e, rng);
 103:..\kronos-c-sdk\src\wolfSSL\wolfcrypt\src/rsa.c ****     }
 104:..\kronos-c-sdk\src\wolfSSL\wolfcrypt\src/rsa.c **** #endif
 105:..\kronos-c-sdk\src\wolfSSL\wolfcrypt\src/rsa.c **** 
 106:..\kronos-c-sdk\src\wolfSSL\wolfcrypt\src/rsa.c **** 
 107:..\kronos-c-sdk\src\wolfSSL\wolfcrypt\src/rsa.c **** #ifdef HAVE_CAVIUM
 108:..\kronos-c-sdk\src\wolfSSL\wolfcrypt\src/rsa.c ****     int  wc_RsaInitCavium(RsaKey* key, int i)
 109:..\kronos-c-sdk\src\wolfSSL\wolfcrypt\src/rsa.c ****     {
 110:..\kronos-c-sdk\src\wolfSSL\wolfcrypt\src/rsa.c ****         return RsaInitCavium(key, i);
 111:..\kronos-c-sdk\src\wolfSSL\wolfcrypt\src/rsa.c ****     }
 112:..\kronos-c-sdk\src\wolfSSL\wolfcrypt\src/rsa.c **** 
 113:..\kronos-c-sdk\src\wolfSSL\wolfcrypt\src/rsa.c **** 
 114:..\kronos-c-sdk\src\wolfSSL\wolfcrypt\src/rsa.c ****     void wc_RsaFreeCavium(RsaKey* key)
 115:..\kronos-c-sdk\src\wolfSSL\wolfcrypt\src/rsa.c ****     {
 116:..\kronos-c-sdk\src\wolfSSL\wolfcrypt\src/rsa.c ****         RsaFreeCavium(key);
 117:..\kronos-c-sdk\src\wolfSSL\wolfcrypt\src/rsa.c ****     }
 118:..\kronos-c-sdk\src\wolfSSL\wolfcrypt\src/rsa.c **** #endif
 119:..\kronos-c-sdk\src\wolfSSL\wolfcrypt\src/rsa.c **** 
 120:..\kronos-c-sdk\src\wolfSSL\wolfcrypt\src/rsa.c **** /* these are functions in asn and are routed to wolfssl/wolfcrypt/asn.c
 121:..\kronos-c-sdk\src\wolfSSL\wolfcrypt\src/rsa.c **** * wc_RsaPrivateKeyDecode
 122:..\kronos-c-sdk\src\wolfSSL\wolfcrypt\src/rsa.c **** * wc_RsaPublicKeyDecode
 123:..\kronos-c-sdk\src\wolfSSL\wolfcrypt\src/rsa.c **** */
 124:..\kronos-c-sdk\src\wolfSSL\wolfcrypt\src/rsa.c **** 
 125:..\kronos-c-sdk\src\wolfSSL\wolfcrypt\src/rsa.c **** #else /* else build without fips */
 126:..\kronos-c-sdk\src\wolfSSL\wolfcrypt\src/rsa.c **** #include <wolfssl/wolfcrypt/random.h>
 127:..\kronos-c-sdk\src\wolfSSL\wolfcrypt\src/rsa.c **** #include <wolfssl/wolfcrypt/error-crypt.h>
 128:..\kronos-c-sdk\src\wolfSSL\wolfcrypt\src/rsa.c **** #include <wolfssl/wolfcrypt/logging.h>
 129:..\kronos-c-sdk\src\wolfSSL\wolfcrypt\src/rsa.c **** #ifdef NO_INLINE
 130:..\kronos-c-sdk\src\wolfSSL\wolfcrypt\src/rsa.c ****     #include <wolfssl/wolfcrypt/misc.h>
 131:..\kronos-c-sdk\src\wolfSSL\wolfcrypt\src/rsa.c **** #else
 132:..\kronos-c-sdk\src\wolfSSL\wolfcrypt\src/rsa.c ****     #include <wolfcrypt/src/misc.c>
 133:..\kronos-c-sdk\src\wolfSSL\wolfcrypt\src/rsa.c **** #endif
 134:..\kronos-c-sdk\src\wolfSSL\wolfcrypt\src/rsa.c **** 
 135:..\kronos-c-sdk\src\wolfSSL\wolfcrypt\src/rsa.c **** #ifdef HAVE_CAVIUM
 136:..\kronos-c-sdk\src\wolfSSL\wolfcrypt\src/rsa.c ****     static int  InitCaviumRsaKey(RsaKey* key, void* heap);
 137:..\kronos-c-sdk\src\wolfSSL\wolfcrypt\src/rsa.c ****     static int  FreeCaviumRsaKey(RsaKey* key);
 138:..\kronos-c-sdk\src\wolfSSL\wolfcrypt\src/rsa.c ****     static int  CaviumRsaPublicEncrypt(const byte* in, word32 inLen, byte* out,
 139:..\kronos-c-sdk\src\wolfSSL\wolfcrypt\src/rsa.c ****                                        word32 outLen, RsaKey* key);
 140:..\kronos-c-sdk\src\wolfSSL\wolfcrypt\src/rsa.c ****     static int  CaviumRsaPrivateDecrypt(const byte* in, word32 inLen, byte* out,
 141:..\kronos-c-sdk\src\wolfSSL\wolfcrypt\src/rsa.c ****                                         word32 outLen, RsaKey* key);
 142:..\kronos-c-sdk\src\wolfSSL\wolfcrypt\src/rsa.c ****     static int  CaviumRsaSSL_Sign(const byte* in, word32 inLen, byte* out,
 143:..\kronos-c-sdk\src\wolfSSL\wolfcrypt\src/rsa.c ****                                   word32 outLen, RsaKey* key);
 144:..\kronos-c-sdk\src\wolfSSL\wolfcrypt\src/rsa.c ****     static int  CaviumRsaSSL_Verify(const byte* in, word32 inLen, byte* out,
 145:..\kronos-c-sdk\src\wolfSSL\wolfcrypt\src/rsa.c ****                                     word32 outLen, RsaKey* key);
 146:..\kronos-c-sdk\src\wolfSSL\wolfcrypt\src/rsa.c **** #endif
 147:..\kronos-c-sdk\src\wolfSSL\wolfcrypt\src/rsa.c **** 
ARM GAS  C:\Users\ddemidov\AppData\Local\Temp\ccr947bU.s 			page 4


 148:..\kronos-c-sdk\src\wolfSSL\wolfcrypt\src/rsa.c **** enum {
 149:..\kronos-c-sdk\src\wolfSSL\wolfcrypt\src/rsa.c ****     RSA_PUBLIC_ENCRYPT  = 0,
 150:..\kronos-c-sdk\src\wolfSSL\wolfcrypt\src/rsa.c ****     RSA_PUBLIC_DECRYPT  = 1,
 151:..\kronos-c-sdk\src\wolfSSL\wolfcrypt\src/rsa.c ****     RSA_PRIVATE_ENCRYPT = 2,
 152:..\kronos-c-sdk\src\wolfSSL\wolfcrypt\src/rsa.c ****     RSA_PRIVATE_DECRYPT = 3,
 153:..\kronos-c-sdk\src\wolfSSL\wolfcrypt\src/rsa.c **** 
 154:..\kronos-c-sdk\src\wolfSSL\wolfcrypt\src/rsa.c ****     RSA_BLOCK_TYPE_1 = 1,
 155:..\kronos-c-sdk\src\wolfSSL\wolfcrypt\src/rsa.c ****     RSA_BLOCK_TYPE_2 = 2,
 156:..\kronos-c-sdk\src\wolfSSL\wolfcrypt\src/rsa.c **** 
 157:..\kronos-c-sdk\src\wolfSSL\wolfcrypt\src/rsa.c ****     RSA_MIN_SIZE = 512,
 158:..\kronos-c-sdk\src\wolfSSL\wolfcrypt\src/rsa.c ****     RSA_MAX_SIZE = 4096,
 159:..\kronos-c-sdk\src\wolfSSL\wolfcrypt\src/rsa.c **** 
 160:..\kronos-c-sdk\src\wolfSSL\wolfcrypt\src/rsa.c ****     RSA_MIN_PAD_SZ   = 11      /* separator + 0 + pad value + 8 pads */
 161:..\kronos-c-sdk\src\wolfSSL\wolfcrypt\src/rsa.c **** };
 162:..\kronos-c-sdk\src\wolfSSL\wolfcrypt\src/rsa.c **** 
 163:..\kronos-c-sdk\src\wolfSSL\wolfcrypt\src/rsa.c **** 
 164:..\kronos-c-sdk\src\wolfSSL\wolfcrypt\src/rsa.c **** int wc_InitRsaKey(RsaKey* key, void* heap)
 165:..\kronos-c-sdk\src\wolfSSL\wolfcrypt\src/rsa.c **** {
 166:..\kronos-c-sdk\src\wolfSSL\wolfcrypt\src/rsa.c **** #ifdef HAVE_CAVIUM
 167:..\kronos-c-sdk\src\wolfSSL\wolfcrypt\src/rsa.c ****     if (key->magic == WOLFSSL_RSA_CAVIUM_MAGIC)
 168:..\kronos-c-sdk\src\wolfSSL\wolfcrypt\src/rsa.c ****         return InitCaviumRsaKey(key, heap);
 169:..\kronos-c-sdk\src\wolfSSL\wolfcrypt\src/rsa.c **** #endif
 170:..\kronos-c-sdk\src\wolfSSL\wolfcrypt\src/rsa.c **** 
 171:..\kronos-c-sdk\src\wolfSSL\wolfcrypt\src/rsa.c ****     key->type = -1;  /* haven't decided yet */
 172:..\kronos-c-sdk\src\wolfSSL\wolfcrypt\src/rsa.c ****     key->heap = heap;
 173:..\kronos-c-sdk\src\wolfSSL\wolfcrypt\src/rsa.c **** 
 174:..\kronos-c-sdk\src\wolfSSL\wolfcrypt\src/rsa.c **** /* TomsFastMath doesn't use memory allocation */
 175:..\kronos-c-sdk\src\wolfSSL\wolfcrypt\src/rsa.c **** #ifndef USE_FAST_MATH
 176:..\kronos-c-sdk\src\wolfSSL\wolfcrypt\src/rsa.c ****     key->n.dp = key->e.dp = 0;  /* public  alloc parts */
 177:..\kronos-c-sdk\src\wolfSSL\wolfcrypt\src/rsa.c **** 
 178:..\kronos-c-sdk\src\wolfSSL\wolfcrypt\src/rsa.c ****     key->d.dp = key->p.dp  = 0;  /* private alloc parts */
 179:..\kronos-c-sdk\src\wolfSSL\wolfcrypt\src/rsa.c ****     key->q.dp = key->dP.dp = 0;
 180:..\kronos-c-sdk\src\wolfSSL\wolfcrypt\src/rsa.c ****     key->u.dp = key->dQ.dp = 0;
 181:..\kronos-c-sdk\src\wolfSSL\wolfcrypt\src/rsa.c **** #else
 182:..\kronos-c-sdk\src\wolfSSL\wolfcrypt\src/rsa.c ****     mp_init(&key->n);
 183:..\kronos-c-sdk\src\wolfSSL\wolfcrypt\src/rsa.c ****     mp_init(&key->e);
 184:..\kronos-c-sdk\src\wolfSSL\wolfcrypt\src/rsa.c ****     mp_init(&key->d);
 185:..\kronos-c-sdk\src\wolfSSL\wolfcrypt\src/rsa.c ****     mp_init(&key->p);
 186:..\kronos-c-sdk\src\wolfSSL\wolfcrypt\src/rsa.c ****     mp_init(&key->q);
 187:..\kronos-c-sdk\src\wolfSSL\wolfcrypt\src/rsa.c ****     mp_init(&key->dP);
 188:..\kronos-c-sdk\src\wolfSSL\wolfcrypt\src/rsa.c ****     mp_init(&key->dQ);
 189:..\kronos-c-sdk\src\wolfSSL\wolfcrypt\src/rsa.c ****     mp_init(&key->u);
 190:..\kronos-c-sdk\src\wolfSSL\wolfcrypt\src/rsa.c **** #endif
 191:..\kronos-c-sdk\src\wolfSSL\wolfcrypt\src/rsa.c **** 
 192:..\kronos-c-sdk\src\wolfSSL\wolfcrypt\src/rsa.c ****     return 0;
 193:..\kronos-c-sdk\src\wolfSSL\wolfcrypt\src/rsa.c **** }
 194:..\kronos-c-sdk\src\wolfSSL\wolfcrypt\src/rsa.c **** 
 195:..\kronos-c-sdk\src\wolfSSL\wolfcrypt\src/rsa.c **** 
 196:..\kronos-c-sdk\src\wolfSSL\wolfcrypt\src/rsa.c **** int wc_FreeRsaKey(RsaKey* key)
 197:..\kronos-c-sdk\src\wolfSSL\wolfcrypt\src/rsa.c **** {
 198:..\kronos-c-sdk\src\wolfSSL\wolfcrypt\src/rsa.c ****     (void)key;
 199:..\kronos-c-sdk\src\wolfSSL\wolfcrypt\src/rsa.c **** 
 200:..\kronos-c-sdk\src\wolfSSL\wolfcrypt\src/rsa.c ****     if (key == NULL)
 201:..\kronos-c-sdk\src\wolfSSL\wolfcrypt\src/rsa.c ****         return 0;
 202:..\kronos-c-sdk\src\wolfSSL\wolfcrypt\src/rsa.c **** 
 203:..\kronos-c-sdk\src\wolfSSL\wolfcrypt\src/rsa.c **** #ifdef HAVE_CAVIUM
 204:..\kronos-c-sdk\src\wolfSSL\wolfcrypt\src/rsa.c ****     if (key->magic == WOLFSSL_RSA_CAVIUM_MAGIC)
ARM GAS  C:\Users\ddemidov\AppData\Local\Temp\ccr947bU.s 			page 5


 205:..\kronos-c-sdk\src\wolfSSL\wolfcrypt\src/rsa.c ****         return FreeCaviumRsaKey(key);
 206:..\kronos-c-sdk\src\wolfSSL\wolfcrypt\src/rsa.c **** #endif
 207:..\kronos-c-sdk\src\wolfSSL\wolfcrypt\src/rsa.c **** 
 208:..\kronos-c-sdk\src\wolfSSL\wolfcrypt\src/rsa.c **** /* TomsFastMath doesn't use memory allocation */
 209:..\kronos-c-sdk\src\wolfSSL\wolfcrypt\src/rsa.c **** #ifndef USE_FAST_MATH
 210:..\kronos-c-sdk\src\wolfSSL\wolfcrypt\src/rsa.c ****     if (key->type == RSA_PRIVATE) {
 211:..\kronos-c-sdk\src\wolfSSL\wolfcrypt\src/rsa.c ****         mp_clear(&key->u);
 212:..\kronos-c-sdk\src\wolfSSL\wolfcrypt\src/rsa.c ****         mp_clear(&key->dQ);
 213:..\kronos-c-sdk\src\wolfSSL\wolfcrypt\src/rsa.c ****         mp_clear(&key->dP);
 214:..\kronos-c-sdk\src\wolfSSL\wolfcrypt\src/rsa.c ****         mp_clear(&key->q);
 215:..\kronos-c-sdk\src\wolfSSL\wolfcrypt\src/rsa.c ****         mp_clear(&key->p);
 216:..\kronos-c-sdk\src\wolfSSL\wolfcrypt\src/rsa.c ****         mp_clear(&key->d);
 217:..\kronos-c-sdk\src\wolfSSL\wolfcrypt\src/rsa.c ****     }
 218:..\kronos-c-sdk\src\wolfSSL\wolfcrypt\src/rsa.c ****     mp_clear(&key->e);
 219:..\kronos-c-sdk\src\wolfSSL\wolfcrypt\src/rsa.c ****     mp_clear(&key->n);
 220:..\kronos-c-sdk\src\wolfSSL\wolfcrypt\src/rsa.c **** #else
 221:..\kronos-c-sdk\src\wolfSSL\wolfcrypt\src/rsa.c ****     /* still clear private key memory information when free'd */
 222:..\kronos-c-sdk\src\wolfSSL\wolfcrypt\src/rsa.c ****     if (key->type == RSA_PRIVATE) {
 223:..\kronos-c-sdk\src\wolfSSL\wolfcrypt\src/rsa.c ****         mp_clear(&key->u);
 224:..\kronos-c-sdk\src\wolfSSL\wolfcrypt\src/rsa.c ****         mp_clear(&key->dQ);
 225:..\kronos-c-sdk\src\wolfSSL\wolfcrypt\src/rsa.c ****         mp_clear(&key->u);
 226:..\kronos-c-sdk\src\wolfSSL\wolfcrypt\src/rsa.c ****         mp_clear(&key->dP);
 227:..\kronos-c-sdk\src\wolfSSL\wolfcrypt\src/rsa.c ****         mp_clear(&key->q);
 228:..\kronos-c-sdk\src\wolfSSL\wolfcrypt\src/rsa.c ****         mp_clear(&key->p);
 229:..\kronos-c-sdk\src\wolfSSL\wolfcrypt\src/rsa.c ****         mp_clear(&key->d);
 230:..\kronos-c-sdk\src\wolfSSL\wolfcrypt\src/rsa.c ****     }
 231:..\kronos-c-sdk\src\wolfSSL\wolfcrypt\src/rsa.c **** #endif
 232:..\kronos-c-sdk\src\wolfSSL\wolfcrypt\src/rsa.c **** 
 233:..\kronos-c-sdk\src\wolfSSL\wolfcrypt\src/rsa.c ****     return 0;
 234:..\kronos-c-sdk\src\wolfSSL\wolfcrypt\src/rsa.c **** }
 235:..\kronos-c-sdk\src\wolfSSL\wolfcrypt\src/rsa.c **** 
 236:..\kronos-c-sdk\src\wolfSSL\wolfcrypt\src/rsa.c **** 
 237:..\kronos-c-sdk\src\wolfSSL\wolfcrypt\src/rsa.c **** #ifndef WC_NO_RSA_OAEP
 238:..\kronos-c-sdk\src\wolfSSL\wolfcrypt\src/rsa.c **** /* Uses MGF1 standard as a mask generation function
 239:..\kronos-c-sdk\src\wolfSSL\wolfcrypt\src/rsa.c ****    hType: hash type used
 240:..\kronos-c-sdk\src\wolfSSL\wolfcrypt\src/rsa.c ****    seed:  seed to use for generating mask
 241:..\kronos-c-sdk\src\wolfSSL\wolfcrypt\src/rsa.c ****    seedSz: size of seed buffer
 242:..\kronos-c-sdk\src\wolfSSL\wolfcrypt\src/rsa.c ****    out:   mask output after generation
 243:..\kronos-c-sdk\src\wolfSSL\wolfcrypt\src/rsa.c ****    outSz: size of output buffer
 244:..\kronos-c-sdk\src\wolfSSL\wolfcrypt\src/rsa.c ****  */
 245:..\kronos-c-sdk\src\wolfSSL\wolfcrypt\src/rsa.c **** static int wc_MGF1(enum wc_HashType hType, byte* seed, word32 seedSz,
 246:..\kronos-c-sdk\src\wolfSSL\wolfcrypt\src/rsa.c ****                                                         byte* out, word32 outSz)
 247:..\kronos-c-sdk\src\wolfSSL\wolfcrypt\src/rsa.c **** {
 248:..\kronos-c-sdk\src\wolfSSL\wolfcrypt\src/rsa.c ****     byte* tmp;
 249:..\kronos-c-sdk\src\wolfSSL\wolfcrypt\src/rsa.c ****     /* needs to be large enough for seed size plus counter(4) */
 250:..\kronos-c-sdk\src\wolfSSL\wolfcrypt\src/rsa.c ****     byte  tmpA[WC_MAX_DIGEST_SIZE + 4];
 251:..\kronos-c-sdk\src\wolfSSL\wolfcrypt\src/rsa.c ****     byte   tmpF;     /* 1 if dynamic memory needs freed */
 252:..\kronos-c-sdk\src\wolfSSL\wolfcrypt\src/rsa.c ****     word32 tmpSz;
 253:..\kronos-c-sdk\src\wolfSSL\wolfcrypt\src/rsa.c ****     int hLen;
 254:..\kronos-c-sdk\src\wolfSSL\wolfcrypt\src/rsa.c ****     int ret;
 255:..\kronos-c-sdk\src\wolfSSL\wolfcrypt\src/rsa.c ****     word32 counter;
 256:..\kronos-c-sdk\src\wolfSSL\wolfcrypt\src/rsa.c ****     word32 idx;
 257:..\kronos-c-sdk\src\wolfSSL\wolfcrypt\src/rsa.c ****     hLen    = wc_HashGetDigestSize(hType);
 258:..\kronos-c-sdk\src\wolfSSL\wolfcrypt\src/rsa.c ****     counter = 0;
 259:..\kronos-c-sdk\src\wolfSSL\wolfcrypt\src/rsa.c ****     idx     = 0;
 260:..\kronos-c-sdk\src\wolfSSL\wolfcrypt\src/rsa.c **** 
 261:..\kronos-c-sdk\src\wolfSSL\wolfcrypt\src/rsa.c ****     /* check error return of wc_HashGetDigestSize */
ARM GAS  C:\Users\ddemidov\AppData\Local\Temp\ccr947bU.s 			page 6


 262:..\kronos-c-sdk\src\wolfSSL\wolfcrypt\src/rsa.c ****     if (hLen < 0) {
 263:..\kronos-c-sdk\src\wolfSSL\wolfcrypt\src/rsa.c ****         return hLen;
 264:..\kronos-c-sdk\src\wolfSSL\wolfcrypt\src/rsa.c ****     }
 265:..\kronos-c-sdk\src\wolfSSL\wolfcrypt\src/rsa.c **** 
 266:..\kronos-c-sdk\src\wolfSSL\wolfcrypt\src/rsa.c ****     /* if tmp is not large enough than use some dynamic memory */
 267:..\kronos-c-sdk\src\wolfSSL\wolfcrypt\src/rsa.c ****     if ((seedSz + 4) > sizeof(tmpA) || (word32)hLen > sizeof(tmpA)) {
 268:..\kronos-c-sdk\src\wolfSSL\wolfcrypt\src/rsa.c ****         /* find largest amount of memory needed which will be the max of
 269:..\kronos-c-sdk\src\wolfSSL\wolfcrypt\src/rsa.c ****          * hLen and (seedSz + 4) since tmp is used to store the hash digest */
 270:..\kronos-c-sdk\src\wolfSSL\wolfcrypt\src/rsa.c ****         tmpSz = ((seedSz + 4) > (word32)hLen)? seedSz + 4: (word32)hLen;
 271:..\kronos-c-sdk\src\wolfSSL\wolfcrypt\src/rsa.c ****         tmp = (byte*)XMALLOC(tmpSz, NULL, DYNAMIC_TYPE_TMP_BUFFER);
 272:..\kronos-c-sdk\src\wolfSSL\wolfcrypt\src/rsa.c ****         if (tmp == NULL) {
 273:..\kronos-c-sdk\src\wolfSSL\wolfcrypt\src/rsa.c ****             return MEMORY_E;
 274:..\kronos-c-sdk\src\wolfSSL\wolfcrypt\src/rsa.c ****         }
 275:..\kronos-c-sdk\src\wolfSSL\wolfcrypt\src/rsa.c ****         tmpF = 1; /* make sure to free memory when done */
 276:..\kronos-c-sdk\src\wolfSSL\wolfcrypt\src/rsa.c ****     }
 277:..\kronos-c-sdk\src\wolfSSL\wolfcrypt\src/rsa.c ****     else {
 278:..\kronos-c-sdk\src\wolfSSL\wolfcrypt\src/rsa.c ****         /* use array on the stack */
 279:..\kronos-c-sdk\src\wolfSSL\wolfcrypt\src/rsa.c ****         tmpSz = sizeof(tmpA);
 280:..\kronos-c-sdk\src\wolfSSL\wolfcrypt\src/rsa.c ****         tmp  = tmpA;
 281:..\kronos-c-sdk\src\wolfSSL\wolfcrypt\src/rsa.c ****         tmpF = 0; /* no need to free memory at end */
 282:..\kronos-c-sdk\src\wolfSSL\wolfcrypt\src/rsa.c ****     }
 283:..\kronos-c-sdk\src\wolfSSL\wolfcrypt\src/rsa.c **** 
 284:..\kronos-c-sdk\src\wolfSSL\wolfcrypt\src/rsa.c ****     do {
 285:..\kronos-c-sdk\src\wolfSSL\wolfcrypt\src/rsa.c ****         int i = 0;
 286:..\kronos-c-sdk\src\wolfSSL\wolfcrypt\src/rsa.c ****         XMEMCPY(tmp, seed, seedSz);
 287:..\kronos-c-sdk\src\wolfSSL\wolfcrypt\src/rsa.c **** 
 288:..\kronos-c-sdk\src\wolfSSL\wolfcrypt\src/rsa.c ****         /* counter to byte array appended to tmp */
 289:..\kronos-c-sdk\src\wolfSSL\wolfcrypt\src/rsa.c ****         tmp[seedSz]     = (counter >> 24) & 0xFF;
 290:..\kronos-c-sdk\src\wolfSSL\wolfcrypt\src/rsa.c ****         tmp[seedSz + 1] = (counter >> 16) & 0xFF;
 291:..\kronos-c-sdk\src\wolfSSL\wolfcrypt\src/rsa.c ****         tmp[seedSz + 2] = (counter >>  8) & 0xFF;
 292:..\kronos-c-sdk\src\wolfSSL\wolfcrypt\src/rsa.c ****         tmp[seedSz + 3] = (counter)       & 0xFF;
 293:..\kronos-c-sdk\src\wolfSSL\wolfcrypt\src/rsa.c **** 
 294:..\kronos-c-sdk\src\wolfSSL\wolfcrypt\src/rsa.c ****         /* hash and append to existing output */
 295:..\kronos-c-sdk\src\wolfSSL\wolfcrypt\src/rsa.c ****         if ((ret = wc_Hash(hType, tmp, (seedSz + 4), tmp, tmpSz)) != 0) {
 296:..\kronos-c-sdk\src\wolfSSL\wolfcrypt\src/rsa.c ****             /* check for if dynamic memory was needed, then free */
 297:..\kronos-c-sdk\src\wolfSSL\wolfcrypt\src/rsa.c ****             if (tmpF) {
 298:..\kronos-c-sdk\src\wolfSSL\wolfcrypt\src/rsa.c ****                 XFREE(tmp, NULL, DYNAMIC_TYPE_TMP_BUFFER);
 299:..\kronos-c-sdk\src\wolfSSL\wolfcrypt\src/rsa.c ****             }
 300:..\kronos-c-sdk\src\wolfSSL\wolfcrypt\src/rsa.c ****             return ret;
 301:..\kronos-c-sdk\src\wolfSSL\wolfcrypt\src/rsa.c ****         }
 302:..\kronos-c-sdk\src\wolfSSL\wolfcrypt\src/rsa.c **** 
 303:..\kronos-c-sdk\src\wolfSSL\wolfcrypt\src/rsa.c ****         for (i = 0; i < hLen && idx < outSz; i++) {
 304:..\kronos-c-sdk\src\wolfSSL\wolfcrypt\src/rsa.c ****             out[idx++] = tmp[i];
 305:..\kronos-c-sdk\src\wolfSSL\wolfcrypt\src/rsa.c ****         }
 306:..\kronos-c-sdk\src\wolfSSL\wolfcrypt\src/rsa.c ****         counter++;
 307:..\kronos-c-sdk\src\wolfSSL\wolfcrypt\src/rsa.c ****     }
 308:..\kronos-c-sdk\src\wolfSSL\wolfcrypt\src/rsa.c ****     while (idx < outSz);
 309:..\kronos-c-sdk\src\wolfSSL\wolfcrypt\src/rsa.c **** 
 310:..\kronos-c-sdk\src\wolfSSL\wolfcrypt\src/rsa.c ****     /* check for if dynamic memory was needed, then free */
 311:..\kronos-c-sdk\src\wolfSSL\wolfcrypt\src/rsa.c ****     if (tmpF) {
 312:..\kronos-c-sdk\src\wolfSSL\wolfcrypt\src/rsa.c ****         XFREE(tmp, NULL, DYNAMIC_TYPE_TMP_BUFFER);
 313:..\kronos-c-sdk\src\wolfSSL\wolfcrypt\src/rsa.c ****     }
 314:..\kronos-c-sdk\src\wolfSSL\wolfcrypt\src/rsa.c **** 
 315:..\kronos-c-sdk\src\wolfSSL\wolfcrypt\src/rsa.c ****     return 0;
 316:..\kronos-c-sdk\src\wolfSSL\wolfcrypt\src/rsa.c **** }
 317:..\kronos-c-sdk\src\wolfSSL\wolfcrypt\src/rsa.c **** 
 318:..\kronos-c-sdk\src\wolfSSL\wolfcrypt\src/rsa.c **** 
ARM GAS  C:\Users\ddemidov\AppData\Local\Temp\ccr947bU.s 			page 7


 319:..\kronos-c-sdk\src\wolfSSL\wolfcrypt\src/rsa.c **** /* helper function to direct which mask generation function is used
 320:..\kronos-c-sdk\src\wolfSSL\wolfcrypt\src/rsa.c ****    switeched on type input
 321:..\kronos-c-sdk\src\wolfSSL\wolfcrypt\src/rsa.c ****  */
 322:..\kronos-c-sdk\src\wolfSSL\wolfcrypt\src/rsa.c **** static int wc_MGF(int type, byte* seed, word32 seedSz,
 323:..\kronos-c-sdk\src\wolfSSL\wolfcrypt\src/rsa.c ****                                                         byte* out, word32 outSz)
 324:..\kronos-c-sdk\src\wolfSSL\wolfcrypt\src/rsa.c **** {
 325:..\kronos-c-sdk\src\wolfSSL\wolfcrypt\src/rsa.c ****     int ret;
 326:..\kronos-c-sdk\src\wolfSSL\wolfcrypt\src/rsa.c **** 
 327:..\kronos-c-sdk\src\wolfSSL\wolfcrypt\src/rsa.c ****     switch(type) {
 328:..\kronos-c-sdk\src\wolfSSL\wolfcrypt\src/rsa.c ****         #ifndef NO_SHA
 329:..\kronos-c-sdk\src\wolfSSL\wolfcrypt\src/rsa.c ****         case WC_MGF1SHA1:
 330:..\kronos-c-sdk\src\wolfSSL\wolfcrypt\src/rsa.c ****                 ret = wc_MGF1(WC_HASH_TYPE_SHA, seed, seedSz, out, outSz);
 331:..\kronos-c-sdk\src\wolfSSL\wolfcrypt\src/rsa.c ****                 break;
 332:..\kronos-c-sdk\src\wolfSSL\wolfcrypt\src/rsa.c ****         #endif
 333:..\kronos-c-sdk\src\wolfSSL\wolfcrypt\src/rsa.c ****         #ifndef NO_SHA256
 334:..\kronos-c-sdk\src\wolfSSL\wolfcrypt\src/rsa.c ****         case WC_MGF1SHA256:
 335:..\kronos-c-sdk\src\wolfSSL\wolfcrypt\src/rsa.c ****                 ret = wc_MGF1(WC_HASH_TYPE_SHA256, seed, seedSz, out, outSz);
 336:..\kronos-c-sdk\src\wolfSSL\wolfcrypt\src/rsa.c ****                 break;
 337:..\kronos-c-sdk\src\wolfSSL\wolfcrypt\src/rsa.c ****         #endif
 338:..\kronos-c-sdk\src\wolfSSL\wolfcrypt\src/rsa.c ****         #ifdef WOLFSSL_SHA512
 339:..\kronos-c-sdk\src\wolfSSL\wolfcrypt\src/rsa.c ****         #ifdef WOLFSSL_SHA384
 340:..\kronos-c-sdk\src\wolfSSL\wolfcrypt\src/rsa.c ****         case WC_MGF1SHA384:
 341:..\kronos-c-sdk\src\wolfSSL\wolfcrypt\src/rsa.c ****                 ret = wc_MGF1(WC_HASH_TYPE_SHA384, seed, seedSz, out, outSz);
 342:..\kronos-c-sdk\src\wolfSSL\wolfcrypt\src/rsa.c ****                 break;
 343:..\kronos-c-sdk\src\wolfSSL\wolfcrypt\src/rsa.c ****         #endif
 344:..\kronos-c-sdk\src\wolfSSL\wolfcrypt\src/rsa.c ****         case WC_MGF1SHA512:
 345:..\kronos-c-sdk\src\wolfSSL\wolfcrypt\src/rsa.c ****                 ret = wc_MGF1(WC_HASH_TYPE_SHA512, seed, seedSz, out, outSz);
 346:..\kronos-c-sdk\src\wolfSSL\wolfcrypt\src/rsa.c ****                 break;
 347:..\kronos-c-sdk\src\wolfSSL\wolfcrypt\src/rsa.c ****         #endif
 348:..\kronos-c-sdk\src\wolfSSL\wolfcrypt\src/rsa.c ****         default:
 349:..\kronos-c-sdk\src\wolfSSL\wolfcrypt\src/rsa.c ****             WOLFSSL_MSG("Unknown MGF function: check build options");
 350:..\kronos-c-sdk\src\wolfSSL\wolfcrypt\src/rsa.c ****             ret = BAD_FUNC_ARG;
 351:..\kronos-c-sdk\src\wolfSSL\wolfcrypt\src/rsa.c ****     }
 352:..\kronos-c-sdk\src\wolfSSL\wolfcrypt\src/rsa.c **** 
 353:..\kronos-c-sdk\src\wolfSSL\wolfcrypt\src/rsa.c ****     /* in case of default avoid unused warning */
 354:..\kronos-c-sdk\src\wolfSSL\wolfcrypt\src/rsa.c ****     (void)seed;
 355:..\kronos-c-sdk\src\wolfSSL\wolfcrypt\src/rsa.c ****     (void)seedSz;
 356:..\kronos-c-sdk\src\wolfSSL\wolfcrypt\src/rsa.c ****     (void)out;
 357:..\kronos-c-sdk\src\wolfSSL\wolfcrypt\src/rsa.c ****     (void)outSz;
 358:..\kronos-c-sdk\src\wolfSSL\wolfcrypt\src/rsa.c **** 
 359:..\kronos-c-sdk\src\wolfSSL\wolfcrypt\src/rsa.c ****     return ret;
 360:..\kronos-c-sdk\src\wolfSSL\wolfcrypt\src/rsa.c **** }
 361:..\kronos-c-sdk\src\wolfSSL\wolfcrypt\src/rsa.c **** 
 362:..\kronos-c-sdk\src\wolfSSL\wolfcrypt\src/rsa.c **** 
 363:..\kronos-c-sdk\src\wolfSSL\wolfcrypt\src/rsa.c **** static int wc_RsaPad_OAEP(const byte* input, word32 inputLen, byte* pkcsBlock,
 364:..\kronos-c-sdk\src\wolfSSL\wolfcrypt\src/rsa.c ****         word32 pkcsBlockLen, byte padValue, WC_RNG* rng,
 365:..\kronos-c-sdk\src\wolfSSL\wolfcrypt\src/rsa.c ****         enum wc_HashType hType, int mgf, byte* optLabel, word32 labelLen)
 366:..\kronos-c-sdk\src\wolfSSL\wolfcrypt\src/rsa.c **** {
 367:..\kronos-c-sdk\src\wolfSSL\wolfcrypt\src/rsa.c ****     int ret;
 368:..\kronos-c-sdk\src\wolfSSL\wolfcrypt\src/rsa.c ****     int hLen;
 369:..\kronos-c-sdk\src\wolfSSL\wolfcrypt\src/rsa.c ****     int psLen;
 370:..\kronos-c-sdk\src\wolfSSL\wolfcrypt\src/rsa.c ****     int i;
 371:..\kronos-c-sdk\src\wolfSSL\wolfcrypt\src/rsa.c ****     word32 idx;
 372:..\kronos-c-sdk\src\wolfSSL\wolfcrypt\src/rsa.c **** 
 373:..\kronos-c-sdk\src\wolfSSL\wolfcrypt\src/rsa.c ****     byte* dbMask;
 374:..\kronos-c-sdk\src\wolfSSL\wolfcrypt\src/rsa.c **** 
 375:..\kronos-c-sdk\src\wolfSSL\wolfcrypt\src/rsa.c ****     #ifdef WOLFSSL_SMALL_STACK
ARM GAS  C:\Users\ddemidov\AppData\Local\Temp\ccr947bU.s 			page 8


 376:..\kronos-c-sdk\src\wolfSSL\wolfcrypt\src/rsa.c ****         byte* lHash = NULL;
 377:..\kronos-c-sdk\src\wolfSSL\wolfcrypt\src/rsa.c ****         byte* seed  = NULL;
 378:..\kronos-c-sdk\src\wolfSSL\wolfcrypt\src/rsa.c ****     #else
 379:..\kronos-c-sdk\src\wolfSSL\wolfcrypt\src/rsa.c ****         /* must be large enough to contain largest hash */
 380:..\kronos-c-sdk\src\wolfSSL\wolfcrypt\src/rsa.c ****         byte lHash[WC_MAX_DIGEST_SIZE];
 381:..\kronos-c-sdk\src\wolfSSL\wolfcrypt\src/rsa.c ****         byte seed[ WC_MAX_DIGEST_SIZE];
 382:..\kronos-c-sdk\src\wolfSSL\wolfcrypt\src/rsa.c ****     #endif
 383:..\kronos-c-sdk\src\wolfSSL\wolfcrypt\src/rsa.c **** 
 384:..\kronos-c-sdk\src\wolfSSL\wolfcrypt\src/rsa.c ****     /* can use with no lable but catch if no lable provided while having
 385:..\kronos-c-sdk\src\wolfSSL\wolfcrypt\src/rsa.c ****        length > 0 */
 386:..\kronos-c-sdk\src\wolfSSL\wolfcrypt\src/rsa.c ****     if (optLabel == NULL && labelLen > 0) {
 387:..\kronos-c-sdk\src\wolfSSL\wolfcrypt\src/rsa.c ****         return BUFFER_E;
 388:..\kronos-c-sdk\src\wolfSSL\wolfcrypt\src/rsa.c ****     }
 389:..\kronos-c-sdk\src\wolfSSL\wolfcrypt\src/rsa.c **** 
 390:..\kronos-c-sdk\src\wolfSSL\wolfcrypt\src/rsa.c ****     /* limit of label is the same as limit of hash function which is massive */
 391:..\kronos-c-sdk\src\wolfSSL\wolfcrypt\src/rsa.c ****     hLen = wc_HashGetDigestSize(hType);
 392:..\kronos-c-sdk\src\wolfSSL\wolfcrypt\src/rsa.c ****     if (hLen < 0) {
 393:..\kronos-c-sdk\src\wolfSSL\wolfcrypt\src/rsa.c ****         return hLen;
 394:..\kronos-c-sdk\src\wolfSSL\wolfcrypt\src/rsa.c ****     }
 395:..\kronos-c-sdk\src\wolfSSL\wolfcrypt\src/rsa.c **** 
 396:..\kronos-c-sdk\src\wolfSSL\wolfcrypt\src/rsa.c ****     #ifdef WOLFSSL_SMALL_STACK
 397:..\kronos-c-sdk\src\wolfSSL\wolfcrypt\src/rsa.c ****         lHash = (byte*)XMALLOC(hLen, NULL, DYNAMIC_TYPE_TMP_BUFFER);
 398:..\kronos-c-sdk\src\wolfSSL\wolfcrypt\src/rsa.c ****         if (lHash == NULL) {
 399:..\kronos-c-sdk\src\wolfSSL\wolfcrypt\src/rsa.c ****             return MEMORY_E;
 400:..\kronos-c-sdk\src\wolfSSL\wolfcrypt\src/rsa.c ****         }
 401:..\kronos-c-sdk\src\wolfSSL\wolfcrypt\src/rsa.c ****         seed = (byte*)XMALLOC(hLen, NULL, DYNAMIC_TYPE_TMP_BUFFER);
 402:..\kronos-c-sdk\src\wolfSSL\wolfcrypt\src/rsa.c ****         if (seed == NULL) {
 403:..\kronos-c-sdk\src\wolfSSL\wolfcrypt\src/rsa.c ****             XFREE(lHash, NULL, DYNAMIC_TYPE_TMP_BUFFER);
 404:..\kronos-c-sdk\src\wolfSSL\wolfcrypt\src/rsa.c ****             return MEMORY_E;
 405:..\kronos-c-sdk\src\wolfSSL\wolfcrypt\src/rsa.c ****         }
 406:..\kronos-c-sdk\src\wolfSSL\wolfcrypt\src/rsa.c ****     #else
 407:..\kronos-c-sdk\src\wolfSSL\wolfcrypt\src/rsa.c ****         /* hLen should never be larger than lHash since size is max digest size,
 408:..\kronos-c-sdk\src\wolfSSL\wolfcrypt\src/rsa.c ****            but check before blindly calling wc_Hash */
 409:..\kronos-c-sdk\src\wolfSSL\wolfcrypt\src/rsa.c ****         if ((word32)hLen > sizeof(lHash)) {
 410:..\kronos-c-sdk\src\wolfSSL\wolfcrypt\src/rsa.c ****             WOLFSSL_MSG("OAEP lHash to small for digest!!");
 411:..\kronos-c-sdk\src\wolfSSL\wolfcrypt\src/rsa.c ****             return MEMORY_E;
 412:..\kronos-c-sdk\src\wolfSSL\wolfcrypt\src/rsa.c ****         }
 413:..\kronos-c-sdk\src\wolfSSL\wolfcrypt\src/rsa.c ****     #endif
 414:..\kronos-c-sdk\src\wolfSSL\wolfcrypt\src/rsa.c **** 
 415:..\kronos-c-sdk\src\wolfSSL\wolfcrypt\src/rsa.c ****     if ((ret = wc_Hash(hType, optLabel, labelLen,
 416:..\kronos-c-sdk\src\wolfSSL\wolfcrypt\src/rsa.c ****                                                   lHash, hLen)) != 0) {
 417:..\kronos-c-sdk\src\wolfSSL\wolfcrypt\src/rsa.c ****         WOLFSSL_MSG("OAEP hash type possibly not supported or lHash to small");
 418:..\kronos-c-sdk\src\wolfSSL\wolfcrypt\src/rsa.c ****         #ifdef WOLFSSL_SMALL_STACK
 419:..\kronos-c-sdk\src\wolfSSL\wolfcrypt\src/rsa.c ****             XFREE(lHash, NULL, DYNAMIC_TYPE_TMP_BUFFER);
 420:..\kronos-c-sdk\src\wolfSSL\wolfcrypt\src/rsa.c ****             XFREE(seed,  NULL, DYNAMIC_TYPE_TMP_BUFFER);
 421:..\kronos-c-sdk\src\wolfSSL\wolfcrypt\src/rsa.c ****         #endif
 422:..\kronos-c-sdk\src\wolfSSL\wolfcrypt\src/rsa.c ****         return ret;
 423:..\kronos-c-sdk\src\wolfSSL\wolfcrypt\src/rsa.c ****     }
 424:..\kronos-c-sdk\src\wolfSSL\wolfcrypt\src/rsa.c **** 
 425:..\kronos-c-sdk\src\wolfSSL\wolfcrypt\src/rsa.c ****     /* handles check of location for idx as well as psLen, cast to int to check
 426:..\kronos-c-sdk\src\wolfSSL\wolfcrypt\src/rsa.c ****        for pkcsBlockLen(k) - 2 * hLen - 2 being negative
 427:..\kronos-c-sdk\src\wolfSSL\wolfcrypt\src/rsa.c ****        This check is similar to decryption where k > 2 * hLen + 2 as msg
 428:..\kronos-c-sdk\src\wolfSSL\wolfcrypt\src/rsa.c ****        size aproaches 0. In decryption if k is less than or equal -- then there
 429:..\kronos-c-sdk\src\wolfSSL\wolfcrypt\src/rsa.c ****        is no possible room for msg.
 430:..\kronos-c-sdk\src\wolfSSL\wolfcrypt\src/rsa.c ****        k = RSA key size
 431:..\kronos-c-sdk\src\wolfSSL\wolfcrypt\src/rsa.c ****        hLen = hash digest size -- will always be >= 0 at this point
 432:..\kronos-c-sdk\src\wolfSSL\wolfcrypt\src/rsa.c ****      */
ARM GAS  C:\Users\ddemidov\AppData\Local\Temp\ccr947bU.s 			page 9


 433:..\kronos-c-sdk\src\wolfSSL\wolfcrypt\src/rsa.c ****     if ((word32)(2 * hLen + 2) > pkcsBlockLen) {
 434:..\kronos-c-sdk\src\wolfSSL\wolfcrypt\src/rsa.c ****         WOLFSSL_MSG("OAEP pad error hash to big for RSA key size");
 435:..\kronos-c-sdk\src\wolfSSL\wolfcrypt\src/rsa.c ****         #ifdef WOLFSSL_SMALL_STACK
 436:..\kronos-c-sdk\src\wolfSSL\wolfcrypt\src/rsa.c ****             XFREE(lHash, NULL, DYNAMIC_TYPE_TMP_BUFFER);
 437:..\kronos-c-sdk\src\wolfSSL\wolfcrypt\src/rsa.c ****             XFREE(seed,  NULL, DYNAMIC_TYPE_TMP_BUFFER);
 438:..\kronos-c-sdk\src\wolfSSL\wolfcrypt\src/rsa.c ****         #endif
 439:..\kronos-c-sdk\src\wolfSSL\wolfcrypt\src/rsa.c ****         return BAD_FUNC_ARG;
 440:..\kronos-c-sdk\src\wolfSSL\wolfcrypt\src/rsa.c ****     }
 441:..\kronos-c-sdk\src\wolfSSL\wolfcrypt\src/rsa.c **** 
 442:..\kronos-c-sdk\src\wolfSSL\wolfcrypt\src/rsa.c ****     if (inputLen > (pkcsBlockLen - 2 * hLen - 2)) {
 443:..\kronos-c-sdk\src\wolfSSL\wolfcrypt\src/rsa.c ****         WOLFSSL_MSG("OAEP pad error message too long");
 444:..\kronos-c-sdk\src\wolfSSL\wolfcrypt\src/rsa.c ****         #ifdef WOLFSSL_SMALL_STACK
 445:..\kronos-c-sdk\src\wolfSSL\wolfcrypt\src/rsa.c ****             XFREE(lHash, NULL, DYNAMIC_TYPE_TMP_BUFFER);
 446:..\kronos-c-sdk\src\wolfSSL\wolfcrypt\src/rsa.c ****             XFREE(seed,  NULL, DYNAMIC_TYPE_TMP_BUFFER);
 447:..\kronos-c-sdk\src\wolfSSL\wolfcrypt\src/rsa.c ****         #endif
 448:..\kronos-c-sdk\src\wolfSSL\wolfcrypt\src/rsa.c ****         return BAD_FUNC_ARG;
 449:..\kronos-c-sdk\src\wolfSSL\wolfcrypt\src/rsa.c ****     }
 450:..\kronos-c-sdk\src\wolfSSL\wolfcrypt\src/rsa.c **** 
 451:..\kronos-c-sdk\src\wolfSSL\wolfcrypt\src/rsa.c ****     /* concatenate lHash || PS || 0x01 || msg */
 452:..\kronos-c-sdk\src\wolfSSL\wolfcrypt\src/rsa.c ****     idx = pkcsBlockLen - 1 - inputLen;
 453:..\kronos-c-sdk\src\wolfSSL\wolfcrypt\src/rsa.c ****     psLen = pkcsBlockLen - inputLen - 2 * hLen - 2;
 454:..\kronos-c-sdk\src\wolfSSL\wolfcrypt\src/rsa.c ****     if (pkcsBlockLen < inputLen) { /*make sure not writing over end of buffer */
 455:..\kronos-c-sdk\src\wolfSSL\wolfcrypt\src/rsa.c ****         #ifdef WOLFSSL_SMALL_STACK
 456:..\kronos-c-sdk\src\wolfSSL\wolfcrypt\src/rsa.c ****             XFREE(lHash, NULL, DYNAMIC_TYPE_TMP_BUFFER);
 457:..\kronos-c-sdk\src\wolfSSL\wolfcrypt\src/rsa.c ****             XFREE(seed,  NULL, DYNAMIC_TYPE_TMP_BUFFER);
 458:..\kronos-c-sdk\src\wolfSSL\wolfcrypt\src/rsa.c ****         #endif
 459:..\kronos-c-sdk\src\wolfSSL\wolfcrypt\src/rsa.c ****         return BUFFER_E;
 460:..\kronos-c-sdk\src\wolfSSL\wolfcrypt\src/rsa.c ****     }
 461:..\kronos-c-sdk\src\wolfSSL\wolfcrypt\src/rsa.c ****     XMEMCPY(pkcsBlock + (pkcsBlockLen - inputLen), input, inputLen);
 462:..\kronos-c-sdk\src\wolfSSL\wolfcrypt\src/rsa.c ****     pkcsBlock[idx--] = 0x01; /* PS and M separator */
 463:..\kronos-c-sdk\src\wolfSSL\wolfcrypt\src/rsa.c ****     while (psLen > 0 && idx > 0) {
 464:..\kronos-c-sdk\src\wolfSSL\wolfcrypt\src/rsa.c ****         pkcsBlock[idx--] = 0x00;
 465:..\kronos-c-sdk\src\wolfSSL\wolfcrypt\src/rsa.c ****         psLen--;
 466:..\kronos-c-sdk\src\wolfSSL\wolfcrypt\src/rsa.c ****     }
 467:..\kronos-c-sdk\src\wolfSSL\wolfcrypt\src/rsa.c **** 
 468:..\kronos-c-sdk\src\wolfSSL\wolfcrypt\src/rsa.c ****     idx = idx - hLen + 1;
 469:..\kronos-c-sdk\src\wolfSSL\wolfcrypt\src/rsa.c ****     XMEMCPY(pkcsBlock + idx, lHash, hLen);
 470:..\kronos-c-sdk\src\wolfSSL\wolfcrypt\src/rsa.c **** 
 471:..\kronos-c-sdk\src\wolfSSL\wolfcrypt\src/rsa.c ****     /* generate random seed */
 472:..\kronos-c-sdk\src\wolfSSL\wolfcrypt\src/rsa.c ****     if ((ret = wc_RNG_GenerateBlock(rng, seed, hLen)) != 0) {
 473:..\kronos-c-sdk\src\wolfSSL\wolfcrypt\src/rsa.c ****         #ifdef WOLFSSL_SMALL_STACK
 474:..\kronos-c-sdk\src\wolfSSL\wolfcrypt\src/rsa.c ****             XFREE(lHash, NULL, DYNAMIC_TYPE_TMP_BUFFER);
 475:..\kronos-c-sdk\src\wolfSSL\wolfcrypt\src/rsa.c ****             XFREE(seed,  NULL, DYNAMIC_TYPE_TMP_BUFFER);
 476:..\kronos-c-sdk\src\wolfSSL\wolfcrypt\src/rsa.c ****         #endif
 477:..\kronos-c-sdk\src\wolfSSL\wolfcrypt\src/rsa.c ****         return ret;
 478:..\kronos-c-sdk\src\wolfSSL\wolfcrypt\src/rsa.c ****     }
 479:..\kronos-c-sdk\src\wolfSSL\wolfcrypt\src/rsa.c **** 
 480:..\kronos-c-sdk\src\wolfSSL\wolfcrypt\src/rsa.c ****     /* create maskedDB from dbMask */
 481:..\kronos-c-sdk\src\wolfSSL\wolfcrypt\src/rsa.c ****     dbMask = (byte*)XMALLOC(pkcsBlockLen - hLen - 1, NULL, DYNAMIC_TYPE_RSA);
 482:..\kronos-c-sdk\src\wolfSSL\wolfcrypt\src/rsa.c ****     if (dbMask == NULL) {
 483:..\kronos-c-sdk\src\wolfSSL\wolfcrypt\src/rsa.c ****         #ifdef WOLFSSL_SMALL_STACK
 484:..\kronos-c-sdk\src\wolfSSL\wolfcrypt\src/rsa.c ****             XFREE(lHash, NULL, DYNAMIC_TYPE_TMP_BUFFER);
 485:..\kronos-c-sdk\src\wolfSSL\wolfcrypt\src/rsa.c ****             XFREE(seed,  NULL, DYNAMIC_TYPE_TMP_BUFFER);
 486:..\kronos-c-sdk\src\wolfSSL\wolfcrypt\src/rsa.c ****         #endif
 487:..\kronos-c-sdk\src\wolfSSL\wolfcrypt\src/rsa.c ****         return MEMORY_E;
 488:..\kronos-c-sdk\src\wolfSSL\wolfcrypt\src/rsa.c ****     }
 489:..\kronos-c-sdk\src\wolfSSL\wolfcrypt\src/rsa.c ****     XMEMSET(dbMask, 0, pkcsBlockLen - hLen - 1); /* help static analyzer */
ARM GAS  C:\Users\ddemidov\AppData\Local\Temp\ccr947bU.s 			page 10


 490:..\kronos-c-sdk\src\wolfSSL\wolfcrypt\src/rsa.c **** 
 491:..\kronos-c-sdk\src\wolfSSL\wolfcrypt\src/rsa.c ****     ret = wc_MGF(mgf, seed, hLen, dbMask, pkcsBlockLen - hLen - 1);
 492:..\kronos-c-sdk\src\wolfSSL\wolfcrypt\src/rsa.c ****     if (ret != 0) {
 493:..\kronos-c-sdk\src\wolfSSL\wolfcrypt\src/rsa.c ****         XFREE(dbMask, NULL, DYNAMIC_TYPE_RSA);
 494:..\kronos-c-sdk\src\wolfSSL\wolfcrypt\src/rsa.c ****         #ifdef WOLFSSL_SMALL_STACK
 495:..\kronos-c-sdk\src\wolfSSL\wolfcrypt\src/rsa.c ****             XFREE(lHash, NULL, DYNAMIC_TYPE_TMP_BUFFER);
 496:..\kronos-c-sdk\src\wolfSSL\wolfcrypt\src/rsa.c ****             XFREE(seed,  NULL, DYNAMIC_TYPE_TMP_BUFFER);
 497:..\kronos-c-sdk\src\wolfSSL\wolfcrypt\src/rsa.c ****         #endif
 498:..\kronos-c-sdk\src\wolfSSL\wolfcrypt\src/rsa.c ****         return ret;
 499:..\kronos-c-sdk\src\wolfSSL\wolfcrypt\src/rsa.c ****     }
 500:..\kronos-c-sdk\src\wolfSSL\wolfcrypt\src/rsa.c **** 
 501:..\kronos-c-sdk\src\wolfSSL\wolfcrypt\src/rsa.c ****     i = 0;
 502:..\kronos-c-sdk\src\wolfSSL\wolfcrypt\src/rsa.c ****     idx = hLen + 1;
 503:..\kronos-c-sdk\src\wolfSSL\wolfcrypt\src/rsa.c ****     while (idx < pkcsBlockLen && (word32)i < (pkcsBlockLen - hLen -1)) {
 504:..\kronos-c-sdk\src\wolfSSL\wolfcrypt\src/rsa.c ****         pkcsBlock[idx] = dbMask[i++] ^ pkcsBlock[idx];
 505:..\kronos-c-sdk\src\wolfSSL\wolfcrypt\src/rsa.c ****         idx++;
 506:..\kronos-c-sdk\src\wolfSSL\wolfcrypt\src/rsa.c ****     }
 507:..\kronos-c-sdk\src\wolfSSL\wolfcrypt\src/rsa.c ****     XFREE(dbMask, NULL, DYNAMIC_TYPE_RSA);
 508:..\kronos-c-sdk\src\wolfSSL\wolfcrypt\src/rsa.c **** 
 509:..\kronos-c-sdk\src\wolfSSL\wolfcrypt\src/rsa.c **** 
 510:..\kronos-c-sdk\src\wolfSSL\wolfcrypt\src/rsa.c ****     /* create maskedSeed from seedMask */
 511:..\kronos-c-sdk\src\wolfSSL\wolfcrypt\src/rsa.c ****     idx = 0;
 512:..\kronos-c-sdk\src\wolfSSL\wolfcrypt\src/rsa.c ****     pkcsBlock[idx++] = 0x00;
 513:..\kronos-c-sdk\src\wolfSSL\wolfcrypt\src/rsa.c ****     /* create seedMask inline */
 514:..\kronos-c-sdk\src\wolfSSL\wolfcrypt\src/rsa.c ****     if ((ret = wc_MGF(mgf, pkcsBlock + hLen + 1, pkcsBlockLen - hLen - 1,
 515:..\kronos-c-sdk\src\wolfSSL\wolfcrypt\src/rsa.c ****                                                    pkcsBlock + 1, hLen)) != 0) {
 516:..\kronos-c-sdk\src\wolfSSL\wolfcrypt\src/rsa.c ****         #ifdef WOLFSSL_SMALL_STACK
 517:..\kronos-c-sdk\src\wolfSSL\wolfcrypt\src/rsa.c ****             XFREE(lHash, NULL, DYNAMIC_TYPE_TMP_BUFFER);
 518:..\kronos-c-sdk\src\wolfSSL\wolfcrypt\src/rsa.c ****             XFREE(seed,  NULL, DYNAMIC_TYPE_TMP_BUFFER);
 519:..\kronos-c-sdk\src\wolfSSL\wolfcrypt\src/rsa.c ****         #endif
 520:..\kronos-c-sdk\src\wolfSSL\wolfcrypt\src/rsa.c ****         return ret;
 521:..\kronos-c-sdk\src\wolfSSL\wolfcrypt\src/rsa.c ****     }
 522:..\kronos-c-sdk\src\wolfSSL\wolfcrypt\src/rsa.c **** 
 523:..\kronos-c-sdk\src\wolfSSL\wolfcrypt\src/rsa.c ****     /* xor created seedMask with seed to make maskedSeed */
 524:..\kronos-c-sdk\src\wolfSSL\wolfcrypt\src/rsa.c ****     i = 0;
 525:..\kronos-c-sdk\src\wolfSSL\wolfcrypt\src/rsa.c ****     while (idx < (word32)(hLen + 1) && i < hLen) {
 526:..\kronos-c-sdk\src\wolfSSL\wolfcrypt\src/rsa.c ****         pkcsBlock[idx] = pkcsBlock[idx] ^ seed[i++];
 527:..\kronos-c-sdk\src\wolfSSL\wolfcrypt\src/rsa.c ****         idx++;
 528:..\kronos-c-sdk\src\wolfSSL\wolfcrypt\src/rsa.c ****     }
 529:..\kronos-c-sdk\src\wolfSSL\wolfcrypt\src/rsa.c **** 
 530:..\kronos-c-sdk\src\wolfSSL\wolfcrypt\src/rsa.c ****     #ifdef WOLFSSL_SMALL_STACK
 531:..\kronos-c-sdk\src\wolfSSL\wolfcrypt\src/rsa.c ****         XFREE(lHash, NULL, DYNAMIC_TYPE_TMP_BUFFER);
 532:..\kronos-c-sdk\src\wolfSSL\wolfcrypt\src/rsa.c ****         XFREE(seed,  NULL, DYNAMIC_TYPE_TMP_BUFFER);
 533:..\kronos-c-sdk\src\wolfSSL\wolfcrypt\src/rsa.c ****     #endif
 534:..\kronos-c-sdk\src\wolfSSL\wolfcrypt\src/rsa.c ****     (void)padValue;
 535:..\kronos-c-sdk\src\wolfSSL\wolfcrypt\src/rsa.c **** 
 536:..\kronos-c-sdk\src\wolfSSL\wolfcrypt\src/rsa.c ****     return 0;
 537:..\kronos-c-sdk\src\wolfSSL\wolfcrypt\src/rsa.c **** }
 538:..\kronos-c-sdk\src\wolfSSL\wolfcrypt\src/rsa.c **** #endif /* WC_NO_RSA_OAEP */
 539:..\kronos-c-sdk\src\wolfSSL\wolfcrypt\src/rsa.c **** 
 540:..\kronos-c-sdk\src\wolfSSL\wolfcrypt\src/rsa.c **** 
 541:..\kronos-c-sdk\src\wolfSSL\wolfcrypt\src/rsa.c **** static int wc_RsaPad(const byte* input, word32 inputLen, byte* pkcsBlock,
 542:..\kronos-c-sdk\src\wolfSSL\wolfcrypt\src/rsa.c ****                    word32 pkcsBlockLen, byte padValue, WC_RNG* rng)
 543:..\kronos-c-sdk\src\wolfSSL\wolfcrypt\src/rsa.c **** {
 544:..\kronos-c-sdk\src\wolfSSL\wolfcrypt\src/rsa.c ****     if (inputLen == 0)
 545:..\kronos-c-sdk\src\wolfSSL\wolfcrypt\src/rsa.c ****         return 0;
 546:..\kronos-c-sdk\src\wolfSSL\wolfcrypt\src/rsa.c **** 
ARM GAS  C:\Users\ddemidov\AppData\Local\Temp\ccr947bU.s 			page 11


 547:..\kronos-c-sdk\src\wolfSSL\wolfcrypt\src/rsa.c ****     pkcsBlock[0] = 0x0;       /* set first byte to zero and advance */
 548:..\kronos-c-sdk\src\wolfSSL\wolfcrypt\src/rsa.c ****     pkcsBlock++; pkcsBlockLen--;
 549:..\kronos-c-sdk\src\wolfSSL\wolfcrypt\src/rsa.c ****     pkcsBlock[0] = padValue;  /* insert padValue */
 550:..\kronos-c-sdk\src\wolfSSL\wolfcrypt\src/rsa.c **** 
 551:..\kronos-c-sdk\src\wolfSSL\wolfcrypt\src/rsa.c ****     if (padValue == RSA_BLOCK_TYPE_1)
 552:..\kronos-c-sdk\src\wolfSSL\wolfcrypt\src/rsa.c ****         /* pad with 0xff bytes */
 553:..\kronos-c-sdk\src\wolfSSL\wolfcrypt\src/rsa.c ****         XMEMSET(&pkcsBlock[1], 0xFF, pkcsBlockLen - inputLen - 2);
 554:..\kronos-c-sdk\src\wolfSSL\wolfcrypt\src/rsa.c ****     else {
 555:..\kronos-c-sdk\src\wolfSSL\wolfcrypt\src/rsa.c ****         /* pad with non-zero random bytes */
 556:..\kronos-c-sdk\src\wolfSSL\wolfcrypt\src/rsa.c ****         word32 padLen = pkcsBlockLen - inputLen - 1, i;
 557:..\kronos-c-sdk\src\wolfSSL\wolfcrypt\src/rsa.c ****         int    ret    = wc_RNG_GenerateBlock(rng, &pkcsBlock[1], padLen);
 558:..\kronos-c-sdk\src\wolfSSL\wolfcrypt\src/rsa.c **** 
 559:..\kronos-c-sdk\src\wolfSSL\wolfcrypt\src/rsa.c ****         if (ret != 0)
 560:..\kronos-c-sdk\src\wolfSSL\wolfcrypt\src/rsa.c ****             return ret;
 561:..\kronos-c-sdk\src\wolfSSL\wolfcrypt\src/rsa.c **** 
 562:..\kronos-c-sdk\src\wolfSSL\wolfcrypt\src/rsa.c ****         /* remove zeros */
 563:..\kronos-c-sdk\src\wolfSSL\wolfcrypt\src/rsa.c ****         for (i = 1; i < padLen; i++)
 564:..\kronos-c-sdk\src\wolfSSL\wolfcrypt\src/rsa.c ****             if (pkcsBlock[i] == 0) pkcsBlock[i] = 0x01;
 565:..\kronos-c-sdk\src\wolfSSL\wolfcrypt\src/rsa.c ****     }
 566:..\kronos-c-sdk\src\wolfSSL\wolfcrypt\src/rsa.c **** 
 567:..\kronos-c-sdk\src\wolfSSL\wolfcrypt\src/rsa.c ****     pkcsBlock[pkcsBlockLen-inputLen-1] = 0;     /* separator */
 568:..\kronos-c-sdk\src\wolfSSL\wolfcrypt\src/rsa.c ****     XMEMCPY(pkcsBlock+pkcsBlockLen-inputLen, input, inputLen);
 569:..\kronos-c-sdk\src\wolfSSL\wolfcrypt\src/rsa.c **** 
 570:..\kronos-c-sdk\src\wolfSSL\wolfcrypt\src/rsa.c ****     return 0;
 571:..\kronos-c-sdk\src\wolfSSL\wolfcrypt\src/rsa.c **** }
 572:..\kronos-c-sdk\src\wolfSSL\wolfcrypt\src/rsa.c **** 
 573:..\kronos-c-sdk\src\wolfSSL\wolfcrypt\src/rsa.c **** 
 574:..\kronos-c-sdk\src\wolfSSL\wolfcrypt\src/rsa.c **** #ifndef WC_NO_RSA_OAEP
 575:..\kronos-c-sdk\src\wolfSSL\wolfcrypt\src/rsa.c **** /* helper function to direct which padding is used */
 576:..\kronos-c-sdk\src\wolfSSL\wolfcrypt\src/rsa.c **** static int wc_RsaPad_ex(const byte* input, word32 inputLen, byte* pkcsBlock,
 577:..\kronos-c-sdk\src\wolfSSL\wolfcrypt\src/rsa.c ****                word32 pkcsBlockLen, byte padValue, WC_RNG* rng, int padType,
 578:..\kronos-c-sdk\src\wolfSSL\wolfcrypt\src/rsa.c ****                enum wc_HashType hType, int mgf, byte* optLabel, word32 labelLen)
 579:..\kronos-c-sdk\src\wolfSSL\wolfcrypt\src/rsa.c **** {
 580:..\kronos-c-sdk\src\wolfSSL\wolfcrypt\src/rsa.c ****     int ret;
 581:..\kronos-c-sdk\src\wolfSSL\wolfcrypt\src/rsa.c **** 
 582:..\kronos-c-sdk\src\wolfSSL\wolfcrypt\src/rsa.c ****     switch (padType)
 583:..\kronos-c-sdk\src\wolfSSL\wolfcrypt\src/rsa.c ****     {
 584:..\kronos-c-sdk\src\wolfSSL\wolfcrypt\src/rsa.c ****         case WC_RSA_PKCSV15_PAD:
 585:..\kronos-c-sdk\src\wolfSSL\wolfcrypt\src/rsa.c ****             WOLFSSL_MSG("wolfSSL Using RSA PKCSV15 padding");
 586:..\kronos-c-sdk\src\wolfSSL\wolfcrypt\src/rsa.c ****             ret = wc_RsaPad(input, inputLen, pkcsBlock, pkcsBlockLen,
 587:..\kronos-c-sdk\src\wolfSSL\wolfcrypt\src/rsa.c ****                                                                  padValue, rng);
 588:..\kronos-c-sdk\src\wolfSSL\wolfcrypt\src/rsa.c ****             break;
 589:..\kronos-c-sdk\src\wolfSSL\wolfcrypt\src/rsa.c **** 
 590:..\kronos-c-sdk\src\wolfSSL\wolfcrypt\src/rsa.c ****         case WC_RSA_OAEP_PAD:
 591:..\kronos-c-sdk\src\wolfSSL\wolfcrypt\src/rsa.c ****             WOLFSSL_MSG("wolfSSL Using RSA OAEP padding");
 592:..\kronos-c-sdk\src\wolfSSL\wolfcrypt\src/rsa.c ****             ret = wc_RsaPad_OAEP(input, inputLen, pkcsBlock, pkcsBlockLen,
 593:..\kronos-c-sdk\src\wolfSSL\wolfcrypt\src/rsa.c ****                              padValue, rng, hType, mgf, optLabel, labelLen);
 594:..\kronos-c-sdk\src\wolfSSL\wolfcrypt\src/rsa.c ****             break;
 595:..\kronos-c-sdk\src\wolfSSL\wolfcrypt\src/rsa.c **** 
 596:..\kronos-c-sdk\src\wolfSSL\wolfcrypt\src/rsa.c ****         default:
 597:..\kronos-c-sdk\src\wolfSSL\wolfcrypt\src/rsa.c ****             WOLFSSL_MSG("Unknown RSA Pad Type");
 598:..\kronos-c-sdk\src\wolfSSL\wolfcrypt\src/rsa.c ****             ret = RSA_PAD_E;
 599:..\kronos-c-sdk\src\wolfSSL\wolfcrypt\src/rsa.c ****     }
 600:..\kronos-c-sdk\src\wolfSSL\wolfcrypt\src/rsa.c **** 
 601:..\kronos-c-sdk\src\wolfSSL\wolfcrypt\src/rsa.c ****     /* silence warning if not used with padding scheme */
 602:..\kronos-c-sdk\src\wolfSSL\wolfcrypt\src/rsa.c ****     (void)padType;
 603:..\kronos-c-sdk\src\wolfSSL\wolfcrypt\src/rsa.c ****     (void)hType;
ARM GAS  C:\Users\ddemidov\AppData\Local\Temp\ccr947bU.s 			page 12


 604:..\kronos-c-sdk\src\wolfSSL\wolfcrypt\src/rsa.c ****     (void)mgf;
 605:..\kronos-c-sdk\src\wolfSSL\wolfcrypt\src/rsa.c ****     (void)optLabel;
 606:..\kronos-c-sdk\src\wolfSSL\wolfcrypt\src/rsa.c ****     (void)labelLen;
 607:..\kronos-c-sdk\src\wolfSSL\wolfcrypt\src/rsa.c **** 
 608:..\kronos-c-sdk\src\wolfSSL\wolfcrypt\src/rsa.c ****     return ret;
 609:..\kronos-c-sdk\src\wolfSSL\wolfcrypt\src/rsa.c **** }
 610:..\kronos-c-sdk\src\wolfSSL\wolfcrypt\src/rsa.c **** 
 611:..\kronos-c-sdk\src\wolfSSL\wolfcrypt\src/rsa.c **** 
 612:..\kronos-c-sdk\src\wolfSSL\wolfcrypt\src/rsa.c **** /* UnPad plaintext, set start to *output, return length of plaintext,
 613:..\kronos-c-sdk\src\wolfSSL\wolfcrypt\src/rsa.c ****  * < 0 on error */
 614:..\kronos-c-sdk\src\wolfSSL\wolfcrypt\src/rsa.c **** static int wc_RsaUnPad_OAEP(byte *pkcsBlock, unsigned int pkcsBlockLen,
 615:..\kronos-c-sdk\src\wolfSSL\wolfcrypt\src/rsa.c ****                             byte **output, enum wc_HashType hType, int mgf,
 616:..\kronos-c-sdk\src\wolfSSL\wolfcrypt\src/rsa.c ****                             byte* optLabel, word32 labelLen)
 617:..\kronos-c-sdk\src\wolfSSL\wolfcrypt\src/rsa.c **** {
 618:..\kronos-c-sdk\src\wolfSSL\wolfcrypt\src/rsa.c ****     int hLen;
 619:..\kronos-c-sdk\src\wolfSSL\wolfcrypt\src/rsa.c ****     int ret;
 620:..\kronos-c-sdk\src\wolfSSL\wolfcrypt\src/rsa.c ****     byte h[WC_MAX_DIGEST_SIZE]; /* max digest size */
 621:..\kronos-c-sdk\src\wolfSSL\wolfcrypt\src/rsa.c ****     byte* tmp;
 622:..\kronos-c-sdk\src\wolfSSL\wolfcrypt\src/rsa.c ****     word32 idx;
 623:..\kronos-c-sdk\src\wolfSSL\wolfcrypt\src/rsa.c **** 
 624:..\kronos-c-sdk\src\wolfSSL\wolfcrypt\src/rsa.c ****     hLen = wc_HashGetDigestSize(hType);
 625:..\kronos-c-sdk\src\wolfSSL\wolfcrypt\src/rsa.c ****     if ((hLen < 0) || (pkcsBlockLen < (2 * (word32)hLen + 2))) {
 626:..\kronos-c-sdk\src\wolfSSL\wolfcrypt\src/rsa.c ****         return BAD_FUNC_ARG;
 627:..\kronos-c-sdk\src\wolfSSL\wolfcrypt\src/rsa.c ****     }
 628:..\kronos-c-sdk\src\wolfSSL\wolfcrypt\src/rsa.c **** 
 629:..\kronos-c-sdk\src\wolfSSL\wolfcrypt\src/rsa.c ****     tmp = (byte*)XMALLOC(pkcsBlockLen, NULL, DYNAMIC_TYPE_TMP_BUFFER);
 630:..\kronos-c-sdk\src\wolfSSL\wolfcrypt\src/rsa.c ****     if (tmp == NULL) {
 631:..\kronos-c-sdk\src\wolfSSL\wolfcrypt\src/rsa.c ****         return MEMORY_E;
 632:..\kronos-c-sdk\src\wolfSSL\wolfcrypt\src/rsa.c ****     }
 633:..\kronos-c-sdk\src\wolfSSL\wolfcrypt\src/rsa.c ****     XMEMSET(tmp, 0, pkcsBlockLen);
 634:..\kronos-c-sdk\src\wolfSSL\wolfcrypt\src/rsa.c **** 
 635:..\kronos-c-sdk\src\wolfSSL\wolfcrypt\src/rsa.c ****     /* find seedMask value */
 636:..\kronos-c-sdk\src\wolfSSL\wolfcrypt\src/rsa.c ****     if ((ret = wc_MGF(mgf, (byte*)(pkcsBlock + (hLen + 1)),
 637:..\kronos-c-sdk\src\wolfSSL\wolfcrypt\src/rsa.c ****                                     pkcsBlockLen - hLen - 1, tmp, hLen)) != 0) {
 638:..\kronos-c-sdk\src\wolfSSL\wolfcrypt\src/rsa.c ****         XFREE(tmp, NULL, DYNAMIC_TYPE_TMP_BUFFER);
 639:..\kronos-c-sdk\src\wolfSSL\wolfcrypt\src/rsa.c ****         return ret;
 640:..\kronos-c-sdk\src\wolfSSL\wolfcrypt\src/rsa.c ****     }
 641:..\kronos-c-sdk\src\wolfSSL\wolfcrypt\src/rsa.c **** 
 642:..\kronos-c-sdk\src\wolfSSL\wolfcrypt\src/rsa.c ****     /* xor seedMask value with maskedSeed to get seed value */
 643:..\kronos-c-sdk\src\wolfSSL\wolfcrypt\src/rsa.c ****     for (idx = 0; idx < (word32)hLen; idx++) {
 644:..\kronos-c-sdk\src\wolfSSL\wolfcrypt\src/rsa.c ****         tmp[idx] = tmp[idx] ^ pkcsBlock[1 + idx];
 645:..\kronos-c-sdk\src\wolfSSL\wolfcrypt\src/rsa.c ****     }
 646:..\kronos-c-sdk\src\wolfSSL\wolfcrypt\src/rsa.c **** 
 647:..\kronos-c-sdk\src\wolfSSL\wolfcrypt\src/rsa.c ****     /* get dbMask value */
 648:..\kronos-c-sdk\src\wolfSSL\wolfcrypt\src/rsa.c ****     if ((ret = wc_MGF(mgf, tmp, hLen, tmp + hLen,
 649:..\kronos-c-sdk\src\wolfSSL\wolfcrypt\src/rsa.c ****                                                pkcsBlockLen - hLen - 1)) != 0) {
 650:..\kronos-c-sdk\src\wolfSSL\wolfcrypt\src/rsa.c ****         XFREE(tmp, NULL, DYNAMIC_TYPE_TMP_BUFFER);
 651:..\kronos-c-sdk\src\wolfSSL\wolfcrypt\src/rsa.c ****         return ret;
 652:..\kronos-c-sdk\src\wolfSSL\wolfcrypt\src/rsa.c ****     }
 653:..\kronos-c-sdk\src\wolfSSL\wolfcrypt\src/rsa.c **** 
 654:..\kronos-c-sdk\src\wolfSSL\wolfcrypt\src/rsa.c ****     /* get DB value by doing maskedDB xor dbMask */
 655:..\kronos-c-sdk\src\wolfSSL\wolfcrypt\src/rsa.c ****     for (idx = 0; idx < (pkcsBlockLen - hLen - 1); idx++) {
 656:..\kronos-c-sdk\src\wolfSSL\wolfcrypt\src/rsa.c ****         pkcsBlock[hLen + 1 + idx] = pkcsBlock[hLen + 1 + idx] ^ tmp[idx + hLen];
 657:..\kronos-c-sdk\src\wolfSSL\wolfcrypt\src/rsa.c ****     }
 658:..\kronos-c-sdk\src\wolfSSL\wolfcrypt\src/rsa.c **** 
 659:..\kronos-c-sdk\src\wolfSSL\wolfcrypt\src/rsa.c ****     /* done with use of tmp buffer */
 660:..\kronos-c-sdk\src\wolfSSL\wolfcrypt\src/rsa.c ****     XFREE(tmp, NULL, DYNAMIC_TYPE_TMP_BUFFER);
ARM GAS  C:\Users\ddemidov\AppData\Local\Temp\ccr947bU.s 			page 13


 661:..\kronos-c-sdk\src\wolfSSL\wolfcrypt\src/rsa.c **** 
 662:..\kronos-c-sdk\src\wolfSSL\wolfcrypt\src/rsa.c ****     /* advance idx to index of PS and msg separator */
 663:..\kronos-c-sdk\src\wolfSSL\wolfcrypt\src/rsa.c ****     idx = hLen + 2 + hLen;
 664:..\kronos-c-sdk\src\wolfSSL\wolfcrypt\src/rsa.c ****     while (idx < pkcsBlockLen && pkcsBlock[idx] == 0) {idx++;}
 665:..\kronos-c-sdk\src\wolfSSL\wolfcrypt\src/rsa.c **** 
 666:..\kronos-c-sdk\src\wolfSSL\wolfcrypt\src/rsa.c ****     /* create hash of label for comparision with hash sent */
 667:..\kronos-c-sdk\src\wolfSSL\wolfcrypt\src/rsa.c ****     if ((ret = wc_Hash(hType, optLabel, labelLen, h, hLen)) != 0) {
 668:..\kronos-c-sdk\src\wolfSSL\wolfcrypt\src/rsa.c ****         return ret;
 669:..\kronos-c-sdk\src\wolfSSL\wolfcrypt\src/rsa.c ****     }
 670:..\kronos-c-sdk\src\wolfSSL\wolfcrypt\src/rsa.c **** 
 671:..\kronos-c-sdk\src\wolfSSL\wolfcrypt\src/rsa.c ****     /* say no to chosen ciphertext attack.
 672:..\kronos-c-sdk\src\wolfSSL\wolfcrypt\src/rsa.c ****        Comparison of lHash, Y, and separator value needs to all happen in
 673:..\kronos-c-sdk\src\wolfSSL\wolfcrypt\src/rsa.c ****        constant time.
 674:..\kronos-c-sdk\src\wolfSSL\wolfcrypt\src/rsa.c ****        Attackers should not be able to get error condition from the timing of
 675:..\kronos-c-sdk\src\wolfSSL\wolfcrypt\src/rsa.c ****        these checks.
 676:..\kronos-c-sdk\src\wolfSSL\wolfcrypt\src/rsa.c ****      */
 677:..\kronos-c-sdk\src\wolfSSL\wolfcrypt\src/rsa.c ****     ret = 0;
 678:..\kronos-c-sdk\src\wolfSSL\wolfcrypt\src/rsa.c ****     ret |= ConstantCompare(pkcsBlock + hLen + 1, h, hLen);
 679:..\kronos-c-sdk\src\wolfSSL\wolfcrypt\src/rsa.c ****     ret += pkcsBlock[idx++] ^ 0x01; /* separator value is 0x01 */
 680:..\kronos-c-sdk\src\wolfSSL\wolfcrypt\src/rsa.c ****     ret += pkcsBlock[0]     ^ 0x00; /* Y, the first value, should be 0 */
 681:..\kronos-c-sdk\src\wolfSSL\wolfcrypt\src/rsa.c **** 
 682:..\kronos-c-sdk\src\wolfSSL\wolfcrypt\src/rsa.c ****     if (ret != 0) {
 683:..\kronos-c-sdk\src\wolfSSL\wolfcrypt\src/rsa.c ****         return BAD_PADDING_E;
 684:..\kronos-c-sdk\src\wolfSSL\wolfcrypt\src/rsa.c ****     }
 685:..\kronos-c-sdk\src\wolfSSL\wolfcrypt\src/rsa.c **** 
 686:..\kronos-c-sdk\src\wolfSSL\wolfcrypt\src/rsa.c ****     /* adjust pointer to correct location in array and return size of M */
 687:..\kronos-c-sdk\src\wolfSSL\wolfcrypt\src/rsa.c ****     *output = (byte*)(pkcsBlock + idx);
 688:..\kronos-c-sdk\src\wolfSSL\wolfcrypt\src/rsa.c ****     return pkcsBlockLen - idx;
 689:..\kronos-c-sdk\src\wolfSSL\wolfcrypt\src/rsa.c **** }
 690:..\kronos-c-sdk\src\wolfSSL\wolfcrypt\src/rsa.c **** #endif /* WC_NO_RSA_OAEP */
 691:..\kronos-c-sdk\src\wolfSSL\wolfcrypt\src/rsa.c **** 
 692:..\kronos-c-sdk\src\wolfSSL\wolfcrypt\src/rsa.c **** 
 693:..\kronos-c-sdk\src\wolfSSL\wolfcrypt\src/rsa.c **** /* UnPad plaintext, set start to *output, return length of plaintext,
 694:..\kronos-c-sdk\src\wolfSSL\wolfcrypt\src/rsa.c ****  * < 0 on error */
 695:..\kronos-c-sdk\src\wolfSSL\wolfcrypt\src/rsa.c **** static int RsaUnPad(const byte *pkcsBlock, unsigned int pkcsBlockLen,
 696:..\kronos-c-sdk\src\wolfSSL\wolfcrypt\src/rsa.c ****                        byte **output, byte padValue)
 697:..\kronos-c-sdk\src\wolfSSL\wolfcrypt\src/rsa.c **** {
  25              		.loc 1 697 0
  26              		.cfi_startproc
  27              	.LVL0:
  28 0000 F0B5     		push	{r4, r5, r6, r7, lr}
  29              		.cfi_def_cfa_offset 20
  30              		.cfi_offset 4, -20
  31              		.cfi_offset 5, -16
  32              		.cfi_offset 6, -12
  33              		.cfi_offset 7, -8
  34              		.cfi_offset 14, -4
 698:..\kronos-c-sdk\src\wolfSSL\wolfcrypt\src/rsa.c ****     word32 maxOutputLen = (pkcsBlockLen > 10) ? (pkcsBlockLen - 10) : 0,
  35              		.loc 1 698 0
  36 0002 0A29     		cmp	r1, #10
  37 0004 02D9     		bls	.L11
  38              		.loc 1 698 0 is_stmt 0 discriminator 1
  39 0006 0F1C     		mov	r7, r1
  40 0008 0A3F     		sub	r7, r7, #10
  41 000a 00E0     		b	.L2
  42              	.L11:
  43              		.loc 1 698 0
ARM GAS  C:\Users\ddemidov\AppData\Local\Temp\ccr947bU.s 			page 14


  44 000c 0027     		mov	r7, #0
  45              	.L2:
  46              	.LVL1:
 699:..\kronos-c-sdk\src\wolfSSL\wolfcrypt\src/rsa.c ****            invalid = 0,
 700:..\kronos-c-sdk\src\wolfSSL\wolfcrypt\src/rsa.c ****            i = 1,
 701:..\kronos-c-sdk\src\wolfSSL\wolfcrypt\src/rsa.c ****            outputLen;
 702:..\kronos-c-sdk\src\wolfSSL\wolfcrypt\src/rsa.c **** 
 703:..\kronos-c-sdk\src\wolfSSL\wolfcrypt\src/rsa.c ****     if (pkcsBlock[0] != 0x0) /* skip past zero */
  47              		.loc 1 703 0 is_stmt 1 discriminator 4
  48 000e 0478     		ldrb	r4, [r0]
  49 0010 002C     		cmp	r4, #0
  50 0012 00D0     		beq	.L3
 704:..\kronos-c-sdk\src\wolfSSL\wolfcrypt\src/rsa.c ****         invalid = 1;
  51              		.loc 1 704 0
  52 0014 0124     		mov	r4, #1
  53              	.L3:
  54              	.LVL2:
 705:..\kronos-c-sdk\src\wolfSSL\wolfcrypt\src/rsa.c ****     pkcsBlock++; pkcsBlockLen--;
  55              		.loc 1 705 0
  56 0016 451C     		add	r5, r0, #1
  57              	.LVL3:
  58 0018 0139     		sub	r1, r1, #1
  59              	.LVL4:
 706:..\kronos-c-sdk\src\wolfSSL\wolfcrypt\src/rsa.c **** 
 707:..\kronos-c-sdk\src\wolfSSL\wolfcrypt\src/rsa.c ****     /* Require block type padValue */
 708:..\kronos-c-sdk\src\wolfSSL\wolfcrypt\src/rsa.c ****     invalid = (pkcsBlock[0] != padValue) || invalid;
  60              		.loc 1 708 0
  61 001a 4078     		ldrb	r0, [r0, #1]
  62 001c 9842     		cmp	r0, r3
  63 001e 03D1     		bne	.L13
  64              		.loc 1 708 0 is_stmt 0 discriminator 2
  65 0020 002C     		cmp	r4, #0
  66 0022 03D0     		beq	.L14
  67              		.loc 1 708 0
  68 0024 0126     		mov	r6, #1
  69 0026 02E0     		b	.L4
  70              	.L13:
  71 0028 0126     		mov	r6, #1
  72 002a 00E0     		b	.L4
  73              	.L14:
  74 002c 0026     		mov	r6, #0
  75              	.L4:
  76              	.LVL5:
 709:..\kronos-c-sdk\src\wolfSSL\wolfcrypt\src/rsa.c **** 
 710:..\kronos-c-sdk\src\wolfSSL\wolfcrypt\src/rsa.c ****     /* verify the padding until we find the separator */
 711:..\kronos-c-sdk\src\wolfSSL\wolfcrypt\src/rsa.c ****     if (padValue == RSA_BLOCK_TYPE_1) {
  77              		.loc 1 711 0 is_stmt 1 discriminator 6
  78 002e 012B     		cmp	r3, #1
  79 0030 09D1     		bne	.L15
  80 0032 00E0     		b	.L7
  81              	.LVL6:
  82              	.L16:
 712:..\kronos-c-sdk\src\wolfSSL\wolfcrypt\src/rsa.c ****         while (i<pkcsBlockLen && pkcsBlock[i++] == 0xFF) {/* Null body */}
  83              		.loc 1 712 0
  84 0034 231C     		mov	r3, r4
  85              	.LVL7:
  86              	.L7:
ARM GAS  C:\Users\ddemidov\AppData\Local\Temp\ccr947bU.s 			page 15


  87              		.loc 1 712 0 is_stmt 0 discriminator 2
  88 0036 8B42     		cmp	r3, r1
  89 0038 0FD2     		bcs	.L6
  90              		.loc 1 712 0 discriminator 1
  91 003a 5C1C     		add	r4, r3, #1
  92              	.LVL8:
  93 003c E85C     		ldrb	r0, [r5, r3]
  94 003e FF28     		cmp	r0, #255
  95 0040 F8D0     		beq	.L16
  96              		.loc 1 712 0
  97 0042 231C     		mov	r3, r4
  98 0044 09E0     		b	.L6
  99              	.LVL9:
 100              	.L15:
 101 0046 0123     		mov	r3, #1
 102              	.LVL10:
 103 0048 00E0     		b	.L5
 104              	.LVL11:
 105              	.L17:
 713:..\kronos-c-sdk\src\wolfSSL\wolfcrypt\src/rsa.c ****     }
 714:..\kronos-c-sdk\src\wolfSSL\wolfcrypt\src/rsa.c ****     else {
 715:..\kronos-c-sdk\src\wolfSSL\wolfcrypt\src/rsa.c ****         while (i<pkcsBlockLen && pkcsBlock[i++]) {/* Null body */}
 106              		.loc 1 715 0 is_stmt 1
 107 004a 031C     		mov	r3, r0
 108              	.LVL12:
 109              	.L5:
 110              		.loc 1 715 0 is_stmt 0 discriminator 2
 111 004c 8B42     		cmp	r3, r1
 112 004e 04D2     		bcs	.L6
 113              		.loc 1 715 0 discriminator 1
 114 0050 581C     		add	r0, r3, #1
 115              	.LVL13:
 116 0052 EC5C     		ldrb	r4, [r5, r3]
 117 0054 002C     		cmp	r4, #0
 118 0056 F8D1     		bne	.L17
 119              		.loc 1 715 0
 120 0058 031C     		mov	r3, r0
 121              	.LVL14:
 122              	.L6:
 716:..\kronos-c-sdk\src\wolfSSL\wolfcrypt\src/rsa.c ****     }
 717:..\kronos-c-sdk\src\wolfSSL\wolfcrypt\src/rsa.c **** 
 718:..\kronos-c-sdk\src\wolfSSL\wolfcrypt\src/rsa.c ****     if(!(i==pkcsBlockLen || pkcsBlock[i-1]==0)) {
 123              		.loc 1 718 0 is_stmt 1
 124 005a 8B42     		cmp	r3, r1
 125 005c 04D0     		beq	.L8
 126              		.loc 1 718 0 is_stmt 0 discriminator 1
 127 005e E818     		add	r0, r5, r3
 128 0060 0138     		sub	r0, r0, #1
 129 0062 0078     		ldrb	r0, [r0]
 130 0064 0028     		cmp	r0, #0
 131 0066 0CD1     		bne	.L18
 132              	.L8:
 719:..\kronos-c-sdk\src\wolfSSL\wolfcrypt\src/rsa.c ****         WOLFSSL_MSG("RsaUnPad error, bad formatting");
 720:..\kronos-c-sdk\src\wolfSSL\wolfcrypt\src/rsa.c ****         return RSA_PAD_E;
 721:..\kronos-c-sdk\src\wolfSSL\wolfcrypt\src/rsa.c ****     }
 722:..\kronos-c-sdk\src\wolfSSL\wolfcrypt\src/rsa.c **** 
 723:..\kronos-c-sdk\src\wolfSSL\wolfcrypt\src/rsa.c ****     outputLen = pkcsBlockLen - i;
ARM GAS  C:\Users\ddemidov\AppData\Local\Temp\ccr947bU.s 			page 16


 133              		.loc 1 723 0 is_stmt 1
 134 0068 C81A     		sub	r0, r1, r3
 135              	.LVL15:
 724:..\kronos-c-sdk\src\wolfSSL\wolfcrypt\src/rsa.c ****     invalid = (outputLen > maxOutputLen) || invalid;
 136              		.loc 1 724 0
 137 006a 8742     		cmp	r7, r0
 138 006c 03D3     		bcc	.L19
 139              		.loc 1 724 0 is_stmt 0 discriminator 2
 140 006e 002E     		cmp	r6, #0
 141 0070 02D0     		beq	.L10
 142              		.loc 1 724 0
 143 0072 0126     		mov	r6, #1
 144              	.LVL16:
 145 0074 00E0     		b	.L10
 146              	.LVL17:
 147              	.L19:
 148 0076 0126     		mov	r6, #1
 149              	.LVL18:
 150              	.L10:
 725:..\kronos-c-sdk\src\wolfSSL\wolfcrypt\src/rsa.c **** 
 726:..\kronos-c-sdk\src\wolfSSL\wolfcrypt\src/rsa.c ****     if (invalid) {
 151              		.loc 1 726 0 is_stmt 1 discriminator 6
 152 0078 002E     		cmp	r6, #0
 153 007a 05D1     		bne	.L20
 727:..\kronos-c-sdk\src\wolfSSL\wolfcrypt\src/rsa.c ****         WOLFSSL_MSG("RsaUnPad error, bad formatting");
 728:..\kronos-c-sdk\src\wolfSSL\wolfcrypt\src/rsa.c ****         return RSA_PAD_E;
 729:..\kronos-c-sdk\src\wolfSSL\wolfcrypt\src/rsa.c ****     }
 730:..\kronos-c-sdk\src\wolfSSL\wolfcrypt\src/rsa.c **** 
 731:..\kronos-c-sdk\src\wolfSSL\wolfcrypt\src/rsa.c ****     *output = (byte *)(pkcsBlock + i);
 154              		.loc 1 731 0
 155 007c EB18     		add	r3, r5, r3
 156              	.LVL19:
 157 007e 1360     		str	r3, [r2]
 732:..\kronos-c-sdk\src\wolfSSL\wolfcrypt\src/rsa.c ****     return outputLen;
 158              		.loc 1 732 0
 159 0080 04E0     		b	.L9
 160              	.LVL20:
 161              	.L18:
 720:..\kronos-c-sdk\src\wolfSSL\wolfcrypt\src/rsa.c ****     }
 162              		.loc 1 720 0
 163 0082 C920     		mov	r0, #201
 164 0084 4042     		neg	r0, r0
 165 0086 01E0     		b	.L9
 166              	.LVL21:
 167              	.L20:
 728:..\kronos-c-sdk\src\wolfSSL\wolfcrypt\src/rsa.c ****     }
 168              		.loc 1 728 0
 169 0088 C920     		mov	r0, #201
 170              	.LVL22:
 171 008a 4042     		neg	r0, r0
 172              	.LVL23:
 173              	.L9:
 733:..\kronos-c-sdk\src\wolfSSL\wolfcrypt\src/rsa.c **** }
 174              		.loc 1 733 0
 175              		@ sp needed
 176              	.LVL24:
 177              	.LVL25:
ARM GAS  C:\Users\ddemidov\AppData\Local\Temp\ccr947bU.s 			page 17


 178              	.LVL26:
 179 008c F0BD     		pop	{r4, r5, r6, r7, pc}
 180              		.cfi_endproc
 181              	.LFE20:
 182              		.size	RsaUnPad, .-RsaUnPad
 183 008e C046     		.section	.text.wc_RsaPad,"ax",%progbits
 184              		.align	2
 185              		.code	16
 186              		.thumb_func
 187              		.type	wc_RsaPad, %function
 188              	wc_RsaPad:
 189              	.LFB17:
 543:..\kronos-c-sdk\src\wolfSSL\wolfcrypt\src/rsa.c ****     if (inputLen == 0)
 190              		.loc 1 543 0
 191              		.cfi_startproc
 192              	.LVL27:
 193 0000 F0B5     		push	{r4, r5, r6, r7, lr}
 194              		.cfi_def_cfa_offset 20
 195              		.cfi_offset 4, -20
 196              		.cfi_offset 5, -16
 197              		.cfi_offset 6, -12
 198              		.cfi_offset 7, -8
 199              		.cfi_offset 14, -4
 200 0002 4746     		mov	r7, r8
 201 0004 80B4     		push	{r7}
 202              		.cfi_def_cfa_offset 24
 203              		.cfi_offset 8, -24
 204 0006 82B0     		sub	sp, sp, #8
 205              		.cfi_def_cfa_offset 32
 206 0008 08AC     		add	r4, sp, #32
 207              	.LVL28:
 208 000a 2478     		ldrb	r4, [r4]
 209              	.LVL29:
 544:..\kronos-c-sdk\src\wolfSSL\wolfcrypt\src/rsa.c ****         return 0;
 210              		.loc 1 544 0
 211 000c 0029     		cmp	r1, #0
 212 000e 32D0     		beq	.L28
 213 0010 8846     		mov	r8, r1
 214 0012 0190     		str	r0, [sp, #4]
 547:..\kronos-c-sdk\src\wolfSSL\wolfcrypt\src/rsa.c ****     pkcsBlock++; pkcsBlockLen--;
 215              		.loc 1 547 0
 216 0014 0021     		mov	r1, #0
 217              	.LVL30:
 218 0016 1170     		strb	r1, [r2]
 548:..\kronos-c-sdk\src\wolfSSL\wolfcrypt\src/rsa.c ****     pkcsBlock[0] = padValue;  /* insert padValue */
 219              		.loc 1 548 0
 220 0018 561C     		add	r6, r2, #1
 221              	.LVL31:
 222 001a 5D1E     		sub	r5, r3, #1
 223              	.LVL32:
 549:..\kronos-c-sdk\src\wolfSSL\wolfcrypt\src/rsa.c **** 
 224              		.loc 1 549 0
 225 001c 5470     		strb	r4, [r2, #1]
 551:..\kronos-c-sdk\src\wolfSSL\wolfcrypt\src/rsa.c ****         /* pad with 0xff bytes */
 226              		.loc 1 551 0
 227 001e 012C     		cmp	r4, #1
 228 0020 07D1     		bne	.L23
ARM GAS  C:\Users\ddemidov\AppData\Local\Temp\ccr947bU.s 			page 18


 553:..\kronos-c-sdk\src\wolfSSL\wolfcrypt\src/rsa.c ****     else {
 229              		.loc 1 553 0
 230 0022 4346     		mov	r3, r8
 231 0024 EB1A     		sub	r3, r5, r3
 232 0026 901C     		add	r0, r2, #2
 233              	.LVL33:
 234 0028 9A1E     		sub	r2, r3, #2
 235 002a FF31     		add	r1, r1, #255
 236 002c FFF7FEFF 		bl	memset
 237              	.LVL34:
 238 0030 14E0     		b	.L24
 239              	.LVL35:
 240              	.L23:
 241              	.LBB19:
 556:..\kronos-c-sdk\src\wolfSSL\wolfcrypt\src/rsa.c ****         int    ret    = wc_RNG_GenerateBlock(rng, &pkcsBlock[1], padLen);
 242              		.loc 1 556 0
 243 0032 4346     		mov	r3, r8
 244 0034 EF1A     		sub	r7, r5, r3
 245 0036 013F     		sub	r7, r7, #1
 246              	.LVL36:
 557:..\kronos-c-sdk\src\wolfSSL\wolfcrypt\src/rsa.c **** 
 247              		.loc 1 557 0
 248 0038 911C     		add	r1, r2, #2
 249 003a 0998     		ldr	r0, [sp, #36]
 250              	.LVL37:
 251 003c 3A1C     		mov	r2, r7
 252 003e FFF7FEFF 		bl	wc_RNG_GenerateBlock
 253              	.LVL38:
 559:..\kronos-c-sdk\src\wolfSSL\wolfcrypt\src/rsa.c ****             return ret;
 254              		.loc 1 559 0
 255 0042 0028     		cmp	r0, #0
 256 0044 18D1     		bne	.L22
 257 0046 0122     		mov	r2, #1
 258 0048 06E0     		b	.L25
 259              	.LVL39:
 260              	.L27:
 564:..\kronos-c-sdk\src\wolfSSL\wolfcrypt\src/rsa.c ****     }
 261              		.loc 1 564 0
 262 004a B418     		add	r4, r6, r2
 263 004c 2378     		ldrb	r3, [r4]
 264 004e 002B     		cmp	r3, #0
 265 0050 01D1     		bne	.L26
 564:..\kronos-c-sdk\src\wolfSSL\wolfcrypt\src/rsa.c ****     }
 266              		.loc 1 564 0 is_stmt 0 discriminator 1
 267 0052 0133     		add	r3, r3, #1
 268 0054 2370     		strb	r3, [r4]
 269              	.L26:
 563:..\kronos-c-sdk\src\wolfSSL\wolfcrypt\src/rsa.c ****             if (pkcsBlock[i] == 0) pkcsBlock[i] = 0x01;
 270              		.loc 1 563 0 is_stmt 1 discriminator 2
 271 0056 0132     		add	r2, r2, #1
 272              	.LVL40:
 273              	.L25:
 563:..\kronos-c-sdk\src\wolfSSL\wolfcrypt\src/rsa.c ****             if (pkcsBlock[i] == 0) pkcsBlock[i] = 0x01;
 274              		.loc 1 563 0 is_stmt 0 discriminator 1
 275 0058 BA42     		cmp	r2, r7
 276 005a F6D3     		bcc	.L27
 277              	.LVL41:
ARM GAS  C:\Users\ddemidov\AppData\Local\Temp\ccr947bU.s 			page 19


 278              	.L24:
 279              	.LBE19:
 567:..\kronos-c-sdk\src\wolfSSL\wolfcrypt\src/rsa.c ****     XMEMCPY(pkcsBlock+pkcsBlockLen-inputLen, input, inputLen);
 280              		.loc 1 567 0 is_stmt 1
 281 005c 4346     		mov	r3, r8
 282 005e ED1A     		sub	r5, r5, r3
 283              	.LVL42:
 284 0060 6B1E     		sub	r3, r5, #1
 285 0062 F318     		add	r3, r6, r3
 286 0064 0022     		mov	r2, #0
 287 0066 1A70     		strb	r2, [r3]
 568:..\kronos-c-sdk\src\wolfSSL\wolfcrypt\src/rsa.c **** 
 288              		.loc 1 568 0
 289 0068 7019     		add	r0, r6, r5
 290 006a 0199     		ldr	r1, [sp, #4]
 291 006c 4246     		mov	r2, r8
 292 006e FFF7FEFF 		bl	memcpy
 293              	.LVL43:
 570:..\kronos-c-sdk\src\wolfSSL\wolfcrypt\src/rsa.c **** }
 294              		.loc 1 570 0
 295 0072 0020     		mov	r0, #0
 296 0074 00E0     		b	.L22
 297              	.LVL44:
 298              	.L28:
 545:..\kronos-c-sdk\src\wolfSSL\wolfcrypt\src/rsa.c **** 
 299              		.loc 1 545 0
 300 0076 0020     		mov	r0, #0
 301              	.LVL45:
 302              	.L22:
 571:..\kronos-c-sdk\src\wolfSSL\wolfcrypt\src/rsa.c **** 
 303              		.loc 1 571 0
 304 0078 02B0     		add	sp, sp, #8
 305              		@ sp needed
 306 007a 04BC     		pop	{r2}
 307 007c 9046     		mov	r8, r2
 308 007e F0BD     		pop	{r4, r5, r6, r7, pc}
 309              		.cfi_endproc
 310              	.LFE17:
 311              		.size	wc_RsaPad, .-wc_RsaPad
 312              		.section	.text.wc_RsaFunction,"ax",%progbits
 313              		.align	2
 314              		.code	16
 315              		.thumb_func
 316              		.type	wc_RsaFunction, %function
 317              	wc_RsaFunction:
 318              	.LFB22:
 734:..\kronos-c-sdk\src\wolfSSL\wolfcrypt\src/rsa.c **** 
 735:..\kronos-c-sdk\src\wolfSSL\wolfcrypt\src/rsa.c **** 
 736:..\kronos-c-sdk\src\wolfSSL\wolfcrypt\src/rsa.c **** #ifndef WC_NO_RSA_OAEP
 737:..\kronos-c-sdk\src\wolfSSL\wolfcrypt\src/rsa.c **** /* helper function to direct unpadding */
 738:..\kronos-c-sdk\src\wolfSSL\wolfcrypt\src/rsa.c **** static int wc_RsaUnPad_ex(byte* pkcsBlock, word32 pkcsBlockLen, byte** out,
 739:..\kronos-c-sdk\src\wolfSSL\wolfcrypt\src/rsa.c ****                           byte padValue, int padType, enum wc_HashType hType,
 740:..\kronos-c-sdk\src\wolfSSL\wolfcrypt\src/rsa.c ****                           int mgf, byte* optLabel, word32 labelLen)
 741:..\kronos-c-sdk\src\wolfSSL\wolfcrypt\src/rsa.c **** {
 742:..\kronos-c-sdk\src\wolfSSL\wolfcrypt\src/rsa.c ****     int ret;
 743:..\kronos-c-sdk\src\wolfSSL\wolfcrypt\src/rsa.c **** 
 744:..\kronos-c-sdk\src\wolfSSL\wolfcrypt\src/rsa.c ****     switch (padType)
ARM GAS  C:\Users\ddemidov\AppData\Local\Temp\ccr947bU.s 			page 20


 745:..\kronos-c-sdk\src\wolfSSL\wolfcrypt\src/rsa.c ****     {
 746:..\kronos-c-sdk\src\wolfSSL\wolfcrypt\src/rsa.c ****         case WC_RSA_PKCSV15_PAD:
 747:..\kronos-c-sdk\src\wolfSSL\wolfcrypt\src/rsa.c ****             WOLFSSL_MSG("wolfSSL Using RSA PKCSV15 padding");
 748:..\kronos-c-sdk\src\wolfSSL\wolfcrypt\src/rsa.c ****             ret = RsaUnPad(pkcsBlock, pkcsBlockLen, out, padValue);
 749:..\kronos-c-sdk\src\wolfSSL\wolfcrypt\src/rsa.c ****             break;
 750:..\kronos-c-sdk\src\wolfSSL\wolfcrypt\src/rsa.c **** 
 751:..\kronos-c-sdk\src\wolfSSL\wolfcrypt\src/rsa.c ****         case WC_RSA_OAEP_PAD:
 752:..\kronos-c-sdk\src\wolfSSL\wolfcrypt\src/rsa.c ****             WOLFSSL_MSG("wolfSSL Using RSA OAEP padding");
 753:..\kronos-c-sdk\src\wolfSSL\wolfcrypt\src/rsa.c ****             ret = wc_RsaUnPad_OAEP((byte*)pkcsBlock, pkcsBlockLen, out,
 754:..\kronos-c-sdk\src\wolfSSL\wolfcrypt\src/rsa.c ****                                                 hType, mgf, optLabel, labelLen);
 755:..\kronos-c-sdk\src\wolfSSL\wolfcrypt\src/rsa.c ****             break;
 756:..\kronos-c-sdk\src\wolfSSL\wolfcrypt\src/rsa.c **** 
 757:..\kronos-c-sdk\src\wolfSSL\wolfcrypt\src/rsa.c ****         default:
 758:..\kronos-c-sdk\src\wolfSSL\wolfcrypt\src/rsa.c ****             WOLFSSL_MSG("Unknown RSA Pad Type");
 759:..\kronos-c-sdk\src\wolfSSL\wolfcrypt\src/rsa.c ****             ret = RSA_PAD_E;
 760:..\kronos-c-sdk\src\wolfSSL\wolfcrypt\src/rsa.c ****     }
 761:..\kronos-c-sdk\src\wolfSSL\wolfcrypt\src/rsa.c **** 
 762:..\kronos-c-sdk\src\wolfSSL\wolfcrypt\src/rsa.c ****     /* silence warning if not used with padding scheme */
 763:..\kronos-c-sdk\src\wolfSSL\wolfcrypt\src/rsa.c ****     (void)padType;
 764:..\kronos-c-sdk\src\wolfSSL\wolfcrypt\src/rsa.c ****     (void)hType;
 765:..\kronos-c-sdk\src\wolfSSL\wolfcrypt\src/rsa.c ****     (void)mgf;
 766:..\kronos-c-sdk\src\wolfSSL\wolfcrypt\src/rsa.c ****     (void)optLabel;
 767:..\kronos-c-sdk\src\wolfSSL\wolfcrypt\src/rsa.c ****     (void)labelLen;
 768:..\kronos-c-sdk\src\wolfSSL\wolfcrypt\src/rsa.c **** 
 769:..\kronos-c-sdk\src\wolfSSL\wolfcrypt\src/rsa.c ****     return ret;
 770:..\kronos-c-sdk\src\wolfSSL\wolfcrypt\src/rsa.c **** }
 771:..\kronos-c-sdk\src\wolfSSL\wolfcrypt\src/rsa.c **** #endif /* WC_NO_RSA_OAEP */
 772:..\kronos-c-sdk\src\wolfSSL\wolfcrypt\src/rsa.c **** 
 773:..\kronos-c-sdk\src\wolfSSL\wolfcrypt\src/rsa.c **** 
 774:..\kronos-c-sdk\src\wolfSSL\wolfcrypt\src/rsa.c **** static int wc_RsaFunction(const byte* in, word32 inLen, byte* out,
 775:..\kronos-c-sdk\src\wolfSSL\wolfcrypt\src/rsa.c ****                           word32* outLen, int type, RsaKey* key)
 776:..\kronos-c-sdk\src\wolfSSL\wolfcrypt\src/rsa.c **** {
 319              		.loc 1 776 0
 320              		.cfi_startproc
 321              	.LVL46:
 322 0000 F0B5     		push	{r4, r5, r6, r7, lr}
 323              		.cfi_def_cfa_offset 20
 324              		.cfi_offset 4, -20
 325              		.cfi_offset 5, -16
 326              		.cfi_offset 6, -12
 327              		.cfi_offset 7, -8
 328              		.cfi_offset 14, -4
 329 0002 8DB0     		sub	sp, sp, #52
 330              		.cfi_def_cfa_offset 72
 331 0004 071C     		mov	r7, r0
 332 0006 0C1C     		mov	r4, r1
 333 0008 151C     		mov	r5, r2
 334 000a 1E1C     		mov	r6, r3
 335              	.LVL47:
 777:..\kronos-c-sdk\src\wolfSSL\wolfcrypt\src/rsa.c ****     #define ERROR_OUT(x) { ret = (x); goto done;}
 778:..\kronos-c-sdk\src\wolfSSL\wolfcrypt\src/rsa.c **** 
 779:..\kronos-c-sdk\src\wolfSSL\wolfcrypt\src/rsa.c ****     mp_int tmp;
 780:..\kronos-c-sdk\src\wolfSSL\wolfcrypt\src/rsa.c ****     int    ret = 0;
 781:..\kronos-c-sdk\src\wolfSSL\wolfcrypt\src/rsa.c ****     word32 keyLen, len;
 782:..\kronos-c-sdk\src\wolfSSL\wolfcrypt\src/rsa.c **** 
 783:..\kronos-c-sdk\src\wolfSSL\wolfcrypt\src/rsa.c ****     if (mp_init(&tmp) != MP_OKAY)
 336              		.loc 1 783 0
ARM GAS  C:\Users\ddemidov\AppData\Local\Temp\ccr947bU.s 			page 21


 337 000c 08A8     		add	r0, sp, #32
 338              	.LVL48:
 339 000e FFF7FEFF 		bl	mp_init
 340              	.LVL49:
 341 0012 0028     		cmp	r0, #0
 342 0014 00D0     		beq	.LCB378
 343 0016 A6E0     		b	.L41	@long jump
 344              	.LCB378:
 784:..\kronos-c-sdk\src\wolfSSL\wolfcrypt\src/rsa.c ****         return MP_INIT_E;
 785:..\kronos-c-sdk\src\wolfSSL\wolfcrypt\src/rsa.c **** 
 786:..\kronos-c-sdk\src\wolfSSL\wolfcrypt\src/rsa.c ****     if (mp_read_unsigned_bin(&tmp, (byte*)in, inLen) != MP_OKAY)
 345              		.loc 1 786 0
 346 0018 08A8     		add	r0, sp, #32
 347 001a 391C     		mov	r1, r7
 348 001c 221C     		mov	r2, r4
 349 001e FFF7FEFF 		bl	mp_read_unsigned_bin
 350              	.LVL50:
 351 0022 0028     		cmp	r0, #0
 352 0024 00D0     		beq	.LCB385
 353 0026 8BE0     		b	.L42	@long jump
 354              	.LCB385:
 787:..\kronos-c-sdk\src\wolfSSL\wolfcrypt\src/rsa.c ****         ERROR_OUT(MP_READ_E);
 788:..\kronos-c-sdk\src\wolfSSL\wolfcrypt\src/rsa.c **** 
 789:..\kronos-c-sdk\src\wolfSSL\wolfcrypt\src/rsa.c ****     if (type == RSA_PRIVATE_DECRYPT || type == RSA_PRIVATE_ENCRYPT) {
 355              		.loc 1 789 0
 356 0028 129A     		ldr	r2, [sp, #72]
 357 002a 131C     		mov	r3, r2
 358 002c 023B     		sub	r3, r3, #2
 359 002e 012B     		cmp	r3, #1
 360 0030 61D8     		bhi	.L33
 361              	.LBB20:
 790:..\kronos-c-sdk\src\wolfSSL\wolfcrypt\src/rsa.c ****         #ifdef RSA_LOW_MEM      /* half as much memory but twice as slow */
 791:..\kronos-c-sdk\src\wolfSSL\wolfcrypt\src/rsa.c ****             if (mp_exptmod(&tmp, &key->d, &key->n, &tmp) != MP_OKAY)
 792:..\kronos-c-sdk\src\wolfSSL\wolfcrypt\src/rsa.c ****                 ERROR_OUT(MP_EXPTMOD_E);
 793:..\kronos-c-sdk\src\wolfSSL\wolfcrypt\src/rsa.c ****         #else
 794:..\kronos-c-sdk\src\wolfSSL\wolfcrypt\src/rsa.c ****             #define INNER_ERROR_OUT(x) { ret = (x); goto inner_done; }
 795:..\kronos-c-sdk\src\wolfSSL\wolfcrypt\src/rsa.c **** 
 796:..\kronos-c-sdk\src\wolfSSL\wolfcrypt\src/rsa.c ****             mp_int tmpa, tmpb;
 797:..\kronos-c-sdk\src\wolfSSL\wolfcrypt\src/rsa.c **** 
 798:..\kronos-c-sdk\src\wolfSSL\wolfcrypt\src/rsa.c ****             if (mp_init(&tmpa) != MP_OKAY)
 362              		.loc 1 798 0
 363 0032 6846     		mov	r0, sp
 364 0034 FFF7FEFF 		bl	mp_init
 365              	.LVL51:
 366 0038 0028     		cmp	r0, #0
 367 003a 59D1     		bne	.L34
 799:..\kronos-c-sdk\src\wolfSSL\wolfcrypt\src/rsa.c ****                 ERROR_OUT(MP_INIT_E);
 800:..\kronos-c-sdk\src\wolfSSL\wolfcrypt\src/rsa.c **** 
 801:..\kronos-c-sdk\src\wolfSSL\wolfcrypt\src/rsa.c ****             if (mp_init(&tmpb) != MP_OKAY) {
 368              		.loc 1 801 0
 369 003c 04A8     		add	r0, sp, #16
 370 003e FFF7FEFF 		bl	mp_init
 371              	.LVL52:
 372 0042 0028     		cmp	r0, #0
 373 0044 03D0     		beq	.L35
 802:..\kronos-c-sdk\src\wolfSSL\wolfcrypt\src/rsa.c ****                 mp_clear(&tmpa);
 374              		.loc 1 802 0
ARM GAS  C:\Users\ddemidov\AppData\Local\Temp\ccr947bU.s 			page 22


 375 0046 6846     		mov	r0, sp
 376 0048 FFF7FEFF 		bl	mp_clear
 377              	.LVL53:
 803:..\kronos-c-sdk\src\wolfSSL\wolfcrypt\src/rsa.c ****                 ERROR_OUT(MP_INIT_E);
 378              		.loc 1 803 0
 379 004c 50E0     		b	.L34
 380              	.LVL54:
 381              	.L35:
 804:..\kronos-c-sdk\src\wolfSSL\wolfcrypt\src/rsa.c ****             }
 805:..\kronos-c-sdk\src\wolfSSL\wolfcrypt\src/rsa.c **** 
 806:..\kronos-c-sdk\src\wolfSSL\wolfcrypt\src/rsa.c ****             /* tmpa = tmp^dP mod p */
 807:..\kronos-c-sdk\src\wolfSSL\wolfcrypt\src/rsa.c ****             if (mp_exptmod(&tmp, &key->dP, &key->p, &tmpa) != MP_OKAY)
 382              		.loc 1 807 0
 383 004e 139C     		ldr	r4, [sp, #76]
 384              	.LVL55:
 385 0050 3034     		add	r4, r4, #48
 386 0052 1399     		ldr	r1, [sp, #76]
 387 0054 5031     		add	r1, r1, #80
 388 0056 08A8     		add	r0, sp, #32
 389 0058 221C     		mov	r2, r4
 390 005a 6B46     		mov	r3, sp
 391 005c FFF7FEFF 		bl	mp_exptmod
 392              	.LVL56:
 393 0060 0028     		cmp	r0, #0
 394 0062 2AD1     		bne	.L43
 808:..\kronos-c-sdk\src\wolfSSL\wolfcrypt\src/rsa.c ****                 INNER_ERROR_OUT(MP_EXPTMOD_E);
 809:..\kronos-c-sdk\src\wolfSSL\wolfcrypt\src/rsa.c **** 
 810:..\kronos-c-sdk\src\wolfSSL\wolfcrypt\src/rsa.c ****             /* tmpb = tmp^dQ mod q */
 811:..\kronos-c-sdk\src\wolfSSL\wolfcrypt\src/rsa.c ****             if (mp_exptmod(&tmp, &key->dQ, &key->q, &tmpb) != MP_OKAY)
 395              		.loc 1 811 0
 396 0064 139F     		ldr	r7, [sp, #76]
 397              	.LVL57:
 398 0066 4037     		add	r7, r7, #64
 399 0068 1399     		ldr	r1, [sp, #76]
 400 006a 6031     		add	r1, r1, #96
 401 006c 08A8     		add	r0, sp, #32
 402 006e 3A1C     		mov	r2, r7
 403 0070 04AB     		add	r3, sp, #16
 404 0072 FFF7FEFF 		bl	mp_exptmod
 405              	.LVL58:
 406 0076 0028     		cmp	r0, #0
 407 0078 22D1     		bne	.L44
 812:..\kronos-c-sdk\src\wolfSSL\wolfcrypt\src/rsa.c ****                 INNER_ERROR_OUT(MP_EXPTMOD_E);
 813:..\kronos-c-sdk\src\wolfSSL\wolfcrypt\src/rsa.c **** 
 814:..\kronos-c-sdk\src\wolfSSL\wolfcrypt\src/rsa.c ****             /* tmp = (tmpa - tmpb) * qInv (mod p) */
 815:..\kronos-c-sdk\src\wolfSSL\wolfcrypt\src/rsa.c ****             if (mp_sub(&tmpa, &tmpb, &tmp) != MP_OKAY)
 408              		.loc 1 815 0
 409 007a 6846     		mov	r0, sp
 410 007c 04A9     		add	r1, sp, #16
 411 007e 08AA     		add	r2, sp, #32
 412 0080 FFF7FEFF 		bl	mp_sub
 413              	.LVL59:
 414 0084 0028     		cmp	r0, #0
 415 0086 1ED1     		bne	.L45
 816:..\kronos-c-sdk\src\wolfSSL\wolfcrypt\src/rsa.c ****                 INNER_ERROR_OUT(MP_SUB_E);
 817:..\kronos-c-sdk\src\wolfSSL\wolfcrypt\src/rsa.c **** 
 818:..\kronos-c-sdk\src\wolfSSL\wolfcrypt\src/rsa.c ****             if (mp_mulmod(&tmp, &key->u, &key->p, &tmp) != MP_OKAY)
ARM GAS  C:\Users\ddemidov\AppData\Local\Temp\ccr947bU.s 			page 23


 416              		.loc 1 818 0
 417 0088 1399     		ldr	r1, [sp, #76]
 418 008a 7031     		add	r1, r1, #112
 419 008c 08A8     		add	r0, sp, #32
 420 008e 221C     		mov	r2, r4
 421 0090 031C     		mov	r3, r0
 422 0092 FFF7FEFF 		bl	mp_mulmod
 423              	.LVL60:
 424 0096 0028     		cmp	r0, #0
 425 0098 18D1     		bne	.L46
 819:..\kronos-c-sdk\src\wolfSSL\wolfcrypt\src/rsa.c ****                 INNER_ERROR_OUT(MP_MULMOD_E);
 820:..\kronos-c-sdk\src\wolfSSL\wolfcrypt\src/rsa.c **** 
 821:..\kronos-c-sdk\src\wolfSSL\wolfcrypt\src/rsa.c ****             /* tmp = tmpb + q * tmp */
 822:..\kronos-c-sdk\src\wolfSSL\wolfcrypt\src/rsa.c ****             if (mp_mul(&tmp, &key->q, &tmp) != MP_OKAY)
 426              		.loc 1 822 0
 427 009a 08A8     		add	r0, sp, #32
 428 009c 391C     		mov	r1, r7
 429 009e 021C     		mov	r2, r0
 430 00a0 FFF7FEFF 		bl	mp_mul
 431              	.LVL61:
 432 00a4 0028     		cmp	r0, #0
 433 00a6 14D1     		bne	.L47
 823:..\kronos-c-sdk\src\wolfSSL\wolfcrypt\src/rsa.c ****                 INNER_ERROR_OUT(MP_MUL_E);
 824:..\kronos-c-sdk\src\wolfSSL\wolfcrypt\src/rsa.c **** 
 825:..\kronos-c-sdk\src\wolfSSL\wolfcrypt\src/rsa.c ****             if (mp_add(&tmp, &tmpb, &tmp) != MP_OKAY)
 434              		.loc 1 825 0
 435 00a8 08A8     		add	r0, sp, #32
 436 00aa 04A9     		add	r1, sp, #16
 437 00ac 021C     		mov	r2, r0
 438 00ae FFF7FEFF 		bl	mp_add
 439              	.LVL62:
 440 00b2 0028     		cmp	r0, #0
 441 00b4 10D1     		bne	.L48
 442              	.LBE20:
 780:..\kronos-c-sdk\src\wolfSSL\wolfcrypt\src/rsa.c ****     word32 keyLen, len;
 443              		.loc 1 780 0
 444 00b6 0024     		mov	r4, #0
 445 00b8 10E0     		b	.L36
 446              	.LVL63:
 447              	.L43:
 448              	.LBB21:
 808:..\kronos-c-sdk\src\wolfSSL\wolfcrypt\src/rsa.c **** 
 449              		.loc 1 808 0
 450 00ba 7024     		mov	r4, #112
 451 00bc 6442     		neg	r4, r4
 452 00be 0DE0     		b	.L36
 453              	.LVL64:
 454              	.L44:
 812:..\kronos-c-sdk\src\wolfSSL\wolfcrypt\src/rsa.c **** 
 455              		.loc 1 812 0
 456 00c0 7024     		mov	r4, #112
 457 00c2 6442     		neg	r4, r4
 458 00c4 0AE0     		b	.L36
 459              	.L45:
 816:..\kronos-c-sdk\src\wolfSSL\wolfcrypt\src/rsa.c **** 
 460              		.loc 1 816 0
 461 00c6 7224     		mov	r4, #114
ARM GAS  C:\Users\ddemidov\AppData\Local\Temp\ccr947bU.s 			page 24


 462 00c8 6442     		neg	r4, r4
 463 00ca 07E0     		b	.L36
 464              	.L46:
 819:..\kronos-c-sdk\src\wolfSSL\wolfcrypt\src/rsa.c **** 
 465              		.loc 1 819 0
 466 00cc 7524     		mov	r4, #117
 467 00ce 6442     		neg	r4, r4
 468 00d0 04E0     		b	.L36
 469              	.L47:
 823:..\kronos-c-sdk\src\wolfSSL\wolfcrypt\src/rsa.c **** 
 470              		.loc 1 823 0
 471 00d2 7424     		mov	r4, #116
 472 00d4 6442     		neg	r4, r4
 473 00d6 01E0     		b	.L36
 474              	.L48:
 826:..\kronos-c-sdk\src\wolfSSL\wolfcrypt\src/rsa.c ****                 INNER_ERROR_OUT(MP_ADD_E);
 475              		.loc 1 826 0
 476 00d8 7324     		mov	r4, #115
 477 00da 6442     		neg	r4, r4
 478              	.L36:
 479              	.LVL65:
 827:..\kronos-c-sdk\src\wolfSSL\wolfcrypt\src/rsa.c **** 
 828:..\kronos-c-sdk\src\wolfSSL\wolfcrypt\src/rsa.c ****         inner_done:
 829:..\kronos-c-sdk\src\wolfSSL\wolfcrypt\src/rsa.c ****             mp_clear(&tmpa);
 480              		.loc 1 829 0
 481 00dc 6846     		mov	r0, sp
 482 00de FFF7FEFF 		bl	mp_clear
 483              	.LVL66:
 830:..\kronos-c-sdk\src\wolfSSL\wolfcrypt\src/rsa.c ****             mp_clear(&tmpb);
 484              		.loc 1 830 0
 485 00e2 04A8     		add	r0, sp, #16
 486 00e4 FFF7FEFF 		bl	mp_clear
 487              	.LVL67:
 831:..\kronos-c-sdk\src\wolfSSL\wolfcrypt\src/rsa.c **** 
 832:..\kronos-c-sdk\src\wolfSSL\wolfcrypt\src/rsa.c ****             if (ret != 0) return ret;
 488              		.loc 1 832 0
 489 00e8 002C     		cmp	r4, #0
 490 00ea 10D0     		beq	.L38
 491              		.loc 1 832 0 is_stmt 0 discriminator 1
 492 00ec 201C     		mov	r0, r4
 493 00ee 3CE0     		b	.L31
 494              	.LVL68:
 495              	.L34:
 799:..\kronos-c-sdk\src\wolfSSL\wolfcrypt\src/rsa.c **** 
 496              		.loc 1 799 0 is_stmt 1 discriminator 1
 497 00f0 6E24     		mov	r4, #110
 498              	.LVL69:
 499 00f2 6442     		neg	r4, r4
 500 00f4 32E0     		b	.L32
 501              	.LVL70:
 502              	.L33:
 503              	.LBE21:
 833:..\kronos-c-sdk\src\wolfSSL\wolfcrypt\src/rsa.c **** 
 834:..\kronos-c-sdk\src\wolfSSL\wolfcrypt\src/rsa.c ****         #endif   /* RSA_LOW_MEM */
 835:..\kronos-c-sdk\src\wolfSSL\wolfcrypt\src/rsa.c ****     }
 836:..\kronos-c-sdk\src\wolfSSL\wolfcrypt\src/rsa.c ****     else if (type == RSA_PUBLIC_ENCRYPT || type == RSA_PUBLIC_DECRYPT) {
 504              		.loc 1 836 0
ARM GAS  C:\Users\ddemidov\AppData\Local\Temp\ccr947bU.s 			page 25


 505 00f6 012A     		cmp	r2, #1
 506 00f8 25D8     		bhi	.L49
 837:..\kronos-c-sdk\src\wolfSSL\wolfcrypt\src/rsa.c ****         if (mp_exptmod(&tmp, &key->e, &key->n, &tmp) != MP_OKAY)
 507              		.loc 1 837 0
 508 00fa 1399     		ldr	r1, [sp, #76]
 509 00fc 1031     		add	r1, r1, #16
 510 00fe 08A8     		add	r0, sp, #32
 511 0100 139A     		ldr	r2, [sp, #76]
 512 0102 031C     		mov	r3, r0
 513 0104 FFF7FEFF 		bl	mp_exptmod
 514              	.LVL71:
 515 0108 0028     		cmp	r0, #0
 516 010a 1FD1     		bne	.L50
 780:..\kronos-c-sdk\src\wolfSSL\wolfcrypt\src/rsa.c ****     word32 keyLen, len;
 517              		.loc 1 780 0
 518 010c 0024     		mov	r4, #0
 519              	.LVL72:
 520              	.L38:
 838:..\kronos-c-sdk\src\wolfSSL\wolfcrypt\src/rsa.c ****             ERROR_OUT(MP_EXPTMOD_E);
 839:..\kronos-c-sdk\src\wolfSSL\wolfcrypt\src/rsa.c ****     }
 840:..\kronos-c-sdk\src\wolfSSL\wolfcrypt\src/rsa.c ****     else
 841:..\kronos-c-sdk\src\wolfSSL\wolfcrypt\src/rsa.c ****         ERROR_OUT(RSA_WRONG_TYPE_E);
 842:..\kronos-c-sdk\src\wolfSSL\wolfcrypt\src/rsa.c **** 
 843:..\kronos-c-sdk\src\wolfSSL\wolfcrypt\src/rsa.c ****     keyLen = mp_unsigned_bin_size(&key->n);
 521              		.loc 1 843 0
 522 010e 1398     		ldr	r0, [sp, #76]
 523 0110 FFF7FEFF 		bl	mp_unsigned_bin_size
 524              	.LVL73:
 525 0114 071C     		mov	r7, r0
 526              	.LVL74:
 844:..\kronos-c-sdk\src\wolfSSL\wolfcrypt\src/rsa.c ****     if (keyLen > *outLen)
 527              		.loc 1 844 0
 528 0116 3368     		ldr	r3, [r6]
 529 0118 8342     		cmp	r3, r0
 530 011a 1AD3     		bcc	.L51
 845:..\kronos-c-sdk\src\wolfSSL\wolfcrypt\src/rsa.c ****         ERROR_OUT(RSA_BUFFER_E);
 846:..\kronos-c-sdk\src\wolfSSL\wolfcrypt\src/rsa.c **** 
 847:..\kronos-c-sdk\src\wolfSSL\wolfcrypt\src/rsa.c ****     len = mp_unsigned_bin_size(&tmp);
 531              		.loc 1 847 0
 532 011c 08A8     		add	r0, sp, #32
 533              	.LVL75:
 534 011e FFF7FEFF 		bl	mp_unsigned_bin_size
 535              	.LVL76:
 848:..\kronos-c-sdk\src\wolfSSL\wolfcrypt\src/rsa.c **** 
 849:..\kronos-c-sdk\src\wolfSSL\wolfcrypt\src/rsa.c ****     /* pad front w/ zeros to match key length */
 850:..\kronos-c-sdk\src\wolfSSL\wolfcrypt\src/rsa.c ****     while (len < keyLen) {
 536              		.loc 1 850 0
 537 0122 03E0     		b	.L39
 538              	.L40:
 539              	.LVL77:
 851:..\kronos-c-sdk\src\wolfSSL\wolfcrypt\src/rsa.c ****         *out++ = 0x00;
 540              		.loc 1 851 0
 541 0124 0023     		mov	r3, #0
 542 0126 2B70     		strb	r3, [r5]
 852:..\kronos-c-sdk\src\wolfSSL\wolfcrypt\src/rsa.c ****         len++;
 543              		.loc 1 852 0
 544 0128 0130     		add	r0, r0, #1
ARM GAS  C:\Users\ddemidov\AppData\Local\Temp\ccr947bU.s 			page 26


 545              	.LVL78:
 851:..\kronos-c-sdk\src\wolfSSL\wolfcrypt\src/rsa.c ****         *out++ = 0x00;
 546              		.loc 1 851 0
 547 012a 0135     		add	r5, r5, #1
 548              	.LVL79:
 549              	.L39:
 850:..\kronos-c-sdk\src\wolfSSL\wolfcrypt\src/rsa.c ****         *out++ = 0x00;
 550              		.loc 1 850 0
 551 012c B842     		cmp	r0, r7
 552 012e F9D3     		bcc	.L40
 853:..\kronos-c-sdk\src\wolfSSL\wolfcrypt\src/rsa.c ****     }
 854:..\kronos-c-sdk\src\wolfSSL\wolfcrypt\src/rsa.c **** 
 855:..\kronos-c-sdk\src\wolfSSL\wolfcrypt\src/rsa.c ****     *outLen = keyLen;
 553              		.loc 1 855 0
 554 0130 3760     		str	r7, [r6]
 856:..\kronos-c-sdk\src\wolfSSL\wolfcrypt\src/rsa.c **** 
 857:..\kronos-c-sdk\src\wolfSSL\wolfcrypt\src/rsa.c ****     /* convert */
 858:..\kronos-c-sdk\src\wolfSSL\wolfcrypt\src/rsa.c ****     if (mp_to_unsigned_bin(&tmp, out) != MP_OKAY)
 555              		.loc 1 858 0
 556 0132 08A8     		add	r0, sp, #32
 557              	.LVL80:
 558 0134 291C     		mov	r1, r5
 559 0136 FFF7FEFF 		bl	mp_to_unsigned_bin
 560              	.LVL81:
 561 013a 0028     		cmp	r0, #0
 562 013c 0CD1     		bne	.L52
 563 013e 0DE0     		b	.L32
 564              	.LVL82:
 565              	.L42:
 787:..\kronos-c-sdk\src\wolfSSL\wolfcrypt\src/rsa.c **** 
 566              		.loc 1 787 0
 567 0140 6F24     		mov	r4, #111
 568              	.LVL83:
 569 0142 6442     		neg	r4, r4
 570 0144 0AE0     		b	.L32
 571              	.LVL84:
 572              	.L49:
 841:..\kronos-c-sdk\src\wolfSSL\wolfcrypt\src/rsa.c **** 
 573              		.loc 1 841 0
 574 0146 8224     		mov	r4, #130
 575              	.LVL85:
 576 0148 6442     		neg	r4, r4
 577 014a 07E0     		b	.L32
 578              	.LVL86:
 579              	.L50:
 838:..\kronos-c-sdk\src\wolfSSL\wolfcrypt\src/rsa.c ****     }
 580              		.loc 1 838 0
 581 014c 7024     		mov	r4, #112
 582              	.LVL87:
 583 014e 6442     		neg	r4, r4
 584 0150 04E0     		b	.L32
 585              	.LVL88:
 586              	.L51:
 845:..\kronos-c-sdk\src\wolfSSL\wolfcrypt\src/rsa.c **** 
 587              		.loc 1 845 0
 588 0152 8324     		mov	r4, #131
 589              	.LVL89:
ARM GAS  C:\Users\ddemidov\AppData\Local\Temp\ccr947bU.s 			page 27


 590 0154 6442     		neg	r4, r4
 591 0156 01E0     		b	.L32
 592              	.LVL90:
 593              	.L52:
 859:..\kronos-c-sdk\src\wolfSSL\wolfcrypt\src/rsa.c ****         ERROR_OUT(MP_TO_E);
 594              		.loc 1 859 0
 595 0158 7124     		mov	r4, #113
 596              	.LVL91:
 597 015a 6442     		neg	r4, r4
 598              	.LVL92:
 599              	.L32:
 860:..\kronos-c-sdk\src\wolfSSL\wolfcrypt\src/rsa.c **** 
 861:..\kronos-c-sdk\src\wolfSSL\wolfcrypt\src/rsa.c **** done:
 862:..\kronos-c-sdk\src\wolfSSL\wolfcrypt\src/rsa.c ****     mp_clear(&tmp);
 600              		.loc 1 862 0
 601 015c 08A8     		add	r0, sp, #32
 602 015e FFF7FEFF 		bl	mp_clear
 603              	.LVL93:
 863:..\kronos-c-sdk\src\wolfSSL\wolfcrypt\src/rsa.c ****     if (ret == MP_EXPTMOD_E) {
 864:..\kronos-c-sdk\src\wolfSSL\wolfcrypt\src/rsa.c ****         WOLFSSL_MSG("RSA_FUNCTION MP_EXPTMOD_E: memory/config problem");
 865:..\kronos-c-sdk\src\wolfSSL\wolfcrypt\src/rsa.c ****     }
 866:..\kronos-c-sdk\src\wolfSSL\wolfcrypt\src/rsa.c ****     return ret;
 604              		.loc 1 866 0
 605 0162 201C     		mov	r0, r4
 606 0164 01E0     		b	.L31
 607              	.LVL94:
 608              	.L41:
 784:..\kronos-c-sdk\src\wolfSSL\wolfcrypt\src/rsa.c **** 
 609              		.loc 1 784 0
 610 0166 6E20     		mov	r0, #110
 611 0168 4042     		neg	r0, r0
 612              	.LVL95:
 613              	.L31:
 867:..\kronos-c-sdk\src\wolfSSL\wolfcrypt\src/rsa.c **** }
 614              		.loc 1 867 0
 615 016a 0DB0     		add	sp, sp, #52
 616              		@ sp needed
 617              	.LVL96:
 618              	.LVL97:
 619 016c F0BD     		pop	{r4, r5, r6, r7, pc}
 620              		.cfi_endproc
 621              	.LFE22:
 622              		.size	wc_RsaFunction, .-wc_RsaFunction
 623 016e C046     		.section	.text.wc_MGF1,"ax",%progbits
 624              		.align	2
 625              		.code	16
 626              		.thumb_func
 627              		.type	wc_MGF1, %function
 628              	wc_MGF1:
 629              	.LFB14:
 247:..\kronos-c-sdk\src\wolfSSL\wolfcrypt\src/rsa.c ****     byte* tmp;
 630              		.loc 1 247 0
 631              		.cfi_startproc
 632              	.LVL98:
 633 0000 F0B5     		push	{r4, r5, r6, r7, lr}
 634              		.cfi_def_cfa_offset 20
 635              		.cfi_offset 4, -20
ARM GAS  C:\Users\ddemidov\AppData\Local\Temp\ccr947bU.s 			page 28


 636              		.cfi_offset 5, -16
 637              		.cfi_offset 6, -12
 638              		.cfi_offset 7, -8
 639              		.cfi_offset 14, -4
 640 0002 5F46     		mov	r7, fp
 641 0004 5646     		mov	r6, r10
 642 0006 4D46     		mov	r5, r9
 643 0008 4446     		mov	r4, r8
 644 000a F0B4     		push	{r4, r5, r6, r7}
 645              		.cfi_def_cfa_offset 36
 646              		.cfi_offset 8, -36
 647              		.cfi_offset 9, -32
 648              		.cfi_offset 10, -28
 649              		.cfi_offset 11, -24
 650 000c 91B0     		sub	sp, sp, #68
 651              		.cfi_def_cfa_offset 104
 652 000e 0390     		str	r0, [sp, #12]
 653 0010 0491     		str	r1, [sp, #16]
 654 0012 9346     		mov	fp, r2
 655 0014 9946     		mov	r9, r3
 656 0016 1A9B     		ldr	r3, [sp, #104]
 657              	.LVL99:
 658 0018 9846     		mov	r8, r3
 257:..\kronos-c-sdk\src\wolfSSL\wolfcrypt\src/rsa.c ****     counter = 0;
 659              		.loc 1 257 0
 660 001a FFF7FEFF 		bl	wc_HashGetDigestSize
 661              	.LVL100:
 662 001e 061E     		sub	r6, r0, #0
 663              	.LVL101:
 262:..\kronos-c-sdk\src\wolfSSL\wolfcrypt\src/rsa.c ****         return hLen;
 664              		.loc 1 262 0
 665 0020 66DB     		blt	.L63
 267:..\kronos-c-sdk\src\wolfSSL\wolfcrypt\src/rsa.c ****         /* find largest amount of memory needed which will be the max of
 666              		.loc 1 267 0
 667 0022 5B46     		mov	r3, fp
 668 0024 0433     		add	r3, r3, #4
 669 0026 0293     		str	r3, [sp, #8]
 670 0028 242B     		cmp	r3, #36
 671 002a 01D8     		bhi	.L55
 267:..\kronos-c-sdk\src\wolfSSL\wolfcrypt\src/rsa.c ****         /* find largest amount of memory needed which will be the max of
 672              		.loc 1 267 0 is_stmt 0 discriminator 1
 673 002c 2428     		cmp	r0, #36
 674 002e 0CD9     		bls	.L64
 675              	.L55:
 270:..\kronos-c-sdk\src\wolfSSL\wolfcrypt\src/rsa.c ****         tmp = (byte*)XMALLOC(tmpSz, NULL, DYNAMIC_TYPE_TMP_BUFFER);
 676              		.loc 1 270 0 is_stmt 1
 677 0030 029A     		ldr	r2, [sp, #8]
 678 0032 9246     		mov	r10, r2
 679 0034 B242     		cmp	r2, r6
 680 0036 00D2     		bcs	.L57
 681 0038 B246     		mov	r10, r6
 682              	.L57:
 683              	.LVL102:
 271:..\kronos-c-sdk\src\wolfSSL\wolfcrypt\src/rsa.c ****         if (tmp == NULL) {
 684              		.loc 1 271 0
 685 003a 5046     		mov	r0, r10
 686              	.LVL103:
ARM GAS  C:\Users\ddemidov\AppData\Local\Temp\ccr947bU.s 			page 29


 687 003c FFF7FEFF 		bl	wolfSSL_Malloc
 688              	.LVL104:
 689 0040 051E     		sub	r5, r0, #0
 690              	.LVL105:
 272:..\kronos-c-sdk\src\wolfSSL\wolfcrypt\src/rsa.c ****             return MEMORY_E;
 691              		.loc 1 272 0
 692 0042 56D0     		beq	.L65
 275:..\kronos-c-sdk\src\wolfSSL\wolfcrypt\src/rsa.c ****     }
 693              		.loc 1 275 0
 694 0044 0123     		mov	r3, #1
 695 0046 0593     		str	r3, [sp, #20]
 696 0048 04E0     		b	.L56
 697              	.LVL106:
 698              	.L64:
 279:..\kronos-c-sdk\src\wolfSSL\wolfcrypt\src/rsa.c ****         tmp  = tmpA;
 699              		.loc 1 279 0
 700 004a 2423     		mov	r3, #36
 701 004c 9A46     		mov	r10, r3
 281:..\kronos-c-sdk\src\wolfSSL\wolfcrypt\src/rsa.c ****     }
 702              		.loc 1 281 0
 703 004e 0023     		mov	r3, #0
 704 0050 0593     		str	r3, [sp, #20]
 280:..\kronos-c-sdk\src\wolfSSL\wolfcrypt\src/rsa.c ****         tmpF = 0; /* no need to free memory at end */
 705              		.loc 1 280 0
 706 0052 07AD     		add	r5, sp, #28
 707              	.LVL107:
 708              	.L56:
 709 0054 0024     		mov	r4, #0
 710 0056 0027     		mov	r7, #0
 711 0058 4346     		mov	r3, r8
 712 005a 1A93     		str	r3, [sp, #104]
 713 005c B846     		mov	r8, r7
 714 005e 371C     		mov	r7, r6
 715 0060 1E1C     		mov	r6, r3
 716              	.LVL108:
 717              	.L62:
 718              	.LBB22:
 286:..\kronos-c-sdk\src\wolfSSL\wolfcrypt\src/rsa.c **** 
 719              		.loc 1 286 0
 720 0062 281C     		mov	r0, r5
 721 0064 0499     		ldr	r1, [sp, #16]
 722 0066 5A46     		mov	r2, fp
 723 0068 FFF7FEFF 		bl	memcpy
 724              	.LVL109:
 289:..\kronos-c-sdk\src\wolfSSL\wolfcrypt\src/rsa.c ****         tmp[seedSz + 1] = (counter >> 16) & 0xFF;
 725              		.loc 1 289 0
 726 006c 4346     		mov	r3, r8
 727 006e 1B0E     		lsr	r3, r3, #24
 728 0070 5A46     		mov	r2, fp
 729 0072 AB54     		strb	r3, [r5, r2]
 290:..\kronos-c-sdk\src\wolfSSL\wolfcrypt\src/rsa.c ****         tmp[seedSz + 2] = (counter >>  8) & 0xFF;
 730              		.loc 1 290 0
 731 0074 5B46     		mov	r3, fp
 732 0076 0133     		add	r3, r3, #1
 733 0078 4246     		mov	r2, r8
 734 007a 120C     		lsr	r2, r2, #16
 735 007c EA54     		strb	r2, [r5, r3]
ARM GAS  C:\Users\ddemidov\AppData\Local\Temp\ccr947bU.s 			page 30


 291:..\kronos-c-sdk\src\wolfSSL\wolfcrypt\src/rsa.c ****         tmp[seedSz + 3] = (counter)       & 0xFF;
 736              		.loc 1 291 0
 737 007e 5B46     		mov	r3, fp
 738 0080 0233     		add	r3, r3, #2
 739 0082 4246     		mov	r2, r8
 740 0084 120A     		lsr	r2, r2, #8
 741 0086 EA54     		strb	r2, [r5, r3]
 292:..\kronos-c-sdk\src\wolfSSL\wolfcrypt\src/rsa.c **** 
 742              		.loc 1 292 0
 743 0088 5B46     		mov	r3, fp
 744 008a 0333     		add	r3, r3, #3
 745 008c 4246     		mov	r2, r8
 746 008e EA54     		strb	r2, [r5, r3]
 295:..\kronos-c-sdk\src\wolfSSL\wolfcrypt\src/rsa.c ****             /* check for if dynamic memory was needed, then free */
 747              		.loc 1 295 0
 748 0090 5346     		mov	r3, r10
 749 0092 0093     		str	r3, [sp]
 750 0094 0398     		ldr	r0, [sp, #12]
 751 0096 291C     		mov	r1, r5
 752 0098 029A     		ldr	r2, [sp, #8]
 753 009a 2B1C     		mov	r3, r5
 754 009c FFF7FEFF 		bl	wc_Hash
 755              	.LVL110:
 756 00a0 0028     		cmp	r0, #0
 757 00a2 0FD0     		beq	.L66
 758 00a4 041C     		mov	r4, r0
 759              	.LVL111:
 297:..\kronos-c-sdk\src\wolfSSL\wolfcrypt\src/rsa.c ****                 XFREE(tmp, NULL, DYNAMIC_TYPE_TMP_BUFFER);
 760              		.loc 1 297 0
 761 00a6 059B     		ldr	r3, [sp, #20]
 762 00a8 002B     		cmp	r3, #0
 763 00aa 04D0     		beq	.L59
 764              	.LVL112:
 765              	.LBB23:
 298:..\kronos-c-sdk\src\wolfSSL\wolfcrypt\src/rsa.c ****             }
 766              		.loc 1 298 0
 767 00ac 002D     		cmp	r5, #0
 768 00ae 02D0     		beq	.L59
 298:..\kronos-c-sdk\src\wolfSSL\wolfcrypt\src/rsa.c ****             }
 769              		.loc 1 298 0 is_stmt 0 discriminator 1
 770 00b0 281C     		mov	r0, r5
 771              	.LVL113:
 772 00b2 FFF7FEFF 		bl	wolfSSL_Free
 773              	.LVL114:
 774              	.L59:
 775              	.LBE23:
 300:..\kronos-c-sdk\src\wolfSSL\wolfcrypt\src/rsa.c ****         }
 776              		.loc 1 300 0 is_stmt 1
 777 00b6 201C     		mov	r0, r4
 778 00b8 21E0     		b	.L54
 779              	.LVL115:
 780              	.L61:
 304:..\kronos-c-sdk\src\wolfSSL\wolfcrypt\src/rsa.c ****         }
 781              		.loc 1 304 0 discriminator 4
 782 00ba EA5C     		ldrb	r2, [r5, r3]
 783 00bc 0A55     		strb	r2, [r1, r4]
 303:..\kronos-c-sdk\src\wolfSSL\wolfcrypt\src/rsa.c ****             out[idx++] = tmp[i];
ARM GAS  C:\Users\ddemidov\AppData\Local\Temp\ccr947bU.s 			page 31


 784              		.loc 1 303 0 discriminator 4
 785 00be 0133     		add	r3, r3, #1
 786              	.LVL116:
 304:..\kronos-c-sdk\src\wolfSSL\wolfcrypt\src/rsa.c ****         }
 787              		.loc 1 304 0 discriminator 4
 788 00c0 0134     		add	r4, r4, #1
 789              	.LVL117:
 790 00c2 01E0     		b	.L58
 791              	.LVL118:
 792              	.L66:
 793 00c4 0023     		mov	r3, #0
 794 00c6 4946     		mov	r1, r9
 795              	.LVL119:
 796              	.L58:
 303:..\kronos-c-sdk\src\wolfSSL\wolfcrypt\src/rsa.c ****             out[idx++] = tmp[i];
 797              		.loc 1 303 0 discriminator 1
 798 00c8 BB42     		cmp	r3, r7
 799 00ca 01DA     		bge	.L60
 303:..\kronos-c-sdk\src\wolfSSL\wolfcrypt\src/rsa.c ****             out[idx++] = tmp[i];
 800              		.loc 1 303 0 is_stmt 0 discriminator 3
 801 00cc B442     		cmp	r4, r6
 802 00ce F4D3     		bcc	.L61
 803              	.L60:
 804 00d0 8946     		mov	r9, r1
 306:..\kronos-c-sdk\src\wolfSSL\wolfcrypt\src/rsa.c ****     }
 805              		.loc 1 306 0 is_stmt 1
 806 00d2 0123     		mov	r3, #1
 807              	.LVL120:
 808 00d4 9C46     		mov	ip, r3
 809 00d6 E044     		add	r8, r8, ip
 810              	.LVL121:
 811              	.LBE22:
 308:..\kronos-c-sdk\src\wolfSSL\wolfcrypt\src/rsa.c **** 
 812              		.loc 1 308 0
 813 00d8 B442     		cmp	r4, r6
 814 00da C2D3     		bcc	.L62
 311:..\kronos-c-sdk\src\wolfSSL\wolfcrypt\src/rsa.c ****         XFREE(tmp, NULL, DYNAMIC_TYPE_TMP_BUFFER);
 815              		.loc 1 311 0
 816 00dc 059B     		ldr	r3, [sp, #20]
 817 00de 002B     		cmp	r3, #0
 818 00e0 0AD0     		beq	.L67
 819              	.LVL122:
 820              	.LBB24:
 312:..\kronos-c-sdk\src\wolfSSL\wolfcrypt\src/rsa.c ****     }
 821              		.loc 1 312 0
 822 00e2 002D     		cmp	r5, #0
 823 00e4 0AD0     		beq	.L68
 312:..\kronos-c-sdk\src\wolfSSL\wolfcrypt\src/rsa.c ****     }
 824              		.loc 1 312 0 is_stmt 0 discriminator 1
 825 00e6 281C     		mov	r0, r5
 826              	.LVL123:
 827 00e8 FFF7FEFF 		bl	wolfSSL_Free
 828              	.LVL124:
 829              	.LBE24:
 315:..\kronos-c-sdk\src\wolfSSL\wolfcrypt\src/rsa.c **** }
 830              		.loc 1 315 0 is_stmt 1 discriminator 1
 831 00ec 0020     		mov	r0, #0
ARM GAS  C:\Users\ddemidov\AppData\Local\Temp\ccr947bU.s 			page 32


 832 00ee 06E0     		b	.L54
 833              	.LVL125:
 834              	.L63:
 835 00f0 05E0     		b	.L54
 836              	.LVL126:
 837              	.L65:
 273:..\kronos-c-sdk\src\wolfSSL\wolfcrypt\src/rsa.c ****         }
 838              		.loc 1 273 0
 839 00f2 7D20     		mov	r0, #125
 840              	.LVL127:
 841 00f4 4042     		neg	r0, r0
 842 00f6 02E0     		b	.L54
 843              	.LVL128:
 844              	.L67:
 315:..\kronos-c-sdk\src\wolfSSL\wolfcrypt\src/rsa.c **** }
 845              		.loc 1 315 0
 846 00f8 0020     		mov	r0, #0
 847              	.LVL129:
 848 00fa 00E0     		b	.L54
 849              	.LVL130:
 850              	.L68:
 851 00fc 0020     		mov	r0, #0
 852              	.LVL131:
 853              	.L54:
 316:..\kronos-c-sdk\src\wolfSSL\wolfcrypt\src/rsa.c **** 
 854              		.loc 1 316 0
 855 00fe 11B0     		add	sp, sp, #68
 856              		@ sp needed
 857              	.LVL132:
 858              	.LVL133:
 859 0100 3CBC     		pop	{r2, r3, r4, r5}
 860 0102 9046     		mov	r8, r2
 861 0104 9946     		mov	r9, r3
 862 0106 A246     		mov	r10, r4
 863 0108 AB46     		mov	fp, r5
 864 010a F0BD     		pop	{r4, r5, r6, r7, pc}
 865              		.cfi_endproc
 866              	.LFE14:
 867              		.size	wc_MGF1, .-wc_MGF1
 868              		.section	.text.wc_MGF,"ax",%progbits
 869              		.align	2
 870              		.code	16
 871              		.thumb_func
 872              		.type	wc_MGF, %function
 873              	wc_MGF:
 874              	.LFB15:
 324:..\kronos-c-sdk\src\wolfSSL\wolfcrypt\src/rsa.c ****     int ret;
 875              		.loc 1 324 0
 876              		.cfi_startproc
 877              	.LVL134:
 878 0000 00B5     		push	{lr}
 879              		.cfi_def_cfa_offset 4
 880              		.cfi_offset 14, -4
 881 0002 83B0     		sub	sp, sp, #12
 882              		.cfi_def_cfa_offset 16
 327:..\kronos-c-sdk\src\wolfSSL\wolfcrypt\src/rsa.c ****         #ifndef NO_SHA
 883              		.loc 1 327 0
ARM GAS  C:\Users\ddemidov\AppData\Local\Temp\ccr947bU.s 			page 33


 884 0004 0128     		cmp	r0, #1
 885 0006 07D0     		beq	.L71
 886 0008 1A28     		cmp	r0, #26
 887 000a 0BD1     		bne	.L74
 330:..\kronos-c-sdk\src\wolfSSL\wolfcrypt\src/rsa.c ****                 break;
 888              		.loc 1 330 0
 889 000c 0498     		ldr	r0, [sp, #16]
 890              	.LVL135:
 891 000e 0090     		str	r0, [sp]
 892 0010 0420     		mov	r0, #4
 893 0012 FFF7FEFF 		bl	wc_MGF1
 894              	.LVL136:
 331:..\kronos-c-sdk\src\wolfSSL\wolfcrypt\src/rsa.c ****         #endif
 895              		.loc 1 331 0
 896 0016 07E0     		b	.L70
 897              	.LVL137:
 898              	.L71:
 335:..\kronos-c-sdk\src\wolfSSL\wolfcrypt\src/rsa.c ****                 break;
 899              		.loc 1 335 0
 900 0018 0498     		ldr	r0, [sp, #16]
 901              	.LVL138:
 902 001a 0090     		str	r0, [sp]
 903 001c 0520     		mov	r0, #5
 904 001e FFF7FEFF 		bl	wc_MGF1
 905              	.LVL139:
 336:..\kronos-c-sdk\src\wolfSSL\wolfcrypt\src/rsa.c ****         #endif
 906              		.loc 1 336 0
 907 0022 01E0     		b	.L70
 908              	.LVL140:
 909              	.L74:
 350:..\kronos-c-sdk\src\wolfSSL\wolfcrypt\src/rsa.c ****     }
 910              		.loc 1 350 0
 911 0024 AD20     		mov	r0, #173
 912              	.LVL141:
 913 0026 4042     		neg	r0, r0
 914              	.LVL142:
 915              	.L70:
 360:..\kronos-c-sdk\src\wolfSSL\wolfcrypt\src/rsa.c **** 
 916              		.loc 1 360 0
 917 0028 03B0     		add	sp, sp, #12
 918              		@ sp needed
 919 002a 00BD     		pop	{pc}
 920              		.cfi_endproc
 921              	.LFE15:
 922              		.size	wc_MGF, .-wc_MGF
 923              		.section	.text.wc_RsaPad_OAEP,"ax",%progbits
 924              		.align	2
 925              		.code	16
 926              		.thumb_func
 927              		.type	wc_RsaPad_OAEP, %function
 928              	wc_RsaPad_OAEP:
 929              	.LFB16:
 366:..\kronos-c-sdk\src\wolfSSL\wolfcrypt\src/rsa.c ****     int ret;
 930              		.loc 1 366 0
 931              		.cfi_startproc
 932              	.LVL143:
 933 0000 F0B5     		push	{r4, r5, r6, r7, lr}
ARM GAS  C:\Users\ddemidov\AppData\Local\Temp\ccr947bU.s 			page 34


 934              		.cfi_def_cfa_offset 20
 935              		.cfi_offset 4, -20
 936              		.cfi_offset 5, -16
 937              		.cfi_offset 6, -12
 938              		.cfi_offset 7, -8
 939              		.cfi_offset 14, -4
 940 0002 5F46     		mov	r7, fp
 941 0004 5646     		mov	r6, r10
 942 0006 4D46     		mov	r5, r9
 943 0008 4446     		mov	r4, r8
 944 000a F0B4     		push	{r4, r5, r6, r7}
 945              		.cfi_def_cfa_offset 36
 946              		.cfi_offset 8, -36
 947              		.cfi_offset 9, -32
 948              		.cfi_offset 10, -28
 949              		.cfi_offset 11, -24
 950 000c 95B0     		sub	sp, sp, #84
 951              		.cfi_def_cfa_offset 120
 952 000e 20AC     		add	r4, sp, #128
 953              	.LVL144:
 954 0010 2478     		ldrb	r4, [r4]
 955              	.LVL145:
 386:..\kronos-c-sdk\src\wolfSSL\wolfcrypt\src/rsa.c ****         return BUFFER_E;
 956              		.loc 1 386 0
 957 0012 229D     		ldr	r5, [sp, #136]
 958 0014 002D     		cmp	r5, #0
 959 0016 03D1     		bne	.L76
 386:..\kronos-c-sdk\src\wolfSSL\wolfcrypt\src/rsa.c ****         return BUFFER_E;
 960              		.loc 1 386 0 is_stmt 0 discriminator 1
 961 0018 239D     		ldr	r5, [sp, #140]
 962 001a 002D     		cmp	r5, #0
 963 001c 00D0     		beq	.LCB1134
 964 001e A3E0     		b	.L89	@long jump
 965              	.LCB1134:
 966              	.L76:
 967 0020 1F1C     		mov	r7, r3
 968 0022 151C     		mov	r5, r2
 969 0024 8946     		mov	r9, r1
 970 0026 0390     		str	r0, [sp, #12]
 391:..\kronos-c-sdk\src\wolfSSL\wolfcrypt\src/rsa.c ****     if (hLen < 0) {
 971              		.loc 1 391 0 is_stmt 1
 972 0028 201C     		mov	r0, r4
 973              	.LVL146:
 974 002a FFF7FEFF 		bl	wc_HashGetDigestSize
 975              	.LVL147:
 976 002e 061E     		sub	r6, r0, #0
 977              	.LVL148:
 392:..\kronos-c-sdk\src\wolfSSL\wolfcrypt\src/rsa.c ****         return hLen;
 978              		.loc 1 392 0
 979 0030 00DA     		bge	.LCB1152
 980 0032 9CE0     		b	.L90	@long jump
 981              	.LCB1152:
 409:..\kronos-c-sdk\src\wolfSSL\wolfcrypt\src/rsa.c ****             WOLFSSL_MSG("OAEP lHash to small for digest!!");
 982              		.loc 1 409 0
 983 0034 2028     		cmp	r0, #32
 984 0036 00D9     		bls	.LCB1158
 985 0038 9AE0     		b	.L91	@long jump
ARM GAS  C:\Users\ddemidov\AppData\Local\Temp\ccr947bU.s 			page 35


 986              	.LCB1158:
 415:..\kronos-c-sdk\src\wolfSSL\wolfcrypt\src/rsa.c ****                                                   lHash, hLen)) != 0) {
 987              		.loc 1 415 0
 988 003a 0090     		str	r0, [sp]
 989 003c 201C     		mov	r0, r4
 990              	.LVL149:
 991 003e 2299     		ldr	r1, [sp, #136]
 992 0040 239A     		ldr	r2, [sp, #140]
 993 0042 0CAB     		add	r3, sp, #48
 994 0044 FFF7FEFF 		bl	wc_Hash
 995              	.LVL150:
 996 0048 0028     		cmp	r0, #0
 997 004a 00D0     		beq	.LCB1169
 998 004c A0E0     		b	.L77	@long jump
 999              	.LCB1169:
 433:..\kronos-c-sdk\src\wolfSSL\wolfcrypt\src/rsa.c ****         WOLFSSL_MSG("OAEP pad error hash to big for RSA key size");
 1000              		.loc 1 433 0
 1001 004e 731C     		add	r3, r6, #1
 1002 0050 9A46     		mov	r10, r3
 1003 0052 5B00     		lsl	r3, r3, #1
 1004 0054 BB42     		cmp	r3, r7
 1005 0056 00D9     		bls	.LCB1174
 1006 0058 8DE0     		b	.L93	@long jump
 1007              	.LCB1174:
 442:..\kronos-c-sdk\src\wolfSSL\wolfcrypt\src/rsa.c ****         WOLFSSL_MSG("OAEP pad error message too long");
 1008              		.loc 1 442 0
 1009 005a 7400     		lsl	r4, r6, #1
 1010 005c 6442     		neg	r4, r4
 1011 005e E319     		add	r3, r4, r7
 1012 0060 023B     		sub	r3, r3, #2
 1013 0062 4B45     		cmp	r3, r9
 1014 0064 00D2     		bcs	.LCB1182
 1015 0066 89E0     		b	.L94	@long jump
 1016              	.LCB1182:
 452:..\kronos-c-sdk\src\wolfSSL\wolfcrypt\src/rsa.c ****     psLen = pkcsBlockLen - inputLen - 2 * hLen - 2;
 1017              		.loc 1 452 0
 1018 0068 4B46     		mov	r3, r9
 1019 006a F81A     		sub	r0, r7, r3
 1020              	.LVL151:
 1021 006c 431E     		sub	r3, r0, #1
 1022 006e 9B46     		mov	fp, r3
 1023              	.LVL152:
 453:..\kronos-c-sdk\src\wolfSSL\wolfcrypt\src/rsa.c ****     if (pkcsBlockLen < inputLen) { /*make sure not writing over end of buffer */
 1024              		.loc 1 453 0
 1025 0070 2418     		add	r4, r4, r0
 1026 0072 023C     		sub	r4, r4, #2
 1027              	.LVL153:
 454:..\kronos-c-sdk\src\wolfSSL\wolfcrypt\src/rsa.c ****         #ifdef WOLFSSL_SMALL_STACK
 1028              		.loc 1 454 0
 1029 0074 4F45     		cmp	r7, r9
 1030 0076 00D2     		bcs	.LCB1193
 1031 0078 83E0     		b	.L95	@long jump
 1032              	.LCB1193:
 461:..\kronos-c-sdk\src\wolfSSL\wolfcrypt\src/rsa.c ****     pkcsBlock[idx--] = 0x01; /* PS and M separator */
 1033              		.loc 1 461 0
 1034 007a 2818     		add	r0, r5, r0
 1035 007c 0399     		ldr	r1, [sp, #12]
ARM GAS  C:\Users\ddemidov\AppData\Local\Temp\ccr947bU.s 			page 36


 1036 007e 4A46     		mov	r2, r9
 1037 0080 FFF7FEFF 		bl	memcpy
 1038              	.LVL154:
 462:..\kronos-c-sdk\src\wolfSSL\wolfcrypt\src/rsa.c ****     while (psLen > 0 && idx > 0) {
 1039              		.loc 1 462 0
 1040 0084 5B46     		mov	r3, fp
 1041 0086 013B     		sub	r3, r3, #1
 1042              	.LVL155:
 1043 0088 0122     		mov	r2, #1
 1044 008a 5946     		mov	r1, fp
 1045 008c 6A54     		strb	r2, [r5, r1]
 463:..\kronos-c-sdk\src\wolfSSL\wolfcrypt\src/rsa.c ****         pkcsBlock[idx--] = 0x00;
 1046              		.loc 1 463 0
 1047 008e 04E0     		b	.L78
 1048              	.L80:
 1049              	.LVL156:
 464:..\kronos-c-sdk\src\wolfSSL\wolfcrypt\src/rsa.c ****         psLen--;
 1050              		.loc 1 464 0
 1051 0090 EA18     		add	r2, r5, r3
 1052 0092 0021     		mov	r1, #0
 1053 0094 1170     		strb	r1, [r2]
 465:..\kronos-c-sdk\src\wolfSSL\wolfcrypt\src/rsa.c ****     }
 1054              		.loc 1 465 0
 1055 0096 013C     		sub	r4, r4, #1
 1056              	.LVL157:
 464:..\kronos-c-sdk\src\wolfSSL\wolfcrypt\src/rsa.c ****         psLen--;
 1057              		.loc 1 464 0
 1058 0098 013B     		sub	r3, r3, #1
 1059              	.LVL158:
 1060              	.L78:
 463:..\kronos-c-sdk\src\wolfSSL\wolfcrypt\src/rsa.c ****         pkcsBlock[idx--] = 0x00;
 1061              		.loc 1 463 0
 1062 009a 002C     		cmp	r4, #0
 1063 009c 01DD     		ble	.L79
 463:..\kronos-c-sdk\src\wolfSSL\wolfcrypt\src/rsa.c ****         pkcsBlock[idx--] = 0x00;
 1064              		.loc 1 463 0 is_stmt 0 discriminator 1
 1065 009e 002B     		cmp	r3, #0
 1066 00a0 F6D1     		bne	.L80
 1067              	.L79:
 468:..\kronos-c-sdk\src\wolfSSL\wolfcrypt\src/rsa.c ****     XMEMCPY(pkcsBlock + idx, lHash, hLen);
 1068              		.loc 1 468 0 is_stmt 1
 1069 00a2 981B     		sub	r0, r3, r6
 1070 00a4 431C     		add	r3, r0, #1
 1071              	.LVL159:
 469:..\kronos-c-sdk\src\wolfSSL\wolfcrypt\src/rsa.c **** 
 1072              		.loc 1 469 0
 1073 00a6 E818     		add	r0, r5, r3
 1074 00a8 0CA9     		add	r1, sp, #48
 1075 00aa 321C     		mov	r2, r6
 1076 00ac FFF7FEFF 		bl	memcpy
 1077              	.LVL160:
 472:..\kronos-c-sdk\src\wolfSSL\wolfcrypt\src/rsa.c ****         #ifdef WOLFSSL_SMALL_STACK
 1078              		.loc 1 472 0
 1079 00b0 1F98     		ldr	r0, [sp, #124]
 1080 00b2 04A9     		add	r1, sp, #16
 1081 00b4 321C     		mov	r2, r6
 1082 00b6 FFF7FEFF 		bl	wc_RNG_GenerateBlock
ARM GAS  C:\Users\ddemidov\AppData\Local\Temp\ccr947bU.s 			page 37


 1083              	.LVL161:
 1084 00ba 0028     		cmp	r0, #0
 1085 00bc 68D1     		bne	.L77
 481:..\kronos-c-sdk\src\wolfSSL\wolfcrypt\src/rsa.c ****     if (dbMask == NULL) {
 1086              		.loc 1 481 0
 1087 00be BB1B     		sub	r3, r7, r6
 1088 00c0 013B     		sub	r3, r3, #1
 1089 00c2 9946     		mov	r9, r3
 1090              	.LVL162:
 1091 00c4 181C     		mov	r0, r3
 1092              	.LVL163:
 1093 00c6 FFF7FEFF 		bl	wolfSSL_Malloc
 1094              	.LVL164:
 1095 00ca 8346     		mov	fp, r0
 1096              	.LVL165:
 482:..\kronos-c-sdk\src\wolfSSL\wolfcrypt\src/rsa.c ****         #ifdef WOLFSSL_SMALL_STACK
 1097              		.loc 1 482 0
 1098 00cc 0028     		cmp	r0, #0
 1099 00ce 5BD0     		beq	.L97
 489:..\kronos-c-sdk\src\wolfSSL\wolfcrypt\src/rsa.c **** 
 1100              		.loc 1 489 0
 1101 00d0 0021     		mov	r1, #0
 1102 00d2 4A46     		mov	r2, r9
 1103 00d4 FFF7FEFF 		bl	memset
 1104              	.LVL166:
 491:..\kronos-c-sdk\src\wolfSSL\wolfcrypt\src/rsa.c ****     if (ret != 0) {
 1105              		.loc 1 491 0
 1106 00d8 4B46     		mov	r3, r9
 1107 00da 0093     		str	r3, [sp]
 1108 00dc 2198     		ldr	r0, [sp, #132]
 1109 00de 04A9     		add	r1, sp, #16
 1110 00e0 321C     		mov	r2, r6
 1111 00e2 5B46     		mov	r3, fp
 1112 00e4 FFF7FEFF 		bl	wc_MGF
 1113              	.LVL167:
 1114 00e8 041E     		sub	r4, r0, #0
 1115              	.LVL168:
 492:..\kronos-c-sdk\src\wolfSSL\wolfcrypt\src/rsa.c ****         XFREE(dbMask, NULL, DYNAMIC_TYPE_RSA);
 1116              		.loc 1 492 0
 1117 00ea 07D0     		beq	.L81
 1118              	.LVL169:
 1119              	.LBB25:
 493:..\kronos-c-sdk\src\wolfSSL\wolfcrypt\src/rsa.c ****         #ifdef WOLFSSL_SMALL_STACK
 1120              		.loc 1 493 0
 1121 00ec 5B46     		mov	r3, fp
 1122 00ee 002B     		cmp	r3, #0
 1123 00f0 02D0     		beq	.L82
 493:..\kronos-c-sdk\src\wolfSSL\wolfcrypt\src/rsa.c ****         #ifdef WOLFSSL_SMALL_STACK
 1124              		.loc 1 493 0 is_stmt 0 discriminator 1
 1125 00f2 5846     		mov	r0, fp
 1126              	.LVL170:
 1127 00f4 FFF7FEFF 		bl	wolfSSL_Free
 1128              	.LVL171:
 1129              	.L82:
 1130              	.LBE25:
 498:..\kronos-c-sdk\src\wolfSSL\wolfcrypt\src/rsa.c ****     }
 1131              		.loc 1 498 0 is_stmt 1
ARM GAS  C:\Users\ddemidov\AppData\Local\Temp\ccr947bU.s 			page 38


 1132 00f8 201C     		mov	r0, r4
 1133 00fa 49E0     		b	.L77
 1134              	.LVL172:
 1135              	.L81:
 502:..\kronos-c-sdk\src\wolfSSL\wolfcrypt\src/rsa.c ****     while (idx < pkcsBlockLen && (word32)i < (pkcsBlockLen - hLen -1)) {
 1136              		.loc 1 502 0
 1137 00fc D046     		mov	r8, r10
 1138              	.LVL173:
 1139 00fe 5346     		mov	r3, r10
 501:..\kronos-c-sdk\src\wolfSSL\wolfcrypt\src/rsa.c ****     idx = hLen + 1;
 1140              		.loc 1 501 0
 1141 0100 0022     		mov	r2, #0
 503:..\kronos-c-sdk\src\wolfSSL\wolfcrypt\src/rsa.c ****         pkcsBlock[idx] = dbMask[i++] ^ pkcsBlock[idx];
 1142              		.loc 1 503 0
 1143 0102 09E0     		b	.L83
 1144              	.LVL174:
 1145              	.L85:
 504:..\kronos-c-sdk\src\wolfSSL\wolfcrypt\src/rsa.c ****         idx++;
 1146              		.loc 1 504 0
 1147 0104 0132     		add	r2, r2, #1
 1148              	.LVL175:
 1149 0106 5846     		mov	r0, fp
 1150 0108 415C     		ldrb	r1, [r0, r1]
 1151 010a 8C46     		mov	ip, r1
 1152 010c E818     		add	r0, r5, r3
 1153 010e 0178     		ldrb	r1, [r0]
 1154 0110 6446     		mov	r4, ip
 1155 0112 6140     		eor	r1, r4
 1156 0114 0170     		strb	r1, [r0]
 505:..\kronos-c-sdk\src\wolfSSL\wolfcrypt\src/rsa.c ****     }
 1157              		.loc 1 505 0
 1158 0116 0133     		add	r3, r3, #1
 1159              	.LVL176:
 1160              	.L83:
 503:..\kronos-c-sdk\src\wolfSSL\wolfcrypt\src/rsa.c ****         pkcsBlock[idx] = dbMask[i++] ^ pkcsBlock[idx];
 1161              		.loc 1 503 0
 1162 0118 BB42     		cmp	r3, r7
 1163 011a 02D2     		bcs	.L84
 503:..\kronos-c-sdk\src\wolfSSL\wolfcrypt\src/rsa.c ****         pkcsBlock[idx] = dbMask[i++] ^ pkcsBlock[idx];
 1164              		.loc 1 503 0 is_stmt 0 discriminator 1
 1165 011c 111C     		mov	r1, r2
 1166 011e 9145     		cmp	r9, r2
 1167 0120 F0D8     		bhi	.L85
 1168              	.L84:
 1169              	.LVL177:
 1170              	.LBB26:
 507:..\kronos-c-sdk\src\wolfSSL\wolfcrypt\src/rsa.c **** 
 1171              		.loc 1 507 0 is_stmt 1
 1172 0122 5B46     		mov	r3, fp
 1173              	.LVL178:
 1174 0124 002B     		cmp	r3, #0
 1175 0126 02D0     		beq	.L86
 1176              	.LVL179:
 507:..\kronos-c-sdk\src\wolfSSL\wolfcrypt\src/rsa.c **** 
 1177              		.loc 1 507 0 is_stmt 0 discriminator 1
 1178 0128 5846     		mov	r0, fp
 1179 012a FFF7FEFF 		bl	wolfSSL_Free
ARM GAS  C:\Users\ddemidov\AppData\Local\Temp\ccr947bU.s 			page 39


 1180              	.LVL180:
 1181              	.L86:
 1182              	.LBE26:
 512:..\kronos-c-sdk\src\wolfSSL\wolfcrypt\src/rsa.c ****     /* create seedMask inline */
 1183              		.loc 1 512 0 is_stmt 1
 1184 012e 0023     		mov	r3, #0
 1185 0130 2B70     		strb	r3, [r5]
 514:..\kronos-c-sdk\src\wolfSSL\wolfcrypt\src/rsa.c ****                                                    pkcsBlock + 1, hLen)) != 0) {
 1186              		.loc 1 514 0
 1187 0132 711C     		add	r1, r6, #1
 1188 0134 6918     		add	r1, r5, r1
 1189 0136 6B1C     		add	r3, r5, #1
 1190 0138 0096     		str	r6, [sp]
 1191 013a 2198     		ldr	r0, [sp, #132]
 1192 013c 4A46     		mov	r2, r9
 1193 013e FFF7FEFF 		bl	wc_MGF
 1194              	.LVL181:
 1195 0142 0028     		cmp	r0, #0
 1196 0144 24D1     		bne	.L77
 1197 0146 0123     		mov	r3, #1
 1198 0148 0022     		mov	r2, #0
 1199 014a 07E0     		b	.L87
 1200              	.LVL182:
 1201              	.L88:
 526:..\kronos-c-sdk\src\wolfSSL\wolfcrypt\src/rsa.c ****         idx++;
 1202              		.loc 1 526 0
 1203 014c E818     		add	r0, r5, r3
 1204 014e 0778     		ldrb	r7, [r0]
 1205              	.LVL183:
 1206 0150 04A9     		add	r1, sp, #16
 1207 0152 895C     		ldrb	r1, [r1, r2]
 1208 0154 7940     		eor	r1, r7
 1209 0156 0170     		strb	r1, [r0]
 527:..\kronos-c-sdk\src\wolfSSL\wolfcrypt\src/rsa.c ****     }
 1210              		.loc 1 527 0
 1211 0158 0133     		add	r3, r3, #1
 1212              	.LVL184:
 526:..\kronos-c-sdk\src\wolfSSL\wolfcrypt\src/rsa.c ****         idx++;
 1213              		.loc 1 526 0
 1214 015a 0132     		add	r2, r2, #1
 1215              	.LVL185:
 1216              	.L87:
 525:..\kronos-c-sdk\src\wolfSSL\wolfcrypt\src/rsa.c ****         pkcsBlock[idx] = pkcsBlock[idx] ^ seed[i++];
 1217              		.loc 1 525 0
 1218 015c 4345     		cmp	r3, r8
 1219 015e 16D2     		bcs	.L99
 525:..\kronos-c-sdk\src\wolfSSL\wolfcrypt\src/rsa.c ****         pkcsBlock[idx] = pkcsBlock[idx] ^ seed[i++];
 1220              		.loc 1 525 0 is_stmt 0 discriminator 1
 1221 0160 B242     		cmp	r2, r6
 1222 0162 F3DB     		blt	.L88
 536:..\kronos-c-sdk\src\wolfSSL\wolfcrypt\src/rsa.c **** }
 1223              		.loc 1 536 0 is_stmt 1
 1224 0164 0020     		mov	r0, #0
 1225 0166 13E0     		b	.L77
 1226              	.LVL186:
 1227              	.L89:
 387:..\kronos-c-sdk\src\wolfSSL\wolfcrypt\src/rsa.c ****     }
ARM GAS  C:\Users\ddemidov\AppData\Local\Temp\ccr947bU.s 			page 40


 1228              		.loc 1 387 0
 1229 0168 8420     		mov	r0, #132
 1230              	.LVL187:
 1231 016a 4042     		neg	r0, r0
 1232 016c 10E0     		b	.L77
 1233              	.LVL188:
 1234              	.L90:
 1235 016e 0FE0     		b	.L77
 1236              	.L91:
 411:..\kronos-c-sdk\src\wolfSSL\wolfcrypt\src/rsa.c ****         }
 1237              		.loc 1 411 0
 1238 0170 7D20     		mov	r0, #125
 1239              	.LVL189:
 1240 0172 4042     		neg	r0, r0
 1241 0174 0CE0     		b	.L77
 1242              	.LVL190:
 1243              	.L93:
 439:..\kronos-c-sdk\src\wolfSSL\wolfcrypt\src/rsa.c ****     }
 1244              		.loc 1 439 0
 1245 0176 AD20     		mov	r0, #173
 1246              	.LVL191:
 1247 0178 4042     		neg	r0, r0
 1248 017a 09E0     		b	.L77
 1249              	.LVL192:
 1250              	.L94:
 448:..\kronos-c-sdk\src\wolfSSL\wolfcrypt\src/rsa.c ****     }
 1251              		.loc 1 448 0
 1252 017c AD20     		mov	r0, #173
 1253              	.LVL193:
 1254 017e 4042     		neg	r0, r0
 1255 0180 06E0     		b	.L77
 1256              	.LVL194:
 1257              	.L95:
 459:..\kronos-c-sdk\src\wolfSSL\wolfcrypt\src/rsa.c ****     }
 1258              		.loc 1 459 0
 1259 0182 8420     		mov	r0, #132
 1260 0184 4042     		neg	r0, r0
 1261 0186 03E0     		b	.L77
 1262              	.LVL195:
 1263              	.L97:
 487:..\kronos-c-sdk\src\wolfSSL\wolfcrypt\src/rsa.c ****     }
 1264              		.loc 1 487 0
 1265 0188 7D20     		mov	r0, #125
 1266              	.LVL196:
 1267 018a 4042     		neg	r0, r0
 1268 018c 00E0     		b	.L77
 1269              	.LVL197:
 1270              	.L99:
 536:..\kronos-c-sdk\src\wolfSSL\wolfcrypt\src/rsa.c **** }
 1271              		.loc 1 536 0
 1272 018e 0020     		mov	r0, #0
 1273              	.LVL198:
 1274              	.L77:
 537:..\kronos-c-sdk\src\wolfSSL\wolfcrypt\src/rsa.c **** #endif /* WC_NO_RSA_OAEP */
 1275              		.loc 1 537 0
 1276 0190 15B0     		add	sp, sp, #84
 1277              		@ sp needed
ARM GAS  C:\Users\ddemidov\AppData\Local\Temp\ccr947bU.s 			page 41


 1278 0192 3CBC     		pop	{r2, r3, r4, r5}
 1279 0194 9046     		mov	r8, r2
 1280 0196 9946     		mov	r9, r3
 1281 0198 A246     		mov	r10, r4
 1282 019a AB46     		mov	fp, r5
 1283 019c F0BD     		pop	{r4, r5, r6, r7, pc}
 1284              		.cfi_endproc
 1285              	.LFE16:
 1286              		.size	wc_RsaPad_OAEP, .-wc_RsaPad_OAEP
 1287 019e C046     		.section	.text.wc_RsaPad_ex,"ax",%progbits
 1288              		.align	2
 1289              		.code	16
 1290              		.thumb_func
 1291              		.type	wc_RsaPad_ex, %function
 1292              	wc_RsaPad_ex:
 1293              	.LFB18:
 579:..\kronos-c-sdk\src\wolfSSL\wolfcrypt\src/rsa.c ****     int ret;
 1294              		.loc 1 579 0
 1295              		.cfi_startproc
 1296              	.LVL199:
 1297 0000 70B5     		push	{r4, r5, r6, lr}
 1298              		.cfi_def_cfa_offset 16
 1299              		.cfi_offset 4, -16
 1300              		.cfi_offset 5, -12
 1301              		.cfi_offset 6, -8
 1302              		.cfi_offset 14, -4
 1303 0002 86B0     		sub	sp, sp, #24
 1304              		.cfi_def_cfa_offset 40
 1305 0004 0AAC     		add	r4, sp, #40
 1306              	.LVL200:
 1307 0006 2578     		ldrb	r5, [r4]
 1308 0008 0DAC     		add	r4, sp, #52
 1309              	.LVL201:
 1310 000a 2478     		ldrb	r4, [r4]
 1311              	.LVL202:
 582:..\kronos-c-sdk\src\wolfSSL\wolfcrypt\src/rsa.c ****     {
 1312              		.loc 1 582 0
 1313 000c 0C9E     		ldr	r6, [sp, #48]
 1314 000e 002E     		cmp	r6, #0
 1315 0010 02D0     		beq	.L102
 1316 0012 012E     		cmp	r6, #1
 1317 0014 06D0     		beq	.L103
 1318 0016 12E0     		b	.L105
 1319              	.L102:
 586:..\kronos-c-sdk\src\wolfSSL\wolfcrypt\src/rsa.c ****                                                                  padValue, rng);
 1320              		.loc 1 586 0
 1321 0018 0095     		str	r5, [sp]
 1322 001a 0B9C     		ldr	r4, [sp, #44]
 1323 001c 0194     		str	r4, [sp, #4]
 1324 001e FFF7FEFF 		bl	wc_RsaPad
 1325              	.LVL203:
 588:..\kronos-c-sdk\src\wolfSSL\wolfcrypt\src/rsa.c **** 
 1326              		.loc 1 588 0
 1327 0022 0EE0     		b	.L101
 1328              	.LVL204:
 1329              	.L103:
 592:..\kronos-c-sdk\src\wolfSSL\wolfcrypt\src/rsa.c ****                              padValue, rng, hType, mgf, optLabel, labelLen);
ARM GAS  C:\Users\ddemidov\AppData\Local\Temp\ccr947bU.s 			page 42


 1330              		.loc 1 592 0
 1331 0024 0095     		str	r5, [sp]
 1332 0026 0B9D     		ldr	r5, [sp, #44]
 1333 0028 0195     		str	r5, [sp, #4]
 1334 002a 0294     		str	r4, [sp, #8]
 1335 002c 0E9C     		ldr	r4, [sp, #56]
 1336 002e 0394     		str	r4, [sp, #12]
 1337 0030 0F9C     		ldr	r4, [sp, #60]
 1338 0032 0494     		str	r4, [sp, #16]
 1339 0034 109C     		ldr	r4, [sp, #64]
 1340 0036 0594     		str	r4, [sp, #20]
 1341 0038 FFF7FEFF 		bl	wc_RsaPad_OAEP
 1342              	.LVL205:
 594:..\kronos-c-sdk\src\wolfSSL\wolfcrypt\src/rsa.c **** 
 1343              		.loc 1 594 0
 1344 003c 01E0     		b	.L101
 1345              	.LVL206:
 1346              	.L105:
 598:..\kronos-c-sdk\src\wolfSSL\wolfcrypt\src/rsa.c ****     }
 1347              		.loc 1 598 0
 1348 003e C920     		mov	r0, #201
 1349              	.LVL207:
 1350 0040 4042     		neg	r0, r0
 1351              	.LVL208:
 1352              	.L101:
 609:..\kronos-c-sdk\src\wolfSSL\wolfcrypt\src/rsa.c **** 
 1353              		.loc 1 609 0
 1354 0042 06B0     		add	sp, sp, #24
 1355              		@ sp needed
 1356 0044 70BD     		pop	{r4, r5, r6, pc}
 1357              		.cfi_endproc
 1358              	.LFE18:
 1359              		.size	wc_RsaPad_ex, .-wc_RsaPad_ex
 1360 0046 C046     		.section	.text.wc_RsaUnPad_OAEP,"ax",%progbits
 1361              		.align	2
 1362              		.code	16
 1363              		.thumb_func
 1364              		.type	wc_RsaUnPad_OAEP, %function
 1365              	wc_RsaUnPad_OAEP:
 1366              	.LFB19:
 617:..\kronos-c-sdk\src\wolfSSL\wolfcrypt\src/rsa.c ****     int hLen;
 1367              		.loc 1 617 0
 1368              		.cfi_startproc
 1369              	.LVL209:
 1370 0000 F0B5     		push	{r4, r5, r6, r7, lr}
 1371              		.cfi_def_cfa_offset 20
 1372              		.cfi_offset 4, -20
 1373              		.cfi_offset 5, -16
 1374              		.cfi_offset 6, -12
 1375              		.cfi_offset 7, -8
 1376              		.cfi_offset 14, -4
 1377 0002 5F46     		mov	r7, fp
 1378 0004 5646     		mov	r6, r10
 1379 0006 4D46     		mov	r5, r9
 1380 0008 4446     		mov	r4, r8
 1381 000a F0B4     		push	{r4, r5, r6, r7}
 1382              		.cfi_def_cfa_offset 36
ARM GAS  C:\Users\ddemidov\AppData\Local\Temp\ccr947bU.s 			page 43


 1383              		.cfi_offset 8, -36
 1384              		.cfi_offset 9, -32
 1385              		.cfi_offset 10, -28
 1386              		.cfi_offset 11, -24
 1387 000c 8DB0     		sub	sp, sp, #52
 1388              		.cfi_def_cfa_offset 88
 1389 000e 041C     		mov	r4, r0
 1390 0010 8946     		mov	r9, r1
 1391 0012 0392     		str	r2, [sp, #12]
 1392 0014 0293     		str	r3, [sp, #8]
 624:..\kronos-c-sdk\src\wolfSSL\wolfcrypt\src/rsa.c ****     if ((hLen < 0) || (pkcsBlockLen < (2 * (word32)hLen + 2))) {
 1393              		.loc 1 624 0
 1394 0016 181C     		mov	r0, r3
 1395              	.LVL210:
 1396 0018 FFF7FEFF 		bl	wc_HashGetDigestSize
 1397              	.LVL211:
 1398 001c 061E     		sub	r6, r0, #0
 1399              	.LVL212:
 625:..\kronos-c-sdk\src\wolfSSL\wolfcrypt\src/rsa.c ****         return BAD_FUNC_ARG;
 1400              		.loc 1 625 0
 1401 001e 00DA     		bge	.LCB1728
 1402 0020 7EE0     		b	.L120	@long jump
 1403              	.LCB1728:
 625:..\kronos-c-sdk\src\wolfSSL\wolfcrypt\src/rsa.c ****         return BAD_FUNC_ARG;
 1404              		.loc 1 625 0 is_stmt 0 discriminator 1
 1405 0022 8046     		mov	r8, r0
 1406 0024 431C     		add	r3, r0, #1
 1407 0026 9A46     		mov	r10, r3
 1408 0028 5B00     		lsl	r3, r3, #1
 1409 002a 4B45     		cmp	r3, r9
 1410 002c 7BD8     		bhi	.L121
 629:..\kronos-c-sdk\src\wolfSSL\wolfcrypt\src/rsa.c ****     if (tmp == NULL) {
 1411              		.loc 1 629 0 is_stmt 1
 1412 002e 4846     		mov	r0, r9
 1413              	.LVL213:
 1414 0030 FFF7FEFF 		bl	wolfSSL_Malloc
 1415              	.LVL214:
 1416 0034 051E     		sub	r5, r0, #0
 1417              	.LVL215:
 630:..\kronos-c-sdk\src\wolfSSL\wolfcrypt\src/rsa.c ****         return MEMORY_E;
 1418              		.loc 1 630 0
 1419 0036 79D0     		beq	.L122
 633:..\kronos-c-sdk\src\wolfSSL\wolfcrypt\src/rsa.c **** 
 1420              		.loc 1 633 0
 1421 0038 0021     		mov	r1, #0
 1422 003a 4A46     		mov	r2, r9
 1423 003c FFF7FEFF 		bl	memset
 1424              	.LVL216:
 636:..\kronos-c-sdk\src\wolfSSL\wolfcrypt\src/rsa.c ****                                     pkcsBlockLen - hLen - 1, tmp, hLen)) != 0) {
 1425              		.loc 1 636 0
 1426 0040 5346     		mov	r3, r10
 1427 0042 E118     		add	r1, r4, r3
 637:..\kronos-c-sdk\src\wolfSSL\wolfcrypt\src/rsa.c ****         XFREE(tmp, NULL, DYNAMIC_TYPE_TMP_BUFFER);
 1428              		.loc 1 637 0
 1429 0044 4B46     		mov	r3, r9
 1430 0046 9B1B     		sub	r3, r3, r6
 636:..\kronos-c-sdk\src\wolfSSL\wolfcrypt\src/rsa.c ****                                     pkcsBlockLen - hLen - 1, tmp, hLen)) != 0) {
ARM GAS  C:\Users\ddemidov\AppData\Local\Temp\ccr947bU.s 			page 44


 1431              		.loc 1 636 0
 1432 0048 013B     		sub	r3, r3, #1
 1433 004a 9B46     		mov	fp, r3
 1434 004c 0096     		str	r6, [sp]
 1435 004e 1698     		ldr	r0, [sp, #88]
 1436 0050 1A1C     		mov	r2, r3
 1437 0052 2B1C     		mov	r3, r5
 1438 0054 FFF7FEFF 		bl	wc_MGF
 1439              	.LVL217:
 1440 0058 071E     		sub	r7, r0, #0
 1441              	.LVL218:
 1442 005a 0DD0     		beq	.L123
 1443              	.LVL219:
 1444              	.LBB27:
 638:..\kronos-c-sdk\src\wolfSSL\wolfcrypt\src/rsa.c ****         return ret;
 1445              		.loc 1 638 0
 1446 005c 002D     		cmp	r5, #0
 1447 005e 02D0     		beq	.L109
 638:..\kronos-c-sdk\src\wolfSSL\wolfcrypt\src/rsa.c ****         return ret;
 1448              		.loc 1 638 0 is_stmt 0 discriminator 1
 1449 0060 281C     		mov	r0, r5
 1450              	.LVL220:
 1451 0062 FFF7FEFF 		bl	wolfSSL_Free
 1452              	.LVL221:
 1453              	.L109:
 1454              	.LBE27:
 639:..\kronos-c-sdk\src\wolfSSL\wolfcrypt\src/rsa.c ****     }
 1455              		.loc 1 639 0 is_stmt 1
 1456 0066 381C     		mov	r0, r7
 1457 0068 65E0     		b	.L107
 1458              	.LVL222:
 1459              	.L110:
 644:..\kronos-c-sdk\src\wolfSSL\wolfcrypt\src/rsa.c ****     }
 1460              		.loc 1 644 0 discriminator 3
 1461 006a E918     		add	r1, r5, r3
 1462 006c 0878     		ldrb	r0, [r1]
 1463 006e 0133     		add	r3, r3, #1
 1464              	.LVL223:
 1465 0070 E25C     		ldrb	r2, [r4, r3]
 1466 0072 4240     		eor	r2, r0
 1467 0074 0A70     		strb	r2, [r1]
 1468              	.LVL224:
 1469 0076 00E0     		b	.L108
 1470              	.LVL225:
 1471              	.L123:
 1472 0078 0023     		mov	r3, #0
 1473              	.LVL226:
 1474              	.L108:
 643:..\kronos-c-sdk\src\wolfSSL\wolfcrypt\src/rsa.c ****         tmp[idx] = tmp[idx] ^ pkcsBlock[1 + idx];
 1475              		.loc 1 643 0 discriminator 1
 1476 007a 4345     		cmp	r3, r8
 1477 007c F5D3     		bcc	.L110
 648:..\kronos-c-sdk\src\wolfSSL\wolfcrypt\src/rsa.c ****                                                pkcsBlockLen - hLen - 1)) != 0) {
 1478              		.loc 1 648 0
 1479 007e AB19     		add	r3, r5, r6
 1480              	.LVL227:
 1481 0080 5A46     		mov	r2, fp
ARM GAS  C:\Users\ddemidov\AppData\Local\Temp\ccr947bU.s 			page 45


 1482 0082 0092     		str	r2, [sp]
 1483 0084 1698     		ldr	r0, [sp, #88]
 1484 0086 291C     		mov	r1, r5
 1485 0088 321C     		mov	r2, r6
 1486 008a FFF7FEFF 		bl	wc_MGF
 1487              	.LVL228:
 1488 008e 071E     		sub	r7, r0, #0
 1489              	.LVL229:
 1490 0090 10D0     		beq	.L124
 1491              	.LVL230:
 1492              	.LBB28:
 650:..\kronos-c-sdk\src\wolfSSL\wolfcrypt\src/rsa.c ****         return ret;
 1493              		.loc 1 650 0
 1494 0092 002D     		cmp	r5, #0
 1495 0094 02D0     		beq	.L112
 650:..\kronos-c-sdk\src\wolfSSL\wolfcrypt\src/rsa.c ****         return ret;
 1496              		.loc 1 650 0 is_stmt 0 discriminator 1
 1497 0096 281C     		mov	r0, r5
 1498              	.LVL231:
 1499 0098 FFF7FEFF 		bl	wolfSSL_Free
 1500              	.LVL232:
 1501              	.L112:
 1502              	.LBE28:
 651:..\kronos-c-sdk\src\wolfSSL\wolfcrypt\src/rsa.c ****     }
 1503              		.loc 1 651 0 is_stmt 1
 1504 009c 381C     		mov	r0, r7
 1505 009e 4AE0     		b	.L107
 1506              	.LVL233:
 1507              	.L113:
 656:..\kronos-c-sdk\src\wolfSSL\wolfcrypt\src/rsa.c ****     }
 1508              		.loc 1 656 0 discriminator 3
 1509 00a0 4346     		mov	r3, r8
 1510 00a2 D018     		add	r0, r2, r3
 1511 00a4 431C     		add	r3, r0, #1
 1512 00a6 E318     		add	r3, r4, r3
 1513 00a8 1F78     		ldrb	r7, [r3]
 1514 00aa 295C     		ldrb	r1, [r5, r0]
 1515 00ac 7940     		eor	r1, r7
 1516 00ae 1970     		strb	r1, [r3]
 655:..\kronos-c-sdk\src\wolfSSL\wolfcrypt\src/rsa.c ****         pkcsBlock[hLen + 1 + idx] = pkcsBlock[hLen + 1 + idx] ^ tmp[idx + hLen];
 1517              		.loc 1 655 0 discriminator 3
 1518 00b0 0132     		add	r2, r2, #1
 1519              	.LVL234:
 1520 00b2 00E0     		b	.L111
 1521              	.LVL235:
 1522              	.L124:
 1523 00b4 0022     		mov	r2, #0
 1524              	.LVL236:
 1525              	.L111:
 655:..\kronos-c-sdk\src\wolfSSL\wolfcrypt\src/rsa.c ****         pkcsBlock[hLen + 1 + idx] = pkcsBlock[hLen + 1 + idx] ^ tmp[idx + hLen];
 1526              		.loc 1 655 0 is_stmt 0 discriminator 1
 1527 00b6 5A45     		cmp	r2, fp
 1528 00b8 F2D3     		bcc	.L113
 1529              	.LVL237:
 1530              	.LBB29:
 660:..\kronos-c-sdk\src\wolfSSL\wolfcrypt\src/rsa.c **** 
 1531              		.loc 1 660 0 is_stmt 1
ARM GAS  C:\Users\ddemidov\AppData\Local\Temp\ccr947bU.s 			page 46


 1532 00ba 002D     		cmp	r5, #0
 1533 00bc 02D0     		beq	.L114
 660:..\kronos-c-sdk\src\wolfSSL\wolfcrypt\src/rsa.c **** 
 1534              		.loc 1 660 0 is_stmt 0 discriminator 1
 1535 00be 281C     		mov	r0, r5
 1536 00c0 FFF7FEFF 		bl	wolfSSL_Free
 1537              	.LVL238:
 1538              	.L114:
 1539              	.LBE29:
 663:..\kronos-c-sdk\src\wolfSSL\wolfcrypt\src/rsa.c ****     while (idx < pkcsBlockLen && pkcsBlock[idx] == 0) {idx++;}
 1540              		.loc 1 663 0 is_stmt 1
 1541 00c4 7500     		lsl	r5, r6, #1
 1542              	.LVL239:
 1543 00c6 0235     		add	r5, r5, #2
 1544              	.LVL240:
 664:..\kronos-c-sdk\src\wolfSSL\wolfcrypt\src/rsa.c **** 
 1545              		.loc 1 664 0
 1546 00c8 00E0     		b	.L115
 1547              	.L117:
 664:..\kronos-c-sdk\src\wolfSSL\wolfcrypt\src/rsa.c **** 
 1548              		.loc 1 664 0 is_stmt 0 discriminator 3
 1549 00ca 0135     		add	r5, r5, #1
 1550              	.LVL241:
 1551              	.L115:
 664:..\kronos-c-sdk\src\wolfSSL\wolfcrypt\src/rsa.c **** 
 1552              		.loc 1 664 0 discriminator 1
 1553 00cc 4D45     		cmp	r5, r9
 1554 00ce 02D2     		bcs	.L116
 664:..\kronos-c-sdk\src\wolfSSL\wolfcrypt\src/rsa.c **** 
 1555              		.loc 1 664 0 discriminator 2
 1556 00d0 635D     		ldrb	r3, [r4, r5]
 1557 00d2 002B     		cmp	r3, #0
 1558 00d4 F9D0     		beq	.L117
 1559              	.L116:
 667:..\kronos-c-sdk\src\wolfSSL\wolfcrypt\src/rsa.c ****         return ret;
 1560              		.loc 1 667 0 is_stmt 1
 1561 00d6 0096     		str	r6, [sp]
 1562 00d8 0298     		ldr	r0, [sp, #8]
 1563 00da 1799     		ldr	r1, [sp, #92]
 1564 00dc 189A     		ldr	r2, [sp, #96]
 1565 00de 04AB     		add	r3, sp, #16
 1566 00e0 FFF7FEFF 		bl	wc_Hash
 1567              	.LVL242:
 1568 00e4 0028     		cmp	r0, #0
 1569 00e6 26D1     		bne	.L107
 1570 00e8 0021     		mov	r1, #0
 1571 00ea 0023     		mov	r3, #0
 1572 00ec 07E0     		b	.L118
 1573              	.LVL243:
 1574              	.L119:
 1575              	.LBB30:
 1576              	.LBB31:
 1577              		.file 2 "..\\kronos-c-sdk\\src\\wolfSSL/wolfcrypt/src/misc.c"
   1:..\kronos-c-sdk\src\wolfSSL\wolfcrypt\src/misc.c **** /* misc.c
   2:..\kronos-c-sdk\src\wolfSSL\wolfcrypt\src/misc.c ****  *
   3:..\kronos-c-sdk\src\wolfSSL\wolfcrypt\src/misc.c ****  * Copyright (C) 2006-2016 wolfSSL Inc.
   4:..\kronos-c-sdk\src\wolfSSL\wolfcrypt\src/misc.c ****  *
ARM GAS  C:\Users\ddemidov\AppData\Local\Temp\ccr947bU.s 			page 47


   5:..\kronos-c-sdk\src\wolfSSL\wolfcrypt\src/misc.c ****  * This file is part of wolfSSL.
   6:..\kronos-c-sdk\src\wolfSSL\wolfcrypt\src/misc.c ****  *
   7:..\kronos-c-sdk\src\wolfSSL\wolfcrypt\src/misc.c ****  * wolfSSL is free software; you can redistribute it and/or modify
   8:..\kronos-c-sdk\src\wolfSSL\wolfcrypt\src/misc.c ****  * it under the terms of the GNU General Public License as published by
   9:..\kronos-c-sdk\src\wolfSSL\wolfcrypt\src/misc.c ****  * the Free Software Foundation; either version 2 of the License, or
  10:..\kronos-c-sdk\src\wolfSSL\wolfcrypt\src/misc.c ****  * (at your option) any later version.
  11:..\kronos-c-sdk\src\wolfSSL\wolfcrypt\src/misc.c ****  *
  12:..\kronos-c-sdk\src\wolfSSL\wolfcrypt\src/misc.c ****  * wolfSSL is distributed in the hope that it will be useful,
  13:..\kronos-c-sdk\src\wolfSSL\wolfcrypt\src/misc.c ****  * but WITHOUT ANY WARRANTY; without even the implied warranty of
  14:..\kronos-c-sdk\src\wolfSSL\wolfcrypt\src/misc.c ****  * MERCHANTABILITY or FITNESS FOR A PARTICULAR PURPOSE.  See the
  15:..\kronos-c-sdk\src\wolfSSL\wolfcrypt\src/misc.c ****  * GNU General Public License for more details.
  16:..\kronos-c-sdk\src\wolfSSL\wolfcrypt\src/misc.c ****  *
  17:..\kronos-c-sdk\src\wolfSSL\wolfcrypt\src/misc.c ****  * You should have received a copy of the GNU General Public License
  18:..\kronos-c-sdk\src\wolfSSL\wolfcrypt\src/misc.c ****  * along with this program; if not, write to the Free Software
  19:..\kronos-c-sdk\src\wolfSSL\wolfcrypt\src/misc.c ****  * Foundation, Inc., 51 Franklin Street, Fifth Floor, Boston, MA 02110-1335, USA
  20:..\kronos-c-sdk\src\wolfSSL\wolfcrypt\src/misc.c ****  */
  21:..\kronos-c-sdk\src\wolfSSL\wolfcrypt\src/misc.c **** 
  22:..\kronos-c-sdk\src\wolfSSL\wolfcrypt\src/misc.c **** 
  23:..\kronos-c-sdk\src\wolfSSL\wolfcrypt\src/misc.c **** #ifdef HAVE_CONFIG_H
  24:..\kronos-c-sdk\src\wolfSSL\wolfcrypt\src/misc.c ****     #include <config.h>
  25:..\kronos-c-sdk\src\wolfSSL\wolfcrypt\src/misc.c **** #endif
  26:..\kronos-c-sdk\src\wolfSSL\wolfcrypt\src/misc.c **** 
  27:..\kronos-c-sdk\src\wolfSSL\wolfcrypt\src/misc.c **** #include <wolfssl/wolfcrypt/settings.h>
  28:..\kronos-c-sdk\src\wolfSSL\wolfcrypt\src/misc.c **** 
  29:..\kronos-c-sdk\src\wolfSSL\wolfcrypt\src/misc.c **** #ifndef WOLF_CRYPT_MISC_C
  30:..\kronos-c-sdk\src\wolfSSL\wolfcrypt\src/misc.c **** #define WOLF_CRYPT_MISC_C
  31:..\kronos-c-sdk\src\wolfSSL\wolfcrypt\src/misc.c **** 
  32:..\kronos-c-sdk\src\wolfSSL\wolfcrypt\src/misc.c **** #include <wolfssl/wolfcrypt/misc.h>
  33:..\kronos-c-sdk\src\wolfSSL\wolfcrypt\src/misc.c **** 
  34:..\kronos-c-sdk\src\wolfSSL\wolfcrypt\src/misc.c **** /* inlining these functions is a huge speed increase and a small size decrease, 
  35:..\kronos-c-sdk\src\wolfSSL\wolfcrypt\src/misc.c ****    because the functions are smaller than function call setup/cleanup, e.g.,
  36:..\kronos-c-sdk\src\wolfSSL\wolfcrypt\src/misc.c ****    md5 benchmark is twice as fast with inline.  If you don't want it, then
  37:..\kronos-c-sdk\src\wolfSSL\wolfcrypt\src/misc.c ****    define NO_INLINE and compile this file into wolfssl, otherwise it's used as
  38:..\kronos-c-sdk\src\wolfSSL\wolfcrypt\src/misc.c ****    a source header
  39:..\kronos-c-sdk\src\wolfSSL\wolfcrypt\src/misc.c ****  */
  40:..\kronos-c-sdk\src\wolfSSL\wolfcrypt\src/misc.c **** 
  41:..\kronos-c-sdk\src\wolfSSL\wolfcrypt\src/misc.c **** #ifdef NO_INLINE
  42:..\kronos-c-sdk\src\wolfSSL\wolfcrypt\src/misc.c ****     #define STATIC
  43:..\kronos-c-sdk\src\wolfSSL\wolfcrypt\src/misc.c **** #else
  44:..\kronos-c-sdk\src\wolfSSL\wolfcrypt\src/misc.c ****     #define STATIC static
  45:..\kronos-c-sdk\src\wolfSSL\wolfcrypt\src/misc.c **** #endif
  46:..\kronos-c-sdk\src\wolfSSL\wolfcrypt\src/misc.c **** 
  47:..\kronos-c-sdk\src\wolfSSL\wolfcrypt\src/misc.c **** 
  48:..\kronos-c-sdk\src\wolfSSL\wolfcrypt\src/misc.c **** #ifdef INTEL_INTRINSICS
  49:..\kronos-c-sdk\src\wolfSSL\wolfcrypt\src/misc.c **** 
  50:..\kronos-c-sdk\src\wolfSSL\wolfcrypt\src/misc.c ****     #include <stdlib.h>      /* get intrinsic definitions */
  51:..\kronos-c-sdk\src\wolfSSL\wolfcrypt\src/misc.c **** 
  52:..\kronos-c-sdk\src\wolfSSL\wolfcrypt\src/misc.c ****     /* for non visual studio probably need no long version, 32 bit only
  53:..\kronos-c-sdk\src\wolfSSL\wolfcrypt\src/misc.c ****      * i.e., _rotl and _rotr */
  54:..\kronos-c-sdk\src\wolfSSL\wolfcrypt\src/misc.c ****     #pragma intrinsic(_lrotl, _lrotr)
  55:..\kronos-c-sdk\src\wolfSSL\wolfcrypt\src/misc.c **** 
  56:..\kronos-c-sdk\src\wolfSSL\wolfcrypt\src/misc.c ****     STATIC INLINE word32 rotlFixed(word32 x, word32 y)
  57:..\kronos-c-sdk\src\wolfSSL\wolfcrypt\src/misc.c ****     {
  58:..\kronos-c-sdk\src\wolfSSL\wolfcrypt\src/misc.c ****         return y ? _lrotl(x, y) : x;
  59:..\kronos-c-sdk\src\wolfSSL\wolfcrypt\src/misc.c ****     }
  60:..\kronos-c-sdk\src\wolfSSL\wolfcrypt\src/misc.c **** 
  61:..\kronos-c-sdk\src\wolfSSL\wolfcrypt\src/misc.c ****     STATIC INLINE word32 rotrFixed(word32 x, word32 y)
ARM GAS  C:\Users\ddemidov\AppData\Local\Temp\ccr947bU.s 			page 48


  62:..\kronos-c-sdk\src\wolfSSL\wolfcrypt\src/misc.c ****     {
  63:..\kronos-c-sdk\src\wolfSSL\wolfcrypt\src/misc.c ****         return y ? _lrotr(x, y) : x;
  64:..\kronos-c-sdk\src\wolfSSL\wolfcrypt\src/misc.c ****     }
  65:..\kronos-c-sdk\src\wolfSSL\wolfcrypt\src/misc.c **** 
  66:..\kronos-c-sdk\src\wolfSSL\wolfcrypt\src/misc.c **** #else /* generic */
  67:..\kronos-c-sdk\src\wolfSSL\wolfcrypt\src/misc.c **** 
  68:..\kronos-c-sdk\src\wolfSSL\wolfcrypt\src/misc.c ****     STATIC INLINE word32 rotlFixed(word32 x, word32 y)
  69:..\kronos-c-sdk\src\wolfSSL\wolfcrypt\src/misc.c ****     {
  70:..\kronos-c-sdk\src\wolfSSL\wolfcrypt\src/misc.c ****         return (x << y) | (x >> (sizeof(y) * 8 - y));
  71:..\kronos-c-sdk\src\wolfSSL\wolfcrypt\src/misc.c ****     }   
  72:..\kronos-c-sdk\src\wolfSSL\wolfcrypt\src/misc.c **** 
  73:..\kronos-c-sdk\src\wolfSSL\wolfcrypt\src/misc.c **** 
  74:..\kronos-c-sdk\src\wolfSSL\wolfcrypt\src/misc.c ****     STATIC INLINE word32 rotrFixed(word32 x, word32 y)
  75:..\kronos-c-sdk\src\wolfSSL\wolfcrypt\src/misc.c ****     {
  76:..\kronos-c-sdk\src\wolfSSL\wolfcrypt\src/misc.c ****         return (x >> y) | (x << (sizeof(y) * 8 - y));
  77:..\kronos-c-sdk\src\wolfSSL\wolfcrypt\src/misc.c ****     }
  78:..\kronos-c-sdk\src\wolfSSL\wolfcrypt\src/misc.c **** 
  79:..\kronos-c-sdk\src\wolfSSL\wolfcrypt\src/misc.c **** #endif
  80:..\kronos-c-sdk\src\wolfSSL\wolfcrypt\src/misc.c **** 
  81:..\kronos-c-sdk\src\wolfSSL\wolfcrypt\src/misc.c **** 
  82:..\kronos-c-sdk\src\wolfSSL\wolfcrypt\src/misc.c **** STATIC INLINE word32 ByteReverseWord32(word32 value)
  83:..\kronos-c-sdk\src\wolfSSL\wolfcrypt\src/misc.c **** {
  84:..\kronos-c-sdk\src\wolfSSL\wolfcrypt\src/misc.c **** #ifdef PPC_INTRINSICS
  85:..\kronos-c-sdk\src\wolfSSL\wolfcrypt\src/misc.c ****     /* PPC: load reverse indexed instruction */
  86:..\kronos-c-sdk\src\wolfSSL\wolfcrypt\src/misc.c ****     return (word32)__lwbrx(&value,0);
  87:..\kronos-c-sdk\src\wolfSSL\wolfcrypt\src/misc.c **** #elif defined(KEIL_INTRINSICS)
  88:..\kronos-c-sdk\src\wolfSSL\wolfcrypt\src/misc.c ****     return (word32)__rev(value);
  89:..\kronos-c-sdk\src\wolfSSL\wolfcrypt\src/misc.c **** #elif defined(FAST_ROTATE)
  90:..\kronos-c-sdk\src\wolfSSL\wolfcrypt\src/misc.c ****     /* 5 instructions with rotate instruction, 9 without */
  91:..\kronos-c-sdk\src\wolfSSL\wolfcrypt\src/misc.c ****     return (rotrFixed(value, 8U) & 0xff00ff00) |
  92:..\kronos-c-sdk\src\wolfSSL\wolfcrypt\src/misc.c ****            (rotlFixed(value, 8U) & 0x00ff00ff);
  93:..\kronos-c-sdk\src\wolfSSL\wolfcrypt\src/misc.c **** #else
  94:..\kronos-c-sdk\src\wolfSSL\wolfcrypt\src/misc.c ****     /* 6 instructions with rotate instruction, 8 without */
  95:..\kronos-c-sdk\src\wolfSSL\wolfcrypt\src/misc.c ****     value = ((value & 0xFF00FF00) >> 8) | ((value & 0x00FF00FF) << 8);
  96:..\kronos-c-sdk\src\wolfSSL\wolfcrypt\src/misc.c ****     return rotlFixed(value, 16U);
  97:..\kronos-c-sdk\src\wolfSSL\wolfcrypt\src/misc.c **** #endif
  98:..\kronos-c-sdk\src\wolfSSL\wolfcrypt\src/misc.c **** }
  99:..\kronos-c-sdk\src\wolfSSL\wolfcrypt\src/misc.c **** 
 100:..\kronos-c-sdk\src\wolfSSL\wolfcrypt\src/misc.c **** 
 101:..\kronos-c-sdk\src\wolfSSL\wolfcrypt\src/misc.c **** STATIC INLINE void ByteReverseWords(word32* out, const word32* in,
 102:..\kronos-c-sdk\src\wolfSSL\wolfcrypt\src/misc.c ****                                     word32 byteCount)
 103:..\kronos-c-sdk\src\wolfSSL\wolfcrypt\src/misc.c **** {
 104:..\kronos-c-sdk\src\wolfSSL\wolfcrypt\src/misc.c ****     word32 count = byteCount/(word32)sizeof(word32), i;
 105:..\kronos-c-sdk\src\wolfSSL\wolfcrypt\src/misc.c **** 
 106:..\kronos-c-sdk\src\wolfSSL\wolfcrypt\src/misc.c ****     for (i = 0; i < count; i++)
 107:..\kronos-c-sdk\src\wolfSSL\wolfcrypt\src/misc.c ****         out[i] = ByteReverseWord32(in[i]);
 108:..\kronos-c-sdk\src\wolfSSL\wolfcrypt\src/misc.c **** 
 109:..\kronos-c-sdk\src\wolfSSL\wolfcrypt\src/misc.c **** }
 110:..\kronos-c-sdk\src\wolfSSL\wolfcrypt\src/misc.c **** 
 111:..\kronos-c-sdk\src\wolfSSL\wolfcrypt\src/misc.c **** 
 112:..\kronos-c-sdk\src\wolfSSL\wolfcrypt\src/misc.c **** #ifdef WORD64_AVAILABLE
 113:..\kronos-c-sdk\src\wolfSSL\wolfcrypt\src/misc.c **** 
 114:..\kronos-c-sdk\src\wolfSSL\wolfcrypt\src/misc.c **** 
 115:..\kronos-c-sdk\src\wolfSSL\wolfcrypt\src/misc.c **** STATIC INLINE word64 rotlFixed64(word64 x, word64 y)
 116:..\kronos-c-sdk\src\wolfSSL\wolfcrypt\src/misc.c **** {
 117:..\kronos-c-sdk\src\wolfSSL\wolfcrypt\src/misc.c ****     return (x << y) | (x >> (sizeof(y) * 8 - y));
 118:..\kronos-c-sdk\src\wolfSSL\wolfcrypt\src/misc.c **** }  
ARM GAS  C:\Users\ddemidov\AppData\Local\Temp\ccr947bU.s 			page 49


 119:..\kronos-c-sdk\src\wolfSSL\wolfcrypt\src/misc.c **** 
 120:..\kronos-c-sdk\src\wolfSSL\wolfcrypt\src/misc.c **** 
 121:..\kronos-c-sdk\src\wolfSSL\wolfcrypt\src/misc.c **** STATIC INLINE word64 rotrFixed64(word64 x, word64 y)
 122:..\kronos-c-sdk\src\wolfSSL\wolfcrypt\src/misc.c **** {
 123:..\kronos-c-sdk\src\wolfSSL\wolfcrypt\src/misc.c ****     return (x >> y) | (x << (sizeof(y) * 8 - y));
 124:..\kronos-c-sdk\src\wolfSSL\wolfcrypt\src/misc.c **** }
 125:..\kronos-c-sdk\src\wolfSSL\wolfcrypt\src/misc.c **** 
 126:..\kronos-c-sdk\src\wolfSSL\wolfcrypt\src/misc.c **** 
 127:..\kronos-c-sdk\src\wolfSSL\wolfcrypt\src/misc.c **** STATIC INLINE word64 ByteReverseWord64(word64 value)
 128:..\kronos-c-sdk\src\wolfSSL\wolfcrypt\src/misc.c **** {
 129:..\kronos-c-sdk\src\wolfSSL\wolfcrypt\src/misc.c **** #ifdef WOLFCRYPT_SLOW_WORD64
 130:..\kronos-c-sdk\src\wolfSSL\wolfcrypt\src/misc.c **** 	return (word64)(ByteReverseWord32((word32)value)) << 32 | 
 131:..\kronos-c-sdk\src\wolfSSL\wolfcrypt\src/misc.c ****                     ByteReverseWord32((word32)(value>>32));
 132:..\kronos-c-sdk\src\wolfSSL\wolfcrypt\src/misc.c **** #else
 133:..\kronos-c-sdk\src\wolfSSL\wolfcrypt\src/misc.c **** 	value = ((value & W64LIT(0xFF00FF00FF00FF00)) >> 8) |
 134:..\kronos-c-sdk\src\wolfSSL\wolfcrypt\src/misc.c ****             ((value & W64LIT(0x00FF00FF00FF00FF)) << 8);
 135:..\kronos-c-sdk\src\wolfSSL\wolfcrypt\src/misc.c **** 	value = ((value & W64LIT(0xFFFF0000FFFF0000)) >> 16) |
 136:..\kronos-c-sdk\src\wolfSSL\wolfcrypt\src/misc.c ****             ((value & W64LIT(0x0000FFFF0000FFFF)) << 16);
 137:..\kronos-c-sdk\src\wolfSSL\wolfcrypt\src/misc.c **** 	return rotlFixed64(value, 32U);
 138:..\kronos-c-sdk\src\wolfSSL\wolfcrypt\src/misc.c **** #endif
 139:..\kronos-c-sdk\src\wolfSSL\wolfcrypt\src/misc.c **** }
 140:..\kronos-c-sdk\src\wolfSSL\wolfcrypt\src/misc.c **** 
 141:..\kronos-c-sdk\src\wolfSSL\wolfcrypt\src/misc.c **** 
 142:..\kronos-c-sdk\src\wolfSSL\wolfcrypt\src/misc.c **** STATIC INLINE void ByteReverseWords64(word64* out, const word64* in,
 143:..\kronos-c-sdk\src\wolfSSL\wolfcrypt\src/misc.c ****                                       word32 byteCount)
 144:..\kronos-c-sdk\src\wolfSSL\wolfcrypt\src/misc.c **** {
 145:..\kronos-c-sdk\src\wolfSSL\wolfcrypt\src/misc.c ****     word32 count = byteCount/(word32)sizeof(word64), i;
 146:..\kronos-c-sdk\src\wolfSSL\wolfcrypt\src/misc.c **** 
 147:..\kronos-c-sdk\src\wolfSSL\wolfcrypt\src/misc.c ****     for (i = 0; i < count; i++)
 148:..\kronos-c-sdk\src\wolfSSL\wolfcrypt\src/misc.c ****         out[i] = ByteReverseWord64(in[i]);
 149:..\kronos-c-sdk\src\wolfSSL\wolfcrypt\src/misc.c **** 
 150:..\kronos-c-sdk\src\wolfSSL\wolfcrypt\src/misc.c **** }
 151:..\kronos-c-sdk\src\wolfSSL\wolfcrypt\src/misc.c **** 
 152:..\kronos-c-sdk\src\wolfSSL\wolfcrypt\src/misc.c **** #endif /* WORD64_AVAILABLE */
 153:..\kronos-c-sdk\src\wolfSSL\wolfcrypt\src/misc.c **** 
 154:..\kronos-c-sdk\src\wolfSSL\wolfcrypt\src/misc.c **** 
 155:..\kronos-c-sdk\src\wolfSSL\wolfcrypt\src/misc.c **** STATIC INLINE void XorWords(wolfssl_word* r, const wolfssl_word* a, word32 n)
 156:..\kronos-c-sdk\src\wolfSSL\wolfcrypt\src/misc.c **** {
 157:..\kronos-c-sdk\src\wolfSSL\wolfcrypt\src/misc.c ****     word32 i;
 158:..\kronos-c-sdk\src\wolfSSL\wolfcrypt\src/misc.c **** 
 159:..\kronos-c-sdk\src\wolfSSL\wolfcrypt\src/misc.c ****     for (i = 0; i < n; i++) r[i] ^= a[i];
 160:..\kronos-c-sdk\src\wolfSSL\wolfcrypt\src/misc.c **** }
 161:..\kronos-c-sdk\src\wolfSSL\wolfcrypt\src/misc.c **** 
 162:..\kronos-c-sdk\src\wolfSSL\wolfcrypt\src/misc.c **** 
 163:..\kronos-c-sdk\src\wolfSSL\wolfcrypt\src/misc.c **** STATIC INLINE void xorbuf(void* buf, const void* mask, word32 count)
 164:..\kronos-c-sdk\src\wolfSSL\wolfcrypt\src/misc.c **** {
 165:..\kronos-c-sdk\src\wolfSSL\wolfcrypt\src/misc.c ****     if (((wolfssl_word)buf | (wolfssl_word)mask | count) % WOLFSSL_WORD_SIZE == 0)
 166:..\kronos-c-sdk\src\wolfSSL\wolfcrypt\src/misc.c ****         XorWords( (wolfssl_word*)buf,
 167:..\kronos-c-sdk\src\wolfSSL\wolfcrypt\src/misc.c ****                   (const wolfssl_word*)mask, count / WOLFSSL_WORD_SIZE);
 168:..\kronos-c-sdk\src\wolfSSL\wolfcrypt\src/misc.c ****     else {
 169:..\kronos-c-sdk\src\wolfSSL\wolfcrypt\src/misc.c ****         word32 i;
 170:..\kronos-c-sdk\src\wolfSSL\wolfcrypt\src/misc.c ****         byte*       b = (byte*)buf;
 171:..\kronos-c-sdk\src\wolfSSL\wolfcrypt\src/misc.c ****         const byte* m = (const byte*)mask;
 172:..\kronos-c-sdk\src\wolfSSL\wolfcrypt\src/misc.c **** 
 173:..\kronos-c-sdk\src\wolfSSL\wolfcrypt\src/misc.c ****         for (i = 0; i < count; i++) b[i] ^= m[i];
 174:..\kronos-c-sdk\src\wolfSSL\wolfcrypt\src/misc.c ****     }
 175:..\kronos-c-sdk\src\wolfSSL\wolfcrypt\src/misc.c **** }
ARM GAS  C:\Users\ddemidov\AppData\Local\Temp\ccr947bU.s 			page 50


 176:..\kronos-c-sdk\src\wolfSSL\wolfcrypt\src/misc.c **** 
 177:..\kronos-c-sdk\src\wolfSSL\wolfcrypt\src/misc.c **** 
 178:..\kronos-c-sdk\src\wolfSSL\wolfcrypt\src/misc.c **** /* Make sure compiler doesn't skip */
 179:..\kronos-c-sdk\src\wolfSSL\wolfcrypt\src/misc.c **** STATIC INLINE void ForceZero(const void* mem, word32 len)
 180:..\kronos-c-sdk\src\wolfSSL\wolfcrypt\src/misc.c **** {
 181:..\kronos-c-sdk\src\wolfSSL\wolfcrypt\src/misc.c ****     volatile byte* z = (volatile byte*)mem;
 182:..\kronos-c-sdk\src\wolfSSL\wolfcrypt\src/misc.c **** 
 183:..\kronos-c-sdk\src\wolfSSL\wolfcrypt\src/misc.c ****     while (len--) *z++ = 0;
 184:..\kronos-c-sdk\src\wolfSSL\wolfcrypt\src/misc.c **** }
 185:..\kronos-c-sdk\src\wolfSSL\wolfcrypt\src/misc.c **** 
 186:..\kronos-c-sdk\src\wolfSSL\wolfcrypt\src/misc.c **** 
 187:..\kronos-c-sdk\src\wolfSSL\wolfcrypt\src/misc.c **** /* check all length bytes for equality, return 0 on success */
 188:..\kronos-c-sdk\src\wolfSSL\wolfcrypt\src/misc.c **** STATIC INLINE int ConstantCompare(const byte* a, const byte* b, int length)
 189:..\kronos-c-sdk\src\wolfSSL\wolfcrypt\src/misc.c **** {
 190:..\kronos-c-sdk\src\wolfSSL\wolfcrypt\src/misc.c ****     int i;
 191:..\kronos-c-sdk\src\wolfSSL\wolfcrypt\src/misc.c ****     int compareSum = 0;
 192:..\kronos-c-sdk\src\wolfSSL\wolfcrypt\src/misc.c **** 
 193:..\kronos-c-sdk\src\wolfSSL\wolfcrypt\src/misc.c ****     for (i = 0; i < length; i++) {
 194:..\kronos-c-sdk\src\wolfSSL\wolfcrypt\src/misc.c ****         compareSum |= a[i] ^ b[i];
 1578              		.loc 2 194 0
 1579 00ee 5246     		mov	r2, r10
 1580 00f0 A218     		add	r2, r4, r2
 1581 00f2 D05C     		ldrb	r0, [r2, r3]
 1582 00f4 04AA     		add	r2, sp, #16
 1583 00f6 D25C     		ldrb	r2, [r2, r3]
 1584 00f8 4240     		eor	r2, r0
 1585 00fa 1143     		orr	r1, r2
 1586              	.LVL244:
 193:..\kronos-c-sdk\src\wolfSSL\wolfcrypt\src/misc.c ****         compareSum |= a[i] ^ b[i];
 1587              		.loc 2 193 0
 1588 00fc 0133     		add	r3, r3, #1
 1589              	.LVL245:
 1590              	.L118:
 1591 00fe 9E42     		cmp	r6, r3
 1592 0100 F5DC     		bgt	.L119
 1593              	.LVL246:
 1594              	.LBE31:
 1595              	.LBE30:
 679:..\kronos-c-sdk\src\wolfSSL\wolfcrypt\src/rsa.c ****     ret += pkcsBlock[0]     ^ 0x00; /* Y, the first value, should be 0 */
 1596              		.loc 1 679 0
 1597 0102 6F1C     		add	r7, r5, #1
 1598              	.LVL247:
 1599 0104 625D     		ldrb	r2, [r4, r5]
 1600 0106 0123     		mov	r3, #1
 1601              	.LVL248:
 1602 0108 5340     		eor	r3, r2
 1603 010a 5918     		add	r1, r3, r1
 1604              	.LVL249:
 680:..\kronos-c-sdk\src\wolfSSL\wolfcrypt\src/rsa.c **** 
 1605              		.loc 1 680 0
 1606 010c 2378     		ldrb	r3, [r4]
 1607 010e 5918     		add	r1, r3, r1
 1608              	.LVL250:
 682:..\kronos-c-sdk\src\wolfSSL\wolfcrypt\src/rsa.c ****         return BAD_PADDING_E;
 1609              		.loc 1 682 0
 1610 0110 0029     		cmp	r1, #0
 1611 0112 0ED1     		bne	.L126
ARM GAS  C:\Users\ddemidov\AppData\Local\Temp\ccr947bU.s 			page 51


 687:..\kronos-c-sdk\src\wolfSSL\wolfcrypt\src/rsa.c ****     return pkcsBlockLen - idx;
 1612              		.loc 1 687 0
 1613 0114 E419     		add	r4, r4, r7
 1614              	.LVL251:
 1615 0116 039B     		ldr	r3, [sp, #12]
 1616 0118 1C60     		str	r4, [r3]
 688:..\kronos-c-sdk\src\wolfSSL\wolfcrypt\src/rsa.c **** }
 1617              		.loc 1 688 0
 1618 011a 4B46     		mov	r3, r9
 1619 011c D81B     		sub	r0, r3, r7
 1620 011e 0AE0     		b	.L107
 1621              	.LVL252:
 1622              	.L120:
 626:..\kronos-c-sdk\src\wolfSSL\wolfcrypt\src/rsa.c ****     }
 1623              		.loc 1 626 0
 1624 0120 AD20     		mov	r0, #173
 1625              	.LVL253:
 1626 0122 4042     		neg	r0, r0
 1627 0124 07E0     		b	.L107
 1628              	.LVL254:
 1629              	.L121:
 1630 0126 AD20     		mov	r0, #173
 1631              	.LVL255:
 1632 0128 4042     		neg	r0, r0
 1633 012a 04E0     		b	.L107
 1634              	.LVL256:
 1635              	.L122:
 631:..\kronos-c-sdk\src\wolfSSL\wolfcrypt\src/rsa.c ****     }
 1636              		.loc 1 631 0
 1637 012c 7D20     		mov	r0, #125
 1638              	.LVL257:
 1639 012e 4042     		neg	r0, r0
 1640 0130 01E0     		b	.L107
 1641              	.LVL258:
 1642              	.L126:
 683:..\kronos-c-sdk\src\wolfSSL\wolfcrypt\src/rsa.c ****     }
 1643              		.loc 1 683 0
 1644 0132 C120     		mov	r0, #193
 1645 0134 4042     		neg	r0, r0
 1646              	.LVL259:
 1647              	.L107:
 689:..\kronos-c-sdk\src\wolfSSL\wolfcrypt\src/rsa.c **** #endif /* WC_NO_RSA_OAEP */
 1648              		.loc 1 689 0
 1649 0136 0DB0     		add	sp, sp, #52
 1650              		@ sp needed
 1651              	.LVL260:
 1652              	.LVL261:
 1653 0138 3CBC     		pop	{r2, r3, r4, r5}
 1654 013a 9046     		mov	r8, r2
 1655 013c 9946     		mov	r9, r3
 1656 013e A246     		mov	r10, r4
 1657 0140 AB46     		mov	fp, r5
 1658 0142 F0BD     		pop	{r4, r5, r6, r7, pc}
 1659              		.cfi_endproc
 1660              	.LFE19:
 1661              		.size	wc_RsaUnPad_OAEP, .-wc_RsaUnPad_OAEP
 1662              		.section	.text.wc_RsaUnPad_ex,"ax",%progbits
ARM GAS  C:\Users\ddemidov\AppData\Local\Temp\ccr947bU.s 			page 52


 1663              		.align	2
 1664              		.code	16
 1665              		.thumb_func
 1666              		.type	wc_RsaUnPad_ex, %function
 1667              	wc_RsaUnPad_ex:
 1668              	.LFB21:
 741:..\kronos-c-sdk\src\wolfSSL\wolfcrypt\src/rsa.c ****     int ret;
 1669              		.loc 1 741 0
 1670              		.cfi_startproc
 1671              	.LVL262:
 1672 0000 30B5     		push	{r4, r5, lr}
 1673              		.cfi_def_cfa_offset 12
 1674              		.cfi_offset 4, -12
 1675              		.cfi_offset 5, -8
 1676              		.cfi_offset 14, -4
 1677 0002 85B0     		sub	sp, sp, #20
 1678              		.cfi_def_cfa_offset 32
 1679 0004 08AC     		add	r4, sp, #32
 1680              	.LVL263:
 1681 0006 20CC     		ldmia	r4!, {r5}
 1682              	.LVL264:
 1683 0008 2478     		ldrb	r4, [r4]
 1684              	.LVL265:
 744:..\kronos-c-sdk\src\wolfSSL\wolfcrypt\src/rsa.c ****     {
 1685              		.loc 1 744 0
 1686 000a 002D     		cmp	r5, #0
 1687 000c 02D0     		beq	.L129
 1688 000e 012D     		cmp	r5, #1
 1689 0010 03D0     		beq	.L130
 1690 0012 0CE0     		b	.L132
 1691              	.L129:
 748:..\kronos-c-sdk\src\wolfSSL\wolfcrypt\src/rsa.c ****             break;
 1692              		.loc 1 748 0
 1693 0014 FFF7FEFF 		bl	RsaUnPad
 1694              	.LVL266:
 749:..\kronos-c-sdk\src\wolfSSL\wolfcrypt\src/rsa.c **** 
 1695              		.loc 1 749 0
 1696 0018 0BE0     		b	.L128
 1697              	.LVL267:
 1698              	.L130:
 753:..\kronos-c-sdk\src\wolfSSL\wolfcrypt\src/rsa.c ****                                                 hType, mgf, optLabel, labelLen);
 1699              		.loc 1 753 0
 1700 001a 0A9B     		ldr	r3, [sp, #40]
 1701              	.LVL268:
 1702 001c 0093     		str	r3, [sp]
 1703 001e 0B9B     		ldr	r3, [sp, #44]
 1704 0020 0193     		str	r3, [sp, #4]
 1705 0022 0C9B     		ldr	r3, [sp, #48]
 1706 0024 0293     		str	r3, [sp, #8]
 1707 0026 231C     		mov	r3, r4
 1708 0028 FFF7FEFF 		bl	wc_RsaUnPad_OAEP
 1709              	.LVL269:
 755:..\kronos-c-sdk\src\wolfSSL\wolfcrypt\src/rsa.c **** 
 1710              		.loc 1 755 0
 1711 002c 01E0     		b	.L128
 1712              	.LVL270:
 1713              	.L132:
ARM GAS  C:\Users\ddemidov\AppData\Local\Temp\ccr947bU.s 			page 53


 759:..\kronos-c-sdk\src\wolfSSL\wolfcrypt\src/rsa.c ****     }
 1714              		.loc 1 759 0
 1715 002e C920     		mov	r0, #201
 1716              	.LVL271:
 1717 0030 4042     		neg	r0, r0
 1718              	.LVL272:
 1719              	.L128:
 770:..\kronos-c-sdk\src\wolfSSL\wolfcrypt\src/rsa.c **** #endif /* WC_NO_RSA_OAEP */
 1720              		.loc 1 770 0
 1721 0032 05B0     		add	sp, sp, #20
 1722              		@ sp needed
 1723 0034 30BD     		pop	{r4, r5, pc}
 1724              		.cfi_endproc
 1725              	.LFE21:
 1726              		.size	wc_RsaUnPad_ex, .-wc_RsaUnPad_ex
 1727 0036 C046     		.section	.text.wc_InitRsaKey,"ax",%progbits
 1728              		.align	2
 1729              		.global	wc_InitRsaKey
 1730              		.code	16
 1731              		.thumb_func
 1732              		.type	wc_InitRsaKey, %function
 1733              	wc_InitRsaKey:
 1734              	.LFB12:
 165:..\kronos-c-sdk\src\wolfSSL\wolfcrypt\src/rsa.c **** #ifdef HAVE_CAVIUM
 1735              		.loc 1 165 0
 1736              		.cfi_startproc
 1737              	.LVL273:
 171:..\kronos-c-sdk\src\wolfSSL\wolfcrypt\src/rsa.c ****     key->heap = heap;
 1738              		.loc 1 171 0
 1739 0000 0122     		mov	r2, #1
 1740 0002 5242     		neg	r2, r2
 1741 0004 8023     		mov	r3, #128
 1742 0006 C250     		str	r2, [r0, r3]
 172:..\kronos-c-sdk\src\wolfSSL\wolfcrypt\src/rsa.c **** 
 1743              		.loc 1 172 0
 1744 0008 0433     		add	r3, r3, #4
 1745 000a C150     		str	r1, [r0, r3]
 176:..\kronos-c-sdk\src\wolfSSL\wolfcrypt\src/rsa.c **** 
 1746              		.loc 1 176 0
 1747 000c 0023     		mov	r3, #0
 1748 000e C361     		str	r3, [r0, #28]
 1749 0010 C360     		str	r3, [r0, #12]
 178:..\kronos-c-sdk\src\wolfSSL\wolfcrypt\src/rsa.c ****     key->q.dp = key->dP.dp = 0;
 1750              		.loc 1 178 0
 1751 0012 C363     		str	r3, [r0, #60]
 1752 0014 C362     		str	r3, [r0, #44]
 179:..\kronos-c-sdk\src\wolfSSL\wolfcrypt\src/rsa.c ****     key->u.dp = key->dQ.dp = 0;
 1753              		.loc 1 179 0
 1754 0016 C365     		str	r3, [r0, #92]
 1755 0018 C364     		str	r3, [r0, #76]
 180:..\kronos-c-sdk\src\wolfSSL\wolfcrypt\src/rsa.c **** #else
 1756              		.loc 1 180 0
 1757 001a C366     		str	r3, [r0, #108]
 1758 001c C367     		str	r3, [r0, #124]
 193:..\kronos-c-sdk\src\wolfSSL\wolfcrypt\src/rsa.c **** 
 1759              		.loc 1 193 0
 1760 001e 0020     		mov	r0, #0
ARM GAS  C:\Users\ddemidov\AppData\Local\Temp\ccr947bU.s 			page 54


 1761              	.LVL274:
 1762              		@ sp needed
 1763 0020 7047     		bx	lr
 1764              		.cfi_endproc
 1765              	.LFE12:
 1766              		.size	wc_InitRsaKey, .-wc_InitRsaKey
 1767 0022 C046     		.section	.text.wc_FreeRsaKey,"ax",%progbits
 1768              		.align	2
 1769              		.global	wc_FreeRsaKey
 1770              		.code	16
 1771              		.thumb_func
 1772              		.type	wc_FreeRsaKey, %function
 1773              	wc_FreeRsaKey:
 1774              	.LFB13:
 197:..\kronos-c-sdk\src\wolfSSL\wolfcrypt\src/rsa.c ****     (void)key;
 1775              		.loc 1 197 0
 1776              		.cfi_startproc
 1777              	.LVL275:
 1778 0000 10B5     		push	{r4, lr}
 1779              		.cfi_def_cfa_offset 8
 1780              		.cfi_offset 4, -8
 1781              		.cfi_offset 14, -4
 200:..\kronos-c-sdk\src\wolfSSL\wolfcrypt\src/rsa.c ****         return 0;
 1782              		.loc 1 200 0
 1783 0002 0028     		cmp	r0, #0
 1784 0004 22D0     		beq	.L135
 1785 0006 041C     		mov	r4, r0
 210:..\kronos-c-sdk\src\wolfSSL\wolfcrypt\src/rsa.c ****         mp_clear(&key->u);
 1786              		.loc 1 210 0
 1787 0008 8023     		mov	r3, #128
 1788 000a C358     		ldr	r3, [r0, r3]
 1789 000c 012B     		cmp	r3, #1
 1790 000e 16D1     		bne	.L136
 211:..\kronos-c-sdk\src\wolfSSL\wolfcrypt\src/rsa.c ****         mp_clear(&key->dQ);
 1791              		.loc 1 211 0
 1792 0010 7030     		add	r0, r0, #112
 1793              	.LVL276:
 1794 0012 FFF7FEFF 		bl	mp_clear
 1795              	.LVL277:
 212:..\kronos-c-sdk\src\wolfSSL\wolfcrypt\src/rsa.c ****         mp_clear(&key->dP);
 1796              		.loc 1 212 0
 1797 0016 201C     		mov	r0, r4
 1798 0018 6030     		add	r0, r0, #96
 1799 001a FFF7FEFF 		bl	mp_clear
 1800              	.LVL278:
 213:..\kronos-c-sdk\src\wolfSSL\wolfcrypt\src/rsa.c ****         mp_clear(&key->q);
 1801              		.loc 1 213 0
 1802 001e 201C     		mov	r0, r4
 1803 0020 5030     		add	r0, r0, #80
 1804 0022 FFF7FEFF 		bl	mp_clear
 1805              	.LVL279:
 214:..\kronos-c-sdk\src\wolfSSL\wolfcrypt\src/rsa.c ****         mp_clear(&key->p);
 1806              		.loc 1 214 0
 1807 0026 201C     		mov	r0, r4
 1808 0028 4030     		add	r0, r0, #64
 1809 002a FFF7FEFF 		bl	mp_clear
 1810              	.LVL280:
ARM GAS  C:\Users\ddemidov\AppData\Local\Temp\ccr947bU.s 			page 55


 215:..\kronos-c-sdk\src\wolfSSL\wolfcrypt\src/rsa.c ****         mp_clear(&key->d);
 1811              		.loc 1 215 0
 1812 002e 201C     		mov	r0, r4
 1813 0030 3030     		add	r0, r0, #48
 1814 0032 FFF7FEFF 		bl	mp_clear
 1815              	.LVL281:
 216:..\kronos-c-sdk\src\wolfSSL\wolfcrypt\src/rsa.c ****     }
 1816              		.loc 1 216 0
 1817 0036 201C     		mov	r0, r4
 1818 0038 2030     		add	r0, r0, #32
 1819 003a FFF7FEFF 		bl	mp_clear
 1820              	.LVL282:
 1821              	.L136:
 218:..\kronos-c-sdk\src\wolfSSL\wolfcrypt\src/rsa.c ****     mp_clear(&key->n);
 1822              		.loc 1 218 0
 1823 003e 201C     		mov	r0, r4
 1824 0040 1030     		add	r0, r0, #16
 1825 0042 FFF7FEFF 		bl	mp_clear
 1826              	.LVL283:
 219:..\kronos-c-sdk\src\wolfSSL\wolfcrypt\src/rsa.c **** #else
 1827              		.loc 1 219 0
 1828 0046 201C     		mov	r0, r4
 1829 0048 FFF7FEFF 		bl	mp_clear
 1830              	.LVL284:
 1831              	.L135:
 234:..\kronos-c-sdk\src\wolfSSL\wolfcrypt\src/rsa.c **** 
 1832              		.loc 1 234 0
 1833 004c 0020     		mov	r0, #0
 1834              		@ sp needed
 1835 004e 10BD     		pop	{r4, pc}
 1836              		.cfi_endproc
 1837              	.LFE13:
 1838              		.size	wc_FreeRsaKey, .-wc_FreeRsaKey
 1839              		.section	.text.wc_RsaPublicEncrypt,"ax",%progbits
 1840              		.align	2
 1841              		.global	wc_RsaPublicEncrypt
 1842              		.code	16
 1843              		.thumb_func
 1844              		.type	wc_RsaPublicEncrypt, %function
 1845              	wc_RsaPublicEncrypt:
 1846              	.LFB23:
 868:..\kronos-c-sdk\src\wolfSSL\wolfcrypt\src/rsa.c **** 
 869:..\kronos-c-sdk\src\wolfSSL\wolfcrypt\src/rsa.c **** 
 870:..\kronos-c-sdk\src\wolfSSL\wolfcrypt\src/rsa.c **** int wc_RsaPublicEncrypt(const byte* in, word32 inLen, byte* out, word32 outLen,
 871:..\kronos-c-sdk\src\wolfSSL\wolfcrypt\src/rsa.c ****                      RsaKey* key, WC_RNG* rng)
 872:..\kronos-c-sdk\src\wolfSSL\wolfcrypt\src/rsa.c **** {
 1847              		.loc 1 872 0
 1848              		.cfi_startproc
 1849              	.LVL285:
 1850 0000 F0B5     		push	{r4, r5, r6, r7, lr}
 1851              		.cfi_def_cfa_offset 20
 1852              		.cfi_offset 4, -20
 1853              		.cfi_offset 5, -16
 1854              		.cfi_offset 6, -12
 1855              		.cfi_offset 7, -8
 1856              		.cfi_offset 14, -4
 1857 0002 85B0     		sub	sp, sp, #20
ARM GAS  C:\Users\ddemidov\AppData\Local\Temp\ccr947bU.s 			page 56


 1858              		.cfi_def_cfa_offset 40
 1859 0004 071C     		mov	r7, r0
 1860 0006 0D1C     		mov	r5, r1
 1861 0008 161C     		mov	r6, r2
 1862 000a 0393     		str	r3, [sp, #12]
 873:..\kronos-c-sdk\src\wolfSSL\wolfcrypt\src/rsa.c ****     int sz, ret;
 874:..\kronos-c-sdk\src\wolfSSL\wolfcrypt\src/rsa.c **** 
 875:..\kronos-c-sdk\src\wolfSSL\wolfcrypt\src/rsa.c **** #ifdef HAVE_CAVIUM
 876:..\kronos-c-sdk\src\wolfSSL\wolfcrypt\src/rsa.c ****     if (key->magic == WOLFSSL_RSA_CAVIUM_MAGIC)
 877:..\kronos-c-sdk\src\wolfSSL\wolfcrypt\src/rsa.c ****         return CaviumRsaPublicEncrypt(in, inLen, out, outLen, key);
 878:..\kronos-c-sdk\src\wolfSSL\wolfcrypt\src/rsa.c **** #endif
 879:..\kronos-c-sdk\src\wolfSSL\wolfcrypt\src/rsa.c **** 
 880:..\kronos-c-sdk\src\wolfSSL\wolfcrypt\src/rsa.c ****     sz = mp_unsigned_bin_size(&key->n);
 1863              		.loc 1 880 0
 1864 000c 0A98     		ldr	r0, [sp, #40]
 1865              	.LVL286:
 1866 000e FFF7FEFF 		bl	mp_unsigned_bin_size
 1867              	.LVL287:
 1868 0012 041C     		mov	r4, r0
 1869              	.LVL288:
 881:..\kronos-c-sdk\src\wolfSSL\wolfcrypt\src/rsa.c ****     if (sz > (int)outLen)
 1870              		.loc 1 881 0
 1871 0014 039B     		ldr	r3, [sp, #12]
 1872 0016 8342     		cmp	r3, r0
 1873 0018 1EDB     		blt	.L140
 882:..\kronos-c-sdk\src\wolfSSL\wolfcrypt\src/rsa.c ****         return RSA_BUFFER_E;
 883:..\kronos-c-sdk\src\wolfSSL\wolfcrypt\src/rsa.c **** 
 884:..\kronos-c-sdk\src\wolfSSL\wolfcrypt\src/rsa.c ****     if (inLen > (word32)(sz - RSA_MIN_PAD_SZ))
 1874              		.loc 1 884 0
 1875 001a 031C     		mov	r3, r0
 1876 001c 0B3B     		sub	r3, r3, #11
 1877 001e AB42     		cmp	r3, r5
 1878 0020 1DD3     		bcc	.L141
 885:..\kronos-c-sdk\src\wolfSSL\wolfcrypt\src/rsa.c ****         return RSA_BUFFER_E;
 886:..\kronos-c-sdk\src\wolfSSL\wolfcrypt\src/rsa.c **** 
 887:..\kronos-c-sdk\src\wolfSSL\wolfcrypt\src/rsa.c ****     ret = wc_RsaPad(in, inLen, out, sz, RSA_BLOCK_TYPE_2, rng);
 1879              		.loc 1 887 0
 1880 0022 0223     		mov	r3, #2
 1881 0024 0093     		str	r3, [sp]
 1882 0026 0B9B     		ldr	r3, [sp, #44]
 1883 0028 0193     		str	r3, [sp, #4]
 1884 002a 381C     		mov	r0, r7
 1885              	.LVL289:
 1886 002c 291C     		mov	r1, r5
 1887 002e 321C     		mov	r2, r6
 1888 0030 231C     		mov	r3, r4
 1889 0032 FFF7FEFF 		bl	wc_RsaPad
 1890              	.LVL290:
 888:..\kronos-c-sdk\src\wolfSSL\wolfcrypt\src/rsa.c ****     if (ret != 0)
 1891              		.loc 1 888 0
 1892 0036 0028     		cmp	r0, #0
 1893 0038 13D1     		bne	.L138
 889:..\kronos-c-sdk\src\wolfSSL\wolfcrypt\src/rsa.c ****         return ret;
 890:..\kronos-c-sdk\src\wolfSSL\wolfcrypt\src/rsa.c **** 
 891:..\kronos-c-sdk\src\wolfSSL\wolfcrypt\src/rsa.c ****     if ((ret = wc_RsaFunction(out, sz, out, &outLen,
 1894              		.loc 1 891 0
 1895 003a 0023     		mov	r3, #0
ARM GAS  C:\Users\ddemidov\AppData\Local\Temp\ccr947bU.s 			page 57


 1896 003c 0093     		str	r3, [sp]
 1897 003e 0A9B     		ldr	r3, [sp, #40]
 1898 0040 0193     		str	r3, [sp, #4]
 1899 0042 301C     		mov	r0, r6
 1900              	.LVL291:
 1901 0044 211C     		mov	r1, r4
 1902 0046 321C     		mov	r2, r6
 1903 0048 03AB     		add	r3, sp, #12
 1904              	.LVL292:
 1905 004a FFF7FEFF 		bl	wc_RsaFunction
 1906              	.LVL293:
 1907 004e 0028     		cmp	r0, #0
 1908 0050 00DA     		bge	.L139
 892:..\kronos-c-sdk\src\wolfSSL\wolfcrypt\src/rsa.c ****                               RSA_PUBLIC_ENCRYPT, key)) < 0)
 893:..\kronos-c-sdk\src\wolfSSL\wolfcrypt\src/rsa.c ****         sz = ret;
 1909              		.loc 1 893 0
 1910 0052 041C     		mov	r4, r0
 1911              	.LVL294:
 1912              	.L139:
 894:..\kronos-c-sdk\src\wolfSSL\wolfcrypt\src/rsa.c **** 
 895:..\kronos-c-sdk\src\wolfSSL\wolfcrypt\src/rsa.c ****     return sz;
 1913              		.loc 1 895 0
 1914 0054 201C     		mov	r0, r4
 1915              	.LVL295:
 1916 0056 04E0     		b	.L138
 1917              	.LVL296:
 1918              	.L140:
 882:..\kronos-c-sdk\src\wolfSSL\wolfcrypt\src/rsa.c **** 
 1919              		.loc 1 882 0
 1920 0058 8320     		mov	r0, #131
 1921              	.LVL297:
 1922 005a 4042     		neg	r0, r0
 1923 005c 01E0     		b	.L138
 1924              	.LVL298:
 1925              	.L141:
 885:..\kronos-c-sdk\src\wolfSSL\wolfcrypt\src/rsa.c **** 
 1926              		.loc 1 885 0
 1927 005e 8320     		mov	r0, #131
 1928              	.LVL299:
 1929 0060 4042     		neg	r0, r0
 1930              	.L138:
 896:..\kronos-c-sdk\src\wolfSSL\wolfcrypt\src/rsa.c **** }
 1931              		.loc 1 896 0
 1932 0062 05B0     		add	sp, sp, #20
 1933              		@ sp needed
 1934              	.LVL300:
 1935              	.LVL301:
 1936              	.LVL302:
 1937              	.LVL303:
 1938 0064 F0BD     		pop	{r4, r5, r6, r7, pc}
 1939              		.cfi_endproc
 1940              	.LFE23:
 1941              		.size	wc_RsaPublicEncrypt, .-wc_RsaPublicEncrypt
 1942 0066 C046     		.section	.text.wc_RsaPublicEncrypt_ex,"ax",%progbits
 1943              		.align	2
 1944              		.global	wc_RsaPublicEncrypt_ex
 1945              		.code	16
ARM GAS  C:\Users\ddemidov\AppData\Local\Temp\ccr947bU.s 			page 58


 1946              		.thumb_func
 1947              		.type	wc_RsaPublicEncrypt_ex, %function
 1948              	wc_RsaPublicEncrypt_ex:
 1949              	.LFB24:
 897:..\kronos-c-sdk\src\wolfSSL\wolfcrypt\src/rsa.c **** 
 898:..\kronos-c-sdk\src\wolfSSL\wolfcrypt\src/rsa.c **** 
 899:..\kronos-c-sdk\src\wolfSSL\wolfcrypt\src/rsa.c **** #ifndef WC_NO_RSA_OAEP
 900:..\kronos-c-sdk\src\wolfSSL\wolfcrypt\src/rsa.c **** /* Gives the option of choosing padding type
 901:..\kronos-c-sdk\src\wolfSSL\wolfcrypt\src/rsa.c ****    in : input to be encrypted
 902:..\kronos-c-sdk\src\wolfSSL\wolfcrypt\src/rsa.c ****    inLen: length of input buffer
 903:..\kronos-c-sdk\src\wolfSSL\wolfcrypt\src/rsa.c ****    out: encrypted output
 904:..\kronos-c-sdk\src\wolfSSL\wolfcrypt\src/rsa.c ****    outLen: length of encrypted output buffer
 905:..\kronos-c-sdk\src\wolfSSL\wolfcrypt\src/rsa.c ****    key   : wolfSSL initialized RSA key struct
 906:..\kronos-c-sdk\src\wolfSSL\wolfcrypt\src/rsa.c ****    rng   : wolfSSL initialized random number struct
 907:..\kronos-c-sdk\src\wolfSSL\wolfcrypt\src/rsa.c ****    type  : type of padding to use ie WC_RSA_OAEP_PAD
 908:..\kronos-c-sdk\src\wolfSSL\wolfcrypt\src/rsa.c ****    hash  : type of hash algorithm to use found in wolfssl/wolfcrypt/hash.h
 909:..\kronos-c-sdk\src\wolfSSL\wolfcrypt\src/rsa.c ****    mgf   : type of mask generation function to use
 910:..\kronos-c-sdk\src\wolfSSL\wolfcrypt\src/rsa.c ****    label : optional label
 911:..\kronos-c-sdk\src\wolfSSL\wolfcrypt\src/rsa.c ****    labelSz : size of optional label buffer */
 912:..\kronos-c-sdk\src\wolfSSL\wolfcrypt\src/rsa.c **** int wc_RsaPublicEncrypt_ex(const byte* in, word32 inLen, byte* out,
 913:..\kronos-c-sdk\src\wolfSSL\wolfcrypt\src/rsa.c ****                     word32 outLen, RsaKey* key, WC_RNG* rng, int type,
 914:..\kronos-c-sdk\src\wolfSSL\wolfcrypt\src/rsa.c ****                     enum wc_HashType hash, int mgf, byte* label, word32 labelSz)
 915:..\kronos-c-sdk\src\wolfSSL\wolfcrypt\src/rsa.c **** {
 1950              		.loc 1 915 0
 1951              		.cfi_startproc
 1952              	.LVL304:
 1953 0000 F0B5     		push	{r4, r5, r6, r7, lr}
 1954              		.cfi_def_cfa_offset 20
 1955              		.cfi_offset 4, -20
 1956              		.cfi_offset 5, -16
 1957              		.cfi_offset 6, -12
 1958              		.cfi_offset 7, -8
 1959              		.cfi_offset 14, -4
 1960 0002 8BB0     		sub	sp, sp, #44
 1961              		.cfi_def_cfa_offset 64
 1962 0004 0890     		str	r0, [sp, #32]
 1963 0006 0D1C     		mov	r5, r1
 1964 0008 161C     		mov	r6, r2
 1965 000a 0993     		str	r3, [sp, #36]
 1966 000c 13AB     		add	r3, sp, #76
 1967              	.LVL305:
 1968 000e 1F78     		ldrb	r7, [r3]
 916:..\kronos-c-sdk\src\wolfSSL\wolfcrypt\src/rsa.c ****     int sz, ret;
 917:..\kronos-c-sdk\src\wolfSSL\wolfcrypt\src/rsa.c **** 
 918:..\kronos-c-sdk\src\wolfSSL\wolfcrypt\src/rsa.c **** #ifdef HAVE_CAVIUM
 919:..\kronos-c-sdk\src\wolfSSL\wolfcrypt\src/rsa.c ****     if (key->magic == WOLFSSL_RSA_CAVIUM_MAGIC)
 920:..\kronos-c-sdk\src\wolfSSL\wolfcrypt\src/rsa.c ****         return CaviumRsaPublicEncrypt(in, inLen, out, outLen, key);
 921:..\kronos-c-sdk\src\wolfSSL\wolfcrypt\src/rsa.c **** #endif
 922:..\kronos-c-sdk\src\wolfSSL\wolfcrypt\src/rsa.c **** 
 923:..\kronos-c-sdk\src\wolfSSL\wolfcrypt\src/rsa.c ****     sz = mp_unsigned_bin_size(&key->n);
 1969              		.loc 1 923 0
 1970 0010 1098     		ldr	r0, [sp, #64]
 1971              	.LVL306:
 1972 0012 FFF7FEFF 		bl	mp_unsigned_bin_size
 1973              	.LVL307:
 1974 0016 041C     		mov	r4, r0
 1975              	.LVL308:
ARM GAS  C:\Users\ddemidov\AppData\Local\Temp\ccr947bU.s 			page 59


 924:..\kronos-c-sdk\src\wolfSSL\wolfcrypt\src/rsa.c ****     if (sz > (int)outLen)
 1976              		.loc 1 924 0
 1977 0018 099B     		ldr	r3, [sp, #36]
 1978 001a 8342     		cmp	r3, r0
 1979 001c 27DB     		blt	.L147
 925:..\kronos-c-sdk\src\wolfSSL\wolfcrypt\src/rsa.c ****         return RSA_BUFFER_E;
 926:..\kronos-c-sdk\src\wolfSSL\wolfcrypt\src/rsa.c **** 
 927:..\kronos-c-sdk\src\wolfSSL\wolfcrypt\src/rsa.c ****     if (inLen > (word32)(sz - RSA_MIN_PAD_SZ))
 1980              		.loc 1 927 0
 1981 001e 031C     		mov	r3, r0
 1982 0020 0B3B     		sub	r3, r3, #11
 1983 0022 AB42     		cmp	r3, r5
 1984 0024 26D3     		bcc	.L148
 928:..\kronos-c-sdk\src\wolfSSL\wolfcrypt\src/rsa.c ****         return RSA_BUFFER_E;
 929:..\kronos-c-sdk\src\wolfSSL\wolfcrypt\src/rsa.c **** 
 930:..\kronos-c-sdk\src\wolfSSL\wolfcrypt\src/rsa.c ****     ret = wc_RsaPad_ex(in, inLen, out, sz, RSA_BLOCK_TYPE_2, rng,
 1985              		.loc 1 930 0
 1986 0026 0223     		mov	r3, #2
 1987 0028 0093     		str	r3, [sp]
 1988 002a 119B     		ldr	r3, [sp, #68]
 1989 002c 0193     		str	r3, [sp, #4]
 1990 002e 129B     		ldr	r3, [sp, #72]
 1991 0030 0293     		str	r3, [sp, #8]
 1992 0032 0397     		str	r7, [sp, #12]
 1993 0034 149B     		ldr	r3, [sp, #80]
 1994 0036 0493     		str	r3, [sp, #16]
 1995 0038 159B     		ldr	r3, [sp, #84]
 1996 003a 0593     		str	r3, [sp, #20]
 1997 003c 169B     		ldr	r3, [sp, #88]
 1998 003e 0693     		str	r3, [sp, #24]
 1999 0040 0898     		ldr	r0, [sp, #32]
 2000              	.LVL309:
 2001 0042 291C     		mov	r1, r5
 2002 0044 321C     		mov	r2, r6
 2003 0046 231C     		mov	r3, r4
 2004 0048 FFF7FEFF 		bl	wc_RsaPad_ex
 2005              	.LVL310:
 931:..\kronos-c-sdk\src\wolfSSL\wolfcrypt\src/rsa.c ****                                                type, hash, mgf, label, labelSz);
 932:..\kronos-c-sdk\src\wolfSSL\wolfcrypt\src/rsa.c ****     if (ret != 0)
 2006              		.loc 1 932 0
 2007 004c 0028     		cmp	r0, #0
 2008 004e 13D1     		bne	.L145
 933:..\kronos-c-sdk\src\wolfSSL\wolfcrypt\src/rsa.c ****         return ret;
 934:..\kronos-c-sdk\src\wolfSSL\wolfcrypt\src/rsa.c **** 
 935:..\kronos-c-sdk\src\wolfSSL\wolfcrypt\src/rsa.c ****     if ((ret = wc_RsaFunction(out, sz, out, &outLen,
 2009              		.loc 1 935 0
 2010 0050 0023     		mov	r3, #0
 2011 0052 0093     		str	r3, [sp]
 2012 0054 109B     		ldr	r3, [sp, #64]
 2013 0056 0193     		str	r3, [sp, #4]
 2014 0058 301C     		mov	r0, r6
 2015              	.LVL311:
 2016 005a 211C     		mov	r1, r4
 2017 005c 321C     		mov	r2, r6
 2018 005e 09AB     		add	r3, sp, #36
 2019              	.LVL312:
 2020 0060 FFF7FEFF 		bl	wc_RsaFunction
ARM GAS  C:\Users\ddemidov\AppData\Local\Temp\ccr947bU.s 			page 60


 2021              	.LVL313:
 2022 0064 0028     		cmp	r0, #0
 2023 0066 00DA     		bge	.L146
 936:..\kronos-c-sdk\src\wolfSSL\wolfcrypt\src/rsa.c ****                               RSA_PUBLIC_ENCRYPT, key)) < 0)
 937:..\kronos-c-sdk\src\wolfSSL\wolfcrypt\src/rsa.c ****         sz = ret;
 2024              		.loc 1 937 0
 2025 0068 041C     		mov	r4, r0
 2026              	.LVL314:
 2027              	.L146:
 938:..\kronos-c-sdk\src\wolfSSL\wolfcrypt\src/rsa.c **** 
 939:..\kronos-c-sdk\src\wolfSSL\wolfcrypt\src/rsa.c ****     return sz;
 2028              		.loc 1 939 0
 2029 006a 201C     		mov	r0, r4
 2030              	.LVL315:
 2031 006c 04E0     		b	.L145
 2032              	.LVL316:
 2033              	.L147:
 925:..\kronos-c-sdk\src\wolfSSL\wolfcrypt\src/rsa.c **** 
 2034              		.loc 1 925 0
 2035 006e 8320     		mov	r0, #131
 2036              	.LVL317:
 2037 0070 4042     		neg	r0, r0
 2038 0072 01E0     		b	.L145
 2039              	.LVL318:
 2040              	.L148:
 928:..\kronos-c-sdk\src\wolfSSL\wolfcrypt\src/rsa.c **** 
 2041              		.loc 1 928 0
 2042 0074 8320     		mov	r0, #131
 2043              	.LVL319:
 2044 0076 4042     		neg	r0, r0
 2045              	.L145:
 940:..\kronos-c-sdk\src\wolfSSL\wolfcrypt\src/rsa.c **** }
 2046              		.loc 1 940 0
 2047 0078 0BB0     		add	sp, sp, #44
 2048              		@ sp needed
 2049              	.LVL320:
 2050              	.LVL321:
 2051              	.LVL322:
 2052 007a F0BD     		pop	{r4, r5, r6, r7, pc}
 2053              		.cfi_endproc
 2054              	.LFE24:
 2055              		.size	wc_RsaPublicEncrypt_ex, .-wc_RsaPublicEncrypt_ex
 2056              		.section	.text.wc_RsaPrivateDecryptInline,"ax",%progbits
 2057              		.align	2
 2058              		.global	wc_RsaPrivateDecryptInline
 2059              		.code	16
 2060              		.thumb_func
 2061              		.type	wc_RsaPrivateDecryptInline, %function
 2062              	wc_RsaPrivateDecryptInline:
 2063              	.LFB25:
 941:..\kronos-c-sdk\src\wolfSSL\wolfcrypt\src/rsa.c **** #endif /* WC_NO_RSA_OAEP */
 942:..\kronos-c-sdk\src\wolfSSL\wolfcrypt\src/rsa.c **** 
 943:..\kronos-c-sdk\src\wolfSSL\wolfcrypt\src/rsa.c **** 
 944:..\kronos-c-sdk\src\wolfSSL\wolfcrypt\src/rsa.c **** int wc_RsaPrivateDecryptInline(byte* in, word32 inLen, byte** out, RsaKey* key)
 945:..\kronos-c-sdk\src\wolfSSL\wolfcrypt\src/rsa.c **** {
 2064              		.loc 1 945 0
 2065              		.cfi_startproc
ARM GAS  C:\Users\ddemidov\AppData\Local\Temp\ccr947bU.s 			page 61


 2066              	.LVL323:
 2067 0000 30B5     		push	{r4, r5, lr}
 2068              		.cfi_def_cfa_offset 12
 2069              		.cfi_offset 4, -12
 2070              		.cfi_offset 5, -8
 2071              		.cfi_offset 14, -4
 2072 0002 85B0     		sub	sp, sp, #20
 2073              		.cfi_def_cfa_offset 32
 2074 0004 041C     		mov	r4, r0
 2075 0006 0391     		str	r1, [sp, #12]
 2076 0008 151C     		mov	r5, r2
 946:..\kronos-c-sdk\src\wolfSSL\wolfcrypt\src/rsa.c ****     int ret;
 947:..\kronos-c-sdk\src\wolfSSL\wolfcrypt\src/rsa.c **** 
 948:..\kronos-c-sdk\src\wolfSSL\wolfcrypt\src/rsa.c **** #ifdef HAVE_CAVIUM
 949:..\kronos-c-sdk\src\wolfSSL\wolfcrypt\src/rsa.c ****     if (key->magic == WOLFSSL_RSA_CAVIUM_MAGIC) {
 950:..\kronos-c-sdk\src\wolfSSL\wolfcrypt\src/rsa.c ****         ret = CaviumRsaPrivateDecrypt(in, inLen, in, inLen, key);
 951:..\kronos-c-sdk\src\wolfSSL\wolfcrypt\src/rsa.c ****         if (ret > 0)
 952:..\kronos-c-sdk\src\wolfSSL\wolfcrypt\src/rsa.c ****             *out = in;
 953:..\kronos-c-sdk\src\wolfSSL\wolfcrypt\src/rsa.c ****         return ret;
 954:..\kronos-c-sdk\src\wolfSSL\wolfcrypt\src/rsa.c ****     }
 955:..\kronos-c-sdk\src\wolfSSL\wolfcrypt\src/rsa.c **** #endif
 956:..\kronos-c-sdk\src\wolfSSL\wolfcrypt\src/rsa.c **** 
 957:..\kronos-c-sdk\src\wolfSSL\wolfcrypt\src/rsa.c ****     if ((ret = wc_RsaFunction(in, inLen, in, &inLen, RSA_PRIVATE_DECRYPT, key))
 2077              		.loc 1 957 0
 2078 000a 0322     		mov	r2, #3
 2079              	.LVL324:
 2080 000c 0092     		str	r2, [sp]
 2081 000e 0193     		str	r3, [sp, #4]
 2082 0010 201C     		mov	r0, r4
 2083 0012 221C     		mov	r2, r4
 2084 0014 03AB     		add	r3, sp, #12
 2085              	.LVL325:
 2086 0016 FFF7FEFF 		bl	wc_RsaFunction
 2087              	.LVL326:
 2088 001a 0028     		cmp	r0, #0
 2089 001c 05DB     		blt	.L152
 958:..\kronos-c-sdk\src\wolfSSL\wolfcrypt\src/rsa.c ****             < 0) {
 959:..\kronos-c-sdk\src\wolfSSL\wolfcrypt\src/rsa.c ****         return ret;
 960:..\kronos-c-sdk\src\wolfSSL\wolfcrypt\src/rsa.c ****     }
 961:..\kronos-c-sdk\src\wolfSSL\wolfcrypt\src/rsa.c **** 
 962:..\kronos-c-sdk\src\wolfSSL\wolfcrypt\src/rsa.c ****     return RsaUnPad(in, inLen, out, RSA_BLOCK_TYPE_2);
 2090              		.loc 1 962 0
 2091 001e 201C     		mov	r0, r4
 2092              	.LVL327:
 2093 0020 0399     		ldr	r1, [sp, #12]
 2094 0022 2A1C     		mov	r2, r5
 2095 0024 0223     		mov	r3, #2
 2096 0026 FFF7FEFF 		bl	RsaUnPad
 2097              	.LVL328:
 2098              	.L152:
 963:..\kronos-c-sdk\src\wolfSSL\wolfcrypt\src/rsa.c **** }
 2099              		.loc 1 963 0
 2100 002a 05B0     		add	sp, sp, #20
 2101              		@ sp needed
 2102              	.LVL329:
 2103              	.LVL330:
 2104 002c 30BD     		pop	{r4, r5, pc}
ARM GAS  C:\Users\ddemidov\AppData\Local\Temp\ccr947bU.s 			page 62


 2105              		.cfi_endproc
 2106              	.LFE25:
 2107              		.size	wc_RsaPrivateDecryptInline, .-wc_RsaPrivateDecryptInline
 2108 002e C046     		.section	.text.wc_RsaPrivateDecryptInline_ex,"ax",%progbits
 2109              		.align	2
 2110              		.global	wc_RsaPrivateDecryptInline_ex
 2111              		.code	16
 2112              		.thumb_func
 2113              		.type	wc_RsaPrivateDecryptInline_ex, %function
 2114              	wc_RsaPrivateDecryptInline_ex:
 2115              	.LFB26:
 964:..\kronos-c-sdk\src\wolfSSL\wolfcrypt\src/rsa.c **** 
 965:..\kronos-c-sdk\src\wolfSSL\wolfcrypt\src/rsa.c **** 
 966:..\kronos-c-sdk\src\wolfSSL\wolfcrypt\src/rsa.c **** #ifndef WC_NO_RSA_OAEP
 967:..\kronos-c-sdk\src\wolfSSL\wolfcrypt\src/rsa.c **** /* Gives the option of choosing padding type
 968:..\kronos-c-sdk\src\wolfSSL\wolfcrypt\src/rsa.c ****    in : input to be decrypted
 969:..\kronos-c-sdk\src\wolfSSL\wolfcrypt\src/rsa.c ****    inLen: length of input buffer
 970:..\kronos-c-sdk\src\wolfSSL\wolfcrypt\src/rsa.c ****    out: pointer to place of decrypted message
 971:..\kronos-c-sdk\src\wolfSSL\wolfcrypt\src/rsa.c ****    key   : wolfSSL initialized RSA key struct
 972:..\kronos-c-sdk\src\wolfSSL\wolfcrypt\src/rsa.c ****    type  : type of padding to use ie WC_RSA_OAEP_PAD
 973:..\kronos-c-sdk\src\wolfSSL\wolfcrypt\src/rsa.c ****    hash  : type of hash algorithm to use found in wolfssl/wolfcrypt/hash.h
 974:..\kronos-c-sdk\src\wolfSSL\wolfcrypt\src/rsa.c ****    mgf   : type of mask generation function to use
 975:..\kronos-c-sdk\src\wolfSSL\wolfcrypt\src/rsa.c ****    label : optional label
 976:..\kronos-c-sdk\src\wolfSSL\wolfcrypt\src/rsa.c ****    labelSz : size of optional label buffer */
 977:..\kronos-c-sdk\src\wolfSSL\wolfcrypt\src/rsa.c **** int wc_RsaPrivateDecryptInline_ex(byte* in, word32 inLen, byte** out,
 978:..\kronos-c-sdk\src\wolfSSL\wolfcrypt\src/rsa.c ****                           RsaKey* key, int type, enum wc_HashType hash, int mgf,
 979:..\kronos-c-sdk\src\wolfSSL\wolfcrypt\src/rsa.c ****                           byte* label, word32 labelSz)
 980:..\kronos-c-sdk\src\wolfSSL\wolfcrypt\src/rsa.c **** {
 2116              		.loc 1 980 0
 2117              		.cfi_startproc
 2118              	.LVL331:
 2119 0000 F0B5     		push	{r4, r5, r6, r7, lr}
 2120              		.cfi_def_cfa_offset 20
 2121              		.cfi_offset 4, -20
 2122              		.cfi_offset 5, -16
 2123              		.cfi_offset 6, -12
 2124              		.cfi_offset 7, -8
 2125              		.cfi_offset 14, -4
 2126 0002 89B0     		sub	sp, sp, #36
 2127              		.cfi_def_cfa_offset 56
 2128 0004 041C     		mov	r4, r0
 2129 0006 0791     		str	r1, [sp, #28]
 2130 0008 151C     		mov	r5, r2
 2131 000a 0EAA     		add	r2, sp, #56
 2132              	.LVL332:
 2133 000c 80CA     		ldmia	r2!, {r7}
 2134              	.LVL333:
 2135 000e 1678     		ldrb	r6, [r2]
 981:..\kronos-c-sdk\src\wolfSSL\wolfcrypt\src/rsa.c ****     int ret;
 982:..\kronos-c-sdk\src\wolfSSL\wolfcrypt\src/rsa.c **** 
 983:..\kronos-c-sdk\src\wolfSSL\wolfcrypt\src/rsa.c ****     /* sanity check on arguments */
 984:..\kronos-c-sdk\src\wolfSSL\wolfcrypt\src/rsa.c ****     if (in == NULL || key == NULL) {
 2136              		.loc 1 984 0
 2137 0010 0028     		cmp	r0, #0
 2138 0012 21D0     		beq	.L157
 2139              		.loc 1 984 0 is_stmt 0 discriminator 1
 2140 0014 002B     		cmp	r3, #0
ARM GAS  C:\Users\ddemidov\AppData\Local\Temp\ccr947bU.s 			page 63


 2141 0016 22D0     		beq	.L158
 985:..\kronos-c-sdk\src\wolfSSL\wolfcrypt\src/rsa.c ****         return BAD_FUNC_ARG;
 986:..\kronos-c-sdk\src\wolfSSL\wolfcrypt\src/rsa.c ****     }
 987:..\kronos-c-sdk\src\wolfSSL\wolfcrypt\src/rsa.c **** 
 988:..\kronos-c-sdk\src\wolfSSL\wolfcrypt\src/rsa.c ****     /* check if given a label size but not given a label buffer */
 989:..\kronos-c-sdk\src\wolfSSL\wolfcrypt\src/rsa.c ****     if (label == NULL && labelSz > 0) {
 2142              		.loc 1 989 0 is_stmt 1
 2143 0018 119A     		ldr	r2, [sp, #68]
 2144              	.LVL334:
 2145 001a 002A     		cmp	r2, #0
 2146 001c 02D1     		bne	.L156
 2147              		.loc 1 989 0 is_stmt 0 discriminator 1
 2148 001e 129A     		ldr	r2, [sp, #72]
 2149 0020 002A     		cmp	r2, #0
 2150 0022 1FD1     		bne	.L159
 2151              	.L156:
 990:..\kronos-c-sdk\src\wolfSSL\wolfcrypt\src/rsa.c ****         return BAD_FUNC_ARG;
 991:..\kronos-c-sdk\src\wolfSSL\wolfcrypt\src/rsa.c ****     }
 992:..\kronos-c-sdk\src\wolfSSL\wolfcrypt\src/rsa.c **** 
 993:..\kronos-c-sdk\src\wolfSSL\wolfcrypt\src/rsa.c **** #ifdef HAVE_CAVIUM
 994:..\kronos-c-sdk\src\wolfSSL\wolfcrypt\src/rsa.c ****     if (key->magic == WOLFSSL_RSA_CAVIUM_MAGIC) {
 995:..\kronos-c-sdk\src\wolfSSL\wolfcrypt\src/rsa.c ****         ret = CaviumRsaPrivateDecrypt(in, inLen, in, inLen, key);
 996:..\kronos-c-sdk\src\wolfSSL\wolfcrypt\src/rsa.c ****         if (ret > 0)
 997:..\kronos-c-sdk\src\wolfSSL\wolfcrypt\src/rsa.c ****             *out = in;
 998:..\kronos-c-sdk\src\wolfSSL\wolfcrypt\src/rsa.c ****         return ret;
 999:..\kronos-c-sdk\src\wolfSSL\wolfcrypt\src/rsa.c ****     }
1000:..\kronos-c-sdk\src\wolfSSL\wolfcrypt\src/rsa.c **** #endif
1001:..\kronos-c-sdk\src\wolfSSL\wolfcrypt\src/rsa.c **** 
1002:..\kronos-c-sdk\src\wolfSSL\wolfcrypt\src/rsa.c ****     if ((ret = wc_RsaFunction(in, inLen, in, &inLen, RSA_PRIVATE_DECRYPT, key))
 2152              		.loc 1 1002 0 is_stmt 1
 2153 0024 0322     		mov	r2, #3
 2154 0026 0092     		str	r2, [sp]
 2155 0028 0193     		str	r3, [sp, #4]
 2156 002a 201C     		mov	r0, r4
 2157              	.LVL335:
 2158 002c 0799     		ldr	r1, [sp, #28]
 2159              	.LVL336:
 2160 002e 221C     		mov	r2, r4
 2161 0030 07AB     		add	r3, sp, #28
 2162              	.LVL337:
 2163 0032 FFF7FEFF 		bl	wc_RsaFunction
 2164              	.LVL338:
 2165 0036 0028     		cmp	r0, #0
 2166 0038 16DB     		blt	.L155
1003:..\kronos-c-sdk\src\wolfSSL\wolfcrypt\src/rsa.c ****             < 0) {
1004:..\kronos-c-sdk\src\wolfSSL\wolfcrypt\src/rsa.c ****         return ret;
1005:..\kronos-c-sdk\src\wolfSSL\wolfcrypt\src/rsa.c ****     }
1006:..\kronos-c-sdk\src\wolfSSL\wolfcrypt\src/rsa.c **** 
1007:..\kronos-c-sdk\src\wolfSSL\wolfcrypt\src/rsa.c ****     return wc_RsaUnPad_ex(in, inLen, out, RSA_BLOCK_TYPE_2, type, hash, mgf,
 2167              		.loc 1 1007 0
 2168 003a 0097     		str	r7, [sp]
 2169 003c 0196     		str	r6, [sp, #4]
 2170 003e 109B     		ldr	r3, [sp, #64]
 2171 0040 0293     		str	r3, [sp, #8]
 2172 0042 119B     		ldr	r3, [sp, #68]
 2173 0044 0393     		str	r3, [sp, #12]
 2174 0046 129B     		ldr	r3, [sp, #72]
ARM GAS  C:\Users\ddemidov\AppData\Local\Temp\ccr947bU.s 			page 64


 2175 0048 0493     		str	r3, [sp, #16]
 2176 004a 201C     		mov	r0, r4
 2177              	.LVL339:
 2178 004c 0799     		ldr	r1, [sp, #28]
 2179 004e 2A1C     		mov	r2, r5
 2180 0050 0223     		mov	r3, #2
 2181 0052 FFF7FEFF 		bl	wc_RsaUnPad_ex
 2182              	.LVL340:
 2183 0056 07E0     		b	.L155
 2184              	.LVL341:
 2185              	.L157:
 985:..\kronos-c-sdk\src\wolfSSL\wolfcrypt\src/rsa.c ****     }
 2186              		.loc 1 985 0
 2187 0058 AD20     		mov	r0, #173
 2188              	.LVL342:
 2189 005a 4042     		neg	r0, r0
 2190 005c 04E0     		b	.L155
 2191              	.LVL343:
 2192              	.L158:
 2193 005e AD20     		mov	r0, #173
 2194              	.LVL344:
 2195 0060 4042     		neg	r0, r0
 2196 0062 01E0     		b	.L155
 2197              	.LVL345:
 2198              	.L159:
 990:..\kronos-c-sdk\src\wolfSSL\wolfcrypt\src/rsa.c ****         return BAD_FUNC_ARG;
 2199              		.loc 1 990 0
 2200 0064 AD20     		mov	r0, #173
 2201              	.LVL346:
 2202 0066 4042     		neg	r0, r0
 2203              	.LVL347:
 2204              	.L155:
1008:..\kronos-c-sdk\src\wolfSSL\wolfcrypt\src/rsa.c ****                                                                 label, labelSz);
1009:..\kronos-c-sdk\src\wolfSSL\wolfcrypt\src/rsa.c **** }
 2205              		.loc 1 1009 0
 2206 0068 09B0     		add	sp, sp, #36
 2207              		@ sp needed
 2208              	.LVL348:
 2209              	.LVL349:
 2210 006a F0BD     		pop	{r4, r5, r6, r7, pc}
 2211              		.cfi_endproc
 2212              	.LFE26:
 2213              		.size	wc_RsaPrivateDecryptInline_ex, .-wc_RsaPrivateDecryptInline_ex
 2214              		.section	.text.wc_RsaPrivateDecrypt,"ax",%progbits
 2215              		.align	2
 2216              		.global	wc_RsaPrivateDecrypt
 2217              		.code	16
 2218              		.thumb_func
 2219              		.type	wc_RsaPrivateDecrypt, %function
 2220              	wc_RsaPrivateDecrypt:
 2221              	.LFB27:
1010:..\kronos-c-sdk\src\wolfSSL\wolfcrypt\src/rsa.c **** #endif /* WC_NO_RSA_OAEP */
1011:..\kronos-c-sdk\src\wolfSSL\wolfcrypt\src/rsa.c **** 
1012:..\kronos-c-sdk\src\wolfSSL\wolfcrypt\src/rsa.c **** 
1013:..\kronos-c-sdk\src\wolfSSL\wolfcrypt\src/rsa.c **** int wc_RsaPrivateDecrypt(const byte* in, word32 inLen, byte* out, word32 outLen,
1014:..\kronos-c-sdk\src\wolfSSL\wolfcrypt\src/rsa.c ****                      RsaKey* key)
1015:..\kronos-c-sdk\src\wolfSSL\wolfcrypt\src/rsa.c **** {
ARM GAS  C:\Users\ddemidov\AppData\Local\Temp\ccr947bU.s 			page 65


 2222              		.loc 1 1015 0
 2223              		.cfi_startproc
 2224              	.LVL350:
 2225 0000 F0B5     		push	{r4, r5, r6, r7, lr}
 2226              		.cfi_def_cfa_offset 20
 2227              		.cfi_offset 4, -20
 2228              		.cfi_offset 5, -16
 2229              		.cfi_offset 6, -12
 2230              		.cfi_offset 7, -8
 2231              		.cfi_offset 14, -4
 2232 0002 85B0     		sub	sp, sp, #20
 2233              		.cfi_def_cfa_offset 40
 2234 0004 051C     		mov	r5, r0
 2235 0006 0F1C     		mov	r7, r1
 2236 0008 0192     		str	r2, [sp, #4]
 2237 000a 1E1C     		mov	r6, r3
1016:..\kronos-c-sdk\src\wolfSSL\wolfcrypt\src/rsa.c ****     int plainLen;
1017:..\kronos-c-sdk\src\wolfSSL\wolfcrypt\src/rsa.c ****     byte*  tmp;
1018:..\kronos-c-sdk\src\wolfSSL\wolfcrypt\src/rsa.c ****     byte*  pad = 0;
 2238              		.loc 1 1018 0
 2239 000c 0023     		mov	r3, #0
 2240              	.LVL351:
 2241 000e 0393     		str	r3, [sp, #12]
1019:..\kronos-c-sdk\src\wolfSSL\wolfcrypt\src/rsa.c **** 
1020:..\kronos-c-sdk\src\wolfSSL\wolfcrypt\src/rsa.c **** #ifdef HAVE_CAVIUM
1021:..\kronos-c-sdk\src\wolfSSL\wolfcrypt\src/rsa.c ****     if (key->magic == WOLFSSL_RSA_CAVIUM_MAGIC)
1022:..\kronos-c-sdk\src\wolfSSL\wolfcrypt\src/rsa.c ****         return CaviumRsaPrivateDecrypt(in, inLen, out, outLen, key);
1023:..\kronos-c-sdk\src\wolfSSL\wolfcrypt\src/rsa.c **** #endif
1024:..\kronos-c-sdk\src\wolfSSL\wolfcrypt\src/rsa.c **** 
1025:..\kronos-c-sdk\src\wolfSSL\wolfcrypt\src/rsa.c ****     tmp = (byte*)XMALLOC(inLen, key->heap, DYNAMIC_TYPE_RSA);
 2242              		.loc 1 1025 0
 2243 0010 081C     		mov	r0, r1
 2244              	.LVL352:
 2245 0012 FFF7FEFF 		bl	wolfSSL_Malloc
 2246              	.LVL353:
 2247 0016 041E     		sub	r4, r0, #0
 2248              	.LVL354:
1026:..\kronos-c-sdk\src\wolfSSL\wolfcrypt\src/rsa.c ****     if (tmp == NULL) {
 2249              		.loc 1 1026 0
 2250 0018 2CD0     		beq	.L169
1027:..\kronos-c-sdk\src\wolfSSL\wolfcrypt\src/rsa.c ****         return MEMORY_E;
1028:..\kronos-c-sdk\src\wolfSSL\wolfcrypt\src/rsa.c ****     }
1029:..\kronos-c-sdk\src\wolfSSL\wolfcrypt\src/rsa.c **** 
1030:..\kronos-c-sdk\src\wolfSSL\wolfcrypt\src/rsa.c ****     XMEMCPY(tmp, in, inLen);
 2251              		.loc 1 1030 0
 2252 001a 291C     		mov	r1, r5
 2253 001c 3A1C     		mov	r2, r7
 2254 001e FFF7FEFF 		bl	memcpy
 2255              	.LVL355:
1031:..\kronos-c-sdk\src\wolfSSL\wolfcrypt\src/rsa.c **** 
1032:..\kronos-c-sdk\src\wolfSSL\wolfcrypt\src/rsa.c ****     if ( (plainLen = wc_RsaPrivateDecryptInline(tmp, inLen, &pad, key) ) < 0) {
 2256              		.loc 1 1032 0
 2257 0022 201C     		mov	r0, r4
 2258 0024 391C     		mov	r1, r7
 2259 0026 03AA     		add	r2, sp, #12
 2260 0028 0A9B     		ldr	r3, [sp, #40]
 2261 002a FFF7FEFF 		bl	wc_RsaPrivateDecryptInline
ARM GAS  C:\Users\ddemidov\AppData\Local\Temp\ccr947bU.s 			page 66


 2262              	.LVL356:
 2263 002e 051E     		sub	r5, r0, #0
 2264              	.LVL357:
 2265 0030 06DA     		bge	.L163
 2266              	.LVL358:
 2267              	.LBB32:
1033:..\kronos-c-sdk\src\wolfSSL\wolfcrypt\src/rsa.c ****         XFREE(tmp, key->heap, DYNAMIC_TYPE_RSA);
 2268              		.loc 1 1033 0
 2269 0032 002C     		cmp	r4, #0
 2270 0034 02D0     		beq	.L164
 2271              		.loc 1 1033 0 is_stmt 0 discriminator 1
 2272 0036 201C     		mov	r0, r4
 2273              	.LVL359:
 2274 0038 FFF7FEFF 		bl	wolfSSL_Free
 2275              	.LVL360:
 2276              	.L164:
 2277              	.LBE32:
1034:..\kronos-c-sdk\src\wolfSSL\wolfcrypt\src/rsa.c ****         return plainLen;
 2278              		.loc 1 1034 0 is_stmt 1
 2279 003c 281C     		mov	r0, r5
 2280 003e 1BE0     		b	.L162
 2281              	.LVL361:
 2282              	.L163:
1035:..\kronos-c-sdk\src\wolfSSL\wolfcrypt\src/rsa.c ****     }
1036:..\kronos-c-sdk\src\wolfSSL\wolfcrypt\src/rsa.c ****     if (plainLen > (int)outLen)
 2283              		.loc 1 1036 0
 2284 0040 8642     		cmp	r6, r0
 2285 0042 05DB     		blt	.L170
1037:..\kronos-c-sdk\src\wolfSSL\wolfcrypt\src/rsa.c ****         plainLen = BAD_FUNC_ARG;
1038:..\kronos-c-sdk\src\wolfSSL\wolfcrypt\src/rsa.c ****     else
1039:..\kronos-c-sdk\src\wolfSSL\wolfcrypt\src/rsa.c ****         XMEMCPY(out, pad, plainLen);
 2286              		.loc 1 1039 0
 2287 0044 0198     		ldr	r0, [sp, #4]
 2288              	.LVL362:
 2289 0046 0399     		ldr	r1, [sp, #12]
 2290 0048 2A1C     		mov	r2, r5
 2291 004a FFF7FEFF 		bl	memcpy
 2292              	.LVL363:
 2293 004e 01E0     		b	.L165
 2294              	.LVL364:
 2295              	.L170:
1037:..\kronos-c-sdk\src\wolfSSL\wolfcrypt\src/rsa.c ****         plainLen = BAD_FUNC_ARG;
 2296              		.loc 1 1037 0
 2297 0050 AD25     		mov	r5, #173
 2298 0052 6D42     		neg	r5, r5
 2299              	.LVL365:
 2300              	.L165:
 2301              	.LBB33:
 2302              	.LBB34:
 181:..\kronos-c-sdk\src\wolfSSL\wolfcrypt\src/misc.c **** 
 2303              		.loc 2 181 0
 2304 0054 231C     		mov	r3, r4
 2305 0056 03E0     		b	.L166
 2306              	.LVL366:
 2307              	.L167:
 183:..\kronos-c-sdk\src\wolfSSL\wolfcrypt\src/misc.c **** }
 2308              		.loc 2 183 0
ARM GAS  C:\Users\ddemidov\AppData\Local\Temp\ccr947bU.s 			page 67


 2309 0058 0021     		mov	r1, #0
 2310 005a 1970     		strb	r1, [r3]
 2311 005c 171C     		mov	r7, r2
 2312 005e 0133     		add	r3, r3, #1
 2313              	.LVL367:
 2314              	.L166:
 2315 0060 7A1E     		sub	r2, r7, #1
 2316              	.LVL368:
 2317 0062 002F     		cmp	r7, #0
 2318 0064 F8D1     		bne	.L167
 2319              	.LVL369:
 2320              	.LBE34:
 2321              	.LBE33:
 2322              	.LBB35:
1040:..\kronos-c-sdk\src\wolfSSL\wolfcrypt\src/rsa.c **** 
1041:..\kronos-c-sdk\src\wolfSSL\wolfcrypt\src/rsa.c ****     ForceZero(tmp, inLen);
1042:..\kronos-c-sdk\src\wolfSSL\wolfcrypt\src/rsa.c ****     XFREE(tmp, key->heap, DYNAMIC_TYPE_RSA);
 2323              		.loc 1 1042 0
 2324 0066 002C     		cmp	r4, #0
 2325 0068 02D0     		beq	.L168
 2326              		.loc 1 1042 0 is_stmt 0 discriminator 1
 2327 006a 201C     		mov	r0, r4
 2328 006c FFF7FEFF 		bl	wolfSSL_Free
 2329              	.LVL370:
 2330              	.L168:
 2331              	.LBE35:
1043:..\kronos-c-sdk\src\wolfSSL\wolfcrypt\src/rsa.c **** 
1044:..\kronos-c-sdk\src\wolfSSL\wolfcrypt\src/rsa.c ****     return plainLen;
 2332              		.loc 1 1044 0 is_stmt 1
 2333 0070 281C     		mov	r0, r5
 2334 0072 01E0     		b	.L162
 2335              	.LVL371:
 2336              	.L169:
1027:..\kronos-c-sdk\src\wolfSSL\wolfcrypt\src/rsa.c ****     }
 2337              		.loc 1 1027 0
 2338 0074 7D20     		mov	r0, #125
 2339              	.LVL372:
 2340 0076 4042     		neg	r0, r0
 2341              	.LVL373:
 2342              	.L162:
1045:..\kronos-c-sdk\src\wolfSSL\wolfcrypt\src/rsa.c **** }
 2343              		.loc 1 1045 0
 2344 0078 05B0     		add	sp, sp, #20
 2345              		@ sp needed
 2346              	.LVL374:
 2347              	.LVL375:
 2348 007a F0BD     		pop	{r4, r5, r6, r7, pc}
 2349              		.cfi_endproc
 2350              	.LFE27:
 2351              		.size	wc_RsaPrivateDecrypt, .-wc_RsaPrivateDecrypt
 2352              		.section	.text.wc_RsaPrivateDecrypt_ex,"ax",%progbits
 2353              		.align	2
 2354              		.global	wc_RsaPrivateDecrypt_ex
 2355              		.code	16
 2356              		.thumb_func
 2357              		.type	wc_RsaPrivateDecrypt_ex, %function
 2358              	wc_RsaPrivateDecrypt_ex:
ARM GAS  C:\Users\ddemidov\AppData\Local\Temp\ccr947bU.s 			page 68


 2359              	.LFB28:
1046:..\kronos-c-sdk\src\wolfSSL\wolfcrypt\src/rsa.c **** 
1047:..\kronos-c-sdk\src\wolfSSL\wolfcrypt\src/rsa.c **** 
1048:..\kronos-c-sdk\src\wolfSSL\wolfcrypt\src/rsa.c **** #ifndef WC_NO_RSA_OAEP
1049:..\kronos-c-sdk\src\wolfSSL\wolfcrypt\src/rsa.c **** /* Gives the option of choosing padding type
1050:..\kronos-c-sdk\src\wolfSSL\wolfcrypt\src/rsa.c ****    in : input to be decrypted
1051:..\kronos-c-sdk\src\wolfSSL\wolfcrypt\src/rsa.c ****    inLen: length of input buffer
1052:..\kronos-c-sdk\src\wolfSSL\wolfcrypt\src/rsa.c ****    out:  decrypted message
1053:..\kronos-c-sdk\src\wolfSSL\wolfcrypt\src/rsa.c ****    outLen: length of decrypted message in bytes
1054:..\kronos-c-sdk\src\wolfSSL\wolfcrypt\src/rsa.c ****    key   : wolfSSL initialized RSA key struct
1055:..\kronos-c-sdk\src\wolfSSL\wolfcrypt\src/rsa.c ****    type  : type of padding to use ie WC_RSA_OAEP_PAD
1056:..\kronos-c-sdk\src\wolfSSL\wolfcrypt\src/rsa.c ****    hash  : type of hash algorithm to use found in wolfssl/wolfcrypt/hash.h
1057:..\kronos-c-sdk\src\wolfSSL\wolfcrypt\src/rsa.c ****    mgf   : type of mask generation function to use
1058:..\kronos-c-sdk\src\wolfSSL\wolfcrypt\src/rsa.c ****    label : optional label
1059:..\kronos-c-sdk\src\wolfSSL\wolfcrypt\src/rsa.c ****    labelSz : size of optional label buffer */
1060:..\kronos-c-sdk\src\wolfSSL\wolfcrypt\src/rsa.c **** int wc_RsaPrivateDecrypt_ex(const byte* in, word32 inLen, byte* out, word32 outLen,
1061:..\kronos-c-sdk\src\wolfSSL\wolfcrypt\src/rsa.c ****                           RsaKey* key, int type, enum wc_HashType hash, int mgf,
1062:..\kronos-c-sdk\src\wolfSSL\wolfcrypt\src/rsa.c ****                           byte* label, word32 labelSz)
1063:..\kronos-c-sdk\src\wolfSSL\wolfcrypt\src/rsa.c **** {
 2360              		.loc 1 1063 0
 2361              		.cfi_startproc
 2362              	.LVL376:
 2363 0000 F0B5     		push	{r4, r5, r6, r7, lr}
 2364              		.cfi_def_cfa_offset 20
 2365              		.cfi_offset 4, -20
 2366              		.cfi_offset 5, -16
 2367              		.cfi_offset 6, -12
 2368              		.cfi_offset 7, -8
 2369              		.cfi_offset 14, -4
 2370 0002 4F46     		mov	r7, r9
 2371 0004 80B4     		push	{r7}
 2372              		.cfi_def_cfa_offset 24
 2373              		.cfi_offset 9, -24
 2374 0006 8AB0     		sub	sp, sp, #40
 2375              		.cfi_def_cfa_offset 64
 2376 0008 061C     		mov	r6, r0
 2377 000a 0C1C     		mov	r4, r1
 2378 000c 171C     		mov	r7, r2
 2379 000e 0793     		str	r3, [sp, #28]
 2380 0010 12AB     		add	r3, sp, #72
 2381              	.LVL377:
 2382 0012 1B78     		ldrb	r3, [r3]
 2383              	.LVL378:
 2384 0014 9946     		mov	r9, r3
1064:..\kronos-c-sdk\src\wolfSSL\wolfcrypt\src/rsa.c ****     int plainLen;
1065:..\kronos-c-sdk\src\wolfSSL\wolfcrypt\src/rsa.c ****     byte*  tmp;
1066:..\kronos-c-sdk\src\wolfSSL\wolfcrypt\src/rsa.c ****     byte*  pad = 0;
 2385              		.loc 1 1066 0
 2386 0016 0023     		mov	r3, #0
 2387 0018 0993     		str	r3, [sp, #36]
1067:..\kronos-c-sdk\src\wolfSSL\wolfcrypt\src/rsa.c **** 
1068:..\kronos-c-sdk\src\wolfSSL\wolfcrypt\src/rsa.c ****     /* sanity check on arguments */
1069:..\kronos-c-sdk\src\wolfSSL\wolfcrypt\src/rsa.c ****     if (out == NULL || in == NULL || key == NULL) {
 2388              		.loc 1 1069 0
 2389 001a 002A     		cmp	r2, #0
 2390 001c 4CD0     		beq	.L180
 2391              		.loc 1 1069 0 is_stmt 0 discriminator 1
ARM GAS  C:\Users\ddemidov\AppData\Local\Temp\ccr947bU.s 			page 69


 2392 001e 0028     		cmp	r0, #0
 2393 0020 4DD0     		beq	.L181
 2394              		.loc 1 1069 0 discriminator 2
 2395 0022 109B     		ldr	r3, [sp, #64]
 2396 0024 002B     		cmp	r3, #0
 2397 0026 4DD0     		beq	.L182
1070:..\kronos-c-sdk\src\wolfSSL\wolfcrypt\src/rsa.c ****         return BAD_FUNC_ARG;
1071:..\kronos-c-sdk\src\wolfSSL\wolfcrypt\src/rsa.c ****     }
1072:..\kronos-c-sdk\src\wolfSSL\wolfcrypt\src/rsa.c **** 
1073:..\kronos-c-sdk\src\wolfSSL\wolfcrypt\src/rsa.c ****     /* check if given a label size but not given a label buffer */
1074:..\kronos-c-sdk\src\wolfSSL\wolfcrypt\src/rsa.c ****     if (label == NULL && labelSz > 0) {
 2398              		.loc 1 1074 0 is_stmt 1
 2399 0028 149B     		ldr	r3, [sp, #80]
 2400 002a 002B     		cmp	r3, #0
 2401 002c 02D1     		bne	.L173
 2402              		.loc 1 1074 0 is_stmt 0 discriminator 1
 2403 002e 159B     		ldr	r3, [sp, #84]
 2404 0030 002B     		cmp	r3, #0
 2405 0032 4AD1     		bne	.L183
 2406              	.L173:
1075:..\kronos-c-sdk\src\wolfSSL\wolfcrypt\src/rsa.c ****         return BAD_FUNC_ARG;
1076:..\kronos-c-sdk\src\wolfSSL\wolfcrypt\src/rsa.c ****     }
1077:..\kronos-c-sdk\src\wolfSSL\wolfcrypt\src/rsa.c **** 
1078:..\kronos-c-sdk\src\wolfSSL\wolfcrypt\src/rsa.c **** #ifdef HAVE_CAVIUM
1079:..\kronos-c-sdk\src\wolfSSL\wolfcrypt\src/rsa.c ****     if (key->magic == WOLFSSL_RSA_CAVIUM_MAGIC)
1080:..\kronos-c-sdk\src\wolfSSL\wolfcrypt\src/rsa.c ****         return CaviumRsaPrivateDecrypt(in, inLen, out, outLen, key);
1081:..\kronos-c-sdk\src\wolfSSL\wolfcrypt\src/rsa.c **** #endif
1082:..\kronos-c-sdk\src\wolfSSL\wolfcrypt\src/rsa.c **** 
1083:..\kronos-c-sdk\src\wolfSSL\wolfcrypt\src/rsa.c ****     tmp = (byte*)XMALLOC(inLen, key->heap, DYNAMIC_TYPE_RSA);
 2407              		.loc 1 1083 0 is_stmt 1
 2408 0034 201C     		mov	r0, r4
 2409              	.LVL379:
 2410 0036 FFF7FEFF 		bl	wolfSSL_Malloc
 2411              	.LVL380:
 2412 003a 051E     		sub	r5, r0, #0
 2413              	.LVL381:
1084:..\kronos-c-sdk\src\wolfSSL\wolfcrypt\src/rsa.c ****     if (tmp == NULL) {
 2414              		.loc 1 1084 0
 2415 003c 48D0     		beq	.L184
1085:..\kronos-c-sdk\src\wolfSSL\wolfcrypt\src/rsa.c ****         return MEMORY_E;
1086:..\kronos-c-sdk\src\wolfSSL\wolfcrypt\src/rsa.c ****     }
1087:..\kronos-c-sdk\src\wolfSSL\wolfcrypt\src/rsa.c **** 
1088:..\kronos-c-sdk\src\wolfSSL\wolfcrypt\src/rsa.c ****     XMEMCPY(tmp, in, inLen);
 2416              		.loc 1 1088 0
 2417 003e 311C     		mov	r1, r6
 2418 0040 221C     		mov	r2, r4
 2419 0042 FFF7FEFF 		bl	memcpy
 2420              	.LVL382:
1089:..\kronos-c-sdk\src\wolfSSL\wolfcrypt\src/rsa.c **** 
1090:..\kronos-c-sdk\src\wolfSSL\wolfcrypt\src/rsa.c ****     if ( (plainLen = wc_RsaPrivateDecryptInline_ex(tmp, inLen, &pad, key,
 2421              		.loc 1 1090 0
 2422 0046 119B     		ldr	r3, [sp, #68]
 2423 0048 0093     		str	r3, [sp]
 2424 004a 4B46     		mov	r3, r9
 2425 004c 0193     		str	r3, [sp, #4]
 2426 004e 139B     		ldr	r3, [sp, #76]
 2427 0050 0293     		str	r3, [sp, #8]
ARM GAS  C:\Users\ddemidov\AppData\Local\Temp\ccr947bU.s 			page 70


 2428 0052 149B     		ldr	r3, [sp, #80]
 2429 0054 0393     		str	r3, [sp, #12]
 2430 0056 159B     		ldr	r3, [sp, #84]
 2431 0058 0493     		str	r3, [sp, #16]
 2432 005a 281C     		mov	r0, r5
 2433 005c 211C     		mov	r1, r4
 2434 005e 09AA     		add	r2, sp, #36
 2435 0060 109B     		ldr	r3, [sp, #64]
 2436 0062 FFF7FEFF 		bl	wc_RsaPrivateDecryptInline_ex
 2437              	.LVL383:
 2438 0066 061E     		sub	r6, r0, #0
 2439              	.LVL384:
 2440 0068 06DA     		bge	.L174
 2441              	.LVL385:
 2442              	.LBB36:
1091:..\kronos-c-sdk\src\wolfSSL\wolfcrypt\src/rsa.c ****                                        type, hash, mgf, label, labelSz) ) < 0) {
1092:..\kronos-c-sdk\src\wolfSSL\wolfcrypt\src/rsa.c ****         XFREE(tmp, key->heap, DYNAMIC_TYPE_RSA);
 2443              		.loc 1 1092 0
 2444 006a 002D     		cmp	r5, #0
 2445 006c 02D0     		beq	.L175
 2446              		.loc 1 1092 0 is_stmt 0 discriminator 1
 2447 006e 281C     		mov	r0, r5
 2448              	.LVL386:
 2449 0070 FFF7FEFF 		bl	wolfSSL_Free
 2450              	.LVL387:
 2451              	.L175:
 2452              	.LBE36:
1093:..\kronos-c-sdk\src\wolfSSL\wolfcrypt\src/rsa.c ****         return plainLen;
 2453              		.loc 1 1093 0 is_stmt 1
 2454 0074 301C     		mov	r0, r6
 2455 0076 2DE0     		b	.L172
 2456              	.LVL388:
 2457              	.L174:
1094:..\kronos-c-sdk\src\wolfSSL\wolfcrypt\src/rsa.c ****     }
1095:..\kronos-c-sdk\src\wolfSSL\wolfcrypt\src/rsa.c ****     if (plainLen > (int)outLen || pad == NULL)
 2458              		.loc 1 1095 0
 2459 0078 079B     		ldr	r3, [sp, #28]
 2460 007a 8342     		cmp	r3, r0
 2461 007c 07DB     		blt	.L185
 2462              		.loc 1 1095 0 is_stmt 0 discriminator 1
 2463 007e 0999     		ldr	r1, [sp, #36]
 2464 0080 0029     		cmp	r1, #0
 2465 0082 07D0     		beq	.L186
1096:..\kronos-c-sdk\src\wolfSSL\wolfcrypt\src/rsa.c ****         plainLen = BAD_FUNC_ARG;
1097:..\kronos-c-sdk\src\wolfSSL\wolfcrypt\src/rsa.c ****     else
1098:..\kronos-c-sdk\src\wolfSSL\wolfcrypt\src/rsa.c ****         XMEMCPY(out, pad, plainLen);
 2466              		.loc 1 1098 0 is_stmt 1
 2467 0084 381C     		mov	r0, r7
 2468              	.LVL389:
 2469 0086 321C     		mov	r2, r6
 2470 0088 FFF7FEFF 		bl	memcpy
 2471              	.LVL390:
 2472 008c 04E0     		b	.L176
 2473              	.LVL391:
 2474              	.L185:
1096:..\kronos-c-sdk\src\wolfSSL\wolfcrypt\src/rsa.c ****         plainLen = BAD_FUNC_ARG;
 2475              		.loc 1 1096 0
ARM GAS  C:\Users\ddemidov\AppData\Local\Temp\ccr947bU.s 			page 71


 2476 008e AD26     		mov	r6, #173
 2477 0090 7642     		neg	r6, r6
 2478 0092 01E0     		b	.L176
 2479              	.L186:
 2480 0094 AD26     		mov	r6, #173
 2481 0096 7642     		neg	r6, r6
 2482              	.LVL392:
 2483              	.L176:
 2484              	.LBB37:
 2485              	.LBB38:
 181:..\kronos-c-sdk\src\wolfSSL\wolfcrypt\src/misc.c **** 
 2486              		.loc 2 181 0
 2487 0098 2B1C     		mov	r3, r5
 2488 009a 03E0     		b	.L177
 2489              	.LVL393:
 2490              	.L178:
 183:..\kronos-c-sdk\src\wolfSSL\wolfcrypt\src/misc.c **** }
 2491              		.loc 2 183 0
 2492 009c 0021     		mov	r1, #0
 2493 009e 1970     		strb	r1, [r3]
 2494 00a0 141C     		mov	r4, r2
 2495 00a2 0133     		add	r3, r3, #1
 2496              	.LVL394:
 2497              	.L177:
 2498 00a4 621E     		sub	r2, r4, #1
 2499              	.LVL395:
 2500 00a6 002C     		cmp	r4, #0
 2501 00a8 F8D1     		bne	.L178
 2502              	.LVL396:
 2503              	.LBE38:
 2504              	.LBE37:
 2505              	.LBB39:
1099:..\kronos-c-sdk\src\wolfSSL\wolfcrypt\src/rsa.c **** 
1100:..\kronos-c-sdk\src\wolfSSL\wolfcrypt\src/rsa.c ****     ForceZero(tmp, inLen);
1101:..\kronos-c-sdk\src\wolfSSL\wolfcrypt\src/rsa.c ****     XFREE(tmp, key->heap, DYNAMIC_TYPE_RSA);
 2506              		.loc 1 1101 0
 2507 00aa 002D     		cmp	r5, #0
 2508 00ac 02D0     		beq	.L179
 2509              		.loc 1 1101 0 is_stmt 0 discriminator 1
 2510 00ae 281C     		mov	r0, r5
 2511 00b0 FFF7FEFF 		bl	wolfSSL_Free
 2512              	.LVL397:
 2513              	.L179:
 2514              	.LBE39:
1102:..\kronos-c-sdk\src\wolfSSL\wolfcrypt\src/rsa.c **** 
1103:..\kronos-c-sdk\src\wolfSSL\wolfcrypt\src/rsa.c ****     return plainLen;
 2515              		.loc 1 1103 0 is_stmt 1
 2516 00b4 301C     		mov	r0, r6
 2517 00b6 0DE0     		b	.L172
 2518              	.LVL398:
 2519              	.L180:
1070:..\kronos-c-sdk\src\wolfSSL\wolfcrypt\src/rsa.c ****     }
 2520              		.loc 1 1070 0
 2521 00b8 AD20     		mov	r0, #173
 2522              	.LVL399:
 2523 00ba 4042     		neg	r0, r0
 2524 00bc 0AE0     		b	.L172
ARM GAS  C:\Users\ddemidov\AppData\Local\Temp\ccr947bU.s 			page 72


 2525              	.LVL400:
 2526              	.L181:
 2527 00be AD20     		mov	r0, #173
 2528              	.LVL401:
 2529 00c0 4042     		neg	r0, r0
 2530 00c2 07E0     		b	.L172
 2531              	.LVL402:
 2532              	.L182:
 2533 00c4 AD20     		mov	r0, #173
 2534              	.LVL403:
 2535 00c6 4042     		neg	r0, r0
 2536 00c8 04E0     		b	.L172
 2537              	.LVL404:
 2538              	.L183:
1075:..\kronos-c-sdk\src\wolfSSL\wolfcrypt\src/rsa.c ****     }
 2539              		.loc 1 1075 0
 2540 00ca AD20     		mov	r0, #173
 2541              	.LVL405:
 2542 00cc 4042     		neg	r0, r0
 2543 00ce 01E0     		b	.L172
 2544              	.LVL406:
 2545              	.L184:
1085:..\kronos-c-sdk\src\wolfSSL\wolfcrypt\src/rsa.c ****     }
 2546              		.loc 1 1085 0
 2547 00d0 7D20     		mov	r0, #125
 2548              	.LVL407:
 2549 00d2 4042     		neg	r0, r0
 2550              	.LVL408:
 2551              	.L172:
1104:..\kronos-c-sdk\src\wolfSSL\wolfcrypt\src/rsa.c **** }
 2552              		.loc 1 1104 0
 2553 00d4 0AB0     		add	sp, sp, #40
 2554              		@ sp needed
 2555              	.LVL409:
 2556 00d6 04BC     		pop	{r2}
 2557 00d8 9146     		mov	r9, r2
 2558 00da F0BD     		pop	{r4, r5, r6, r7, pc}
 2559              		.cfi_endproc
 2560              	.LFE28:
 2561              		.size	wc_RsaPrivateDecrypt_ex, .-wc_RsaPrivateDecrypt_ex
 2562              		.section	.text.wc_RsaSSL_VerifyInline,"ax",%progbits
 2563              		.align	2
 2564              		.global	wc_RsaSSL_VerifyInline
 2565              		.code	16
 2566              		.thumb_func
 2567              		.type	wc_RsaSSL_VerifyInline, %function
 2568              	wc_RsaSSL_VerifyInline:
 2569              	.LFB29:
1105:..\kronos-c-sdk\src\wolfSSL\wolfcrypt\src/rsa.c **** #endif /* WC_NO_RSA_OAEP */
1106:..\kronos-c-sdk\src\wolfSSL\wolfcrypt\src/rsa.c **** 
1107:..\kronos-c-sdk\src\wolfSSL\wolfcrypt\src/rsa.c **** 
1108:..\kronos-c-sdk\src\wolfSSL\wolfcrypt\src/rsa.c **** /* for Rsa Verify */
1109:..\kronos-c-sdk\src\wolfSSL\wolfcrypt\src/rsa.c **** int wc_RsaSSL_VerifyInline(byte* in, word32 inLen, byte** out, RsaKey* key)
1110:..\kronos-c-sdk\src\wolfSSL\wolfcrypt\src/rsa.c **** {
 2570              		.loc 1 1110 0
 2571              		.cfi_startproc
 2572              	.LVL410:
ARM GAS  C:\Users\ddemidov\AppData\Local\Temp\ccr947bU.s 			page 73


 2573 0000 30B5     		push	{r4, r5, lr}
 2574              		.cfi_def_cfa_offset 12
 2575              		.cfi_offset 4, -12
 2576              		.cfi_offset 5, -8
 2577              		.cfi_offset 14, -4
 2578 0002 85B0     		sub	sp, sp, #20
 2579              		.cfi_def_cfa_offset 32
 2580 0004 041C     		mov	r4, r0
 2581 0006 0391     		str	r1, [sp, #12]
 2582 0008 151C     		mov	r5, r2
1111:..\kronos-c-sdk\src\wolfSSL\wolfcrypt\src/rsa.c ****     int ret;
1112:..\kronos-c-sdk\src\wolfSSL\wolfcrypt\src/rsa.c **** 
1113:..\kronos-c-sdk\src\wolfSSL\wolfcrypt\src/rsa.c **** #ifdef HAVE_CAVIUM
1114:..\kronos-c-sdk\src\wolfSSL\wolfcrypt\src/rsa.c ****     if (key->magic == WOLFSSL_RSA_CAVIUM_MAGIC) {
1115:..\kronos-c-sdk\src\wolfSSL\wolfcrypt\src/rsa.c ****         ret = CaviumRsaSSL_Verify(in, inLen, in, inLen, key);
1116:..\kronos-c-sdk\src\wolfSSL\wolfcrypt\src/rsa.c ****         if (ret > 0)
1117:..\kronos-c-sdk\src\wolfSSL\wolfcrypt\src/rsa.c ****             *out = in;
1118:..\kronos-c-sdk\src\wolfSSL\wolfcrypt\src/rsa.c ****         return ret;
1119:..\kronos-c-sdk\src\wolfSSL\wolfcrypt\src/rsa.c ****     }
1120:..\kronos-c-sdk\src\wolfSSL\wolfcrypt\src/rsa.c **** #endif
1121:..\kronos-c-sdk\src\wolfSSL\wolfcrypt\src/rsa.c **** 
1122:..\kronos-c-sdk\src\wolfSSL\wolfcrypt\src/rsa.c ****     if ((ret = wc_RsaFunction(in, inLen, in, &inLen, RSA_PUBLIC_DECRYPT, key))
 2583              		.loc 1 1122 0
 2584 000a 0122     		mov	r2, #1
 2585              	.LVL411:
 2586 000c 0092     		str	r2, [sp]
 2587 000e 0193     		str	r3, [sp, #4]
 2588 0010 201C     		mov	r0, r4
 2589 0012 221C     		mov	r2, r4
 2590 0014 03AB     		add	r3, sp, #12
 2591              	.LVL412:
 2592 0016 FFF7FEFF 		bl	wc_RsaFunction
 2593              	.LVL413:
 2594 001a 0028     		cmp	r0, #0
 2595 001c 05DB     		blt	.L188
1123:..\kronos-c-sdk\src\wolfSSL\wolfcrypt\src/rsa.c ****             < 0) {
1124:..\kronos-c-sdk\src\wolfSSL\wolfcrypt\src/rsa.c ****         return ret;
1125:..\kronos-c-sdk\src\wolfSSL\wolfcrypt\src/rsa.c ****     }
1126:..\kronos-c-sdk\src\wolfSSL\wolfcrypt\src/rsa.c **** 
1127:..\kronos-c-sdk\src\wolfSSL\wolfcrypt\src/rsa.c ****     return RsaUnPad(in, inLen, out, RSA_BLOCK_TYPE_1);
 2596              		.loc 1 1127 0
 2597 001e 201C     		mov	r0, r4
 2598              	.LVL414:
 2599 0020 0399     		ldr	r1, [sp, #12]
 2600 0022 2A1C     		mov	r2, r5
 2601 0024 0123     		mov	r3, #1
 2602 0026 FFF7FEFF 		bl	RsaUnPad
 2603              	.LVL415:
 2604              	.L188:
1128:..\kronos-c-sdk\src\wolfSSL\wolfcrypt\src/rsa.c **** }
 2605              		.loc 1 1128 0
 2606 002a 05B0     		add	sp, sp, #20
 2607              		@ sp needed
 2608              	.LVL416:
 2609              	.LVL417:
 2610 002c 30BD     		pop	{r4, r5, pc}
 2611              		.cfi_endproc
ARM GAS  C:\Users\ddemidov\AppData\Local\Temp\ccr947bU.s 			page 74


 2612              	.LFE29:
 2613              		.size	wc_RsaSSL_VerifyInline, .-wc_RsaSSL_VerifyInline
 2614 002e C046     		.section	.text.wc_RsaSSL_Verify,"ax",%progbits
 2615              		.align	2
 2616              		.global	wc_RsaSSL_Verify
 2617              		.code	16
 2618              		.thumb_func
 2619              		.type	wc_RsaSSL_Verify, %function
 2620              	wc_RsaSSL_Verify:
 2621              	.LFB30:
1129:..\kronos-c-sdk\src\wolfSSL\wolfcrypt\src/rsa.c **** 
1130:..\kronos-c-sdk\src\wolfSSL\wolfcrypt\src/rsa.c **** 
1131:..\kronos-c-sdk\src\wolfSSL\wolfcrypt\src/rsa.c **** int wc_RsaSSL_Verify(const byte* in, word32 inLen, byte* out, word32 outLen,
1132:..\kronos-c-sdk\src\wolfSSL\wolfcrypt\src/rsa.c ****                      RsaKey* key)
1133:..\kronos-c-sdk\src\wolfSSL\wolfcrypt\src/rsa.c **** {
 2622              		.loc 1 1133 0
 2623              		.cfi_startproc
 2624              	.LVL418:
 2625 0000 F0B5     		push	{r4, r5, r6, r7, lr}
 2626              		.cfi_def_cfa_offset 20
 2627              		.cfi_offset 4, -20
 2628              		.cfi_offset 5, -16
 2629              		.cfi_offset 6, -12
 2630              		.cfi_offset 7, -8
 2631              		.cfi_offset 14, -4
 2632 0002 85B0     		sub	sp, sp, #20
 2633              		.cfi_def_cfa_offset 40
 2634 0004 051C     		mov	r5, r0
 2635 0006 0F1C     		mov	r7, r1
 2636 0008 0192     		str	r2, [sp, #4]
 2637 000a 1E1C     		mov	r6, r3
1134:..\kronos-c-sdk\src\wolfSSL\wolfcrypt\src/rsa.c ****     int plainLen;
1135:..\kronos-c-sdk\src\wolfSSL\wolfcrypt\src/rsa.c ****     byte*  tmp;
1136:..\kronos-c-sdk\src\wolfSSL\wolfcrypt\src/rsa.c ****     byte*  pad = 0;
 2638              		.loc 1 1136 0
 2639 000c 0023     		mov	r3, #0
 2640              	.LVL419:
 2641 000e 0393     		str	r3, [sp, #12]
1137:..\kronos-c-sdk\src\wolfSSL\wolfcrypt\src/rsa.c **** 
1138:..\kronos-c-sdk\src\wolfSSL\wolfcrypt\src/rsa.c **** #ifdef HAVE_CAVIUM
1139:..\kronos-c-sdk\src\wolfSSL\wolfcrypt\src/rsa.c ****     if (key->magic == WOLFSSL_RSA_CAVIUM_MAGIC)
1140:..\kronos-c-sdk\src\wolfSSL\wolfcrypt\src/rsa.c ****         return CaviumRsaSSL_Verify(in, inLen, out, outLen, key);
1141:..\kronos-c-sdk\src\wolfSSL\wolfcrypt\src/rsa.c **** #endif
1142:..\kronos-c-sdk\src\wolfSSL\wolfcrypt\src/rsa.c **** 
1143:..\kronos-c-sdk\src\wolfSSL\wolfcrypt\src/rsa.c ****     tmp = (byte*)XMALLOC(inLen, key->heap, DYNAMIC_TYPE_RSA);
 2642              		.loc 1 1143 0
 2643 0010 081C     		mov	r0, r1
 2644              	.LVL420:
 2645 0012 FFF7FEFF 		bl	wolfSSL_Malloc
 2646              	.LVL421:
 2647 0016 041E     		sub	r4, r0, #0
 2648              	.LVL422:
1144:..\kronos-c-sdk\src\wolfSSL\wolfcrypt\src/rsa.c ****     if (tmp == NULL) {
 2649              		.loc 1 1144 0
 2650 0018 2CD0     		beq	.L198
1145:..\kronos-c-sdk\src\wolfSSL\wolfcrypt\src/rsa.c ****         return MEMORY_E;
1146:..\kronos-c-sdk\src\wolfSSL\wolfcrypt\src/rsa.c ****     }
ARM GAS  C:\Users\ddemidov\AppData\Local\Temp\ccr947bU.s 			page 75


1147:..\kronos-c-sdk\src\wolfSSL\wolfcrypt\src/rsa.c **** 
1148:..\kronos-c-sdk\src\wolfSSL\wolfcrypt\src/rsa.c ****     XMEMCPY(tmp, in, inLen);
 2651              		.loc 1 1148 0
 2652 001a 291C     		mov	r1, r5
 2653 001c 3A1C     		mov	r2, r7
 2654 001e FFF7FEFF 		bl	memcpy
 2655              	.LVL423:
1149:..\kronos-c-sdk\src\wolfSSL\wolfcrypt\src/rsa.c **** 
1150:..\kronos-c-sdk\src\wolfSSL\wolfcrypt\src/rsa.c ****     if ( (plainLen = wc_RsaSSL_VerifyInline(tmp, inLen, &pad, key) ) < 0) {
 2656              		.loc 1 1150 0
 2657 0022 201C     		mov	r0, r4
 2658 0024 391C     		mov	r1, r7
 2659 0026 03AA     		add	r2, sp, #12
 2660 0028 0A9B     		ldr	r3, [sp, #40]
 2661 002a FFF7FEFF 		bl	wc_RsaSSL_VerifyInline
 2662              	.LVL424:
 2663 002e 051E     		sub	r5, r0, #0
 2664              	.LVL425:
 2665 0030 06DA     		bge	.L192
 2666              	.LVL426:
 2667              	.LBB40:
1151:..\kronos-c-sdk\src\wolfSSL\wolfcrypt\src/rsa.c ****         XFREE(tmp, key->heap, DYNAMIC_TYPE_RSA);
 2668              		.loc 1 1151 0
 2669 0032 002C     		cmp	r4, #0
 2670 0034 02D0     		beq	.L193
 2671              		.loc 1 1151 0 is_stmt 0 discriminator 1
 2672 0036 201C     		mov	r0, r4
 2673              	.LVL427:
 2674 0038 FFF7FEFF 		bl	wolfSSL_Free
 2675              	.LVL428:
 2676              	.L193:
 2677              	.LBE40:
1152:..\kronos-c-sdk\src\wolfSSL\wolfcrypt\src/rsa.c ****         return plainLen;
 2678              		.loc 1 1152 0 is_stmt 1
 2679 003c 281C     		mov	r0, r5
 2680 003e 1BE0     		b	.L191
 2681              	.LVL429:
 2682              	.L192:
1153:..\kronos-c-sdk\src\wolfSSL\wolfcrypt\src/rsa.c ****     }
1154:..\kronos-c-sdk\src\wolfSSL\wolfcrypt\src/rsa.c **** 
1155:..\kronos-c-sdk\src\wolfSSL\wolfcrypt\src/rsa.c ****     if (plainLen > (int)outLen)
 2683              		.loc 1 1155 0
 2684 0040 8642     		cmp	r6, r0
 2685 0042 05DB     		blt	.L199
1156:..\kronos-c-sdk\src\wolfSSL\wolfcrypt\src/rsa.c ****         plainLen = BAD_FUNC_ARG;
1157:..\kronos-c-sdk\src\wolfSSL\wolfcrypt\src/rsa.c ****     else
1158:..\kronos-c-sdk\src\wolfSSL\wolfcrypt\src/rsa.c ****         XMEMCPY(out, pad, plainLen);
 2686              		.loc 1 1158 0
 2687 0044 0198     		ldr	r0, [sp, #4]
 2688              	.LVL430:
 2689 0046 0399     		ldr	r1, [sp, #12]
 2690 0048 2A1C     		mov	r2, r5
 2691 004a FFF7FEFF 		bl	memcpy
 2692              	.LVL431:
 2693 004e 01E0     		b	.L194
 2694              	.LVL432:
 2695              	.L199:
ARM GAS  C:\Users\ddemidov\AppData\Local\Temp\ccr947bU.s 			page 76


1156:..\kronos-c-sdk\src\wolfSSL\wolfcrypt\src/rsa.c ****         plainLen = BAD_FUNC_ARG;
 2696              		.loc 1 1156 0
 2697 0050 AD25     		mov	r5, #173
 2698 0052 6D42     		neg	r5, r5
 2699              	.LVL433:
 2700              	.L194:
 2701              	.LBB41:
 2702              	.LBB42:
 181:..\kronos-c-sdk\src\wolfSSL\wolfcrypt\src/misc.c **** 
 2703              		.loc 2 181 0
 2704 0054 231C     		mov	r3, r4
 2705 0056 03E0     		b	.L195
 2706              	.LVL434:
 2707              	.L196:
 183:..\kronos-c-sdk\src\wolfSSL\wolfcrypt\src/misc.c **** }
 2708              		.loc 2 183 0
 2709 0058 0021     		mov	r1, #0
 2710 005a 1970     		strb	r1, [r3]
 2711 005c 171C     		mov	r7, r2
 2712 005e 0133     		add	r3, r3, #1
 2713              	.LVL435:
 2714              	.L195:
 2715 0060 7A1E     		sub	r2, r7, #1
 2716              	.LVL436:
 2717 0062 002F     		cmp	r7, #0
 2718 0064 F8D1     		bne	.L196
 2719              	.LVL437:
 2720              	.LBE42:
 2721              	.LBE41:
 2722              	.LBB43:
1159:..\kronos-c-sdk\src\wolfSSL\wolfcrypt\src/rsa.c **** 
1160:..\kronos-c-sdk\src\wolfSSL\wolfcrypt\src/rsa.c ****     ForceZero(tmp, inLen);
1161:..\kronos-c-sdk\src\wolfSSL\wolfcrypt\src/rsa.c ****     XFREE(tmp, key->heap, DYNAMIC_TYPE_RSA);
 2723              		.loc 1 1161 0
 2724 0066 002C     		cmp	r4, #0
 2725 0068 02D0     		beq	.L197
 2726              		.loc 1 1161 0 is_stmt 0 discriminator 1
 2727 006a 201C     		mov	r0, r4
 2728 006c FFF7FEFF 		bl	wolfSSL_Free
 2729              	.LVL438:
 2730              	.L197:
 2731              	.LBE43:
1162:..\kronos-c-sdk\src\wolfSSL\wolfcrypt\src/rsa.c **** 
1163:..\kronos-c-sdk\src\wolfSSL\wolfcrypt\src/rsa.c ****     return plainLen;
 2732              		.loc 1 1163 0 is_stmt 1
 2733 0070 281C     		mov	r0, r5
 2734 0072 01E0     		b	.L191
 2735              	.LVL439:
 2736              	.L198:
1145:..\kronos-c-sdk\src\wolfSSL\wolfcrypt\src/rsa.c ****     }
 2737              		.loc 1 1145 0
 2738 0074 7D20     		mov	r0, #125
 2739              	.LVL440:
 2740 0076 4042     		neg	r0, r0
 2741              	.LVL441:
 2742              	.L191:
1164:..\kronos-c-sdk\src\wolfSSL\wolfcrypt\src/rsa.c **** }
ARM GAS  C:\Users\ddemidov\AppData\Local\Temp\ccr947bU.s 			page 77


 2743              		.loc 1 1164 0
 2744 0078 05B0     		add	sp, sp, #20
 2745              		@ sp needed
 2746              	.LVL442:
 2747              	.LVL443:
 2748 007a F0BD     		pop	{r4, r5, r6, r7, pc}
 2749              		.cfi_endproc
 2750              	.LFE30:
 2751              		.size	wc_RsaSSL_Verify, .-wc_RsaSSL_Verify
 2752              		.section	.text.wc_RsaSSL_Sign,"ax",%progbits
 2753              		.align	2
 2754              		.global	wc_RsaSSL_Sign
 2755              		.code	16
 2756              		.thumb_func
 2757              		.type	wc_RsaSSL_Sign, %function
 2758              	wc_RsaSSL_Sign:
 2759              	.LFB31:
1165:..\kronos-c-sdk\src\wolfSSL\wolfcrypt\src/rsa.c **** 
1166:..\kronos-c-sdk\src\wolfSSL\wolfcrypt\src/rsa.c **** 
1167:..\kronos-c-sdk\src\wolfSSL\wolfcrypt\src/rsa.c **** /* for Rsa Sign */
1168:..\kronos-c-sdk\src\wolfSSL\wolfcrypt\src/rsa.c **** int wc_RsaSSL_Sign(const byte* in, word32 inLen, byte* out, word32 outLen,
1169:..\kronos-c-sdk\src\wolfSSL\wolfcrypt\src/rsa.c ****                       RsaKey* key, WC_RNG* rng)
1170:..\kronos-c-sdk\src\wolfSSL\wolfcrypt\src/rsa.c **** {
 2760              		.loc 1 1170 0
 2761              		.cfi_startproc
 2762              	.LVL444:
 2763 0000 F0B5     		push	{r4, r5, r6, r7, lr}
 2764              		.cfi_def_cfa_offset 20
 2765              		.cfi_offset 4, -20
 2766              		.cfi_offset 5, -16
 2767              		.cfi_offset 6, -12
 2768              		.cfi_offset 7, -8
 2769              		.cfi_offset 14, -4
 2770 0002 85B0     		sub	sp, sp, #20
 2771              		.cfi_def_cfa_offset 40
 2772 0004 071C     		mov	r7, r0
 2773 0006 0D1C     		mov	r5, r1
 2774 0008 161C     		mov	r6, r2
 2775 000a 0393     		str	r3, [sp, #12]
1171:..\kronos-c-sdk\src\wolfSSL\wolfcrypt\src/rsa.c ****     int sz, ret;
1172:..\kronos-c-sdk\src\wolfSSL\wolfcrypt\src/rsa.c **** 
1173:..\kronos-c-sdk\src\wolfSSL\wolfcrypt\src/rsa.c **** #ifdef HAVE_CAVIUM
1174:..\kronos-c-sdk\src\wolfSSL\wolfcrypt\src/rsa.c ****     if (key->magic == WOLFSSL_RSA_CAVIUM_MAGIC)
1175:..\kronos-c-sdk\src\wolfSSL\wolfcrypt\src/rsa.c ****         return CaviumRsaSSL_Sign(in, inLen, out, outLen, key);
1176:..\kronos-c-sdk\src\wolfSSL\wolfcrypt\src/rsa.c **** #endif
1177:..\kronos-c-sdk\src\wolfSSL\wolfcrypt\src/rsa.c **** 
1178:..\kronos-c-sdk\src\wolfSSL\wolfcrypt\src/rsa.c ****     sz = mp_unsigned_bin_size(&key->n);
 2776              		.loc 1 1178 0
 2777 000c 0A98     		ldr	r0, [sp, #40]
 2778              	.LVL445:
 2779 000e FFF7FEFF 		bl	mp_unsigned_bin_size
 2780              	.LVL446:
 2781 0012 041C     		mov	r4, r0
 2782              	.LVL447:
1179:..\kronos-c-sdk\src\wolfSSL\wolfcrypt\src/rsa.c ****     if (sz > (int)outLen)
 2783              		.loc 1 1179 0
 2784 0014 039B     		ldr	r3, [sp, #12]
ARM GAS  C:\Users\ddemidov\AppData\Local\Temp\ccr947bU.s 			page 78


 2785 0016 8342     		cmp	r3, r0
 2786 0018 1EDB     		blt	.L203
1180:..\kronos-c-sdk\src\wolfSSL\wolfcrypt\src/rsa.c ****         return RSA_BUFFER_E;
1181:..\kronos-c-sdk\src\wolfSSL\wolfcrypt\src/rsa.c **** 
1182:..\kronos-c-sdk\src\wolfSSL\wolfcrypt\src/rsa.c ****     if (inLen > (word32)(sz - RSA_MIN_PAD_SZ))
 2787              		.loc 1 1182 0
 2788 001a 031C     		mov	r3, r0
 2789 001c 0B3B     		sub	r3, r3, #11
 2790 001e AB42     		cmp	r3, r5
 2791 0020 1DD3     		bcc	.L204
1183:..\kronos-c-sdk\src\wolfSSL\wolfcrypt\src/rsa.c ****         return RSA_BUFFER_E;
1184:..\kronos-c-sdk\src\wolfSSL\wolfcrypt\src/rsa.c **** 
1185:..\kronos-c-sdk\src\wolfSSL\wolfcrypt\src/rsa.c ****     ret = wc_RsaPad(in, inLen, out, sz, RSA_BLOCK_TYPE_1, rng);
 2792              		.loc 1 1185 0
 2793 0022 0123     		mov	r3, #1
 2794 0024 0093     		str	r3, [sp]
 2795 0026 0B9B     		ldr	r3, [sp, #44]
 2796 0028 0193     		str	r3, [sp, #4]
 2797 002a 381C     		mov	r0, r7
 2798              	.LVL448:
 2799 002c 291C     		mov	r1, r5
 2800 002e 321C     		mov	r2, r6
 2801 0030 231C     		mov	r3, r4
 2802 0032 FFF7FEFF 		bl	wc_RsaPad
 2803              	.LVL449:
1186:..\kronos-c-sdk\src\wolfSSL\wolfcrypt\src/rsa.c ****     if (ret != 0)
 2804              		.loc 1 1186 0
 2805 0036 0028     		cmp	r0, #0
 2806 0038 13D1     		bne	.L201
1187:..\kronos-c-sdk\src\wolfSSL\wolfcrypt\src/rsa.c ****         return ret;
1188:..\kronos-c-sdk\src\wolfSSL\wolfcrypt\src/rsa.c **** 
1189:..\kronos-c-sdk\src\wolfSSL\wolfcrypt\src/rsa.c ****     if ((ret = wc_RsaFunction(out, sz, out, &outLen,
 2807              		.loc 1 1189 0
 2808 003a 0223     		mov	r3, #2
 2809 003c 0093     		str	r3, [sp]
 2810 003e 0A9B     		ldr	r3, [sp, #40]
 2811 0040 0193     		str	r3, [sp, #4]
 2812 0042 301C     		mov	r0, r6
 2813              	.LVL450:
 2814 0044 211C     		mov	r1, r4
 2815 0046 321C     		mov	r2, r6
 2816 0048 03AB     		add	r3, sp, #12
 2817              	.LVL451:
 2818 004a FFF7FEFF 		bl	wc_RsaFunction
 2819              	.LVL452:
 2820 004e 0028     		cmp	r0, #0
 2821 0050 00DA     		bge	.L202
1190:..\kronos-c-sdk\src\wolfSSL\wolfcrypt\src/rsa.c ****                               RSA_PRIVATE_ENCRYPT,key)) < 0)
1191:..\kronos-c-sdk\src\wolfSSL\wolfcrypt\src/rsa.c ****         sz = ret;
 2822              		.loc 1 1191 0
 2823 0052 041C     		mov	r4, r0
 2824              	.LVL453:
 2825              	.L202:
1192:..\kronos-c-sdk\src\wolfSSL\wolfcrypt\src/rsa.c **** 
1193:..\kronos-c-sdk\src\wolfSSL\wolfcrypt\src/rsa.c ****     return sz;
 2826              		.loc 1 1193 0
 2827 0054 201C     		mov	r0, r4
ARM GAS  C:\Users\ddemidov\AppData\Local\Temp\ccr947bU.s 			page 79


 2828              	.LVL454:
 2829 0056 04E0     		b	.L201
 2830              	.LVL455:
 2831              	.L203:
1180:..\kronos-c-sdk\src\wolfSSL\wolfcrypt\src/rsa.c **** 
 2832              		.loc 1 1180 0
 2833 0058 8320     		mov	r0, #131
 2834              	.LVL456:
 2835 005a 4042     		neg	r0, r0
 2836 005c 01E0     		b	.L201
 2837              	.LVL457:
 2838              	.L204:
1183:..\kronos-c-sdk\src\wolfSSL\wolfcrypt\src/rsa.c **** 
 2839              		.loc 1 1183 0
 2840 005e 8320     		mov	r0, #131
 2841              	.LVL458:
 2842 0060 4042     		neg	r0, r0
 2843              	.L201:
1194:..\kronos-c-sdk\src\wolfSSL\wolfcrypt\src/rsa.c **** }
 2844              		.loc 1 1194 0
 2845 0062 05B0     		add	sp, sp, #20
 2846              		@ sp needed
 2847              	.LVL459:
 2848              	.LVL460:
 2849              	.LVL461:
 2850              	.LVL462:
 2851 0064 F0BD     		pop	{r4, r5, r6, r7, pc}
 2852              		.cfi_endproc
 2853              	.LFE31:
 2854              		.size	wc_RsaSSL_Sign, .-wc_RsaSSL_Sign
 2855 0066 C046     		.section	.text.wc_RsaEncryptSize,"ax",%progbits
 2856              		.align	2
 2857              		.global	wc_RsaEncryptSize
 2858              		.code	16
 2859              		.thumb_func
 2860              		.type	wc_RsaEncryptSize, %function
 2861              	wc_RsaEncryptSize:
 2862              	.LFB32:
1195:..\kronos-c-sdk\src\wolfSSL\wolfcrypt\src/rsa.c **** 
1196:..\kronos-c-sdk\src\wolfSSL\wolfcrypt\src/rsa.c **** 
1197:..\kronos-c-sdk\src\wolfSSL\wolfcrypt\src/rsa.c **** int wc_RsaEncryptSize(RsaKey* key)
1198:..\kronos-c-sdk\src\wolfSSL\wolfcrypt\src/rsa.c **** {
 2863              		.loc 1 1198 0
 2864              		.cfi_startproc
 2865              	.LVL463:
 2866 0000 08B5     		push	{r3, lr}
 2867              		.cfi_def_cfa_offset 8
 2868              		.cfi_offset 3, -8
 2869              		.cfi_offset 14, -4
1199:..\kronos-c-sdk\src\wolfSSL\wolfcrypt\src/rsa.c **** #ifdef HAVE_CAVIUM
1200:..\kronos-c-sdk\src\wolfSSL\wolfcrypt\src/rsa.c ****     if (key->magic == WOLFSSL_RSA_CAVIUM_MAGIC)
1201:..\kronos-c-sdk\src\wolfSSL\wolfcrypt\src/rsa.c ****         return key->c_nSz;
1202:..\kronos-c-sdk\src\wolfSSL\wolfcrypt\src/rsa.c **** #endif
1203:..\kronos-c-sdk\src\wolfSSL\wolfcrypt\src/rsa.c ****     return mp_unsigned_bin_size(&key->n);
 2870              		.loc 1 1203 0
 2871 0002 FFF7FEFF 		bl	mp_unsigned_bin_size
 2872              	.LVL464:
ARM GAS  C:\Users\ddemidov\AppData\Local\Temp\ccr947bU.s 			page 80


1204:..\kronos-c-sdk\src\wolfSSL\wolfcrypt\src/rsa.c **** }
 2873              		.loc 1 1204 0
 2874              		@ sp needed
 2875 0006 08BD     		pop	{r3, pc}
 2876              		.cfi_endproc
 2877              	.LFE32:
 2878              		.size	wc_RsaEncryptSize, .-wc_RsaEncryptSize
 2879              		.section	.text.wc_RsaFlattenPublicKey,"ax",%progbits
 2880              		.align	2
 2881              		.global	wc_RsaFlattenPublicKey
 2882              		.code	16
 2883              		.thumb_func
 2884              		.type	wc_RsaFlattenPublicKey, %function
 2885              	wc_RsaFlattenPublicKey:
 2886              	.LFB33:
1205:..\kronos-c-sdk\src\wolfSSL\wolfcrypt\src/rsa.c **** 
1206:..\kronos-c-sdk\src\wolfSSL\wolfcrypt\src/rsa.c **** /* flatten RsaKey structure into individual elements (e, n) */
1207:..\kronos-c-sdk\src\wolfSSL\wolfcrypt\src/rsa.c **** int wc_RsaFlattenPublicKey(RsaKey* key, byte* e, word32* eSz, byte* n,
1208:..\kronos-c-sdk\src\wolfSSL\wolfcrypt\src/rsa.c ****                            word32* nSz)
1209:..\kronos-c-sdk\src\wolfSSL\wolfcrypt\src/rsa.c **** {
 2887              		.loc 1 1209 0
 2888              		.cfi_startproc
 2889              	.LVL465:
 2890 0000 F0B5     		push	{r4, r5, r6, r7, lr}
 2891              		.cfi_def_cfa_offset 20
 2892              		.cfi_offset 4, -20
 2893              		.cfi_offset 5, -16
 2894              		.cfi_offset 6, -12
 2895              		.cfi_offset 7, -8
 2896              		.cfi_offset 14, -4
 2897 0002 4746     		mov	r7, r8
 2898 0004 80B4     		push	{r7}
 2899              		.cfi_def_cfa_offset 24
 2900              		.cfi_offset 8, -24
 2901 0006 82B0     		sub	sp, sp, #8
 2902              		.cfi_def_cfa_offset 32
 2903 0008 089E     		ldr	r6, [sp, #32]
1210:..\kronos-c-sdk\src\wolfSSL\wolfcrypt\src/rsa.c ****     int sz, ret;
1211:..\kronos-c-sdk\src\wolfSSL\wolfcrypt\src/rsa.c **** 
1212:..\kronos-c-sdk\src\wolfSSL\wolfcrypt\src/rsa.c ****     if (key == NULL || e == NULL || eSz == NULL || n == NULL || nSz == NULL)
 2904              		.loc 1 1212 0
 2905 000a 0028     		cmp	r0, #0
 2906 000c 2BD0     		beq	.L210
 2907              		.loc 1 1212 0 is_stmt 0 discriminator 1
 2908 000e 0029     		cmp	r1, #0
 2909 0010 2CD0     		beq	.L211
 2910              		.loc 1 1212 0 discriminator 2
 2911 0012 002A     		cmp	r2, #0
 2912 0014 2DD0     		beq	.L212
 2913              		.loc 1 1212 0 discriminator 3
 2914 0016 002B     		cmp	r3, #0
 2915 0018 2ED0     		beq	.L213
 2916              		.loc 1 1212 0 discriminator 4
 2917 001a 002E     		cmp	r6, #0
 2918 001c 2FD0     		beq	.L214
 2919 001e 0193     		str	r3, [sp, #4]
 2920 0020 9046     		mov	r8, r2
ARM GAS  C:\Users\ddemidov\AppData\Local\Temp\ccr947bU.s 			page 81


 2921 0022 0091     		str	r1, [sp]
 2922 0024 041C     		mov	r4, r0
1213:..\kronos-c-sdk\src\wolfSSL\wolfcrypt\src/rsa.c ****        return BAD_FUNC_ARG;
1214:..\kronos-c-sdk\src\wolfSSL\wolfcrypt\src/rsa.c **** 
1215:..\kronos-c-sdk\src\wolfSSL\wolfcrypt\src/rsa.c ****     sz = mp_unsigned_bin_size(&key->e);
 2923              		.loc 1 1215 0 is_stmt 1
 2924 0026 071C     		mov	r7, r0
 2925 0028 1037     		add	r7, r7, #16
 2926 002a 381C     		mov	r0, r7
 2927              	.LVL466:
 2928 002c FFF7FEFF 		bl	mp_unsigned_bin_size
 2929              	.LVL467:
 2930 0030 051E     		sub	r5, r0, #0
1216:..\kronos-c-sdk\src\wolfSSL\wolfcrypt\src/rsa.c ****     if ((word32)sz > *nSz)
 2931              		.loc 1 1216 0
 2932 0032 3368     		ldr	r3, [r6]
 2933 0034 9D42     		cmp	r5, r3
 2934 0036 25D8     		bhi	.L215
1217:..\kronos-c-sdk\src\wolfSSL\wolfcrypt\src/rsa.c ****         return RSA_BUFFER_E;
1218:..\kronos-c-sdk\src\wolfSSL\wolfcrypt\src/rsa.c ****     ret = mp_to_unsigned_bin(&key->e, e);
 2935              		.loc 1 1218 0
 2936 0038 381C     		mov	r0, r7
 2937 003a 0099     		ldr	r1, [sp]
 2938 003c FFF7FEFF 		bl	mp_to_unsigned_bin
 2939              	.LVL468:
1219:..\kronos-c-sdk\src\wolfSSL\wolfcrypt\src/rsa.c ****     if (ret != MP_OKAY)
 2940              		.loc 1 1219 0
 2941 0040 0028     		cmp	r0, #0
 2942 0042 24D1     		bne	.L209
1220:..\kronos-c-sdk\src\wolfSSL\wolfcrypt\src/rsa.c ****         return ret;
1221:..\kronos-c-sdk\src\wolfSSL\wolfcrypt\src/rsa.c ****     *eSz = (word32)sz;
 2943              		.loc 1 1221 0
 2944 0044 4346     		mov	r3, r8
 2945 0046 1D60     		str	r5, [r3]
1222:..\kronos-c-sdk\src\wolfSSL\wolfcrypt\src/rsa.c **** 
1223:..\kronos-c-sdk\src\wolfSSL\wolfcrypt\src/rsa.c ****     sz = mp_unsigned_bin_size(&key->n);
 2946              		.loc 1 1223 0
 2947 0048 201C     		mov	r0, r4
 2948              	.LVL469:
 2949 004a FFF7FEFF 		bl	mp_unsigned_bin_size
 2950              	.LVL470:
 2951 004e 051E     		sub	r5, r0, #0
1224:..\kronos-c-sdk\src\wolfSSL\wolfcrypt\src/rsa.c ****     if ((word32)sz > *nSz)
 2952              		.loc 1 1224 0
 2953 0050 3368     		ldr	r3, [r6]
 2954 0052 9D42     		cmp	r5, r3
 2955 0054 19D8     		bhi	.L217
1225:..\kronos-c-sdk\src\wolfSSL\wolfcrypt\src/rsa.c ****         return RSA_BUFFER_E;
1226:..\kronos-c-sdk\src\wolfSSL\wolfcrypt\src/rsa.c ****     ret = mp_to_unsigned_bin(&key->n, n);
 2956              		.loc 1 1226 0
 2957 0056 201C     		mov	r0, r4
 2958 0058 0199     		ldr	r1, [sp, #4]
 2959 005a FFF7FEFF 		bl	mp_to_unsigned_bin
 2960              	.LVL471:
1227:..\kronos-c-sdk\src\wolfSSL\wolfcrypt\src/rsa.c ****     if (ret != MP_OKAY)
 2961              		.loc 1 1227 0
 2962 005e 0028     		cmp	r0, #0
ARM GAS  C:\Users\ddemidov\AppData\Local\Temp\ccr947bU.s 			page 82


 2963 0060 15D1     		bne	.L209
1228:..\kronos-c-sdk\src\wolfSSL\wolfcrypt\src/rsa.c ****         return ret;
1229:..\kronos-c-sdk\src\wolfSSL\wolfcrypt\src/rsa.c ****     *nSz = (word32)sz;
 2964              		.loc 1 1229 0
 2965 0062 3560     		str	r5, [r6]
1230:..\kronos-c-sdk\src\wolfSSL\wolfcrypt\src/rsa.c **** 
1231:..\kronos-c-sdk\src\wolfSSL\wolfcrypt\src/rsa.c ****     return 0;
 2966              		.loc 1 1231 0
 2967 0064 13E0     		b	.L209
 2968              	.LVL472:
 2969              	.L210:
1213:..\kronos-c-sdk\src\wolfSSL\wolfcrypt\src/rsa.c **** 
 2970              		.loc 1 1213 0
 2971 0066 AD20     		mov	r0, #173
 2972              	.LVL473:
 2973 0068 4042     		neg	r0, r0
 2974 006a 10E0     		b	.L209
 2975              	.LVL474:
 2976              	.L211:
 2977 006c AD20     		mov	r0, #173
 2978              	.LVL475:
 2979 006e 4042     		neg	r0, r0
 2980 0070 0DE0     		b	.L209
 2981              	.LVL476:
 2982              	.L212:
 2983 0072 AD20     		mov	r0, #173
 2984              	.LVL477:
 2985 0074 4042     		neg	r0, r0
 2986 0076 0AE0     		b	.L209
 2987              	.LVL478:
 2988              	.L213:
 2989 0078 AD20     		mov	r0, #173
 2990              	.LVL479:
 2991 007a 4042     		neg	r0, r0
 2992 007c 07E0     		b	.L209
 2993              	.LVL480:
 2994              	.L214:
 2995 007e AD20     		mov	r0, #173
 2996              	.LVL481:
 2997 0080 4042     		neg	r0, r0
 2998 0082 04E0     		b	.L209
 2999              	.LVL482:
 3000              	.L215:
1217:..\kronos-c-sdk\src\wolfSSL\wolfcrypt\src/rsa.c ****     ret = mp_to_unsigned_bin(&key->e, e);
 3001              		.loc 1 1217 0
 3002 0084 8320     		mov	r0, #131
 3003 0086 4042     		neg	r0, r0
 3004 0088 01E0     		b	.L209
 3005              	.L217:
1225:..\kronos-c-sdk\src\wolfSSL\wolfcrypt\src/rsa.c ****     ret = mp_to_unsigned_bin(&key->n, n);
 3006              		.loc 1 1225 0
 3007 008a 8320     		mov	r0, #131
 3008 008c 4042     		neg	r0, r0
 3009              	.LVL483:
 3010              	.L209:
1232:..\kronos-c-sdk\src\wolfSSL\wolfcrypt\src/rsa.c **** }
 3011              		.loc 1 1232 0
ARM GAS  C:\Users\ddemidov\AppData\Local\Temp\ccr947bU.s 			page 83


 3012 008e 02B0     		add	sp, sp, #8
 3013              		@ sp needed
 3014 0090 04BC     		pop	{r2}
 3015 0092 9046     		mov	r8, r2
 3016 0094 F0BD     		pop	{r4, r5, r6, r7, pc}
 3017              		.cfi_endproc
 3018              	.LFE33:
 3019              		.size	wc_RsaFlattenPublicKey, .-wc_RsaFlattenPublicKey
 3020 0096 C046     		.text
 3021              	.Letext0:
 3022              		.file 3 "..\\kronos-c-sdk\\src\\wolfSSL/wolfssl/wolfcrypt/types.h"
 3023              		.file 4 "c:\\program files (x86)\\cypress\\psoc creator\\3.3\\psoc creator\\import\\gnu\\arm\\4.9.
 3024              		.file 5 "..\\kronos-c-sdk\\src\\wolfSSL/wolfssl/wolfcrypt/sha256.h"
 3025              		.file 6 "..\\kronos-c-sdk\\src\\wolfSSL/wolfssl/wolfcrypt/random.h"
 3026              		.file 7 "..\\kronos-c-sdk\\src\\wolfSSL/wolfssl/wolfcrypt/integer.h"
 3027              		.file 8 "..\\kronos-c-sdk\\src\\wolfSSL/wolfssl/wolfcrypt/rsa.h"
 3028              		.file 9 "..\\kronos-c-sdk\\src\\wolfSSL/wolfssl/wolfcrypt/error-crypt.h"
 3029              		.file 10 "c:\\program files (x86)\\cypress\\psoc creator\\3.3\\psoc creator\\import\\gnu\\arm\\4.9
 3030              		.file 11 "..\\kronos-c-sdk\\src\\wolfSSL/wolfssl/wolfcrypt/memory.h"
 3031              		.file 12 "..\\kronos-c-sdk\\src\\wolfSSL/wolfssl/wolfcrypt/hash.h"
 3032              		.section	.debug_info,"",%progbits
 3033              	.Ldebug_info0:
 3034 0000 F3250000 		.4byte	0x25f3
 3035 0004 0400     		.2byte	0x4
 3036 0006 00000000 		.4byte	.Ldebug_abbrev0
 3037 000a 04       		.byte	0x4
 3038 000b 01       		.uleb128 0x1
 3039 000c 950C0000 		.4byte	.LASF294
 3040 0010 01       		.byte	0x1
 3041 0011 15080000 		.4byte	.LASF295
 3042 0015 1B0B0000 		.4byte	.LASF296
 3043 0019 18000000 		.4byte	.Ldebug_ranges0+0x18
 3044 001d 00000000 		.4byte	0
 3045 0021 00000000 		.4byte	.Ldebug_line0
 3046 0025 02       		.uleb128 0x2
 3047 0026 04       		.byte	0x4
 3048 0027 05       		.byte	0x5
 3049 0028 696E7400 		.ascii	"int\000"
 3050 002c 03       		.uleb128 0x3
 3051 002d CF0E0000 		.4byte	.LASF2
 3052 0031 03       		.byte	0x3
 3053 0032 2D       		.byte	0x2d
 3054 0033 37000000 		.4byte	0x37
 3055 0037 04       		.uleb128 0x4
 3056 0038 01       		.byte	0x1
 3057 0039 08       		.byte	0x8
 3058 003a 360F0000 		.4byte	.LASF0
 3059 003e 04       		.uleb128 0x4
 3060 003f 02       		.byte	0x2
 3061 0040 07       		.byte	0x7
 3062 0041 0A100000 		.4byte	.LASF1
 3063 0045 03       		.uleb128 0x3
 3064 0046 5B0C0000 		.4byte	.LASF3
 3065 004a 03       		.byte	0x3
 3066 004b 30       		.byte	0x30
 3067 004c 50000000 		.4byte	0x50
 3068 0050 04       		.uleb128 0x4
ARM GAS  C:\Users\ddemidov\AppData\Local\Temp\ccr947bU.s 			page 84


 3069 0051 04       		.byte	0x4
 3070 0052 07       		.byte	0x7
 3071 0053 30010000 		.4byte	.LASF4
 3072 0057 04       		.uleb128 0x4
 3073 0058 08       		.byte	0x8
 3074 0059 07       		.byte	0x7
 3075 005a 4C040000 		.4byte	.LASF5
 3076 005e 03       		.uleb128 0x3
 3077 005f 67050000 		.4byte	.LASF6
 3078 0063 04       		.byte	0x4
 3079 0064 D4       		.byte	0xd4
 3080 0065 50000000 		.4byte	0x50
 3081 0069 04       		.uleb128 0x4
 3082 006a 01       		.byte	0x1
 3083 006b 06       		.byte	0x6
 3084 006c FE0F0000 		.4byte	.LASF7
 3085 0070 04       		.uleb128 0x4
 3086 0071 02       		.byte	0x2
 3087 0072 05       		.byte	0x5
 3088 0073 AB0B0000 		.4byte	.LASF8
 3089 0077 04       		.uleb128 0x4
 3090 0078 04       		.byte	0x4
 3091 0079 05       		.byte	0x5
 3092 007a EF0B0000 		.4byte	.LASF9
 3093 007e 04       		.uleb128 0x4
 3094 007f 04       		.byte	0x4
 3095 0080 07       		.byte	0x7
 3096 0081 360E0000 		.4byte	.LASF10
 3097 0085 04       		.uleb128 0x4
 3098 0086 08       		.byte	0x8
 3099 0087 05       		.byte	0x5
 3100 0088 EF070000 		.4byte	.LASF11
 3101 008c 04       		.uleb128 0x4
 3102 008d 04       		.byte	0x4
 3103 008e 07       		.byte	0x7
 3104 008f 2D0E0000 		.4byte	.LASF12
 3105 0093 05       		.uleb128 0x5
 3106 0094 04       		.byte	0x4
 3107 0095 06       		.uleb128 0x6
 3108 0096 04       		.byte	0x4
 3109 0097 37000000 		.4byte	0x37
 3110 009b 04       		.uleb128 0x4
 3111 009c 01       		.byte	0x1
 3112 009d 08       		.byte	0x8
 3113 009e CC060000 		.4byte	.LASF13
 3114 00a2 06       		.uleb128 0x6
 3115 00a3 04       		.byte	0x4
 3116 00a4 A8000000 		.4byte	0xa8
 3117 00a8 07       		.uleb128 0x7
 3118 00a9 08       		.uleb128 0x8
 3119 00aa 01       		.byte	0x1
 3120 00ab 03       		.byte	0x3
 3121 00ac F2       		.byte	0xf2
 3122 00ad 02020000 		.4byte	0x202
 3123 00b1 09       		.uleb128 0x9
 3124 00b2 16030000 		.4byte	.LASF14
 3125 00b6 01       		.sleb128 1
ARM GAS  C:\Users\ddemidov\AppData\Local\Temp\ccr947bU.s 			page 85


 3126 00b7 09       		.uleb128 0x9
 3127 00b8 000F0000 		.4byte	.LASF15
 3128 00bc 02       		.sleb128 2
 3129 00bd 09       		.uleb128 0x9
 3130 00be 960F0000 		.4byte	.LASF16
 3131 00c2 03       		.sleb128 3
 3132 00c3 09       		.uleb128 0x9
 3133 00c4 230D0000 		.4byte	.LASF17
 3134 00c8 04       		.sleb128 4
 3135 00c9 09       		.uleb128 0x9
 3136 00ca C10F0000 		.4byte	.LASF18
 3137 00ce 05       		.sleb128 5
 3138 00cf 09       		.uleb128 0x9
 3139 00d0 11040000 		.4byte	.LASF19
 3140 00d4 06       		.sleb128 6
 3141 00d5 09       		.uleb128 0x9
 3142 00d6 63040000 		.4byte	.LASF20
 3143 00da 07       		.sleb128 7
 3144 00db 09       		.uleb128 0x9
 3145 00dc 580F0000 		.4byte	.LASF21
 3146 00e0 08       		.sleb128 8
 3147 00e1 09       		.uleb128 0x9
 3148 00e2 D5080000 		.4byte	.LASF22
 3149 00e6 09       		.sleb128 9
 3150 00e7 09       		.uleb128 0x9
 3151 00e8 17090000 		.4byte	.LASF23
 3152 00ec 0A       		.sleb128 10
 3153 00ed 09       		.uleb128 0x9
 3154 00ee DB0B0000 		.4byte	.LASF24
 3155 00f2 0B       		.sleb128 11
 3156 00f3 09       		.uleb128 0x9
 3157 00f4 80030000 		.4byte	.LASF25
 3158 00f8 0C       		.sleb128 12
 3159 00f9 09       		.uleb128 0x9
 3160 00fa B50B0000 		.4byte	.LASF26
 3161 00fe 0D       		.sleb128 13
 3162 00ff 09       		.uleb128 0x9
 3163 0100 E6000000 		.4byte	.LASF27
 3164 0104 0E       		.sleb128 14
 3165 0105 09       		.uleb128 0x9
 3166 0106 96040000 		.4byte	.LASF28
 3167 010a 0F       		.sleb128 15
 3168 010b 09       		.uleb128 0x9
 3169 010c 71090000 		.4byte	.LASF29
 3170 0110 10       		.sleb128 16
 3171 0111 09       		.uleb128 0x9
 3172 0112 B5100000 		.4byte	.LASF30
 3173 0116 11       		.sleb128 17
 3174 0117 09       		.uleb128 0x9
 3175 0118 090C0000 		.4byte	.LASF31
 3176 011c 12       		.sleb128 18
 3177 011d 09       		.uleb128 0x9
 3178 011e 48110000 		.4byte	.LASF32
 3179 0122 13       		.sleb128 19
 3180 0123 09       		.uleb128 0x9
 3181 0124 32030000 		.4byte	.LASF33
 3182 0128 14       		.sleb128 20
ARM GAS  C:\Users\ddemidov\AppData\Local\Temp\ccr947bU.s 			page 86


 3183 0129 09       		.uleb128 0x9
 3184 012a 5C110000 		.4byte	.LASF34
 3185 012e 15       		.sleb128 21
 3186 012f 09       		.uleb128 0x9
 3187 0130 F9080000 		.4byte	.LASF35
 3188 0134 16       		.sleb128 22
 3189 0135 09       		.uleb128 0x9
 3190 0136 770D0000 		.4byte	.LASF36
 3191 013a 17       		.sleb128 23
 3192 013b 09       		.uleb128 0x9
 3193 013c 1D100000 		.4byte	.LASF37
 3194 0140 18       		.sleb128 24
 3195 0141 09       		.uleb128 0x9
 3196 0142 3B0A0000 		.4byte	.LASF38
 3197 0146 19       		.sleb128 25
 3198 0147 09       		.uleb128 0x9
 3199 0148 7C0B0000 		.4byte	.LASF39
 3200 014c 1A       		.sleb128 26
 3201 014d 09       		.uleb128 0x9
 3202 014e E70E0000 		.4byte	.LASF40
 3203 0152 1B       		.sleb128 27
 3204 0153 09       		.uleb128 0x9
 3205 0154 FD070000 		.4byte	.LASF41
 3206 0158 1C       		.sleb128 28
 3207 0159 09       		.uleb128 0x9
 3208 015a DF020000 		.4byte	.LASF42
 3209 015e 1D       		.sleb128 29
 3210 015f 09       		.uleb128 0x9
 3211 0160 29060000 		.4byte	.LASF43
 3212 0164 1E       		.sleb128 30
 3213 0165 09       		.uleb128 0x9
 3214 0166 4C060000 		.4byte	.LASF44
 3215 016a 1F       		.sleb128 31
 3216 016b 09       		.uleb128 0x9
 3217 016c B6030000 		.4byte	.LASF45
 3218 0170 20       		.sleb128 32
 3219 0171 09       		.uleb128 0x9
 3220 0172 FC0A0000 		.4byte	.LASF46
 3221 0176 21       		.sleb128 33
 3222 0177 09       		.uleb128 0x9
 3223 0178 160A0000 		.4byte	.LASF47
 3224 017c 22       		.sleb128 34
 3225 017d 09       		.uleb128 0x9
 3226 017e B6080000 		.4byte	.LASF48
 3227 0182 23       		.sleb128 35
 3228 0183 09       		.uleb128 0x9
 3229 0184 3D090000 		.4byte	.LASF49
 3230 0188 24       		.sleb128 36
 3231 0189 09       		.uleb128 0x9
 3232 018a AE050000 		.4byte	.LASF50
 3233 018e 25       		.sleb128 37
 3234 018f 09       		.uleb128 0x9
 3235 0190 640B0000 		.4byte	.LASF51
 3236 0194 26       		.sleb128 38
 3237 0195 09       		.uleb128 0x9
 3238 0196 51050000 		.4byte	.LASF52
 3239 019a 27       		.sleb128 39
ARM GAS  C:\Users\ddemidov\AppData\Local\Temp\ccr947bU.s 			page 87


 3240 019b 09       		.uleb128 0x9
 3241 019c 7E0F0000 		.4byte	.LASF53
 3242 01a0 28       		.sleb128 40
 3243 01a1 09       		.uleb128 0x9
 3244 01a2 71070000 		.4byte	.LASF54
 3245 01a6 29       		.sleb128 41
 3246 01a7 09       		.uleb128 0x9
 3247 01a8 7F050000 		.4byte	.LASF55
 3248 01ac 2A       		.sleb128 42
 3249 01ad 09       		.uleb128 0x9
 3250 01ae A3070000 		.4byte	.LASF56
 3251 01b2 2B       		.sleb128 43
 3252 01b3 09       		.uleb128 0x9
 3253 01b4 28000000 		.4byte	.LASF57
 3254 01b8 2C       		.sleb128 44
 3255 01b9 09       		.uleb128 0x9
 3256 01ba E0060000 		.4byte	.LASF58
 3257 01be 2D       		.sleb128 45
 3258 01bf 09       		.uleb128 0x9
 3259 01c0 6C030000 		.4byte	.LASF59
 3260 01c4 2E       		.sleb128 46
 3261 01c5 09       		.uleb128 0x9
 3262 01c6 D90F0000 		.4byte	.LASF60
 3263 01ca 2F       		.sleb128 47
 3264 01cb 09       		.uleb128 0x9
 3265 01cc 0B000000 		.4byte	.LASF61
 3266 01d0 30       		.sleb128 48
 3267 01d1 09       		.uleb128 0x9
 3268 01d2 17070000 		.4byte	.LASF62
 3269 01d6 31       		.sleb128 49
 3270 01d7 09       		.uleb128 0x9
 3271 01d8 D7010000 		.4byte	.LASF63
 3272 01dc 32       		.sleb128 50
 3273 01dd 09       		.uleb128 0x9
 3274 01de C80A0000 		.4byte	.LASF64
 3275 01e2 33       		.sleb128 51
 3276 01e3 09       		.uleb128 0x9
 3277 01e4 B00A0000 		.4byte	.LASF65
 3278 01e8 34       		.sleb128 52
 3279 01e9 09       		.uleb128 0x9
 3280 01ea EB090000 		.4byte	.LASF66
 3281 01ee 35       		.sleb128 53
 3282 01ef 09       		.uleb128 0x9
 3283 01f0 F80B0000 		.4byte	.LASF67
 3284 01f4 36       		.sleb128 54
 3285 01f5 09       		.uleb128 0x9
 3286 01f6 87010000 		.4byte	.LASF68
 3287 01fa 37       		.sleb128 55
 3288 01fb 09       		.uleb128 0x9
 3289 01fc B5070000 		.4byte	.LASF69
 3290 0200 38       		.sleb128 56
 3291 0201 00       		.byte	0
 3292 0202 08       		.uleb128 0x8
 3293 0203 01       		.byte	0x1
 3294 0204 05       		.byte	0x5
 3295 0205 30       		.byte	0x30
 3296 0206 24020000 		.4byte	0x224
ARM GAS  C:\Users\ddemidov\AppData\Local\Temp\ccr947bU.s 			page 88


 3297 020a 09       		.uleb128 0x9
 3298 020b 9B080000 		.4byte	.LASF70
 3299 020f 02       		.sleb128 2
 3300 0210 09       		.uleb128 0x9
 3301 0211 DE100000 		.4byte	.LASF71
 3302 0215 C000     		.sleb128 64
 3303 0217 09       		.uleb128 0x9
 3304 0218 A70D0000 		.4byte	.LASF72
 3305 021c 20       		.sleb128 32
 3306 021d 09       		.uleb128 0x9
 3307 021e E9080000 		.4byte	.LASF73
 3308 0222 38       		.sleb128 56
 3309 0223 00       		.byte	0
 3310 0224 0A       		.uleb128 0xa
 3311 0225 A0050000 		.4byte	.LASF74
 3312 0229 04       		.byte	0x4
 3313 022a 06       		.byte	0x6
 3314 022b 3F       		.byte	0x3f
 3315 022c 3C020000 		.4byte	0x23c
 3316 0230 0B       		.uleb128 0xb
 3317 0231 666400   		.ascii	"fd\000"
 3318 0234 06       		.byte	0x6
 3319 0235 43       		.byte	0x43
 3320 0236 25000000 		.4byte	0x25
 3321 023a 00       		.byte	0
 3322 023b 00       		.byte	0
 3323 023c 03       		.uleb128 0x3
 3324 023d A0050000 		.4byte	.LASF74
 3325 0241 06       		.byte	0x6
 3326 0242 45       		.byte	0x45
 3327 0243 24020000 		.4byte	0x224
 3328 0247 0A       		.uleb128 0xa
 3329 0248 3D060000 		.4byte	.LASF75
 3330 024c 0C       		.byte	0xc
 3331 024d 06       		.byte	0x6
 3332 024e 51       		.byte	0x51
 3333 024f 78020000 		.4byte	0x278
 3334 0253 0C       		.uleb128 0xc
 3335 0254 23000000 		.4byte	.LASF76
 3336 0258 06       		.byte	0x6
 3337 0259 52       		.byte	0x52
 3338 025a 7D020000 		.4byte	0x27d
 3339 025e 00       		.byte	0
 3340 025f 0C       		.uleb128 0xc
 3341 0260 010A0000 		.4byte	.LASF77
 3342 0264 06       		.byte	0x6
 3343 0265 53       		.byte	0x53
 3344 0266 3C020000 		.4byte	0x23c
 3345 026a 04       		.byte	0x4
 3346 026b 0C       		.uleb128 0xc
 3347 026c 59070000 		.4byte	.LASF78
 3348 0270 06       		.byte	0x6
 3349 0271 54       		.byte	0x54
 3350 0272 2C000000 		.4byte	0x2c
 3351 0276 08       		.byte	0x8
 3352 0277 00       		.byte	0
 3353 0278 0D       		.uleb128 0xd
ARM GAS  C:\Users\ddemidov\AppData\Local\Temp\ccr947bU.s 			page 89


 3354 0279 830C0000 		.4byte	.LASF297
 3355 027d 06       		.uleb128 0x6
 3356 027e 04       		.byte	0x4
 3357 027f 78020000 		.4byte	0x278
 3358 0283 03       		.uleb128 0x3
 3359 0284 3D060000 		.4byte	.LASF75
 3360 0288 06       		.byte	0x6
 3361 0289 55       		.byte	0x55
 3362 028a 47020000 		.4byte	0x247
 3363 028e 03       		.uleb128 0x3
 3364 028f 550A0000 		.4byte	.LASF79
 3365 0293 07       		.byte	0x7
 3366 0294 72       		.byte	0x72
 3367 0295 50000000 		.4byte	0x50
 3368 0299 0E       		.uleb128 0xe
 3369 029a 10       		.byte	0x10
 3370 029b 07       		.byte	0x7
 3371 029c B5       		.byte	0xb5
 3372 029d D1020000 		.4byte	0x2d1
 3373 02a1 0C       		.uleb128 0xc
 3374 02a2 29050000 		.4byte	.LASF80
 3375 02a6 07       		.byte	0x7
 3376 02a7 B6       		.byte	0xb6
 3377 02a8 25000000 		.4byte	0x25
 3378 02ac 00       		.byte	0
 3379 02ad 0C       		.uleb128 0xc
 3380 02ae A50B0000 		.4byte	.LASF81
 3381 02b2 07       		.byte	0x7
 3382 02b3 B6       		.byte	0xb6
 3383 02b4 25000000 		.4byte	0x25
 3384 02b8 04       		.byte	0x4
 3385 02b9 0C       		.uleb128 0xc
 3386 02ba 6E050000 		.4byte	.LASF82
 3387 02be 07       		.byte	0x7
 3388 02bf B6       		.byte	0xb6
 3389 02c0 25000000 		.4byte	0x25
 3390 02c4 08       		.byte	0x8
 3391 02c5 0B       		.uleb128 0xb
 3392 02c6 647000   		.ascii	"dp\000"
 3393 02c9 07       		.byte	0x7
 3394 02ca B7       		.byte	0xb7
 3395 02cb D1020000 		.4byte	0x2d1
 3396 02cf 0C       		.byte	0xc
 3397 02d0 00       		.byte	0
 3398 02d1 06       		.uleb128 0x6
 3399 02d2 04       		.byte	0x4
 3400 02d3 8E020000 		.4byte	0x28e
 3401 02d7 03       		.uleb128 0x3
 3402 02d8 77040000 		.4byte	.LASF83
 3403 02dc 07       		.byte	0x7
 3404 02dd B8       		.byte	0xb8
 3405 02de 99020000 		.4byte	0x299
 3406 02e2 0F       		.uleb128 0xf
 3407 02e3 45080000 		.4byte	.LASF298
 3408 02e7 01       		.byte	0x1
 3409 02e8 0C       		.byte	0xc
 3410 02e9 21       		.byte	0x21
ARM GAS  C:\Users\ddemidov\AppData\Local\Temp\ccr947bU.s 			page 90


 3411 02ea 1F030000 		.4byte	0x31f
 3412 02ee 09       		.uleb128 0x9
 3413 02ef F7060000 		.4byte	.LASF84
 3414 02f3 00       		.sleb128 0
 3415 02f4 09       		.uleb128 0x9
 3416 02f5 960E0000 		.4byte	.LASF85
 3417 02f9 01       		.sleb128 1
 3418 02fa 09       		.uleb128 0x9
 3419 02fb A70E0000 		.4byte	.LASF86
 3420 02ff 02       		.sleb128 2
 3421 0300 09       		.uleb128 0x9
 3422 0301 B80E0000 		.4byte	.LASF87
 3423 0305 03       		.sleb128 3
 3424 0306 09       		.uleb128 0x9
 3425 0307 60070000 		.4byte	.LASF88
 3426 030b 04       		.sleb128 4
 3427 030c 09       		.uleb128 0x9
 3428 030d 30070000 		.4byte	.LASF89
 3429 0311 05       		.sleb128 5
 3430 0312 09       		.uleb128 0x9
 3431 0313 64000000 		.4byte	.LASF90
 3432 0317 06       		.sleb128 6
 3433 0318 09       		.uleb128 0x9
 3434 0319 15060000 		.4byte	.LASF91
 3435 031d 07       		.sleb128 7
 3436 031e 00       		.byte	0
 3437 031f 08       		.uleb128 0x8
 3438 0320 01       		.byte	0x1
 3439 0321 08       		.byte	0x8
 3440 0322 39       		.byte	0x39
 3441 0323 34030000 		.4byte	0x334
 3442 0327 09       		.uleb128 0x9
 3443 0328 00000000 		.4byte	.LASF92
 3444 032c 00       		.sleb128 0
 3445 032d 09       		.uleb128 0x9
 3446 032e 73050000 		.4byte	.LASF93
 3447 0332 01       		.sleb128 1
 3448 0333 00       		.byte	0
 3449 0334 0A       		.uleb128 0xa
 3450 0335 CE070000 		.4byte	.LASF94
 3451 0339 88       		.byte	0x88
 3452 033a 08       		.byte	0x8
 3453 033b 40       		.byte	0x40
 3454 033c AB030000 		.4byte	0x3ab
 3455 0340 0B       		.uleb128 0xb
 3456 0341 6E00     		.ascii	"n\000"
 3457 0343 08       		.byte	0x8
 3458 0344 41       		.byte	0x41
 3459 0345 D7020000 		.4byte	0x2d7
 3460 0349 00       		.byte	0
 3461 034a 0B       		.uleb128 0xb
 3462 034b 6500     		.ascii	"e\000"
 3463 034d 08       		.byte	0x8
 3464 034e 41       		.byte	0x41
 3465 034f D7020000 		.4byte	0x2d7
 3466 0353 10       		.byte	0x10
 3467 0354 0B       		.uleb128 0xb
ARM GAS  C:\Users\ddemidov\AppData\Local\Temp\ccr947bU.s 			page 91


 3468 0355 6400     		.ascii	"d\000"
 3469 0357 08       		.byte	0x8
 3470 0358 41       		.byte	0x41
 3471 0359 D7020000 		.4byte	0x2d7
 3472 035d 20       		.byte	0x20
 3473 035e 0B       		.uleb128 0xb
 3474 035f 7000     		.ascii	"p\000"
 3475 0361 08       		.byte	0x8
 3476 0362 41       		.byte	0x41
 3477 0363 D7020000 		.4byte	0x2d7
 3478 0367 30       		.byte	0x30
 3479 0368 0B       		.uleb128 0xb
 3480 0369 7100     		.ascii	"q\000"
 3481 036b 08       		.byte	0x8
 3482 036c 41       		.byte	0x41
 3483 036d D7020000 		.4byte	0x2d7
 3484 0371 40       		.byte	0x40
 3485 0372 0B       		.uleb128 0xb
 3486 0373 645000   		.ascii	"dP\000"
 3487 0376 08       		.byte	0x8
 3488 0377 41       		.byte	0x41
 3489 0378 D7020000 		.4byte	0x2d7
 3490 037c 50       		.byte	0x50
 3491 037d 0B       		.uleb128 0xb
 3492 037e 645100   		.ascii	"dQ\000"
 3493 0381 08       		.byte	0x8
 3494 0382 41       		.byte	0x41
 3495 0383 D7020000 		.4byte	0x2d7
 3496 0387 60       		.byte	0x60
 3497 0388 0B       		.uleb128 0xb
 3498 0389 7500     		.ascii	"u\000"
 3499 038b 08       		.byte	0x8
 3500 038c 41       		.byte	0x41
 3501 038d D7020000 		.4byte	0x2d7
 3502 0391 70       		.byte	0x70
 3503 0392 0C       		.uleb128 0xc
 3504 0393 1E0F0000 		.4byte	.LASF95
 3505 0397 08       		.byte	0x8
 3506 0398 42       		.byte	0x42
 3507 0399 25000000 		.4byte	0x25
 3508 039d 80       		.byte	0x80
 3509 039e 0C       		.uleb128 0xc
 3510 039f B3040000 		.4byte	.LASF96
 3511 03a3 08       		.byte	0x8
 3512 03a4 43       		.byte	0x43
 3513 03a5 93000000 		.4byte	0x93
 3514 03a9 84       		.byte	0x84
 3515 03aa 00       		.byte	0
 3516 03ab 03       		.uleb128 0x3
 3517 03ac CE070000 		.4byte	.LASF94
 3518 03b0 08       		.byte	0x8
 3519 03b1 52       		.byte	0x52
 3520 03b2 34030000 		.4byte	0x334
 3521 03b6 08       		.uleb128 0x8
 3522 03b7 02       		.byte	0x2
 3523 03b8 09       		.byte	0x9
 3524 03b9 27       		.byte	0x27
ARM GAS  C:\Users\ddemidov\AppData\Local\Temp\ccr947bU.s 			page 92


 3525 03ba CF060000 		.4byte	0x6cf
 3526 03be 09       		.uleb128 0x9
 3527 03bf CA000000 		.4byte	.LASF97
 3528 03c3 9C7F     		.sleb128 -100
 3529 03c5 09       		.uleb128 0x9
 3530 03c6 E5030000 		.4byte	.LASF98
 3531 03ca 9B7F     		.sleb128 -101
 3532 03cc 09       		.uleb128 0x9
 3533 03cd 780C0000 		.4byte	.LASF99
 3534 03d1 9A7F     		.sleb128 -102
 3535 03d3 09       		.uleb128 0x9
 3536 03d4 44100000 		.4byte	.LASF100
 3537 03d8 997F     		.sleb128 -103
 3538 03da 09       		.uleb128 0x9
 3539 03db 2B0F0000 		.4byte	.LASF101
 3540 03df 987F     		.sleb128 -104
 3541 03e1 09       		.uleb128 0x9
 3542 03e2 FD100000 		.4byte	.LASF102
 3543 03e6 977F     		.sleb128 -105
 3544 03e8 09       		.uleb128 0x9
 3545 03e9 3C110000 		.4byte	.LASF103
 3546 03ed 967F     		.sleb128 -106
 3547 03ef 09       		.uleb128 0x9
 3548 03f0 EA0F0000 		.4byte	.LASF104
 3549 03f4 927F     		.sleb128 -110
 3550 03f6 09       		.uleb128 0x9
 3551 03f7 51080000 		.4byte	.LASF105
 3552 03fb 917F     		.sleb128 -111
 3553 03fd 09       		.uleb128 0x9
 3554 03fe F1010000 		.4byte	.LASF106
 3555 0402 907F     		.sleb128 -112
 3556 0404 09       		.uleb128 0x9
 3557 0405 230F0000 		.4byte	.LASF107
 3558 0409 8F7F     		.sleb128 -113
 3559 040b 09       		.uleb128 0x9
 3560 040c 52030000 		.4byte	.LASF108
 3561 0410 8E7F     		.sleb128 -114
 3562 0412 09       		.uleb128 0x9
 3563 0413 F30A0000 		.4byte	.LASF109
 3564 0417 8D7F     		.sleb128 -115
 3565 0419 09       		.uleb128 0x9
 3566 041a 7E040000 		.4byte	.LASF110
 3567 041e 8C7F     		.sleb128 -116
 3568 0420 09       		.uleb128 0x9
 3569 0421 26030000 		.4byte	.LASF111
 3570 0425 8B7F     		.sleb128 -117
 3571 0427 09       		.uleb128 0x9
 3572 0428 920A0000 		.4byte	.LASF112
 3573 042c 8A7F     		.sleb128 -118
 3574 042e 09       		.uleb128 0x9
 3575 042f 120F0000 		.4byte	.LASF113
 3576 0433 897F     		.sleb128 -119
 3577 0435 09       		.uleb128 0x9
 3578 0436 620C0000 		.4byte	.LASF114
 3579 043a 887F     		.sleb128 -120
 3580 043c 09       		.uleb128 0x9
 3581 043d 94090000 		.4byte	.LASF115
ARM GAS  C:\Users\ddemidov\AppData\Local\Temp\ccr947bU.s 			page 93


 3582 0441 877F     		.sleb128 -121
 3583 0443 09       		.uleb128 0x9
 3584 0444 34100000 		.4byte	.LASF116
 3585 0448 837F     		.sleb128 -125
 3586 044a 09       		.uleb128 0x9
 3587 044b B1010000 		.4byte	.LASF117
 3588 044f FE7E     		.sleb128 -130
 3589 0451 09       		.uleb128 0x9
 3590 0452 A6040000 		.4byte	.LASF118
 3591 0456 FD7E     		.sleb128 -131
 3592 0458 09       		.uleb128 0x9
 3593 0459 CC080000 		.4byte	.LASF119
 3594 045d FC7E     		.sleb128 -132
 3595 045f 09       		.uleb128 0x9
 3596 0460 CE100000 		.4byte	.LASF120
 3597 0464 FB7E     		.sleb128 -133
 3598 0466 09       		.uleb128 0x9
 3599 0467 600D0000 		.4byte	.LASF121
 3600 046b FA7E     		.sleb128 -134
 3601 046d 09       		.uleb128 0x9
 3602 046e A4020000 		.4byte	.LASF122
 3603 0472 F97E     		.sleb128 -135
 3604 0474 09       		.uleb128 0x9
 3605 0475 4F090000 		.4byte	.LASF123
 3606 0479 F87E     		.sleb128 -136
 3607 047b 09       		.uleb128 0x9
 3608 047c C7030000 		.4byte	.LASF124
 3609 0480 F77E     		.sleb128 -137
 3610 0482 09       		.uleb128 0x9
 3611 0483 260C0000 		.4byte	.LASF125
 3612 0487 F67E     		.sleb128 -138
 3613 0489 09       		.uleb128 0x9
 3614 048a 89070000 		.4byte	.LASF126
 3615 048e F57E     		.sleb128 -139
 3616 0490 09       		.uleb128 0x9
 3617 0491 69010000 		.4byte	.LASF127
 3618 0495 F47E     		.sleb128 -140
 3619 0497 09       		.uleb128 0x9
 3620 0498 A70F0000 		.4byte	.LASF128
 3621 049c F37E     		.sleb128 -141
 3622 049e 09       		.uleb128 0x9
 3623 049f 350D0000 		.4byte	.LASF129
 3624 04a3 F27E     		.sleb128 -142
 3625 04a5 09       		.uleb128 0x9
 3626 04a6 09070000 		.4byte	.LASF130
 3627 04aa F17E     		.sleb128 -143
 3628 04ac 09       		.uleb128 0x9
 3629 04ad 39050000 		.4byte	.LASF131
 3630 04b1 F07E     		.sleb128 -144
 3631 04b3 09       		.uleb128 0x9
 3632 04b4 7E060000 		.4byte	.LASF132
 3633 04b8 EF7E     		.sleb128 -145
 3634 04ba 09       		.uleb128 0x9
 3635 04bb CC0B0000 		.4byte	.LASF133
 3636 04bf EE7E     		.sleb128 -146
 3637 04c1 09       		.uleb128 0x9
 3638 04c2 FE040000 		.4byte	.LASF134
ARM GAS  C:\Users\ddemidov\AppData\Local\Temp\ccr947bU.s 			page 94


 3639 04c6 ED7E     		.sleb128 -147
 3640 04c8 09       		.uleb128 0x9
 3641 04c9 DA050000 		.4byte	.LASF135
 3642 04cd EC7E     		.sleb128 -148
 3643 04cf 09       		.uleb128 0x9
 3644 04d0 A8030000 		.4byte	.LASF136
 3645 04d4 EB7E     		.sleb128 -149
 3646 04d6 09       		.uleb128 0x9
 3647 04d7 0C020000 		.4byte	.LASF137
 3648 04db EA7E     		.sleb128 -150
 3649 04dd 09       		.uleb128 0x9
 3650 04de C70D0000 		.4byte	.LASF138
 3651 04e2 E97E     		.sleb128 -151
 3652 04e4 09       		.uleb128 0x9
 3653 04e5 8D000000 		.4byte	.LASF139
 3654 04e9 E87E     		.sleb128 -152
 3655 04eb 09       		.uleb128 0x9
 3656 04ec BF050000 		.4byte	.LASF140
 3657 04f0 E77E     		.sleb128 -153
 3658 04f2 09       		.uleb128 0x9
 3659 04f3 6F100000 		.4byte	.LASF141
 3660 04f7 E67E     		.sleb128 -154
 3661 04f9 09       		.uleb128 0x9
 3662 04fa 5B0E0000 		.4byte	.LASF142
 3663 04fe E57E     		.sleb128 -155
 3664 0500 09       		.uleb128 0x9
 3665 0501 87040000 		.4byte	.LASF143
 3666 0505 E47E     		.sleb128 -156
 3667 0507 09       		.uleb128 0x9
 3668 0508 7B100000 		.4byte	.LASF144
 3669 050c E37E     		.sleb128 -157
 3670 050e 09       		.uleb128 0x9
 3671 050f C8090000 		.4byte	.LASF145
 3672 0513 E27E     		.sleb128 -158
 3673 0515 09       		.uleb128 0x9
 3674 0516 BD020000 		.4byte	.LASF146
 3675 051a E17E     		.sleb128 -159
 3676 051c 09       		.uleb128 0x9
 3677 051d 97060000 		.4byte	.LASF147
 3678 0521 E07E     		.sleb128 -160
 3679 0523 09       		.uleb128 0x9
 3680 0524 FE010000 		.4byte	.LASF148
 3681 0528 D67E     		.sleb128 -170
 3682 052a 09       		.uleb128 0x9
 3683 052b 7F000000 		.4byte	.LASF149
 3684 052f D57E     		.sleb128 -171
 3685 0531 09       		.uleb128 0x9
 3686 0532 98030000 		.4byte	.LASF150
 3687 0536 D47E     		.sleb128 -172
 3688 0538 09       		.uleb128 0x9
 3689 0539 F1040000 		.4byte	.LASF151
 3690 053d D37E     		.sleb128 -173
 3691 053f 09       		.uleb128 0x9
 3692 0540 80080000 		.4byte	.LASF152
 3693 0544 D27E     		.sleb128 -174
 3694 0546 09       		.uleb128 0x9
 3695 0547 D5070000 		.4byte	.LASF153
ARM GAS  C:\Users\ddemidov\AppData\Local\Temp\ccr947bU.s 			page 95


 3696 054b D17E     		.sleb128 -175
 3697 054d 09       		.uleb128 0x9
 3698 054e 8C0D0000 		.4byte	.LASF154
 3699 0552 D07E     		.sleb128 -176
 3700 0554 09       		.uleb128 0x9
 3701 0555 100B0000 		.4byte	.LASF155
 3702 0559 CF7E     		.sleb128 -177
 3703 055b 09       		.uleb128 0x9
 3704 055c FF000000 		.4byte	.LASF156
 3705 0560 CC7E     		.sleb128 -180
 3706 0562 09       		.uleb128 0x9
 3707 0563 59020000 		.4byte	.LASF157
 3708 0567 CB7E     		.sleb128 -181
 3709 0569 09       		.uleb128 0x9
 3710 056a 63090000 		.4byte	.LASF158
 3711 056e CA7E     		.sleb128 -182
 3712 0570 09       		.uleb128 0x9
 3713 0571 9E090000 		.4byte	.LASF159
 3714 0575 C97E     		.sleb128 -183
 3715 0577 09       		.uleb128 0x9
 3716 0578 68020000 		.4byte	.LASF160
 3717 057c C87E     		.sleb128 -184
 3718 057e 09       		.uleb128 0x9
 3719 057f 6D0A0000 		.4byte	.LASF161
 3720 0583 C77E     		.sleb128 -185
 3721 0585 09       		.uleb128 0x9
 3722 0586 F0100000 		.4byte	.LASF162
 3723 058a C67E     		.sleb128 -186
 3724 058c 09       		.uleb128 0x9
 3725 058d AA080000 		.4byte	.LASF163
 3726 0591 C57E     		.sleb128 -187
 3727 0593 09       		.uleb128 0x9
 3728 0594 FF0D0000 		.4byte	.LASF164
 3729 0598 C47E     		.sleb128 -188
 3730 059a 09       		.uleb128 0x9
 3731 059b 75010000 		.4byte	.LASF165
 3732 059f C37E     		.sleb128 -189
 3733 05a1 09       		.uleb128 0x9
 3734 05a2 6A0F0000 		.4byte	.LASF166
 3735 05a6 C27E     		.sleb128 -190
 3736 05a8 09       		.uleb128 0x9
 3737 05a9 1A0E0000 		.4byte	.LASF167
 3738 05ad C17E     		.sleb128 -191
 3739 05af 09       		.uleb128 0x9
 3740 05b0 950B0000 		.4byte	.LASF168
 3741 05b4 C07E     		.sleb128 -192
 3742 05b6 09       		.uleb128 0x9
 3743 05b7 60060000 		.4byte	.LASF169
 3744 05bb BF7E     		.sleb128 -193
 3745 05bd 09       		.uleb128 0x9
 3746 05be 060A0000 		.4byte	.LASF170
 3747 05c2 BE7E     		.sleb128 -194
 3748 05c4 09       		.uleb128 0x9
 3749 05c5 7B020000 		.4byte	.LASF171
 3750 05c9 BD7E     		.sleb128 -195
 3751 05cb 09       		.uleb128 0x9
 3752 05cc 91100000 		.4byte	.LASF172
ARM GAS  C:\Users\ddemidov\AppData\Local\Temp\ccr947bU.s 			page 96


 3753 05d0 BC7E     		.sleb128 -196
 3754 05d2 09       		.uleb128 0x9
 3755 05d3 C5040000 		.4byte	.LASF173
 3756 05d7 BB7E     		.sleb128 -197
 3757 05d9 09       		.uleb128 0x9
 3758 05da 7F0A0000 		.4byte	.LASF174
 3759 05de BA7E     		.sleb128 -198
 3760 05e0 09       		.uleb128 0x9
 3761 05e1 EC050000 		.4byte	.LASF175
 3762 05e5 B97E     		.sleb128 -199
 3763 05e7 09       		.uleb128 0x9
 3764 05e8 18010000 		.4byte	.LASF176
 3765 05ec B87E     		.sleb128 -200
 3766 05ee 09       		.uleb128 0x9
 3767 05ef 8D060000 		.4byte	.LASF177
 3768 05f3 B77E     		.sleb128 -201
 3769 05f5 09       		.uleb128 0x9
 3770 05f6 E50A0000 		.4byte	.LASF178
 3771 05fa B67E     		.sleb128 -202
 3772 05fc 09       		.uleb128 0x9
 3773 05fd BB000000 		.4byte	.LASF179
 3774 0601 B57E     		.sleb128 -203
 3775 0603 09       		.uleb128 0x9
 3776 0604 3D040000 		.4byte	.LASF180
 3777 0608 B47E     		.sleb128 -204
 3778 060a 09       		.uleb128 0x9
 3779 060b CA050000 		.4byte	.LASF181
 3780 060f B37E     		.sleb128 -205
 3781 0611 09       		.uleb128 0x9
 3782 0612 500D0000 		.4byte	.LASF182
 3783 0616 B27E     		.sleb128 -206
 3784 0618 09       		.uleb128 0x9
 3785 0619 AE090000 		.4byte	.LASF183
 3786 061d B17E     		.sleb128 -207
 3787 061f 09       		.uleb128 0x9
 3788 0620 D80D0000 		.4byte	.LASF184
 3789 0624 B07E     		.sleb128 -208
 3790 0626 09       		.uleb128 0x9
 3791 0627 E80D0000 		.4byte	.LASF185
 3792 062b AF7E     		.sleb128 -209
 3793 062d 09       		.uleb128 0x9
 3794 062e 3B0C0000 		.4byte	.LASF186
 3795 0632 AE7E     		.sleb128 -210
 3796 0634 09       		.uleb128 0x9
 3797 0635 480E0000 		.4byte	.LASF187
 3798 0639 AD7E     		.sleb128 -211
 3799 063b 09       		.uleb128 0x9
 3800 063c 51000000 		.4byte	.LASF188
 3801 0640 AC7E     		.sleb128 -212
 3802 0642 09       		.uleb128 0x9
 3803 0643 2B110000 		.4byte	.LASF189
 3804 0647 AB7E     		.sleb128 -213
 3805 0649 09       		.uleb128 0x9
 3806 064a 90080000 		.4byte	.LASF190
 3807 064e AA7E     		.sleb128 -214
 3808 0650 09       		.uleb128 0x9
 3809 0651 6D0D0000 		.4byte	.LASF191
ARM GAS  C:\Users\ddemidov\AppData\Local\Temp\ccr947bU.s 			page 97


 3810 0655 A97E     		.sleb128 -215
 3811 0657 09       		.uleb128 0x9
 3812 0658 25020000 		.4byte	.LASF192
 3813 065c A87E     		.sleb128 -216
 3814 065e 09       		.uleb128 0x9
 3815 065f 58100000 		.4byte	.LASF193
 3816 0663 A77E     		.sleb128 -217
 3817 0665 09       		.uleb128 0x9
 3818 0666 B8040000 		.4byte	.LASF194
 3819 066a A67E     		.sleb128 -218
 3820 066c 09       		.uleb128 0x9
 3821 066d 96020000 		.4byte	.LASF195
 3822 0671 A57E     		.sleb128 -219
 3823 0673 09       		.uleb128 0x9
 3824 0674 B50F0000 		.4byte	.LASF196
 3825 0678 A47E     		.sleb128 -220
 3826 067a 09       		.uleb128 0x9
 3827 067b 5B080000 		.4byte	.LASF197
 3828 067f A37E     		.sleb128 -221
 3829 0681 09       		.uleb128 0x9
 3830 0682 6E060000 		.4byte	.LASF198
 3831 0686 A17E     		.sleb128 -223
 3832 0688 09       		.uleb128 0x9
 3833 0689 4D0C0000 		.4byte	.LASF199
 3834 068d A07E     		.sleb128 -224
 3835 068f 09       		.uleb128 0x9
 3836 0690 1E020000 		.4byte	.LASF200
 3837 0694 9F7E     		.sleb128 -225
 3838 0696 09       		.uleb128 0x9
 3839 0697 0F0E0000 		.4byte	.LASF201
 3840 069b 9E7E     		.sleb128 -226
 3841 069d 09       		.uleb128 0x9
 3842 069e 5E0A0000 		.4byte	.LASF202
 3843 06a2 9D7E     		.sleb128 -227
 3844 06a4 09       		.uleb128 0x9
 3845 06a5 9E010000 		.4byte	.LASF203
 3846 06a9 9C7E     		.sleb128 -228
 3847 06ab 09       		.uleb128 0x9
 3848 06ac 6B0C0000 		.4byte	.LASF204
 3849 06b0 9B7E     		.sleb128 -229
 3850 06b2 09       		.uleb128 0x9
 3851 06b3 E4070000 		.4byte	.LASF205
 3852 06b7 9A7E     		.sleb128 -230
 3853 06b9 09       		.uleb128 0x9
 3854 06ba 2E050000 		.4byte	.LASF206
 3855 06be 997E     		.sleb128 -231
 3856 06c0 09       		.uleb128 0x9
 3857 06c1 A6060000 		.4byte	.LASF207
 3858 06c5 987E     		.sleb128 -232
 3859 06c7 09       		.uleb128 0x9
 3860 06c8 300C0000 		.4byte	.LASF208
 3861 06cc D47D     		.sleb128 -300
 3862 06ce 00       		.byte	0
 3863 06cf 08       		.uleb128 0x8
 3864 06d0 02       		.byte	0x2
 3865 06d1 01       		.byte	0x1
 3866 06d2 94       		.byte	0x94
ARM GAS  C:\Users\ddemidov\AppData\Local\Temp\ccr947bU.s 			page 98


 3867 06d3 10070000 		.4byte	0x710
 3868 06d7 09       		.uleb128 0x9
 3869 06d8 CC020000 		.4byte	.LASF209
 3870 06dc 00       		.sleb128 0
 3871 06dd 09       		.uleb128 0x9
 3872 06de 03030000 		.4byte	.LASF210
 3873 06e2 01       		.sleb128 1
 3874 06e3 09       		.uleb128 0x9
 3875 06e4 F0030000 		.4byte	.LASF211
 3876 06e8 02       		.sleb128 2
 3877 06e9 09       		.uleb128 0x9
 3878 06ea 29040000 		.4byte	.LASF212
 3879 06ee 03       		.sleb128 3
 3880 06ef 09       		.uleb128 0x9
 3881 06f0 D5000000 		.4byte	.LASF213
 3882 06f4 01       		.sleb128 1
 3883 06f5 09       		.uleb128 0x9
 3884 06f6 850E0000 		.4byte	.LASF214
 3885 06fa 02       		.sleb128 2
 3886 06fb 09       		.uleb128 0x9
 3887 06fc D5090000 		.4byte	.LASF215
 3888 0700 8004     		.sleb128 512
 3889 0702 09       		.uleb128 0x9
 3890 0703 0A090000 		.4byte	.LASF216
 3891 0707 8020     		.sleb128 4096
 3892 0709 09       		.uleb128 0x9
 3893 070a 91050000 		.4byte	.LASF217
 3894 070e 0B       		.sleb128 11
 3895 070f 00       		.byte	0
 3896 0710 10       		.uleb128 0x10
 3897 0711 49070000 		.4byte	.LASF299
 3898 0715 02       		.byte	0x2
 3899 0716 BC       		.byte	0xbc
 3900 0717 25000000 		.4byte	0x25
 3901 071b 03       		.byte	0x3
 3902 071c 52070000 		.4byte	0x752
 3903 0720 11       		.uleb128 0x11
 3904 0721 6100     		.ascii	"a\000"
 3905 0723 02       		.byte	0x2
 3906 0724 BC       		.byte	0xbc
 3907 0725 52070000 		.4byte	0x752
 3908 0729 11       		.uleb128 0x11
 3909 072a 6200     		.ascii	"b\000"
 3910 072c 02       		.byte	0x2
 3911 072d BC       		.byte	0xbc
 3912 072e 52070000 		.4byte	0x752
 3913 0732 12       		.uleb128 0x12
 3914 0733 1F0C0000 		.4byte	.LASF218
 3915 0737 02       		.byte	0x2
 3916 0738 BC       		.byte	0xbc
 3917 0739 25000000 		.4byte	0x25
 3918 073d 13       		.uleb128 0x13
 3919 073e 6900     		.ascii	"i\000"
 3920 0740 02       		.byte	0x2
 3921 0741 BE       		.byte	0xbe
 3922 0742 25000000 		.4byte	0x25
 3923 0746 14       		.uleb128 0x14
ARM GAS  C:\Users\ddemidov\AppData\Local\Temp\ccr947bU.s 			page 99


 3924 0747 BD090000 		.4byte	.LASF219
 3925 074b 02       		.byte	0x2
 3926 074c BF       		.byte	0xbf
 3927 074d 25000000 		.4byte	0x25
 3928 0751 00       		.byte	0
 3929 0752 06       		.uleb128 0x6
 3930 0753 04       		.byte	0x4
 3931 0754 58070000 		.4byte	0x758
 3932 0758 15       		.uleb128 0x15
 3933 0759 2C000000 		.4byte	0x2c
 3934 075d 16       		.uleb128 0x16
 3935 075e F40F0000 		.4byte	.LASF300
 3936 0762 02       		.byte	0x2
 3937 0763 B3       		.byte	0xb3
 3938 0764 03       		.byte	0x3
 3939 0765 89070000 		.4byte	0x789
 3940 0769 11       		.uleb128 0x11
 3941 076a 6D656D00 		.ascii	"mem\000"
 3942 076e 02       		.byte	0x2
 3943 076f B3       		.byte	0xb3
 3944 0770 A2000000 		.4byte	0xa2
 3945 0774 11       		.uleb128 0x11
 3946 0775 6C656E00 		.ascii	"len\000"
 3947 0779 02       		.byte	0x2
 3948 077a B3       		.byte	0xb3
 3949 077b 45000000 		.4byte	0x45
 3950 077f 13       		.uleb128 0x13
 3951 0780 7A00     		.ascii	"z\000"
 3952 0782 02       		.byte	0x2
 3953 0783 B5       		.byte	0xb5
 3954 0784 89070000 		.4byte	0x789
 3955 0788 00       		.byte	0
 3956 0789 06       		.uleb128 0x6
 3957 078a 04       		.byte	0x4
 3958 078b 8F070000 		.4byte	0x78f
 3959 078f 17       		.uleb128 0x17
 3960 0790 2C000000 		.4byte	0x2c
 3961 0794 18       		.uleb128 0x18
 3962 0795 A8010000 		.4byte	.LASF227
 3963 0799 01       		.byte	0x1
 3964 079a B702     		.2byte	0x2b7
 3965 079c 25000000 		.4byte	0x25
 3966 07a0 00000000 		.4byte	.LFB20
 3967 07a4 8E000000 		.4byte	.LFE20-.LFB20
 3968 07a8 01       		.uleb128 0x1
 3969 07a9 9C       		.byte	0x9c
 3970 07aa 2B080000 		.4byte	0x82b
 3971 07ae 19       		.uleb128 0x19
 3972 07af 440F0000 		.4byte	.LASF220
 3973 07b3 01       		.byte	0x1
 3974 07b4 B702     		.2byte	0x2b7
 3975 07b6 52070000 		.4byte	0x752
 3976 07ba 00000000 		.4byte	.LLST0
 3977 07be 19       		.uleb128 0x19
 3978 07bf 09110000 		.4byte	.LASF221
 3979 07c3 01       		.byte	0x1
 3980 07c4 B702     		.2byte	0x2b7
ARM GAS  C:\Users\ddemidov\AppData\Local\Temp\ccr947bU.s 			page 100


 3981 07c6 50000000 		.4byte	0x50
 3982 07ca 2E000000 		.4byte	.LLST1
 3983 07ce 1A       		.uleb128 0x1a
 3984 07cf 78000000 		.4byte	.LASF222
 3985 07d3 01       		.byte	0x1
 3986 07d4 B802     		.2byte	0x2b8
 3987 07d6 2B080000 		.4byte	0x82b
 3988 07da 01       		.uleb128 0x1
 3989 07db 52       		.byte	0x52
 3990 07dc 19       		.uleb128 0x19
 3991 07dd 4F100000 		.4byte	.LASF223
 3992 07e1 01       		.byte	0x1
 3993 07e2 B802     		.2byte	0x2b8
 3994 07e4 2C000000 		.4byte	0x2c
 3995 07e8 4C000000 		.4byte	.LLST2
 3996 07ec 1B       		.uleb128 0x1b
 3997 07ed 880C0000 		.4byte	.LASF224
 3998 07f1 01       		.byte	0x1
 3999 07f2 BA02     		.2byte	0x2ba
 4000 07f4 45000000 		.4byte	0x45
 4001 07f8 86000000 		.4byte	.LLST3
 4002 07fc 1B       		.uleb128 0x1b
 4003 07fd E9040000 		.4byte	.LASF225
 4004 0801 01       		.byte	0x1
 4005 0802 BB02     		.2byte	0x2bb
 4006 0804 45000000 		.4byte	0x45
 4007 0808 99000000 		.4byte	.LLST4
 4008 080c 1C       		.uleb128 0x1c
 4009 080d 6900     		.ascii	"i\000"
 4010 080f 01       		.byte	0x1
 4011 0810 BC02     		.2byte	0x2bc
 4012 0812 45000000 		.4byte	0x45
 4013 0816 CE000000 		.4byte	.LLST5
 4014 081a 1B       		.uleb128 0x1b
 4015 081b 4E0F0000 		.4byte	.LASF226
 4016 081f 01       		.byte	0x1
 4017 0820 BD02     		.2byte	0x2bd
 4018 0822 45000000 		.4byte	0x45
 4019 0826 46010000 		.4byte	.LLST6
 4020 082a 00       		.byte	0
 4021 082b 06       		.uleb128 0x6
 4022 082c 04       		.byte	0x4
 4023 082d 31080000 		.4byte	0x831
 4024 0831 06       		.uleb128 0x6
 4025 0832 04       		.byte	0x4
 4026 0833 2C000000 		.4byte	0x2c
 4027 0837 18       		.uleb128 0x18
 4028 0838 DD0E0000 		.4byte	.LASF228
 4029 083c 01       		.byte	0x1
 4030 083d 1D02     		.2byte	0x21d
 4031 083f 25000000 		.4byte	0x25
 4032 0843 00000000 		.4byte	.LFB17
 4033 0847 80000000 		.4byte	.LFE17-.LFB17
 4034 084b 01       		.uleb128 0x1
 4035 084c 9C       		.byte	0x9c
 4036 084d 50090000 		.4byte	0x950
 4037 0851 19       		.uleb128 0x19
ARM GAS  C:\Users\ddemidov\AppData\Local\Temp\ccr947bU.s 			page 101


 4038 0852 C90E0000 		.4byte	.LASF229
 4039 0856 01       		.byte	0x1
 4040 0857 1D02     		.2byte	0x21d
 4041 0859 52070000 		.4byte	0x752
 4042 085d 74010000 		.4byte	.LLST7
 4043 0861 19       		.uleb128 0x19
 4044 0862 B2000000 		.4byte	.LASF230
 4045 0866 01       		.byte	0x1
 4046 0867 1D02     		.2byte	0x21d
 4047 0869 45000000 		.4byte	0x45
 4048 086d C3010000 		.4byte	.LLST8
 4049 0871 19       		.uleb128 0x19
 4050 0872 440F0000 		.4byte	.LASF220
 4051 0876 01       		.byte	0x1
 4052 0877 1D02     		.2byte	0x21d
 4053 0879 31080000 		.4byte	0x831
 4054 087d FA010000 		.4byte	.LLST9
 4055 0881 19       		.uleb128 0x19
 4056 0882 09110000 		.4byte	.LASF221
 4057 0886 01       		.byte	0x1
 4058 0887 1E02     		.2byte	0x21e
 4059 0889 45000000 		.4byte	0x45
 4060 088d 23020000 		.4byte	.LLST10
 4061 0891 19       		.uleb128 0x19
 4062 0892 4F100000 		.4byte	.LASF223
 4063 0896 01       		.byte	0x1
 4064 0897 1E02     		.2byte	0x21e
 4065 0899 2C000000 		.4byte	0x2c
 4066 089d 5C020000 		.4byte	.LLST11
 4067 08a1 1D       		.uleb128 0x1d
 4068 08a2 726E6700 		.ascii	"rng\000"
 4069 08a6 01       		.byte	0x1
 4070 08a7 1E02     		.2byte	0x21e
 4071 08a9 50090000 		.4byte	0x950
 4072 08ad 88020000 		.4byte	.LLST12
 4073 08b1 1E       		.uleb128 0x1e
 4074 08b2 32000000 		.4byte	.LBB19
 4075 08b6 2A000000 		.4byte	.LBE19-.LBB19
 4076 08ba 0A090000 		.4byte	0x90a
 4077 08be 1B       		.uleb128 0x1b
 4078 08bf 3D010000 		.4byte	.LASF231
 4079 08c3 01       		.byte	0x1
 4080 08c4 2C02     		.2byte	0x22c
 4081 08c6 45000000 		.4byte	0x45
 4082 08ca B4020000 		.4byte	.LLST13
 4083 08ce 1C       		.uleb128 0x1c
 4084 08cf 6900     		.ascii	"i\000"
 4085 08d1 01       		.byte	0x1
 4086 08d2 2C02     		.2byte	0x22c
 4087 08d4 45000000 		.4byte	0x45
 4088 08d8 C7020000 		.4byte	.LLST14
 4089 08dc 1C       		.uleb128 0x1c
 4090 08dd 72657400 		.ascii	"ret\000"
 4091 08e1 01       		.byte	0x1
 4092 08e2 2D02     		.2byte	0x22d
 4093 08e4 25000000 		.4byte	0x25
 4094 08e8 DA020000 		.4byte	.LLST15
ARM GAS  C:\Users\ddemidov\AppData\Local\Temp\ccr947bU.s 			page 102


 4095 08ec 1F       		.uleb128 0x1f
 4096 08ed 42000000 		.4byte	.LVL38
 4097 08f1 F0230000 		.4byte	0x23f0
 4098 08f5 20       		.uleb128 0x20
 4099 08f6 01       		.uleb128 0x1
 4100 08f7 52       		.byte	0x52
 4101 08f8 02       		.uleb128 0x2
 4102 08f9 77       		.byte	0x77
 4103 08fa 00       		.sleb128 0
 4104 08fb 20       		.uleb128 0x20
 4105 08fc 01       		.uleb128 0x1
 4106 08fd 51       		.byte	0x51
 4107 08fe 02       		.uleb128 0x2
 4108 08ff 76       		.byte	0x76
 4109 0900 01       		.sleb128 1
 4110 0901 20       		.uleb128 0x20
 4111 0902 01       		.uleb128 0x1
 4112 0903 50       		.byte	0x50
 4113 0904 03       		.uleb128 0x3
 4114 0905 91       		.byte	0x91
 4115 0906 04       		.sleb128 4
 4116 0907 06       		.byte	0x6
 4117 0908 00       		.byte	0
 4118 0909 00       		.byte	0
 4119 090a 21       		.uleb128 0x21
 4120 090b 30000000 		.4byte	.LVL34
 4121 090f 0F240000 		.4byte	0x240f
 4122 0913 2F090000 		.4byte	0x92f
 4123 0917 20       		.uleb128 0x20
 4124 0918 01       		.uleb128 0x1
 4125 0919 52       		.byte	0x52
 4126 091a 07       		.uleb128 0x7
 4127 091b 75       		.byte	0x75
 4128 091c 00       		.sleb128 0
 4129 091d 78       		.byte	0x78
 4130 091e 00       		.sleb128 0
 4131 091f 1C       		.byte	0x1c
 4132 0920 32       		.byte	0x32
 4133 0921 1C       		.byte	0x1c
 4134 0922 20       		.uleb128 0x20
 4135 0923 01       		.uleb128 0x1
 4136 0924 51       		.byte	0x51
 4137 0925 02       		.uleb128 0x2
 4138 0926 08       		.byte	0x8
 4139 0927 FF       		.byte	0xff
 4140 0928 20       		.uleb128 0x20
 4141 0929 01       		.uleb128 0x1
 4142 092a 50       		.byte	0x50
 4143 092b 02       		.uleb128 0x2
 4144 092c 76       		.byte	0x76
 4145 092d 01       		.sleb128 1
 4146 092e 00       		.byte	0
 4147 092f 1F       		.uleb128 0x1f
 4148 0930 72000000 		.4byte	.LVL43
 4149 0934 2E240000 		.4byte	0x242e
 4150 0938 20       		.uleb128 0x20
 4151 0939 01       		.uleb128 0x1
ARM GAS  C:\Users\ddemidov\AppData\Local\Temp\ccr947bU.s 			page 103


 4152 093a 52       		.byte	0x52
 4153 093b 02       		.uleb128 0x2
 4154 093c 78       		.byte	0x78
 4155 093d 00       		.sleb128 0
 4156 093e 20       		.uleb128 0x20
 4157 093f 01       		.uleb128 0x1
 4158 0940 51       		.byte	0x51
 4159 0941 03       		.uleb128 0x3
 4160 0942 91       		.byte	0x91
 4161 0943 64       		.sleb128 -28
 4162 0944 06       		.byte	0x6
 4163 0945 20       		.uleb128 0x20
 4164 0946 01       		.uleb128 0x1
 4165 0947 50       		.byte	0x50
 4166 0948 05       		.uleb128 0x5
 4167 0949 76       		.byte	0x76
 4168 094a 00       		.sleb128 0
 4169 094b 75       		.byte	0x75
 4170 094c 00       		.sleb128 0
 4171 094d 22       		.byte	0x22
 4172 094e 00       		.byte	0
 4173 094f 00       		.byte	0
 4174 0950 06       		.uleb128 0x6
 4175 0951 04       		.byte	0x4
 4176 0952 83020000 		.4byte	0x283
 4177 0956 18       		.uleb128 0x18
 4178 0957 F4020000 		.4byte	.LASF232
 4179 095b 01       		.byte	0x1
 4180 095c 0603     		.2byte	0x306
 4181 095e 25000000 		.4byte	0x25
 4182 0962 00000000 		.4byte	.LFB22
 4183 0966 6E010000 		.4byte	.LFE22-.LFB22
 4184 096a 01       		.uleb128 0x1
 4185 096b 9C       		.byte	0x9c
 4186 096c 3A0C0000 		.4byte	0xc3a
 4187 0970 1D       		.uleb128 0x1d
 4188 0971 696E00   		.ascii	"in\000"
 4189 0974 01       		.byte	0x1
 4190 0975 0603     		.2byte	0x306
 4191 0977 52070000 		.4byte	0x752
 4192 097b ED020000 		.4byte	.LLST16
 4193 097f 19       		.uleb128 0x19
 4194 0980 AF100000 		.4byte	.LASF233
 4195 0984 01       		.byte	0x1
 4196 0985 0603     		.2byte	0x306
 4197 0987 45000000 		.4byte	0x45
 4198 098b 7D030000 		.4byte	.LLST17
 4199 098f 1D       		.uleb128 0x1d
 4200 0990 6F757400 		.ascii	"out\000"
 4201 0994 01       		.byte	0x1
 4202 0995 0603     		.2byte	0x306
 4203 0997 31080000 		.4byte	0x831
 4204 099b 3F040000 		.4byte	.LLST18
 4205 099f 19       		.uleb128 0x19
 4206 09a0 DE0A0000 		.4byte	.LASF234
 4207 09a4 01       		.byte	0x1
 4208 09a5 0703     		.2byte	0x307
ARM GAS  C:\Users\ddemidov\AppData\Local\Temp\ccr947bU.s 			page 104


 4209 09a7 3A0C0000 		.4byte	0xc3a
 4210 09ab 75040000 		.4byte	.LLST19
 4211 09af 1A       		.uleb128 0x1a
 4212 09b0 1E0F0000 		.4byte	.LASF95
 4213 09b4 01       		.byte	0x1
 4214 09b5 0703     		.2byte	0x307
 4215 09b7 25000000 		.4byte	0x25
 4216 09bb 02       		.uleb128 0x2
 4217 09bc 91       		.byte	0x91
 4218 09bd 00       		.sleb128 0
 4219 09be 22       		.uleb128 0x22
 4220 09bf 6B657900 		.ascii	"key\000"
 4221 09c3 01       		.byte	0x1
 4222 09c4 0703     		.2byte	0x307
 4223 09c6 400C0000 		.4byte	0xc40
 4224 09ca 02       		.uleb128 0x2
 4225 09cb 91       		.byte	0x91
 4226 09cc 04       		.sleb128 4
 4227 09cd 23       		.uleb128 0x23
 4228 09ce 746D7000 		.ascii	"tmp\000"
 4229 09d2 01       		.byte	0x1
 4230 09d3 0B03     		.2byte	0x30b
 4231 09d5 D7020000 		.4byte	0x2d7
 4232 09d9 02       		.uleb128 0x2
 4233 09da 91       		.byte	0x91
 4234 09db 58       		.sleb128 -40
 4235 09dc 1C       		.uleb128 0x1c
 4236 09dd 72657400 		.ascii	"ret\000"
 4237 09e1 01       		.byte	0x1
 4238 09e2 0C03     		.2byte	0x30c
 4239 09e4 25000000 		.4byte	0x25
 4240 09e8 A1040000 		.4byte	.LLST20
 4241 09ec 1B       		.uleb128 0x1b
 4242 09ed 540C0000 		.4byte	.LASF235
 4243 09f1 01       		.byte	0x1
 4244 09f2 0D03     		.2byte	0x30d
 4245 09f4 45000000 		.4byte	0x45
 4246 09f8 36050000 		.4byte	.LLST21
 4247 09fc 1C       		.uleb128 0x1c
 4248 09fd 6C656E00 		.ascii	"len\000"
 4249 0a01 01       		.byte	0x1
 4250 0a02 0D03     		.2byte	0x30d
 4251 0a04 45000000 		.4byte	0x45
 4252 0a08 6A050000 		.4byte	.LLST22
 4253 0a0c 24       		.uleb128 0x24
 4254 0a0d 360A0000 		.4byte	.LASF236
 4255 0a11 01       		.byte	0x1
 4256 0a12 5D03     		.2byte	0x35d
 4257 0a14 5C010000 		.4byte	.L32
 4258 0a18 24       		.uleb128 0x24
 4259 0a19 9F100000 		.4byte	.LASF237
 4260 0a1d 01       		.byte	0x1
 4261 0a1e 3C03     		.2byte	0x33c
 4262 0a20 DC000000 		.4byte	.L36
 4263 0a24 25       		.uleb128 0x25
 4264 0a25 00000000 		.4byte	.Ldebug_ranges0+0
 4265 0a29 880B0000 		.4byte	0xb88
ARM GAS  C:\Users\ddemidov\AppData\Local\Temp\ccr947bU.s 			page 105


 4266 0a2d 26       		.uleb128 0x26
 4267 0a2e 0E010000 		.4byte	.LASF238
 4268 0a32 01       		.byte	0x1
 4269 0a33 1C03     		.2byte	0x31c
 4270 0a35 D7020000 		.4byte	0x2d7
 4271 0a39 03       		.uleb128 0x3
 4272 0a3a 91       		.byte	0x91
 4273 0a3b B87F     		.sleb128 -72
 4274 0a3d 26       		.uleb128 0x26
 4275 0a3e 13010000 		.4byte	.LASF239
 4276 0a42 01       		.byte	0x1
 4277 0a43 1C03     		.2byte	0x31c
 4278 0a45 D7020000 		.4byte	0x2d7
 4279 0a49 02       		.uleb128 0x2
 4280 0a4a 91       		.byte	0x91
 4281 0a4b 48       		.sleb128 -56
 4282 0a4c 21       		.uleb128 0x21
 4283 0a4d 38000000 		.4byte	.LVL51
 4284 0a51 4B240000 		.4byte	0x244b
 4285 0a55 600A0000 		.4byte	0xa60
 4286 0a59 20       		.uleb128 0x20
 4287 0a5a 01       		.uleb128 0x1
 4288 0a5b 50       		.byte	0x50
 4289 0a5c 02       		.uleb128 0x2
 4290 0a5d 7D       		.byte	0x7d
 4291 0a5e 00       		.sleb128 0
 4292 0a5f 00       		.byte	0
 4293 0a60 21       		.uleb128 0x21
 4294 0a61 42000000 		.4byte	.LVL52
 4295 0a65 4B240000 		.4byte	0x244b
 4296 0a69 740A0000 		.4byte	0xa74
 4297 0a6d 20       		.uleb128 0x20
 4298 0a6e 01       		.uleb128 0x1
 4299 0a6f 50       		.byte	0x50
 4300 0a70 02       		.uleb128 0x2
 4301 0a71 91       		.byte	0x91
 4302 0a72 48       		.sleb128 -56
 4303 0a73 00       		.byte	0
 4304 0a74 21       		.uleb128 0x21
 4305 0a75 4C000000 		.4byte	.LVL53
 4306 0a79 66240000 		.4byte	0x2466
 4307 0a7d 880A0000 		.4byte	0xa88
 4308 0a81 20       		.uleb128 0x20
 4309 0a82 01       		.uleb128 0x1
 4310 0a83 50       		.byte	0x50
 4311 0a84 02       		.uleb128 0x2
 4312 0a85 7D       		.byte	0x7d
 4313 0a86 00       		.sleb128 0
 4314 0a87 00       		.byte	0
 4315 0a88 21       		.uleb128 0x21
 4316 0a89 60000000 		.4byte	.LVL56
 4317 0a8d 77240000 		.4byte	0x2477
 4318 0a91 B10A0000 		.4byte	0xab1
 4319 0a95 20       		.uleb128 0x20
 4320 0a96 01       		.uleb128 0x1
 4321 0a97 53       		.byte	0x53
 4322 0a98 02       		.uleb128 0x2
ARM GAS  C:\Users\ddemidov\AppData\Local\Temp\ccr947bU.s 			page 106


 4323 0a99 7D       		.byte	0x7d
 4324 0a9a 00       		.sleb128 0
 4325 0a9b 20       		.uleb128 0x20
 4326 0a9c 01       		.uleb128 0x1
 4327 0a9d 52       		.byte	0x52
 4328 0a9e 02       		.uleb128 0x2
 4329 0a9f 74       		.byte	0x74
 4330 0aa0 00       		.sleb128 0
 4331 0aa1 20       		.uleb128 0x20
 4332 0aa2 01       		.uleb128 0x1
 4333 0aa3 51       		.byte	0x51
 4334 0aa4 05       		.uleb128 0x5
 4335 0aa5 91       		.byte	0x91
 4336 0aa6 04       		.sleb128 4
 4337 0aa7 06       		.byte	0x6
 4338 0aa8 23       		.byte	0x23
 4339 0aa9 50       		.uleb128 0x50
 4340 0aaa 20       		.uleb128 0x20
 4341 0aab 01       		.uleb128 0x1
 4342 0aac 50       		.byte	0x50
 4343 0aad 02       		.uleb128 0x2
 4344 0aae 91       		.byte	0x91
 4345 0aaf 58       		.sleb128 -40
 4346 0ab0 00       		.byte	0
 4347 0ab1 21       		.uleb128 0x21
 4348 0ab2 76000000 		.4byte	.LVL58
 4349 0ab6 77240000 		.4byte	0x2477
 4350 0aba DA0A0000 		.4byte	0xada
 4351 0abe 20       		.uleb128 0x20
 4352 0abf 01       		.uleb128 0x1
 4353 0ac0 53       		.byte	0x53
 4354 0ac1 02       		.uleb128 0x2
 4355 0ac2 91       		.byte	0x91
 4356 0ac3 48       		.sleb128 -56
 4357 0ac4 20       		.uleb128 0x20
 4358 0ac5 01       		.uleb128 0x1
 4359 0ac6 52       		.byte	0x52
 4360 0ac7 02       		.uleb128 0x2
 4361 0ac8 77       		.byte	0x77
 4362 0ac9 00       		.sleb128 0
 4363 0aca 20       		.uleb128 0x20
 4364 0acb 01       		.uleb128 0x1
 4365 0acc 51       		.byte	0x51
 4366 0acd 05       		.uleb128 0x5
 4367 0ace 91       		.byte	0x91
 4368 0acf 04       		.sleb128 4
 4369 0ad0 06       		.byte	0x6
 4370 0ad1 23       		.byte	0x23
 4371 0ad2 60       		.uleb128 0x60
 4372 0ad3 20       		.uleb128 0x20
 4373 0ad4 01       		.uleb128 0x1
 4374 0ad5 50       		.byte	0x50
 4375 0ad6 02       		.uleb128 0x2
 4376 0ad7 91       		.byte	0x91
 4377 0ad8 58       		.sleb128 -40
 4378 0ad9 00       		.byte	0
 4379 0ada 21       		.uleb128 0x21
ARM GAS  C:\Users\ddemidov\AppData\Local\Temp\ccr947bU.s 			page 107


 4380 0adb 84000000 		.4byte	.LVL59
 4381 0adf 9B240000 		.4byte	0x249b
 4382 0ae3 FA0A0000 		.4byte	0xafa
 4383 0ae7 20       		.uleb128 0x20
 4384 0ae8 01       		.uleb128 0x1
 4385 0ae9 52       		.byte	0x52
 4386 0aea 02       		.uleb128 0x2
 4387 0aeb 91       		.byte	0x91
 4388 0aec 58       		.sleb128 -40
 4389 0aed 20       		.uleb128 0x20
 4390 0aee 01       		.uleb128 0x1
 4391 0aef 51       		.byte	0x51
 4392 0af0 02       		.uleb128 0x2
 4393 0af1 91       		.byte	0x91
 4394 0af2 48       		.sleb128 -56
 4395 0af3 20       		.uleb128 0x20
 4396 0af4 01       		.uleb128 0x1
 4397 0af5 50       		.byte	0x50
 4398 0af6 02       		.uleb128 0x2
 4399 0af7 7D       		.byte	0x7d
 4400 0af8 00       		.sleb128 0
 4401 0af9 00       		.byte	0
 4402 0afa 21       		.uleb128 0x21
 4403 0afb 96000000 		.4byte	.LVL60
 4404 0aff BB240000 		.4byte	0x24bb
 4405 0b03 230B0000 		.4byte	0xb23
 4406 0b07 20       		.uleb128 0x20
 4407 0b08 01       		.uleb128 0x1
 4408 0b09 53       		.byte	0x53
 4409 0b0a 02       		.uleb128 0x2
 4410 0b0b 91       		.byte	0x91
 4411 0b0c 58       		.sleb128 -40
 4412 0b0d 20       		.uleb128 0x20
 4413 0b0e 01       		.uleb128 0x1
 4414 0b0f 52       		.byte	0x52
 4415 0b10 02       		.uleb128 0x2
 4416 0b11 74       		.byte	0x74
 4417 0b12 00       		.sleb128 0
 4418 0b13 20       		.uleb128 0x20
 4419 0b14 01       		.uleb128 0x1
 4420 0b15 51       		.byte	0x51
 4421 0b16 05       		.uleb128 0x5
 4422 0b17 91       		.byte	0x91
 4423 0b18 04       		.sleb128 4
 4424 0b19 06       		.byte	0x6
 4425 0b1a 23       		.byte	0x23
 4426 0b1b 70       		.uleb128 0x70
 4427 0b1c 20       		.uleb128 0x20
 4428 0b1d 01       		.uleb128 0x1
 4429 0b1e 50       		.byte	0x50
 4430 0b1f 02       		.uleb128 0x2
 4431 0b20 91       		.byte	0x91
 4432 0b21 58       		.sleb128 -40
 4433 0b22 00       		.byte	0
 4434 0b23 21       		.uleb128 0x21
 4435 0b24 A4000000 		.4byte	.LVL61
 4436 0b28 E0240000 		.4byte	0x24e0
ARM GAS  C:\Users\ddemidov\AppData\Local\Temp\ccr947bU.s 			page 108


 4437 0b2c 430B0000 		.4byte	0xb43
 4438 0b30 20       		.uleb128 0x20
 4439 0b31 01       		.uleb128 0x1
 4440 0b32 52       		.byte	0x52
 4441 0b33 02       		.uleb128 0x2
 4442 0b34 91       		.byte	0x91
 4443 0b35 58       		.sleb128 -40
 4444 0b36 20       		.uleb128 0x20
 4445 0b37 01       		.uleb128 0x1
 4446 0b38 51       		.byte	0x51
 4447 0b39 02       		.uleb128 0x2
 4448 0b3a 77       		.byte	0x77
 4449 0b3b 00       		.sleb128 0
 4450 0b3c 20       		.uleb128 0x20
 4451 0b3d 01       		.uleb128 0x1
 4452 0b3e 50       		.byte	0x50
 4453 0b3f 02       		.uleb128 0x2
 4454 0b40 91       		.byte	0x91
 4455 0b41 58       		.sleb128 -40
 4456 0b42 00       		.byte	0
 4457 0b43 21       		.uleb128 0x21
 4458 0b44 B2000000 		.4byte	.LVL62
 4459 0b48 00250000 		.4byte	0x2500
 4460 0b4c 630B0000 		.4byte	0xb63
 4461 0b50 20       		.uleb128 0x20
 4462 0b51 01       		.uleb128 0x1
 4463 0b52 52       		.byte	0x52
 4464 0b53 02       		.uleb128 0x2
 4465 0b54 91       		.byte	0x91
 4466 0b55 58       		.sleb128 -40
 4467 0b56 20       		.uleb128 0x20
 4468 0b57 01       		.uleb128 0x1
 4469 0b58 51       		.byte	0x51
 4470 0b59 02       		.uleb128 0x2
 4471 0b5a 91       		.byte	0x91
 4472 0b5b 48       		.sleb128 -56
 4473 0b5c 20       		.uleb128 0x20
 4474 0b5d 01       		.uleb128 0x1
 4475 0b5e 50       		.byte	0x50
 4476 0b5f 02       		.uleb128 0x2
 4477 0b60 91       		.byte	0x91
 4478 0b61 58       		.sleb128 -40
 4479 0b62 00       		.byte	0
 4480 0b63 21       		.uleb128 0x21
 4481 0b64 E2000000 		.4byte	.LVL66
 4482 0b68 66240000 		.4byte	0x2466
 4483 0b6c 770B0000 		.4byte	0xb77
 4484 0b70 20       		.uleb128 0x20
 4485 0b71 01       		.uleb128 0x1
 4486 0b72 50       		.byte	0x50
 4487 0b73 02       		.uleb128 0x2
 4488 0b74 7D       		.byte	0x7d
 4489 0b75 00       		.sleb128 0
 4490 0b76 00       		.byte	0
 4491 0b77 1F       		.uleb128 0x1f
 4492 0b78 E8000000 		.4byte	.LVL67
 4493 0b7c 66240000 		.4byte	0x2466
ARM GAS  C:\Users\ddemidov\AppData\Local\Temp\ccr947bU.s 			page 109


 4494 0b80 20       		.uleb128 0x20
 4495 0b81 01       		.uleb128 0x1
 4496 0b82 50       		.byte	0x50
 4497 0b83 02       		.uleb128 0x2
 4498 0b84 91       		.byte	0x91
 4499 0b85 48       		.sleb128 -56
 4500 0b86 00       		.byte	0
 4501 0b87 00       		.byte	0
 4502 0b88 21       		.uleb128 0x21
 4503 0b89 12000000 		.4byte	.LVL49
 4504 0b8d 4B240000 		.4byte	0x244b
 4505 0b91 9C0B0000 		.4byte	0xb9c
 4506 0b95 20       		.uleb128 0x20
 4507 0b96 01       		.uleb128 0x1
 4508 0b97 50       		.byte	0x50
 4509 0b98 02       		.uleb128 0x2
 4510 0b99 91       		.byte	0x91
 4511 0b9a 58       		.sleb128 -40
 4512 0b9b 00       		.byte	0
 4513 0b9c 21       		.uleb128 0x21
 4514 0b9d 22000000 		.4byte	.LVL50
 4515 0ba1 20250000 		.4byte	0x2520
 4516 0ba5 BC0B0000 		.4byte	0xbbc
 4517 0ba9 20       		.uleb128 0x20
 4518 0baa 01       		.uleb128 0x1
 4519 0bab 52       		.byte	0x52
 4520 0bac 02       		.uleb128 0x2
 4521 0bad 74       		.byte	0x74
 4522 0bae 00       		.sleb128 0
 4523 0baf 20       		.uleb128 0x20
 4524 0bb0 01       		.uleb128 0x1
 4525 0bb1 51       		.byte	0x51
 4526 0bb2 02       		.uleb128 0x2
 4527 0bb3 77       		.byte	0x77
 4528 0bb4 00       		.sleb128 0
 4529 0bb5 20       		.uleb128 0x20
 4530 0bb6 01       		.uleb128 0x1
 4531 0bb7 50       		.byte	0x50
 4532 0bb8 02       		.uleb128 0x2
 4533 0bb9 91       		.byte	0x91
 4534 0bba 58       		.sleb128 -40
 4535 0bbb 00       		.byte	0
 4536 0bbc 21       		.uleb128 0x21
 4537 0bbd 08010000 		.4byte	.LVL71
 4538 0bc1 77240000 		.4byte	0x2477
 4539 0bc5 E60B0000 		.4byte	0xbe6
 4540 0bc9 20       		.uleb128 0x20
 4541 0bca 01       		.uleb128 0x1
 4542 0bcb 53       		.byte	0x53
 4543 0bcc 02       		.uleb128 0x2
 4544 0bcd 91       		.byte	0x91
 4545 0bce 58       		.sleb128 -40
 4546 0bcf 20       		.uleb128 0x20
 4547 0bd0 01       		.uleb128 0x1
 4548 0bd1 52       		.byte	0x52
 4549 0bd2 03       		.uleb128 0x3
 4550 0bd3 91       		.byte	0x91
ARM GAS  C:\Users\ddemidov\AppData\Local\Temp\ccr947bU.s 			page 110


 4551 0bd4 04       		.sleb128 4
 4552 0bd5 06       		.byte	0x6
 4553 0bd6 20       		.uleb128 0x20
 4554 0bd7 01       		.uleb128 0x1
 4555 0bd8 51       		.byte	0x51
 4556 0bd9 05       		.uleb128 0x5
 4557 0bda 91       		.byte	0x91
 4558 0bdb 04       		.sleb128 4
 4559 0bdc 06       		.byte	0x6
 4560 0bdd 23       		.byte	0x23
 4561 0bde 10       		.uleb128 0x10
 4562 0bdf 20       		.uleb128 0x20
 4563 0be0 01       		.uleb128 0x1
 4564 0be1 50       		.byte	0x50
 4565 0be2 02       		.uleb128 0x2
 4566 0be3 91       		.byte	0x91
 4567 0be4 58       		.sleb128 -40
 4568 0be5 00       		.byte	0
 4569 0be6 21       		.uleb128 0x21
 4570 0be7 14010000 		.4byte	.LVL73
 4571 0beb 4A250000 		.4byte	0x254a
 4572 0bef FB0B0000 		.4byte	0xbfb
 4573 0bf3 20       		.uleb128 0x20
 4574 0bf4 01       		.uleb128 0x1
 4575 0bf5 50       		.byte	0x50
 4576 0bf6 03       		.uleb128 0x3
 4577 0bf7 91       		.byte	0x91
 4578 0bf8 04       		.sleb128 4
 4579 0bf9 06       		.byte	0x6
 4580 0bfa 00       		.byte	0
 4581 0bfb 21       		.uleb128 0x21
 4582 0bfc 22010000 		.4byte	.LVL76
 4583 0c00 4A250000 		.4byte	0x254a
 4584 0c04 0F0C0000 		.4byte	0xc0f
 4585 0c08 20       		.uleb128 0x20
 4586 0c09 01       		.uleb128 0x1
 4587 0c0a 50       		.byte	0x50
 4588 0c0b 02       		.uleb128 0x2
 4589 0c0c 91       		.byte	0x91
 4590 0c0d 58       		.sleb128 -40
 4591 0c0e 00       		.byte	0
 4592 0c0f 21       		.uleb128 0x21
 4593 0c10 3A010000 		.4byte	.LVL81
 4594 0c14 5F250000 		.4byte	0x255f
 4595 0c18 290C0000 		.4byte	0xc29
 4596 0c1c 20       		.uleb128 0x20
 4597 0c1d 01       		.uleb128 0x1
 4598 0c1e 51       		.byte	0x51
 4599 0c1f 02       		.uleb128 0x2
 4600 0c20 75       		.byte	0x75
 4601 0c21 00       		.sleb128 0
 4602 0c22 20       		.uleb128 0x20
 4603 0c23 01       		.uleb128 0x1
 4604 0c24 50       		.byte	0x50
 4605 0c25 02       		.uleb128 0x2
 4606 0c26 91       		.byte	0x91
 4607 0c27 58       		.sleb128 -40
ARM GAS  C:\Users\ddemidov\AppData\Local\Temp\ccr947bU.s 			page 111


 4608 0c28 00       		.byte	0
 4609 0c29 1F       		.uleb128 0x1f
 4610 0c2a 62010000 		.4byte	.LVL93
 4611 0c2e 66240000 		.4byte	0x2466
 4612 0c32 20       		.uleb128 0x20
 4613 0c33 01       		.uleb128 0x1
 4614 0c34 50       		.byte	0x50
 4615 0c35 02       		.uleb128 0x2
 4616 0c36 91       		.byte	0x91
 4617 0c37 58       		.sleb128 -40
 4618 0c38 00       		.byte	0
 4619 0c39 00       		.byte	0
 4620 0c3a 06       		.uleb128 0x6
 4621 0c3b 04       		.byte	0x4
 4622 0c3c 45000000 		.4byte	0x45
 4623 0c40 06       		.uleb128 0x6
 4624 0c41 04       		.byte	0x4
 4625 0c42 AB030000 		.4byte	0x3ab
 4626 0c46 27       		.uleb128 0x27
 4627 0c47 89100000 		.4byte	.LASF240
 4628 0c4b 01       		.byte	0x1
 4629 0c4c F5       		.byte	0xf5
 4630 0c4d 25000000 		.4byte	0x25
 4631 0c51 00000000 		.4byte	.LFB14
 4632 0c55 0C010000 		.4byte	.LFE14-.LFB14
 4633 0c59 01       		.uleb128 0x1
 4634 0c5a 9C       		.byte	0x9c
 4635 0c5b 100E0000 		.4byte	0xe10
 4636 0c5f 28       		.uleb128 0x28
 4637 0c60 69100000 		.4byte	.LASF241
 4638 0c64 01       		.byte	0x1
 4639 0c65 F5       		.byte	0xf5
 4640 0c66 E2020000 		.4byte	0x2e2
 4641 0c6a 7D050000 		.4byte	.LLST23
 4642 0c6e 28       		.uleb128 0x28
 4643 0c6f 010A0000 		.4byte	.LASF77
 4644 0c73 01       		.byte	0x1
 4645 0c74 F5       		.byte	0xf5
 4646 0c75 31080000 		.4byte	0x831
 4647 0c79 9E050000 		.4byte	.LLST24
 4648 0c7d 28       		.uleb128 0x28
 4649 0c7e F8000000 		.4byte	.LASF242
 4650 0c82 01       		.byte	0x1
 4651 0c83 F5       		.byte	0xf5
 4652 0c84 45000000 		.4byte	0x45
 4653 0c88 BE050000 		.4byte	.LLST25
 4654 0c8c 29       		.uleb128 0x29
 4655 0c8d 6F757400 		.ascii	"out\000"
 4656 0c91 01       		.byte	0x1
 4657 0c92 F6       		.byte	0xf6
 4658 0c93 31080000 		.4byte	0x831
 4659 0c97 EA050000 		.4byte	.LLST26
 4660 0c9b 2A       		.uleb128 0x2a
 4661 0c9c A8050000 		.4byte	.LASF243
 4662 0ca0 01       		.byte	0x1
 4663 0ca1 F6       		.byte	0xf6
 4664 0ca2 45000000 		.4byte	0x45
ARM GAS  C:\Users\ddemidov\AppData\Local\Temp\ccr947bU.s 			page 112


 4665 0ca6 02       		.uleb128 0x2
 4666 0ca7 91       		.byte	0x91
 4667 0ca8 00       		.sleb128 0
 4668 0ca9 2B       		.uleb128 0x2b
 4669 0caa 746D7000 		.ascii	"tmp\000"
 4670 0cae 01       		.byte	0x1
 4671 0caf F8       		.byte	0xf8
 4672 0cb0 31080000 		.4byte	0x831
 4673 0cb4 58060000 		.4byte	.LLST27
 4674 0cb8 2C       		.uleb128 0x2c
 4675 0cb9 AA100000 		.4byte	.LASF244
 4676 0cbd 01       		.byte	0x1
 4677 0cbe FA       		.byte	0xfa
 4678 0cbf 100E0000 		.4byte	0xe10
 4679 0cc3 03       		.uleb128 0x3
 4680 0cc4 91       		.byte	0x91
 4681 0cc5 B47F     		.sleb128 -76
 4682 0cc7 2D       		.uleb128 0x2d
 4683 0cc8 67080000 		.4byte	.LASF245
 4684 0ccc 01       		.byte	0x1
 4685 0ccd FB       		.byte	0xfb
 4686 0cce 2C000000 		.4byte	0x2c
 4687 0cd2 8C060000 		.4byte	.LLST28
 4688 0cd6 2D       		.uleb128 0x2d
 4689 0cd7 96070000 		.4byte	.LASF246
 4690 0cdb 01       		.byte	0x1
 4691 0cdc FC       		.byte	0xfc
 4692 0cdd 45000000 		.4byte	0x45
 4693 0ce1 AE060000 		.4byte	.LLST29
 4694 0ce5 2D       		.uleb128 0x2d
 4695 0ce6 44070000 		.4byte	.LASF247
 4696 0cea 01       		.byte	0x1
 4697 0ceb FD       		.byte	0xfd
 4698 0cec 25000000 		.4byte	0x25
 4699 0cf0 D7060000 		.4byte	.LLST30
 4700 0cf4 2B       		.uleb128 0x2b
 4701 0cf5 72657400 		.ascii	"ret\000"
 4702 0cf9 01       		.byte	0x1
 4703 0cfa FE       		.byte	0xfe
 4704 0cfb 25000000 		.4byte	0x25
 4705 0cff 37070000 		.4byte	.LLST31
 4706 0d03 2D       		.uleb128 0x2d
 4707 0d04 49050000 		.4byte	.LASF248
 4708 0d08 01       		.byte	0x1
 4709 0d09 FF       		.byte	0xff
 4710 0d0a 45000000 		.4byte	0x45
 4711 0d0e 76070000 		.4byte	.LLST32
 4712 0d12 1C       		.uleb128 0x1c
 4713 0d13 69647800 		.ascii	"idx\000"
 4714 0d17 01       		.byte	0x1
 4715 0d18 0001     		.2byte	0x100
 4716 0d1a 45000000 		.4byte	0x45
 4717 0d1e AC070000 		.4byte	.LLST33
 4718 0d22 1E       		.uleb128 0x1e
 4719 0d23 62000000 		.4byte	.LBB22
 4720 0d27 76000000 		.4byte	.LBE22-.LBB22
 4721 0d2b BB0D0000 		.4byte	0xdbb
ARM GAS  C:\Users\ddemidov\AppData\Local\Temp\ccr947bU.s 			page 113


 4722 0d2f 1C       		.uleb128 0x1c
 4723 0d30 6900     		.ascii	"i\000"
 4724 0d32 01       		.byte	0x1
 4725 0d33 1D01     		.2byte	0x11d
 4726 0d35 25000000 		.4byte	0x25
 4727 0d39 FA070000 		.4byte	.LLST34
 4728 0d3d 1E       		.uleb128 0x1e
 4729 0d3e AC000000 		.4byte	.LBB23
 4730 0d42 0A000000 		.4byte	.LBE23-.LBB23
 4731 0d46 6A0D0000 		.4byte	0xd6a
 4732 0d4a 1C       		.uleb128 0x1c
 4733 0d4b 787000   		.ascii	"xp\000"
 4734 0d4e 01       		.byte	0x1
 4735 0d4f 2A01     		.2byte	0x12a
 4736 0d51 93000000 		.4byte	0x93
 4737 0d55 30080000 		.4byte	.LLST35
 4738 0d59 1F       		.uleb128 0x1f
 4739 0d5a B6000000 		.4byte	.LVL114
 4740 0d5e 79250000 		.4byte	0x2579
 4741 0d62 20       		.uleb128 0x20
 4742 0d63 01       		.uleb128 0x1
 4743 0d64 50       		.byte	0x50
 4744 0d65 02       		.uleb128 0x2
 4745 0d66 75       		.byte	0x75
 4746 0d67 00       		.sleb128 0
 4747 0d68 00       		.byte	0
 4748 0d69 00       		.byte	0
 4749 0d6a 21       		.uleb128 0x21
 4750 0d6b 6C000000 		.4byte	.LVL109
 4751 0d6f 2E240000 		.4byte	0x242e
 4752 0d73 8C0D0000 		.4byte	0xd8c
 4753 0d77 20       		.uleb128 0x20
 4754 0d78 01       		.uleb128 0x1
 4755 0d79 52       		.byte	0x52
 4756 0d7a 02       		.uleb128 0x2
 4757 0d7b 7B       		.byte	0x7b
 4758 0d7c 00       		.sleb128 0
 4759 0d7d 20       		.uleb128 0x20
 4760 0d7e 01       		.uleb128 0x1
 4761 0d7f 51       		.byte	0x51
 4762 0d80 04       		.uleb128 0x4
 4763 0d81 91       		.byte	0x91
 4764 0d82 A87F     		.sleb128 -88
 4765 0d84 06       		.byte	0x6
 4766 0d85 20       		.uleb128 0x20
 4767 0d86 01       		.uleb128 0x1
 4768 0d87 50       		.byte	0x50
 4769 0d88 02       		.uleb128 0x2
 4770 0d89 75       		.byte	0x75
 4771 0d8a 00       		.sleb128 0
 4772 0d8b 00       		.byte	0
 4773 0d8c 1F       		.uleb128 0x1f
 4774 0d8d A0000000 		.4byte	.LVL110
 4775 0d91 8A250000 		.4byte	0x258a
 4776 0d95 20       		.uleb128 0x20
 4777 0d96 01       		.uleb128 0x1
 4778 0d97 53       		.byte	0x53
ARM GAS  C:\Users\ddemidov\AppData\Local\Temp\ccr947bU.s 			page 114


 4779 0d98 02       		.uleb128 0x2
 4780 0d99 75       		.byte	0x75
 4781 0d9a 00       		.sleb128 0
 4782 0d9b 20       		.uleb128 0x20
 4783 0d9c 01       		.uleb128 0x1
 4784 0d9d 52       		.byte	0x52
 4785 0d9e 04       		.uleb128 0x4
 4786 0d9f 91       		.byte	0x91
 4787 0da0 A07F     		.sleb128 -96
 4788 0da2 06       		.byte	0x6
 4789 0da3 20       		.uleb128 0x20
 4790 0da4 01       		.uleb128 0x1
 4791 0da5 51       		.byte	0x51
 4792 0da6 02       		.uleb128 0x2
 4793 0da7 75       		.byte	0x75
 4794 0da8 00       		.sleb128 0
 4795 0da9 20       		.uleb128 0x20
 4796 0daa 01       		.uleb128 0x1
 4797 0dab 50       		.byte	0x50
 4798 0dac 05       		.uleb128 0x5
 4799 0dad 91       		.byte	0x91
 4800 0dae A47F     		.sleb128 -92
 4801 0db0 94       		.byte	0x94
 4802 0db1 01       		.byte	0x1
 4803 0db2 20       		.uleb128 0x20
 4804 0db3 02       		.uleb128 0x2
 4805 0db4 7D       		.byte	0x7d
 4806 0db5 00       		.sleb128 0
 4807 0db6 02       		.uleb128 0x2
 4808 0db7 7A       		.byte	0x7a
 4809 0db8 00       		.sleb128 0
 4810 0db9 00       		.byte	0
 4811 0dba 00       		.byte	0
 4812 0dbb 1E       		.uleb128 0x1e
 4813 0dbc E2000000 		.4byte	.LBB24
 4814 0dc0 0A000000 		.4byte	.LBE24-.LBB24
 4815 0dc4 E80D0000 		.4byte	0xde8
 4816 0dc8 1C       		.uleb128 0x1c
 4817 0dc9 787000   		.ascii	"xp\000"
 4818 0dcc 01       		.byte	0x1
 4819 0dcd 3801     		.2byte	0x138
 4820 0dcf 93000000 		.4byte	0x93
 4821 0dd3 43080000 		.4byte	.LLST36
 4822 0dd7 1F       		.uleb128 0x1f
 4823 0dd8 EC000000 		.4byte	.LVL124
 4824 0ddc 79250000 		.4byte	0x2579
 4825 0de0 20       		.uleb128 0x20
 4826 0de1 01       		.uleb128 0x1
 4827 0de2 50       		.byte	0x50
 4828 0de3 02       		.uleb128 0x2
 4829 0de4 75       		.byte	0x75
 4830 0de5 00       		.sleb128 0
 4831 0de6 00       		.byte	0
 4832 0de7 00       		.byte	0
 4833 0de8 21       		.uleb128 0x21
 4834 0de9 1E000000 		.4byte	.LVL100
 4835 0ded B3250000 		.4byte	0x25b3
ARM GAS  C:\Users\ddemidov\AppData\Local\Temp\ccr947bU.s 			page 115


 4836 0df1 FF0D0000 		.4byte	0xdff
 4837 0df5 20       		.uleb128 0x20
 4838 0df6 01       		.uleb128 0x1
 4839 0df7 50       		.byte	0x50
 4840 0df8 05       		.uleb128 0x5
 4841 0df9 91       		.byte	0x91
 4842 0dfa A47F     		.sleb128 -92
 4843 0dfc 94       		.byte	0x94
 4844 0dfd 01       		.byte	0x1
 4845 0dfe 00       		.byte	0
 4846 0dff 1F       		.uleb128 0x1f
 4847 0e00 40000000 		.4byte	.LVL104
 4848 0e04 C8250000 		.4byte	0x25c8
 4849 0e08 20       		.uleb128 0x20
 4850 0e09 01       		.uleb128 0x1
 4851 0e0a 50       		.byte	0x50
 4852 0e0b 02       		.uleb128 0x2
 4853 0e0c 7A       		.byte	0x7a
 4854 0e0d 00       		.sleb128 0
 4855 0e0e 00       		.byte	0
 4856 0e0f 00       		.byte	0
 4857 0e10 2E       		.uleb128 0x2e
 4858 0e11 2C000000 		.4byte	0x2c
 4859 0e15 200E0000 		.4byte	0xe20
 4860 0e19 2F       		.uleb128 0x2f
 4861 0e1a 8C000000 		.4byte	0x8c
 4862 0e1e 23       		.byte	0x23
 4863 0e1f 00       		.byte	0
 4864 0e20 18       		.uleb128 0x18
 4865 0e21 52020000 		.4byte	.LASF249
 4866 0e25 01       		.byte	0x1
 4867 0e26 4201     		.2byte	0x142
 4868 0e28 25000000 		.4byte	0x25
 4869 0e2c 00000000 		.4byte	.LFB15
 4870 0e30 2C000000 		.4byte	.LFE15-.LFB15
 4871 0e34 01       		.uleb128 0x1
 4872 0e35 9C       		.byte	0x9c
 4873 0e36 E10E0000 		.4byte	0xee1
 4874 0e3a 19       		.uleb128 0x19
 4875 0e3b 1E0F0000 		.4byte	.LASF95
 4876 0e3f 01       		.byte	0x1
 4877 0e40 4201     		.2byte	0x142
 4878 0e42 25000000 		.4byte	0x25
 4879 0e46 61080000 		.4byte	.LLST37
 4880 0e4a 19       		.uleb128 0x19
 4881 0e4b 010A0000 		.4byte	.LASF77
 4882 0e4f 01       		.byte	0x1
 4883 0e50 4201     		.2byte	0x142
 4884 0e52 31080000 		.4byte	0x831
 4885 0e56 B4080000 		.4byte	.LLST38
 4886 0e5a 19       		.uleb128 0x19
 4887 0e5b F8000000 		.4byte	.LASF242
 4888 0e5f 01       		.byte	0x1
 4889 0e60 4201     		.2byte	0x142
 4890 0e62 45000000 		.4byte	0x45
 4891 0e66 07090000 		.4byte	.LLST39
 4892 0e6a 1D       		.uleb128 0x1d
ARM GAS  C:\Users\ddemidov\AppData\Local\Temp\ccr947bU.s 			page 116


 4893 0e6b 6F757400 		.ascii	"out\000"
 4894 0e6f 01       		.byte	0x1
 4895 0e70 4301     		.2byte	0x143
 4896 0e72 31080000 		.4byte	0x831
 4897 0e76 5A090000 		.4byte	.LLST40
 4898 0e7a 1A       		.uleb128 0x1a
 4899 0e7b A8050000 		.4byte	.LASF243
 4900 0e7f 01       		.byte	0x1
 4901 0e80 4301     		.2byte	0x143
 4902 0e82 45000000 		.4byte	0x45
 4903 0e86 02       		.uleb128 0x2
 4904 0e87 91       		.byte	0x91
 4905 0e88 00       		.sleb128 0
 4906 0e89 1C       		.uleb128 0x1c
 4907 0e8a 72657400 		.ascii	"ret\000"
 4908 0e8e 01       		.byte	0x1
 4909 0e8f 4501     		.2byte	0x145
 4910 0e91 25000000 		.4byte	0x25
 4911 0e95 AD090000 		.4byte	.LLST41
 4912 0e99 21       		.uleb128 0x21
 4913 0e9a 16000000 		.4byte	.LVL136
 4914 0e9e 460C0000 		.4byte	0xc46
 4915 0ea2 C90E0000 		.4byte	0xec9
 4916 0ea6 20       		.uleb128 0x20
 4917 0ea7 01       		.uleb128 0x1
 4918 0ea8 53       		.byte	0x53
 4919 0ea9 03       		.uleb128 0x3
 4920 0eaa F3       		.byte	0xf3
 4921 0eab 01       		.uleb128 0x1
 4922 0eac 53       		.byte	0x53
 4923 0ead 20       		.uleb128 0x20
 4924 0eae 01       		.uleb128 0x1
 4925 0eaf 52       		.byte	0x52
 4926 0eb0 03       		.uleb128 0x3
 4927 0eb1 F3       		.byte	0xf3
 4928 0eb2 01       		.uleb128 0x1
 4929 0eb3 52       		.byte	0x52
 4930 0eb4 20       		.uleb128 0x20
 4931 0eb5 01       		.uleb128 0x1
 4932 0eb6 51       		.byte	0x51
 4933 0eb7 03       		.uleb128 0x3
 4934 0eb8 F3       		.byte	0xf3
 4935 0eb9 01       		.uleb128 0x1
 4936 0eba 51       		.byte	0x51
 4937 0ebb 20       		.uleb128 0x20
 4938 0ebc 01       		.uleb128 0x1
 4939 0ebd 50       		.byte	0x50
 4940 0ebe 01       		.uleb128 0x1
 4941 0ebf 34       		.byte	0x34
 4942 0ec0 20       		.uleb128 0x20
 4943 0ec1 02       		.uleb128 0x2
 4944 0ec2 7D       		.byte	0x7d
 4945 0ec3 00       		.sleb128 0
 4946 0ec4 03       		.uleb128 0x3
 4947 0ec5 91       		.byte	0x91
 4948 0ec6 00       		.sleb128 0
 4949 0ec7 06       		.byte	0x6
ARM GAS  C:\Users\ddemidov\AppData\Local\Temp\ccr947bU.s 			page 117


 4950 0ec8 00       		.byte	0
 4951 0ec9 1F       		.uleb128 0x1f
 4952 0eca 22000000 		.4byte	.LVL139
 4953 0ece 460C0000 		.4byte	0xc46
 4954 0ed2 20       		.uleb128 0x20
 4955 0ed3 01       		.uleb128 0x1
 4956 0ed4 50       		.byte	0x50
 4957 0ed5 01       		.uleb128 0x1
 4958 0ed6 35       		.byte	0x35
 4959 0ed7 20       		.uleb128 0x20
 4960 0ed8 02       		.uleb128 0x2
 4961 0ed9 7D       		.byte	0x7d
 4962 0eda 00       		.sleb128 0
 4963 0edb 03       		.uleb128 0x3
 4964 0edc 91       		.byte	0x91
 4965 0edd 00       		.sleb128 0
 4966 0ede 06       		.byte	0x6
 4967 0edf 00       		.byte	0
 4968 0ee0 00       		.byte	0
 4969 0ee1 18       		.uleb128 0x18
 4970 0ee2 85090000 		.4byte	.LASF250
 4971 0ee6 01       		.byte	0x1
 4972 0ee7 6B01     		.2byte	0x16b
 4973 0ee9 25000000 		.4byte	0x25
 4974 0eed 00000000 		.4byte	.LFB16
 4975 0ef1 9E010000 		.4byte	.LFE16-.LFB16
 4976 0ef5 01       		.uleb128 0x1
 4977 0ef6 9C       		.byte	0x9c
 4978 0ef7 A8110000 		.4byte	0x11a8
 4979 0efb 19       		.uleb128 0x19
 4980 0efc C90E0000 		.4byte	.LASF229
 4981 0f00 01       		.byte	0x1
 4982 0f01 6B01     		.2byte	0x16b
 4983 0f03 52070000 		.4byte	0x752
 4984 0f07 D6090000 		.4byte	.LLST42
 4985 0f0b 19       		.uleb128 0x19
 4986 0f0c B2000000 		.4byte	.LASF230
 4987 0f10 01       		.byte	0x1
 4988 0f11 6B01     		.2byte	0x16b
 4989 0f13 45000000 		.4byte	0x45
 4990 0f17 2A0A0000 		.4byte	.LLST43
 4991 0f1b 19       		.uleb128 0x19
 4992 0f1c 440F0000 		.4byte	.LASF220
 4993 0f20 01       		.byte	0x1
 4994 0f21 6B01     		.2byte	0x16b
 4995 0f23 31080000 		.4byte	0x831
 4996 0f27 7A0A0000 		.4byte	.LLST44
 4997 0f2b 19       		.uleb128 0x19
 4998 0f2c 09110000 		.4byte	.LASF221
 4999 0f30 01       		.byte	0x1
 5000 0f31 6C01     		.2byte	0x16c
 5001 0f33 45000000 		.4byte	0x45
 5002 0f37 BC0A0000 		.4byte	.LLST45
 5003 0f3b 1A       		.uleb128 0x1a
 5004 0f3c 4F100000 		.4byte	.LASF223
 5005 0f40 01       		.byte	0x1
 5006 0f41 6C01     		.2byte	0x16c
ARM GAS  C:\Users\ddemidov\AppData\Local\Temp\ccr947bU.s 			page 118


 5007 0f43 2C000000 		.4byte	0x2c
 5008 0f47 02       		.uleb128 0x2
 5009 0f48 91       		.byte	0x91
 5010 0f49 00       		.sleb128 0
 5011 0f4a 22       		.uleb128 0x22
 5012 0f4b 726E6700 		.ascii	"rng\000"
 5013 0f4f 01       		.byte	0x1
 5014 0f50 6C01     		.2byte	0x16c
 5015 0f52 50090000 		.4byte	0x950
 5016 0f56 02       		.uleb128 0x2
 5017 0f57 91       		.byte	0x91
 5018 0f58 04       		.sleb128 4
 5019 0f59 19       		.uleb128 0x19
 5020 0f5a 69100000 		.4byte	.LASF241
 5021 0f5e 01       		.byte	0x1
 5022 0f5f 6D01     		.2byte	0x16d
 5023 0f61 E2020000 		.4byte	0x2e2
 5024 0f65 0C0B0000 		.4byte	.LLST46
 5025 0f69 22       		.uleb128 0x22
 5026 0f6a 6D676600 		.ascii	"mgf\000"
 5027 0f6e 01       		.byte	0x1
 5028 0f6f 6D01     		.2byte	0x16d
 5029 0f71 25000000 		.4byte	0x25
 5030 0f75 02       		.uleb128 0x2
 5031 0f76 91       		.byte	0x91
 5032 0f77 0C       		.sleb128 12
 5033 0f78 1A       		.uleb128 0x1a
 5034 0f79 2D0A0000 		.4byte	.LASF251
 5035 0f7d 01       		.byte	0x1
 5036 0f7e 6D01     		.2byte	0x16d
 5037 0f80 31080000 		.4byte	0x831
 5038 0f84 02       		.uleb128 0x2
 5039 0f85 91       		.byte	0x91
 5040 0f86 10       		.sleb128 16
 5041 0f87 1A       		.uleb128 0x1a
 5042 0f88 60010000 		.4byte	.LASF252
 5043 0f8c 01       		.byte	0x1
 5044 0f8d 6D01     		.2byte	0x16d
 5045 0f8f 45000000 		.4byte	0x45
 5046 0f93 02       		.uleb128 0x2
 5047 0f94 91       		.byte	0x91
 5048 0f95 14       		.sleb128 20
 5049 0f96 1C       		.uleb128 0x1c
 5050 0f97 72657400 		.ascii	"ret\000"
 5051 0f9b 01       		.byte	0x1
 5052 0f9c 6F01     		.2byte	0x16f
 5053 0f9e 25000000 		.4byte	0x25
 5054 0fa2 380B0000 		.4byte	.LLST47
 5055 0fa6 1B       		.uleb128 0x1b
 5056 0fa7 44070000 		.4byte	.LASF247
 5057 0fab 01       		.byte	0x1
 5058 0fac 7001     		.2byte	0x170
 5059 0fae 25000000 		.4byte	0x25
 5060 0fb2 980B0000 		.4byte	.LLST48
 5061 0fb6 1B       		.uleb128 0x1b
 5062 0fb7 F90D0000 		.4byte	.LASF253
 5063 0fbb 01       		.byte	0x1
ARM GAS  C:\Users\ddemidov\AppData\Local\Temp\ccr947bU.s 			page 119


 5064 0fbc 7101     		.2byte	0x171
 5065 0fbe 25000000 		.4byte	0x25
 5066 0fc2 CC0B0000 		.4byte	.LLST49
 5067 0fc6 1C       		.uleb128 0x1c
 5068 0fc7 6900     		.ascii	"i\000"
 5069 0fc9 01       		.byte	0x1
 5070 0fca 7201     		.2byte	0x172
 5071 0fcc 25000000 		.4byte	0x25
 5072 0fd0 EA0B0000 		.4byte	.LLST50
 5073 0fd4 1C       		.uleb128 0x1c
 5074 0fd5 69647800 		.ascii	"idx\000"
 5075 0fd9 01       		.byte	0x1
 5076 0fda 7301     		.2byte	0x173
 5077 0fdc 45000000 		.4byte	0x45
 5078 0fe0 420C0000 		.4byte	.LLST51
 5079 0fe4 1B       		.uleb128 0x1b
 5080 0fe5 9C070000 		.4byte	.LASF254
 5081 0fe9 01       		.byte	0x1
 5082 0fea 7501     		.2byte	0x175
 5083 0fec 31080000 		.4byte	0x831
 5084 0ff0 C60C0000 		.4byte	.LLST52
 5085 0ff4 26       		.uleb128 0x26
 5086 0ff5 D8100000 		.4byte	.LASF255
 5087 0ff9 01       		.byte	0x1
 5088 0ffa 7C01     		.2byte	0x17c
 5089 0ffc A8110000 		.4byte	0x11a8
 5090 1000 03       		.uleb128 0x3
 5091 1001 91       		.byte	0x91
 5092 1002 B87F     		.sleb128 -72
 5093 1004 26       		.uleb128 0x26
 5094 1005 010A0000 		.4byte	.LASF77
 5095 1009 01       		.byte	0x1
 5096 100a 7D01     		.2byte	0x17d
 5097 100c A8110000 		.4byte	0x11a8
 5098 1010 03       		.uleb128 0x3
 5099 1011 91       		.byte	0x91
 5100 1012 987F     		.sleb128 -104
 5101 1014 1E       		.uleb128 0x1e
 5102 1015 EC000000 		.4byte	.LBB25
 5103 1019 0C000000 		.4byte	.LBE25-.LBB25
 5104 101d 41100000 		.4byte	0x1041
 5105 1021 1C       		.uleb128 0x1c
 5106 1022 787000   		.ascii	"xp\000"
 5107 1025 01       		.byte	0x1
 5108 1026 ED01     		.2byte	0x1ed
 5109 1028 93000000 		.4byte	0x93
 5110 102c 100D0000 		.4byte	.LLST53
 5111 1030 1F       		.uleb128 0x1f
 5112 1031 F8000000 		.4byte	.LVL171
 5113 1035 79250000 		.4byte	0x2579
 5114 1039 20       		.uleb128 0x20
 5115 103a 01       		.uleb128 0x1
 5116 103b 50       		.byte	0x50
 5117 103c 02       		.uleb128 0x2
 5118 103d 7B       		.byte	0x7b
 5119 103e 00       		.sleb128 0
 5120 103f 00       		.byte	0
ARM GAS  C:\Users\ddemidov\AppData\Local\Temp\ccr947bU.s 			page 120


 5121 1040 00       		.byte	0
 5122 1041 1E       		.uleb128 0x1e
 5123 1042 22010000 		.4byte	.LBB26
 5124 1046 0C000000 		.4byte	.LBE26-.LBB26
 5125 104a 6E100000 		.4byte	0x106e
 5126 104e 1C       		.uleb128 0x1c
 5127 104f 787000   		.ascii	"xp\000"
 5128 1052 01       		.byte	0x1
 5129 1053 FB01     		.2byte	0x1fb
 5130 1055 93000000 		.4byte	0x93
 5131 1059 230D0000 		.4byte	.LLST54
 5132 105d 1F       		.uleb128 0x1f
 5133 105e 2E010000 		.4byte	.LVL180
 5134 1062 79250000 		.4byte	0x2579
 5135 1066 20       		.uleb128 0x20
 5136 1067 01       		.uleb128 0x1
 5137 1068 50       		.byte	0x50
 5138 1069 02       		.uleb128 0x2
 5139 106a 7B       		.byte	0x7b
 5140 106b 00       		.sleb128 0
 5141 106c 00       		.byte	0
 5142 106d 00       		.byte	0
 5143 106e 21       		.uleb128 0x21
 5144 106f 2E000000 		.4byte	.LVL147
 5145 1073 B3250000 		.4byte	0x25b3
 5146 1077 82100000 		.4byte	0x1082
 5147 107b 20       		.uleb128 0x20
 5148 107c 01       		.uleb128 0x1
 5149 107d 50       		.byte	0x50
 5150 107e 02       		.uleb128 0x2
 5151 107f 74       		.byte	0x74
 5152 1080 00       		.sleb128 0
 5153 1081 00       		.byte	0
 5154 1082 21       		.uleb128 0x21
 5155 1083 48000000 		.4byte	.LVL150
 5156 1087 8A250000 		.4byte	0x258a
 5157 108b B2100000 		.4byte	0x10b2
 5158 108f 20       		.uleb128 0x20
 5159 1090 01       		.uleb128 0x1
 5160 1091 53       		.byte	0x53
 5161 1092 03       		.uleb128 0x3
 5162 1093 91       		.byte	0x91
 5163 1094 B87F     		.sleb128 -72
 5164 1096 20       		.uleb128 0x20
 5165 1097 01       		.uleb128 0x1
 5166 1098 52       		.byte	0x52
 5167 1099 03       		.uleb128 0x3
 5168 109a 91       		.byte	0x91
 5169 109b 14       		.sleb128 20
 5170 109c 06       		.byte	0x6
 5171 109d 20       		.uleb128 0x20
 5172 109e 01       		.uleb128 0x1
 5173 109f 51       		.byte	0x51
 5174 10a0 03       		.uleb128 0x3
 5175 10a1 91       		.byte	0x91
 5176 10a2 10       		.sleb128 16
 5177 10a3 06       		.byte	0x6
ARM GAS  C:\Users\ddemidov\AppData\Local\Temp\ccr947bU.s 			page 121


 5178 10a4 20       		.uleb128 0x20
 5179 10a5 01       		.uleb128 0x1
 5180 10a6 50       		.byte	0x50
 5181 10a7 02       		.uleb128 0x2
 5182 10a8 74       		.byte	0x74
 5183 10a9 00       		.sleb128 0
 5184 10aa 20       		.uleb128 0x20
 5185 10ab 02       		.uleb128 0x2
 5186 10ac 7D       		.byte	0x7d
 5187 10ad 00       		.sleb128 0
 5188 10ae 02       		.uleb128 0x2
 5189 10af 76       		.byte	0x76
 5190 10b0 00       		.sleb128 0
 5191 10b1 00       		.byte	0
 5192 10b2 21       		.uleb128 0x21
 5193 10b3 84000000 		.4byte	.LVL154
 5194 10b7 2E240000 		.4byte	0x242e
 5195 10bb D9100000 		.4byte	0x10d9
 5196 10bf 20       		.uleb128 0x20
 5197 10c0 01       		.uleb128 0x1
 5198 10c1 52       		.byte	0x52
 5199 10c2 02       		.uleb128 0x2
 5200 10c3 79       		.byte	0x79
 5201 10c4 00       		.sleb128 0
 5202 10c5 20       		.uleb128 0x20
 5203 10c6 01       		.uleb128 0x1
 5204 10c7 51       		.byte	0x51
 5205 10c8 04       		.uleb128 0x4
 5206 10c9 91       		.byte	0x91
 5207 10ca 947F     		.sleb128 -108
 5208 10cc 06       		.byte	0x6
 5209 10cd 20       		.uleb128 0x20
 5210 10ce 01       		.uleb128 0x1
 5211 10cf 50       		.byte	0x50
 5212 10d0 07       		.uleb128 0x7
 5213 10d1 75       		.byte	0x75
 5214 10d2 00       		.sleb128 0
 5215 10d3 7B       		.byte	0x7b
 5216 10d4 00       		.sleb128 0
 5217 10d5 22       		.byte	0x22
 5218 10d6 23       		.byte	0x23
 5219 10d7 01       		.uleb128 0x1
 5220 10d8 00       		.byte	0
 5221 10d9 21       		.uleb128 0x21
 5222 10da B0000000 		.4byte	.LVL160
 5223 10de 2E240000 		.4byte	0x242e
 5224 10e2 F4100000 		.4byte	0x10f4
 5225 10e6 20       		.uleb128 0x20
 5226 10e7 01       		.uleb128 0x1
 5227 10e8 52       		.byte	0x52
 5228 10e9 02       		.uleb128 0x2
 5229 10ea 76       		.byte	0x76
 5230 10eb 00       		.sleb128 0
 5231 10ec 20       		.uleb128 0x20
 5232 10ed 01       		.uleb128 0x1
 5233 10ee 51       		.byte	0x51
 5234 10ef 03       		.uleb128 0x3
ARM GAS  C:\Users\ddemidov\AppData\Local\Temp\ccr947bU.s 			page 122


 5235 10f0 91       		.byte	0x91
 5236 10f1 B87F     		.sleb128 -72
 5237 10f3 00       		.byte	0
 5238 10f4 21       		.uleb128 0x21
 5239 10f5 BA000000 		.4byte	.LVL161
 5240 10f9 F0230000 		.4byte	0x23f0
 5241 10fd 16110000 		.4byte	0x1116
 5242 1101 20       		.uleb128 0x20
 5243 1102 01       		.uleb128 0x1
 5244 1103 52       		.byte	0x52
 5245 1104 02       		.uleb128 0x2
 5246 1105 76       		.byte	0x76
 5247 1106 00       		.sleb128 0
 5248 1107 20       		.uleb128 0x20
 5249 1108 01       		.uleb128 0x1
 5250 1109 51       		.byte	0x51
 5251 110a 03       		.uleb128 0x3
 5252 110b 91       		.byte	0x91
 5253 110c 987F     		.sleb128 -104
 5254 110e 20       		.uleb128 0x20
 5255 110f 01       		.uleb128 0x1
 5256 1110 50       		.byte	0x50
 5257 1111 03       		.uleb128 0x3
 5258 1112 91       		.byte	0x91
 5259 1113 04       		.sleb128 4
 5260 1114 06       		.byte	0x6
 5261 1115 00       		.byte	0
 5262 1116 21       		.uleb128 0x21
 5263 1117 CA000000 		.4byte	.LVL164
 5264 111b C8250000 		.4byte	0x25c8
 5265 111f 2A110000 		.4byte	0x112a
 5266 1123 20       		.uleb128 0x20
 5267 1124 01       		.uleb128 0x1
 5268 1125 50       		.byte	0x50
 5269 1126 02       		.uleb128 0x2
 5270 1127 79       		.byte	0x79
 5271 1128 00       		.sleb128 0
 5272 1129 00       		.byte	0
 5273 112a 21       		.uleb128 0x21
 5274 112b D8000000 		.4byte	.LVL166
 5275 112f DD250000 		.4byte	0x25dd
 5276 1133 49110000 		.4byte	0x1149
 5277 1137 20       		.uleb128 0x20
 5278 1138 01       		.uleb128 0x1
 5279 1139 52       		.byte	0x52
 5280 113a 02       		.uleb128 0x2
 5281 113b 79       		.byte	0x79
 5282 113c 00       		.sleb128 0
 5283 113d 20       		.uleb128 0x20
 5284 113e 01       		.uleb128 0x1
 5285 113f 51       		.byte	0x51
 5286 1140 01       		.uleb128 0x1
 5287 1141 30       		.byte	0x30
 5288 1142 20       		.uleb128 0x20
 5289 1143 01       		.uleb128 0x1
 5290 1144 50       		.byte	0x50
 5291 1145 02       		.uleb128 0x2
ARM GAS  C:\Users\ddemidov\AppData\Local\Temp\ccr947bU.s 			page 123


 5292 1146 7B       		.byte	0x7b
 5293 1147 00       		.sleb128 0
 5294 1148 00       		.byte	0
 5295 1149 21       		.uleb128 0x21
 5296 114a E8000000 		.4byte	.LVL167
 5297 114e 200E0000 		.4byte	0xe20
 5298 1152 78110000 		.4byte	0x1178
 5299 1156 20       		.uleb128 0x20
 5300 1157 01       		.uleb128 0x1
 5301 1158 53       		.byte	0x53
 5302 1159 02       		.uleb128 0x2
 5303 115a 7B       		.byte	0x7b
 5304 115b 00       		.sleb128 0
 5305 115c 20       		.uleb128 0x20
 5306 115d 01       		.uleb128 0x1
 5307 115e 52       		.byte	0x52
 5308 115f 02       		.uleb128 0x2
 5309 1160 76       		.byte	0x76
 5310 1161 00       		.sleb128 0
 5311 1162 20       		.uleb128 0x20
 5312 1163 01       		.uleb128 0x1
 5313 1164 51       		.byte	0x51
 5314 1165 03       		.uleb128 0x3
 5315 1166 91       		.byte	0x91
 5316 1167 987F     		.sleb128 -104
 5317 1169 20       		.uleb128 0x20
 5318 116a 01       		.uleb128 0x1
 5319 116b 50       		.byte	0x50
 5320 116c 03       		.uleb128 0x3
 5321 116d 91       		.byte	0x91
 5322 116e 0C       		.sleb128 12
 5323 116f 06       		.byte	0x6
 5324 1170 20       		.uleb128 0x20
 5325 1171 02       		.uleb128 0x2
 5326 1172 7D       		.byte	0x7d
 5327 1173 00       		.sleb128 0
 5328 1174 02       		.uleb128 0x2
 5329 1175 79       		.byte	0x79
 5330 1176 00       		.sleb128 0
 5331 1177 00       		.byte	0
 5332 1178 1F       		.uleb128 0x1f
 5333 1179 42010000 		.4byte	.LVL181
 5334 117d 200E0000 		.4byte	0xe20
 5335 1181 20       		.uleb128 0x20
 5336 1182 01       		.uleb128 0x1
 5337 1183 53       		.byte	0x53
 5338 1184 02       		.uleb128 0x2
 5339 1185 75       		.byte	0x75
 5340 1186 01       		.sleb128 1
 5341 1187 20       		.uleb128 0x20
 5342 1188 01       		.uleb128 0x1
 5343 1189 52       		.byte	0x52
 5344 118a 02       		.uleb128 0x2
 5345 118b 79       		.byte	0x79
 5346 118c 00       		.sleb128 0
 5347 118d 20       		.uleb128 0x20
 5348 118e 01       		.uleb128 0x1
ARM GAS  C:\Users\ddemidov\AppData\Local\Temp\ccr947bU.s 			page 124


 5349 118f 51       		.byte	0x51
 5350 1190 07       		.uleb128 0x7
 5351 1191 75       		.byte	0x75
 5352 1192 00       		.sleb128 0
 5353 1193 76       		.byte	0x76
 5354 1194 00       		.sleb128 0
 5355 1195 22       		.byte	0x22
 5356 1196 23       		.byte	0x23
 5357 1197 01       		.uleb128 0x1
 5358 1198 20       		.uleb128 0x20
 5359 1199 01       		.uleb128 0x1
 5360 119a 50       		.byte	0x50
 5361 119b 03       		.uleb128 0x3
 5362 119c 91       		.byte	0x91
 5363 119d 0C       		.sleb128 12
 5364 119e 06       		.byte	0x6
 5365 119f 20       		.uleb128 0x20
 5366 11a0 02       		.uleb128 0x2
 5367 11a1 7D       		.byte	0x7d
 5368 11a2 00       		.sleb128 0
 5369 11a3 02       		.uleb128 0x2
 5370 11a4 76       		.byte	0x76
 5371 11a5 00       		.sleb128 0
 5372 11a6 00       		.byte	0
 5373 11a7 00       		.byte	0
 5374 11a8 2E       		.uleb128 0x2e
 5375 11a9 2C000000 		.4byte	0x2c
 5376 11ad B8110000 		.4byte	0x11b8
 5377 11b1 2F       		.uleb128 0x2f
 5378 11b2 8C000000 		.4byte	0x8c
 5379 11b6 1F       		.byte	0x1f
 5380 11b7 00       		.byte	0
 5381 11b8 18       		.uleb128 0x18
 5382 11b9 BA0D0000 		.4byte	.LASF256
 5383 11bd 01       		.byte	0x1
 5384 11be 4002     		.2byte	0x240
 5385 11c0 25000000 		.4byte	0x25
 5386 11c4 00000000 		.4byte	.LFB18
 5387 11c8 46000000 		.4byte	.LFE18-.LFB18
 5388 11cc 01       		.uleb128 0x1
 5389 11cd 9C       		.byte	0x9c
 5390 11ce E9120000 		.4byte	0x12e9
 5391 11d2 19       		.uleb128 0x19
 5392 11d3 C90E0000 		.4byte	.LASF229
 5393 11d7 01       		.byte	0x1
 5394 11d8 4002     		.2byte	0x240
 5395 11da 52070000 		.4byte	0x752
 5396 11de 570D0000 		.4byte	.LLST55
 5397 11e2 19       		.uleb128 0x19
 5398 11e3 B2000000 		.4byte	.LASF230
 5399 11e7 01       		.byte	0x1
 5400 11e8 4002     		.2byte	0x240
 5401 11ea 45000000 		.4byte	0x45
 5402 11ee AA0D0000 		.4byte	.LLST56
 5403 11f2 19       		.uleb128 0x19
 5404 11f3 440F0000 		.4byte	.LASF220
 5405 11f7 01       		.byte	0x1
ARM GAS  C:\Users\ddemidov\AppData\Local\Temp\ccr947bU.s 			page 125


 5406 11f8 4002     		.2byte	0x240
 5407 11fa 31080000 		.4byte	0x831
 5408 11fe FD0D0000 		.4byte	.LLST57
 5409 1202 19       		.uleb128 0x19
 5410 1203 09110000 		.4byte	.LASF221
 5411 1207 01       		.byte	0x1
 5412 1208 4102     		.2byte	0x241
 5413 120a 45000000 		.4byte	0x45
 5414 120e 500E0000 		.4byte	.LLST58
 5415 1212 19       		.uleb128 0x19
 5416 1213 4F100000 		.4byte	.LASF223
 5417 1217 01       		.byte	0x1
 5418 1218 4102     		.2byte	0x241
 5419 121a 2C000000 		.4byte	0x2c
 5420 121e A30E0000 		.4byte	.LLST59
 5421 1222 1D       		.uleb128 0x1d
 5422 1223 726E6700 		.ascii	"rng\000"
 5423 1227 01       		.byte	0x1
 5424 1228 4102     		.2byte	0x241
 5425 122a 50090000 		.4byte	0x950
 5426 122e CF0E0000 		.4byte	.LLST60
 5427 1232 19       		.uleb128 0x19
 5428 1233 A2080000 		.4byte	.LASF257
 5429 1237 01       		.byte	0x1
 5430 1238 4102     		.2byte	0x241
 5431 123a 25000000 		.4byte	0x25
 5432 123e FB0E0000 		.4byte	.LLST61
 5433 1242 19       		.uleb128 0x19
 5434 1243 69100000 		.4byte	.LASF241
 5435 1247 01       		.byte	0x1
 5436 1248 4202     		.2byte	0x242
 5437 124a E2020000 		.4byte	0x2e2
 5438 124e 270F0000 		.4byte	.LLST62
 5439 1252 1D       		.uleb128 0x1d
 5440 1253 6D676600 		.ascii	"mgf\000"
 5441 1257 01       		.byte	0x1
 5442 1258 4202     		.2byte	0x242
 5443 125a 25000000 		.4byte	0x25
 5444 125e 5F0F0000 		.4byte	.LLST63
 5445 1262 19       		.uleb128 0x19
 5446 1263 2D0A0000 		.4byte	.LASF251
 5447 1267 01       		.byte	0x1
 5448 1268 4202     		.2byte	0x242
 5449 126a 31080000 		.4byte	0x831
 5450 126e 8B0F0000 		.4byte	.LLST64
 5451 1272 19       		.uleb128 0x19
 5452 1273 60010000 		.4byte	.LASF252
 5453 1277 01       		.byte	0x1
 5454 1278 4202     		.2byte	0x242
 5455 127a 45000000 		.4byte	0x45
 5456 127e B70F0000 		.4byte	.LLST65
 5457 1282 1C       		.uleb128 0x1c
 5458 1283 72657400 		.ascii	"ret\000"
 5459 1287 01       		.byte	0x1
 5460 1288 4402     		.2byte	0x244
 5461 128a 25000000 		.4byte	0x25
 5462 128e E30F0000 		.4byte	.LLST66
ARM GAS  C:\Users\ddemidov\AppData\Local\Temp\ccr947bU.s 			page 126


 5463 1292 21       		.uleb128 0x21
 5464 1293 22000000 		.4byte	.LVL203
 5465 1297 37080000 		.4byte	0x837
 5466 129b AE120000 		.4byte	0x12ae
 5467 129f 20       		.uleb128 0x20
 5468 12a0 02       		.uleb128 0x2
 5469 12a1 7D       		.byte	0x7d
 5470 12a2 04       		.sleb128 4
 5471 12a3 02       		.uleb128 0x2
 5472 12a4 74       		.byte	0x74
 5473 12a5 00       		.sleb128 0
 5474 12a6 20       		.uleb128 0x20
 5475 12a7 02       		.uleb128 0x2
 5476 12a8 7D       		.byte	0x7d
 5477 12a9 00       		.sleb128 0
 5478 12aa 02       		.uleb128 0x2
 5479 12ab 75       		.byte	0x75
 5480 12ac 00       		.sleb128 0
 5481 12ad 00       		.byte	0
 5482 12ae 1F       		.uleb128 0x1f
 5483 12af 3C000000 		.4byte	.LVL205
 5484 12b3 E10E0000 		.4byte	0xee1
 5485 12b7 20       		.uleb128 0x20
 5486 12b8 02       		.uleb128 0x2
 5487 12b9 7D       		.byte	0x7d
 5488 12ba 14       		.sleb128 20
 5489 12bb 02       		.uleb128 0x2
 5490 12bc 74       		.byte	0x74
 5491 12bd 00       		.sleb128 0
 5492 12be 20       		.uleb128 0x20
 5493 12bf 02       		.uleb128 0x2
 5494 12c0 7D       		.byte	0x7d
 5495 12c1 10       		.sleb128 16
 5496 12c2 03       		.uleb128 0x3
 5497 12c3 91       		.byte	0x91
 5498 12c4 14       		.sleb128 20
 5499 12c5 06       		.byte	0x6
 5500 12c6 20       		.uleb128 0x20
 5501 12c7 02       		.uleb128 0x2
 5502 12c8 7D       		.byte	0x7d
 5503 12c9 0C       		.sleb128 12
 5504 12ca 03       		.uleb128 0x3
 5505 12cb 91       		.byte	0x91
 5506 12cc 10       		.sleb128 16
 5507 12cd 06       		.byte	0x6
 5508 12ce 20       		.uleb128 0x20
 5509 12cf 02       		.uleb128 0x2
 5510 12d0 7D       		.byte	0x7d
 5511 12d1 08       		.sleb128 8
 5512 12d2 04       		.uleb128 0x4
 5513 12d3 91       		.byte	0x91
 5514 12d4 0C       		.sleb128 12
 5515 12d5 94       		.byte	0x94
 5516 12d6 01       		.byte	0x1
 5517 12d7 20       		.uleb128 0x20
 5518 12d8 02       		.uleb128 0x2
 5519 12d9 7D       		.byte	0x7d
ARM GAS  C:\Users\ddemidov\AppData\Local\Temp\ccr947bU.s 			page 127


 5520 12da 04       		.sleb128 4
 5521 12db 02       		.uleb128 0x2
 5522 12dc 75       		.byte	0x75
 5523 12dd 00       		.sleb128 0
 5524 12de 20       		.uleb128 0x20
 5525 12df 02       		.uleb128 0x2
 5526 12e0 7D       		.byte	0x7d
 5527 12e1 00       		.sleb128 0
 5528 12e2 04       		.uleb128 0x4
 5529 12e3 91       		.byte	0x91
 5530 12e4 00       		.sleb128 0
 5531 12e5 94       		.byte	0x94
 5532 12e6 01       		.byte	0x1
 5533 12e7 00       		.byte	0
 5534 12e8 00       		.byte	0
 5535 12e9 18       		.uleb128 0x18
 5536 12ea D8040000 		.4byte	.LASF258
 5537 12ee 01       		.byte	0x1
 5538 12ef 6602     		.2byte	0x266
 5539 12f1 25000000 		.4byte	0x25
 5540 12f5 00000000 		.4byte	.LFB19
 5541 12f9 44010000 		.4byte	.LFE19-.LFB19
 5542 12fd 01       		.uleb128 0x1
 5543 12fe 9C       		.byte	0x9c
 5544 12ff 61150000 		.4byte	0x1561
 5545 1303 19       		.uleb128 0x19
 5546 1304 440F0000 		.4byte	.LASF220
 5547 1308 01       		.byte	0x1
 5548 1309 6602     		.2byte	0x266
 5549 130b 31080000 		.4byte	0x831
 5550 130f 0C100000 		.4byte	.LLST67
 5551 1313 19       		.uleb128 0x19
 5552 1314 09110000 		.4byte	.LASF221
 5553 1318 01       		.byte	0x1
 5554 1319 6602     		.2byte	0x266
 5555 131b 50000000 		.4byte	0x50
 5556 131f 51100000 		.4byte	.LLST68
 5557 1323 19       		.uleb128 0x19
 5558 1324 78000000 		.4byte	.LASF222
 5559 1328 01       		.byte	0x1
 5560 1329 6702     		.2byte	0x267
 5561 132b 2B080000 		.4byte	0x82b
 5562 132f 7D100000 		.4byte	.LLST69
 5563 1333 19       		.uleb128 0x19
 5564 1334 69100000 		.4byte	.LASF241
 5565 1338 01       		.byte	0x1
 5566 1339 6702     		.2byte	0x267
 5567 133b E2020000 		.4byte	0x2e2
 5568 133f 9D100000 		.4byte	.LLST70
 5569 1343 22       		.uleb128 0x22
 5570 1344 6D676600 		.ascii	"mgf\000"
 5571 1348 01       		.byte	0x1
 5572 1349 6702     		.2byte	0x267
 5573 134b 25000000 		.4byte	0x25
 5574 134f 02       		.uleb128 0x2
 5575 1350 91       		.byte	0x91
 5576 1351 00       		.sleb128 0
ARM GAS  C:\Users\ddemidov\AppData\Local\Temp\ccr947bU.s 			page 128


 5577 1352 1A       		.uleb128 0x1a
 5578 1353 2D0A0000 		.4byte	.LASF251
 5579 1357 01       		.byte	0x1
 5580 1358 6802     		.2byte	0x268
 5581 135a 31080000 		.4byte	0x831
 5582 135e 02       		.uleb128 0x2
 5583 135f 91       		.byte	0x91
 5584 1360 04       		.sleb128 4
 5585 1361 1A       		.uleb128 0x1a
 5586 1362 60010000 		.4byte	.LASF252
 5587 1366 01       		.byte	0x1
 5588 1367 6802     		.2byte	0x268
 5589 1369 45000000 		.4byte	0x45
 5590 136d 02       		.uleb128 0x2
 5591 136e 91       		.byte	0x91
 5592 136f 08       		.sleb128 8
 5593 1370 1B       		.uleb128 0x1b
 5594 1371 44070000 		.4byte	.LASF247
 5595 1375 01       		.byte	0x1
 5596 1376 6A02     		.2byte	0x26a
 5597 1378 25000000 		.4byte	0x25
 5598 137c BE100000 		.4byte	.LLST71
 5599 1380 1C       		.uleb128 0x1c
 5600 1381 72657400 		.ascii	"ret\000"
 5601 1385 01       		.byte	0x1
 5602 1386 6B02     		.2byte	0x26b
 5603 1388 25000000 		.4byte	0x25
 5604 138c 08110000 		.4byte	.LLST72
 5605 1390 23       		.uleb128 0x23
 5606 1391 6800     		.ascii	"h\000"
 5607 1393 01       		.byte	0x1
 5608 1394 6C02     		.2byte	0x26c
 5609 1396 A8110000 		.4byte	0x11a8
 5610 139a 03       		.uleb128 0x3
 5611 139b 91       		.byte	0x91
 5612 139c B87F     		.sleb128 -72
 5613 139e 1C       		.uleb128 0x1c
 5614 139f 746D7000 		.ascii	"tmp\000"
 5615 13a3 01       		.byte	0x1
 5616 13a4 6D02     		.2byte	0x26d
 5617 13a6 31080000 		.4byte	0x831
 5618 13aa 7E110000 		.4byte	.LLST73
 5619 13ae 1C       		.uleb128 0x1c
 5620 13af 69647800 		.ascii	"idx\000"
 5621 13b3 01       		.byte	0x1
 5622 13b4 6E02     		.2byte	0x26e
 5623 13b6 45000000 		.4byte	0x45
 5624 13ba B2110000 		.4byte	.LLST74
 5625 13be 1E       		.uleb128 0x1e
 5626 13bf 5C000000 		.4byte	.LBB27
 5627 13c3 0A000000 		.4byte	.LBE27-.LBB27
 5628 13c7 EB130000 		.4byte	0x13eb
 5629 13cb 1C       		.uleb128 0x1c
 5630 13cc 787000   		.ascii	"xp\000"
 5631 13cf 01       		.byte	0x1
 5632 13d0 7E02     		.2byte	0x27e
 5633 13d2 93000000 		.4byte	0x93
ARM GAS  C:\Users\ddemidov\AppData\Local\Temp\ccr947bU.s 			page 129


 5634 13d6 1F120000 		.4byte	.LLST75
 5635 13da 1F       		.uleb128 0x1f
 5636 13db 66000000 		.4byte	.LVL221
 5637 13df 79250000 		.4byte	0x2579
 5638 13e3 20       		.uleb128 0x20
 5639 13e4 01       		.uleb128 0x1
 5640 13e5 50       		.byte	0x50
 5641 13e6 02       		.uleb128 0x2
 5642 13e7 75       		.byte	0x75
 5643 13e8 00       		.sleb128 0
 5644 13e9 00       		.byte	0
 5645 13ea 00       		.byte	0
 5646 13eb 1E       		.uleb128 0x1e
 5647 13ec 92000000 		.4byte	.LBB28
 5648 13f0 0A000000 		.4byte	.LBE28-.LBB28
 5649 13f4 18140000 		.4byte	0x1418
 5650 13f8 1C       		.uleb128 0x1c
 5651 13f9 787000   		.ascii	"xp\000"
 5652 13fc 01       		.byte	0x1
 5653 13fd 8A02     		.2byte	0x28a
 5654 13ff 93000000 		.4byte	0x93
 5655 1403 32120000 		.4byte	.LLST76
 5656 1407 1F       		.uleb128 0x1f
 5657 1408 9C000000 		.4byte	.LVL232
 5658 140c 79250000 		.4byte	0x2579
 5659 1410 20       		.uleb128 0x20
 5660 1411 01       		.uleb128 0x1
 5661 1412 50       		.byte	0x50
 5662 1413 02       		.uleb128 0x2
 5663 1414 75       		.byte	0x75
 5664 1415 00       		.sleb128 0
 5665 1416 00       		.byte	0
 5666 1417 00       		.byte	0
 5667 1418 1E       		.uleb128 0x1e
 5668 1419 BA000000 		.4byte	.LBB29
 5669 141d 0A000000 		.4byte	.LBE29-.LBB29
 5670 1421 45140000 		.4byte	0x1445
 5671 1425 1C       		.uleb128 0x1c
 5672 1426 787000   		.ascii	"xp\000"
 5673 1429 01       		.byte	0x1
 5674 142a 9402     		.2byte	0x294
 5675 142c 93000000 		.4byte	0x93
 5676 1430 45120000 		.4byte	.LLST77
 5677 1434 1F       		.uleb128 0x1f
 5678 1435 C4000000 		.4byte	.LVL238
 5679 1439 79250000 		.4byte	0x2579
 5680 143d 20       		.uleb128 0x20
 5681 143e 01       		.uleb128 0x1
 5682 143f 50       		.byte	0x50
 5683 1440 02       		.uleb128 0x2
 5684 1441 75       		.byte	0x75
 5685 1442 00       		.sleb128 0
 5686 1443 00       		.byte	0
 5687 1444 00       		.byte	0
 5688 1445 30       		.uleb128 0x30
 5689 1446 10070000 		.4byte	0x710
 5690 144a EE000000 		.4byte	.LBB30
ARM GAS  C:\Users\ddemidov\AppData\Local\Temp\ccr947bU.s 			page 130


 5691 144e 14000000 		.4byte	.LBE30-.LBB30
 5692 1452 01       		.byte	0x1
 5693 1453 A602     		.2byte	0x2a6
 5694 1455 85140000 		.4byte	0x1485
 5695 1459 31       		.uleb128 0x31
 5696 145a 32070000 		.4byte	0x732
 5697 145e 31       		.uleb128 0x31
 5698 145f 29070000 		.4byte	0x729
 5699 1463 31       		.uleb128 0x31
 5700 1464 20070000 		.4byte	0x720
 5701 1468 32       		.uleb128 0x32
 5702 1469 EE000000 		.4byte	.LBB31
 5703 146d 14000000 		.4byte	.LBE31-.LBB31
 5704 1471 33       		.uleb128 0x33
 5705 1472 3D070000 		.4byte	0x73d
 5706 1476 58120000 		.4byte	.LLST78
 5707 147a 33       		.uleb128 0x33
 5708 147b 46070000 		.4byte	0x746
 5709 147f 6B120000 		.4byte	.LLST79
 5710 1483 00       		.byte	0
 5711 1484 00       		.byte	0
 5712 1485 21       		.uleb128 0x21
 5713 1486 1C000000 		.4byte	.LVL211
 5714 148a B3250000 		.4byte	0x25b3
 5715 148e 9C140000 		.4byte	0x149c
 5716 1492 20       		.uleb128 0x20
 5717 1493 01       		.uleb128 0x1
 5718 1494 50       		.byte	0x50
 5719 1495 05       		.uleb128 0x5
 5720 1496 91       		.byte	0x91
 5721 1497 B07F     		.sleb128 -80
 5722 1499 94       		.byte	0x94
 5723 149a 01       		.byte	0x1
 5724 149b 00       		.byte	0
 5725 149c 21       		.uleb128 0x21
 5726 149d 34000000 		.4byte	.LVL214
 5727 14a1 C8250000 		.4byte	0x25c8
 5728 14a5 B0140000 		.4byte	0x14b0
 5729 14a9 20       		.uleb128 0x20
 5730 14aa 01       		.uleb128 0x1
 5731 14ab 50       		.byte	0x50
 5732 14ac 02       		.uleb128 0x2
 5733 14ad 79       		.byte	0x79
 5734 14ae 00       		.sleb128 0
 5735 14af 00       		.byte	0
 5736 14b0 21       		.uleb128 0x21
 5737 14b1 40000000 		.4byte	.LVL216
 5738 14b5 DD250000 		.4byte	0x25dd
 5739 14b9 CF140000 		.4byte	0x14cf
 5740 14bd 20       		.uleb128 0x20
 5741 14be 01       		.uleb128 0x1
 5742 14bf 52       		.byte	0x52
 5743 14c0 02       		.uleb128 0x2
 5744 14c1 79       		.byte	0x79
 5745 14c2 00       		.sleb128 0
 5746 14c3 20       		.uleb128 0x20
 5747 14c4 01       		.uleb128 0x1
ARM GAS  C:\Users\ddemidov\AppData\Local\Temp\ccr947bU.s 			page 131


 5748 14c5 51       		.byte	0x51
 5749 14c6 01       		.uleb128 0x1
 5750 14c7 30       		.byte	0x30
 5751 14c8 20       		.uleb128 0x20
 5752 14c9 01       		.uleb128 0x1
 5753 14ca 50       		.byte	0x50
 5754 14cb 02       		.uleb128 0x2
 5755 14cc 75       		.byte	0x75
 5756 14cd 00       		.sleb128 0
 5757 14ce 00       		.byte	0
 5758 14cf 21       		.uleb128 0x21
 5759 14d0 58000000 		.4byte	.LVL217
 5760 14d4 200E0000 		.4byte	0xe20
 5761 14d8 00150000 		.4byte	0x1500
 5762 14dc 20       		.uleb128 0x20
 5763 14dd 01       		.uleb128 0x1
 5764 14de 53       		.byte	0x53
 5765 14df 02       		.uleb128 0x2
 5766 14e0 75       		.byte	0x75
 5767 14e1 00       		.sleb128 0
 5768 14e2 20       		.uleb128 0x20
 5769 14e3 01       		.uleb128 0x1
 5770 14e4 52       		.byte	0x52
 5771 14e5 02       		.uleb128 0x2
 5772 14e6 7B       		.byte	0x7b
 5773 14e7 00       		.sleb128 0
 5774 14e8 20       		.uleb128 0x20
 5775 14e9 01       		.uleb128 0x1
 5776 14ea 51       		.byte	0x51
 5777 14eb 05       		.uleb128 0x5
 5778 14ec 74       		.byte	0x74
 5779 14ed 00       		.sleb128 0
 5780 14ee 7A       		.byte	0x7a
 5781 14ef 00       		.sleb128 0
 5782 14f0 22       		.byte	0x22
 5783 14f1 20       		.uleb128 0x20
 5784 14f2 01       		.uleb128 0x1
 5785 14f3 50       		.byte	0x50
 5786 14f4 03       		.uleb128 0x3
 5787 14f5 91       		.byte	0x91
 5788 14f6 00       		.sleb128 0
 5789 14f7 06       		.byte	0x6
 5790 14f8 20       		.uleb128 0x20
 5791 14f9 02       		.uleb128 0x2
 5792 14fa 7D       		.byte	0x7d
 5793 14fb 00       		.sleb128 0
 5794 14fc 02       		.uleb128 0x2
 5795 14fd 76       		.byte	0x76
 5796 14fe 00       		.sleb128 0
 5797 14ff 00       		.byte	0
 5798 1500 21       		.uleb128 0x21
 5799 1501 8E000000 		.4byte	.LVL228
 5800 1505 200E0000 		.4byte	0xe20
 5801 1509 31150000 		.4byte	0x1531
 5802 150d 20       		.uleb128 0x20
 5803 150e 01       		.uleb128 0x1
 5804 150f 53       		.byte	0x53
ARM GAS  C:\Users\ddemidov\AppData\Local\Temp\ccr947bU.s 			page 132


 5805 1510 05       		.uleb128 0x5
 5806 1511 75       		.byte	0x75
 5807 1512 00       		.sleb128 0
 5808 1513 76       		.byte	0x76
 5809 1514 00       		.sleb128 0
 5810 1515 22       		.byte	0x22
 5811 1516 20       		.uleb128 0x20
 5812 1517 01       		.uleb128 0x1
 5813 1518 52       		.byte	0x52
 5814 1519 02       		.uleb128 0x2
 5815 151a 76       		.byte	0x76
 5816 151b 00       		.sleb128 0
 5817 151c 20       		.uleb128 0x20
 5818 151d 01       		.uleb128 0x1
 5819 151e 51       		.byte	0x51
 5820 151f 02       		.uleb128 0x2
 5821 1520 75       		.byte	0x75
 5822 1521 00       		.sleb128 0
 5823 1522 20       		.uleb128 0x20
 5824 1523 01       		.uleb128 0x1
 5825 1524 50       		.byte	0x50
 5826 1525 03       		.uleb128 0x3
 5827 1526 91       		.byte	0x91
 5828 1527 00       		.sleb128 0
 5829 1528 06       		.byte	0x6
 5830 1529 20       		.uleb128 0x20
 5831 152a 02       		.uleb128 0x2
 5832 152b 7D       		.byte	0x7d
 5833 152c 00       		.sleb128 0
 5834 152d 02       		.uleb128 0x2
 5835 152e 7B       		.byte	0x7b
 5836 152f 00       		.sleb128 0
 5837 1530 00       		.byte	0
 5838 1531 1F       		.uleb128 0x1f
 5839 1532 E4000000 		.4byte	.LVL242
 5840 1536 8A250000 		.4byte	0x258a
 5841 153a 20       		.uleb128 0x20
 5842 153b 01       		.uleb128 0x1
 5843 153c 53       		.byte	0x53
 5844 153d 03       		.uleb128 0x3
 5845 153e 91       		.byte	0x91
 5846 153f B87F     		.sleb128 -72
 5847 1541 20       		.uleb128 0x20
 5848 1542 01       		.uleb128 0x1
 5849 1543 52       		.byte	0x52
 5850 1544 03       		.uleb128 0x3
 5851 1545 91       		.byte	0x91
 5852 1546 08       		.sleb128 8
 5853 1547 06       		.byte	0x6
 5854 1548 20       		.uleb128 0x20
 5855 1549 01       		.uleb128 0x1
 5856 154a 51       		.byte	0x51
 5857 154b 03       		.uleb128 0x3
 5858 154c 91       		.byte	0x91
 5859 154d 04       		.sleb128 4
 5860 154e 06       		.byte	0x6
 5861 154f 20       		.uleb128 0x20
ARM GAS  C:\Users\ddemidov\AppData\Local\Temp\ccr947bU.s 			page 133


 5862 1550 01       		.uleb128 0x1
 5863 1551 50       		.byte	0x50
 5864 1552 05       		.uleb128 0x5
 5865 1553 91       		.byte	0x91
 5866 1554 B07F     		.sleb128 -80
 5867 1556 94       		.byte	0x94
 5868 1557 01       		.byte	0x1
 5869 1558 20       		.uleb128 0x20
 5870 1559 02       		.uleb128 0x2
 5871 155a 7D       		.byte	0x7d
 5872 155b 00       		.sleb128 0
 5873 155c 02       		.uleb128 0x2
 5874 155d 76       		.byte	0x76
 5875 155e 00       		.sleb128 0
 5876 155f 00       		.byte	0
 5877 1560 00       		.byte	0
 5878 1561 18       		.uleb128 0x18
 5879 1562 D1060000 		.4byte	.LASF259
 5880 1566 01       		.byte	0x1
 5881 1567 E202     		.2byte	0x2e2
 5882 1569 25000000 		.4byte	0x25
 5883 156d 00000000 		.4byte	.LFB21
 5884 1571 36000000 		.4byte	.LFE21-.LFB21
 5885 1575 01       		.uleb128 0x1
 5886 1576 9C       		.byte	0x9c
 5887 1577 4D160000 		.4byte	0x164d
 5888 157b 19       		.uleb128 0x19
 5889 157c 440F0000 		.4byte	.LASF220
 5890 1580 01       		.byte	0x1
 5891 1581 E202     		.2byte	0x2e2
 5892 1583 31080000 		.4byte	0x831
 5893 1587 7E120000 		.4byte	.LLST80
 5894 158b 19       		.uleb128 0x19
 5895 158c 09110000 		.4byte	.LASF221
 5896 1590 01       		.byte	0x1
 5897 1591 E202     		.2byte	0x2e2
 5898 1593 45000000 		.4byte	0x45
 5899 1597 D1120000 		.4byte	.LLST81
 5900 159b 1D       		.uleb128 0x1d
 5901 159c 6F757400 		.ascii	"out\000"
 5902 15a0 01       		.byte	0x1
 5903 15a1 E202     		.2byte	0x2e2
 5904 15a3 2B080000 		.4byte	0x82b
 5905 15a7 24130000 		.4byte	.LLST82
 5906 15ab 19       		.uleb128 0x19
 5907 15ac 4F100000 		.4byte	.LASF223
 5908 15b0 01       		.byte	0x1
 5909 15b1 E302     		.2byte	0x2e3
 5910 15b3 2C000000 		.4byte	0x2c
 5911 15b7 77130000 		.4byte	.LLST83
 5912 15bb 19       		.uleb128 0x19
 5913 15bc A2080000 		.4byte	.LASF257
 5914 15c0 01       		.byte	0x1
 5915 15c1 E302     		.2byte	0x2e3
 5916 15c3 25000000 		.4byte	0x25
 5917 15c7 CA130000 		.4byte	.LLST84
 5918 15cb 19       		.uleb128 0x19
ARM GAS  C:\Users\ddemidov\AppData\Local\Temp\ccr947bU.s 			page 134


 5919 15cc 69100000 		.4byte	.LASF241
 5920 15d0 01       		.byte	0x1
 5921 15d1 E302     		.2byte	0x2e3
 5922 15d3 E2020000 		.4byte	0x2e2
 5923 15d7 02140000 		.4byte	.LLST85
 5924 15db 1D       		.uleb128 0x1d
 5925 15dc 6D676600 		.ascii	"mgf\000"
 5926 15e0 01       		.byte	0x1
 5927 15e1 E402     		.2byte	0x2e4
 5928 15e3 25000000 		.4byte	0x25
 5929 15e7 3A140000 		.4byte	.LLST86
 5930 15eb 19       		.uleb128 0x19
 5931 15ec 2D0A0000 		.4byte	.LASF251
 5932 15f0 01       		.byte	0x1
 5933 15f1 E402     		.2byte	0x2e4
 5934 15f3 31080000 		.4byte	0x831
 5935 15f7 72140000 		.4byte	.LLST87
 5936 15fb 19       		.uleb128 0x19
 5937 15fc 60010000 		.4byte	.LASF252
 5938 1600 01       		.byte	0x1
 5939 1601 E402     		.2byte	0x2e4
 5940 1603 45000000 		.4byte	0x45
 5941 1607 AA140000 		.4byte	.LLST88
 5942 160b 1C       		.uleb128 0x1c
 5943 160c 72657400 		.ascii	"ret\000"
 5944 1610 01       		.byte	0x1
 5945 1611 E602     		.2byte	0x2e6
 5946 1613 25000000 		.4byte	0x25
 5947 1617 E2140000 		.4byte	.LLST89
 5948 161b 34       		.uleb128 0x34
 5949 161c 18000000 		.4byte	.LVL266
 5950 1620 94070000 		.4byte	0x794
 5951 1624 1F       		.uleb128 0x1f
 5952 1625 2C000000 		.4byte	.LVL269
 5953 1629 E9120000 		.4byte	0x12e9
 5954 162d 20       		.uleb128 0x20
 5955 162e 01       		.uleb128 0x1
 5956 162f 53       		.byte	0x53
 5957 1630 02       		.uleb128 0x2
 5958 1631 74       		.byte	0x74
 5959 1632 00       		.sleb128 0
 5960 1633 20       		.uleb128 0x20
 5961 1634 02       		.uleb128 0x2
 5962 1635 7D       		.byte	0x7d
 5963 1636 08       		.sleb128 8
 5964 1637 03       		.uleb128 0x3
 5965 1638 91       		.byte	0x91
 5966 1639 10       		.sleb128 16
 5967 163a 06       		.byte	0x6
 5968 163b 20       		.uleb128 0x20
 5969 163c 02       		.uleb128 0x2
 5970 163d 7D       		.byte	0x7d
 5971 163e 04       		.sleb128 4
 5972 163f 03       		.uleb128 0x3
 5973 1640 91       		.byte	0x91
 5974 1641 0C       		.sleb128 12
 5975 1642 06       		.byte	0x6
ARM GAS  C:\Users\ddemidov\AppData\Local\Temp\ccr947bU.s 			page 135


 5976 1643 20       		.uleb128 0x20
 5977 1644 02       		.uleb128 0x2
 5978 1645 7D       		.byte	0x7d
 5979 1646 00       		.sleb128 0
 5980 1647 03       		.uleb128 0x3
 5981 1648 91       		.byte	0x91
 5982 1649 08       		.sleb128 8
 5983 164a 06       		.byte	0x6
 5984 164b 00       		.byte	0
 5985 164c 00       		.byte	0
 5986 164d 35       		.uleb128 0x35
 5987 164e C9010000 		.4byte	.LASF260
 5988 1652 01       		.byte	0x1
 5989 1653 A4       		.byte	0xa4
 5990 1654 25000000 		.4byte	0x25
 5991 1658 00000000 		.4byte	.LFB12
 5992 165c 22000000 		.4byte	.LFE12-.LFB12
 5993 1660 01       		.uleb128 0x1
 5994 1661 9C       		.byte	0x9c
 5995 1662 83160000 		.4byte	0x1683
 5996 1666 29       		.uleb128 0x29
 5997 1667 6B657900 		.ascii	"key\000"
 5998 166b 01       		.byte	0x1
 5999 166c A4       		.byte	0xa4
 6000 166d 400C0000 		.4byte	0xc40
 6001 1671 0B150000 		.4byte	.LLST90
 6002 1675 2A       		.uleb128 0x2a
 6003 1676 B3040000 		.4byte	.LASF96
 6004 167a 01       		.byte	0x1
 6005 167b A4       		.byte	0xa4
 6006 167c 93000000 		.4byte	0x93
 6007 1680 01       		.uleb128 0x1
 6008 1681 51       		.byte	0x51
 6009 1682 00       		.byte	0
 6010 1683 35       		.uleb128 0x35
 6011 1684 420D0000 		.4byte	.LASF261
 6012 1688 01       		.byte	0x1
 6013 1689 C4       		.byte	0xc4
 6014 168a 25000000 		.4byte	0x25
 6015 168e 00000000 		.4byte	.LFB13
 6016 1692 50000000 		.4byte	.LFE13-.LFB13
 6017 1696 01       		.uleb128 0x1
 6018 1697 9C       		.byte	0x9c
 6019 1698 4C170000 		.4byte	0x174c
 6020 169c 29       		.uleb128 0x29
 6021 169d 6B657900 		.ascii	"key\000"
 6022 16a1 01       		.byte	0x1
 6023 16a2 C4       		.byte	0xc4
 6024 16a3 400C0000 		.4byte	0xc40
 6025 16a7 2C150000 		.4byte	.LLST91
 6026 16ab 21       		.uleb128 0x21
 6027 16ac 16000000 		.4byte	.LVL277
 6028 16b0 66240000 		.4byte	0x2466
 6029 16b4 C0160000 		.4byte	0x16c0
 6030 16b8 20       		.uleb128 0x20
 6031 16b9 01       		.uleb128 0x1
 6032 16ba 50       		.byte	0x50
ARM GAS  C:\Users\ddemidov\AppData\Local\Temp\ccr947bU.s 			page 136


 6033 16bb 03       		.uleb128 0x3
 6034 16bc 74       		.byte	0x74
 6035 16bd F000     		.sleb128 112
 6036 16bf 00       		.byte	0
 6037 16c0 21       		.uleb128 0x21
 6038 16c1 1E000000 		.4byte	.LVL278
 6039 16c5 66240000 		.4byte	0x2466
 6040 16c9 D5160000 		.4byte	0x16d5
 6041 16cd 20       		.uleb128 0x20
 6042 16ce 01       		.uleb128 0x1
 6043 16cf 50       		.byte	0x50
 6044 16d0 03       		.uleb128 0x3
 6045 16d1 74       		.byte	0x74
 6046 16d2 E000     		.sleb128 96
 6047 16d4 00       		.byte	0
 6048 16d5 21       		.uleb128 0x21
 6049 16d6 26000000 		.4byte	.LVL279
 6050 16da 66240000 		.4byte	0x2466
 6051 16de EA160000 		.4byte	0x16ea
 6052 16e2 20       		.uleb128 0x20
 6053 16e3 01       		.uleb128 0x1
 6054 16e4 50       		.byte	0x50
 6055 16e5 03       		.uleb128 0x3
 6056 16e6 74       		.byte	0x74
 6057 16e7 D000     		.sleb128 80
 6058 16e9 00       		.byte	0
 6059 16ea 21       		.uleb128 0x21
 6060 16eb 2E000000 		.4byte	.LVL280
 6061 16ef 66240000 		.4byte	0x2466
 6062 16f3 FF160000 		.4byte	0x16ff
 6063 16f7 20       		.uleb128 0x20
 6064 16f8 01       		.uleb128 0x1
 6065 16f9 50       		.byte	0x50
 6066 16fa 03       		.uleb128 0x3
 6067 16fb 74       		.byte	0x74
 6068 16fc C000     		.sleb128 64
 6069 16fe 00       		.byte	0
 6070 16ff 21       		.uleb128 0x21
 6071 1700 36000000 		.4byte	.LVL281
 6072 1704 66240000 		.4byte	0x2466
 6073 1708 13170000 		.4byte	0x1713
 6074 170c 20       		.uleb128 0x20
 6075 170d 01       		.uleb128 0x1
 6076 170e 50       		.byte	0x50
 6077 170f 02       		.uleb128 0x2
 6078 1710 74       		.byte	0x74
 6079 1711 30       		.sleb128 48
 6080 1712 00       		.byte	0
 6081 1713 21       		.uleb128 0x21
 6082 1714 3E000000 		.4byte	.LVL282
 6083 1718 66240000 		.4byte	0x2466
 6084 171c 27170000 		.4byte	0x1727
 6085 1720 20       		.uleb128 0x20
 6086 1721 01       		.uleb128 0x1
 6087 1722 50       		.byte	0x50
 6088 1723 02       		.uleb128 0x2
 6089 1724 74       		.byte	0x74
ARM GAS  C:\Users\ddemidov\AppData\Local\Temp\ccr947bU.s 			page 137


 6090 1725 20       		.sleb128 32
 6091 1726 00       		.byte	0
 6092 1727 21       		.uleb128 0x21
 6093 1728 46000000 		.4byte	.LVL283
 6094 172c 66240000 		.4byte	0x2466
 6095 1730 3B170000 		.4byte	0x173b
 6096 1734 20       		.uleb128 0x20
 6097 1735 01       		.uleb128 0x1
 6098 1736 50       		.byte	0x50
 6099 1737 02       		.uleb128 0x2
 6100 1738 74       		.byte	0x74
 6101 1739 10       		.sleb128 16
 6102 173a 00       		.byte	0
 6103 173b 1F       		.uleb128 0x1f
 6104 173c 4C000000 		.4byte	.LVL284
 6105 1740 66240000 		.4byte	0x2466
 6106 1744 20       		.uleb128 0x20
 6107 1745 01       		.uleb128 0x1
 6108 1746 50       		.byte	0x50
 6109 1747 02       		.uleb128 0x2
 6110 1748 74       		.byte	0x74
 6111 1749 00       		.sleb128 0
 6112 174a 00       		.byte	0
 6113 174b 00       		.byte	0
 6114 174c 36       		.uleb128 0x36
 6115 174d 6C080000 		.4byte	.LASF262
 6116 1751 01       		.byte	0x1
 6117 1752 6603     		.2byte	0x366
 6118 1754 25000000 		.4byte	0x25
 6119 1758 00000000 		.4byte	.LFB23
 6120 175c 66000000 		.4byte	.LFE23-.LFB23
 6121 1760 01       		.uleb128 0x1
 6122 1761 9C       		.byte	0x9c
 6123 1762 5C180000 		.4byte	0x185c
 6124 1766 1D       		.uleb128 0x1d
 6125 1767 696E00   		.ascii	"in\000"
 6126 176a 01       		.byte	0x1
 6127 176b 6603     		.2byte	0x366
 6128 176d 52070000 		.4byte	0x752
 6129 1771 58150000 		.4byte	.LLST92
 6130 1775 19       		.uleb128 0x19
 6131 1776 AF100000 		.4byte	.LASF233
 6132 177a 01       		.byte	0x1
 6133 177b 6603     		.2byte	0x366
 6134 177d 45000000 		.4byte	0x45
 6135 1781 84150000 		.4byte	.LLST93
 6136 1785 1D       		.uleb128 0x1d
 6137 1786 6F757400 		.ascii	"out\000"
 6138 178a 01       		.byte	0x1
 6139 178b 6603     		.2byte	0x366
 6140 178d 31080000 		.4byte	0x831
 6141 1791 B0150000 		.4byte	.LLST94
 6142 1795 19       		.uleb128 0x19
 6143 1796 DE0A0000 		.4byte	.LASF234
 6144 179a 01       		.byte	0x1
 6145 179b 6603     		.2byte	0x366
 6146 179d 45000000 		.4byte	0x45
ARM GAS  C:\Users\ddemidov\AppData\Local\Temp\ccr947bU.s 			page 138


 6147 17a1 DC150000 		.4byte	.LLST95
 6148 17a5 22       		.uleb128 0x22
 6149 17a6 6B657900 		.ascii	"key\000"
 6150 17aa 01       		.byte	0x1
 6151 17ab 6703     		.2byte	0x367
 6152 17ad 400C0000 		.4byte	0xc40
 6153 17b1 02       		.uleb128 0x2
 6154 17b2 91       		.byte	0x91
 6155 17b3 00       		.sleb128 0
 6156 17b4 22       		.uleb128 0x22
 6157 17b5 726E6700 		.ascii	"rng\000"
 6158 17b9 01       		.byte	0x1
 6159 17ba 6703     		.2byte	0x367
 6160 17bc 50090000 		.4byte	0x950
 6161 17c0 02       		.uleb128 0x2
 6162 17c1 91       		.byte	0x91
 6163 17c2 04       		.sleb128 4
 6164 17c3 1C       		.uleb128 0x1c
 6165 17c4 737A00   		.ascii	"sz\000"
 6166 17c7 01       		.byte	0x1
 6167 17c8 6903     		.2byte	0x369
 6168 17ca 25000000 		.4byte	0x25
 6169 17ce 13160000 		.4byte	.LLST96
 6170 17d2 1C       		.uleb128 0x1c
 6171 17d3 72657400 		.ascii	"ret\000"
 6172 17d7 01       		.byte	0x1
 6173 17d8 6903     		.2byte	0x369
 6174 17da 25000000 		.4byte	0x25
 6175 17de 5D160000 		.4byte	.LLST97
 6176 17e2 21       		.uleb128 0x21
 6177 17e3 12000000 		.4byte	.LVL287
 6178 17e7 4A250000 		.4byte	0x254a
 6179 17eb F7170000 		.4byte	0x17f7
 6180 17ef 20       		.uleb128 0x20
 6181 17f0 01       		.uleb128 0x1
 6182 17f1 50       		.byte	0x50
 6183 17f2 03       		.uleb128 0x3
 6184 17f3 91       		.byte	0x91
 6185 17f4 00       		.sleb128 0
 6186 17f5 06       		.byte	0x6
 6187 17f6 00       		.byte	0
 6188 17f7 21       		.uleb128 0x21
 6189 17f8 36000000 		.4byte	.LVL290
 6190 17fc 37080000 		.4byte	0x837
 6191 1800 2B180000 		.4byte	0x182b
 6192 1804 20       		.uleb128 0x20
 6193 1805 01       		.uleb128 0x1
 6194 1806 53       		.byte	0x53
 6195 1807 02       		.uleb128 0x2
 6196 1808 74       		.byte	0x74
 6197 1809 00       		.sleb128 0
 6198 180a 20       		.uleb128 0x20
 6199 180b 01       		.uleb128 0x1
 6200 180c 52       		.byte	0x52
 6201 180d 02       		.uleb128 0x2
 6202 180e 76       		.byte	0x76
 6203 180f 00       		.sleb128 0
ARM GAS  C:\Users\ddemidov\AppData\Local\Temp\ccr947bU.s 			page 139


 6204 1810 20       		.uleb128 0x20
 6205 1811 01       		.uleb128 0x1
 6206 1812 51       		.byte	0x51
 6207 1813 02       		.uleb128 0x2
 6208 1814 75       		.byte	0x75
 6209 1815 00       		.sleb128 0
 6210 1816 20       		.uleb128 0x20
 6211 1817 01       		.uleb128 0x1
 6212 1818 50       		.byte	0x50
 6213 1819 02       		.uleb128 0x2
 6214 181a 77       		.byte	0x77
 6215 181b 00       		.sleb128 0
 6216 181c 20       		.uleb128 0x20
 6217 181d 02       		.uleb128 0x2
 6218 181e 7D       		.byte	0x7d
 6219 181f 04       		.sleb128 4
 6220 1820 03       		.uleb128 0x3
 6221 1821 91       		.byte	0x91
 6222 1822 04       		.sleb128 4
 6223 1823 06       		.byte	0x6
 6224 1824 20       		.uleb128 0x20
 6225 1825 02       		.uleb128 0x2
 6226 1826 7D       		.byte	0x7d
 6227 1827 00       		.sleb128 0
 6228 1828 01       		.uleb128 0x1
 6229 1829 32       		.byte	0x32
 6230 182a 00       		.byte	0
 6231 182b 1F       		.uleb128 0x1f
 6232 182c 4E000000 		.4byte	.LVL293
 6233 1830 56090000 		.4byte	0x956
 6234 1834 20       		.uleb128 0x20
 6235 1835 01       		.uleb128 0x1
 6236 1836 53       		.byte	0x53
 6237 1837 02       		.uleb128 0x2
 6238 1838 91       		.byte	0x91
 6239 1839 64       		.sleb128 -28
 6240 183a 20       		.uleb128 0x20
 6241 183b 01       		.uleb128 0x1
 6242 183c 52       		.byte	0x52
 6243 183d 02       		.uleb128 0x2
 6244 183e 76       		.byte	0x76
 6245 183f 00       		.sleb128 0
 6246 1840 20       		.uleb128 0x20
 6247 1841 01       		.uleb128 0x1
 6248 1842 51       		.byte	0x51
 6249 1843 02       		.uleb128 0x2
 6250 1844 74       		.byte	0x74
 6251 1845 00       		.sleb128 0
 6252 1846 20       		.uleb128 0x20
 6253 1847 01       		.uleb128 0x1
 6254 1848 50       		.byte	0x50
 6255 1849 02       		.uleb128 0x2
 6256 184a 76       		.byte	0x76
 6257 184b 00       		.sleb128 0
 6258 184c 20       		.uleb128 0x20
 6259 184d 02       		.uleb128 0x2
 6260 184e 7D       		.byte	0x7d
ARM GAS  C:\Users\ddemidov\AppData\Local\Temp\ccr947bU.s 			page 140


 6261 184f 04       		.sleb128 4
 6262 1850 03       		.uleb128 0x3
 6263 1851 91       		.byte	0x91
 6264 1852 00       		.sleb128 0
 6265 1853 06       		.byte	0x6
 6266 1854 20       		.uleb128 0x20
 6267 1855 02       		.uleb128 0x2
 6268 1856 7D       		.byte	0x7d
 6269 1857 00       		.sleb128 0
 6270 1858 01       		.uleb128 0x1
 6271 1859 30       		.byte	0x30
 6272 185a 00       		.byte	0
 6273 185b 00       		.byte	0
 6274 185c 36       		.uleb128 0x36
 6275 185d 3A000000 		.4byte	.LASF263
 6276 1861 01       		.byte	0x1
 6277 1862 9003     		.2byte	0x390
 6278 1864 25000000 		.4byte	0x25
 6279 1868 00000000 		.4byte	.LFB24
 6280 186c 7C000000 		.4byte	.LFE24-.LFB24
 6281 1870 01       		.uleb128 0x1
 6282 1871 9C       		.byte	0x9c
 6283 1872 E0190000 		.4byte	0x19e0
 6284 1876 1D       		.uleb128 0x1d
 6285 1877 696E00   		.ascii	"in\000"
 6286 187a 01       		.byte	0x1
 6287 187b 9003     		.2byte	0x390
 6288 187d 52070000 		.4byte	0x752
 6289 1881 7B160000 		.4byte	.LLST98
 6290 1885 19       		.uleb128 0x19
 6291 1886 AF100000 		.4byte	.LASF233
 6292 188a 01       		.byte	0x1
 6293 188b 9003     		.2byte	0x390
 6294 188d 45000000 		.4byte	0x45
 6295 1891 9A160000 		.4byte	.LLST99
 6296 1895 1D       		.uleb128 0x1d
 6297 1896 6F757400 		.ascii	"out\000"
 6298 189a 01       		.byte	0x1
 6299 189b 9003     		.2byte	0x390
 6300 189d 31080000 		.4byte	0x831
 6301 18a1 C6160000 		.4byte	.LLST100
 6302 18a5 19       		.uleb128 0x19
 6303 18a6 DE0A0000 		.4byte	.LASF234
 6304 18aa 01       		.byte	0x1
 6305 18ab 9103     		.2byte	0x391
 6306 18ad 45000000 		.4byte	0x45
 6307 18b1 F2160000 		.4byte	.LLST101
 6308 18b5 22       		.uleb128 0x22
 6309 18b6 6B657900 		.ascii	"key\000"
 6310 18ba 01       		.byte	0x1
 6311 18bb 9103     		.2byte	0x391
 6312 18bd 400C0000 		.4byte	0xc40
 6313 18c1 02       		.uleb128 0x2
 6314 18c2 91       		.byte	0x91
 6315 18c3 00       		.sleb128 0
 6316 18c4 22       		.uleb128 0x22
 6317 18c5 726E6700 		.ascii	"rng\000"
ARM GAS  C:\Users\ddemidov\AppData\Local\Temp\ccr947bU.s 			page 141


 6318 18c9 01       		.byte	0x1
 6319 18ca 9103     		.2byte	0x391
 6320 18cc 50090000 		.4byte	0x950
 6321 18d0 02       		.uleb128 0x2
 6322 18d1 91       		.byte	0x91
 6323 18d2 04       		.sleb128 4
 6324 18d3 1A       		.uleb128 0x1a
 6325 18d4 1E0F0000 		.4byte	.LASF95
 6326 18d8 01       		.byte	0x1
 6327 18d9 9103     		.2byte	0x391
 6328 18db 25000000 		.4byte	0x25
 6329 18df 02       		.uleb128 0x2
 6330 18e0 91       		.byte	0x91
 6331 18e1 08       		.sleb128 8
 6332 18e2 19       		.uleb128 0x19
 6333 18e3 1A0C0000 		.4byte	.LASF264
 6334 18e7 01       		.byte	0x1
 6335 18e8 9203     		.2byte	0x392
 6336 18ea E2020000 		.4byte	0x2e2
 6337 18ee 29170000 		.4byte	.LLST102
 6338 18f2 22       		.uleb128 0x22
 6339 18f3 6D676600 		.ascii	"mgf\000"
 6340 18f7 01       		.byte	0x1
 6341 18f8 9203     		.2byte	0x392
 6342 18fa 25000000 		.4byte	0x25
 6343 18fe 02       		.uleb128 0x2
 6344 18ff 91       		.byte	0x91
 6345 1900 10       		.sleb128 16
 6346 1901 1A       		.uleb128 0x1a
 6347 1902 2A010000 		.4byte	.LASF265
 6348 1906 01       		.byte	0x1
 6349 1907 9203     		.2byte	0x392
 6350 1909 31080000 		.4byte	0x831
 6351 190d 02       		.uleb128 0x2
 6352 190e 91       		.byte	0x91
 6353 190f 14       		.sleb128 20
 6354 1910 1A       		.uleb128 0x1a
 6355 1911 C6100000 		.4byte	.LASF266
 6356 1915 01       		.byte	0x1
 6357 1916 9203     		.2byte	0x392
 6358 1918 45000000 		.4byte	0x45
 6359 191c 02       		.uleb128 0x2
 6360 191d 91       		.byte	0x91
 6361 191e 18       		.sleb128 24
 6362 191f 1C       		.uleb128 0x1c
 6363 1920 737A00   		.ascii	"sz\000"
 6364 1923 01       		.byte	0x1
 6365 1924 9403     		.2byte	0x394
 6366 1926 25000000 		.4byte	0x25
 6367 192a 55170000 		.4byte	.LLST103
 6368 192e 1C       		.uleb128 0x1c
 6369 192f 72657400 		.ascii	"ret\000"
 6370 1933 01       		.byte	0x1
 6371 1934 9403     		.2byte	0x394
 6372 1936 25000000 		.4byte	0x25
 6373 193a 9F170000 		.4byte	.LLST104
 6374 193e 21       		.uleb128 0x21
ARM GAS  C:\Users\ddemidov\AppData\Local\Temp\ccr947bU.s 			page 142


 6375 193f 16000000 		.4byte	.LVL307
 6376 1943 4A250000 		.4byte	0x254a
 6377 1947 53190000 		.4byte	0x1953
 6378 194b 20       		.uleb128 0x20
 6379 194c 01       		.uleb128 0x1
 6380 194d 50       		.byte	0x50
 6381 194e 03       		.uleb128 0x3
 6382 194f 91       		.byte	0x91
 6383 1950 00       		.sleb128 0
 6384 1951 06       		.byte	0x6
 6385 1952 00       		.byte	0
 6386 1953 21       		.uleb128 0x21
 6387 1954 4C000000 		.4byte	.LVL310
 6388 1958 B8110000 		.4byte	0x11b8
 6389 195c AF190000 		.4byte	0x19af
 6390 1960 20       		.uleb128 0x20
 6391 1961 01       		.uleb128 0x1
 6392 1962 53       		.byte	0x53
 6393 1963 02       		.uleb128 0x2
 6394 1964 74       		.byte	0x74
 6395 1965 00       		.sleb128 0
 6396 1966 20       		.uleb128 0x20
 6397 1967 01       		.uleb128 0x1
 6398 1968 52       		.byte	0x52
 6399 1969 02       		.uleb128 0x2
 6400 196a 76       		.byte	0x76
 6401 196b 00       		.sleb128 0
 6402 196c 20       		.uleb128 0x20
 6403 196d 01       		.uleb128 0x1
 6404 196e 51       		.byte	0x51
 6405 196f 02       		.uleb128 0x2
 6406 1970 75       		.byte	0x75
 6407 1971 00       		.sleb128 0
 6408 1972 20       		.uleb128 0x20
 6409 1973 01       		.uleb128 0x1
 6410 1974 50       		.byte	0x50
 6411 1975 03       		.uleb128 0x3
 6412 1976 91       		.byte	0x91
 6413 1977 60       		.sleb128 -32
 6414 1978 06       		.byte	0x6
 6415 1979 20       		.uleb128 0x20
 6416 197a 02       		.uleb128 0x2
 6417 197b 7D       		.byte	0x7d
 6418 197c 18       		.sleb128 24
 6419 197d 03       		.uleb128 0x3
 6420 197e 91       		.byte	0x91
 6421 197f 18       		.sleb128 24
 6422 1980 06       		.byte	0x6
 6423 1981 20       		.uleb128 0x20
 6424 1982 02       		.uleb128 0x2
 6425 1983 7D       		.byte	0x7d
 6426 1984 14       		.sleb128 20
 6427 1985 03       		.uleb128 0x3
 6428 1986 91       		.byte	0x91
 6429 1987 14       		.sleb128 20
 6430 1988 06       		.byte	0x6
 6431 1989 20       		.uleb128 0x20
ARM GAS  C:\Users\ddemidov\AppData\Local\Temp\ccr947bU.s 			page 143


 6432 198a 02       		.uleb128 0x2
 6433 198b 7D       		.byte	0x7d
 6434 198c 10       		.sleb128 16
 6435 198d 03       		.uleb128 0x3
 6436 198e 91       		.byte	0x91
 6437 198f 10       		.sleb128 16
 6438 1990 06       		.byte	0x6
 6439 1991 20       		.uleb128 0x20
 6440 1992 02       		.uleb128 0x2
 6441 1993 7D       		.byte	0x7d
 6442 1994 0C       		.sleb128 12
 6443 1995 02       		.uleb128 0x2
 6444 1996 77       		.byte	0x77
 6445 1997 00       		.sleb128 0
 6446 1998 20       		.uleb128 0x20
 6447 1999 02       		.uleb128 0x2
 6448 199a 7D       		.byte	0x7d
 6449 199b 08       		.sleb128 8
 6450 199c 03       		.uleb128 0x3
 6451 199d 91       		.byte	0x91
 6452 199e 08       		.sleb128 8
 6453 199f 06       		.byte	0x6
 6454 19a0 20       		.uleb128 0x20
 6455 19a1 02       		.uleb128 0x2
 6456 19a2 7D       		.byte	0x7d
 6457 19a3 04       		.sleb128 4
 6458 19a4 03       		.uleb128 0x3
 6459 19a5 91       		.byte	0x91
 6460 19a6 04       		.sleb128 4
 6461 19a7 06       		.byte	0x6
 6462 19a8 20       		.uleb128 0x20
 6463 19a9 02       		.uleb128 0x2
 6464 19aa 7D       		.byte	0x7d
 6465 19ab 00       		.sleb128 0
 6466 19ac 01       		.uleb128 0x1
 6467 19ad 32       		.byte	0x32
 6468 19ae 00       		.byte	0
 6469 19af 1F       		.uleb128 0x1f
 6470 19b0 64000000 		.4byte	.LVL313
 6471 19b4 56090000 		.4byte	0x956
 6472 19b8 20       		.uleb128 0x20
 6473 19b9 01       		.uleb128 0x1
 6474 19ba 53       		.byte	0x53
 6475 19bb 02       		.uleb128 0x2
 6476 19bc 91       		.byte	0x91
 6477 19bd 64       		.sleb128 -28
 6478 19be 20       		.uleb128 0x20
 6479 19bf 01       		.uleb128 0x1
 6480 19c0 52       		.byte	0x52
 6481 19c1 02       		.uleb128 0x2
 6482 19c2 76       		.byte	0x76
 6483 19c3 00       		.sleb128 0
 6484 19c4 20       		.uleb128 0x20
 6485 19c5 01       		.uleb128 0x1
 6486 19c6 51       		.byte	0x51
 6487 19c7 02       		.uleb128 0x2
 6488 19c8 74       		.byte	0x74
ARM GAS  C:\Users\ddemidov\AppData\Local\Temp\ccr947bU.s 			page 144


 6489 19c9 00       		.sleb128 0
 6490 19ca 20       		.uleb128 0x20
 6491 19cb 01       		.uleb128 0x1
 6492 19cc 50       		.byte	0x50
 6493 19cd 02       		.uleb128 0x2
 6494 19ce 76       		.byte	0x76
 6495 19cf 00       		.sleb128 0
 6496 19d0 20       		.uleb128 0x20
 6497 19d1 02       		.uleb128 0x2
 6498 19d2 7D       		.byte	0x7d
 6499 19d3 04       		.sleb128 4
 6500 19d4 03       		.uleb128 0x3
 6501 19d5 91       		.byte	0x91
 6502 19d6 00       		.sleb128 0
 6503 19d7 06       		.byte	0x6
 6504 19d8 20       		.uleb128 0x20
 6505 19d9 02       		.uleb128 0x2
 6506 19da 7D       		.byte	0x7d
 6507 19db 00       		.sleb128 0
 6508 19dc 01       		.uleb128 0x1
 6509 19dd 30       		.byte	0x30
 6510 19de 00       		.byte	0
 6511 19df 00       		.byte	0
 6512 19e0 36       		.uleb128 0x36
 6513 19e1 FA050000 		.4byte	.LASF267
 6514 19e5 01       		.byte	0x1
 6515 19e6 B003     		.2byte	0x3b0
 6516 19e8 25000000 		.4byte	0x25
 6517 19ec 00000000 		.4byte	.LFB25
 6518 19f0 2E000000 		.4byte	.LFE25-.LFB25
 6519 19f4 01       		.uleb128 0x1
 6520 19f5 9C       		.byte	0x9c
 6521 19f6 9A1A0000 		.4byte	0x1a9a
 6522 19fa 1D       		.uleb128 0x1d
 6523 19fb 696E00   		.ascii	"in\000"
 6524 19fe 01       		.byte	0x1
 6525 19ff B003     		.2byte	0x3b0
 6526 1a01 31080000 		.4byte	0x831
 6527 1a05 BD170000 		.4byte	.LLST105
 6528 1a09 19       		.uleb128 0x19
 6529 1a0a AF100000 		.4byte	.LASF233
 6530 1a0e 01       		.byte	0x1
 6531 1a0f B003     		.2byte	0x3b0
 6532 1a11 45000000 		.4byte	0x45
 6533 1a15 E9170000 		.4byte	.LLST106
 6534 1a19 1D       		.uleb128 0x1d
 6535 1a1a 6F757400 		.ascii	"out\000"
 6536 1a1e 01       		.byte	0x1
 6537 1a1f B003     		.2byte	0x3b0
 6538 1a21 2B080000 		.4byte	0x82b
 6539 1a25 08180000 		.4byte	.LLST107
 6540 1a29 1D       		.uleb128 0x1d
 6541 1a2a 6B657900 		.ascii	"key\000"
 6542 1a2e 01       		.byte	0x1
 6543 1a2f B003     		.2byte	0x3b0
 6544 1a31 400C0000 		.4byte	0xc40
 6545 1a35 34180000 		.4byte	.LLST108
ARM GAS  C:\Users\ddemidov\AppData\Local\Temp\ccr947bU.s 			page 145


 6546 1a39 1C       		.uleb128 0x1c
 6547 1a3a 72657400 		.ascii	"ret\000"
 6548 1a3e 01       		.byte	0x1
 6549 1a3f B203     		.2byte	0x3b2
 6550 1a41 25000000 		.4byte	0x25
 6551 1a45 61180000 		.4byte	.LLST109
 6552 1a49 21       		.uleb128 0x21
 6553 1a4a 1A000000 		.4byte	.LVL326
 6554 1a4e 56090000 		.4byte	0x956
 6555 1a52 7E1A0000 		.4byte	0x1a7e
 6556 1a56 20       		.uleb128 0x20
 6557 1a57 01       		.uleb128 0x1
 6558 1a58 53       		.byte	0x53
 6559 1a59 02       		.uleb128 0x2
 6560 1a5a 91       		.byte	0x91
 6561 1a5b 6C       		.sleb128 -20
 6562 1a5c 20       		.uleb128 0x20
 6563 1a5d 01       		.uleb128 0x1
 6564 1a5e 52       		.byte	0x52
 6565 1a5f 02       		.uleb128 0x2
 6566 1a60 74       		.byte	0x74
 6567 1a61 00       		.sleb128 0
 6568 1a62 20       		.uleb128 0x20
 6569 1a63 01       		.uleb128 0x1
 6570 1a64 51       		.byte	0x51
 6571 1a65 03       		.uleb128 0x3
 6572 1a66 F3       		.byte	0xf3
 6573 1a67 01       		.uleb128 0x1
 6574 1a68 51       		.byte	0x51
 6575 1a69 20       		.uleb128 0x20
 6576 1a6a 01       		.uleb128 0x1
 6577 1a6b 50       		.byte	0x50
 6578 1a6c 02       		.uleb128 0x2
 6579 1a6d 74       		.byte	0x74
 6580 1a6e 00       		.sleb128 0
 6581 1a6f 20       		.uleb128 0x20
 6582 1a70 02       		.uleb128 0x2
 6583 1a71 7D       		.byte	0x7d
 6584 1a72 04       		.sleb128 4
 6585 1a73 03       		.uleb128 0x3
 6586 1a74 F3       		.byte	0xf3
 6587 1a75 01       		.uleb128 0x1
 6588 1a76 53       		.byte	0x53
 6589 1a77 20       		.uleb128 0x20
 6590 1a78 02       		.uleb128 0x2
 6591 1a79 7D       		.byte	0x7d
 6592 1a7a 00       		.sleb128 0
 6593 1a7b 01       		.uleb128 0x1
 6594 1a7c 33       		.byte	0x33
 6595 1a7d 00       		.byte	0
 6596 1a7e 1F       		.uleb128 0x1f
 6597 1a7f 2A000000 		.4byte	.LVL328
 6598 1a83 94070000 		.4byte	0x794
 6599 1a87 20       		.uleb128 0x20
 6600 1a88 01       		.uleb128 0x1
 6601 1a89 53       		.byte	0x53
 6602 1a8a 01       		.uleb128 0x1
ARM GAS  C:\Users\ddemidov\AppData\Local\Temp\ccr947bU.s 			page 146


 6603 1a8b 32       		.byte	0x32
 6604 1a8c 20       		.uleb128 0x20
 6605 1a8d 01       		.uleb128 0x1
 6606 1a8e 52       		.byte	0x52
 6607 1a8f 02       		.uleb128 0x2
 6608 1a90 75       		.byte	0x75
 6609 1a91 00       		.sleb128 0
 6610 1a92 20       		.uleb128 0x20
 6611 1a93 01       		.uleb128 0x1
 6612 1a94 50       		.byte	0x50
 6613 1a95 02       		.uleb128 0x2
 6614 1a96 74       		.byte	0x74
 6615 1a97 00       		.sleb128 0
 6616 1a98 00       		.byte	0
 6617 1a99 00       		.byte	0
 6618 1a9a 36       		.uleb128 0x36
 6619 1a9b 34020000 		.4byte	.LASF268
 6620 1a9f 01       		.byte	0x1
 6621 1aa0 D103     		.2byte	0x3d1
 6622 1aa2 25000000 		.4byte	0x25
 6623 1aa6 00000000 		.4byte	.LFB26
 6624 1aaa 6C000000 		.4byte	.LFE26-.LFB26
 6625 1aae 01       		.uleb128 0x1
 6626 1aaf 9C       		.byte	0x9c
 6627 1ab0 C31B0000 		.4byte	0x1bc3
 6628 1ab4 1D       		.uleb128 0x1d
 6629 1ab5 696E00   		.ascii	"in\000"
 6630 1ab8 01       		.byte	0x1
 6631 1ab9 D103     		.2byte	0x3d1
 6632 1abb 31080000 		.4byte	0x831
 6633 1abf 74180000 		.4byte	.LLST110
 6634 1ac3 19       		.uleb128 0x19
 6635 1ac4 AF100000 		.4byte	.LASF233
 6636 1ac8 01       		.byte	0x1
 6637 1ac9 D103     		.2byte	0x3d1
 6638 1acb 45000000 		.4byte	0x45
 6639 1acf E2180000 		.4byte	.LLST111
 6640 1ad3 1D       		.uleb128 0x1d
 6641 1ad4 6F757400 		.ascii	"out\000"
 6642 1ad8 01       		.byte	0x1
 6643 1ad9 D103     		.2byte	0x3d1
 6644 1adb 2B080000 		.4byte	0x82b
 6645 1adf 30190000 		.4byte	.LLST112
 6646 1ae3 1D       		.uleb128 0x1d
 6647 1ae4 6B657900 		.ascii	"key\000"
 6648 1ae8 01       		.byte	0x1
 6649 1ae9 D203     		.2byte	0x3d2
 6650 1aeb 400C0000 		.4byte	0xc40
 6651 1aef 5C190000 		.4byte	.LLST113
 6652 1af3 19       		.uleb128 0x19
 6653 1af4 1E0F0000 		.4byte	.LASF95
 6654 1af8 01       		.byte	0x1
 6655 1af9 D203     		.2byte	0x3d2
 6656 1afb 25000000 		.4byte	0x25
 6657 1aff A2190000 		.4byte	.LLST114
 6658 1b03 19       		.uleb128 0x19
 6659 1b04 1A0C0000 		.4byte	.LASF264
ARM GAS  C:\Users\ddemidov\AppData\Local\Temp\ccr947bU.s 			page 147


 6660 1b08 01       		.byte	0x1
 6661 1b09 D203     		.2byte	0x3d2
 6662 1b0b E2020000 		.4byte	0x2e2
 6663 1b0f DA190000 		.4byte	.LLST115
 6664 1b13 1D       		.uleb128 0x1d
 6665 1b14 6D676600 		.ascii	"mgf\000"
 6666 1b18 01       		.byte	0x1
 6667 1b19 D203     		.2byte	0x3d2
 6668 1b1b 25000000 		.4byte	0x25
 6669 1b1f 2A1A0000 		.4byte	.LLST116
 6670 1b23 19       		.uleb128 0x19
 6671 1b24 2A010000 		.4byte	.LASF265
 6672 1b28 01       		.byte	0x1
 6673 1b29 D303     		.2byte	0x3d3
 6674 1b2b 31080000 		.4byte	0x831
 6675 1b2f 621A0000 		.4byte	.LLST117
 6676 1b33 19       		.uleb128 0x19
 6677 1b34 C6100000 		.4byte	.LASF266
 6678 1b38 01       		.byte	0x1
 6679 1b39 D303     		.2byte	0x3d3
 6680 1b3b 45000000 		.4byte	0x45
 6681 1b3f 9A1A0000 		.4byte	.LLST118
 6682 1b43 1C       		.uleb128 0x1c
 6683 1b44 72657400 		.ascii	"ret\000"
 6684 1b48 01       		.byte	0x1
 6685 1b49 D503     		.2byte	0x3d5
 6686 1b4b 25000000 		.4byte	0x25
 6687 1b4f D21A0000 		.4byte	.LLST119
 6688 1b53 21       		.uleb128 0x21
 6689 1b54 36000000 		.4byte	.LVL338
 6690 1b58 56090000 		.4byte	0x956
 6691 1b5c 811B0000 		.4byte	0x1b81
 6692 1b60 20       		.uleb128 0x20
 6693 1b61 01       		.uleb128 0x1
 6694 1b62 53       		.byte	0x53
 6695 1b63 02       		.uleb128 0x2
 6696 1b64 91       		.byte	0x91
 6697 1b65 64       		.sleb128 -28
 6698 1b66 20       		.uleb128 0x20
 6699 1b67 01       		.uleb128 0x1
 6700 1b68 52       		.byte	0x52
 6701 1b69 02       		.uleb128 0x2
 6702 1b6a 74       		.byte	0x74
 6703 1b6b 00       		.sleb128 0
 6704 1b6c 20       		.uleb128 0x20
 6705 1b6d 01       		.uleb128 0x1
 6706 1b6e 50       		.byte	0x50
 6707 1b6f 02       		.uleb128 0x2
 6708 1b70 74       		.byte	0x74
 6709 1b71 00       		.sleb128 0
 6710 1b72 20       		.uleb128 0x20
 6711 1b73 02       		.uleb128 0x2
 6712 1b74 7D       		.byte	0x7d
 6713 1b75 04       		.sleb128 4
 6714 1b76 03       		.uleb128 0x3
 6715 1b77 F3       		.byte	0xf3
 6716 1b78 01       		.uleb128 0x1
ARM GAS  C:\Users\ddemidov\AppData\Local\Temp\ccr947bU.s 			page 148


 6717 1b79 53       		.byte	0x53
 6718 1b7a 20       		.uleb128 0x20
 6719 1b7b 02       		.uleb128 0x2
 6720 1b7c 7D       		.byte	0x7d
 6721 1b7d 00       		.sleb128 0
 6722 1b7e 01       		.uleb128 0x1
 6723 1b7f 33       		.byte	0x33
 6724 1b80 00       		.byte	0
 6725 1b81 1F       		.uleb128 0x1f
 6726 1b82 56000000 		.4byte	.LVL340
 6727 1b86 61150000 		.4byte	0x1561
 6728 1b8a 20       		.uleb128 0x20
 6729 1b8b 01       		.uleb128 0x1
 6730 1b8c 53       		.byte	0x53
 6731 1b8d 01       		.uleb128 0x1
 6732 1b8e 32       		.byte	0x32
 6733 1b8f 20       		.uleb128 0x20
 6734 1b90 01       		.uleb128 0x1
 6735 1b91 52       		.byte	0x52
 6736 1b92 02       		.uleb128 0x2
 6737 1b93 75       		.byte	0x75
 6738 1b94 00       		.sleb128 0
 6739 1b95 20       		.uleb128 0x20
 6740 1b96 01       		.uleb128 0x1
 6741 1b97 50       		.byte	0x50
 6742 1b98 02       		.uleb128 0x2
 6743 1b99 74       		.byte	0x74
 6744 1b9a 00       		.sleb128 0
 6745 1b9b 20       		.uleb128 0x20
 6746 1b9c 02       		.uleb128 0x2
 6747 1b9d 7D       		.byte	0x7d
 6748 1b9e 10       		.sleb128 16
 6749 1b9f 03       		.uleb128 0x3
 6750 1ba0 91       		.byte	0x91
 6751 1ba1 10       		.sleb128 16
 6752 1ba2 06       		.byte	0x6
 6753 1ba3 20       		.uleb128 0x20
 6754 1ba4 02       		.uleb128 0x2
 6755 1ba5 7D       		.byte	0x7d
 6756 1ba6 0C       		.sleb128 12
 6757 1ba7 03       		.uleb128 0x3
 6758 1ba8 91       		.byte	0x91
 6759 1ba9 0C       		.sleb128 12
 6760 1baa 06       		.byte	0x6
 6761 1bab 20       		.uleb128 0x20
 6762 1bac 02       		.uleb128 0x2
 6763 1bad 7D       		.byte	0x7d
 6764 1bae 08       		.sleb128 8
 6765 1baf 03       		.uleb128 0x3
 6766 1bb0 91       		.byte	0x91
 6767 1bb1 08       		.sleb128 8
 6768 1bb2 06       		.byte	0x6
 6769 1bb3 20       		.uleb128 0x20
 6770 1bb4 02       		.uleb128 0x2
 6771 1bb5 7D       		.byte	0x7d
 6772 1bb6 04       		.sleb128 4
 6773 1bb7 02       		.uleb128 0x2
ARM GAS  C:\Users\ddemidov\AppData\Local\Temp\ccr947bU.s 			page 149


 6774 1bb8 76       		.byte	0x76
 6775 1bb9 00       		.sleb128 0
 6776 1bba 20       		.uleb128 0x20
 6777 1bbb 02       		.uleb128 0x2
 6778 1bbc 7D       		.byte	0x7d
 6779 1bbd 00       		.sleb128 0
 6780 1bbe 02       		.uleb128 0x2
 6781 1bbf 77       		.byte	0x77
 6782 1bc0 00       		.sleb128 0
 6783 1bc1 00       		.byte	0
 6784 1bc2 00       		.byte	0
 6785 1bc3 36       		.uleb128 0x36
 6786 1bc4 9B0A0000 		.4byte	.LASF269
 6787 1bc8 01       		.byte	0x1
 6788 1bc9 F503     		.2byte	0x3f5
 6789 1bcb 25000000 		.4byte	0x25
 6790 1bcf 00000000 		.4byte	.LFB27
 6791 1bd3 7C000000 		.4byte	.LFE27-.LFB27
 6792 1bd7 01       		.uleb128 0x1
 6793 1bd8 9C       		.byte	0x9c
 6794 1bd9 611D0000 		.4byte	0x1d61
 6795 1bdd 1D       		.uleb128 0x1d
 6796 1bde 696E00   		.ascii	"in\000"
 6797 1be1 01       		.byte	0x1
 6798 1be2 F503     		.2byte	0x3f5
 6799 1be4 52070000 		.4byte	0x752
 6800 1be8 E51A0000 		.4byte	.LLST120
 6801 1bec 19       		.uleb128 0x19
 6802 1bed AF100000 		.4byte	.LASF233
 6803 1bf1 01       		.byte	0x1
 6804 1bf2 F503     		.2byte	0x3f5
 6805 1bf4 45000000 		.4byte	0x45
 6806 1bf8 2A1B0000 		.4byte	.LLST121
 6807 1bfc 1D       		.uleb128 0x1d
 6808 1bfd 6F757400 		.ascii	"out\000"
 6809 1c01 01       		.byte	0x1
 6810 1c02 F503     		.2byte	0x3f5
 6811 1c04 31080000 		.4byte	0x831
 6812 1c08 6F1B0000 		.4byte	.LLST122
 6813 1c0c 19       		.uleb128 0x19
 6814 1c0d DE0A0000 		.4byte	.LASF234
 6815 1c11 01       		.byte	0x1
 6816 1c12 F503     		.2byte	0x3f5
 6817 1c14 45000000 		.4byte	0x45
 6818 1c18 8E1B0000 		.4byte	.LLST123
 6819 1c1c 22       		.uleb128 0x22
 6820 1c1d 6B657900 		.ascii	"key\000"
 6821 1c21 01       		.byte	0x1
 6822 1c22 F603     		.2byte	0x3f6
 6823 1c24 400C0000 		.4byte	0xc40
 6824 1c28 02       		.uleb128 0x2
 6825 1c29 91       		.byte	0x91
 6826 1c2a 00       		.sleb128 0
 6827 1c2b 1B       		.uleb128 0x1b
 6828 1c2c D40E0000 		.4byte	.LASF270
 6829 1c30 01       		.byte	0x1
 6830 1c31 F803     		.2byte	0x3f8
ARM GAS  C:\Users\ddemidov\AppData\Local\Temp\ccr947bU.s 			page 150


 6831 1c33 25000000 		.4byte	0x25
 6832 1c37 BA1B0000 		.4byte	.LLST124
 6833 1c3b 1C       		.uleb128 0x1c
 6834 1c3c 746D7000 		.ascii	"tmp\000"
 6835 1c40 01       		.byte	0x1
 6836 1c41 F903     		.2byte	0x3f9
 6837 1c43 31080000 		.4byte	0x831
 6838 1c47 041C0000 		.4byte	.LLST125
 6839 1c4b 23       		.uleb128 0x23
 6840 1c4c 70616400 		.ascii	"pad\000"
 6841 1c50 01       		.byte	0x1
 6842 1c51 FA03     		.2byte	0x3fa
 6843 1c53 31080000 		.4byte	0x831
 6844 1c57 02       		.uleb128 0x2
 6845 1c58 91       		.byte	0x91
 6846 1c59 64       		.sleb128 -28
 6847 1c5a 1E       		.uleb128 0x1e
 6848 1c5b 32000000 		.4byte	.LBB32
 6849 1c5f 0A000000 		.4byte	.LBE32-.LBB32
 6850 1c63 871C0000 		.4byte	0x1c87
 6851 1c67 1C       		.uleb128 0x1c
 6852 1c68 787000   		.ascii	"xp\000"
 6853 1c6b 01       		.byte	0x1
 6854 1c6c 0904     		.2byte	0x409
 6855 1c6e 93000000 		.4byte	0x93
 6856 1c72 381C0000 		.4byte	.LLST126
 6857 1c76 1F       		.uleb128 0x1f
 6858 1c77 3C000000 		.4byte	.LVL360
 6859 1c7b 79250000 		.4byte	0x2579
 6860 1c7f 20       		.uleb128 0x20
 6861 1c80 01       		.uleb128 0x1
 6862 1c81 50       		.byte	0x50
 6863 1c82 02       		.uleb128 0x2
 6864 1c83 74       		.byte	0x74
 6865 1c84 00       		.sleb128 0
 6866 1c85 00       		.byte	0
 6867 1c86 00       		.byte	0
 6868 1c87 30       		.uleb128 0x30
 6869 1c88 5D070000 		.4byte	0x75d
 6870 1c8c 54000000 		.4byte	.LBB33
 6871 1c90 12000000 		.4byte	.LBE33-.LBB33
 6872 1c94 01       		.byte	0x1
 6873 1c95 1104     		.2byte	0x411
 6874 1c97 C11C0000 		.4byte	0x1cc1
 6875 1c9b 37       		.uleb128 0x37
 6876 1c9c 74070000 		.4byte	0x774
 6877 1ca0 4B1C0000 		.4byte	.LLST127
 6878 1ca4 37       		.uleb128 0x37
 6879 1ca5 69070000 		.4byte	0x769
 6880 1ca9 8C1C0000 		.4byte	.LLST128
 6881 1cad 32       		.uleb128 0x32
 6882 1cae 54000000 		.4byte	.LBB34
 6883 1cb2 12000000 		.4byte	.LBE34-.LBB34
 6884 1cb6 33       		.uleb128 0x33
 6885 1cb7 7F070000 		.4byte	0x77f
 6886 1cbb 9F1C0000 		.4byte	.LLST129
 6887 1cbf 00       		.byte	0
ARM GAS  C:\Users\ddemidov\AppData\Local\Temp\ccr947bU.s 			page 151


 6888 1cc0 00       		.byte	0
 6889 1cc1 1E       		.uleb128 0x1e
 6890 1cc2 66000000 		.4byte	.LBB35
 6891 1cc6 0A000000 		.4byte	.LBE35-.LBB35
 6892 1cca EE1C0000 		.4byte	0x1cee
 6893 1cce 1C       		.uleb128 0x1c
 6894 1ccf 787000   		.ascii	"xp\000"
 6895 1cd2 01       		.byte	0x1
 6896 1cd3 1204     		.2byte	0x412
 6897 1cd5 93000000 		.4byte	0x93
 6898 1cd9 CA1C0000 		.4byte	.LLST130
 6899 1cdd 1F       		.uleb128 0x1f
 6900 1cde 70000000 		.4byte	.LVL370
 6901 1ce2 79250000 		.4byte	0x2579
 6902 1ce6 20       		.uleb128 0x20
 6903 1ce7 01       		.uleb128 0x1
 6904 1ce8 50       		.byte	0x50
 6905 1ce9 02       		.uleb128 0x2
 6906 1cea 74       		.byte	0x74
 6907 1ceb 00       		.sleb128 0
 6908 1cec 00       		.byte	0
 6909 1ced 00       		.byte	0
 6910 1cee 21       		.uleb128 0x21
 6911 1cef 16000000 		.4byte	.LVL353
 6912 1cf3 C8250000 		.4byte	0x25c8
 6913 1cf7 021D0000 		.4byte	0x1d02
 6914 1cfb 20       		.uleb128 0x20
 6915 1cfc 01       		.uleb128 0x1
 6916 1cfd 50       		.byte	0x50
 6917 1cfe 02       		.uleb128 0x2
 6918 1cff 77       		.byte	0x77
 6919 1d00 00       		.sleb128 0
 6920 1d01 00       		.byte	0
 6921 1d02 21       		.uleb128 0x21
 6922 1d03 22000000 		.4byte	.LVL355
 6923 1d07 2E240000 		.4byte	0x242e
 6924 1d0b 221D0000 		.4byte	0x1d22
 6925 1d0f 20       		.uleb128 0x20
 6926 1d10 01       		.uleb128 0x1
 6927 1d11 52       		.byte	0x52
 6928 1d12 02       		.uleb128 0x2
 6929 1d13 77       		.byte	0x77
 6930 1d14 00       		.sleb128 0
 6931 1d15 20       		.uleb128 0x20
 6932 1d16 01       		.uleb128 0x1
 6933 1d17 51       		.byte	0x51
 6934 1d18 02       		.uleb128 0x2
 6935 1d19 75       		.byte	0x75
 6936 1d1a 00       		.sleb128 0
 6937 1d1b 20       		.uleb128 0x20
 6938 1d1c 01       		.uleb128 0x1
 6939 1d1d 50       		.byte	0x50
 6940 1d1e 02       		.uleb128 0x2
 6941 1d1f 74       		.byte	0x74
 6942 1d20 00       		.sleb128 0
 6943 1d21 00       		.byte	0
 6944 1d22 21       		.uleb128 0x21
ARM GAS  C:\Users\ddemidov\AppData\Local\Temp\ccr947bU.s 			page 152


 6945 1d23 2E000000 		.4byte	.LVL356
 6946 1d27 E0190000 		.4byte	0x19e0
 6947 1d2b 491D0000 		.4byte	0x1d49
 6948 1d2f 20       		.uleb128 0x20
 6949 1d30 01       		.uleb128 0x1
 6950 1d31 53       		.byte	0x53
 6951 1d32 03       		.uleb128 0x3
 6952 1d33 91       		.byte	0x91
 6953 1d34 00       		.sleb128 0
 6954 1d35 06       		.byte	0x6
 6955 1d36 20       		.uleb128 0x20
 6956 1d37 01       		.uleb128 0x1
 6957 1d38 52       		.byte	0x52
 6958 1d39 02       		.uleb128 0x2
 6959 1d3a 91       		.byte	0x91
 6960 1d3b 64       		.sleb128 -28
 6961 1d3c 20       		.uleb128 0x20
 6962 1d3d 01       		.uleb128 0x1
 6963 1d3e 51       		.byte	0x51
 6964 1d3f 02       		.uleb128 0x2
 6965 1d40 77       		.byte	0x77
 6966 1d41 00       		.sleb128 0
 6967 1d42 20       		.uleb128 0x20
 6968 1d43 01       		.uleb128 0x1
 6969 1d44 50       		.byte	0x50
 6970 1d45 02       		.uleb128 0x2
 6971 1d46 74       		.byte	0x74
 6972 1d47 00       		.sleb128 0
 6973 1d48 00       		.byte	0
 6974 1d49 1F       		.uleb128 0x1f
 6975 1d4a 4E000000 		.4byte	.LVL363
 6976 1d4e 2E240000 		.4byte	0x242e
 6977 1d52 20       		.uleb128 0x20
 6978 1d53 01       		.uleb128 0x1
 6979 1d54 52       		.byte	0x52
 6980 1d55 02       		.uleb128 0x2
 6981 1d56 75       		.byte	0x75
 6982 1d57 00       		.sleb128 0
 6983 1d58 20       		.uleb128 0x20
 6984 1d59 01       		.uleb128 0x1
 6985 1d5a 50       		.byte	0x50
 6986 1d5b 03       		.uleb128 0x3
 6987 1d5c 91       		.byte	0x91
 6988 1d5d 5C       		.sleb128 -36
 6989 1d5e 06       		.byte	0x6
 6990 1d5f 00       		.byte	0
 6991 1d60 00       		.byte	0
 6992 1d61 36       		.uleb128 0x36
 6993 1d62 6D0E0000 		.4byte	.LASF271
 6994 1d66 01       		.byte	0x1
 6995 1d67 2404     		.2byte	0x424
 6996 1d69 25000000 		.4byte	0x25
 6997 1d6d 00000000 		.4byte	.LFB28
 6998 1d71 DC000000 		.4byte	.LFE28-.LFB28
 6999 1d75 01       		.uleb128 0x1
 7000 1d76 9C       		.byte	0x9c
 7001 1d77 711F0000 		.4byte	0x1f71
ARM GAS  C:\Users\ddemidov\AppData\Local\Temp\ccr947bU.s 			page 153


 7002 1d7b 1D       		.uleb128 0x1d
 7003 1d7c 696E00   		.ascii	"in\000"
 7004 1d7f 01       		.byte	0x1
 7005 1d80 2404     		.2byte	0x424
 7006 1d82 52070000 		.4byte	0x752
 7007 1d86 DD1C0000 		.4byte	.LLST131
 7008 1d8a 19       		.uleb128 0x19
 7009 1d8b AF100000 		.4byte	.LASF233
 7010 1d8f 01       		.byte	0x1
 7011 1d90 2404     		.2byte	0x424
 7012 1d92 45000000 		.4byte	0x45
 7013 1d96 6F1D0000 		.4byte	.LLST132
 7014 1d9a 1D       		.uleb128 0x1d
 7015 1d9b 6F757400 		.ascii	"out\000"
 7016 1d9f 01       		.byte	0x1
 7017 1da0 2404     		.2byte	0x424
 7018 1da2 31080000 		.4byte	0x831
 7019 1da6 BF1D0000 		.4byte	.LLST133
 7020 1daa 19       		.uleb128 0x19
 7021 1dab DE0A0000 		.4byte	.LASF234
 7022 1daf 01       		.byte	0x1
 7023 1db0 2404     		.2byte	0x424
 7024 1db2 45000000 		.4byte	0x45
 7025 1db6 011E0000 		.4byte	.LLST134
 7026 1dba 22       		.uleb128 0x22
 7027 1dbb 6B657900 		.ascii	"key\000"
 7028 1dbf 01       		.byte	0x1
 7029 1dc0 2504     		.2byte	0x425
 7030 1dc2 400C0000 		.4byte	0xc40
 7031 1dc6 02       		.uleb128 0x2
 7032 1dc7 91       		.byte	0x91
 7033 1dc8 00       		.sleb128 0
 7034 1dc9 1A       		.uleb128 0x1a
 7035 1dca 1E0F0000 		.4byte	.LASF95
 7036 1dce 01       		.byte	0x1
 7037 1dcf 2504     		.2byte	0x425
 7038 1dd1 25000000 		.4byte	0x25
 7039 1dd5 02       		.uleb128 0x2
 7040 1dd6 91       		.byte	0x91
 7041 1dd7 04       		.sleb128 4
 7042 1dd8 19       		.uleb128 0x19
 7043 1dd9 1A0C0000 		.4byte	.LASF264
 7044 1ddd 01       		.byte	0x1
 7045 1dde 2504     		.2byte	0x425
 7046 1de0 E2020000 		.4byte	0x2e2
 7047 1de4 201E0000 		.4byte	.LLST135
 7048 1de8 22       		.uleb128 0x22
 7049 1de9 6D676600 		.ascii	"mgf\000"
 7050 1ded 01       		.byte	0x1
 7051 1dee 2504     		.2byte	0x425
 7052 1df0 25000000 		.4byte	0x25
 7053 1df4 02       		.uleb128 0x2
 7054 1df5 91       		.byte	0x91
 7055 1df6 0C       		.sleb128 12
 7056 1df7 1A       		.uleb128 0x1a
 7057 1df8 2A010000 		.4byte	.LASF265
 7058 1dfc 01       		.byte	0x1
ARM GAS  C:\Users\ddemidov\AppData\Local\Temp\ccr947bU.s 			page 154


 7059 1dfd 2604     		.2byte	0x426
 7060 1dff 31080000 		.4byte	0x831
 7061 1e03 02       		.uleb128 0x2
 7062 1e04 91       		.byte	0x91
 7063 1e05 10       		.sleb128 16
 7064 1e06 1A       		.uleb128 0x1a
 7065 1e07 C6100000 		.4byte	.LASF266
 7066 1e0b 01       		.byte	0x1
 7067 1e0c 2604     		.2byte	0x426
 7068 1e0e 45000000 		.4byte	0x45
 7069 1e12 02       		.uleb128 0x2
 7070 1e13 91       		.byte	0x91
 7071 1e14 14       		.sleb128 20
 7072 1e15 1B       		.uleb128 0x1b
 7073 1e16 D40E0000 		.4byte	.LASF270
 7074 1e1a 01       		.byte	0x1
 7075 1e1b 2804     		.2byte	0x428
 7076 1e1d 25000000 		.4byte	0x25
 7077 1e21 4C1E0000 		.4byte	.LLST136
 7078 1e25 1C       		.uleb128 0x1c
 7079 1e26 746D7000 		.ascii	"tmp\000"
 7080 1e2a 01       		.byte	0x1
 7081 1e2b 2904     		.2byte	0x429
 7082 1e2d 31080000 		.4byte	0x831
 7083 1e31 961E0000 		.4byte	.LLST137
 7084 1e35 23       		.uleb128 0x23
 7085 1e36 70616400 		.ascii	"pad\000"
 7086 1e3a 01       		.byte	0x1
 7087 1e3b 2A04     		.2byte	0x42a
 7088 1e3d 31080000 		.4byte	0x831
 7089 1e41 02       		.uleb128 0x2
 7090 1e42 91       		.byte	0x91
 7091 1e43 64       		.sleb128 -28
 7092 1e44 1E       		.uleb128 0x1e
 7093 1e45 6A000000 		.4byte	.LBB36
 7094 1e49 0A000000 		.4byte	.LBE36-.LBB36
 7095 1e4d 711E0000 		.4byte	0x1e71
 7096 1e51 1C       		.uleb128 0x1c
 7097 1e52 787000   		.ascii	"xp\000"
 7098 1e55 01       		.byte	0x1
 7099 1e56 4404     		.2byte	0x444
 7100 1e58 93000000 		.4byte	0x93
 7101 1e5c CA1E0000 		.4byte	.LLST138
 7102 1e60 1F       		.uleb128 0x1f
 7103 1e61 74000000 		.4byte	.LVL387
 7104 1e65 79250000 		.4byte	0x2579
 7105 1e69 20       		.uleb128 0x20
 7106 1e6a 01       		.uleb128 0x1
 7107 1e6b 50       		.byte	0x50
 7108 1e6c 02       		.uleb128 0x2
 7109 1e6d 75       		.byte	0x75
 7110 1e6e 00       		.sleb128 0
 7111 1e6f 00       		.byte	0
 7112 1e70 00       		.byte	0
 7113 1e71 30       		.uleb128 0x30
 7114 1e72 5D070000 		.4byte	0x75d
 7115 1e76 98000000 		.4byte	.LBB37
ARM GAS  C:\Users\ddemidov\AppData\Local\Temp\ccr947bU.s 			page 155


 7116 1e7a 12000000 		.4byte	.LBE37-.LBB37
 7117 1e7e 01       		.byte	0x1
 7118 1e7f 4C04     		.2byte	0x44c
 7119 1e81 AB1E0000 		.4byte	0x1eab
 7120 1e85 37       		.uleb128 0x37
 7121 1e86 74070000 		.4byte	0x774
 7122 1e8a DD1E0000 		.4byte	.LLST139
 7123 1e8e 37       		.uleb128 0x37
 7124 1e8f 69070000 		.4byte	0x769
 7125 1e93 1E1F0000 		.4byte	.LLST140
 7126 1e97 32       		.uleb128 0x32
 7127 1e98 98000000 		.4byte	.LBB38
 7128 1e9c 12000000 		.4byte	.LBE38-.LBB38
 7129 1ea0 33       		.uleb128 0x33
 7130 1ea1 7F070000 		.4byte	0x77f
 7131 1ea5 311F0000 		.4byte	.LLST141
 7132 1ea9 00       		.byte	0
 7133 1eaa 00       		.byte	0
 7134 1eab 1E       		.uleb128 0x1e
 7135 1eac AA000000 		.4byte	.LBB39
 7136 1eb0 0A000000 		.4byte	.LBE39-.LBB39
 7137 1eb4 D81E0000 		.4byte	0x1ed8
 7138 1eb8 1C       		.uleb128 0x1c
 7139 1eb9 787000   		.ascii	"xp\000"
 7140 1ebc 01       		.byte	0x1
 7141 1ebd 4D04     		.2byte	0x44d
 7142 1ebf 93000000 		.4byte	0x93
 7143 1ec3 5C1F0000 		.4byte	.LLST142
 7144 1ec7 1F       		.uleb128 0x1f
 7145 1ec8 B4000000 		.4byte	.LVL397
 7146 1ecc 79250000 		.4byte	0x2579
 7147 1ed0 20       		.uleb128 0x20
 7148 1ed1 01       		.uleb128 0x1
 7149 1ed2 50       		.byte	0x50
 7150 1ed3 02       		.uleb128 0x2
 7151 1ed4 75       		.byte	0x75
 7152 1ed5 00       		.sleb128 0
 7153 1ed6 00       		.byte	0
 7154 1ed7 00       		.byte	0
 7155 1ed8 21       		.uleb128 0x21
 7156 1ed9 3A000000 		.4byte	.LVL380
 7157 1edd C8250000 		.4byte	0x25c8
 7158 1ee1 EC1E0000 		.4byte	0x1eec
 7159 1ee5 20       		.uleb128 0x20
 7160 1ee6 01       		.uleb128 0x1
 7161 1ee7 50       		.byte	0x50
 7162 1ee8 02       		.uleb128 0x2
 7163 1ee9 74       		.byte	0x74
 7164 1eea 00       		.sleb128 0
 7165 1eeb 00       		.byte	0
 7166 1eec 21       		.uleb128 0x21
 7167 1eed 46000000 		.4byte	.LVL382
 7168 1ef1 2E240000 		.4byte	0x242e
 7169 1ef5 0C1F0000 		.4byte	0x1f0c
 7170 1ef9 20       		.uleb128 0x20
 7171 1efa 01       		.uleb128 0x1
 7172 1efb 52       		.byte	0x52
ARM GAS  C:\Users\ddemidov\AppData\Local\Temp\ccr947bU.s 			page 156


 7173 1efc 02       		.uleb128 0x2
 7174 1efd 74       		.byte	0x74
 7175 1efe 00       		.sleb128 0
 7176 1eff 20       		.uleb128 0x20
 7177 1f00 01       		.uleb128 0x1
 7178 1f01 51       		.byte	0x51
 7179 1f02 02       		.uleb128 0x2
 7180 1f03 76       		.byte	0x76
 7181 1f04 00       		.sleb128 0
 7182 1f05 20       		.uleb128 0x20
 7183 1f06 01       		.uleb128 0x1
 7184 1f07 50       		.byte	0x50
 7185 1f08 02       		.uleb128 0x2
 7186 1f09 75       		.byte	0x75
 7187 1f0a 00       		.sleb128 0
 7188 1f0b 00       		.byte	0
 7189 1f0c 21       		.uleb128 0x21
 7190 1f0d 66000000 		.4byte	.LVL383
 7191 1f11 9A1A0000 		.4byte	0x1a9a
 7192 1f15 5A1F0000 		.4byte	0x1f5a
 7193 1f19 20       		.uleb128 0x20
 7194 1f1a 01       		.uleb128 0x1
 7195 1f1b 53       		.byte	0x53
 7196 1f1c 03       		.uleb128 0x3
 7197 1f1d 91       		.byte	0x91
 7198 1f1e 00       		.sleb128 0
 7199 1f1f 06       		.byte	0x6
 7200 1f20 20       		.uleb128 0x20
 7201 1f21 01       		.uleb128 0x1
 7202 1f22 52       		.byte	0x52
 7203 1f23 02       		.uleb128 0x2
 7204 1f24 91       		.byte	0x91
 7205 1f25 64       		.sleb128 -28
 7206 1f26 20       		.uleb128 0x20
 7207 1f27 01       		.uleb128 0x1
 7208 1f28 51       		.byte	0x51
 7209 1f29 02       		.uleb128 0x2
 7210 1f2a 74       		.byte	0x74
 7211 1f2b 00       		.sleb128 0
 7212 1f2c 20       		.uleb128 0x20
 7213 1f2d 01       		.uleb128 0x1
 7214 1f2e 50       		.byte	0x50
 7215 1f2f 02       		.uleb128 0x2
 7216 1f30 75       		.byte	0x75
 7217 1f31 00       		.sleb128 0
 7218 1f32 20       		.uleb128 0x20
 7219 1f33 02       		.uleb128 0x2
 7220 1f34 7D       		.byte	0x7d
 7221 1f35 10       		.sleb128 16
 7222 1f36 03       		.uleb128 0x3
 7223 1f37 91       		.byte	0x91
 7224 1f38 14       		.sleb128 20
 7225 1f39 06       		.byte	0x6
 7226 1f3a 20       		.uleb128 0x20
 7227 1f3b 02       		.uleb128 0x2
 7228 1f3c 7D       		.byte	0x7d
 7229 1f3d 0C       		.sleb128 12
ARM GAS  C:\Users\ddemidov\AppData\Local\Temp\ccr947bU.s 			page 157


 7230 1f3e 03       		.uleb128 0x3
 7231 1f3f 91       		.byte	0x91
 7232 1f40 10       		.sleb128 16
 7233 1f41 06       		.byte	0x6
 7234 1f42 20       		.uleb128 0x20
 7235 1f43 02       		.uleb128 0x2
 7236 1f44 7D       		.byte	0x7d
 7237 1f45 08       		.sleb128 8
 7238 1f46 03       		.uleb128 0x3
 7239 1f47 91       		.byte	0x91
 7240 1f48 0C       		.sleb128 12
 7241 1f49 06       		.byte	0x6
 7242 1f4a 20       		.uleb128 0x20
 7243 1f4b 02       		.uleb128 0x2
 7244 1f4c 7D       		.byte	0x7d
 7245 1f4d 04       		.sleb128 4
 7246 1f4e 02       		.uleb128 0x2
 7247 1f4f 79       		.byte	0x79
 7248 1f50 00       		.sleb128 0
 7249 1f51 20       		.uleb128 0x20
 7250 1f52 02       		.uleb128 0x2
 7251 1f53 7D       		.byte	0x7d
 7252 1f54 00       		.sleb128 0
 7253 1f55 03       		.uleb128 0x3
 7254 1f56 91       		.byte	0x91
 7255 1f57 04       		.sleb128 4
 7256 1f58 06       		.byte	0x6
 7257 1f59 00       		.byte	0
 7258 1f5a 1F       		.uleb128 0x1f
 7259 1f5b 8C000000 		.4byte	.LVL390
 7260 1f5f 2E240000 		.4byte	0x242e
 7261 1f63 20       		.uleb128 0x20
 7262 1f64 01       		.uleb128 0x1
 7263 1f65 52       		.byte	0x52
 7264 1f66 02       		.uleb128 0x2
 7265 1f67 76       		.byte	0x76
 7266 1f68 00       		.sleb128 0
 7267 1f69 20       		.uleb128 0x20
 7268 1f6a 01       		.uleb128 0x1
 7269 1f6b 50       		.byte	0x50
 7270 1f6c 02       		.uleb128 0x2
 7271 1f6d 77       		.byte	0x77
 7272 1f6e 00       		.sleb128 0
 7273 1f6f 00       		.byte	0
 7274 1f70 00       		.byte	0
 7275 1f71 36       		.uleb128 0x36
 7276 1f72 12050000 		.4byte	.LASF272
 7277 1f76 01       		.byte	0x1
 7278 1f77 5504     		.2byte	0x455
 7279 1f79 25000000 		.4byte	0x25
 7280 1f7d 00000000 		.4byte	.LFB29
 7281 1f81 2E000000 		.4byte	.LFE29-.LFB29
 7282 1f85 01       		.uleb128 0x1
 7283 1f86 9C       		.byte	0x9c
 7284 1f87 2B200000 		.4byte	0x202b
 7285 1f8b 1D       		.uleb128 0x1d
 7286 1f8c 696E00   		.ascii	"in\000"
ARM GAS  C:\Users\ddemidov\AppData\Local\Temp\ccr947bU.s 			page 158


 7287 1f8f 01       		.byte	0x1
 7288 1f90 5504     		.2byte	0x455
 7289 1f92 31080000 		.4byte	0x831
 7290 1f96 6F1F0000 		.4byte	.LLST143
 7291 1f9a 19       		.uleb128 0x19
 7292 1f9b AF100000 		.4byte	.LASF233
 7293 1f9f 01       		.byte	0x1
 7294 1fa0 5504     		.2byte	0x455
 7295 1fa2 45000000 		.4byte	0x45
 7296 1fa6 9B1F0000 		.4byte	.LLST144
 7297 1faa 1D       		.uleb128 0x1d
 7298 1fab 6F757400 		.ascii	"out\000"
 7299 1faf 01       		.byte	0x1
 7300 1fb0 5504     		.2byte	0x455
 7301 1fb2 2B080000 		.4byte	0x82b
 7302 1fb6 BA1F0000 		.4byte	.LLST145
 7303 1fba 1D       		.uleb128 0x1d
 7304 1fbb 6B657900 		.ascii	"key\000"
 7305 1fbf 01       		.byte	0x1
 7306 1fc0 5504     		.2byte	0x455
 7307 1fc2 400C0000 		.4byte	0xc40
 7308 1fc6 E61F0000 		.4byte	.LLST146
 7309 1fca 1C       		.uleb128 0x1c
 7310 1fcb 72657400 		.ascii	"ret\000"
 7311 1fcf 01       		.byte	0x1
 7312 1fd0 5704     		.2byte	0x457
 7313 1fd2 25000000 		.4byte	0x25
 7314 1fd6 13200000 		.4byte	.LLST147
 7315 1fda 21       		.uleb128 0x21
 7316 1fdb 1A000000 		.4byte	.LVL413
 7317 1fdf 56090000 		.4byte	0x956
 7318 1fe3 0F200000 		.4byte	0x200f
 7319 1fe7 20       		.uleb128 0x20
 7320 1fe8 01       		.uleb128 0x1
 7321 1fe9 53       		.byte	0x53
 7322 1fea 02       		.uleb128 0x2
 7323 1feb 91       		.byte	0x91
 7324 1fec 6C       		.sleb128 -20
 7325 1fed 20       		.uleb128 0x20
 7326 1fee 01       		.uleb128 0x1
 7327 1fef 52       		.byte	0x52
 7328 1ff0 02       		.uleb128 0x2
 7329 1ff1 74       		.byte	0x74
 7330 1ff2 00       		.sleb128 0
 7331 1ff3 20       		.uleb128 0x20
 7332 1ff4 01       		.uleb128 0x1
 7333 1ff5 51       		.byte	0x51
 7334 1ff6 03       		.uleb128 0x3
 7335 1ff7 F3       		.byte	0xf3
 7336 1ff8 01       		.uleb128 0x1
 7337 1ff9 51       		.byte	0x51
 7338 1ffa 20       		.uleb128 0x20
 7339 1ffb 01       		.uleb128 0x1
 7340 1ffc 50       		.byte	0x50
 7341 1ffd 02       		.uleb128 0x2
 7342 1ffe 74       		.byte	0x74
 7343 1fff 00       		.sleb128 0
ARM GAS  C:\Users\ddemidov\AppData\Local\Temp\ccr947bU.s 			page 159


 7344 2000 20       		.uleb128 0x20
 7345 2001 02       		.uleb128 0x2
 7346 2002 7D       		.byte	0x7d
 7347 2003 04       		.sleb128 4
 7348 2004 03       		.uleb128 0x3
 7349 2005 F3       		.byte	0xf3
 7350 2006 01       		.uleb128 0x1
 7351 2007 53       		.byte	0x53
 7352 2008 20       		.uleb128 0x20
 7353 2009 02       		.uleb128 0x2
 7354 200a 7D       		.byte	0x7d
 7355 200b 00       		.sleb128 0
 7356 200c 01       		.uleb128 0x1
 7357 200d 31       		.byte	0x31
 7358 200e 00       		.byte	0
 7359 200f 1F       		.uleb128 0x1f
 7360 2010 2A000000 		.4byte	.LVL415
 7361 2014 94070000 		.4byte	0x794
 7362 2018 20       		.uleb128 0x20
 7363 2019 01       		.uleb128 0x1
 7364 201a 53       		.byte	0x53
 7365 201b 01       		.uleb128 0x1
 7366 201c 31       		.byte	0x31
 7367 201d 20       		.uleb128 0x20
 7368 201e 01       		.uleb128 0x1
 7369 201f 52       		.byte	0x52
 7370 2020 02       		.uleb128 0x2
 7371 2021 75       		.byte	0x75
 7372 2022 00       		.sleb128 0
 7373 2023 20       		.uleb128 0x20
 7374 2024 01       		.uleb128 0x1
 7375 2025 50       		.byte	0x50
 7376 2026 02       		.uleb128 0x2
 7377 2027 74       		.byte	0x74
 7378 2028 00       		.sleb128 0
 7379 2029 00       		.byte	0
 7380 202a 00       		.byte	0
 7381 202b 36       		.uleb128 0x36
 7382 202c 5B030000 		.4byte	.LASF273
 7383 2030 01       		.byte	0x1
 7384 2031 6B04     		.2byte	0x46b
 7385 2033 25000000 		.4byte	0x25
 7386 2037 00000000 		.4byte	.LFB30
 7387 203b 7C000000 		.4byte	.LFE30-.LFB30
 7388 203f 01       		.uleb128 0x1
 7389 2040 9C       		.byte	0x9c
 7390 2041 C9210000 		.4byte	0x21c9
 7391 2045 1D       		.uleb128 0x1d
 7392 2046 696E00   		.ascii	"in\000"
 7393 2049 01       		.byte	0x1
 7394 204a 6B04     		.2byte	0x46b
 7395 204c 52070000 		.4byte	0x752
 7396 2050 26200000 		.4byte	.LLST148
 7397 2054 19       		.uleb128 0x19
 7398 2055 AF100000 		.4byte	.LASF233
 7399 2059 01       		.byte	0x1
 7400 205a 6B04     		.2byte	0x46b
ARM GAS  C:\Users\ddemidov\AppData\Local\Temp\ccr947bU.s 			page 160


 7401 205c 45000000 		.4byte	0x45
 7402 2060 6B200000 		.4byte	.LLST149
 7403 2064 1D       		.uleb128 0x1d
 7404 2065 6F757400 		.ascii	"out\000"
 7405 2069 01       		.byte	0x1
 7406 206a 6B04     		.2byte	0x46b
 7407 206c 31080000 		.4byte	0x831
 7408 2070 B0200000 		.4byte	.LLST150
 7409 2074 19       		.uleb128 0x19
 7410 2075 DE0A0000 		.4byte	.LASF234
 7411 2079 01       		.byte	0x1
 7412 207a 6B04     		.2byte	0x46b
 7413 207c 45000000 		.4byte	0x45
 7414 2080 CF200000 		.4byte	.LLST151
 7415 2084 22       		.uleb128 0x22
 7416 2085 6B657900 		.ascii	"key\000"
 7417 2089 01       		.byte	0x1
 7418 208a 6C04     		.2byte	0x46c
 7419 208c 400C0000 		.4byte	0xc40
 7420 2090 02       		.uleb128 0x2
 7421 2091 91       		.byte	0x91
 7422 2092 00       		.sleb128 0
 7423 2093 1B       		.uleb128 0x1b
 7424 2094 D40E0000 		.4byte	.LASF270
 7425 2098 01       		.byte	0x1
 7426 2099 6E04     		.2byte	0x46e
 7427 209b 25000000 		.4byte	0x25
 7428 209f FB200000 		.4byte	.LLST152
 7429 20a3 1C       		.uleb128 0x1c
 7430 20a4 746D7000 		.ascii	"tmp\000"
 7431 20a8 01       		.byte	0x1
 7432 20a9 6F04     		.2byte	0x46f
 7433 20ab 31080000 		.4byte	0x831
 7434 20af 45210000 		.4byte	.LLST153
 7435 20b3 23       		.uleb128 0x23
 7436 20b4 70616400 		.ascii	"pad\000"
 7437 20b8 01       		.byte	0x1
 7438 20b9 7004     		.2byte	0x470
 7439 20bb 31080000 		.4byte	0x831
 7440 20bf 02       		.uleb128 0x2
 7441 20c0 91       		.byte	0x91
 7442 20c1 64       		.sleb128 -28
 7443 20c2 1E       		.uleb128 0x1e
 7444 20c3 32000000 		.4byte	.LBB40
 7445 20c7 0A000000 		.4byte	.LBE40-.LBB40
 7446 20cb EF200000 		.4byte	0x20ef
 7447 20cf 1C       		.uleb128 0x1c
 7448 20d0 787000   		.ascii	"xp\000"
 7449 20d3 01       		.byte	0x1
 7450 20d4 7F04     		.2byte	0x47f
 7451 20d6 93000000 		.4byte	0x93
 7452 20da 79210000 		.4byte	.LLST154
 7453 20de 1F       		.uleb128 0x1f
 7454 20df 3C000000 		.4byte	.LVL428
 7455 20e3 79250000 		.4byte	0x2579
 7456 20e7 20       		.uleb128 0x20
 7457 20e8 01       		.uleb128 0x1
ARM GAS  C:\Users\ddemidov\AppData\Local\Temp\ccr947bU.s 			page 161


 7458 20e9 50       		.byte	0x50
 7459 20ea 02       		.uleb128 0x2
 7460 20eb 74       		.byte	0x74
 7461 20ec 00       		.sleb128 0
 7462 20ed 00       		.byte	0
 7463 20ee 00       		.byte	0
 7464 20ef 30       		.uleb128 0x30
 7465 20f0 5D070000 		.4byte	0x75d
 7466 20f4 54000000 		.4byte	.LBB41
 7467 20f8 12000000 		.4byte	.LBE41-.LBB41
 7468 20fc 01       		.byte	0x1
 7469 20fd 8804     		.2byte	0x488
 7470 20ff 29210000 		.4byte	0x2129
 7471 2103 37       		.uleb128 0x37
 7472 2104 74070000 		.4byte	0x774
 7473 2108 8C210000 		.4byte	.LLST155
 7474 210c 37       		.uleb128 0x37
 7475 210d 69070000 		.4byte	0x769
 7476 2111 CD210000 		.4byte	.LLST156
 7477 2115 32       		.uleb128 0x32
 7478 2116 54000000 		.4byte	.LBB42
 7479 211a 12000000 		.4byte	.LBE42-.LBB42
 7480 211e 33       		.uleb128 0x33
 7481 211f 7F070000 		.4byte	0x77f
 7482 2123 E0210000 		.4byte	.LLST157
 7483 2127 00       		.byte	0
 7484 2128 00       		.byte	0
 7485 2129 1E       		.uleb128 0x1e
 7486 212a 66000000 		.4byte	.LBB43
 7487 212e 0A000000 		.4byte	.LBE43-.LBB43
 7488 2132 56210000 		.4byte	0x2156
 7489 2136 1C       		.uleb128 0x1c
 7490 2137 787000   		.ascii	"xp\000"
 7491 213a 01       		.byte	0x1
 7492 213b 8904     		.2byte	0x489
 7493 213d 93000000 		.4byte	0x93
 7494 2141 0B220000 		.4byte	.LLST158
 7495 2145 1F       		.uleb128 0x1f
 7496 2146 70000000 		.4byte	.LVL438
 7497 214a 79250000 		.4byte	0x2579
 7498 214e 20       		.uleb128 0x20
 7499 214f 01       		.uleb128 0x1
 7500 2150 50       		.byte	0x50
 7501 2151 02       		.uleb128 0x2
 7502 2152 74       		.byte	0x74
 7503 2153 00       		.sleb128 0
 7504 2154 00       		.byte	0
 7505 2155 00       		.byte	0
 7506 2156 21       		.uleb128 0x21
 7507 2157 16000000 		.4byte	.LVL421
 7508 215b C8250000 		.4byte	0x25c8
 7509 215f 6A210000 		.4byte	0x216a
 7510 2163 20       		.uleb128 0x20
 7511 2164 01       		.uleb128 0x1
 7512 2165 50       		.byte	0x50
 7513 2166 02       		.uleb128 0x2
 7514 2167 77       		.byte	0x77
ARM GAS  C:\Users\ddemidov\AppData\Local\Temp\ccr947bU.s 			page 162


 7515 2168 00       		.sleb128 0
 7516 2169 00       		.byte	0
 7517 216a 21       		.uleb128 0x21
 7518 216b 22000000 		.4byte	.LVL423
 7519 216f 2E240000 		.4byte	0x242e
 7520 2173 8A210000 		.4byte	0x218a
 7521 2177 20       		.uleb128 0x20
 7522 2178 01       		.uleb128 0x1
 7523 2179 52       		.byte	0x52
 7524 217a 02       		.uleb128 0x2
 7525 217b 77       		.byte	0x77
 7526 217c 00       		.sleb128 0
 7527 217d 20       		.uleb128 0x20
 7528 217e 01       		.uleb128 0x1
 7529 217f 51       		.byte	0x51
 7530 2180 02       		.uleb128 0x2
 7531 2181 75       		.byte	0x75
 7532 2182 00       		.sleb128 0
 7533 2183 20       		.uleb128 0x20
 7534 2184 01       		.uleb128 0x1
 7535 2185 50       		.byte	0x50
 7536 2186 02       		.uleb128 0x2
 7537 2187 74       		.byte	0x74
 7538 2188 00       		.sleb128 0
 7539 2189 00       		.byte	0
 7540 218a 21       		.uleb128 0x21
 7541 218b 2E000000 		.4byte	.LVL424
 7542 218f 711F0000 		.4byte	0x1f71
 7543 2193 B1210000 		.4byte	0x21b1
 7544 2197 20       		.uleb128 0x20
 7545 2198 01       		.uleb128 0x1
 7546 2199 53       		.byte	0x53
 7547 219a 03       		.uleb128 0x3
 7548 219b 91       		.byte	0x91
 7549 219c 00       		.sleb128 0
 7550 219d 06       		.byte	0x6
 7551 219e 20       		.uleb128 0x20
 7552 219f 01       		.uleb128 0x1
 7553 21a0 52       		.byte	0x52
 7554 21a1 02       		.uleb128 0x2
 7555 21a2 91       		.byte	0x91
 7556 21a3 64       		.sleb128 -28
 7557 21a4 20       		.uleb128 0x20
 7558 21a5 01       		.uleb128 0x1
 7559 21a6 51       		.byte	0x51
 7560 21a7 02       		.uleb128 0x2
 7561 21a8 77       		.byte	0x77
 7562 21a9 00       		.sleb128 0
 7563 21aa 20       		.uleb128 0x20
 7564 21ab 01       		.uleb128 0x1
 7565 21ac 50       		.byte	0x50
 7566 21ad 02       		.uleb128 0x2
 7567 21ae 74       		.byte	0x74
 7568 21af 00       		.sleb128 0
 7569 21b0 00       		.byte	0
 7570 21b1 1F       		.uleb128 0x1f
 7571 21b2 4E000000 		.4byte	.LVL431
ARM GAS  C:\Users\ddemidov\AppData\Local\Temp\ccr947bU.s 			page 163


 7572 21b6 2E240000 		.4byte	0x242e
 7573 21ba 20       		.uleb128 0x20
 7574 21bb 01       		.uleb128 0x1
 7575 21bc 52       		.byte	0x52
 7576 21bd 02       		.uleb128 0x2
 7577 21be 75       		.byte	0x75
 7578 21bf 00       		.sleb128 0
 7579 21c0 20       		.uleb128 0x20
 7580 21c1 01       		.uleb128 0x1
 7581 21c2 50       		.byte	0x50
 7582 21c3 03       		.uleb128 0x3
 7583 21c4 91       		.byte	0x91
 7584 21c5 5C       		.sleb128 -36
 7585 21c6 06       		.byte	0x6
 7586 21c7 00       		.byte	0
 7587 21c8 00       		.byte	0
 7588 21c9 36       		.uleb128 0x36
 7589 21ca 87020000 		.4byte	.LASF274
 7590 21ce 01       		.byte	0x1
 7591 21cf 9004     		.2byte	0x490
 7592 21d1 25000000 		.4byte	0x25
 7593 21d5 00000000 		.4byte	.LFB31
 7594 21d9 66000000 		.4byte	.LFE31-.LFB31
 7595 21dd 01       		.uleb128 0x1
 7596 21de 9C       		.byte	0x9c
 7597 21df D9220000 		.4byte	0x22d9
 7598 21e3 1D       		.uleb128 0x1d
 7599 21e4 696E00   		.ascii	"in\000"
 7600 21e7 01       		.byte	0x1
 7601 21e8 9004     		.2byte	0x490
 7602 21ea 52070000 		.4byte	0x752
 7603 21ee 1E220000 		.4byte	.LLST159
 7604 21f2 19       		.uleb128 0x19
 7605 21f3 AF100000 		.4byte	.LASF233
 7606 21f7 01       		.byte	0x1
 7607 21f8 9004     		.2byte	0x490
 7608 21fa 45000000 		.4byte	0x45
 7609 21fe 4A220000 		.4byte	.LLST160
 7610 2202 1D       		.uleb128 0x1d
 7611 2203 6F757400 		.ascii	"out\000"
 7612 2207 01       		.byte	0x1
 7613 2208 9004     		.2byte	0x490
 7614 220a 31080000 		.4byte	0x831
 7615 220e 76220000 		.4byte	.LLST161
 7616 2212 19       		.uleb128 0x19
 7617 2213 DE0A0000 		.4byte	.LASF234
 7618 2217 01       		.byte	0x1
 7619 2218 9004     		.2byte	0x490
 7620 221a 45000000 		.4byte	0x45
 7621 221e A2220000 		.4byte	.LLST162
 7622 2222 22       		.uleb128 0x22
 7623 2223 6B657900 		.ascii	"key\000"
 7624 2227 01       		.byte	0x1
 7625 2228 9104     		.2byte	0x491
 7626 222a 400C0000 		.4byte	0xc40
 7627 222e 02       		.uleb128 0x2
 7628 222f 91       		.byte	0x91
ARM GAS  C:\Users\ddemidov\AppData\Local\Temp\ccr947bU.s 			page 164


 7629 2230 00       		.sleb128 0
 7630 2231 22       		.uleb128 0x22
 7631 2232 726E6700 		.ascii	"rng\000"
 7632 2236 01       		.byte	0x1
 7633 2237 9104     		.2byte	0x491
 7634 2239 50090000 		.4byte	0x950
 7635 223d 02       		.uleb128 0x2
 7636 223e 91       		.byte	0x91
 7637 223f 04       		.sleb128 4
 7638 2240 1C       		.uleb128 0x1c
 7639 2241 737A00   		.ascii	"sz\000"
 7640 2244 01       		.byte	0x1
 7641 2245 9304     		.2byte	0x493
 7642 2247 25000000 		.4byte	0x25
 7643 224b D9220000 		.4byte	.LLST163
 7644 224f 1C       		.uleb128 0x1c
 7645 2250 72657400 		.ascii	"ret\000"
 7646 2254 01       		.byte	0x1
 7647 2255 9304     		.2byte	0x493
 7648 2257 25000000 		.4byte	0x25
 7649 225b 23230000 		.4byte	.LLST164
 7650 225f 21       		.uleb128 0x21
 7651 2260 12000000 		.4byte	.LVL446
 7652 2264 4A250000 		.4byte	0x254a
 7653 2268 74220000 		.4byte	0x2274
 7654 226c 20       		.uleb128 0x20
 7655 226d 01       		.uleb128 0x1
 7656 226e 50       		.byte	0x50
 7657 226f 03       		.uleb128 0x3
 7658 2270 91       		.byte	0x91
 7659 2271 00       		.sleb128 0
 7660 2272 06       		.byte	0x6
 7661 2273 00       		.byte	0
 7662 2274 21       		.uleb128 0x21
 7663 2275 36000000 		.4byte	.LVL449
 7664 2279 37080000 		.4byte	0x837
 7665 227d A8220000 		.4byte	0x22a8
 7666 2281 20       		.uleb128 0x20
 7667 2282 01       		.uleb128 0x1
 7668 2283 53       		.byte	0x53
 7669 2284 02       		.uleb128 0x2
 7670 2285 74       		.byte	0x74
 7671 2286 00       		.sleb128 0
 7672 2287 20       		.uleb128 0x20
 7673 2288 01       		.uleb128 0x1
 7674 2289 52       		.byte	0x52
 7675 228a 02       		.uleb128 0x2
 7676 228b 76       		.byte	0x76
 7677 228c 00       		.sleb128 0
 7678 228d 20       		.uleb128 0x20
 7679 228e 01       		.uleb128 0x1
 7680 228f 51       		.byte	0x51
 7681 2290 02       		.uleb128 0x2
 7682 2291 75       		.byte	0x75
 7683 2292 00       		.sleb128 0
 7684 2293 20       		.uleb128 0x20
 7685 2294 01       		.uleb128 0x1
ARM GAS  C:\Users\ddemidov\AppData\Local\Temp\ccr947bU.s 			page 165


 7686 2295 50       		.byte	0x50
 7687 2296 02       		.uleb128 0x2
 7688 2297 77       		.byte	0x77
 7689 2298 00       		.sleb128 0
 7690 2299 20       		.uleb128 0x20
 7691 229a 02       		.uleb128 0x2
 7692 229b 7D       		.byte	0x7d
 7693 229c 04       		.sleb128 4
 7694 229d 03       		.uleb128 0x3
 7695 229e 91       		.byte	0x91
 7696 229f 04       		.sleb128 4
 7697 22a0 06       		.byte	0x6
 7698 22a1 20       		.uleb128 0x20
 7699 22a2 02       		.uleb128 0x2
 7700 22a3 7D       		.byte	0x7d
 7701 22a4 00       		.sleb128 0
 7702 22a5 01       		.uleb128 0x1
 7703 22a6 31       		.byte	0x31
 7704 22a7 00       		.byte	0
 7705 22a8 1F       		.uleb128 0x1f
 7706 22a9 4E000000 		.4byte	.LVL452
 7707 22ad 56090000 		.4byte	0x956
 7708 22b1 20       		.uleb128 0x20
 7709 22b2 01       		.uleb128 0x1
 7710 22b3 53       		.byte	0x53
 7711 22b4 02       		.uleb128 0x2
 7712 22b5 91       		.byte	0x91
 7713 22b6 64       		.sleb128 -28
 7714 22b7 20       		.uleb128 0x20
 7715 22b8 01       		.uleb128 0x1
 7716 22b9 52       		.byte	0x52
 7717 22ba 02       		.uleb128 0x2
 7718 22bb 76       		.byte	0x76
 7719 22bc 00       		.sleb128 0
 7720 22bd 20       		.uleb128 0x20
 7721 22be 01       		.uleb128 0x1
 7722 22bf 51       		.byte	0x51
 7723 22c0 02       		.uleb128 0x2
 7724 22c1 74       		.byte	0x74
 7725 22c2 00       		.sleb128 0
 7726 22c3 20       		.uleb128 0x20
 7727 22c4 01       		.uleb128 0x1
 7728 22c5 50       		.byte	0x50
 7729 22c6 02       		.uleb128 0x2
 7730 22c7 76       		.byte	0x76
 7731 22c8 00       		.sleb128 0
 7732 22c9 20       		.uleb128 0x20
 7733 22ca 02       		.uleb128 0x2
 7734 22cb 7D       		.byte	0x7d
 7735 22cc 04       		.sleb128 4
 7736 22cd 03       		.uleb128 0x3
 7737 22ce 91       		.byte	0x91
 7738 22cf 00       		.sleb128 0
 7739 22d0 06       		.byte	0x6
 7740 22d1 20       		.uleb128 0x20
 7741 22d2 02       		.uleb128 0x2
 7742 22d3 7D       		.byte	0x7d
ARM GAS  C:\Users\ddemidov\AppData\Local\Temp\ccr947bU.s 			page 166


 7743 22d4 00       		.sleb128 0
 7744 22d5 01       		.uleb128 0x1
 7745 22d6 32       		.byte	0x32
 7746 22d7 00       		.byte	0
 7747 22d8 00       		.byte	0
 7748 22d9 36       		.uleb128 0x36
 7749 22da AB020000 		.4byte	.LASF275
 7750 22de 01       		.byte	0x1
 7751 22df AD04     		.2byte	0x4ad
 7752 22e1 25000000 		.4byte	0x25
 7753 22e5 00000000 		.4byte	.LFB32
 7754 22e9 08000000 		.4byte	.LFE32-.LFB32
 7755 22ed 01       		.uleb128 0x1
 7756 22ee 9C       		.byte	0x9c
 7757 22ef 15230000 		.4byte	0x2315
 7758 22f3 1D       		.uleb128 0x1d
 7759 22f4 6B657900 		.ascii	"key\000"
 7760 22f8 01       		.byte	0x1
 7761 22f9 AD04     		.2byte	0x4ad
 7762 22fb 400C0000 		.4byte	0xc40
 7763 22ff 41230000 		.4byte	.LLST165
 7764 2303 1F       		.uleb128 0x1f
 7765 2304 06000000 		.4byte	.LVL464
 7766 2308 4A250000 		.4byte	0x254a
 7767 230c 20       		.uleb128 0x20
 7768 230d 01       		.uleb128 0x1
 7769 230e 50       		.byte	0x50
 7770 230f 03       		.uleb128 0x3
 7771 2310 F3       		.byte	0xf3
 7772 2311 01       		.uleb128 0x1
 7773 2312 50       		.byte	0x50
 7774 2313 00       		.byte	0
 7775 2314 00       		.byte	0
 7776 2315 36       		.uleb128 0x36
 7777 2316 9B000000 		.4byte	.LASF276
 7778 231a 01       		.byte	0x1
 7779 231b B704     		.2byte	0x4b7
 7780 231d 25000000 		.4byte	0x25
 7781 2321 00000000 		.4byte	.LFB33
 7782 2325 96000000 		.4byte	.LFE33-.LFB33
 7783 2329 01       		.uleb128 0x1
 7784 232a 9C       		.byte	0x9c
 7785 232b F0230000 		.4byte	0x23f0
 7786 232f 1D       		.uleb128 0x1d
 7787 2330 6B657900 		.ascii	"key\000"
 7788 2334 01       		.byte	0x1
 7789 2335 B704     		.2byte	0x4b7
 7790 2337 400C0000 		.4byte	0xc40
 7791 233b 62230000 		.4byte	.LLST166
 7792 233f 1D       		.uleb128 0x1d
 7793 2340 6500     		.ascii	"e\000"
 7794 2342 01       		.byte	0x1
 7795 2343 B704     		.2byte	0x4b7
 7796 2345 31080000 		.4byte	0x831
 7797 2349 16240000 		.4byte	.LLST167
 7798 234d 1D       		.uleb128 0x1d
 7799 234e 65537A00 		.ascii	"eSz\000"
ARM GAS  C:\Users\ddemidov\AppData\Local\Temp\ccr947bU.s 			page 167


 7800 2352 01       		.byte	0x1
 7801 2353 B704     		.2byte	0x4b7
 7802 2355 3A0C0000 		.4byte	0xc3a
 7803 2359 5A240000 		.4byte	.LLST168
 7804 235d 1D       		.uleb128 0x1d
 7805 235e 6E00     		.ascii	"n\000"
 7806 2360 01       		.byte	0x1
 7807 2361 B704     		.2byte	0x4b7
 7808 2363 31080000 		.4byte	0x831
 7809 2367 9C240000 		.4byte	.LLST169
 7810 236b 22       		.uleb128 0x22
 7811 236c 6E537A00 		.ascii	"nSz\000"
 7812 2370 01       		.byte	0x1
 7813 2371 B804     		.2byte	0x4b8
 7814 2373 3A0C0000 		.4byte	0xc3a
 7815 2377 02       		.uleb128 0x2
 7816 2378 91       		.byte	0x91
 7817 2379 00       		.sleb128 0
 7818 237a 38       		.uleb128 0x38
 7819 237b 737A00   		.ascii	"sz\000"
 7820 237e 01       		.byte	0x1
 7821 237f BA04     		.2byte	0x4ba
 7822 2381 25000000 		.4byte	0x25
 7823 2385 1C       		.uleb128 0x1c
 7824 2386 72657400 		.ascii	"ret\000"
 7825 238a 01       		.byte	0x1
 7826 238b BA04     		.2byte	0x4ba
 7827 238d 25000000 		.4byte	0x25
 7828 2391 E0240000 		.4byte	.LLST170
 7829 2395 21       		.uleb128 0x21
 7830 2396 30000000 		.4byte	.LVL467
 7831 239a 4A250000 		.4byte	0x254a
 7832 239e A9230000 		.4byte	0x23a9
 7833 23a2 20       		.uleb128 0x20
 7834 23a3 01       		.uleb128 0x1
 7835 23a4 50       		.byte	0x50
 7836 23a5 02       		.uleb128 0x2
 7837 23a6 77       		.byte	0x77
 7838 23a7 00       		.sleb128 0
 7839 23a8 00       		.byte	0
 7840 23a9 21       		.uleb128 0x21
 7841 23aa 40000000 		.4byte	.LVL468
 7842 23ae 5F250000 		.4byte	0x255f
 7843 23b2 C4230000 		.4byte	0x23c4
 7844 23b6 20       		.uleb128 0x20
 7845 23b7 01       		.uleb128 0x1
 7846 23b8 51       		.byte	0x51
 7847 23b9 03       		.uleb128 0x3
 7848 23ba 7D       		.byte	0x7d
 7849 23bb 00       		.sleb128 0
 7850 23bc 06       		.byte	0x6
 7851 23bd 20       		.uleb128 0x20
 7852 23be 01       		.uleb128 0x1
 7853 23bf 50       		.byte	0x50
 7854 23c0 02       		.uleb128 0x2
 7855 23c1 77       		.byte	0x77
 7856 23c2 00       		.sleb128 0
ARM GAS  C:\Users\ddemidov\AppData\Local\Temp\ccr947bU.s 			page 168


 7857 23c3 00       		.byte	0
 7858 23c4 21       		.uleb128 0x21
 7859 23c5 4E000000 		.4byte	.LVL470
 7860 23c9 4A250000 		.4byte	0x254a
 7861 23cd D8230000 		.4byte	0x23d8
 7862 23d1 20       		.uleb128 0x20
 7863 23d2 01       		.uleb128 0x1
 7864 23d3 50       		.byte	0x50
 7865 23d4 02       		.uleb128 0x2
 7866 23d5 74       		.byte	0x74
 7867 23d6 00       		.sleb128 0
 7868 23d7 00       		.byte	0
 7869 23d8 1F       		.uleb128 0x1f
 7870 23d9 5E000000 		.4byte	.LVL471
 7871 23dd 5F250000 		.4byte	0x255f
 7872 23e1 20       		.uleb128 0x20
 7873 23e2 01       		.uleb128 0x1
 7874 23e3 51       		.byte	0x51
 7875 23e4 03       		.uleb128 0x3
 7876 23e5 91       		.byte	0x91
 7877 23e6 64       		.sleb128 -28
 7878 23e7 06       		.byte	0x6
 7879 23e8 20       		.uleb128 0x20
 7880 23e9 01       		.uleb128 0x1
 7881 23ea 50       		.byte	0x50
 7882 23eb 02       		.uleb128 0x2
 7883 23ec 74       		.byte	0x74
 7884 23ed 00       		.sleb128 0
 7885 23ee 00       		.byte	0
 7886 23ef 00       		.byte	0
 7887 23f0 39       		.uleb128 0x39
 7888 23f1 28090000 		.4byte	.LASF277
 7889 23f5 06       		.byte	0x6
 7890 23f6 83       		.byte	0x83
 7891 23f7 25000000 		.4byte	0x25
 7892 23fb 0F240000 		.4byte	0x240f
 7893 23ff 3A       		.uleb128 0x3a
 7894 2400 50090000 		.4byte	0x950
 7895 2404 3A       		.uleb128 0x3a
 7896 2405 31080000 		.4byte	0x831
 7897 2409 3A       		.uleb128 0x3a
 7898 240a 45000000 		.4byte	0x45
 7899 240e 00       		.byte	0
 7900 240f 39       		.uleb128 0x39
 7901 2410 C2010000 		.4byte	.LASF278
 7902 2414 0A       		.byte	0xa
 7903 2415 19       		.byte	0x19
 7904 2416 93000000 		.4byte	0x93
 7905 241a 2E240000 		.4byte	0x242e
 7906 241e 3A       		.uleb128 0x3a
 7907 241f 93000000 		.4byte	0x93
 7908 2423 3A       		.uleb128 0x3a
 7909 2424 25000000 		.4byte	0x25
 7910 2428 3A       		.uleb128 0x3a
 7911 2429 5E000000 		.4byte	0x5e
 7912 242d 00       		.byte	0
 7913 242e 3B       		.uleb128 0x3b
ARM GAS  C:\Users\ddemidov\AppData\Local\Temp\ccr947bU.s 			page 169


 7914 242f 3D100000 		.4byte	.LASF280
 7915 2433 93000000 		.4byte	0x93
 7916 2437 4B240000 		.4byte	0x244b
 7917 243b 3A       		.uleb128 0x3a
 7918 243c 93000000 		.4byte	0x93
 7919 2440 3A       		.uleb128 0x3a
 7920 2441 A2000000 		.4byte	0xa2
 7921 2445 3A       		.uleb128 0x3a
 7922 2446 8C000000 		.4byte	0x8c
 7923 244a 00       		.byte	0
 7924 244b 39       		.uleb128 0x39
 7925 244c 73020000 		.4byte	.LASF279
 7926 2450 07       		.byte	0x7
 7927 2451 E7       		.byte	0xe7
 7928 2452 25000000 		.4byte	0x25
 7929 2456 60240000 		.4byte	0x2460
 7930 245a 3A       		.uleb128 0x3a
 7931 245b 60240000 		.4byte	0x2460
 7932 245f 00       		.byte	0
 7933 2460 06       		.uleb128 0x6
 7934 2461 04       		.byte	0x4
 7935 2462 D7020000 		.4byte	0x2d7
 7936 2466 3C       		.uleb128 0x3c
 7937 2467 E2090000 		.4byte	.LASF281
 7938 246b 07       		.byte	0x7
 7939 246c E8       		.byte	0xe8
 7940 246d 77240000 		.4byte	0x2477
 7941 2471 3A       		.uleb128 0x3a
 7942 2472 60240000 		.4byte	0x2460
 7943 2476 00       		.byte	0
 7944 2477 39       		.uleb128 0x39
 7945 2478 47030000 		.4byte	.LASF282
 7946 247c 07       		.byte	0x7
 7947 247d EC       		.byte	0xec
 7948 247e 25000000 		.4byte	0x25
 7949 2482 9B240000 		.4byte	0x249b
 7950 2486 3A       		.uleb128 0x3a
 7951 2487 60240000 		.4byte	0x2460
 7952 248b 3A       		.uleb128 0x3a
 7953 248c 60240000 		.4byte	0x2460
 7954 2490 3A       		.uleb128 0x3a
 7955 2491 60240000 		.4byte	0x2460
 7956 2495 3A       		.uleb128 0x3a
 7957 2496 60240000 		.4byte	0x2460
 7958 249a 00       		.byte	0
 7959 249b 3D       		.uleb128 0x3d
 7960 249c 59010000 		.4byte	.LASF283
 7961 24a0 07       		.byte	0x7
 7962 24a1 0D01     		.2byte	0x10d
 7963 24a3 25000000 		.4byte	0x25
 7964 24a7 BB240000 		.4byte	0x24bb
 7965 24ab 3A       		.uleb128 0x3a
 7966 24ac 60240000 		.4byte	0x2460
 7967 24b0 3A       		.uleb128 0x3a
 7968 24b1 60240000 		.4byte	0x2460
 7969 24b5 3A       		.uleb128 0x3a
 7970 24b6 60240000 		.4byte	0x2460
ARM GAS  C:\Users\ddemidov\AppData\Local\Temp\ccr947bU.s 			page 170


 7971 24ba 00       		.byte	0
 7972 24bb 3D       		.uleb128 0x3d
 7973 24bc 59090000 		.4byte	.LASF284
 7974 24c0 07       		.byte	0x7
 7975 24c1 2901     		.2byte	0x129
 7976 24c3 25000000 		.4byte	0x25
 7977 24c7 E0240000 		.4byte	0x24e0
 7978 24cb 3A       		.uleb128 0x3a
 7979 24cc 60240000 		.4byte	0x2460
 7980 24d0 3A       		.uleb128 0x3a
 7981 24d1 60240000 		.4byte	0x2460
 7982 24d5 3A       		.uleb128 0x3a
 7983 24d6 60240000 		.4byte	0x2460
 7984 24da 3A       		.uleb128 0x3a
 7985 24db 60240000 		.4byte	0x2460
 7986 24df 00       		.byte	0
 7987 24e0 3D       		.uleb128 0x3d
 7988 24e1 0B050000 		.4byte	.LASF285
 7989 24e5 07       		.byte	0x7
 7990 24e6 2701     		.2byte	0x127
 7991 24e8 25000000 		.4byte	0x25
 7992 24ec 00250000 		.4byte	0x2500
 7993 24f0 3A       		.uleb128 0x3a
 7994 24f1 60240000 		.4byte	0x2460
 7995 24f5 3A       		.uleb128 0x3a
 7996 24f6 60240000 		.4byte	0x2460
 7997 24fa 3A       		.uleb128 0x3a
 7998 24fb 60240000 		.4byte	0x2460
 7999 24ff 00       		.byte	0
 8000 2500 3D       		.uleb128 0x3d
 8001 2501 C5060000 		.4byte	.LASF286
 8002 2505 07       		.byte	0x7
 8003 2506 0A01     		.2byte	0x10a
 8004 2508 25000000 		.4byte	0x25
 8005 250c 20250000 		.4byte	0x2520
 8006 2510 3A       		.uleb128 0x3a
 8007 2511 60240000 		.4byte	0x2460
 8008 2515 3A       		.uleb128 0x3a
 8009 2516 60240000 		.4byte	0x2460
 8010 251a 3A       		.uleb128 0x3a
 8011 251b 60240000 		.4byte	0x2460
 8012 251f 00       		.byte	0
 8013 2520 39       		.uleb128 0x39
 8014 2521 44010000 		.4byte	.LASF287
 8015 2525 07       		.byte	0x7
 8016 2526 EA       		.byte	0xea
 8017 2527 25000000 		.4byte	0x25
 8018 252b 3F250000 		.4byte	0x253f
 8019 252f 3A       		.uleb128 0x3a
 8020 2530 60240000 		.4byte	0x2460
 8021 2534 3A       		.uleb128 0x3a
 8022 2535 3F250000 		.4byte	0x253f
 8023 2539 3A       		.uleb128 0x3a
 8024 253a 25000000 		.4byte	0x25
 8025 253e 00       		.byte	0
 8026 253f 06       		.uleb128 0x6
 8027 2540 04       		.byte	0x4
ARM GAS  C:\Users\ddemidov\AppData\Local\Temp\ccr947bU.s 			page 171


 8028 2541 45250000 		.4byte	0x2545
 8029 2545 15       		.uleb128 0x15
 8030 2546 37000000 		.4byte	0x37
 8031 254a 39       		.uleb128 0x39
 8032 254b 16110000 		.4byte	.LASF288
 8033 254f 07       		.byte	0x7
 8034 2550 E9       		.byte	0xe9
 8035 2551 25000000 		.4byte	0x25
 8036 2555 5F250000 		.4byte	0x255f
 8037 2559 3A       		.uleb128 0x3a
 8038 255a 60240000 		.4byte	0x2460
 8039 255e 00       		.byte	0
 8040 255f 39       		.uleb128 0x39
 8041 2560 B2060000 		.4byte	.LASF289
 8042 2564 07       		.byte	0x7
 8043 2565 EB       		.byte	0xeb
 8044 2566 25000000 		.4byte	0x25
 8045 256a 79250000 		.4byte	0x2579
 8046 256e 3A       		.uleb128 0x3a
 8047 256f 60240000 		.4byte	0x2460
 8048 2573 3A       		.uleb128 0x3a
 8049 2574 95000000 		.4byte	0x95
 8050 2578 00       		.byte	0
 8051 2579 3C       		.uleb128 0x3c
 8052 257a 04040000 		.4byte	.LASF290
 8053 257e 0B       		.byte	0xb
 8054 257f 30       		.byte	0x30
 8055 2580 8A250000 		.4byte	0x258a
 8056 2584 3A       		.uleb128 0x3a
 8057 2585 93000000 		.4byte	0x93
 8058 2589 00       		.byte	0
 8059 258a 39       		.uleb128 0x39
 8060 258b 44060000 		.4byte	.LASF291
 8061 258f 0C       		.byte	0xc
 8062 2590 41       		.byte	0x41
 8063 2591 25000000 		.4byte	0x25
 8064 2595 B3250000 		.4byte	0x25b3
 8065 2599 3A       		.uleb128 0x3a
 8066 259a E2020000 		.4byte	0x2e2
 8067 259e 3A       		.uleb128 0x3a
 8068 259f 52070000 		.4byte	0x752
 8069 25a3 3A       		.uleb128 0x3a
 8070 25a4 45000000 		.4byte	0x45
 8071 25a8 3A       		.uleb128 0x3a
 8072 25a9 31080000 		.4byte	0x831
 8073 25ad 3A       		.uleb128 0x3a
 8074 25ae 45000000 		.4byte	0x45
 8075 25b2 00       		.byte	0
 8076 25b3 39       		.uleb128 0x39
 8077 25b4 D0030000 		.4byte	.LASF292
 8078 25b8 0C       		.byte	0xc
 8079 25b9 40       		.byte	0x40
 8080 25ba 25000000 		.4byte	0x25
 8081 25be C8250000 		.4byte	0x25c8
 8082 25c2 3A       		.uleb128 0x3a
 8083 25c3 E2020000 		.4byte	0x2e2
 8084 25c7 00       		.byte	0
ARM GAS  C:\Users\ddemidov\AppData\Local\Temp\ccr947bU.s 			page 172


 8085 25c8 39       		.uleb128 0x39
 8086 25c9 980D0000 		.4byte	.LASF293
 8087 25cd 0B       		.byte	0xb
 8088 25ce 2F       		.byte	0x2f
 8089 25cf 93000000 		.4byte	0x93
 8090 25d3 DD250000 		.4byte	0x25dd
 8091 25d7 3A       		.uleb128 0x3a
 8092 25d8 5E000000 		.4byte	0x5e
 8093 25dc 00       		.byte	0
 8094 25dd 3E       		.uleb128 0x3e
 8095 25de C2010000 		.4byte	.LASF278
 8096 25e2 93000000 		.4byte	0x93
 8097 25e6 3A       		.uleb128 0x3a
 8098 25e7 93000000 		.4byte	0x93
 8099 25eb 3A       		.uleb128 0x3a
 8100 25ec 25000000 		.4byte	0x25
 8101 25f0 3A       		.uleb128 0x3a
 8102 25f1 8C000000 		.4byte	0x8c
 8103 25f5 00       		.byte	0
 8104 25f6 00       		.byte	0
 8105              		.section	.debug_abbrev,"",%progbits
 8106              	.Ldebug_abbrev0:
 8107 0000 01       		.uleb128 0x1
 8108 0001 11       		.uleb128 0x11
 8109 0002 01       		.byte	0x1
 8110 0003 25       		.uleb128 0x25
 8111 0004 0E       		.uleb128 0xe
 8112 0005 13       		.uleb128 0x13
 8113 0006 0B       		.uleb128 0xb
 8114 0007 03       		.uleb128 0x3
 8115 0008 0E       		.uleb128 0xe
 8116 0009 1B       		.uleb128 0x1b
 8117 000a 0E       		.uleb128 0xe
 8118 000b 55       		.uleb128 0x55
 8119 000c 17       		.uleb128 0x17
 8120 000d 11       		.uleb128 0x11
 8121 000e 01       		.uleb128 0x1
 8122 000f 10       		.uleb128 0x10
 8123 0010 17       		.uleb128 0x17
 8124 0011 00       		.byte	0
 8125 0012 00       		.byte	0
 8126 0013 02       		.uleb128 0x2
 8127 0014 24       		.uleb128 0x24
 8128 0015 00       		.byte	0
 8129 0016 0B       		.uleb128 0xb
 8130 0017 0B       		.uleb128 0xb
 8131 0018 3E       		.uleb128 0x3e
 8132 0019 0B       		.uleb128 0xb
 8133 001a 03       		.uleb128 0x3
 8134 001b 08       		.uleb128 0x8
 8135 001c 00       		.byte	0
 8136 001d 00       		.byte	0
 8137 001e 03       		.uleb128 0x3
 8138 001f 16       		.uleb128 0x16
 8139 0020 00       		.byte	0
 8140 0021 03       		.uleb128 0x3
 8141 0022 0E       		.uleb128 0xe
ARM GAS  C:\Users\ddemidov\AppData\Local\Temp\ccr947bU.s 			page 173


 8142 0023 3A       		.uleb128 0x3a
 8143 0024 0B       		.uleb128 0xb
 8144 0025 3B       		.uleb128 0x3b
 8145 0026 0B       		.uleb128 0xb
 8146 0027 49       		.uleb128 0x49
 8147 0028 13       		.uleb128 0x13
 8148 0029 00       		.byte	0
 8149 002a 00       		.byte	0
 8150 002b 04       		.uleb128 0x4
 8151 002c 24       		.uleb128 0x24
 8152 002d 00       		.byte	0
 8153 002e 0B       		.uleb128 0xb
 8154 002f 0B       		.uleb128 0xb
 8155 0030 3E       		.uleb128 0x3e
 8156 0031 0B       		.uleb128 0xb
 8157 0032 03       		.uleb128 0x3
 8158 0033 0E       		.uleb128 0xe
 8159 0034 00       		.byte	0
 8160 0035 00       		.byte	0
 8161 0036 05       		.uleb128 0x5
 8162 0037 0F       		.uleb128 0xf
 8163 0038 00       		.byte	0
 8164 0039 0B       		.uleb128 0xb
 8165 003a 0B       		.uleb128 0xb
 8166 003b 00       		.byte	0
 8167 003c 00       		.byte	0
 8168 003d 06       		.uleb128 0x6
 8169 003e 0F       		.uleb128 0xf
 8170 003f 00       		.byte	0
 8171 0040 0B       		.uleb128 0xb
 8172 0041 0B       		.uleb128 0xb
 8173 0042 49       		.uleb128 0x49
 8174 0043 13       		.uleb128 0x13
 8175 0044 00       		.byte	0
 8176 0045 00       		.byte	0
 8177 0046 07       		.uleb128 0x7
 8178 0047 26       		.uleb128 0x26
 8179 0048 00       		.byte	0
 8180 0049 00       		.byte	0
 8181 004a 00       		.byte	0
 8182 004b 08       		.uleb128 0x8
 8183 004c 04       		.uleb128 0x4
 8184 004d 01       		.byte	0x1
 8185 004e 0B       		.uleb128 0xb
 8186 004f 0B       		.uleb128 0xb
 8187 0050 3A       		.uleb128 0x3a
 8188 0051 0B       		.uleb128 0xb
 8189 0052 3B       		.uleb128 0x3b
 8190 0053 0B       		.uleb128 0xb
 8191 0054 01       		.uleb128 0x1
 8192 0055 13       		.uleb128 0x13
 8193 0056 00       		.byte	0
 8194 0057 00       		.byte	0
 8195 0058 09       		.uleb128 0x9
 8196 0059 28       		.uleb128 0x28
 8197 005a 00       		.byte	0
 8198 005b 03       		.uleb128 0x3
ARM GAS  C:\Users\ddemidov\AppData\Local\Temp\ccr947bU.s 			page 174


 8199 005c 0E       		.uleb128 0xe
 8200 005d 1C       		.uleb128 0x1c
 8201 005e 0D       		.uleb128 0xd
 8202 005f 00       		.byte	0
 8203 0060 00       		.byte	0
 8204 0061 0A       		.uleb128 0xa
 8205 0062 13       		.uleb128 0x13
 8206 0063 01       		.byte	0x1
 8207 0064 03       		.uleb128 0x3
 8208 0065 0E       		.uleb128 0xe
 8209 0066 0B       		.uleb128 0xb
 8210 0067 0B       		.uleb128 0xb
 8211 0068 3A       		.uleb128 0x3a
 8212 0069 0B       		.uleb128 0xb
 8213 006a 3B       		.uleb128 0x3b
 8214 006b 0B       		.uleb128 0xb
 8215 006c 01       		.uleb128 0x1
 8216 006d 13       		.uleb128 0x13
 8217 006e 00       		.byte	0
 8218 006f 00       		.byte	0
 8219 0070 0B       		.uleb128 0xb
 8220 0071 0D       		.uleb128 0xd
 8221 0072 00       		.byte	0
 8222 0073 03       		.uleb128 0x3
 8223 0074 08       		.uleb128 0x8
 8224 0075 3A       		.uleb128 0x3a
 8225 0076 0B       		.uleb128 0xb
 8226 0077 3B       		.uleb128 0x3b
 8227 0078 0B       		.uleb128 0xb
 8228 0079 49       		.uleb128 0x49
 8229 007a 13       		.uleb128 0x13
 8230 007b 38       		.uleb128 0x38
 8231 007c 0B       		.uleb128 0xb
 8232 007d 00       		.byte	0
 8233 007e 00       		.byte	0
 8234 007f 0C       		.uleb128 0xc
 8235 0080 0D       		.uleb128 0xd
 8236 0081 00       		.byte	0
 8237 0082 03       		.uleb128 0x3
 8238 0083 0E       		.uleb128 0xe
 8239 0084 3A       		.uleb128 0x3a
 8240 0085 0B       		.uleb128 0xb
 8241 0086 3B       		.uleb128 0x3b
 8242 0087 0B       		.uleb128 0xb
 8243 0088 49       		.uleb128 0x49
 8244 0089 13       		.uleb128 0x13
 8245 008a 38       		.uleb128 0x38
 8246 008b 0B       		.uleb128 0xb
 8247 008c 00       		.byte	0
 8248 008d 00       		.byte	0
 8249 008e 0D       		.uleb128 0xd
 8250 008f 13       		.uleb128 0x13
 8251 0090 00       		.byte	0
 8252 0091 03       		.uleb128 0x3
 8253 0092 0E       		.uleb128 0xe
 8254 0093 3C       		.uleb128 0x3c
 8255 0094 19       		.uleb128 0x19
ARM GAS  C:\Users\ddemidov\AppData\Local\Temp\ccr947bU.s 			page 175


 8256 0095 00       		.byte	0
 8257 0096 00       		.byte	0
 8258 0097 0E       		.uleb128 0xe
 8259 0098 13       		.uleb128 0x13
 8260 0099 01       		.byte	0x1
 8261 009a 0B       		.uleb128 0xb
 8262 009b 0B       		.uleb128 0xb
 8263 009c 3A       		.uleb128 0x3a
 8264 009d 0B       		.uleb128 0xb
 8265 009e 3B       		.uleb128 0x3b
 8266 009f 0B       		.uleb128 0xb
 8267 00a0 01       		.uleb128 0x1
 8268 00a1 13       		.uleb128 0x13
 8269 00a2 00       		.byte	0
 8270 00a3 00       		.byte	0
 8271 00a4 0F       		.uleb128 0xf
 8272 00a5 04       		.uleb128 0x4
 8273 00a6 01       		.byte	0x1
 8274 00a7 03       		.uleb128 0x3
 8275 00a8 0E       		.uleb128 0xe
 8276 00a9 0B       		.uleb128 0xb
 8277 00aa 0B       		.uleb128 0xb
 8278 00ab 3A       		.uleb128 0x3a
 8279 00ac 0B       		.uleb128 0xb
 8280 00ad 3B       		.uleb128 0x3b
 8281 00ae 0B       		.uleb128 0xb
 8282 00af 01       		.uleb128 0x1
 8283 00b0 13       		.uleb128 0x13
 8284 00b1 00       		.byte	0
 8285 00b2 00       		.byte	0
 8286 00b3 10       		.uleb128 0x10
 8287 00b4 2E       		.uleb128 0x2e
 8288 00b5 01       		.byte	0x1
 8289 00b6 03       		.uleb128 0x3
 8290 00b7 0E       		.uleb128 0xe
 8291 00b8 3A       		.uleb128 0x3a
 8292 00b9 0B       		.uleb128 0xb
 8293 00ba 3B       		.uleb128 0x3b
 8294 00bb 0B       		.uleb128 0xb
 8295 00bc 27       		.uleb128 0x27
 8296 00bd 19       		.uleb128 0x19
 8297 00be 49       		.uleb128 0x49
 8298 00bf 13       		.uleb128 0x13
 8299 00c0 20       		.uleb128 0x20
 8300 00c1 0B       		.uleb128 0xb
 8301 00c2 01       		.uleb128 0x1
 8302 00c3 13       		.uleb128 0x13
 8303 00c4 00       		.byte	0
 8304 00c5 00       		.byte	0
 8305 00c6 11       		.uleb128 0x11
 8306 00c7 05       		.uleb128 0x5
 8307 00c8 00       		.byte	0
 8308 00c9 03       		.uleb128 0x3
 8309 00ca 08       		.uleb128 0x8
 8310 00cb 3A       		.uleb128 0x3a
 8311 00cc 0B       		.uleb128 0xb
 8312 00cd 3B       		.uleb128 0x3b
ARM GAS  C:\Users\ddemidov\AppData\Local\Temp\ccr947bU.s 			page 176


 8313 00ce 0B       		.uleb128 0xb
 8314 00cf 49       		.uleb128 0x49
 8315 00d0 13       		.uleb128 0x13
 8316 00d1 00       		.byte	0
 8317 00d2 00       		.byte	0
 8318 00d3 12       		.uleb128 0x12
 8319 00d4 05       		.uleb128 0x5
 8320 00d5 00       		.byte	0
 8321 00d6 03       		.uleb128 0x3
 8322 00d7 0E       		.uleb128 0xe
 8323 00d8 3A       		.uleb128 0x3a
 8324 00d9 0B       		.uleb128 0xb
 8325 00da 3B       		.uleb128 0x3b
 8326 00db 0B       		.uleb128 0xb
 8327 00dc 49       		.uleb128 0x49
 8328 00dd 13       		.uleb128 0x13
 8329 00de 00       		.byte	0
 8330 00df 00       		.byte	0
 8331 00e0 13       		.uleb128 0x13
 8332 00e1 34       		.uleb128 0x34
 8333 00e2 00       		.byte	0
 8334 00e3 03       		.uleb128 0x3
 8335 00e4 08       		.uleb128 0x8
 8336 00e5 3A       		.uleb128 0x3a
 8337 00e6 0B       		.uleb128 0xb
 8338 00e7 3B       		.uleb128 0x3b
 8339 00e8 0B       		.uleb128 0xb
 8340 00e9 49       		.uleb128 0x49
 8341 00ea 13       		.uleb128 0x13
 8342 00eb 00       		.byte	0
 8343 00ec 00       		.byte	0
 8344 00ed 14       		.uleb128 0x14
 8345 00ee 34       		.uleb128 0x34
 8346 00ef 00       		.byte	0
 8347 00f0 03       		.uleb128 0x3
 8348 00f1 0E       		.uleb128 0xe
 8349 00f2 3A       		.uleb128 0x3a
 8350 00f3 0B       		.uleb128 0xb
 8351 00f4 3B       		.uleb128 0x3b
 8352 00f5 0B       		.uleb128 0xb
 8353 00f6 49       		.uleb128 0x49
 8354 00f7 13       		.uleb128 0x13
 8355 00f8 00       		.byte	0
 8356 00f9 00       		.byte	0
 8357 00fa 15       		.uleb128 0x15
 8358 00fb 26       		.uleb128 0x26
 8359 00fc 00       		.byte	0
 8360 00fd 49       		.uleb128 0x49
 8361 00fe 13       		.uleb128 0x13
 8362 00ff 00       		.byte	0
 8363 0100 00       		.byte	0
 8364 0101 16       		.uleb128 0x16
 8365 0102 2E       		.uleb128 0x2e
 8366 0103 01       		.byte	0x1
 8367 0104 03       		.uleb128 0x3
 8368 0105 0E       		.uleb128 0xe
 8369 0106 3A       		.uleb128 0x3a
ARM GAS  C:\Users\ddemidov\AppData\Local\Temp\ccr947bU.s 			page 177


 8370 0107 0B       		.uleb128 0xb
 8371 0108 3B       		.uleb128 0x3b
 8372 0109 0B       		.uleb128 0xb
 8373 010a 27       		.uleb128 0x27
 8374 010b 19       		.uleb128 0x19
 8375 010c 20       		.uleb128 0x20
 8376 010d 0B       		.uleb128 0xb
 8377 010e 01       		.uleb128 0x1
 8378 010f 13       		.uleb128 0x13
 8379 0110 00       		.byte	0
 8380 0111 00       		.byte	0
 8381 0112 17       		.uleb128 0x17
 8382 0113 35       		.uleb128 0x35
 8383 0114 00       		.byte	0
 8384 0115 49       		.uleb128 0x49
 8385 0116 13       		.uleb128 0x13
 8386 0117 00       		.byte	0
 8387 0118 00       		.byte	0
 8388 0119 18       		.uleb128 0x18
 8389 011a 2E       		.uleb128 0x2e
 8390 011b 01       		.byte	0x1
 8391 011c 03       		.uleb128 0x3
 8392 011d 0E       		.uleb128 0xe
 8393 011e 3A       		.uleb128 0x3a
 8394 011f 0B       		.uleb128 0xb
 8395 0120 3B       		.uleb128 0x3b
 8396 0121 05       		.uleb128 0x5
 8397 0122 27       		.uleb128 0x27
 8398 0123 19       		.uleb128 0x19
 8399 0124 49       		.uleb128 0x49
 8400 0125 13       		.uleb128 0x13
 8401 0126 11       		.uleb128 0x11
 8402 0127 01       		.uleb128 0x1
 8403 0128 12       		.uleb128 0x12
 8404 0129 06       		.uleb128 0x6
 8405 012a 40       		.uleb128 0x40
 8406 012b 18       		.uleb128 0x18
 8407 012c 9742     		.uleb128 0x2117
 8408 012e 19       		.uleb128 0x19
 8409 012f 01       		.uleb128 0x1
 8410 0130 13       		.uleb128 0x13
 8411 0131 00       		.byte	0
 8412 0132 00       		.byte	0
 8413 0133 19       		.uleb128 0x19
 8414 0134 05       		.uleb128 0x5
 8415 0135 00       		.byte	0
 8416 0136 03       		.uleb128 0x3
 8417 0137 0E       		.uleb128 0xe
 8418 0138 3A       		.uleb128 0x3a
 8419 0139 0B       		.uleb128 0xb
 8420 013a 3B       		.uleb128 0x3b
 8421 013b 05       		.uleb128 0x5
 8422 013c 49       		.uleb128 0x49
 8423 013d 13       		.uleb128 0x13
 8424 013e 02       		.uleb128 0x2
 8425 013f 17       		.uleb128 0x17
 8426 0140 00       		.byte	0
ARM GAS  C:\Users\ddemidov\AppData\Local\Temp\ccr947bU.s 			page 178


 8427 0141 00       		.byte	0
 8428 0142 1A       		.uleb128 0x1a
 8429 0143 05       		.uleb128 0x5
 8430 0144 00       		.byte	0
 8431 0145 03       		.uleb128 0x3
 8432 0146 0E       		.uleb128 0xe
 8433 0147 3A       		.uleb128 0x3a
 8434 0148 0B       		.uleb128 0xb
 8435 0149 3B       		.uleb128 0x3b
 8436 014a 05       		.uleb128 0x5
 8437 014b 49       		.uleb128 0x49
 8438 014c 13       		.uleb128 0x13
 8439 014d 02       		.uleb128 0x2
 8440 014e 18       		.uleb128 0x18
 8441 014f 00       		.byte	0
 8442 0150 00       		.byte	0
 8443 0151 1B       		.uleb128 0x1b
 8444 0152 34       		.uleb128 0x34
 8445 0153 00       		.byte	0
 8446 0154 03       		.uleb128 0x3
 8447 0155 0E       		.uleb128 0xe
 8448 0156 3A       		.uleb128 0x3a
 8449 0157 0B       		.uleb128 0xb
 8450 0158 3B       		.uleb128 0x3b
 8451 0159 05       		.uleb128 0x5
 8452 015a 49       		.uleb128 0x49
 8453 015b 13       		.uleb128 0x13
 8454 015c 02       		.uleb128 0x2
 8455 015d 17       		.uleb128 0x17
 8456 015e 00       		.byte	0
 8457 015f 00       		.byte	0
 8458 0160 1C       		.uleb128 0x1c
 8459 0161 34       		.uleb128 0x34
 8460 0162 00       		.byte	0
 8461 0163 03       		.uleb128 0x3
 8462 0164 08       		.uleb128 0x8
 8463 0165 3A       		.uleb128 0x3a
 8464 0166 0B       		.uleb128 0xb
 8465 0167 3B       		.uleb128 0x3b
 8466 0168 05       		.uleb128 0x5
 8467 0169 49       		.uleb128 0x49
 8468 016a 13       		.uleb128 0x13
 8469 016b 02       		.uleb128 0x2
 8470 016c 17       		.uleb128 0x17
 8471 016d 00       		.byte	0
 8472 016e 00       		.byte	0
 8473 016f 1D       		.uleb128 0x1d
 8474 0170 05       		.uleb128 0x5
 8475 0171 00       		.byte	0
 8476 0172 03       		.uleb128 0x3
 8477 0173 08       		.uleb128 0x8
 8478 0174 3A       		.uleb128 0x3a
 8479 0175 0B       		.uleb128 0xb
 8480 0176 3B       		.uleb128 0x3b
 8481 0177 05       		.uleb128 0x5
 8482 0178 49       		.uleb128 0x49
 8483 0179 13       		.uleb128 0x13
ARM GAS  C:\Users\ddemidov\AppData\Local\Temp\ccr947bU.s 			page 179


 8484 017a 02       		.uleb128 0x2
 8485 017b 17       		.uleb128 0x17
 8486 017c 00       		.byte	0
 8487 017d 00       		.byte	0
 8488 017e 1E       		.uleb128 0x1e
 8489 017f 0B       		.uleb128 0xb
 8490 0180 01       		.byte	0x1
 8491 0181 11       		.uleb128 0x11
 8492 0182 01       		.uleb128 0x1
 8493 0183 12       		.uleb128 0x12
 8494 0184 06       		.uleb128 0x6
 8495 0185 01       		.uleb128 0x1
 8496 0186 13       		.uleb128 0x13
 8497 0187 00       		.byte	0
 8498 0188 00       		.byte	0
 8499 0189 1F       		.uleb128 0x1f
 8500 018a 898201   		.uleb128 0x4109
 8501 018d 01       		.byte	0x1
 8502 018e 11       		.uleb128 0x11
 8503 018f 01       		.uleb128 0x1
 8504 0190 31       		.uleb128 0x31
 8505 0191 13       		.uleb128 0x13
 8506 0192 00       		.byte	0
 8507 0193 00       		.byte	0
 8508 0194 20       		.uleb128 0x20
 8509 0195 8A8201   		.uleb128 0x410a
 8510 0198 00       		.byte	0
 8511 0199 02       		.uleb128 0x2
 8512 019a 18       		.uleb128 0x18
 8513 019b 9142     		.uleb128 0x2111
 8514 019d 18       		.uleb128 0x18
 8515 019e 00       		.byte	0
 8516 019f 00       		.byte	0
 8517 01a0 21       		.uleb128 0x21
 8518 01a1 898201   		.uleb128 0x4109
 8519 01a4 01       		.byte	0x1
 8520 01a5 11       		.uleb128 0x11
 8521 01a6 01       		.uleb128 0x1
 8522 01a7 31       		.uleb128 0x31
 8523 01a8 13       		.uleb128 0x13
 8524 01a9 01       		.uleb128 0x1
 8525 01aa 13       		.uleb128 0x13
 8526 01ab 00       		.byte	0
 8527 01ac 00       		.byte	0
 8528 01ad 22       		.uleb128 0x22
 8529 01ae 05       		.uleb128 0x5
 8530 01af 00       		.byte	0
 8531 01b0 03       		.uleb128 0x3
 8532 01b1 08       		.uleb128 0x8
 8533 01b2 3A       		.uleb128 0x3a
 8534 01b3 0B       		.uleb128 0xb
 8535 01b4 3B       		.uleb128 0x3b
 8536 01b5 05       		.uleb128 0x5
 8537 01b6 49       		.uleb128 0x49
 8538 01b7 13       		.uleb128 0x13
 8539 01b8 02       		.uleb128 0x2
 8540 01b9 18       		.uleb128 0x18
ARM GAS  C:\Users\ddemidov\AppData\Local\Temp\ccr947bU.s 			page 180


 8541 01ba 00       		.byte	0
 8542 01bb 00       		.byte	0
 8543 01bc 23       		.uleb128 0x23
 8544 01bd 34       		.uleb128 0x34
 8545 01be 00       		.byte	0
 8546 01bf 03       		.uleb128 0x3
 8547 01c0 08       		.uleb128 0x8
 8548 01c1 3A       		.uleb128 0x3a
 8549 01c2 0B       		.uleb128 0xb
 8550 01c3 3B       		.uleb128 0x3b
 8551 01c4 05       		.uleb128 0x5
 8552 01c5 49       		.uleb128 0x49
 8553 01c6 13       		.uleb128 0x13
 8554 01c7 02       		.uleb128 0x2
 8555 01c8 18       		.uleb128 0x18
 8556 01c9 00       		.byte	0
 8557 01ca 00       		.byte	0
 8558 01cb 24       		.uleb128 0x24
 8559 01cc 0A       		.uleb128 0xa
 8560 01cd 00       		.byte	0
 8561 01ce 03       		.uleb128 0x3
 8562 01cf 0E       		.uleb128 0xe
 8563 01d0 3A       		.uleb128 0x3a
 8564 01d1 0B       		.uleb128 0xb
 8565 01d2 3B       		.uleb128 0x3b
 8566 01d3 05       		.uleb128 0x5
 8567 01d4 11       		.uleb128 0x11
 8568 01d5 01       		.uleb128 0x1
 8569 01d6 00       		.byte	0
 8570 01d7 00       		.byte	0
 8571 01d8 25       		.uleb128 0x25
 8572 01d9 0B       		.uleb128 0xb
 8573 01da 01       		.byte	0x1
 8574 01db 55       		.uleb128 0x55
 8575 01dc 17       		.uleb128 0x17
 8576 01dd 01       		.uleb128 0x1
 8577 01de 13       		.uleb128 0x13
 8578 01df 00       		.byte	0
 8579 01e0 00       		.byte	0
 8580 01e1 26       		.uleb128 0x26
 8581 01e2 34       		.uleb128 0x34
 8582 01e3 00       		.byte	0
 8583 01e4 03       		.uleb128 0x3
 8584 01e5 0E       		.uleb128 0xe
 8585 01e6 3A       		.uleb128 0x3a
 8586 01e7 0B       		.uleb128 0xb
 8587 01e8 3B       		.uleb128 0x3b
 8588 01e9 05       		.uleb128 0x5
 8589 01ea 49       		.uleb128 0x49
 8590 01eb 13       		.uleb128 0x13
 8591 01ec 02       		.uleb128 0x2
 8592 01ed 18       		.uleb128 0x18
 8593 01ee 00       		.byte	0
 8594 01ef 00       		.byte	0
 8595 01f0 27       		.uleb128 0x27
 8596 01f1 2E       		.uleb128 0x2e
 8597 01f2 01       		.byte	0x1
ARM GAS  C:\Users\ddemidov\AppData\Local\Temp\ccr947bU.s 			page 181


 8598 01f3 03       		.uleb128 0x3
 8599 01f4 0E       		.uleb128 0xe
 8600 01f5 3A       		.uleb128 0x3a
 8601 01f6 0B       		.uleb128 0xb
 8602 01f7 3B       		.uleb128 0x3b
 8603 01f8 0B       		.uleb128 0xb
 8604 01f9 27       		.uleb128 0x27
 8605 01fa 19       		.uleb128 0x19
 8606 01fb 49       		.uleb128 0x49
 8607 01fc 13       		.uleb128 0x13
 8608 01fd 11       		.uleb128 0x11
 8609 01fe 01       		.uleb128 0x1
 8610 01ff 12       		.uleb128 0x12
 8611 0200 06       		.uleb128 0x6
 8612 0201 40       		.uleb128 0x40
 8613 0202 18       		.uleb128 0x18
 8614 0203 9742     		.uleb128 0x2117
 8615 0205 19       		.uleb128 0x19
 8616 0206 01       		.uleb128 0x1
 8617 0207 13       		.uleb128 0x13
 8618 0208 00       		.byte	0
 8619 0209 00       		.byte	0
 8620 020a 28       		.uleb128 0x28
 8621 020b 05       		.uleb128 0x5
 8622 020c 00       		.byte	0
 8623 020d 03       		.uleb128 0x3
 8624 020e 0E       		.uleb128 0xe
 8625 020f 3A       		.uleb128 0x3a
 8626 0210 0B       		.uleb128 0xb
 8627 0211 3B       		.uleb128 0x3b
 8628 0212 0B       		.uleb128 0xb
 8629 0213 49       		.uleb128 0x49
 8630 0214 13       		.uleb128 0x13
 8631 0215 02       		.uleb128 0x2
 8632 0216 17       		.uleb128 0x17
 8633 0217 00       		.byte	0
 8634 0218 00       		.byte	0
 8635 0219 29       		.uleb128 0x29
 8636 021a 05       		.uleb128 0x5
 8637 021b 00       		.byte	0
 8638 021c 03       		.uleb128 0x3
 8639 021d 08       		.uleb128 0x8
 8640 021e 3A       		.uleb128 0x3a
 8641 021f 0B       		.uleb128 0xb
 8642 0220 3B       		.uleb128 0x3b
 8643 0221 0B       		.uleb128 0xb
 8644 0222 49       		.uleb128 0x49
 8645 0223 13       		.uleb128 0x13
 8646 0224 02       		.uleb128 0x2
 8647 0225 17       		.uleb128 0x17
 8648 0226 00       		.byte	0
 8649 0227 00       		.byte	0
 8650 0228 2A       		.uleb128 0x2a
 8651 0229 05       		.uleb128 0x5
 8652 022a 00       		.byte	0
 8653 022b 03       		.uleb128 0x3
 8654 022c 0E       		.uleb128 0xe
ARM GAS  C:\Users\ddemidov\AppData\Local\Temp\ccr947bU.s 			page 182


 8655 022d 3A       		.uleb128 0x3a
 8656 022e 0B       		.uleb128 0xb
 8657 022f 3B       		.uleb128 0x3b
 8658 0230 0B       		.uleb128 0xb
 8659 0231 49       		.uleb128 0x49
 8660 0232 13       		.uleb128 0x13
 8661 0233 02       		.uleb128 0x2
 8662 0234 18       		.uleb128 0x18
 8663 0235 00       		.byte	0
 8664 0236 00       		.byte	0
 8665 0237 2B       		.uleb128 0x2b
 8666 0238 34       		.uleb128 0x34
 8667 0239 00       		.byte	0
 8668 023a 03       		.uleb128 0x3
 8669 023b 08       		.uleb128 0x8
 8670 023c 3A       		.uleb128 0x3a
 8671 023d 0B       		.uleb128 0xb
 8672 023e 3B       		.uleb128 0x3b
 8673 023f 0B       		.uleb128 0xb
 8674 0240 49       		.uleb128 0x49
 8675 0241 13       		.uleb128 0x13
 8676 0242 02       		.uleb128 0x2
 8677 0243 17       		.uleb128 0x17
 8678 0244 00       		.byte	0
 8679 0245 00       		.byte	0
 8680 0246 2C       		.uleb128 0x2c
 8681 0247 34       		.uleb128 0x34
 8682 0248 00       		.byte	0
 8683 0249 03       		.uleb128 0x3
 8684 024a 0E       		.uleb128 0xe
 8685 024b 3A       		.uleb128 0x3a
 8686 024c 0B       		.uleb128 0xb
 8687 024d 3B       		.uleb128 0x3b
 8688 024e 0B       		.uleb128 0xb
 8689 024f 49       		.uleb128 0x49
 8690 0250 13       		.uleb128 0x13
 8691 0251 02       		.uleb128 0x2
 8692 0252 18       		.uleb128 0x18
 8693 0253 00       		.byte	0
 8694 0254 00       		.byte	0
 8695 0255 2D       		.uleb128 0x2d
 8696 0256 34       		.uleb128 0x34
 8697 0257 00       		.byte	0
 8698 0258 03       		.uleb128 0x3
 8699 0259 0E       		.uleb128 0xe
 8700 025a 3A       		.uleb128 0x3a
 8701 025b 0B       		.uleb128 0xb
 8702 025c 3B       		.uleb128 0x3b
 8703 025d 0B       		.uleb128 0xb
 8704 025e 49       		.uleb128 0x49
 8705 025f 13       		.uleb128 0x13
 8706 0260 02       		.uleb128 0x2
 8707 0261 17       		.uleb128 0x17
 8708 0262 00       		.byte	0
 8709 0263 00       		.byte	0
 8710 0264 2E       		.uleb128 0x2e
 8711 0265 01       		.uleb128 0x1
ARM GAS  C:\Users\ddemidov\AppData\Local\Temp\ccr947bU.s 			page 183


 8712 0266 01       		.byte	0x1
 8713 0267 49       		.uleb128 0x49
 8714 0268 13       		.uleb128 0x13
 8715 0269 01       		.uleb128 0x1
 8716 026a 13       		.uleb128 0x13
 8717 026b 00       		.byte	0
 8718 026c 00       		.byte	0
 8719 026d 2F       		.uleb128 0x2f
 8720 026e 21       		.uleb128 0x21
 8721 026f 00       		.byte	0
 8722 0270 49       		.uleb128 0x49
 8723 0271 13       		.uleb128 0x13
 8724 0272 2F       		.uleb128 0x2f
 8725 0273 0B       		.uleb128 0xb
 8726 0274 00       		.byte	0
 8727 0275 00       		.byte	0
 8728 0276 30       		.uleb128 0x30
 8729 0277 1D       		.uleb128 0x1d
 8730 0278 01       		.byte	0x1
 8731 0279 31       		.uleb128 0x31
 8732 027a 13       		.uleb128 0x13
 8733 027b 11       		.uleb128 0x11
 8734 027c 01       		.uleb128 0x1
 8735 027d 12       		.uleb128 0x12
 8736 027e 06       		.uleb128 0x6
 8737 027f 58       		.uleb128 0x58
 8738 0280 0B       		.uleb128 0xb
 8739 0281 59       		.uleb128 0x59
 8740 0282 05       		.uleb128 0x5
 8741 0283 01       		.uleb128 0x1
 8742 0284 13       		.uleb128 0x13
 8743 0285 00       		.byte	0
 8744 0286 00       		.byte	0
 8745 0287 31       		.uleb128 0x31
 8746 0288 05       		.uleb128 0x5
 8747 0289 00       		.byte	0
 8748 028a 31       		.uleb128 0x31
 8749 028b 13       		.uleb128 0x13
 8750 028c 00       		.byte	0
 8751 028d 00       		.byte	0
 8752 028e 32       		.uleb128 0x32
 8753 028f 0B       		.uleb128 0xb
 8754 0290 01       		.byte	0x1
 8755 0291 11       		.uleb128 0x11
 8756 0292 01       		.uleb128 0x1
 8757 0293 12       		.uleb128 0x12
 8758 0294 06       		.uleb128 0x6
 8759 0295 00       		.byte	0
 8760 0296 00       		.byte	0
 8761 0297 33       		.uleb128 0x33
 8762 0298 34       		.uleb128 0x34
 8763 0299 00       		.byte	0
 8764 029a 31       		.uleb128 0x31
 8765 029b 13       		.uleb128 0x13
 8766 029c 02       		.uleb128 0x2
 8767 029d 17       		.uleb128 0x17
 8768 029e 00       		.byte	0
ARM GAS  C:\Users\ddemidov\AppData\Local\Temp\ccr947bU.s 			page 184


 8769 029f 00       		.byte	0
 8770 02a0 34       		.uleb128 0x34
 8771 02a1 898201   		.uleb128 0x4109
 8772 02a4 00       		.byte	0
 8773 02a5 11       		.uleb128 0x11
 8774 02a6 01       		.uleb128 0x1
 8775 02a7 31       		.uleb128 0x31
 8776 02a8 13       		.uleb128 0x13
 8777 02a9 00       		.byte	0
 8778 02aa 00       		.byte	0
 8779 02ab 35       		.uleb128 0x35
 8780 02ac 2E       		.uleb128 0x2e
 8781 02ad 01       		.byte	0x1
 8782 02ae 3F       		.uleb128 0x3f
 8783 02af 19       		.uleb128 0x19
 8784 02b0 03       		.uleb128 0x3
 8785 02b1 0E       		.uleb128 0xe
 8786 02b2 3A       		.uleb128 0x3a
 8787 02b3 0B       		.uleb128 0xb
 8788 02b4 3B       		.uleb128 0x3b
 8789 02b5 0B       		.uleb128 0xb
 8790 02b6 27       		.uleb128 0x27
 8791 02b7 19       		.uleb128 0x19
 8792 02b8 49       		.uleb128 0x49
 8793 02b9 13       		.uleb128 0x13
 8794 02ba 11       		.uleb128 0x11
 8795 02bb 01       		.uleb128 0x1
 8796 02bc 12       		.uleb128 0x12
 8797 02bd 06       		.uleb128 0x6
 8798 02be 40       		.uleb128 0x40
 8799 02bf 18       		.uleb128 0x18
 8800 02c0 9742     		.uleb128 0x2117
 8801 02c2 19       		.uleb128 0x19
 8802 02c3 01       		.uleb128 0x1
 8803 02c4 13       		.uleb128 0x13
 8804 02c5 00       		.byte	0
 8805 02c6 00       		.byte	0
 8806 02c7 36       		.uleb128 0x36
 8807 02c8 2E       		.uleb128 0x2e
 8808 02c9 01       		.byte	0x1
 8809 02ca 3F       		.uleb128 0x3f
 8810 02cb 19       		.uleb128 0x19
 8811 02cc 03       		.uleb128 0x3
 8812 02cd 0E       		.uleb128 0xe
 8813 02ce 3A       		.uleb128 0x3a
 8814 02cf 0B       		.uleb128 0xb
 8815 02d0 3B       		.uleb128 0x3b
 8816 02d1 05       		.uleb128 0x5
 8817 02d2 27       		.uleb128 0x27
 8818 02d3 19       		.uleb128 0x19
 8819 02d4 49       		.uleb128 0x49
 8820 02d5 13       		.uleb128 0x13
 8821 02d6 11       		.uleb128 0x11
 8822 02d7 01       		.uleb128 0x1
 8823 02d8 12       		.uleb128 0x12
 8824 02d9 06       		.uleb128 0x6
 8825 02da 40       		.uleb128 0x40
ARM GAS  C:\Users\ddemidov\AppData\Local\Temp\ccr947bU.s 			page 185


 8826 02db 18       		.uleb128 0x18
 8827 02dc 9742     		.uleb128 0x2117
 8828 02de 19       		.uleb128 0x19
 8829 02df 01       		.uleb128 0x1
 8830 02e0 13       		.uleb128 0x13
 8831 02e1 00       		.byte	0
 8832 02e2 00       		.byte	0
 8833 02e3 37       		.uleb128 0x37
 8834 02e4 05       		.uleb128 0x5
 8835 02e5 00       		.byte	0
 8836 02e6 31       		.uleb128 0x31
 8837 02e7 13       		.uleb128 0x13
 8838 02e8 02       		.uleb128 0x2
 8839 02e9 17       		.uleb128 0x17
 8840 02ea 00       		.byte	0
 8841 02eb 00       		.byte	0
 8842 02ec 38       		.uleb128 0x38
 8843 02ed 34       		.uleb128 0x34
 8844 02ee 00       		.byte	0
 8845 02ef 03       		.uleb128 0x3
 8846 02f0 08       		.uleb128 0x8
 8847 02f1 3A       		.uleb128 0x3a
 8848 02f2 0B       		.uleb128 0xb
 8849 02f3 3B       		.uleb128 0x3b
 8850 02f4 05       		.uleb128 0x5
 8851 02f5 49       		.uleb128 0x49
 8852 02f6 13       		.uleb128 0x13
 8853 02f7 00       		.byte	0
 8854 02f8 00       		.byte	0
 8855 02f9 39       		.uleb128 0x39
 8856 02fa 2E       		.uleb128 0x2e
 8857 02fb 01       		.byte	0x1
 8858 02fc 3F       		.uleb128 0x3f
 8859 02fd 19       		.uleb128 0x19
 8860 02fe 03       		.uleb128 0x3
 8861 02ff 0E       		.uleb128 0xe
 8862 0300 3A       		.uleb128 0x3a
 8863 0301 0B       		.uleb128 0xb
 8864 0302 3B       		.uleb128 0x3b
 8865 0303 0B       		.uleb128 0xb
 8866 0304 27       		.uleb128 0x27
 8867 0305 19       		.uleb128 0x19
 8868 0306 49       		.uleb128 0x49
 8869 0307 13       		.uleb128 0x13
 8870 0308 3C       		.uleb128 0x3c
 8871 0309 19       		.uleb128 0x19
 8872 030a 01       		.uleb128 0x1
 8873 030b 13       		.uleb128 0x13
 8874 030c 00       		.byte	0
 8875 030d 00       		.byte	0
 8876 030e 3A       		.uleb128 0x3a
 8877 030f 05       		.uleb128 0x5
 8878 0310 00       		.byte	0
 8879 0311 49       		.uleb128 0x49
 8880 0312 13       		.uleb128 0x13
 8881 0313 00       		.byte	0
 8882 0314 00       		.byte	0
ARM GAS  C:\Users\ddemidov\AppData\Local\Temp\ccr947bU.s 			page 186


 8883 0315 3B       		.uleb128 0x3b
 8884 0316 2E       		.uleb128 0x2e
 8885 0317 01       		.byte	0x1
 8886 0318 3F       		.uleb128 0x3f
 8887 0319 19       		.uleb128 0x19
 8888 031a 03       		.uleb128 0x3
 8889 031b 0E       		.uleb128 0xe
 8890 031c 27       		.uleb128 0x27
 8891 031d 19       		.uleb128 0x19
 8892 031e 49       		.uleb128 0x49
 8893 031f 13       		.uleb128 0x13
 8894 0320 34       		.uleb128 0x34
 8895 0321 19       		.uleb128 0x19
 8896 0322 3C       		.uleb128 0x3c
 8897 0323 19       		.uleb128 0x19
 8898 0324 01       		.uleb128 0x1
 8899 0325 13       		.uleb128 0x13
 8900 0326 00       		.byte	0
 8901 0327 00       		.byte	0
 8902 0328 3C       		.uleb128 0x3c
 8903 0329 2E       		.uleb128 0x2e
 8904 032a 01       		.byte	0x1
 8905 032b 3F       		.uleb128 0x3f
 8906 032c 19       		.uleb128 0x19
 8907 032d 03       		.uleb128 0x3
 8908 032e 0E       		.uleb128 0xe
 8909 032f 3A       		.uleb128 0x3a
 8910 0330 0B       		.uleb128 0xb
 8911 0331 3B       		.uleb128 0x3b
 8912 0332 0B       		.uleb128 0xb
 8913 0333 27       		.uleb128 0x27
 8914 0334 19       		.uleb128 0x19
 8915 0335 3C       		.uleb128 0x3c
 8916 0336 19       		.uleb128 0x19
 8917 0337 01       		.uleb128 0x1
 8918 0338 13       		.uleb128 0x13
 8919 0339 00       		.byte	0
 8920 033a 00       		.byte	0
 8921 033b 3D       		.uleb128 0x3d
 8922 033c 2E       		.uleb128 0x2e
 8923 033d 01       		.byte	0x1
 8924 033e 3F       		.uleb128 0x3f
 8925 033f 19       		.uleb128 0x19
 8926 0340 03       		.uleb128 0x3
 8927 0341 0E       		.uleb128 0xe
 8928 0342 3A       		.uleb128 0x3a
 8929 0343 0B       		.uleb128 0xb
 8930 0344 3B       		.uleb128 0x3b
 8931 0345 05       		.uleb128 0x5
 8932 0346 27       		.uleb128 0x27
 8933 0347 19       		.uleb128 0x19
 8934 0348 49       		.uleb128 0x49
 8935 0349 13       		.uleb128 0x13
 8936 034a 3C       		.uleb128 0x3c
 8937 034b 19       		.uleb128 0x19
 8938 034c 01       		.uleb128 0x1
 8939 034d 13       		.uleb128 0x13
ARM GAS  C:\Users\ddemidov\AppData\Local\Temp\ccr947bU.s 			page 187


 8940 034e 00       		.byte	0
 8941 034f 00       		.byte	0
 8942 0350 3E       		.uleb128 0x3e
 8943 0351 2E       		.uleb128 0x2e
 8944 0352 01       		.byte	0x1
 8945 0353 3F       		.uleb128 0x3f
 8946 0354 19       		.uleb128 0x19
 8947 0355 03       		.uleb128 0x3
 8948 0356 0E       		.uleb128 0xe
 8949 0357 27       		.uleb128 0x27
 8950 0358 19       		.uleb128 0x19
 8951 0359 49       		.uleb128 0x49
 8952 035a 13       		.uleb128 0x13
 8953 035b 34       		.uleb128 0x34
 8954 035c 19       		.uleb128 0x19
 8955 035d 3C       		.uleb128 0x3c
 8956 035e 19       		.uleb128 0x19
 8957 035f 00       		.byte	0
 8958 0360 00       		.byte	0
 8959 0361 00       		.byte	0
 8960              		.section	.debug_loc,"",%progbits
 8961              	.Ldebug_loc0:
 8962              	.LLST0:
 8963 0000 00000000 		.4byte	.LVL0
 8964 0004 18000000 		.4byte	.LVL3
 8965 0008 0100     		.2byte	0x1
 8966 000a 50       		.byte	0x50
 8967 000b 18000000 		.4byte	.LVL3
 8968 000f 8C000000 		.4byte	.LVL24
 8969 0013 0100     		.2byte	0x1
 8970 0015 55       		.byte	0x55
 8971 0016 8C000000 		.4byte	.LVL24
 8972 001a 8E000000 		.4byte	.LFE20
 8973 001e 0600     		.2byte	0x6
 8974 0020 F3       		.byte	0xf3
 8975 0021 01       		.uleb128 0x1
 8976 0022 50       		.byte	0x50
 8977 0023 23       		.byte	0x23
 8978 0024 01       		.uleb128 0x1
 8979 0025 9F       		.byte	0x9f
 8980 0026 00000000 		.4byte	0
 8981 002a 00000000 		.4byte	0
 8982              	.LLST1:
 8983 002e 00000000 		.4byte	.LVL0
 8984 0032 1A000000 		.4byte	.LVL4
 8985 0036 0100     		.2byte	0x1
 8986 0038 51       		.byte	0x51
 8987 0039 1A000000 		.4byte	.LVL4
 8988 003d 8E000000 		.4byte	.LFE20
 8989 0041 0100     		.2byte	0x1
 8990 0043 51       		.byte	0x51
 8991 0044 00000000 		.4byte	0
 8992 0048 00000000 		.4byte	0
 8993              	.LLST2:
 8994 004c 00000000 		.4byte	.LVL0
 8995 0050 34000000 		.4byte	.LVL6
 8996 0054 0100     		.2byte	0x1
ARM GAS  C:\Users\ddemidov\AppData\Local\Temp\ccr947bU.s 			page 188


 8997 0056 53       		.byte	0x53
 8998 0057 34000000 		.4byte	.LVL6
 8999 005b 46000000 		.4byte	.LVL9
 9000 005f 0400     		.2byte	0x4
 9001 0061 F3       		.byte	0xf3
 9002 0062 01       		.uleb128 0x1
 9003 0063 53       		.byte	0x53
 9004 0064 9F       		.byte	0x9f
 9005 0065 46000000 		.4byte	.LVL9
 9006 0069 48000000 		.4byte	.LVL10
 9007 006d 0100     		.2byte	0x1
 9008 006f 53       		.byte	0x53
 9009 0070 48000000 		.4byte	.LVL10
 9010 0074 8E000000 		.4byte	.LFE20
 9011 0078 0400     		.2byte	0x4
 9012 007a F3       		.byte	0xf3
 9013 007b 01       		.uleb128 0x1
 9014 007c 53       		.byte	0x53
 9015 007d 9F       		.byte	0x9f
 9016 007e 00000000 		.4byte	0
 9017 0082 00000000 		.4byte	0
 9018              	.LLST3:
 9019 0086 0E000000 		.4byte	.LVL1
 9020 008a 8C000000 		.4byte	.LVL26
 9021 008e 0100     		.2byte	0x1
 9022 0090 57       		.byte	0x57
 9023 0091 00000000 		.4byte	0
 9024 0095 00000000 		.4byte	0
 9025              	.LLST4:
 9026 0099 0E000000 		.4byte	.LVL1
 9027 009d 16000000 		.4byte	.LVL2
 9028 00a1 0200     		.2byte	0x2
 9029 00a3 30       		.byte	0x30
 9030 00a4 9F       		.byte	0x9f
 9031 00a5 16000000 		.4byte	.LVL2
 9032 00a9 2E000000 		.4byte	.LVL5
 9033 00ad 0100     		.2byte	0x1
 9034 00af 54       		.byte	0x54
 9035 00b0 2E000000 		.4byte	.LVL5
 9036 00b4 74000000 		.4byte	.LVL16
 9037 00b8 0100     		.2byte	0x1
 9038 00ba 56       		.byte	0x56
 9039 00bb 76000000 		.4byte	.LVL17
 9040 00bf 8C000000 		.4byte	.LVL25
 9041 00c3 0100     		.2byte	0x1
 9042 00c5 56       		.byte	0x56
 9043 00c6 00000000 		.4byte	0
 9044 00ca 00000000 		.4byte	0
 9045              	.LLST5:
 9046 00ce 0E000000 		.4byte	.LVL1
 9047 00d2 34000000 		.4byte	.LVL6
 9048 00d6 0200     		.2byte	0x2
 9049 00d8 31       		.byte	0x31
 9050 00d9 9F       		.byte	0x9f
 9051 00da 34000000 		.4byte	.LVL6
 9052 00de 36000000 		.4byte	.LVL7
 9053 00e2 0100     		.2byte	0x1
ARM GAS  C:\Users\ddemidov\AppData\Local\Temp\ccr947bU.s 			page 189


 9054 00e4 54       		.byte	0x54
 9055 00e5 36000000 		.4byte	.LVL7
 9056 00e9 3C000000 		.4byte	.LVL8
 9057 00ed 0100     		.2byte	0x1
 9058 00ef 53       		.byte	0x53
 9059 00f0 3C000000 		.4byte	.LVL8
 9060 00f4 46000000 		.4byte	.LVL9
 9061 00f8 0100     		.2byte	0x1
 9062 00fa 54       		.byte	0x54
 9063 00fb 46000000 		.4byte	.LVL9
 9064 00ff 4A000000 		.4byte	.LVL11
 9065 0103 0200     		.2byte	0x2
 9066 0105 31       		.byte	0x31
 9067 0106 9F       		.byte	0x9f
 9068 0107 4A000000 		.4byte	.LVL11
 9069 010b 4C000000 		.4byte	.LVL12
 9070 010f 0100     		.2byte	0x1
 9071 0111 50       		.byte	0x50
 9072 0112 4C000000 		.4byte	.LVL12
 9073 0116 52000000 		.4byte	.LVL13
 9074 011a 0100     		.2byte	0x1
 9075 011c 53       		.byte	0x53
 9076 011d 52000000 		.4byte	.LVL13
 9077 0121 5A000000 		.4byte	.LVL14
 9078 0125 0100     		.2byte	0x1
 9079 0127 50       		.byte	0x50
 9080 0128 5A000000 		.4byte	.LVL14
 9081 012c 7E000000 		.4byte	.LVL19
 9082 0130 0100     		.2byte	0x1
 9083 0132 53       		.byte	0x53
 9084 0133 82000000 		.4byte	.LVL20
 9085 0137 8C000000 		.4byte	.LVL23
 9086 013b 0100     		.2byte	0x1
 9087 013d 53       		.byte	0x53
 9088 013e 00000000 		.4byte	0
 9089 0142 00000000 		.4byte	0
 9090              	.LLST6:
 9091 0146 6A000000 		.4byte	.LVL15
 9092 014a 82000000 		.4byte	.LVL20
 9093 014e 0100     		.2byte	0x1
 9094 0150 50       		.byte	0x50
 9095 0151 88000000 		.4byte	.LVL21
 9096 0155 8A000000 		.4byte	.LVL22
 9097 0159 0100     		.2byte	0x1
 9098 015b 50       		.byte	0x50
 9099 015c 8A000000 		.4byte	.LVL22
 9100 0160 8C000000 		.4byte	.LVL23
 9101 0164 0600     		.2byte	0x6
 9102 0166 71       		.byte	0x71
 9103 0167 00       		.sleb128 0
 9104 0168 73       		.byte	0x73
 9105 0169 00       		.sleb128 0
 9106 016a 1C       		.byte	0x1c
 9107 016b 9F       		.byte	0x9f
 9108 016c 00000000 		.4byte	0
 9109 0170 00000000 		.4byte	0
 9110              	.LLST7:
ARM GAS  C:\Users\ddemidov\AppData\Local\Temp\ccr947bU.s 			page 190


 9111 0174 00000000 		.4byte	.LVL27
 9112 0178 28000000 		.4byte	.LVL33
 9113 017c 0100     		.2byte	0x1
 9114 017e 50       		.byte	0x50
 9115 017f 28000000 		.4byte	.LVL33
 9116 0183 32000000 		.4byte	.LVL35
 9117 0187 0200     		.2byte	0x2
 9118 0189 91       		.byte	0x91
 9119 018a 64       		.sleb128 -28
 9120 018b 32000000 		.4byte	.LVL35
 9121 018f 3C000000 		.4byte	.LVL37
 9122 0193 0100     		.2byte	0x1
 9123 0195 50       		.byte	0x50
 9124 0196 3C000000 		.4byte	.LVL37
 9125 019a 76000000 		.4byte	.LVL44
 9126 019e 0200     		.2byte	0x2
 9127 01a0 91       		.byte	0x91
 9128 01a1 64       		.sleb128 -28
 9129 01a2 76000000 		.4byte	.LVL44
 9130 01a6 78000000 		.4byte	.LVL45
 9131 01aa 0100     		.2byte	0x1
 9132 01ac 50       		.byte	0x50
 9133 01ad 78000000 		.4byte	.LVL45
 9134 01b1 80000000 		.4byte	.LFE17
 9135 01b5 0400     		.2byte	0x4
 9136 01b7 F3       		.byte	0xf3
 9137 01b8 01       		.uleb128 0x1
 9138 01b9 50       		.byte	0x50
 9139 01ba 9F       		.byte	0x9f
 9140 01bb 00000000 		.4byte	0
 9141 01bf 00000000 		.4byte	0
 9142              	.LLST8:
 9143 01c3 00000000 		.4byte	.LVL27
 9144 01c7 16000000 		.4byte	.LVL30
 9145 01cb 0100     		.2byte	0x1
 9146 01cd 51       		.byte	0x51
 9147 01ce 16000000 		.4byte	.LVL30
 9148 01d2 76000000 		.4byte	.LVL44
 9149 01d6 0100     		.2byte	0x1
 9150 01d8 58       		.byte	0x58
 9151 01d9 76000000 		.4byte	.LVL44
 9152 01dd 78000000 		.4byte	.LVL45
 9153 01e1 0100     		.2byte	0x1
 9154 01e3 51       		.byte	0x51
 9155 01e4 78000000 		.4byte	.LVL45
 9156 01e8 80000000 		.4byte	.LFE17
 9157 01ec 0400     		.2byte	0x4
 9158 01ee F3       		.byte	0xf3
 9159 01ef 01       		.uleb128 0x1
 9160 01f0 51       		.byte	0x51
 9161 01f1 9F       		.byte	0x9f
 9162 01f2 00000000 		.4byte	0
 9163 01f6 00000000 		.4byte	0
 9164              	.LLST9:
 9165 01fa 00000000 		.4byte	.LVL27
 9166 01fe 1A000000 		.4byte	.LVL31
 9167 0202 0100     		.2byte	0x1
ARM GAS  C:\Users\ddemidov\AppData\Local\Temp\ccr947bU.s 			page 191


 9168 0204 52       		.byte	0x52
 9169 0205 1A000000 		.4byte	.LVL31
 9170 0209 76000000 		.4byte	.LVL44
 9171 020d 0100     		.2byte	0x1
 9172 020f 56       		.byte	0x56
 9173 0210 76000000 		.4byte	.LVL44
 9174 0214 78000000 		.4byte	.LVL45
 9175 0218 0100     		.2byte	0x1
 9176 021a 52       		.byte	0x52
 9177 021b 00000000 		.4byte	0
 9178 021f 00000000 		.4byte	0
 9179              	.LLST10:
 9180 0223 00000000 		.4byte	.LVL27
 9181 0227 1C000000 		.4byte	.LVL32
 9182 022b 0100     		.2byte	0x1
 9183 022d 53       		.byte	0x53
 9184 022e 1C000000 		.4byte	.LVL32
 9185 0232 60000000 		.4byte	.LVL42
 9186 0236 0100     		.2byte	0x1
 9187 0238 55       		.byte	0x55
 9188 0239 60000000 		.4byte	.LVL42
 9189 023d 76000000 		.4byte	.LVL44
 9190 0241 0600     		.2byte	0x6
 9191 0243 F3       		.byte	0xf3
 9192 0244 01       		.uleb128 0x1
 9193 0245 53       		.byte	0x53
 9194 0246 31       		.byte	0x31
 9195 0247 1C       		.byte	0x1c
 9196 0248 9F       		.byte	0x9f
 9197 0249 76000000 		.4byte	.LVL44
 9198 024d 78000000 		.4byte	.LVL45
 9199 0251 0100     		.2byte	0x1
 9200 0253 53       		.byte	0x53
 9201 0254 00000000 		.4byte	0
 9202 0258 00000000 		.4byte	0
 9203              	.LLST11:
 9204 025c 00000000 		.4byte	.LVL27
 9205 0260 0A000000 		.4byte	.LVL28
 9206 0264 0200     		.2byte	0x2
 9207 0266 91       		.byte	0x91
 9208 0267 00       		.sleb128 0
 9209 0268 0A000000 		.4byte	.LVL28
 9210 026c 0C000000 		.4byte	.LVL29
 9211 0270 0200     		.2byte	0x2
 9212 0272 74       		.byte	0x74
 9213 0273 00       		.sleb128 0
 9214 0274 0C000000 		.4byte	.LVL29
 9215 0278 80000000 		.4byte	.LFE17
 9216 027c 0200     		.2byte	0x2
 9217 027e 91       		.byte	0x91
 9218 027f 00       		.sleb128 0
 9219 0280 00000000 		.4byte	0
 9220 0284 00000000 		.4byte	0
 9221              	.LLST12:
 9222 0288 00000000 		.4byte	.LVL27
 9223 028c 0A000000 		.4byte	.LVL28
 9224 0290 0200     		.2byte	0x2
ARM GAS  C:\Users\ddemidov\AppData\Local\Temp\ccr947bU.s 			page 192


 9225 0292 91       		.byte	0x91
 9226 0293 04       		.sleb128 4
 9227 0294 0A000000 		.4byte	.LVL28
 9228 0298 0C000000 		.4byte	.LVL29
 9229 029c 0200     		.2byte	0x2
 9230 029e 74       		.byte	0x74
 9231 029f 04       		.sleb128 4
 9232 02a0 0C000000 		.4byte	.LVL29
 9233 02a4 80000000 		.4byte	.LFE17
 9234 02a8 0200     		.2byte	0x2
 9235 02aa 91       		.byte	0x91
 9236 02ab 04       		.sleb128 4
 9237 02ac 00000000 		.4byte	0
 9238 02b0 00000000 		.4byte	0
 9239              	.LLST13:
 9240 02b4 38000000 		.4byte	.LVL36
 9241 02b8 5C000000 		.4byte	.LVL41
 9242 02bc 0100     		.2byte	0x1
 9243 02be 57       		.byte	0x57
 9244 02bf 00000000 		.4byte	0
 9245 02c3 00000000 		.4byte	0
 9246              	.LLST14:
 9247 02c7 4A000000 		.4byte	.LVL39
 9248 02cb 5C000000 		.4byte	.LVL41
 9249 02cf 0100     		.2byte	0x1
 9250 02d1 52       		.byte	0x52
 9251 02d2 00000000 		.4byte	0
 9252 02d6 00000000 		.4byte	0
 9253              	.LLST15:
 9254 02da 42000000 		.4byte	.LVL38
 9255 02de 5C000000 		.4byte	.LVL41
 9256 02e2 0100     		.2byte	0x1
 9257 02e4 50       		.byte	0x50
 9258 02e5 00000000 		.4byte	0
 9259 02e9 00000000 		.4byte	0
 9260              	.LLST16:
 9261 02ed 00000000 		.4byte	.LVL46
 9262 02f1 0E000000 		.4byte	.LVL48
 9263 02f5 0100     		.2byte	0x1
 9264 02f7 50       		.byte	0x50
 9265 02f8 0E000000 		.4byte	.LVL48
 9266 02fc 66000000 		.4byte	.LVL57
 9267 0300 0100     		.2byte	0x1
 9268 0302 57       		.byte	0x57
 9269 0303 66000000 		.4byte	.LVL57
 9270 0307 BA000000 		.4byte	.LVL63
 9271 030b 0400     		.2byte	0x4
 9272 030d F3       		.byte	0xf3
 9273 030e 01       		.uleb128 0x1
 9274 030f 50       		.byte	0x50
 9275 0310 9F       		.byte	0x9f
 9276 0311 BA000000 		.4byte	.LVL63
 9277 0315 C0000000 		.4byte	.LVL64
 9278 0319 0100     		.2byte	0x1
 9279 031b 57       		.byte	0x57
 9280 031c C0000000 		.4byte	.LVL64
 9281 0320 F0000000 		.4byte	.LVL68
ARM GAS  C:\Users\ddemidov\AppData\Local\Temp\ccr947bU.s 			page 193


 9282 0324 0400     		.2byte	0x4
 9283 0326 F3       		.byte	0xf3
 9284 0327 01       		.uleb128 0x1
 9285 0328 50       		.byte	0x50
 9286 0329 9F       		.byte	0x9f
 9287 032a F0000000 		.4byte	.LVL68
 9288 032e 0E010000 		.4byte	.LVL72
 9289 0332 0100     		.2byte	0x1
 9290 0334 57       		.byte	0x57
 9291 0335 0E010000 		.4byte	.LVL72
 9292 0339 40010000 		.4byte	.LVL82
 9293 033d 0400     		.2byte	0x4
 9294 033f F3       		.byte	0xf3
 9295 0340 01       		.uleb128 0x1
 9296 0341 50       		.byte	0x50
 9297 0342 9F       		.byte	0x9f
 9298 0343 40010000 		.4byte	.LVL82
 9299 0347 52010000 		.4byte	.LVL88
 9300 034b 0100     		.2byte	0x1
 9301 034d 57       		.byte	0x57
 9302 034e 52010000 		.4byte	.LVL88
 9303 0352 66010000 		.4byte	.LVL94
 9304 0356 0400     		.2byte	0x4
 9305 0358 F3       		.byte	0xf3
 9306 0359 01       		.uleb128 0x1
 9307 035a 50       		.byte	0x50
 9308 035b 9F       		.byte	0x9f
 9309 035c 66010000 		.4byte	.LVL94
 9310 0360 6A010000 		.4byte	.LVL95
 9311 0364 0100     		.2byte	0x1
 9312 0366 57       		.byte	0x57
 9313 0367 6A010000 		.4byte	.LVL95
 9314 036b 6E010000 		.4byte	.LFE22
 9315 036f 0400     		.2byte	0x4
 9316 0371 F3       		.byte	0xf3
 9317 0372 01       		.uleb128 0x1
 9318 0373 50       		.byte	0x50
 9319 0374 9F       		.byte	0x9f
 9320 0375 00000000 		.4byte	0
 9321 0379 00000000 		.4byte	0
 9322              	.LLST17:
 9323 037d 00000000 		.4byte	.LVL46
 9324 0381 11000000 		.4byte	.LVL49-1
 9325 0385 0100     		.2byte	0x1
 9326 0387 51       		.byte	0x51
 9327 0388 11000000 		.4byte	.LVL49-1
 9328 038c 50000000 		.4byte	.LVL55
 9329 0390 0100     		.2byte	0x1
 9330 0392 54       		.byte	0x54
 9331 0393 50000000 		.4byte	.LVL55
 9332 0397 F0000000 		.4byte	.LVL68
 9333 039b 0400     		.2byte	0x4
 9334 039d F3       		.byte	0xf3
 9335 039e 01       		.uleb128 0x1
 9336 039f 51       		.byte	0x51
 9337 03a0 9F       		.byte	0x9f
 9338 03a1 F0000000 		.4byte	.LVL68
ARM GAS  C:\Users\ddemidov\AppData\Local\Temp\ccr947bU.s 			page 194


 9339 03a5 F2000000 		.4byte	.LVL69
 9340 03a9 0100     		.2byte	0x1
 9341 03ab 54       		.byte	0x54
 9342 03ac F2000000 		.4byte	.LVL69
 9343 03b0 F6000000 		.4byte	.LVL70
 9344 03b4 0400     		.2byte	0x4
 9345 03b6 F3       		.byte	0xf3
 9346 03b7 01       		.uleb128 0x1
 9347 03b8 51       		.byte	0x51
 9348 03b9 9F       		.byte	0x9f
 9349 03ba F6000000 		.4byte	.LVL70
 9350 03be 0E010000 		.4byte	.LVL72
 9351 03c2 0100     		.2byte	0x1
 9352 03c4 54       		.byte	0x54
 9353 03c5 0E010000 		.4byte	.LVL72
 9354 03c9 40010000 		.4byte	.LVL82
 9355 03cd 0400     		.2byte	0x4
 9356 03cf F3       		.byte	0xf3
 9357 03d0 01       		.uleb128 0x1
 9358 03d1 51       		.byte	0x51
 9359 03d2 9F       		.byte	0x9f
 9360 03d3 40010000 		.4byte	.LVL82
 9361 03d7 42010000 		.4byte	.LVL83
 9362 03db 0100     		.2byte	0x1
 9363 03dd 54       		.byte	0x54
 9364 03de 42010000 		.4byte	.LVL83
 9365 03e2 46010000 		.4byte	.LVL84
 9366 03e6 0400     		.2byte	0x4
 9367 03e8 F3       		.byte	0xf3
 9368 03e9 01       		.uleb128 0x1
 9369 03ea 51       		.byte	0x51
 9370 03eb 9F       		.byte	0x9f
 9371 03ec 46010000 		.4byte	.LVL84
 9372 03f0 48010000 		.4byte	.LVL85
 9373 03f4 0100     		.2byte	0x1
 9374 03f6 54       		.byte	0x54
 9375 03f7 48010000 		.4byte	.LVL85
 9376 03fb 4C010000 		.4byte	.LVL86
 9377 03ff 0400     		.2byte	0x4
 9378 0401 F3       		.byte	0xf3
 9379 0402 01       		.uleb128 0x1
 9380 0403 51       		.byte	0x51
 9381 0404 9F       		.byte	0x9f
 9382 0405 4C010000 		.4byte	.LVL86
 9383 0409 4E010000 		.4byte	.LVL87
 9384 040d 0100     		.2byte	0x1
 9385 040f 54       		.byte	0x54
 9386 0410 4E010000 		.4byte	.LVL87
 9387 0414 66010000 		.4byte	.LVL94
 9388 0418 0400     		.2byte	0x4
 9389 041a F3       		.byte	0xf3
 9390 041b 01       		.uleb128 0x1
 9391 041c 51       		.byte	0x51
 9392 041d 9F       		.byte	0x9f
 9393 041e 66010000 		.4byte	.LVL94
 9394 0422 6A010000 		.4byte	.LVL95
 9395 0426 0100     		.2byte	0x1
ARM GAS  C:\Users\ddemidov\AppData\Local\Temp\ccr947bU.s 			page 195


 9396 0428 54       		.byte	0x54
 9397 0429 6A010000 		.4byte	.LVL95
 9398 042d 6E010000 		.4byte	.LFE22
 9399 0431 0400     		.2byte	0x4
 9400 0433 F3       		.byte	0xf3
 9401 0434 01       		.uleb128 0x1
 9402 0435 51       		.byte	0x51
 9403 0436 9F       		.byte	0x9f
 9404 0437 00000000 		.4byte	0
 9405 043b 00000000 		.4byte	0
 9406              	.LLST18:
 9407 043f 00000000 		.4byte	.LVL46
 9408 0443 11000000 		.4byte	.LVL49-1
 9409 0447 0100     		.2byte	0x1
 9410 0449 52       		.byte	0x52
 9411 044a 11000000 		.4byte	.LVL49-1
 9412 044e 24010000 		.4byte	.LVL77
 9413 0452 0100     		.2byte	0x1
 9414 0454 55       		.byte	0x55
 9415 0455 24010000 		.4byte	.LVL77
 9416 0459 2C010000 		.4byte	.LVL79
 9417 045d 0300     		.2byte	0x3
 9418 045f 75       		.byte	0x75
 9419 0460 01       		.sleb128 1
 9420 0461 9F       		.byte	0x9f
 9421 0462 2C010000 		.4byte	.LVL79
 9422 0466 6C010000 		.4byte	.LVL96
 9423 046a 0100     		.2byte	0x1
 9424 046c 55       		.byte	0x55
 9425 046d 00000000 		.4byte	0
 9426 0471 00000000 		.4byte	0
 9427              	.LLST19:
 9428 0475 00000000 		.4byte	.LVL46
 9429 0479 11000000 		.4byte	.LVL49-1
 9430 047d 0100     		.2byte	0x1
 9431 047f 53       		.byte	0x53
 9432 0480 11000000 		.4byte	.LVL49-1
 9433 0484 6C010000 		.4byte	.LVL97
 9434 0488 0100     		.2byte	0x1
 9435 048a 56       		.byte	0x56
 9436 048b 6C010000 		.4byte	.LVL97
 9437 048f 6E010000 		.4byte	.LFE22
 9438 0493 0400     		.2byte	0x4
 9439 0495 F3       		.byte	0xf3
 9440 0496 01       		.uleb128 0x1
 9441 0497 53       		.byte	0x53
 9442 0498 9F       		.byte	0x9f
 9443 0499 00000000 		.4byte	0
 9444 049d 00000000 		.4byte	0
 9445              	.LLST20:
 9446 04a1 0C000000 		.4byte	.LVL47
 9447 04a5 4C000000 		.4byte	.LVL53
 9448 04a9 0200     		.2byte	0x2
 9449 04ab 30       		.byte	0x30
 9450 04ac 9F       		.byte	0x9f
 9451 04ad 4C000000 		.4byte	.LVL53
 9452 04b1 4E000000 		.4byte	.LVL54
ARM GAS  C:\Users\ddemidov\AppData\Local\Temp\ccr947bU.s 			page 196


 9453 04b5 0300     		.2byte	0x3
 9454 04b7 09       		.byte	0x9
 9455 04b8 92       		.byte	0x92
 9456 04b9 9F       		.byte	0x9f
 9457 04ba 4E000000 		.4byte	.LVL54
 9458 04be DC000000 		.4byte	.LVL65
 9459 04c2 0200     		.2byte	0x2
 9460 04c4 30       		.byte	0x30
 9461 04c5 9F       		.byte	0x9f
 9462 04c6 DC000000 		.4byte	.LVL65
 9463 04ca F0000000 		.4byte	.LVL68
 9464 04ce 0100     		.2byte	0x1
 9465 04d0 54       		.byte	0x54
 9466 04d1 F0000000 		.4byte	.LVL68
 9467 04d5 F6000000 		.4byte	.LVL70
 9468 04d9 0300     		.2byte	0x3
 9469 04db 09       		.byte	0x9
 9470 04dc 92       		.byte	0x92
 9471 04dd 9F       		.byte	0x9f
 9472 04de F6000000 		.4byte	.LVL70
 9473 04e2 0E010000 		.4byte	.LVL72
 9474 04e6 0200     		.2byte	0x2
 9475 04e8 30       		.byte	0x30
 9476 04e9 9F       		.byte	0x9f
 9477 04ea 0E010000 		.4byte	.LVL72
 9478 04ee 40010000 		.4byte	.LVL82
 9479 04f2 0100     		.2byte	0x1
 9480 04f4 54       		.byte	0x54
 9481 04f5 40010000 		.4byte	.LVL82
 9482 04f9 52010000 		.4byte	.LVL88
 9483 04fd 0200     		.2byte	0x2
 9484 04ff 30       		.byte	0x30
 9485 0500 9F       		.byte	0x9f
 9486 0501 52010000 		.4byte	.LVL88
 9487 0505 54010000 		.4byte	.LVL89
 9488 0509 0100     		.2byte	0x1
 9489 050b 54       		.byte	0x54
 9490 050c 58010000 		.4byte	.LVL90
 9491 0510 5A010000 		.4byte	.LVL91
 9492 0514 0100     		.2byte	0x1
 9493 0516 54       		.byte	0x54
 9494 0517 5C010000 		.4byte	.LVL92
 9495 051b 66010000 		.4byte	.LVL94
 9496 051f 0100     		.2byte	0x1
 9497 0521 54       		.byte	0x54
 9498 0522 66010000 		.4byte	.LVL94
 9499 0526 6A010000 		.4byte	.LVL95
 9500 052a 0200     		.2byte	0x2
 9501 052c 30       		.byte	0x30
 9502 052d 9F       		.byte	0x9f
 9503 052e 00000000 		.4byte	0
 9504 0532 00000000 		.4byte	0
 9505              	.LLST21:
 9506 0536 16010000 		.4byte	.LVL74
 9507 053a 1E010000 		.4byte	.LVL75
 9508 053e 0100     		.2byte	0x1
 9509 0540 50       		.byte	0x50
ARM GAS  C:\Users\ddemidov\AppData\Local\Temp\ccr947bU.s 			page 197


 9510 0541 1E010000 		.4byte	.LVL75
 9511 0545 40010000 		.4byte	.LVL82
 9512 0549 0100     		.2byte	0x1
 9513 054b 57       		.byte	0x57
 9514 054c 52010000 		.4byte	.LVL88
 9515 0550 58010000 		.4byte	.LVL90
 9516 0554 0100     		.2byte	0x1
 9517 0556 50       		.byte	0x50
 9518 0557 58010000 		.4byte	.LVL90
 9519 055b 5C010000 		.4byte	.LVL92
 9520 055f 0100     		.2byte	0x1
 9521 0561 57       		.byte	0x57
 9522 0562 00000000 		.4byte	0
 9523 0566 00000000 		.4byte	0
 9524              	.LLST22:
 9525 056a 22010000 		.4byte	.LVL76
 9526 056e 34010000 		.4byte	.LVL80
 9527 0572 0100     		.2byte	0x1
 9528 0574 50       		.byte	0x50
 9529 0575 00000000 		.4byte	0
 9530 0579 00000000 		.4byte	0
 9531              	.LLST23:
 9532 057d 00000000 		.4byte	.LVL98
 9533 0581 1D000000 		.4byte	.LVL100-1
 9534 0585 0100     		.2byte	0x1
 9535 0587 50       		.byte	0x50
 9536 0588 1D000000 		.4byte	.LVL100-1
 9537 058c 0C010000 		.4byte	.LFE14
 9538 0590 0400     		.2byte	0x4
 9539 0592 F3       		.byte	0xf3
 9540 0593 01       		.uleb128 0x1
 9541 0594 50       		.byte	0x50
 9542 0595 9F       		.byte	0x9f
 9543 0596 00000000 		.4byte	0
 9544 059a 00000000 		.4byte	0
 9545              	.LLST24:
 9546 059e 00000000 		.4byte	.LVL98
 9547 05a2 1D000000 		.4byte	.LVL100-1
 9548 05a6 0100     		.2byte	0x1
 9549 05a8 51       		.byte	0x51
 9550 05a9 1D000000 		.4byte	.LVL100-1
 9551 05ad 0C010000 		.4byte	.LFE14
 9552 05b1 0300     		.2byte	0x3
 9553 05b3 91       		.byte	0x91
 9554 05b4 A87F     		.sleb128 -88
 9555 05b6 00000000 		.4byte	0
 9556 05ba 00000000 		.4byte	0
 9557              	.LLST25:
 9558 05be 00000000 		.4byte	.LVL98
 9559 05c2 1D000000 		.4byte	.LVL100-1
 9560 05c6 0100     		.2byte	0x1
 9561 05c8 52       		.byte	0x52
 9562 05c9 1D000000 		.4byte	.LVL100-1
 9563 05cd 00010000 		.4byte	.LVL133
 9564 05d1 0100     		.2byte	0x1
 9565 05d3 5B       		.byte	0x5b
 9566 05d4 00010000 		.4byte	.LVL133
ARM GAS  C:\Users\ddemidov\AppData\Local\Temp\ccr947bU.s 			page 198


 9567 05d8 0C010000 		.4byte	.LFE14
 9568 05dc 0400     		.2byte	0x4
 9569 05de F3       		.byte	0xf3
 9570 05df 01       		.uleb128 0x1
 9571 05e0 52       		.byte	0x52
 9572 05e1 9F       		.byte	0x9f
 9573 05e2 00000000 		.4byte	0
 9574 05e6 00000000 		.4byte	0
 9575              	.LLST26:
 9576 05ea 00000000 		.4byte	.LVL98
 9577 05ee 18000000 		.4byte	.LVL99
 9578 05f2 0100     		.2byte	0x1
 9579 05f4 53       		.byte	0x53
 9580 05f5 18000000 		.4byte	.LVL99
 9581 05f9 BA000000 		.4byte	.LVL115
 9582 05fd 0100     		.2byte	0x1
 9583 05ff 59       		.byte	0x59
 9584 0600 BA000000 		.4byte	.LVL115
 9585 0604 C4000000 		.4byte	.LVL118
 9586 0608 0100     		.2byte	0x1
 9587 060a 51       		.byte	0x51
 9588 060b C4000000 		.4byte	.LVL118
 9589 060f C8000000 		.4byte	.LVL119
 9590 0613 0100     		.2byte	0x1
 9591 0615 59       		.byte	0x59
 9592 0616 C8000000 		.4byte	.LVL119
 9593 061a EB000000 		.4byte	.LVL124-1
 9594 061e 0100     		.2byte	0x1
 9595 0620 51       		.byte	0x51
 9596 0621 EB000000 		.4byte	.LVL124-1
 9597 0625 F8000000 		.4byte	.LVL128
 9598 0629 0100     		.2byte	0x1
 9599 062b 59       		.byte	0x59
 9600 062c F8000000 		.4byte	.LVL128
 9601 0630 FE000000 		.4byte	.LVL131
 9602 0634 0100     		.2byte	0x1
 9603 0636 51       		.byte	0x51
 9604 0637 FE000000 		.4byte	.LVL131
 9605 063b 00010000 		.4byte	.LVL132
 9606 063f 0100     		.2byte	0x1
 9607 0641 59       		.byte	0x59
 9608 0642 00010000 		.4byte	.LVL132
 9609 0646 0C010000 		.4byte	.LFE14
 9610 064a 0400     		.2byte	0x4
 9611 064c F3       		.byte	0xf3
 9612 064d 01       		.uleb128 0x1
 9613 064e 53       		.byte	0x53
 9614 064f 9F       		.byte	0x9f
 9615 0650 00000000 		.4byte	0
 9616 0654 00000000 		.4byte	0
 9617              	.LLST27:
 9618 0658 42000000 		.4byte	.LVL105
 9619 065c 4A000000 		.4byte	.LVL106
 9620 0660 0100     		.2byte	0x1
 9621 0662 50       		.byte	0x50
 9622 0663 62000000 		.4byte	.LVL108
 9623 0667 F0000000 		.4byte	.LVL125
ARM GAS  C:\Users\ddemidov\AppData\Local\Temp\ccr947bU.s 			page 199


 9624 066b 0100     		.2byte	0x1
 9625 066d 55       		.byte	0x55
 9626 066e F2000000 		.4byte	.LVL126
 9627 0672 F4000000 		.4byte	.LVL127
 9628 0676 0100     		.2byte	0x1
 9629 0678 50       		.byte	0x50
 9630 0679 F4000000 		.4byte	.LVL127
 9631 067d FE000000 		.4byte	.LVL131
 9632 0681 0100     		.2byte	0x1
 9633 0683 55       		.byte	0x55
 9634 0684 00000000 		.4byte	0
 9635 0688 00000000 		.4byte	0
 9636              	.LLST28:
 9637 068c 62000000 		.4byte	.LVL108
 9638 0690 F0000000 		.4byte	.LVL125
 9639 0694 0300     		.2byte	0x3
 9640 0696 91       		.byte	0x91
 9641 0697 AC7F     		.sleb128 -84
 9642 0699 F8000000 		.4byte	.LVL128
 9643 069d FE000000 		.4byte	.LVL131
 9644 06a1 0300     		.2byte	0x3
 9645 06a3 91       		.byte	0x91
 9646 06a4 AC7F     		.sleb128 -84
 9647 06a6 00000000 		.4byte	0
 9648 06aa 00000000 		.4byte	0
 9649              	.LLST29:
 9650 06ae 3A000000 		.4byte	.LVL102
 9651 06b2 4A000000 		.4byte	.LVL106
 9652 06b6 0100     		.2byte	0x1
 9653 06b8 5A       		.byte	0x5a
 9654 06b9 62000000 		.4byte	.LVL108
 9655 06bd F0000000 		.4byte	.LVL125
 9656 06c1 0100     		.2byte	0x1
 9657 06c3 5A       		.byte	0x5a
 9658 06c4 F2000000 		.4byte	.LVL126
 9659 06c8 FE000000 		.4byte	.LVL131
 9660 06cc 0100     		.2byte	0x1
 9661 06ce 5A       		.byte	0x5a
 9662 06cf 00000000 		.4byte	0
 9663 06d3 00000000 		.4byte	0
 9664              	.LLST30:
 9665 06d7 20000000 		.4byte	.LVL101
 9666 06db 3C000000 		.4byte	.LVL103
 9667 06df 0100     		.2byte	0x1
 9668 06e1 50       		.byte	0x50
 9669 06e2 3C000000 		.4byte	.LVL103
 9670 06e6 4A000000 		.4byte	.LVL106
 9671 06ea 0100     		.2byte	0x1
 9672 06ec 56       		.byte	0x56
 9673 06ed 4A000000 		.4byte	.LVL106
 9674 06f1 54000000 		.4byte	.LVL107
 9675 06f5 0100     		.2byte	0x1
 9676 06f7 50       		.byte	0x50
 9677 06f8 54000000 		.4byte	.LVL107
 9678 06fc 62000000 		.4byte	.LVL108
 9679 0700 0100     		.2byte	0x1
 9680 0702 56       		.byte	0x56
ARM GAS  C:\Users\ddemidov\AppData\Local\Temp\ccr947bU.s 			page 200


 9681 0703 62000000 		.4byte	.LVL108
 9682 0707 F0000000 		.4byte	.LVL125
 9683 070b 0100     		.2byte	0x1
 9684 070d 57       		.byte	0x57
 9685 070e F0000000 		.4byte	.LVL125
 9686 0712 F2000000 		.4byte	.LVL126
 9687 0716 0100     		.2byte	0x1
 9688 0718 50       		.byte	0x50
 9689 0719 F2000000 		.4byte	.LVL126
 9690 071d F8000000 		.4byte	.LVL128
 9691 0721 0100     		.2byte	0x1
 9692 0723 56       		.byte	0x56
 9693 0724 F8000000 		.4byte	.LVL128
 9694 0728 FE000000 		.4byte	.LVL131
 9695 072c 0100     		.2byte	0x1
 9696 072e 57       		.byte	0x57
 9697 072f 00000000 		.4byte	0
 9698 0733 00000000 		.4byte	0
 9699              	.LLST31:
 9700 0737 A0000000 		.4byte	.LVL110
 9701 073b B2000000 		.4byte	.LVL113
 9702 073f 0100     		.2byte	0x1
 9703 0741 50       		.byte	0x50
 9704 0742 B2000000 		.4byte	.LVL113
 9705 0746 BA000000 		.4byte	.LVL115
 9706 074a 0100     		.2byte	0x1
 9707 074c 54       		.byte	0x54
 9708 074d BA000000 		.4byte	.LVL115
 9709 0751 E8000000 		.4byte	.LVL123
 9710 0755 0100     		.2byte	0x1
 9711 0757 50       		.byte	0x50
 9712 0758 F8000000 		.4byte	.LVL128
 9713 075c FA000000 		.4byte	.LVL129
 9714 0760 0100     		.2byte	0x1
 9715 0762 50       		.byte	0x50
 9716 0763 FC000000 		.4byte	.LVL130
 9717 0767 FE000000 		.4byte	.LVL131
 9718 076b 0100     		.2byte	0x1
 9719 076d 50       		.byte	0x50
 9720 076e 00000000 		.4byte	0
 9721 0772 00000000 		.4byte	0
 9722              	.LLST32:
 9723 0776 20000000 		.4byte	.LVL101
 9724 077a 62000000 		.4byte	.LVL108
 9725 077e 0200     		.2byte	0x2
 9726 0780 30       		.byte	0x30
 9727 0781 9F       		.byte	0x9f
 9728 0782 62000000 		.4byte	.LVL108
 9729 0786 F0000000 		.4byte	.LVL125
 9730 078a 0100     		.2byte	0x1
 9731 078c 58       		.byte	0x58
 9732 078d F0000000 		.4byte	.LVL125
 9733 0791 F8000000 		.4byte	.LVL128
 9734 0795 0200     		.2byte	0x2
 9735 0797 30       		.byte	0x30
 9736 0798 9F       		.byte	0x9f
 9737 0799 F8000000 		.4byte	.LVL128
ARM GAS  C:\Users\ddemidov\AppData\Local\Temp\ccr947bU.s 			page 201


 9738 079d FE000000 		.4byte	.LVL131
 9739 07a1 0100     		.2byte	0x1
 9740 07a3 58       		.byte	0x58
 9741 07a4 00000000 		.4byte	0
 9742 07a8 00000000 		.4byte	0
 9743              	.LLST33:
 9744 07ac 20000000 		.4byte	.LVL101
 9745 07b0 62000000 		.4byte	.LVL108
 9746 07b4 0200     		.2byte	0x2
 9747 07b6 30       		.byte	0x30
 9748 07b7 9F       		.byte	0x9f
 9749 07b8 62000000 		.4byte	.LVL108
 9750 07bc A6000000 		.4byte	.LVL111
 9751 07c0 0100     		.2byte	0x1
 9752 07c2 54       		.byte	0x54
 9753 07c3 BA000000 		.4byte	.LVL115
 9754 07c7 C2000000 		.4byte	.LVL117
 9755 07cb 0300     		.2byte	0x3
 9756 07cd 74       		.byte	0x74
 9757 07ce 01       		.sleb128 1
 9758 07cf 9F       		.byte	0x9f
 9759 07d0 C2000000 		.4byte	.LVL117
 9760 07d4 F0000000 		.4byte	.LVL125
 9761 07d8 0100     		.2byte	0x1
 9762 07da 54       		.byte	0x54
 9763 07db F0000000 		.4byte	.LVL125
 9764 07df F8000000 		.4byte	.LVL128
 9765 07e3 0200     		.2byte	0x2
 9766 07e5 30       		.byte	0x30
 9767 07e6 9F       		.byte	0x9f
 9768 07e7 F8000000 		.4byte	.LVL128
 9769 07eb FE000000 		.4byte	.LVL131
 9770 07ef 0100     		.2byte	0x1
 9771 07f1 54       		.byte	0x54
 9772 07f2 00000000 		.4byte	0
 9773 07f6 00000000 		.4byte	0
 9774              	.LLST34:
 9775 07fa 62000000 		.4byte	.LVL108
 9776 07fe BA000000 		.4byte	.LVL115
 9777 0802 0200     		.2byte	0x2
 9778 0804 30       		.byte	0x30
 9779 0805 9F       		.byte	0x9f
 9780 0806 BA000000 		.4byte	.LVL115
 9781 080a C4000000 		.4byte	.LVL118
 9782 080e 0100     		.2byte	0x1
 9783 0810 53       		.byte	0x53
 9784 0811 C4000000 		.4byte	.LVL118
 9785 0815 C8000000 		.4byte	.LVL119
 9786 0819 0200     		.2byte	0x2
 9787 081b 30       		.byte	0x30
 9788 081c 9F       		.byte	0x9f
 9789 081d C8000000 		.4byte	.LVL119
 9790 0821 D4000000 		.4byte	.LVL120
 9791 0825 0100     		.2byte	0x1
 9792 0827 53       		.byte	0x53
 9793 0828 00000000 		.4byte	0
 9794 082c 00000000 		.4byte	0
ARM GAS  C:\Users\ddemidov\AppData\Local\Temp\ccr947bU.s 			page 202


 9795              	.LLST35:
 9796 0830 AC000000 		.4byte	.LVL112
 9797 0834 B6000000 		.4byte	.LVL114
 9798 0838 0100     		.2byte	0x1
 9799 083a 55       		.byte	0x55
 9800 083b 00000000 		.4byte	0
 9801 083f 00000000 		.4byte	0
 9802              	.LLST36:
 9803 0843 E2000000 		.4byte	.LVL122
 9804 0847 F0000000 		.4byte	.LVL125
 9805 084b 0100     		.2byte	0x1
 9806 084d 55       		.byte	0x55
 9807 084e FC000000 		.4byte	.LVL130
 9808 0852 FE000000 		.4byte	.LVL131
 9809 0856 0100     		.2byte	0x1
 9810 0858 55       		.byte	0x55
 9811 0859 00000000 		.4byte	0
 9812 085d 00000000 		.4byte	0
 9813              	.LLST37:
 9814 0861 00000000 		.4byte	.LVL134
 9815 0865 0E000000 		.4byte	.LVL135
 9816 0869 0100     		.2byte	0x1
 9817 086b 50       		.byte	0x50
 9818 086c 0E000000 		.4byte	.LVL135
 9819 0870 18000000 		.4byte	.LVL137
 9820 0874 0400     		.2byte	0x4
 9821 0876 F3       		.byte	0xf3
 9822 0877 01       		.uleb128 0x1
 9823 0878 50       		.byte	0x50
 9824 0879 9F       		.byte	0x9f
 9825 087a 18000000 		.4byte	.LVL137
 9826 087e 1A000000 		.4byte	.LVL138
 9827 0882 0100     		.2byte	0x1
 9828 0884 50       		.byte	0x50
 9829 0885 1A000000 		.4byte	.LVL138
 9830 0889 24000000 		.4byte	.LVL140
 9831 088d 0400     		.2byte	0x4
 9832 088f F3       		.byte	0xf3
 9833 0890 01       		.uleb128 0x1
 9834 0891 50       		.byte	0x50
 9835 0892 9F       		.byte	0x9f
 9836 0893 24000000 		.4byte	.LVL140
 9837 0897 26000000 		.4byte	.LVL141
 9838 089b 0100     		.2byte	0x1
 9839 089d 50       		.byte	0x50
 9840 089e 26000000 		.4byte	.LVL141
 9841 08a2 2C000000 		.4byte	.LFE15
 9842 08a6 0400     		.2byte	0x4
 9843 08a8 F3       		.byte	0xf3
 9844 08a9 01       		.uleb128 0x1
 9845 08aa 50       		.byte	0x50
 9846 08ab 9F       		.byte	0x9f
 9847 08ac 00000000 		.4byte	0
 9848 08b0 00000000 		.4byte	0
 9849              	.LLST38:
 9850 08b4 00000000 		.4byte	.LVL134
 9851 08b8 15000000 		.4byte	.LVL136-1
ARM GAS  C:\Users\ddemidov\AppData\Local\Temp\ccr947bU.s 			page 203


 9852 08bc 0100     		.2byte	0x1
 9853 08be 51       		.byte	0x51
 9854 08bf 15000000 		.4byte	.LVL136-1
 9855 08c3 18000000 		.4byte	.LVL137
 9856 08c7 0400     		.2byte	0x4
 9857 08c9 F3       		.byte	0xf3
 9858 08ca 01       		.uleb128 0x1
 9859 08cb 51       		.byte	0x51
 9860 08cc 9F       		.byte	0x9f
 9861 08cd 18000000 		.4byte	.LVL137
 9862 08d1 21000000 		.4byte	.LVL139-1
 9863 08d5 0100     		.2byte	0x1
 9864 08d7 51       		.byte	0x51
 9865 08d8 21000000 		.4byte	.LVL139-1
 9866 08dc 24000000 		.4byte	.LVL140
 9867 08e0 0400     		.2byte	0x4
 9868 08e2 F3       		.byte	0xf3
 9869 08e3 01       		.uleb128 0x1
 9870 08e4 51       		.byte	0x51
 9871 08e5 9F       		.byte	0x9f
 9872 08e6 24000000 		.4byte	.LVL140
 9873 08ea 28000000 		.4byte	.LVL142
 9874 08ee 0100     		.2byte	0x1
 9875 08f0 51       		.byte	0x51
 9876 08f1 28000000 		.4byte	.LVL142
 9877 08f5 2C000000 		.4byte	.LFE15
 9878 08f9 0400     		.2byte	0x4
 9879 08fb F3       		.byte	0xf3
 9880 08fc 01       		.uleb128 0x1
 9881 08fd 51       		.byte	0x51
 9882 08fe 9F       		.byte	0x9f
 9883 08ff 00000000 		.4byte	0
 9884 0903 00000000 		.4byte	0
 9885              	.LLST39:
 9886 0907 00000000 		.4byte	.LVL134
 9887 090b 15000000 		.4byte	.LVL136-1
 9888 090f 0100     		.2byte	0x1
 9889 0911 52       		.byte	0x52
 9890 0912 15000000 		.4byte	.LVL136-1
 9891 0916 18000000 		.4byte	.LVL137
 9892 091a 0400     		.2byte	0x4
 9893 091c F3       		.byte	0xf3
 9894 091d 01       		.uleb128 0x1
 9895 091e 52       		.byte	0x52
 9896 091f 9F       		.byte	0x9f
 9897 0920 18000000 		.4byte	.LVL137
 9898 0924 21000000 		.4byte	.LVL139-1
 9899 0928 0100     		.2byte	0x1
 9900 092a 52       		.byte	0x52
 9901 092b 21000000 		.4byte	.LVL139-1
 9902 092f 24000000 		.4byte	.LVL140
 9903 0933 0400     		.2byte	0x4
 9904 0935 F3       		.byte	0xf3
 9905 0936 01       		.uleb128 0x1
 9906 0937 52       		.byte	0x52
 9907 0938 9F       		.byte	0x9f
 9908 0939 24000000 		.4byte	.LVL140
ARM GAS  C:\Users\ddemidov\AppData\Local\Temp\ccr947bU.s 			page 204


 9909 093d 28000000 		.4byte	.LVL142
 9910 0941 0100     		.2byte	0x1
 9911 0943 52       		.byte	0x52
 9912 0944 28000000 		.4byte	.LVL142
 9913 0948 2C000000 		.4byte	.LFE15
 9914 094c 0400     		.2byte	0x4
 9915 094e F3       		.byte	0xf3
 9916 094f 01       		.uleb128 0x1
 9917 0950 52       		.byte	0x52
 9918 0951 9F       		.byte	0x9f
 9919 0952 00000000 		.4byte	0
 9920 0956 00000000 		.4byte	0
 9921              	.LLST40:
 9922 095a 00000000 		.4byte	.LVL134
 9923 095e 15000000 		.4byte	.LVL136-1
 9924 0962 0100     		.2byte	0x1
 9925 0964 53       		.byte	0x53
 9926 0965 15000000 		.4byte	.LVL136-1
 9927 0969 18000000 		.4byte	.LVL137
 9928 096d 0400     		.2byte	0x4
 9929 096f F3       		.byte	0xf3
 9930 0970 01       		.uleb128 0x1
 9931 0971 53       		.byte	0x53
 9932 0972 9F       		.byte	0x9f
 9933 0973 18000000 		.4byte	.LVL137
 9934 0977 21000000 		.4byte	.LVL139-1
 9935 097b 0100     		.2byte	0x1
 9936 097d 53       		.byte	0x53
 9937 097e 21000000 		.4byte	.LVL139-1
 9938 0982 24000000 		.4byte	.LVL140
 9939 0986 0400     		.2byte	0x4
 9940 0988 F3       		.byte	0xf3
 9941 0989 01       		.uleb128 0x1
 9942 098a 53       		.byte	0x53
 9943 098b 9F       		.byte	0x9f
 9944 098c 24000000 		.4byte	.LVL140
 9945 0990 28000000 		.4byte	.LVL142
 9946 0994 0100     		.2byte	0x1
 9947 0996 53       		.byte	0x53
 9948 0997 28000000 		.4byte	.LVL142
 9949 099b 2C000000 		.4byte	.LFE15
 9950 099f 0400     		.2byte	0x4
 9951 09a1 F3       		.byte	0xf3
 9952 09a2 01       		.uleb128 0x1
 9953 09a3 53       		.byte	0x53
 9954 09a4 9F       		.byte	0x9f
 9955 09a5 00000000 		.4byte	0
 9956 09a9 00000000 		.4byte	0
 9957              	.LLST41:
 9958 09ad 16000000 		.4byte	.LVL136
 9959 09b1 18000000 		.4byte	.LVL137
 9960 09b5 0100     		.2byte	0x1
 9961 09b7 50       		.byte	0x50
 9962 09b8 22000000 		.4byte	.LVL139
 9963 09bc 24000000 		.4byte	.LVL140
 9964 09c0 0100     		.2byte	0x1
 9965 09c2 50       		.byte	0x50
ARM GAS  C:\Users\ddemidov\AppData\Local\Temp\ccr947bU.s 			page 205


 9966 09c3 28000000 		.4byte	.LVL142
 9967 09c7 2C000000 		.4byte	.LFE15
 9968 09cb 0100     		.2byte	0x1
 9969 09cd 50       		.byte	0x50
 9970 09ce 00000000 		.4byte	0
 9971 09d2 00000000 		.4byte	0
 9972              	.LLST42:
 9973 09d6 00000000 		.4byte	.LVL143
 9974 09da 2A000000 		.4byte	.LVL146
 9975 09de 0100     		.2byte	0x1
 9976 09e0 50       		.byte	0x50
 9977 09e1 2A000000 		.4byte	.LVL146
 9978 09e5 68010000 		.4byte	.LVL186
 9979 09e9 0300     		.2byte	0x3
 9980 09eb 91       		.byte	0x91
 9981 09ec 947F     		.sleb128 -108
 9982 09ee 68010000 		.4byte	.LVL186
 9983 09f2 6A010000 		.4byte	.LVL187
 9984 09f6 0100     		.2byte	0x1
 9985 09f8 50       		.byte	0x50
 9986 09f9 6A010000 		.4byte	.LVL187
 9987 09fd 6E010000 		.4byte	.LVL188
 9988 0a01 0400     		.2byte	0x4
 9989 0a03 F3       		.byte	0xf3
 9990 0a04 01       		.uleb128 0x1
 9991 0a05 50       		.byte	0x50
 9992 0a06 9F       		.byte	0x9f
 9993 0a07 6E010000 		.4byte	.LVL188
 9994 0a0b 90010000 		.4byte	.LVL198
 9995 0a0f 0300     		.2byte	0x3
 9996 0a11 91       		.byte	0x91
 9997 0a12 947F     		.sleb128 -108
 9998 0a14 90010000 		.4byte	.LVL198
 9999 0a18 9E010000 		.4byte	.LFE16
 10000 0a1c 0400     		.2byte	0x4
 10001 0a1e F3       		.byte	0xf3
 10002 0a1f 01       		.uleb128 0x1
 10003 0a20 50       		.byte	0x50
 10004 0a21 9F       		.byte	0x9f
 10005 0a22 00000000 		.4byte	0
 10006 0a26 00000000 		.4byte	0
 10007              	.LLST43:
 10008 0a2a 00000000 		.4byte	.LVL143
 10009 0a2e 2D000000 		.4byte	.LVL147-1
 10010 0a32 0100     		.2byte	0x1
 10011 0a34 51       		.byte	0x51
 10012 0a35 2D000000 		.4byte	.LVL147-1
 10013 0a39 C4000000 		.4byte	.LVL162
 10014 0a3d 0100     		.2byte	0x1
 10015 0a3f 59       		.byte	0x59
 10016 0a40 C4000000 		.4byte	.LVL162
 10017 0a44 68010000 		.4byte	.LVL186
 10018 0a48 0400     		.2byte	0x4
 10019 0a4a F3       		.byte	0xf3
 10020 0a4b 01       		.uleb128 0x1
 10021 0a4c 51       		.byte	0x51
 10022 0a4d 9F       		.byte	0x9f
ARM GAS  C:\Users\ddemidov\AppData\Local\Temp\ccr947bU.s 			page 206


 10023 0a4e 68010000 		.4byte	.LVL186
 10024 0a52 6E010000 		.4byte	.LVL188
 10025 0a56 0100     		.2byte	0x1
 10026 0a58 51       		.byte	0x51
 10027 0a59 6E010000 		.4byte	.LVL188
 10028 0a5d 88010000 		.4byte	.LVL195
 10029 0a61 0100     		.2byte	0x1
 10030 0a63 59       		.byte	0x59
 10031 0a64 88010000 		.4byte	.LVL195
 10032 0a68 9E010000 		.4byte	.LFE16
 10033 0a6c 0400     		.2byte	0x4
 10034 0a6e F3       		.byte	0xf3
 10035 0a6f 01       		.uleb128 0x1
 10036 0a70 51       		.byte	0x51
 10037 0a71 9F       		.byte	0x9f
 10038 0a72 00000000 		.4byte	0
 10039 0a76 00000000 		.4byte	0
 10040              	.LLST44:
 10041 0a7a 00000000 		.4byte	.LVL143
 10042 0a7e 2D000000 		.4byte	.LVL147-1
 10043 0a82 0100     		.2byte	0x1
 10044 0a84 52       		.byte	0x52
 10045 0a85 2D000000 		.4byte	.LVL147-1
 10046 0a89 68010000 		.4byte	.LVL186
 10047 0a8d 0100     		.2byte	0x1
 10048 0a8f 55       		.byte	0x55
 10049 0a90 68010000 		.4byte	.LVL186
 10050 0a94 6E010000 		.4byte	.LVL188
 10051 0a98 0100     		.2byte	0x1
 10052 0a9a 52       		.byte	0x52
 10053 0a9b 6E010000 		.4byte	.LVL188
 10054 0a9f 90010000 		.4byte	.LVL198
 10055 0aa3 0100     		.2byte	0x1
 10056 0aa5 55       		.byte	0x55
 10057 0aa6 90010000 		.4byte	.LVL198
 10058 0aaa 9E010000 		.4byte	.LFE16
 10059 0aae 0400     		.2byte	0x4
 10060 0ab0 F3       		.byte	0xf3
 10061 0ab1 01       		.uleb128 0x1
 10062 0ab2 52       		.byte	0x52
 10063 0ab3 9F       		.byte	0x9f
 10064 0ab4 00000000 		.4byte	0
 10065 0ab8 00000000 		.4byte	0
 10066              	.LLST45:
 10067 0abc 00000000 		.4byte	.LVL143
 10068 0ac0 2D000000 		.4byte	.LVL147-1
 10069 0ac4 0100     		.2byte	0x1
 10070 0ac6 53       		.byte	0x53
 10071 0ac7 2D000000 		.4byte	.LVL147-1
 10072 0acb 4C010000 		.4byte	.LVL182
 10073 0acf 0100     		.2byte	0x1
 10074 0ad1 57       		.byte	0x57
 10075 0ad2 4C010000 		.4byte	.LVL182
 10076 0ad6 68010000 		.4byte	.LVL186
 10077 0ada 0400     		.2byte	0x4
 10078 0adc F3       		.byte	0xf3
 10079 0add 01       		.uleb128 0x1
ARM GAS  C:\Users\ddemidov\AppData\Local\Temp\ccr947bU.s 			page 207


 10080 0ade 53       		.byte	0x53
 10081 0adf 9F       		.byte	0x9f
 10082 0ae0 68010000 		.4byte	.LVL186
 10083 0ae4 6E010000 		.4byte	.LVL188
 10084 0ae8 0100     		.2byte	0x1
 10085 0aea 53       		.byte	0x53
 10086 0aeb 6E010000 		.4byte	.LVL188
 10087 0aef 8E010000 		.4byte	.LVL197
 10088 0af3 0100     		.2byte	0x1
 10089 0af5 57       		.byte	0x57
 10090 0af6 8E010000 		.4byte	.LVL197
 10091 0afa 9E010000 		.4byte	.LFE16
 10092 0afe 0400     		.2byte	0x4
 10093 0b00 F3       		.byte	0xf3
 10094 0b01 01       		.uleb128 0x1
 10095 0b02 53       		.byte	0x53
 10096 0b03 9F       		.byte	0x9f
 10097 0b04 00000000 		.4byte	0
 10098 0b08 00000000 		.4byte	0
 10099              	.LLST46:
 10100 0b0c 00000000 		.4byte	.LVL143
 10101 0b10 10000000 		.4byte	.LVL144
 10102 0b14 0200     		.2byte	0x2
 10103 0b16 91       		.byte	0x91
 10104 0b17 08       		.sleb128 8
 10105 0b18 10000000 		.4byte	.LVL144
 10106 0b1c 12000000 		.4byte	.LVL145
 10107 0b20 0200     		.2byte	0x2
 10108 0b22 74       		.byte	0x74
 10109 0b23 00       		.sleb128 0
 10110 0b24 12000000 		.4byte	.LVL145
 10111 0b28 9E010000 		.4byte	.LFE16
 10112 0b2c 0200     		.2byte	0x2
 10113 0b2e 91       		.byte	0x91
 10114 0b2f 08       		.sleb128 8
 10115 0b30 00000000 		.4byte	0
 10116 0b34 00000000 		.4byte	0
 10117              	.LLST47:
 10118 0b38 48000000 		.4byte	.LVL150
 10119 0b3c 6C000000 		.4byte	.LVL151
 10120 0b40 0100     		.2byte	0x1
 10121 0b42 50       		.byte	0x50
 10122 0b43 BA000000 		.4byte	.LVL161
 10123 0b47 C6000000 		.4byte	.LVL163
 10124 0b4b 0100     		.2byte	0x1
 10125 0b4d 50       		.byte	0x50
 10126 0b4e EA000000 		.4byte	.LVL168
 10127 0b52 F4000000 		.4byte	.LVL170
 10128 0b56 0100     		.2byte	0x1
 10129 0b58 50       		.byte	0x50
 10130 0b59 F4000000 		.4byte	.LVL170
 10131 0b5d FC000000 		.4byte	.LVL172
 10132 0b61 0100     		.2byte	0x1
 10133 0b63 54       		.byte	0x54
 10134 0b64 FC000000 		.4byte	.LVL172
 10135 0b68 04010000 		.4byte	.LVL174
 10136 0b6c 0100     		.2byte	0x1
ARM GAS  C:\Users\ddemidov\AppData\Local\Temp\ccr947bU.s 			page 208


 10137 0b6e 50       		.byte	0x50
 10138 0b6f 42010000 		.4byte	.LVL181
 10139 0b73 4C010000 		.4byte	.LVL182
 10140 0b77 0100     		.2byte	0x1
 10141 0b79 50       		.byte	0x50
 10142 0b7a 76010000 		.4byte	.LVL190
 10143 0b7e 78010000 		.4byte	.LVL191
 10144 0b82 0100     		.2byte	0x1
 10145 0b84 50       		.byte	0x50
 10146 0b85 7C010000 		.4byte	.LVL192
 10147 0b89 7E010000 		.4byte	.LVL193
 10148 0b8d 0100     		.2byte	0x1
 10149 0b8f 50       		.byte	0x50
 10150 0b90 00000000 		.4byte	0
 10151 0b94 00000000 		.4byte	0
 10152              	.LLST48:
 10153 0b98 30000000 		.4byte	.LVL148
 10154 0b9c 3E000000 		.4byte	.LVL149
 10155 0ba0 0100     		.2byte	0x1
 10156 0ba2 50       		.byte	0x50
 10157 0ba3 3E000000 		.4byte	.LVL149
 10158 0ba7 68010000 		.4byte	.LVL186
 10159 0bab 0100     		.2byte	0x1
 10160 0bad 56       		.byte	0x56
 10161 0bae 6E010000 		.4byte	.LVL188
 10162 0bb2 72010000 		.4byte	.LVL189
 10163 0bb6 0100     		.2byte	0x1
 10164 0bb8 50       		.byte	0x50
 10165 0bb9 72010000 		.4byte	.LVL189
 10166 0bbd 90010000 		.4byte	.LVL198
 10167 0bc1 0100     		.2byte	0x1
 10168 0bc3 56       		.byte	0x56
 10169 0bc4 00000000 		.4byte	0
 10170 0bc8 00000000 		.4byte	0
 10171              	.LLST49:
 10172 0bcc 74000000 		.4byte	.LVL153
 10173 0bd0 EA000000 		.4byte	.LVL168
 10174 0bd4 0100     		.2byte	0x1
 10175 0bd6 54       		.byte	0x54
 10176 0bd7 82010000 		.4byte	.LVL194
 10177 0bdb 8E010000 		.4byte	.LVL197
 10178 0bdf 0100     		.2byte	0x1
 10179 0be1 54       		.byte	0x54
 10180 0be2 00000000 		.4byte	0
 10181 0be6 00000000 		.4byte	0
 10182              	.LLST50:
 10183 0bea FC000000 		.4byte	.LVL172
 10184 0bee 04010000 		.4byte	.LVL174
 10185 0bf2 0200     		.2byte	0x2
 10186 0bf4 30       		.byte	0x30
 10187 0bf5 9F       		.byte	0x9f
 10188 0bf6 04010000 		.4byte	.LVL174
 10189 0bfa 06010000 		.4byte	.LVL175
 10190 0bfe 0100     		.2byte	0x1
 10191 0c00 51       		.byte	0x51
 10192 0c01 06010000 		.4byte	.LVL175
 10193 0c05 2D010000 		.4byte	.LVL180-1
ARM GAS  C:\Users\ddemidov\AppData\Local\Temp\ccr947bU.s 			page 209


 10194 0c09 0100     		.2byte	0x1
 10195 0c0b 52       		.byte	0x52
 10196 0c0c 4C010000 		.4byte	.LVL182
 10197 0c10 50010000 		.4byte	.LVL183
 10198 0c14 0100     		.2byte	0x1
 10199 0c16 52       		.byte	0x52
 10200 0c17 50010000 		.4byte	.LVL183
 10201 0c1b 5C010000 		.4byte	.LVL185
 10202 0c1f 0300     		.2byte	0x3
 10203 0c21 72       		.byte	0x72
 10204 0c22 01       		.sleb128 1
 10205 0c23 9F       		.byte	0x9f
 10206 0c24 5C010000 		.4byte	.LVL185
 10207 0c28 68010000 		.4byte	.LVL186
 10208 0c2c 0100     		.2byte	0x1
 10209 0c2e 52       		.byte	0x52
 10210 0c2f 8E010000 		.4byte	.LVL197
 10211 0c33 90010000 		.4byte	.LVL198
 10212 0c37 0100     		.2byte	0x1
 10213 0c39 52       		.byte	0x52
 10214 0c3a 00000000 		.4byte	0
 10215 0c3e 00000000 		.4byte	0
 10216              	.LLST51:
 10217 0c42 70000000 		.4byte	.LVL152
 10218 0c46 83000000 		.4byte	.LVL154-1
 10219 0c4a 0100     		.2byte	0x1
 10220 0c4c 53       		.byte	0x53
 10221 0c4d 83000000 		.4byte	.LVL154-1
 10222 0c51 88000000 		.4byte	.LVL155
 10223 0c55 0100     		.2byte	0x1
 10224 0c57 5B       		.byte	0x5b
 10225 0c58 88000000 		.4byte	.LVL155
 10226 0c5c 90000000 		.4byte	.LVL156
 10227 0c60 0100     		.2byte	0x1
 10228 0c62 53       		.byte	0x53
 10229 0c63 90000000 		.4byte	.LVL156
 10230 0c67 9A000000 		.4byte	.LVL158
 10231 0c6b 0300     		.2byte	0x3
 10232 0c6d 73       		.byte	0x73
 10233 0c6e 7F       		.sleb128 -1
 10234 0c6f 9F       		.byte	0x9f
 10235 0c70 9A000000 		.4byte	.LVL158
 10236 0c74 AF000000 		.4byte	.LVL160-1
 10237 0c78 0100     		.2byte	0x1
 10238 0c7a 53       		.byte	0x53
 10239 0c7b FE000000 		.4byte	.LVL173
 10240 0c7f 04010000 		.4byte	.LVL174
 10241 0c83 0100     		.2byte	0x1
 10242 0c85 58       		.byte	0x58
 10243 0c86 04010000 		.4byte	.LVL174
 10244 0c8a 24010000 		.4byte	.LVL178
 10245 0c8e 0100     		.2byte	0x1
 10246 0c90 53       		.byte	0x53
 10247 0c91 2E010000 		.4byte	.LVL180
 10248 0c95 4C010000 		.4byte	.LVL182
 10249 0c99 0200     		.2byte	0x2
 10250 0c9b 31       		.byte	0x31
ARM GAS  C:\Users\ddemidov\AppData\Local\Temp\ccr947bU.s 			page 210


 10251 0c9c 9F       		.byte	0x9f
 10252 0c9d 4C010000 		.4byte	.LVL182
 10253 0ca1 68010000 		.4byte	.LVL186
 10254 0ca5 0100     		.2byte	0x1
 10255 0ca7 53       		.byte	0x53
 10256 0ca8 82010000 		.4byte	.LVL194
 10257 0cac 88010000 		.4byte	.LVL195
 10258 0cb0 0100     		.2byte	0x1
 10259 0cb2 53       		.byte	0x53
 10260 0cb3 8E010000 		.4byte	.LVL197
 10261 0cb7 90010000 		.4byte	.LVL198
 10262 0cbb 0100     		.2byte	0x1
 10263 0cbd 53       		.byte	0x53
 10264 0cbe 00000000 		.4byte	0
 10265 0cc2 00000000 		.4byte	0
 10266              	.LLST52:
 10267 0cc6 CC000000 		.4byte	.LVL165
 10268 0cca D7000000 		.4byte	.LVL166-1
 10269 0cce 0100     		.2byte	0x1
 10270 0cd0 50       		.byte	0x50
 10271 0cd1 D7000000 		.4byte	.LVL166-1
 10272 0cd5 28010000 		.4byte	.LVL179
 10273 0cd9 0100     		.2byte	0x1
 10274 0cdb 5B       		.byte	0x5b
 10275 0cdc 28010000 		.4byte	.LVL179
 10276 0ce0 2D010000 		.4byte	.LVL180-1
 10277 0ce4 0100     		.2byte	0x1
 10278 0ce6 53       		.byte	0x53
 10279 0ce7 2D010000 		.4byte	.LVL180-1
 10280 0ceb 68010000 		.4byte	.LVL186
 10281 0cef 0100     		.2byte	0x1
 10282 0cf1 5B       		.byte	0x5b
 10283 0cf2 88010000 		.4byte	.LVL195
 10284 0cf6 8A010000 		.4byte	.LVL196
 10285 0cfa 0100     		.2byte	0x1
 10286 0cfc 50       		.byte	0x50
 10287 0cfd 8A010000 		.4byte	.LVL196
 10288 0d01 90010000 		.4byte	.LVL198
 10289 0d05 0100     		.2byte	0x1
 10290 0d07 5B       		.byte	0x5b
 10291 0d08 00000000 		.4byte	0
 10292 0d0c 00000000 		.4byte	0
 10293              	.LLST53:
 10294 0d10 EC000000 		.4byte	.LVL169
 10295 0d14 FC000000 		.4byte	.LVL172
 10296 0d18 0100     		.2byte	0x1
 10297 0d1a 5B       		.byte	0x5b
 10298 0d1b 00000000 		.4byte	0
 10299 0d1f 00000000 		.4byte	0
 10300              	.LLST54:
 10301 0d23 22010000 		.4byte	.LVL177
 10302 0d27 28010000 		.4byte	.LVL179
 10303 0d2b 0100     		.2byte	0x1
 10304 0d2d 5B       		.byte	0x5b
 10305 0d2e 28010000 		.4byte	.LVL179
 10306 0d32 2D010000 		.4byte	.LVL180-1
 10307 0d36 0100     		.2byte	0x1
ARM GAS  C:\Users\ddemidov\AppData\Local\Temp\ccr947bU.s 			page 211


 10308 0d38 53       		.byte	0x53
 10309 0d39 2D010000 		.4byte	.LVL180-1
 10310 0d3d 68010000 		.4byte	.LVL186
 10311 0d41 0100     		.2byte	0x1
 10312 0d43 5B       		.byte	0x5b
 10313 0d44 8E010000 		.4byte	.LVL197
 10314 0d48 90010000 		.4byte	.LVL198
 10315 0d4c 0100     		.2byte	0x1
 10316 0d4e 5B       		.byte	0x5b
 10317 0d4f 00000000 		.4byte	0
 10318 0d53 00000000 		.4byte	0
 10319              	.LLST55:
 10320 0d57 00000000 		.4byte	.LVL199
 10321 0d5b 21000000 		.4byte	.LVL203-1
 10322 0d5f 0100     		.2byte	0x1
 10323 0d61 50       		.byte	0x50
 10324 0d62 21000000 		.4byte	.LVL203-1
 10325 0d66 24000000 		.4byte	.LVL204
 10326 0d6a 0400     		.2byte	0x4
 10327 0d6c F3       		.byte	0xf3
 10328 0d6d 01       		.uleb128 0x1
 10329 0d6e 50       		.byte	0x50
 10330 0d6f 9F       		.byte	0x9f
 10331 0d70 24000000 		.4byte	.LVL204
 10332 0d74 3B000000 		.4byte	.LVL205-1
 10333 0d78 0100     		.2byte	0x1
 10334 0d7a 50       		.byte	0x50
 10335 0d7b 3B000000 		.4byte	.LVL205-1
 10336 0d7f 3E000000 		.4byte	.LVL206
 10337 0d83 0400     		.2byte	0x4
 10338 0d85 F3       		.byte	0xf3
 10339 0d86 01       		.uleb128 0x1
 10340 0d87 50       		.byte	0x50
 10341 0d88 9F       		.byte	0x9f
 10342 0d89 3E000000 		.4byte	.LVL206
 10343 0d8d 40000000 		.4byte	.LVL207
 10344 0d91 0100     		.2byte	0x1
 10345 0d93 50       		.byte	0x50
 10346 0d94 40000000 		.4byte	.LVL207
 10347 0d98 46000000 		.4byte	.LFE18
 10348 0d9c 0400     		.2byte	0x4
 10349 0d9e F3       		.byte	0xf3
 10350 0d9f 01       		.uleb128 0x1
 10351 0da0 50       		.byte	0x50
 10352 0da1 9F       		.byte	0x9f
 10353 0da2 00000000 		.4byte	0
 10354 0da6 00000000 		.4byte	0
 10355              	.LLST56:
 10356 0daa 00000000 		.4byte	.LVL199
 10357 0dae 21000000 		.4byte	.LVL203-1
 10358 0db2 0100     		.2byte	0x1
 10359 0db4 51       		.byte	0x51
 10360 0db5 21000000 		.4byte	.LVL203-1
 10361 0db9 24000000 		.4byte	.LVL204
 10362 0dbd 0400     		.2byte	0x4
 10363 0dbf F3       		.byte	0xf3
 10364 0dc0 01       		.uleb128 0x1
ARM GAS  C:\Users\ddemidov\AppData\Local\Temp\ccr947bU.s 			page 212


 10365 0dc1 51       		.byte	0x51
 10366 0dc2 9F       		.byte	0x9f
 10367 0dc3 24000000 		.4byte	.LVL204
 10368 0dc7 3B000000 		.4byte	.LVL205-1
 10369 0dcb 0100     		.2byte	0x1
 10370 0dcd 51       		.byte	0x51
 10371 0dce 3B000000 		.4byte	.LVL205-1
 10372 0dd2 3E000000 		.4byte	.LVL206
 10373 0dd6 0400     		.2byte	0x4
 10374 0dd8 F3       		.byte	0xf3
 10375 0dd9 01       		.uleb128 0x1
 10376 0dda 51       		.byte	0x51
 10377 0ddb 9F       		.byte	0x9f
 10378 0ddc 3E000000 		.4byte	.LVL206
 10379 0de0 42000000 		.4byte	.LVL208
 10380 0de4 0100     		.2byte	0x1
 10381 0de6 51       		.byte	0x51
 10382 0de7 42000000 		.4byte	.LVL208
 10383 0deb 46000000 		.4byte	.LFE18
 10384 0def 0400     		.2byte	0x4
 10385 0df1 F3       		.byte	0xf3
 10386 0df2 01       		.uleb128 0x1
 10387 0df3 51       		.byte	0x51
 10388 0df4 9F       		.byte	0x9f
 10389 0df5 00000000 		.4byte	0
 10390 0df9 00000000 		.4byte	0
 10391              	.LLST57:
 10392 0dfd 00000000 		.4byte	.LVL199
 10393 0e01 21000000 		.4byte	.LVL203-1
 10394 0e05 0100     		.2byte	0x1
 10395 0e07 52       		.byte	0x52
 10396 0e08 21000000 		.4byte	.LVL203-1
 10397 0e0c 24000000 		.4byte	.LVL204
 10398 0e10 0400     		.2byte	0x4
 10399 0e12 F3       		.byte	0xf3
 10400 0e13 01       		.uleb128 0x1
 10401 0e14 52       		.byte	0x52
 10402 0e15 9F       		.byte	0x9f
 10403 0e16 24000000 		.4byte	.LVL204
 10404 0e1a 3B000000 		.4byte	.LVL205-1
 10405 0e1e 0100     		.2byte	0x1
 10406 0e20 52       		.byte	0x52
 10407 0e21 3B000000 		.4byte	.LVL205-1
 10408 0e25 3E000000 		.4byte	.LVL206
 10409 0e29 0400     		.2byte	0x4
 10410 0e2b F3       		.byte	0xf3
 10411 0e2c 01       		.uleb128 0x1
 10412 0e2d 52       		.byte	0x52
 10413 0e2e 9F       		.byte	0x9f
 10414 0e2f 3E000000 		.4byte	.LVL206
 10415 0e33 42000000 		.4byte	.LVL208
 10416 0e37 0100     		.2byte	0x1
 10417 0e39 52       		.byte	0x52
 10418 0e3a 42000000 		.4byte	.LVL208
 10419 0e3e 46000000 		.4byte	.LFE18
 10420 0e42 0400     		.2byte	0x4
 10421 0e44 F3       		.byte	0xf3
ARM GAS  C:\Users\ddemidov\AppData\Local\Temp\ccr947bU.s 			page 213


 10422 0e45 01       		.uleb128 0x1
 10423 0e46 52       		.byte	0x52
 10424 0e47 9F       		.byte	0x9f
 10425 0e48 00000000 		.4byte	0
 10426 0e4c 00000000 		.4byte	0
 10427              	.LLST58:
 10428 0e50 00000000 		.4byte	.LVL199
 10429 0e54 21000000 		.4byte	.LVL203-1
 10430 0e58 0100     		.2byte	0x1
 10431 0e5a 53       		.byte	0x53
 10432 0e5b 21000000 		.4byte	.LVL203-1
 10433 0e5f 24000000 		.4byte	.LVL204
 10434 0e63 0400     		.2byte	0x4
 10435 0e65 F3       		.byte	0xf3
 10436 0e66 01       		.uleb128 0x1
 10437 0e67 53       		.byte	0x53
 10438 0e68 9F       		.byte	0x9f
 10439 0e69 24000000 		.4byte	.LVL204
 10440 0e6d 3B000000 		.4byte	.LVL205-1
 10441 0e71 0100     		.2byte	0x1
 10442 0e73 53       		.byte	0x53
 10443 0e74 3B000000 		.4byte	.LVL205-1
 10444 0e78 3E000000 		.4byte	.LVL206
 10445 0e7c 0400     		.2byte	0x4
 10446 0e7e F3       		.byte	0xf3
 10447 0e7f 01       		.uleb128 0x1
 10448 0e80 53       		.byte	0x53
 10449 0e81 9F       		.byte	0x9f
 10450 0e82 3E000000 		.4byte	.LVL206
 10451 0e86 42000000 		.4byte	.LVL208
 10452 0e8a 0100     		.2byte	0x1
 10453 0e8c 53       		.byte	0x53
 10454 0e8d 42000000 		.4byte	.LVL208
 10455 0e91 46000000 		.4byte	.LFE18
 10456 0e95 0400     		.2byte	0x4
 10457 0e97 F3       		.byte	0xf3
 10458 0e98 01       		.uleb128 0x1
 10459 0e99 53       		.byte	0x53
 10460 0e9a 9F       		.byte	0x9f
 10461 0e9b 00000000 		.4byte	0
 10462 0e9f 00000000 		.4byte	0
 10463              	.LLST59:
 10464 0ea3 00000000 		.4byte	.LVL199
 10465 0ea7 06000000 		.4byte	.LVL200
 10466 0eab 0200     		.2byte	0x2
 10467 0ead 91       		.byte	0x91
 10468 0eae 00       		.sleb128 0
 10469 0eaf 06000000 		.4byte	.LVL200
 10470 0eb3 0A000000 		.4byte	.LVL201
 10471 0eb7 0200     		.2byte	0x2
 10472 0eb9 74       		.byte	0x74
 10473 0eba 00       		.sleb128 0
 10474 0ebb 0A000000 		.4byte	.LVL201
 10475 0ebf 46000000 		.4byte	.LFE18
 10476 0ec3 0200     		.2byte	0x2
 10477 0ec5 91       		.byte	0x91
 10478 0ec6 00       		.sleb128 0
ARM GAS  C:\Users\ddemidov\AppData\Local\Temp\ccr947bU.s 			page 214


 10479 0ec7 00000000 		.4byte	0
 10480 0ecb 00000000 		.4byte	0
 10481              	.LLST60:
 10482 0ecf 00000000 		.4byte	.LVL199
 10483 0ed3 06000000 		.4byte	.LVL200
 10484 0ed7 0200     		.2byte	0x2
 10485 0ed9 91       		.byte	0x91
 10486 0eda 04       		.sleb128 4
 10487 0edb 06000000 		.4byte	.LVL200
 10488 0edf 0A000000 		.4byte	.LVL201
 10489 0ee3 0200     		.2byte	0x2
 10490 0ee5 74       		.byte	0x74
 10491 0ee6 04       		.sleb128 4
 10492 0ee7 0A000000 		.4byte	.LVL201
 10493 0eeb 46000000 		.4byte	.LFE18
 10494 0eef 0200     		.2byte	0x2
 10495 0ef1 91       		.byte	0x91
 10496 0ef2 04       		.sleb128 4
 10497 0ef3 00000000 		.4byte	0
 10498 0ef7 00000000 		.4byte	0
 10499              	.LLST61:
 10500 0efb 00000000 		.4byte	.LVL199
 10501 0eff 06000000 		.4byte	.LVL200
 10502 0f03 0200     		.2byte	0x2
 10503 0f05 91       		.byte	0x91
 10504 0f06 08       		.sleb128 8
 10505 0f07 06000000 		.4byte	.LVL200
 10506 0f0b 0A000000 		.4byte	.LVL201
 10507 0f0f 0200     		.2byte	0x2
 10508 0f11 74       		.byte	0x74
 10509 0f12 08       		.sleb128 8
 10510 0f13 0A000000 		.4byte	.LVL201
 10511 0f17 46000000 		.4byte	.LFE18
 10512 0f1b 0200     		.2byte	0x2
 10513 0f1d 91       		.byte	0x91
 10514 0f1e 08       		.sleb128 8
 10515 0f1f 00000000 		.4byte	0
 10516 0f23 00000000 		.4byte	0
 10517              	.LLST62:
 10518 0f27 00000000 		.4byte	.LVL199
 10519 0f2b 06000000 		.4byte	.LVL200
 10520 0f2f 0200     		.2byte	0x2
 10521 0f31 91       		.byte	0x91
 10522 0f32 0C       		.sleb128 12
 10523 0f33 06000000 		.4byte	.LVL200
 10524 0f37 0A000000 		.4byte	.LVL201
 10525 0f3b 0200     		.2byte	0x2
 10526 0f3d 74       		.byte	0x74
 10527 0f3e 0C       		.sleb128 12
 10528 0f3f 0A000000 		.4byte	.LVL201
 10529 0f43 0C000000 		.4byte	.LVL202
 10530 0f47 0200     		.2byte	0x2
 10531 0f49 74       		.byte	0x74
 10532 0f4a 00       		.sleb128 0
 10533 0f4b 0C000000 		.4byte	.LVL202
 10534 0f4f 46000000 		.4byte	.LFE18
 10535 0f53 0200     		.2byte	0x2
ARM GAS  C:\Users\ddemidov\AppData\Local\Temp\ccr947bU.s 			page 215


 10536 0f55 91       		.byte	0x91
 10537 0f56 0C       		.sleb128 12
 10538 0f57 00000000 		.4byte	0
 10539 0f5b 00000000 		.4byte	0
 10540              	.LLST63:
 10541 0f5f 00000000 		.4byte	.LVL199
 10542 0f63 06000000 		.4byte	.LVL200
 10543 0f67 0200     		.2byte	0x2
 10544 0f69 91       		.byte	0x91
 10545 0f6a 10       		.sleb128 16
 10546 0f6b 06000000 		.4byte	.LVL200
 10547 0f6f 0A000000 		.4byte	.LVL201
 10548 0f73 0200     		.2byte	0x2
 10549 0f75 74       		.byte	0x74
 10550 0f76 10       		.sleb128 16
 10551 0f77 0A000000 		.4byte	.LVL201
 10552 0f7b 46000000 		.4byte	.LFE18
 10553 0f7f 0200     		.2byte	0x2
 10554 0f81 91       		.byte	0x91
 10555 0f82 10       		.sleb128 16
 10556 0f83 00000000 		.4byte	0
 10557 0f87 00000000 		.4byte	0
 10558              	.LLST64:
 10559 0f8b 00000000 		.4byte	.LVL199
 10560 0f8f 06000000 		.4byte	.LVL200
 10561 0f93 0200     		.2byte	0x2
 10562 0f95 91       		.byte	0x91
 10563 0f96 14       		.sleb128 20
 10564 0f97 06000000 		.4byte	.LVL200
 10565 0f9b 0A000000 		.4byte	.LVL201
 10566 0f9f 0200     		.2byte	0x2
 10567 0fa1 74       		.byte	0x74
 10568 0fa2 14       		.sleb128 20
 10569 0fa3 0A000000 		.4byte	.LVL201
 10570 0fa7 46000000 		.4byte	.LFE18
 10571 0fab 0200     		.2byte	0x2
 10572 0fad 91       		.byte	0x91
 10573 0fae 14       		.sleb128 20
 10574 0faf 00000000 		.4byte	0
 10575 0fb3 00000000 		.4byte	0
 10576              	.LLST65:
 10577 0fb7 00000000 		.4byte	.LVL199
 10578 0fbb 06000000 		.4byte	.LVL200
 10579 0fbf 0200     		.2byte	0x2
 10580 0fc1 91       		.byte	0x91
 10581 0fc2 18       		.sleb128 24
 10582 0fc3 06000000 		.4byte	.LVL200
 10583 0fc7 0A000000 		.4byte	.LVL201
 10584 0fcb 0200     		.2byte	0x2
 10585 0fcd 74       		.byte	0x74
 10586 0fce 18       		.sleb128 24
 10587 0fcf 0A000000 		.4byte	.LVL201
 10588 0fd3 46000000 		.4byte	.LFE18
 10589 0fd7 0200     		.2byte	0x2
 10590 0fd9 91       		.byte	0x91
 10591 0fda 18       		.sleb128 24
 10592 0fdb 00000000 		.4byte	0
ARM GAS  C:\Users\ddemidov\AppData\Local\Temp\ccr947bU.s 			page 216


 10593 0fdf 00000000 		.4byte	0
 10594              	.LLST66:
 10595 0fe3 22000000 		.4byte	.LVL203
 10596 0fe7 24000000 		.4byte	.LVL204
 10597 0feb 0100     		.2byte	0x1
 10598 0fed 50       		.byte	0x50
 10599 0fee 3C000000 		.4byte	.LVL205
 10600 0ff2 3E000000 		.4byte	.LVL206
 10601 0ff6 0100     		.2byte	0x1
 10602 0ff8 50       		.byte	0x50
 10603 0ff9 42000000 		.4byte	.LVL208
 10604 0ffd 46000000 		.4byte	.LFE18
 10605 1001 0100     		.2byte	0x1
 10606 1003 50       		.byte	0x50
 10607 1004 00000000 		.4byte	0
 10608 1008 00000000 		.4byte	0
 10609              	.LLST67:
 10610 100c 00000000 		.4byte	.LVL209
 10611 1010 18000000 		.4byte	.LVL210
 10612 1014 0100     		.2byte	0x1
 10613 1016 50       		.byte	0x50
 10614 1017 18000000 		.4byte	.LVL210
 10615 101b 16010000 		.4byte	.LVL251
 10616 101f 0100     		.2byte	0x1
 10617 1021 54       		.byte	0x54
 10618 1022 16010000 		.4byte	.LVL251
 10619 1026 20010000 		.4byte	.LVL252
 10620 102a 0400     		.2byte	0x4
 10621 102c F3       		.byte	0xf3
 10622 102d 01       		.uleb128 0x1
 10623 102e 50       		.byte	0x50
 10624 102f 9F       		.byte	0x9f
 10625 1030 20010000 		.4byte	.LVL252
 10626 1034 36010000 		.4byte	.LVL259
 10627 1038 0100     		.2byte	0x1
 10628 103a 54       		.byte	0x54
 10629 103b 36010000 		.4byte	.LVL259
 10630 103f 44010000 		.4byte	.LFE19
 10631 1043 0400     		.2byte	0x4
 10632 1045 F3       		.byte	0xf3
 10633 1046 01       		.uleb128 0x1
 10634 1047 50       		.byte	0x50
 10635 1048 9F       		.byte	0x9f
 10636 1049 00000000 		.4byte	0
 10637 104d 00000000 		.4byte	0
 10638              	.LLST68:
 10639 1051 00000000 		.4byte	.LVL209
 10640 1055 1B000000 		.4byte	.LVL211-1
 10641 1059 0100     		.2byte	0x1
 10642 105b 51       		.byte	0x51
 10643 105c 1B000000 		.4byte	.LVL211-1
 10644 1060 38010000 		.4byte	.LVL261
 10645 1064 0100     		.2byte	0x1
 10646 1066 59       		.byte	0x59
 10647 1067 38010000 		.4byte	.LVL261
 10648 106b 44010000 		.4byte	.LFE19
 10649 106f 0400     		.2byte	0x4
ARM GAS  C:\Users\ddemidov\AppData\Local\Temp\ccr947bU.s 			page 217


 10650 1071 F3       		.byte	0xf3
 10651 1072 01       		.uleb128 0x1
 10652 1073 51       		.byte	0x51
 10653 1074 9F       		.byte	0x9f
 10654 1075 00000000 		.4byte	0
 10655 1079 00000000 		.4byte	0
 10656              	.LLST69:
 10657 107d 00000000 		.4byte	.LVL209
 10658 1081 1B000000 		.4byte	.LVL211-1
 10659 1085 0100     		.2byte	0x1
 10660 1087 52       		.byte	0x52
 10661 1088 1B000000 		.4byte	.LVL211-1
 10662 108c 44010000 		.4byte	.LFE19
 10663 1090 0300     		.2byte	0x3
 10664 1092 91       		.byte	0x91
 10665 1093 B47F     		.sleb128 -76
 10666 1095 00000000 		.4byte	0
 10667 1099 00000000 		.4byte	0
 10668              	.LLST70:
 10669 109d 00000000 		.4byte	.LVL209
 10670 10a1 1B000000 		.4byte	.LVL211-1
 10671 10a5 0100     		.2byte	0x1
 10672 10a7 53       		.byte	0x53
 10673 10a8 1B000000 		.4byte	.LVL211-1
 10674 10ac 44010000 		.4byte	.LFE19
 10675 10b0 0400     		.2byte	0x4
 10676 10b2 F3       		.byte	0xf3
 10677 10b3 01       		.uleb128 0x1
 10678 10b4 53       		.byte	0x53
 10679 10b5 9F       		.byte	0x9f
 10680 10b6 00000000 		.4byte	0
 10681 10ba 00000000 		.4byte	0
 10682              	.LLST71:
 10683 10be 1E000000 		.4byte	.LVL212
 10684 10c2 30000000 		.4byte	.LVL213
 10685 10c6 0100     		.2byte	0x1
 10686 10c8 50       		.byte	0x50
 10687 10c9 30000000 		.4byte	.LVL213
 10688 10cd 20010000 		.4byte	.LVL252
 10689 10d1 0100     		.2byte	0x1
 10690 10d3 56       		.byte	0x56
 10691 10d4 20010000 		.4byte	.LVL252
 10692 10d8 22010000 		.4byte	.LVL253
 10693 10dc 0100     		.2byte	0x1
 10694 10de 50       		.byte	0x50
 10695 10df 22010000 		.4byte	.LVL253
 10696 10e3 26010000 		.4byte	.LVL254
 10697 10e7 0100     		.2byte	0x1
 10698 10e9 56       		.byte	0x56
 10699 10ea 26010000 		.4byte	.LVL254
 10700 10ee 28010000 		.4byte	.LVL255
 10701 10f2 0100     		.2byte	0x1
 10702 10f4 50       		.byte	0x50
 10703 10f5 28010000 		.4byte	.LVL255
 10704 10f9 38010000 		.4byte	.LVL260
 10705 10fd 0100     		.2byte	0x1
 10706 10ff 56       		.byte	0x56
ARM GAS  C:\Users\ddemidov\AppData\Local\Temp\ccr947bU.s 			page 218


 10707 1100 00000000 		.4byte	0
 10708 1104 00000000 		.4byte	0
 10709              	.LLST72:
 10710 1108 5A000000 		.4byte	.LVL218
 10711 110c 62000000 		.4byte	.LVL220
 10712 1110 0100     		.2byte	0x1
 10713 1112 50       		.byte	0x50
 10714 1113 62000000 		.4byte	.LVL220
 10715 1117 78000000 		.4byte	.LVL225
 10716 111b 0100     		.2byte	0x1
 10717 111d 57       		.byte	0x57
 10718 111e 78000000 		.4byte	.LVL225
 10719 1122 7A000000 		.4byte	.LVL226
 10720 1126 0100     		.2byte	0x1
 10721 1128 50       		.byte	0x50
 10722 1129 7A000000 		.4byte	.LVL226
 10723 112d 90000000 		.4byte	.LVL229
 10724 1131 0100     		.2byte	0x1
 10725 1133 57       		.byte	0x57
 10726 1134 90000000 		.4byte	.LVL229
 10727 1138 98000000 		.4byte	.LVL231
 10728 113c 0100     		.2byte	0x1
 10729 113e 50       		.byte	0x50
 10730 113f 98000000 		.4byte	.LVL231
 10731 1143 A0000000 		.4byte	.LVL233
 10732 1147 0100     		.2byte	0x1
 10733 1149 57       		.byte	0x57
 10734 114a B4000000 		.4byte	.LVL235
 10735 114e B6000000 		.4byte	.LVL236
 10736 1152 0100     		.2byte	0x1
 10737 1154 50       		.byte	0x50
 10738 1155 E4000000 		.4byte	.LVL242
 10739 1159 EE000000 		.4byte	.LVL243
 10740 115d 0100     		.2byte	0x1
 10741 115f 50       		.byte	0x50
 10742 1160 02010000 		.4byte	.LVL246
 10743 1164 20010000 		.4byte	.LVL252
 10744 1168 0100     		.2byte	0x1
 10745 116a 51       		.byte	0x51
 10746 116b 32010000 		.4byte	.LVL258
 10747 116f 36010000 		.4byte	.LVL259
 10748 1173 0100     		.2byte	0x1
 10749 1175 51       		.byte	0x51
 10750 1176 00000000 		.4byte	0
 10751 117a 00000000 		.4byte	0
 10752              	.LLST73:
 10753 117e 36000000 		.4byte	.LVL215
 10754 1182 3F000000 		.4byte	.LVL216-1
 10755 1186 0100     		.2byte	0x1
 10756 1188 50       		.byte	0x50
 10757 1189 3F000000 		.4byte	.LVL216-1
 10758 118d C6000000 		.4byte	.LVL239
 10759 1191 0100     		.2byte	0x1
 10760 1193 55       		.byte	0x55
 10761 1194 2C010000 		.4byte	.LVL256
 10762 1198 2E010000 		.4byte	.LVL257
 10763 119c 0100     		.2byte	0x1
ARM GAS  C:\Users\ddemidov\AppData\Local\Temp\ccr947bU.s 			page 219


 10764 119e 50       		.byte	0x50
 10765 119f 2E010000 		.4byte	.LVL257
 10766 11a3 32010000 		.4byte	.LVL258
 10767 11a7 0100     		.2byte	0x1
 10768 11a9 55       		.byte	0x55
 10769 11aa 00000000 		.4byte	0
 10770 11ae 00000000 		.4byte	0
 10771              	.LLST74:
 10772 11b2 6A000000 		.4byte	.LVL222
 10773 11b6 70000000 		.4byte	.LVL223
 10774 11ba 0100     		.2byte	0x1
 10775 11bc 53       		.byte	0x53
 10776 11bd 70000000 		.4byte	.LVL223
 10777 11c1 76000000 		.4byte	.LVL224
 10778 11c5 0300     		.2byte	0x3
 10779 11c7 73       		.byte	0x73
 10780 11c8 7F       		.sleb128 -1
 10781 11c9 9F       		.byte	0x9f
 10782 11ca 76000000 		.4byte	.LVL224
 10783 11ce 78000000 		.4byte	.LVL225
 10784 11d2 0100     		.2byte	0x1
 10785 11d4 53       		.byte	0x53
 10786 11d5 7A000000 		.4byte	.LVL226
 10787 11d9 80000000 		.4byte	.LVL227
 10788 11dd 0100     		.2byte	0x1
 10789 11df 53       		.byte	0x53
 10790 11e0 A0000000 		.4byte	.LVL233
 10791 11e4 B4000000 		.4byte	.LVL235
 10792 11e8 0100     		.2byte	0x1
 10793 11ea 52       		.byte	0x52
 10794 11eb B6000000 		.4byte	.LVL236
 10795 11ef C3000000 		.4byte	.LVL238-1
 10796 11f3 0100     		.2byte	0x1
 10797 11f5 52       		.byte	0x52
 10798 11f6 C8000000 		.4byte	.LVL240
 10799 11fa 04010000 		.4byte	.LVL247
 10800 11fe 0100     		.2byte	0x1
 10801 1200 55       		.byte	0x55
 10802 1201 04010000 		.4byte	.LVL247
 10803 1205 20010000 		.4byte	.LVL252
 10804 1209 0100     		.2byte	0x1
 10805 120b 57       		.byte	0x57
 10806 120c 32010000 		.4byte	.LVL258
 10807 1210 36010000 		.4byte	.LVL259
 10808 1214 0100     		.2byte	0x1
 10809 1216 57       		.byte	0x57
 10810 1217 00000000 		.4byte	0
 10811 121b 00000000 		.4byte	0
 10812              	.LLST75:
 10813 121f 5C000000 		.4byte	.LVL219
 10814 1223 6A000000 		.4byte	.LVL222
 10815 1227 0100     		.2byte	0x1
 10816 1229 55       		.byte	0x55
 10817 122a 00000000 		.4byte	0
 10818 122e 00000000 		.4byte	0
 10819              	.LLST76:
 10820 1232 92000000 		.4byte	.LVL230
ARM GAS  C:\Users\ddemidov\AppData\Local\Temp\ccr947bU.s 			page 220


 10821 1236 A0000000 		.4byte	.LVL233
 10822 123a 0100     		.2byte	0x1
 10823 123c 55       		.byte	0x55
 10824 123d 00000000 		.4byte	0
 10825 1241 00000000 		.4byte	0
 10826              	.LLST77:
 10827 1245 BA000000 		.4byte	.LVL237
 10828 1249 C6000000 		.4byte	.LVL239
 10829 124d 0100     		.2byte	0x1
 10830 124f 55       		.byte	0x55
 10831 1250 00000000 		.4byte	0
 10832 1254 00000000 		.4byte	0
 10833              	.LLST78:
 10834 1258 EE000000 		.4byte	.LVL243
 10835 125c 08010000 		.4byte	.LVL248
 10836 1260 0100     		.2byte	0x1
 10837 1262 53       		.byte	0x53
 10838 1263 00000000 		.4byte	0
 10839 1267 00000000 		.4byte	0
 10840              	.LLST79:
 10841 126b EE000000 		.4byte	.LVL243
 10842 126f 0C010000 		.4byte	.LVL249
 10843 1273 0100     		.2byte	0x1
 10844 1275 51       		.byte	0x51
 10845 1276 00000000 		.4byte	0
 10846 127a 00000000 		.4byte	0
 10847              	.LLST80:
 10848 127e 00000000 		.4byte	.LVL262
 10849 1282 17000000 		.4byte	.LVL266-1
 10850 1286 0100     		.2byte	0x1
 10851 1288 50       		.byte	0x50
 10852 1289 17000000 		.4byte	.LVL266-1
 10853 128d 1A000000 		.4byte	.LVL267
 10854 1291 0400     		.2byte	0x4
 10855 1293 F3       		.byte	0xf3
 10856 1294 01       		.uleb128 0x1
 10857 1295 50       		.byte	0x50
 10858 1296 9F       		.byte	0x9f
 10859 1297 1A000000 		.4byte	.LVL267
 10860 129b 2B000000 		.4byte	.LVL269-1
 10861 129f 0100     		.2byte	0x1
 10862 12a1 50       		.byte	0x50
 10863 12a2 2B000000 		.4byte	.LVL269-1
 10864 12a6 2E000000 		.4byte	.LVL270
 10865 12aa 0400     		.2byte	0x4
 10866 12ac F3       		.byte	0xf3
 10867 12ad 01       		.uleb128 0x1
 10868 12ae 50       		.byte	0x50
 10869 12af 9F       		.byte	0x9f
 10870 12b0 2E000000 		.4byte	.LVL270
 10871 12b4 30000000 		.4byte	.LVL271
 10872 12b8 0100     		.2byte	0x1
 10873 12ba 50       		.byte	0x50
 10874 12bb 30000000 		.4byte	.LVL271
 10875 12bf 36000000 		.4byte	.LFE21
 10876 12c3 0400     		.2byte	0x4
 10877 12c5 F3       		.byte	0xf3
ARM GAS  C:\Users\ddemidov\AppData\Local\Temp\ccr947bU.s 			page 221


 10878 12c6 01       		.uleb128 0x1
 10879 12c7 50       		.byte	0x50
 10880 12c8 9F       		.byte	0x9f
 10881 12c9 00000000 		.4byte	0
 10882 12cd 00000000 		.4byte	0
 10883              	.LLST81:
 10884 12d1 00000000 		.4byte	.LVL262
 10885 12d5 17000000 		.4byte	.LVL266-1
 10886 12d9 0100     		.2byte	0x1
 10887 12db 51       		.byte	0x51
 10888 12dc 17000000 		.4byte	.LVL266-1
 10889 12e0 1A000000 		.4byte	.LVL267
 10890 12e4 0400     		.2byte	0x4
 10891 12e6 F3       		.byte	0xf3
 10892 12e7 01       		.uleb128 0x1
 10893 12e8 51       		.byte	0x51
 10894 12e9 9F       		.byte	0x9f
 10895 12ea 1A000000 		.4byte	.LVL267
 10896 12ee 2B000000 		.4byte	.LVL269-1
 10897 12f2 0100     		.2byte	0x1
 10898 12f4 51       		.byte	0x51
 10899 12f5 2B000000 		.4byte	.LVL269-1
 10900 12f9 2E000000 		.4byte	.LVL270
 10901 12fd 0400     		.2byte	0x4
 10902 12ff F3       		.byte	0xf3
 10903 1300 01       		.uleb128 0x1
 10904 1301 51       		.byte	0x51
 10905 1302 9F       		.byte	0x9f
 10906 1303 2E000000 		.4byte	.LVL270
 10907 1307 32000000 		.4byte	.LVL272
 10908 130b 0100     		.2byte	0x1
 10909 130d 51       		.byte	0x51
 10910 130e 32000000 		.4byte	.LVL272
 10911 1312 36000000 		.4byte	.LFE21
 10912 1316 0400     		.2byte	0x4
 10913 1318 F3       		.byte	0xf3
 10914 1319 01       		.uleb128 0x1
 10915 131a 51       		.byte	0x51
 10916 131b 9F       		.byte	0x9f
 10917 131c 00000000 		.4byte	0
 10918 1320 00000000 		.4byte	0
 10919              	.LLST82:
 10920 1324 00000000 		.4byte	.LVL262
 10921 1328 17000000 		.4byte	.LVL266-1
 10922 132c 0100     		.2byte	0x1
 10923 132e 52       		.byte	0x52
 10924 132f 17000000 		.4byte	.LVL266-1
 10925 1333 1A000000 		.4byte	.LVL267
 10926 1337 0400     		.2byte	0x4
 10927 1339 F3       		.byte	0xf3
 10928 133a 01       		.uleb128 0x1
 10929 133b 52       		.byte	0x52
 10930 133c 9F       		.byte	0x9f
 10931 133d 1A000000 		.4byte	.LVL267
 10932 1341 2B000000 		.4byte	.LVL269-1
 10933 1345 0100     		.2byte	0x1
 10934 1347 52       		.byte	0x52
ARM GAS  C:\Users\ddemidov\AppData\Local\Temp\ccr947bU.s 			page 222


 10935 1348 2B000000 		.4byte	.LVL269-1
 10936 134c 2E000000 		.4byte	.LVL270
 10937 1350 0400     		.2byte	0x4
 10938 1352 F3       		.byte	0xf3
 10939 1353 01       		.uleb128 0x1
 10940 1354 52       		.byte	0x52
 10941 1355 9F       		.byte	0x9f
 10942 1356 2E000000 		.4byte	.LVL270
 10943 135a 32000000 		.4byte	.LVL272
 10944 135e 0100     		.2byte	0x1
 10945 1360 52       		.byte	0x52
 10946 1361 32000000 		.4byte	.LVL272
 10947 1365 36000000 		.4byte	.LFE21
 10948 1369 0400     		.2byte	0x4
 10949 136b F3       		.byte	0xf3
 10950 136c 01       		.uleb128 0x1
 10951 136d 52       		.byte	0x52
 10952 136e 9F       		.byte	0x9f
 10953 136f 00000000 		.4byte	0
 10954 1373 00000000 		.4byte	0
 10955              	.LLST83:
 10956 1377 00000000 		.4byte	.LVL262
 10957 137b 17000000 		.4byte	.LVL266-1
 10958 137f 0100     		.2byte	0x1
 10959 1381 53       		.byte	0x53
 10960 1382 17000000 		.4byte	.LVL266-1
 10961 1386 1A000000 		.4byte	.LVL267
 10962 138a 0400     		.2byte	0x4
 10963 138c F3       		.byte	0xf3
 10964 138d 01       		.uleb128 0x1
 10965 138e 53       		.byte	0x53
 10966 138f 9F       		.byte	0x9f
 10967 1390 1A000000 		.4byte	.LVL267
 10968 1394 1C000000 		.4byte	.LVL268
 10969 1398 0100     		.2byte	0x1
 10970 139a 53       		.byte	0x53
 10971 139b 1C000000 		.4byte	.LVL268
 10972 139f 2E000000 		.4byte	.LVL270
 10973 13a3 0400     		.2byte	0x4
 10974 13a5 F3       		.byte	0xf3
 10975 13a6 01       		.uleb128 0x1
 10976 13a7 53       		.byte	0x53
 10977 13a8 9F       		.byte	0x9f
 10978 13a9 2E000000 		.4byte	.LVL270
 10979 13ad 32000000 		.4byte	.LVL272
 10980 13b1 0100     		.2byte	0x1
 10981 13b3 53       		.byte	0x53
 10982 13b4 32000000 		.4byte	.LVL272
 10983 13b8 36000000 		.4byte	.LFE21
 10984 13bc 0400     		.2byte	0x4
 10985 13be F3       		.byte	0xf3
 10986 13bf 01       		.uleb128 0x1
 10987 13c0 53       		.byte	0x53
 10988 13c1 9F       		.byte	0x9f
 10989 13c2 00000000 		.4byte	0
 10990 13c6 00000000 		.4byte	0
 10991              	.LLST84:
ARM GAS  C:\Users\ddemidov\AppData\Local\Temp\ccr947bU.s 			page 223


 10992 13ca 00000000 		.4byte	.LVL262
 10993 13ce 06000000 		.4byte	.LVL263
 10994 13d2 0200     		.2byte	0x2
 10995 13d4 91       		.byte	0x91
 10996 13d5 00       		.sleb128 0
 10997 13d6 06000000 		.4byte	.LVL263
 10998 13da 08000000 		.4byte	.LVL264
 10999 13de 0200     		.2byte	0x2
 11000 13e0 74       		.byte	0x74
 11001 13e1 00       		.sleb128 0
 11002 13e2 08000000 		.4byte	.LVL264
 11003 13e6 0A000000 		.4byte	.LVL265
 11004 13ea 0200     		.2byte	0x2
 11005 13ec 74       		.byte	0x74
 11006 13ed 7C       		.sleb128 -4
 11007 13ee 0A000000 		.4byte	.LVL265
 11008 13f2 36000000 		.4byte	.LFE21
 11009 13f6 0200     		.2byte	0x2
 11010 13f8 91       		.byte	0x91
 11011 13f9 00       		.sleb128 0
 11012 13fa 00000000 		.4byte	0
 11013 13fe 00000000 		.4byte	0
 11014              	.LLST85:
 11015 1402 00000000 		.4byte	.LVL262
 11016 1406 06000000 		.4byte	.LVL263
 11017 140a 0200     		.2byte	0x2
 11018 140c 91       		.byte	0x91
 11019 140d 04       		.sleb128 4
 11020 140e 06000000 		.4byte	.LVL263
 11021 1412 08000000 		.4byte	.LVL264
 11022 1416 0200     		.2byte	0x2
 11023 1418 74       		.byte	0x74
 11024 1419 04       		.sleb128 4
 11025 141a 08000000 		.4byte	.LVL264
 11026 141e 0A000000 		.4byte	.LVL265
 11027 1422 0200     		.2byte	0x2
 11028 1424 74       		.byte	0x74
 11029 1425 00       		.sleb128 0
 11030 1426 0A000000 		.4byte	.LVL265
 11031 142a 36000000 		.4byte	.LFE21
 11032 142e 0200     		.2byte	0x2
 11033 1430 91       		.byte	0x91
 11034 1431 04       		.sleb128 4
 11035 1432 00000000 		.4byte	0
 11036 1436 00000000 		.4byte	0
 11037              	.LLST86:
 11038 143a 00000000 		.4byte	.LVL262
 11039 143e 06000000 		.4byte	.LVL263
 11040 1442 0200     		.2byte	0x2
 11041 1444 91       		.byte	0x91
 11042 1445 08       		.sleb128 8
 11043 1446 06000000 		.4byte	.LVL263
 11044 144a 08000000 		.4byte	.LVL264
 11045 144e 0200     		.2byte	0x2
 11046 1450 74       		.byte	0x74
 11047 1451 08       		.sleb128 8
 11048 1452 08000000 		.4byte	.LVL264
ARM GAS  C:\Users\ddemidov\AppData\Local\Temp\ccr947bU.s 			page 224


 11049 1456 0A000000 		.4byte	.LVL265
 11050 145a 0200     		.2byte	0x2
 11051 145c 74       		.byte	0x74
 11052 145d 04       		.sleb128 4
 11053 145e 0A000000 		.4byte	.LVL265
 11054 1462 36000000 		.4byte	.LFE21
 11055 1466 0200     		.2byte	0x2
 11056 1468 91       		.byte	0x91
 11057 1469 08       		.sleb128 8
 11058 146a 00000000 		.4byte	0
 11059 146e 00000000 		.4byte	0
 11060              	.LLST87:
 11061 1472 00000000 		.4byte	.LVL262
 11062 1476 06000000 		.4byte	.LVL263
 11063 147a 0200     		.2byte	0x2
 11064 147c 91       		.byte	0x91
 11065 147d 0C       		.sleb128 12
 11066 147e 06000000 		.4byte	.LVL263
 11067 1482 08000000 		.4byte	.LVL264
 11068 1486 0200     		.2byte	0x2
 11069 1488 74       		.byte	0x74
 11070 1489 0C       		.sleb128 12
 11071 148a 08000000 		.4byte	.LVL264
 11072 148e 0A000000 		.4byte	.LVL265
 11073 1492 0200     		.2byte	0x2
 11074 1494 74       		.byte	0x74
 11075 1495 08       		.sleb128 8
 11076 1496 0A000000 		.4byte	.LVL265
 11077 149a 36000000 		.4byte	.LFE21
 11078 149e 0200     		.2byte	0x2
 11079 14a0 91       		.byte	0x91
 11080 14a1 0C       		.sleb128 12
 11081 14a2 00000000 		.4byte	0
 11082 14a6 00000000 		.4byte	0
 11083              	.LLST88:
 11084 14aa 00000000 		.4byte	.LVL262
 11085 14ae 06000000 		.4byte	.LVL263
 11086 14b2 0200     		.2byte	0x2
 11087 14b4 91       		.byte	0x91
 11088 14b5 10       		.sleb128 16
 11089 14b6 06000000 		.4byte	.LVL263
 11090 14ba 08000000 		.4byte	.LVL264
 11091 14be 0200     		.2byte	0x2
 11092 14c0 74       		.byte	0x74
 11093 14c1 10       		.sleb128 16
 11094 14c2 08000000 		.4byte	.LVL264
 11095 14c6 0A000000 		.4byte	.LVL265
 11096 14ca 0200     		.2byte	0x2
 11097 14cc 74       		.byte	0x74
 11098 14cd 0C       		.sleb128 12
 11099 14ce 0A000000 		.4byte	.LVL265
 11100 14d2 36000000 		.4byte	.LFE21
 11101 14d6 0200     		.2byte	0x2
 11102 14d8 91       		.byte	0x91
 11103 14d9 10       		.sleb128 16
 11104 14da 00000000 		.4byte	0
 11105 14de 00000000 		.4byte	0
ARM GAS  C:\Users\ddemidov\AppData\Local\Temp\ccr947bU.s 			page 225


 11106              	.LLST89:
 11107 14e2 18000000 		.4byte	.LVL266
 11108 14e6 1A000000 		.4byte	.LVL267
 11109 14ea 0100     		.2byte	0x1
 11110 14ec 50       		.byte	0x50
 11111 14ed 2C000000 		.4byte	.LVL269
 11112 14f1 2E000000 		.4byte	.LVL270
 11113 14f5 0100     		.2byte	0x1
 11114 14f7 50       		.byte	0x50
 11115 14f8 32000000 		.4byte	.LVL272
 11116 14fc 36000000 		.4byte	.LFE21
 11117 1500 0100     		.2byte	0x1
 11118 1502 50       		.byte	0x50
 11119 1503 00000000 		.4byte	0
 11120 1507 00000000 		.4byte	0
 11121              	.LLST90:
 11122 150b 00000000 		.4byte	.LVL273
 11123 150f 20000000 		.4byte	.LVL274
 11124 1513 0100     		.2byte	0x1
 11125 1515 50       		.byte	0x50
 11126 1516 20000000 		.4byte	.LVL274
 11127 151a 22000000 		.4byte	.LFE12
 11128 151e 0400     		.2byte	0x4
 11129 1520 F3       		.byte	0xf3
 11130 1521 01       		.uleb128 0x1
 11131 1522 50       		.byte	0x50
 11132 1523 9F       		.byte	0x9f
 11133 1524 00000000 		.4byte	0
 11134 1528 00000000 		.4byte	0
 11135              	.LLST91:
 11136 152c 00000000 		.4byte	.LVL275
 11137 1530 12000000 		.4byte	.LVL276
 11138 1534 0100     		.2byte	0x1
 11139 1536 50       		.byte	0x50
 11140 1537 12000000 		.4byte	.LVL276
 11141 153b 4C000000 		.4byte	.LVL284
 11142 153f 0100     		.2byte	0x1
 11143 1541 54       		.byte	0x54
 11144 1542 4C000000 		.4byte	.LVL284
 11145 1546 50000000 		.4byte	.LFE13
 11146 154a 0400     		.2byte	0x4
 11147 154c F3       		.byte	0xf3
 11148 154d 01       		.uleb128 0x1
 11149 154e 50       		.byte	0x50
 11150 154f 9F       		.byte	0x9f
 11151 1550 00000000 		.4byte	0
 11152 1554 00000000 		.4byte	0
 11153              	.LLST92:
 11154 1558 00000000 		.4byte	.LVL285
 11155 155c 0E000000 		.4byte	.LVL286
 11156 1560 0100     		.2byte	0x1
 11157 1562 50       		.byte	0x50
 11158 1563 0E000000 		.4byte	.LVL286
 11159 1567 64000000 		.4byte	.LVL303
 11160 156b 0100     		.2byte	0x1
 11161 156d 57       		.byte	0x57
 11162 156e 64000000 		.4byte	.LVL303
ARM GAS  C:\Users\ddemidov\AppData\Local\Temp\ccr947bU.s 			page 226


 11163 1572 66000000 		.4byte	.LFE23
 11164 1576 0400     		.2byte	0x4
 11165 1578 F3       		.byte	0xf3
 11166 1579 01       		.uleb128 0x1
 11167 157a 50       		.byte	0x50
 11168 157b 9F       		.byte	0x9f
 11169 157c 00000000 		.4byte	0
 11170 1580 00000000 		.4byte	0
 11171              	.LLST93:
 11172 1584 00000000 		.4byte	.LVL285
 11173 1588 11000000 		.4byte	.LVL287-1
 11174 158c 0100     		.2byte	0x1
 11175 158e 51       		.byte	0x51
 11176 158f 11000000 		.4byte	.LVL287-1
 11177 1593 64000000 		.4byte	.LVL301
 11178 1597 0100     		.2byte	0x1
 11179 1599 55       		.byte	0x55
 11180 159a 64000000 		.4byte	.LVL301
 11181 159e 66000000 		.4byte	.LFE23
 11182 15a2 0400     		.2byte	0x4
 11183 15a4 F3       		.byte	0xf3
 11184 15a5 01       		.uleb128 0x1
 11185 15a6 51       		.byte	0x51
 11186 15a7 9F       		.byte	0x9f
 11187 15a8 00000000 		.4byte	0
 11188 15ac 00000000 		.4byte	0
 11189              	.LLST94:
 11190 15b0 00000000 		.4byte	.LVL285
 11191 15b4 11000000 		.4byte	.LVL287-1
 11192 15b8 0100     		.2byte	0x1
 11193 15ba 52       		.byte	0x52
 11194 15bb 11000000 		.4byte	.LVL287-1
 11195 15bf 64000000 		.4byte	.LVL302
 11196 15c3 0100     		.2byte	0x1
 11197 15c5 56       		.byte	0x56
 11198 15c6 64000000 		.4byte	.LVL302
 11199 15ca 66000000 		.4byte	.LFE23
 11200 15ce 0400     		.2byte	0x4
 11201 15d0 F3       		.byte	0xf3
 11202 15d1 01       		.uleb128 0x1
 11203 15d2 52       		.byte	0x52
 11204 15d3 9F       		.byte	0x9f
 11205 15d4 00000000 		.4byte	0
 11206 15d8 00000000 		.4byte	0
 11207              	.LLST95:
 11208 15dc 00000000 		.4byte	.LVL285
 11209 15e0 11000000 		.4byte	.LVL287-1
 11210 15e4 0100     		.2byte	0x1
 11211 15e6 53       		.byte	0x53
 11212 15e7 11000000 		.4byte	.LVL287-1
 11213 15eb 4A000000 		.4byte	.LVL292
 11214 15ef 0200     		.2byte	0x2
 11215 15f1 91       		.byte	0x91
 11216 15f2 64       		.sleb128 -28
 11217 15f3 4A000000 		.4byte	.LVL292
 11218 15f7 4D000000 		.4byte	.LVL293-1
 11219 15fb 0200     		.2byte	0x2
ARM GAS  C:\Users\ddemidov\AppData\Local\Temp\ccr947bU.s 			page 227


 11220 15fd 73       		.byte	0x73
 11221 15fe 00       		.sleb128 0
 11222 15ff 4D000000 		.4byte	.LVL293-1
 11223 1603 66000000 		.4byte	.LFE23
 11224 1607 0200     		.2byte	0x2
 11225 1609 91       		.byte	0x91
 11226 160a 64       		.sleb128 -28
 11227 160b 00000000 		.4byte	0
 11228 160f 00000000 		.4byte	0
 11229              	.LLST96:
 11230 1613 14000000 		.4byte	.LVL288
 11231 1617 2C000000 		.4byte	.LVL289
 11232 161b 0100     		.2byte	0x1
 11233 161d 50       		.byte	0x50
 11234 161e 2C000000 		.4byte	.LVL289
 11235 1622 58000000 		.4byte	.LVL296
 11236 1626 0100     		.2byte	0x1
 11237 1628 54       		.byte	0x54
 11238 1629 58000000 		.4byte	.LVL296
 11239 162d 5A000000 		.4byte	.LVL297
 11240 1631 0100     		.2byte	0x1
 11241 1633 50       		.byte	0x50
 11242 1634 5A000000 		.4byte	.LVL297
 11243 1638 5E000000 		.4byte	.LVL298
 11244 163c 0100     		.2byte	0x1
 11245 163e 54       		.byte	0x54
 11246 163f 5E000000 		.4byte	.LVL298
 11247 1643 60000000 		.4byte	.LVL299
 11248 1647 0100     		.2byte	0x1
 11249 1649 50       		.byte	0x50
 11250 164a 60000000 		.4byte	.LVL299
 11251 164e 64000000 		.4byte	.LVL300
 11252 1652 0100     		.2byte	0x1
 11253 1654 54       		.byte	0x54
 11254 1655 00000000 		.4byte	0
 11255 1659 00000000 		.4byte	0
 11256              	.LLST97:
 11257 165d 36000000 		.4byte	.LVL290
 11258 1661 44000000 		.4byte	.LVL291
 11259 1665 0100     		.2byte	0x1
 11260 1667 50       		.byte	0x50
 11261 1668 4E000000 		.4byte	.LVL293
 11262 166c 56000000 		.4byte	.LVL295
 11263 1670 0100     		.2byte	0x1
 11264 1672 50       		.byte	0x50
 11265 1673 00000000 		.4byte	0
 11266 1677 00000000 		.4byte	0
 11267              	.LLST98:
 11268 167b 00000000 		.4byte	.LVL304
 11269 167f 12000000 		.4byte	.LVL306
 11270 1683 0100     		.2byte	0x1
 11271 1685 50       		.byte	0x50
 11272 1686 12000000 		.4byte	.LVL306
 11273 168a 7C000000 		.4byte	.LFE24
 11274 168e 0200     		.2byte	0x2
 11275 1690 91       		.byte	0x91
 11276 1691 60       		.sleb128 -32
ARM GAS  C:\Users\ddemidov\AppData\Local\Temp\ccr947bU.s 			page 228


 11277 1692 00000000 		.4byte	0
 11278 1696 00000000 		.4byte	0
 11279              	.LLST99:
 11280 169a 00000000 		.4byte	.LVL304
 11281 169e 15000000 		.4byte	.LVL307-1
 11282 16a2 0100     		.2byte	0x1
 11283 16a4 51       		.byte	0x51
 11284 16a5 15000000 		.4byte	.LVL307-1
 11285 16a9 7A000000 		.4byte	.LVL321
 11286 16ad 0100     		.2byte	0x1
 11287 16af 55       		.byte	0x55
 11288 16b0 7A000000 		.4byte	.LVL321
 11289 16b4 7C000000 		.4byte	.LFE24
 11290 16b8 0400     		.2byte	0x4
 11291 16ba F3       		.byte	0xf3
 11292 16bb 01       		.uleb128 0x1
 11293 16bc 51       		.byte	0x51
 11294 16bd 9F       		.byte	0x9f
 11295 16be 00000000 		.4byte	0
 11296 16c2 00000000 		.4byte	0
 11297              	.LLST100:
 11298 16c6 00000000 		.4byte	.LVL304
 11299 16ca 15000000 		.4byte	.LVL307-1
 11300 16ce 0100     		.2byte	0x1
 11301 16d0 52       		.byte	0x52
 11302 16d1 15000000 		.4byte	.LVL307-1
 11303 16d5 7A000000 		.4byte	.LVL322
 11304 16d9 0100     		.2byte	0x1
 11305 16db 56       		.byte	0x56
 11306 16dc 7A000000 		.4byte	.LVL322
 11307 16e0 7C000000 		.4byte	.LFE24
 11308 16e4 0400     		.2byte	0x4
 11309 16e6 F3       		.byte	0xf3
 11310 16e7 01       		.uleb128 0x1
 11311 16e8 52       		.byte	0x52
 11312 16e9 9F       		.byte	0x9f
 11313 16ea 00000000 		.4byte	0
 11314 16ee 00000000 		.4byte	0
 11315              	.LLST101:
 11316 16f2 00000000 		.4byte	.LVL304
 11317 16f6 0E000000 		.4byte	.LVL305
 11318 16fa 0100     		.2byte	0x1
 11319 16fc 53       		.byte	0x53
 11320 16fd 0E000000 		.4byte	.LVL305
 11321 1701 60000000 		.4byte	.LVL312
 11322 1705 0200     		.2byte	0x2
 11323 1707 91       		.byte	0x91
 11324 1708 64       		.sleb128 -28
 11325 1709 60000000 		.4byte	.LVL312
 11326 170d 63000000 		.4byte	.LVL313-1
 11327 1711 0200     		.2byte	0x2
 11328 1713 73       		.byte	0x73
 11329 1714 00       		.sleb128 0
 11330 1715 63000000 		.4byte	.LVL313-1
 11331 1719 7C000000 		.4byte	.LFE24
 11332 171d 0200     		.2byte	0x2
 11333 171f 91       		.byte	0x91
ARM GAS  C:\Users\ddemidov\AppData\Local\Temp\ccr947bU.s 			page 229


 11334 1720 64       		.sleb128 -28
 11335 1721 00000000 		.4byte	0
 11336 1725 00000000 		.4byte	0
 11337              	.LLST102:
 11338 1729 00000000 		.4byte	.LVL304
 11339 172d 0E000000 		.4byte	.LVL305
 11340 1731 0200     		.2byte	0x2
 11341 1733 91       		.byte	0x91
 11342 1734 0C       		.sleb128 12
 11343 1735 0E000000 		.4byte	.LVL305
 11344 1739 15000000 		.4byte	.LVL307-1
 11345 173d 0200     		.2byte	0x2
 11346 173f 73       		.byte	0x73
 11347 1740 00       		.sleb128 0
 11348 1741 15000000 		.4byte	.LVL307-1
 11349 1745 7C000000 		.4byte	.LFE24
 11350 1749 0200     		.2byte	0x2
 11351 174b 91       		.byte	0x91
 11352 174c 0C       		.sleb128 12
 11353 174d 00000000 		.4byte	0
 11354 1751 00000000 		.4byte	0
 11355              	.LLST103:
 11356 1755 18000000 		.4byte	.LVL308
 11357 1759 42000000 		.4byte	.LVL309
 11358 175d 0100     		.2byte	0x1
 11359 175f 50       		.byte	0x50
 11360 1760 42000000 		.4byte	.LVL309
 11361 1764 6E000000 		.4byte	.LVL316
 11362 1768 0100     		.2byte	0x1
 11363 176a 54       		.byte	0x54
 11364 176b 6E000000 		.4byte	.LVL316
 11365 176f 70000000 		.4byte	.LVL317
 11366 1773 0100     		.2byte	0x1
 11367 1775 50       		.byte	0x50
 11368 1776 70000000 		.4byte	.LVL317
 11369 177a 74000000 		.4byte	.LVL318
 11370 177e 0100     		.2byte	0x1
 11371 1780 54       		.byte	0x54
 11372 1781 74000000 		.4byte	.LVL318
 11373 1785 76000000 		.4byte	.LVL319
 11374 1789 0100     		.2byte	0x1
 11375 178b 50       		.byte	0x50
 11376 178c 76000000 		.4byte	.LVL319
 11377 1790 7A000000 		.4byte	.LVL320
 11378 1794 0100     		.2byte	0x1
 11379 1796 54       		.byte	0x54
 11380 1797 00000000 		.4byte	0
 11381 179b 00000000 		.4byte	0
 11382              	.LLST104:
 11383 179f 4C000000 		.4byte	.LVL310
 11384 17a3 5A000000 		.4byte	.LVL311
 11385 17a7 0100     		.2byte	0x1
 11386 17a9 50       		.byte	0x50
 11387 17aa 64000000 		.4byte	.LVL313
 11388 17ae 6C000000 		.4byte	.LVL315
 11389 17b2 0100     		.2byte	0x1
 11390 17b4 50       		.byte	0x50
ARM GAS  C:\Users\ddemidov\AppData\Local\Temp\ccr947bU.s 			page 230


 11391 17b5 00000000 		.4byte	0
 11392 17b9 00000000 		.4byte	0
 11393              	.LLST105:
 11394 17bd 00000000 		.4byte	.LVL323
 11395 17c1 19000000 		.4byte	.LVL326-1
 11396 17c5 0100     		.2byte	0x1
 11397 17c7 50       		.byte	0x50
 11398 17c8 19000000 		.4byte	.LVL326-1
 11399 17cc 2C000000 		.4byte	.LVL329
 11400 17d0 0100     		.2byte	0x1
 11401 17d2 54       		.byte	0x54
 11402 17d3 2C000000 		.4byte	.LVL329
 11403 17d7 2E000000 		.4byte	.LFE25
 11404 17db 0400     		.2byte	0x4
 11405 17dd F3       		.byte	0xf3
 11406 17de 01       		.uleb128 0x1
 11407 17df 50       		.byte	0x50
 11408 17e0 9F       		.byte	0x9f
 11409 17e1 00000000 		.4byte	0
 11410 17e5 00000000 		.4byte	0
 11411              	.LLST106:
 11412 17e9 00000000 		.4byte	.LVL323
 11413 17ed 19000000 		.4byte	.LVL326-1
 11414 17f1 0100     		.2byte	0x1
 11415 17f3 51       		.byte	0x51
 11416 17f4 19000000 		.4byte	.LVL326-1
 11417 17f8 2E000000 		.4byte	.LFE25
 11418 17fc 0200     		.2byte	0x2
 11419 17fe 91       		.byte	0x91
 11420 17ff 6C       		.sleb128 -20
 11421 1800 00000000 		.4byte	0
 11422 1804 00000000 		.4byte	0
 11423              	.LLST107:
 11424 1808 00000000 		.4byte	.LVL323
 11425 180c 0C000000 		.4byte	.LVL324
 11426 1810 0100     		.2byte	0x1
 11427 1812 52       		.byte	0x52
 11428 1813 0C000000 		.4byte	.LVL324
 11429 1817 2C000000 		.4byte	.LVL330
 11430 181b 0100     		.2byte	0x1
 11431 181d 55       		.byte	0x55
 11432 181e 2C000000 		.4byte	.LVL330
 11433 1822 2E000000 		.4byte	.LFE25
 11434 1826 0400     		.2byte	0x4
 11435 1828 F3       		.byte	0xf3
 11436 1829 01       		.uleb128 0x1
 11437 182a 52       		.byte	0x52
 11438 182b 9F       		.byte	0x9f
 11439 182c 00000000 		.4byte	0
 11440 1830 00000000 		.4byte	0
 11441              	.LLST108:
 11442 1834 00000000 		.4byte	.LVL323
 11443 1838 16000000 		.4byte	.LVL325
 11444 183c 0100     		.2byte	0x1
 11445 183e 53       		.byte	0x53
 11446 183f 16000000 		.4byte	.LVL325
 11447 1843 19000000 		.4byte	.LVL326-1
ARM GAS  C:\Users\ddemidov\AppData\Local\Temp\ccr947bU.s 			page 231


 11448 1847 0200     		.2byte	0x2
 11449 1849 91       		.byte	0x91
 11450 184a 64       		.sleb128 -28
 11451 184b 19000000 		.4byte	.LVL326-1
 11452 184f 2E000000 		.4byte	.LFE25
 11453 1853 0400     		.2byte	0x4
 11454 1855 F3       		.byte	0xf3
 11455 1856 01       		.uleb128 0x1
 11456 1857 53       		.byte	0x53
 11457 1858 9F       		.byte	0x9f
 11458 1859 00000000 		.4byte	0
 11459 185d 00000000 		.4byte	0
 11460              	.LLST109:
 11461 1861 1A000000 		.4byte	.LVL326
 11462 1865 20000000 		.4byte	.LVL327
 11463 1869 0100     		.2byte	0x1
 11464 186b 50       		.byte	0x50
 11465 186c 00000000 		.4byte	0
 11466 1870 00000000 		.4byte	0
 11467              	.LLST110:
 11468 1874 00000000 		.4byte	.LVL331
 11469 1878 2C000000 		.4byte	.LVL335
 11470 187c 0100     		.2byte	0x1
 11471 187e 50       		.byte	0x50
 11472 187f 2C000000 		.4byte	.LVL335
 11473 1883 58000000 		.4byte	.LVL341
 11474 1887 0100     		.2byte	0x1
 11475 1889 54       		.byte	0x54
 11476 188a 58000000 		.4byte	.LVL341
 11477 188e 5A000000 		.4byte	.LVL342
 11478 1892 0100     		.2byte	0x1
 11479 1894 50       		.byte	0x50
 11480 1895 5A000000 		.4byte	.LVL342
 11481 1899 5E000000 		.4byte	.LVL343
 11482 189d 0100     		.2byte	0x1
 11483 189f 54       		.byte	0x54
 11484 18a0 5E000000 		.4byte	.LVL343
 11485 18a4 60000000 		.4byte	.LVL344
 11486 18a8 0100     		.2byte	0x1
 11487 18aa 50       		.byte	0x50
 11488 18ab 60000000 		.4byte	.LVL344
 11489 18af 64000000 		.4byte	.LVL345
 11490 18b3 0100     		.2byte	0x1
 11491 18b5 54       		.byte	0x54
 11492 18b6 64000000 		.4byte	.LVL345
 11493 18ba 66000000 		.4byte	.LVL346
 11494 18be 0100     		.2byte	0x1
 11495 18c0 50       		.byte	0x50
 11496 18c1 66000000 		.4byte	.LVL346
 11497 18c5 6A000000 		.4byte	.LVL348
 11498 18c9 0100     		.2byte	0x1
 11499 18cb 54       		.byte	0x54
 11500 18cc 6A000000 		.4byte	.LVL348
 11501 18d0 6C000000 		.4byte	.LFE26
 11502 18d4 0400     		.2byte	0x4
 11503 18d6 F3       		.byte	0xf3
 11504 18d7 01       		.uleb128 0x1
ARM GAS  C:\Users\ddemidov\AppData\Local\Temp\ccr947bU.s 			page 232


 11505 18d8 50       		.byte	0x50
 11506 18d9 9F       		.byte	0x9f
 11507 18da 00000000 		.4byte	0
 11508 18de 00000000 		.4byte	0
 11509              	.LLST111:
 11510 18e2 00000000 		.4byte	.LVL331
 11511 18e6 2E000000 		.4byte	.LVL336
 11512 18ea 0100     		.2byte	0x1
 11513 18ec 51       		.byte	0x51
 11514 18ed 2E000000 		.4byte	.LVL336
 11515 18f1 32000000 		.4byte	.LVL337
 11516 18f5 0200     		.2byte	0x2
 11517 18f7 91       		.byte	0x91
 11518 18f8 64       		.sleb128 -28
 11519 18f9 32000000 		.4byte	.LVL337
 11520 18fd 35000000 		.4byte	.LVL338-1
 11521 1901 0200     		.2byte	0x2
 11522 1903 73       		.byte	0x73
 11523 1904 00       		.sleb128 0
 11524 1905 35000000 		.4byte	.LVL338-1
 11525 1909 58000000 		.4byte	.LVL341
 11526 190d 0200     		.2byte	0x2
 11527 190f 91       		.byte	0x91
 11528 1910 64       		.sleb128 -28
 11529 1911 58000000 		.4byte	.LVL341
 11530 1915 68000000 		.4byte	.LVL347
 11531 1919 0100     		.2byte	0x1
 11532 191b 51       		.byte	0x51
 11533 191c 68000000 		.4byte	.LVL347
 11534 1920 6C000000 		.4byte	.LFE26
 11535 1924 0200     		.2byte	0x2
 11536 1926 91       		.byte	0x91
 11537 1927 64       		.sleb128 -28
 11538 1928 00000000 		.4byte	0
 11539 192c 00000000 		.4byte	0
 11540              	.LLST112:
 11541 1930 00000000 		.4byte	.LVL331
 11542 1934 0C000000 		.4byte	.LVL332
 11543 1938 0100     		.2byte	0x1
 11544 193a 52       		.byte	0x52
 11545 193b 0C000000 		.4byte	.LVL332
 11546 193f 6A000000 		.4byte	.LVL349
 11547 1943 0100     		.2byte	0x1
 11548 1945 55       		.byte	0x55
 11549 1946 6A000000 		.4byte	.LVL349
 11550 194a 6C000000 		.4byte	.LFE26
 11551 194e 0400     		.2byte	0x4
 11552 1950 F3       		.byte	0xf3
 11553 1951 01       		.uleb128 0x1
 11554 1952 52       		.byte	0x52
 11555 1953 9F       		.byte	0x9f
 11556 1954 00000000 		.4byte	0
 11557 1958 00000000 		.4byte	0
 11558              	.LLST113:
 11559 195c 00000000 		.4byte	.LVL331
 11560 1960 32000000 		.4byte	.LVL337
 11561 1964 0100     		.2byte	0x1
ARM GAS  C:\Users\ddemidov\AppData\Local\Temp\ccr947bU.s 			page 233


 11562 1966 53       		.byte	0x53
 11563 1967 32000000 		.4byte	.LVL337
 11564 196b 35000000 		.4byte	.LVL338-1
 11565 196f 0200     		.2byte	0x2
 11566 1971 91       		.byte	0x91
 11567 1972 4C       		.sleb128 -52
 11568 1973 35000000 		.4byte	.LVL338-1
 11569 1977 58000000 		.4byte	.LVL341
 11570 197b 0400     		.2byte	0x4
 11571 197d F3       		.byte	0xf3
 11572 197e 01       		.uleb128 0x1
 11573 197f 53       		.byte	0x53
 11574 1980 9F       		.byte	0x9f
 11575 1981 58000000 		.4byte	.LVL341
 11576 1985 68000000 		.4byte	.LVL347
 11577 1989 0100     		.2byte	0x1
 11578 198b 53       		.byte	0x53
 11579 198c 68000000 		.4byte	.LVL347
 11580 1990 6C000000 		.4byte	.LFE26
 11581 1994 0400     		.2byte	0x4
 11582 1996 F3       		.byte	0xf3
 11583 1997 01       		.uleb128 0x1
 11584 1998 53       		.byte	0x53
 11585 1999 9F       		.byte	0x9f
 11586 199a 00000000 		.4byte	0
 11587 199e 00000000 		.4byte	0
 11588              	.LLST114:
 11589 19a2 00000000 		.4byte	.LVL331
 11590 19a6 0C000000 		.4byte	.LVL332
 11591 19aa 0200     		.2byte	0x2
 11592 19ac 91       		.byte	0x91
 11593 19ad 00       		.sleb128 0
 11594 19ae 0C000000 		.4byte	.LVL332
 11595 19b2 0E000000 		.4byte	.LVL333
 11596 19b6 0200     		.2byte	0x2
 11597 19b8 72       		.byte	0x72
 11598 19b9 00       		.sleb128 0
 11599 19ba 0E000000 		.4byte	.LVL333
 11600 19be 1A000000 		.4byte	.LVL334
 11601 19c2 0200     		.2byte	0x2
 11602 19c4 72       		.byte	0x72
 11603 19c5 7C       		.sleb128 -4
 11604 19c6 1A000000 		.4byte	.LVL334
 11605 19ca 6C000000 		.4byte	.LFE26
 11606 19ce 0200     		.2byte	0x2
 11607 19d0 91       		.byte	0x91
 11608 19d1 00       		.sleb128 0
 11609 19d2 00000000 		.4byte	0
 11610 19d6 00000000 		.4byte	0
 11611              	.LLST115:
 11612 19da 00000000 		.4byte	.LVL331
 11613 19de 0C000000 		.4byte	.LVL332
 11614 19e2 0200     		.2byte	0x2
 11615 19e4 91       		.byte	0x91
 11616 19e5 04       		.sleb128 4
 11617 19e6 0C000000 		.4byte	.LVL332
 11618 19ea 0E000000 		.4byte	.LVL333
ARM GAS  C:\Users\ddemidov\AppData\Local\Temp\ccr947bU.s 			page 234


 11619 19ee 0200     		.2byte	0x2
 11620 19f0 72       		.byte	0x72
 11621 19f1 04       		.sleb128 4
 11622 19f2 0E000000 		.4byte	.LVL333
 11623 19f6 1A000000 		.4byte	.LVL334
 11624 19fa 0200     		.2byte	0x2
 11625 19fc 72       		.byte	0x72
 11626 19fd 00       		.sleb128 0
 11627 19fe 1A000000 		.4byte	.LVL334
 11628 1a02 58000000 		.4byte	.LVL341
 11629 1a06 0200     		.2byte	0x2
 11630 1a08 91       		.byte	0x91
 11631 1a09 04       		.sleb128 4
 11632 1a0a 58000000 		.4byte	.LVL341
 11633 1a0e 64000000 		.4byte	.LVL345
 11634 1a12 0200     		.2byte	0x2
 11635 1a14 72       		.byte	0x72
 11636 1a15 00       		.sleb128 0
 11637 1a16 64000000 		.4byte	.LVL345
 11638 1a1a 6C000000 		.4byte	.LFE26
 11639 1a1e 0200     		.2byte	0x2
 11640 1a20 91       		.byte	0x91
 11641 1a21 04       		.sleb128 4
 11642 1a22 00000000 		.4byte	0
 11643 1a26 00000000 		.4byte	0
 11644              	.LLST116:
 11645 1a2a 00000000 		.4byte	.LVL331
 11646 1a2e 0C000000 		.4byte	.LVL332
 11647 1a32 0200     		.2byte	0x2
 11648 1a34 91       		.byte	0x91
 11649 1a35 08       		.sleb128 8
 11650 1a36 0C000000 		.4byte	.LVL332
 11651 1a3a 0E000000 		.4byte	.LVL333
 11652 1a3e 0200     		.2byte	0x2
 11653 1a40 72       		.byte	0x72
 11654 1a41 08       		.sleb128 8
 11655 1a42 0E000000 		.4byte	.LVL333
 11656 1a46 1A000000 		.4byte	.LVL334
 11657 1a4a 0200     		.2byte	0x2
 11658 1a4c 72       		.byte	0x72
 11659 1a4d 04       		.sleb128 4
 11660 1a4e 1A000000 		.4byte	.LVL334
 11661 1a52 6C000000 		.4byte	.LFE26
 11662 1a56 0200     		.2byte	0x2
 11663 1a58 91       		.byte	0x91
 11664 1a59 08       		.sleb128 8
 11665 1a5a 00000000 		.4byte	0
 11666 1a5e 00000000 		.4byte	0
 11667              	.LLST117:
 11668 1a62 00000000 		.4byte	.LVL331
 11669 1a66 0C000000 		.4byte	.LVL332
 11670 1a6a 0200     		.2byte	0x2
 11671 1a6c 91       		.byte	0x91
 11672 1a6d 0C       		.sleb128 12
 11673 1a6e 0C000000 		.4byte	.LVL332
 11674 1a72 0E000000 		.4byte	.LVL333
 11675 1a76 0200     		.2byte	0x2
ARM GAS  C:\Users\ddemidov\AppData\Local\Temp\ccr947bU.s 			page 235


 11676 1a78 72       		.byte	0x72
 11677 1a79 0C       		.sleb128 12
 11678 1a7a 0E000000 		.4byte	.LVL333
 11679 1a7e 1A000000 		.4byte	.LVL334
 11680 1a82 0200     		.2byte	0x2
 11681 1a84 72       		.byte	0x72
 11682 1a85 08       		.sleb128 8
 11683 1a86 1A000000 		.4byte	.LVL334
 11684 1a8a 6C000000 		.4byte	.LFE26
 11685 1a8e 0200     		.2byte	0x2
 11686 1a90 91       		.byte	0x91
 11687 1a91 0C       		.sleb128 12
 11688 1a92 00000000 		.4byte	0
 11689 1a96 00000000 		.4byte	0
 11690              	.LLST118:
 11691 1a9a 00000000 		.4byte	.LVL331
 11692 1a9e 0C000000 		.4byte	.LVL332
 11693 1aa2 0200     		.2byte	0x2
 11694 1aa4 91       		.byte	0x91
 11695 1aa5 10       		.sleb128 16
 11696 1aa6 0C000000 		.4byte	.LVL332
 11697 1aaa 0E000000 		.4byte	.LVL333
 11698 1aae 0200     		.2byte	0x2
 11699 1ab0 72       		.byte	0x72
 11700 1ab1 10       		.sleb128 16
 11701 1ab2 0E000000 		.4byte	.LVL333
 11702 1ab6 1A000000 		.4byte	.LVL334
 11703 1aba 0200     		.2byte	0x2
 11704 1abc 72       		.byte	0x72
 11705 1abd 0C       		.sleb128 12
 11706 1abe 1A000000 		.4byte	.LVL334
 11707 1ac2 6C000000 		.4byte	.LFE26
 11708 1ac6 0200     		.2byte	0x2
 11709 1ac8 91       		.byte	0x91
 11710 1ac9 10       		.sleb128 16
 11711 1aca 00000000 		.4byte	0
 11712 1ace 00000000 		.4byte	0
 11713              	.LLST119:
 11714 1ad2 36000000 		.4byte	.LVL338
 11715 1ad6 4C000000 		.4byte	.LVL339
 11716 1ada 0100     		.2byte	0x1
 11717 1adc 50       		.byte	0x50
 11718 1add 00000000 		.4byte	0
 11719 1ae1 00000000 		.4byte	0
 11720              	.LLST120:
 11721 1ae5 00000000 		.4byte	.LVL350
 11722 1ae9 12000000 		.4byte	.LVL352
 11723 1aed 0100     		.2byte	0x1
 11724 1aef 50       		.byte	0x50
 11725 1af0 12000000 		.4byte	.LVL352
 11726 1af4 30000000 		.4byte	.LVL357
 11727 1af8 0100     		.2byte	0x1
 11728 1afa 55       		.byte	0x55
 11729 1afb 30000000 		.4byte	.LVL357
 11730 1aff 74000000 		.4byte	.LVL371
 11731 1b03 0400     		.2byte	0x4
 11732 1b05 F3       		.byte	0xf3
ARM GAS  C:\Users\ddemidov\AppData\Local\Temp\ccr947bU.s 			page 236


 11733 1b06 01       		.uleb128 0x1
 11734 1b07 50       		.byte	0x50
 11735 1b08 9F       		.byte	0x9f
 11736 1b09 74000000 		.4byte	.LVL371
 11737 1b0d 78000000 		.4byte	.LVL373
 11738 1b11 0100     		.2byte	0x1
 11739 1b13 55       		.byte	0x55
 11740 1b14 78000000 		.4byte	.LVL373
 11741 1b18 7C000000 		.4byte	.LFE27
 11742 1b1c 0400     		.2byte	0x4
 11743 1b1e F3       		.byte	0xf3
 11744 1b1f 01       		.uleb128 0x1
 11745 1b20 50       		.byte	0x50
 11746 1b21 9F       		.byte	0x9f
 11747 1b22 00000000 		.4byte	0
 11748 1b26 00000000 		.4byte	0
 11749              	.LLST121:
 11750 1b2a 00000000 		.4byte	.LVL350
 11751 1b2e 15000000 		.4byte	.LVL353-1
 11752 1b32 0100     		.2byte	0x1
 11753 1b34 51       		.byte	0x51
 11754 1b35 15000000 		.4byte	.LVL353-1
 11755 1b39 58000000 		.4byte	.LVL366
 11756 1b3d 0100     		.2byte	0x1
 11757 1b3f 57       		.byte	0x57
 11758 1b40 58000000 		.4byte	.LVL366
 11759 1b44 74000000 		.4byte	.LVL371
 11760 1b48 0400     		.2byte	0x4
 11761 1b4a F3       		.byte	0xf3
 11762 1b4b 01       		.uleb128 0x1
 11763 1b4c 51       		.byte	0x51
 11764 1b4d 9F       		.byte	0x9f
 11765 1b4e 74000000 		.4byte	.LVL371
 11766 1b52 78000000 		.4byte	.LVL373
 11767 1b56 0100     		.2byte	0x1
 11768 1b58 57       		.byte	0x57
 11769 1b59 78000000 		.4byte	.LVL373
 11770 1b5d 7C000000 		.4byte	.LFE27
 11771 1b61 0400     		.2byte	0x4
 11772 1b63 F3       		.byte	0xf3
 11773 1b64 01       		.uleb128 0x1
 11774 1b65 51       		.byte	0x51
 11775 1b66 9F       		.byte	0x9f
 11776 1b67 00000000 		.4byte	0
 11777 1b6b 00000000 		.4byte	0
 11778              	.LLST122:
 11779 1b6f 00000000 		.4byte	.LVL350
 11780 1b73 15000000 		.4byte	.LVL353-1
 11781 1b77 0100     		.2byte	0x1
 11782 1b79 52       		.byte	0x52
 11783 1b7a 15000000 		.4byte	.LVL353-1
 11784 1b7e 7C000000 		.4byte	.LFE27
 11785 1b82 0200     		.2byte	0x2
 11786 1b84 91       		.byte	0x91
 11787 1b85 5C       		.sleb128 -36
 11788 1b86 00000000 		.4byte	0
 11789 1b8a 00000000 		.4byte	0
ARM GAS  C:\Users\ddemidov\AppData\Local\Temp\ccr947bU.s 			page 237


 11790              	.LLST123:
 11791 1b8e 00000000 		.4byte	.LVL350
 11792 1b92 0E000000 		.4byte	.LVL351
 11793 1b96 0100     		.2byte	0x1
 11794 1b98 53       		.byte	0x53
 11795 1b99 0E000000 		.4byte	.LVL351
 11796 1b9d 7A000000 		.4byte	.LVL375
 11797 1ba1 0100     		.2byte	0x1
 11798 1ba3 56       		.byte	0x56
 11799 1ba4 7A000000 		.4byte	.LVL375
 11800 1ba8 7C000000 		.4byte	.LFE27
 11801 1bac 0400     		.2byte	0x4
 11802 1bae F3       		.byte	0xf3
 11803 1baf 01       		.uleb128 0x1
 11804 1bb0 53       		.byte	0x53
 11805 1bb1 9F       		.byte	0x9f
 11806 1bb2 00000000 		.4byte	0
 11807 1bb6 00000000 		.4byte	0
 11808              	.LLST124:
 11809 1bba 30000000 		.4byte	.LVL357
 11810 1bbe 38000000 		.4byte	.LVL359
 11811 1bc2 0100     		.2byte	0x1
 11812 1bc4 50       		.byte	0x50
 11813 1bc5 38000000 		.4byte	.LVL359
 11814 1bc9 40000000 		.4byte	.LVL361
 11815 1bcd 0100     		.2byte	0x1
 11816 1bcf 55       		.byte	0x55
 11817 1bd0 40000000 		.4byte	.LVL361
 11818 1bd4 46000000 		.4byte	.LVL362
 11819 1bd8 0100     		.2byte	0x1
 11820 1bda 50       		.byte	0x50
 11821 1bdb 46000000 		.4byte	.LVL362
 11822 1bdf 50000000 		.4byte	.LVL364
 11823 1be3 0100     		.2byte	0x1
 11824 1be5 55       		.byte	0x55
 11825 1be6 50000000 		.4byte	.LVL364
 11826 1bea 54000000 		.4byte	.LVL365
 11827 1bee 0100     		.2byte	0x1
 11828 1bf0 50       		.byte	0x50
 11829 1bf1 54000000 		.4byte	.LVL365
 11830 1bf5 74000000 		.4byte	.LVL371
 11831 1bf9 0100     		.2byte	0x1
 11832 1bfb 55       		.byte	0x55
 11833 1bfc 00000000 		.4byte	0
 11834 1c00 00000000 		.4byte	0
 11835              	.LLST125:
 11836 1c04 18000000 		.4byte	.LVL354
 11837 1c08 21000000 		.4byte	.LVL355-1
 11838 1c0c 0100     		.2byte	0x1
 11839 1c0e 50       		.byte	0x50
 11840 1c0f 21000000 		.4byte	.LVL355-1
 11841 1c13 74000000 		.4byte	.LVL371
 11842 1c17 0100     		.2byte	0x1
 11843 1c19 54       		.byte	0x54
 11844 1c1a 74000000 		.4byte	.LVL371
 11845 1c1e 76000000 		.4byte	.LVL372
 11846 1c22 0100     		.2byte	0x1
ARM GAS  C:\Users\ddemidov\AppData\Local\Temp\ccr947bU.s 			page 238


 11847 1c24 50       		.byte	0x50
 11848 1c25 76000000 		.4byte	.LVL372
 11849 1c29 7A000000 		.4byte	.LVL374
 11850 1c2d 0100     		.2byte	0x1
 11851 1c2f 54       		.byte	0x54
 11852 1c30 00000000 		.4byte	0
 11853 1c34 00000000 		.4byte	0
 11854              	.LLST126:
 11855 1c38 32000000 		.4byte	.LVL358
 11856 1c3c 40000000 		.4byte	.LVL361
 11857 1c40 0100     		.2byte	0x1
 11858 1c42 54       		.byte	0x54
 11859 1c43 00000000 		.4byte	0
 11860 1c47 00000000 		.4byte	0
 11861              	.LLST127:
 11862 1c4b 54000000 		.4byte	.LVL365
 11863 1c4f 58000000 		.4byte	.LVL366
 11864 1c53 0100     		.2byte	0x1
 11865 1c55 57       		.byte	0x57
 11866 1c56 58000000 		.4byte	.LVL366
 11867 1c5a 60000000 		.4byte	.LVL367
 11868 1c5e 0100     		.2byte	0x1
 11869 1c60 52       		.byte	0x52
 11870 1c61 60000000 		.4byte	.LVL367
 11871 1c65 62000000 		.4byte	.LVL368
 11872 1c69 0100     		.2byte	0x1
 11873 1c6b 57       		.byte	0x57
 11874 1c6c 62000000 		.4byte	.LVL368
 11875 1c70 6F000000 		.4byte	.LVL370-1
 11876 1c74 0100     		.2byte	0x1
 11877 1c76 52       		.byte	0x52
 11878 1c77 6F000000 		.4byte	.LVL370-1
 11879 1c7b 74000000 		.4byte	.LVL371
 11880 1c7f 0300     		.2byte	0x3
 11881 1c81 77       		.byte	0x77
 11882 1c82 7F       		.sleb128 -1
 11883 1c83 9F       		.byte	0x9f
 11884 1c84 00000000 		.4byte	0
 11885 1c88 00000000 		.4byte	0
 11886              	.LLST128:
 11887 1c8c 54000000 		.4byte	.LVL365
 11888 1c90 74000000 		.4byte	.LVL371
 11889 1c94 0100     		.2byte	0x1
 11890 1c96 54       		.byte	0x54
 11891 1c97 00000000 		.4byte	0
 11892 1c9b 00000000 		.4byte	0
 11893              	.LLST129:
 11894 1c9f 54000000 		.4byte	.LVL365
 11895 1ca3 58000000 		.4byte	.LVL366
 11896 1ca7 0100     		.2byte	0x1
 11897 1ca9 54       		.byte	0x54
 11898 1caa 58000000 		.4byte	.LVL366
 11899 1cae 60000000 		.4byte	.LVL367
 11900 1cb2 0300     		.2byte	0x3
 11901 1cb4 73       		.byte	0x73
 11902 1cb5 01       		.sleb128 1
 11903 1cb6 9F       		.byte	0x9f
ARM GAS  C:\Users\ddemidov\AppData\Local\Temp\ccr947bU.s 			page 239


 11904 1cb7 60000000 		.4byte	.LVL367
 11905 1cbb 6F000000 		.4byte	.LVL370-1
 11906 1cbf 0100     		.2byte	0x1
 11907 1cc1 53       		.byte	0x53
 11908 1cc2 00000000 		.4byte	0
 11909 1cc6 00000000 		.4byte	0
 11910              	.LLST130:
 11911 1cca 66000000 		.4byte	.LVL369
 11912 1cce 74000000 		.4byte	.LVL371
 11913 1cd2 0100     		.2byte	0x1
 11914 1cd4 54       		.byte	0x54
 11915 1cd5 00000000 		.4byte	0
 11916 1cd9 00000000 		.4byte	0
 11917              	.LLST131:
 11918 1cdd 00000000 		.4byte	.LVL376
 11919 1ce1 36000000 		.4byte	.LVL379
 11920 1ce5 0100     		.2byte	0x1
 11921 1ce7 50       		.byte	0x50
 11922 1ce8 36000000 		.4byte	.LVL379
 11923 1cec 68000000 		.4byte	.LVL384
 11924 1cf0 0100     		.2byte	0x1
 11925 1cf2 56       		.byte	0x56
 11926 1cf3 68000000 		.4byte	.LVL384
 11927 1cf7 B8000000 		.4byte	.LVL398
 11928 1cfb 0400     		.2byte	0x4
 11929 1cfd F3       		.byte	0xf3
 11930 1cfe 01       		.uleb128 0x1
 11931 1cff 50       		.byte	0x50
 11932 1d00 9F       		.byte	0x9f
 11933 1d01 B8000000 		.4byte	.LVL398
 11934 1d05 BA000000 		.4byte	.LVL399
 11935 1d09 0100     		.2byte	0x1
 11936 1d0b 50       		.byte	0x50
 11937 1d0c BA000000 		.4byte	.LVL399
 11938 1d10 BE000000 		.4byte	.LVL400
 11939 1d14 0100     		.2byte	0x1
 11940 1d16 56       		.byte	0x56
 11941 1d17 BE000000 		.4byte	.LVL400
 11942 1d1b C0000000 		.4byte	.LVL401
 11943 1d1f 0100     		.2byte	0x1
 11944 1d21 50       		.byte	0x50
 11945 1d22 C0000000 		.4byte	.LVL401
 11946 1d26 C4000000 		.4byte	.LVL402
 11947 1d2a 0100     		.2byte	0x1
 11948 1d2c 56       		.byte	0x56
 11949 1d2d C4000000 		.4byte	.LVL402
 11950 1d31 C6000000 		.4byte	.LVL403
 11951 1d35 0100     		.2byte	0x1
 11952 1d37 50       		.byte	0x50
 11953 1d38 C6000000 		.4byte	.LVL403
 11954 1d3c CA000000 		.4byte	.LVL404
 11955 1d40 0100     		.2byte	0x1
 11956 1d42 56       		.byte	0x56
 11957 1d43 CA000000 		.4byte	.LVL404
 11958 1d47 CC000000 		.4byte	.LVL405
 11959 1d4b 0100     		.2byte	0x1
 11960 1d4d 50       		.byte	0x50
ARM GAS  C:\Users\ddemidov\AppData\Local\Temp\ccr947bU.s 			page 240


 11961 1d4e CC000000 		.4byte	.LVL405
 11962 1d52 D4000000 		.4byte	.LVL408
 11963 1d56 0100     		.2byte	0x1
 11964 1d58 56       		.byte	0x56
 11965 1d59 D4000000 		.4byte	.LVL408
 11966 1d5d DC000000 		.4byte	.LFE28
 11967 1d61 0400     		.2byte	0x4
 11968 1d63 F3       		.byte	0xf3
 11969 1d64 01       		.uleb128 0x1
 11970 1d65 50       		.byte	0x50
 11971 1d66 9F       		.byte	0x9f
 11972 1d67 00000000 		.4byte	0
 11973 1d6b 00000000 		.4byte	0
 11974              	.LLST132:
 11975 1d6f 00000000 		.4byte	.LVL376
 11976 1d73 39000000 		.4byte	.LVL380-1
 11977 1d77 0100     		.2byte	0x1
 11978 1d79 51       		.byte	0x51
 11979 1d7a 39000000 		.4byte	.LVL380-1
 11980 1d7e 9C000000 		.4byte	.LVL393
 11981 1d82 0100     		.2byte	0x1
 11982 1d84 54       		.byte	0x54
 11983 1d85 9C000000 		.4byte	.LVL393
 11984 1d89 B8000000 		.4byte	.LVL398
 11985 1d8d 0400     		.2byte	0x4
 11986 1d8f F3       		.byte	0xf3
 11987 1d90 01       		.uleb128 0x1
 11988 1d91 51       		.byte	0x51
 11989 1d92 9F       		.byte	0x9f
 11990 1d93 B8000000 		.4byte	.LVL398
 11991 1d97 D0000000 		.4byte	.LVL406
 11992 1d9b 0100     		.2byte	0x1
 11993 1d9d 51       		.byte	0x51
 11994 1d9e D0000000 		.4byte	.LVL406
 11995 1da2 D4000000 		.4byte	.LVL408
 11996 1da6 0100     		.2byte	0x1
 11997 1da8 54       		.byte	0x54
 11998 1da9 D4000000 		.4byte	.LVL408
 11999 1dad DC000000 		.4byte	.LFE28
 12000 1db1 0400     		.2byte	0x4
 12001 1db3 F3       		.byte	0xf3
 12002 1db4 01       		.uleb128 0x1
 12003 1db5 51       		.byte	0x51
 12004 1db6 9F       		.byte	0x9f
 12005 1db7 00000000 		.4byte	0
 12006 1dbb 00000000 		.4byte	0
 12007              	.LLST133:
 12008 1dbf 00000000 		.4byte	.LVL376
 12009 1dc3 39000000 		.4byte	.LVL380-1
 12010 1dc7 0100     		.2byte	0x1
 12011 1dc9 52       		.byte	0x52
 12012 1dca 39000000 		.4byte	.LVL380-1
 12013 1dce B8000000 		.4byte	.LVL398
 12014 1dd2 0100     		.2byte	0x1
 12015 1dd4 57       		.byte	0x57
 12016 1dd5 B8000000 		.4byte	.LVL398
 12017 1dd9 D0000000 		.4byte	.LVL406
ARM GAS  C:\Users\ddemidov\AppData\Local\Temp\ccr947bU.s 			page 241


 12018 1ddd 0100     		.2byte	0x1
 12019 1ddf 52       		.byte	0x52
 12020 1de0 D0000000 		.4byte	.LVL406
 12021 1de4 D6000000 		.4byte	.LVL409
 12022 1de8 0100     		.2byte	0x1
 12023 1dea 57       		.byte	0x57
 12024 1deb D6000000 		.4byte	.LVL409
 12025 1def DC000000 		.4byte	.LFE28
 12026 1df3 0400     		.2byte	0x4
 12027 1df5 F3       		.byte	0xf3
 12028 1df6 01       		.uleb128 0x1
 12029 1df7 52       		.byte	0x52
 12030 1df8 9F       		.byte	0x9f
 12031 1df9 00000000 		.4byte	0
 12032 1dfd 00000000 		.4byte	0
 12033              	.LLST134:
 12034 1e01 00000000 		.4byte	.LVL376
 12035 1e05 12000000 		.4byte	.LVL377
 12036 1e09 0100     		.2byte	0x1
 12037 1e0b 53       		.byte	0x53
 12038 1e0c 12000000 		.4byte	.LVL377
 12039 1e10 DC000000 		.4byte	.LFE28
 12040 1e14 0200     		.2byte	0x2
 12041 1e16 91       		.byte	0x91
 12042 1e17 5C       		.sleb128 -36
 12043 1e18 00000000 		.4byte	0
 12044 1e1c 00000000 		.4byte	0
 12045              	.LLST135:
 12046 1e20 00000000 		.4byte	.LVL376
 12047 1e24 12000000 		.4byte	.LVL377
 12048 1e28 0200     		.2byte	0x2
 12049 1e2a 91       		.byte	0x91
 12050 1e2b 08       		.sleb128 8
 12051 1e2c 12000000 		.4byte	.LVL377
 12052 1e30 14000000 		.4byte	.LVL378
 12053 1e34 0200     		.2byte	0x2
 12054 1e36 73       		.byte	0x73
 12055 1e37 00       		.sleb128 0
 12056 1e38 14000000 		.4byte	.LVL378
 12057 1e3c DC000000 		.4byte	.LFE28
 12058 1e40 0200     		.2byte	0x2
 12059 1e42 91       		.byte	0x91
 12060 1e43 08       		.sleb128 8
 12061 1e44 00000000 		.4byte	0
 12062 1e48 00000000 		.4byte	0
 12063              	.LLST136:
 12064 1e4c 68000000 		.4byte	.LVL384
 12065 1e50 70000000 		.4byte	.LVL386
 12066 1e54 0100     		.2byte	0x1
 12067 1e56 50       		.byte	0x50
 12068 1e57 70000000 		.4byte	.LVL386
 12069 1e5b 78000000 		.4byte	.LVL388
 12070 1e5f 0100     		.2byte	0x1
 12071 1e61 56       		.byte	0x56
 12072 1e62 78000000 		.4byte	.LVL388
 12073 1e66 86000000 		.4byte	.LVL389
 12074 1e6a 0100     		.2byte	0x1
ARM GAS  C:\Users\ddemidov\AppData\Local\Temp\ccr947bU.s 			page 242


 12075 1e6c 50       		.byte	0x50
 12076 1e6d 86000000 		.4byte	.LVL389
 12077 1e71 8E000000 		.4byte	.LVL391
 12078 1e75 0100     		.2byte	0x1
 12079 1e77 56       		.byte	0x56
 12080 1e78 8E000000 		.4byte	.LVL391
 12081 1e7c 98000000 		.4byte	.LVL392
 12082 1e80 0100     		.2byte	0x1
 12083 1e82 50       		.byte	0x50
 12084 1e83 98000000 		.4byte	.LVL392
 12085 1e87 B8000000 		.4byte	.LVL398
 12086 1e8b 0100     		.2byte	0x1
 12087 1e8d 56       		.byte	0x56
 12088 1e8e 00000000 		.4byte	0
 12089 1e92 00000000 		.4byte	0
 12090              	.LLST137:
 12091 1e96 3C000000 		.4byte	.LVL381
 12092 1e9a 45000000 		.4byte	.LVL382-1
 12093 1e9e 0100     		.2byte	0x1
 12094 1ea0 50       		.byte	0x50
 12095 1ea1 45000000 		.4byte	.LVL382-1
 12096 1ea5 B8000000 		.4byte	.LVL398
 12097 1ea9 0100     		.2byte	0x1
 12098 1eab 55       		.byte	0x55
 12099 1eac D0000000 		.4byte	.LVL406
 12100 1eb0 D2000000 		.4byte	.LVL407
 12101 1eb4 0100     		.2byte	0x1
 12102 1eb6 50       		.byte	0x50
 12103 1eb7 D2000000 		.4byte	.LVL407
 12104 1ebb D4000000 		.4byte	.LVL408
 12105 1ebf 0100     		.2byte	0x1
 12106 1ec1 55       		.byte	0x55
 12107 1ec2 00000000 		.4byte	0
 12108 1ec6 00000000 		.4byte	0
 12109              	.LLST138:
 12110 1eca 6A000000 		.4byte	.LVL385
 12111 1ece 78000000 		.4byte	.LVL388
 12112 1ed2 0100     		.2byte	0x1
 12113 1ed4 55       		.byte	0x55
 12114 1ed5 00000000 		.4byte	0
 12115 1ed9 00000000 		.4byte	0
 12116              	.LLST139:
 12117 1edd 98000000 		.4byte	.LVL392
 12118 1ee1 9C000000 		.4byte	.LVL393
 12119 1ee5 0100     		.2byte	0x1
 12120 1ee7 54       		.byte	0x54
 12121 1ee8 9C000000 		.4byte	.LVL393
 12122 1eec A4000000 		.4byte	.LVL394
 12123 1ef0 0100     		.2byte	0x1
 12124 1ef2 52       		.byte	0x52
 12125 1ef3 A4000000 		.4byte	.LVL394
 12126 1ef7 A6000000 		.4byte	.LVL395
 12127 1efb 0100     		.2byte	0x1
 12128 1efd 54       		.byte	0x54
 12129 1efe A6000000 		.4byte	.LVL395
 12130 1f02 B3000000 		.4byte	.LVL397-1
 12131 1f06 0100     		.2byte	0x1
ARM GAS  C:\Users\ddemidov\AppData\Local\Temp\ccr947bU.s 			page 243


 12132 1f08 52       		.byte	0x52
 12133 1f09 B3000000 		.4byte	.LVL397-1
 12134 1f0d B8000000 		.4byte	.LVL398
 12135 1f11 0300     		.2byte	0x3
 12136 1f13 74       		.byte	0x74
 12137 1f14 7F       		.sleb128 -1
 12138 1f15 9F       		.byte	0x9f
 12139 1f16 00000000 		.4byte	0
 12140 1f1a 00000000 		.4byte	0
 12141              	.LLST140:
 12142 1f1e 98000000 		.4byte	.LVL392
 12143 1f22 B8000000 		.4byte	.LVL398
 12144 1f26 0100     		.2byte	0x1
 12145 1f28 55       		.byte	0x55
 12146 1f29 00000000 		.4byte	0
 12147 1f2d 00000000 		.4byte	0
 12148              	.LLST141:
 12149 1f31 98000000 		.4byte	.LVL392
 12150 1f35 9C000000 		.4byte	.LVL393
 12151 1f39 0100     		.2byte	0x1
 12152 1f3b 55       		.byte	0x55
 12153 1f3c 9C000000 		.4byte	.LVL393
 12154 1f40 A4000000 		.4byte	.LVL394
 12155 1f44 0300     		.2byte	0x3
 12156 1f46 73       		.byte	0x73
 12157 1f47 01       		.sleb128 1
 12158 1f48 9F       		.byte	0x9f
 12159 1f49 A4000000 		.4byte	.LVL394
 12160 1f4d B3000000 		.4byte	.LVL397-1
 12161 1f51 0100     		.2byte	0x1
 12162 1f53 53       		.byte	0x53
 12163 1f54 00000000 		.4byte	0
 12164 1f58 00000000 		.4byte	0
 12165              	.LLST142:
 12166 1f5c AA000000 		.4byte	.LVL396
 12167 1f60 B8000000 		.4byte	.LVL398
 12168 1f64 0100     		.2byte	0x1
 12169 1f66 55       		.byte	0x55
 12170 1f67 00000000 		.4byte	0
 12171 1f6b 00000000 		.4byte	0
 12172              	.LLST143:
 12173 1f6f 00000000 		.4byte	.LVL410
 12174 1f73 19000000 		.4byte	.LVL413-1
 12175 1f77 0100     		.2byte	0x1
 12176 1f79 50       		.byte	0x50
 12177 1f7a 19000000 		.4byte	.LVL413-1
 12178 1f7e 2C000000 		.4byte	.LVL416
 12179 1f82 0100     		.2byte	0x1
 12180 1f84 54       		.byte	0x54
 12181 1f85 2C000000 		.4byte	.LVL416
 12182 1f89 2E000000 		.4byte	.LFE29
 12183 1f8d 0400     		.2byte	0x4
 12184 1f8f F3       		.byte	0xf3
 12185 1f90 01       		.uleb128 0x1
 12186 1f91 50       		.byte	0x50
 12187 1f92 9F       		.byte	0x9f
 12188 1f93 00000000 		.4byte	0
ARM GAS  C:\Users\ddemidov\AppData\Local\Temp\ccr947bU.s 			page 244


 12189 1f97 00000000 		.4byte	0
 12190              	.LLST144:
 12191 1f9b 00000000 		.4byte	.LVL410
 12192 1f9f 19000000 		.4byte	.LVL413-1
 12193 1fa3 0100     		.2byte	0x1
 12194 1fa5 51       		.byte	0x51
 12195 1fa6 19000000 		.4byte	.LVL413-1
 12196 1faa 2E000000 		.4byte	.LFE29
 12197 1fae 0200     		.2byte	0x2
 12198 1fb0 91       		.byte	0x91
 12199 1fb1 6C       		.sleb128 -20
 12200 1fb2 00000000 		.4byte	0
 12201 1fb6 00000000 		.4byte	0
 12202              	.LLST145:
 12203 1fba 00000000 		.4byte	.LVL410
 12204 1fbe 0C000000 		.4byte	.LVL411
 12205 1fc2 0100     		.2byte	0x1
 12206 1fc4 52       		.byte	0x52
 12207 1fc5 0C000000 		.4byte	.LVL411
 12208 1fc9 2C000000 		.4byte	.LVL417
 12209 1fcd 0100     		.2byte	0x1
 12210 1fcf 55       		.byte	0x55
 12211 1fd0 2C000000 		.4byte	.LVL417
 12212 1fd4 2E000000 		.4byte	.LFE29
 12213 1fd8 0400     		.2byte	0x4
 12214 1fda F3       		.byte	0xf3
 12215 1fdb 01       		.uleb128 0x1
 12216 1fdc 52       		.byte	0x52
 12217 1fdd 9F       		.byte	0x9f
 12218 1fde 00000000 		.4byte	0
 12219 1fe2 00000000 		.4byte	0
 12220              	.LLST146:
 12221 1fe6 00000000 		.4byte	.LVL410
 12222 1fea 16000000 		.4byte	.LVL412
 12223 1fee 0100     		.2byte	0x1
 12224 1ff0 53       		.byte	0x53
 12225 1ff1 16000000 		.4byte	.LVL412
 12226 1ff5 19000000 		.4byte	.LVL413-1
 12227 1ff9 0200     		.2byte	0x2
 12228 1ffb 91       		.byte	0x91
 12229 1ffc 64       		.sleb128 -28
 12230 1ffd 19000000 		.4byte	.LVL413-1
 12231 2001 2E000000 		.4byte	.LFE29
 12232 2005 0400     		.2byte	0x4
 12233 2007 F3       		.byte	0xf3
 12234 2008 01       		.uleb128 0x1
 12235 2009 53       		.byte	0x53
 12236 200a 9F       		.byte	0x9f
 12237 200b 00000000 		.4byte	0
 12238 200f 00000000 		.4byte	0
 12239              	.LLST147:
 12240 2013 1A000000 		.4byte	.LVL413
 12241 2017 20000000 		.4byte	.LVL414
 12242 201b 0100     		.2byte	0x1
 12243 201d 50       		.byte	0x50
 12244 201e 00000000 		.4byte	0
 12245 2022 00000000 		.4byte	0
ARM GAS  C:\Users\ddemidov\AppData\Local\Temp\ccr947bU.s 			page 245


 12246              	.LLST148:
 12247 2026 00000000 		.4byte	.LVL418
 12248 202a 12000000 		.4byte	.LVL420
 12249 202e 0100     		.2byte	0x1
 12250 2030 50       		.byte	0x50
 12251 2031 12000000 		.4byte	.LVL420
 12252 2035 30000000 		.4byte	.LVL425
 12253 2039 0100     		.2byte	0x1
 12254 203b 55       		.byte	0x55
 12255 203c 30000000 		.4byte	.LVL425
 12256 2040 74000000 		.4byte	.LVL439
 12257 2044 0400     		.2byte	0x4
 12258 2046 F3       		.byte	0xf3
 12259 2047 01       		.uleb128 0x1
 12260 2048 50       		.byte	0x50
 12261 2049 9F       		.byte	0x9f
 12262 204a 74000000 		.4byte	.LVL439
 12263 204e 78000000 		.4byte	.LVL441
 12264 2052 0100     		.2byte	0x1
 12265 2054 55       		.byte	0x55
 12266 2055 78000000 		.4byte	.LVL441
 12267 2059 7C000000 		.4byte	.LFE30
 12268 205d 0400     		.2byte	0x4
 12269 205f F3       		.byte	0xf3
 12270 2060 01       		.uleb128 0x1
 12271 2061 50       		.byte	0x50
 12272 2062 9F       		.byte	0x9f
 12273 2063 00000000 		.4byte	0
 12274 2067 00000000 		.4byte	0
 12275              	.LLST149:
 12276 206b 00000000 		.4byte	.LVL418
 12277 206f 15000000 		.4byte	.LVL421-1
 12278 2073 0100     		.2byte	0x1
 12279 2075 51       		.byte	0x51
 12280 2076 15000000 		.4byte	.LVL421-1
 12281 207a 58000000 		.4byte	.LVL434
 12282 207e 0100     		.2byte	0x1
 12283 2080 57       		.byte	0x57
 12284 2081 58000000 		.4byte	.LVL434
 12285 2085 74000000 		.4byte	.LVL439
 12286 2089 0400     		.2byte	0x4
 12287 208b F3       		.byte	0xf3
 12288 208c 01       		.uleb128 0x1
 12289 208d 51       		.byte	0x51
 12290 208e 9F       		.byte	0x9f
 12291 208f 74000000 		.4byte	.LVL439
 12292 2093 78000000 		.4byte	.LVL441
 12293 2097 0100     		.2byte	0x1
 12294 2099 57       		.byte	0x57
 12295 209a 78000000 		.4byte	.LVL441
 12296 209e 7C000000 		.4byte	.LFE30
 12297 20a2 0400     		.2byte	0x4
 12298 20a4 F3       		.byte	0xf3
 12299 20a5 01       		.uleb128 0x1
 12300 20a6 51       		.byte	0x51
 12301 20a7 9F       		.byte	0x9f
 12302 20a8 00000000 		.4byte	0
ARM GAS  C:\Users\ddemidov\AppData\Local\Temp\ccr947bU.s 			page 246


 12303 20ac 00000000 		.4byte	0
 12304              	.LLST150:
 12305 20b0 00000000 		.4byte	.LVL418
 12306 20b4 15000000 		.4byte	.LVL421-1
 12307 20b8 0100     		.2byte	0x1
 12308 20ba 52       		.byte	0x52
 12309 20bb 15000000 		.4byte	.LVL421-1
 12310 20bf 7C000000 		.4byte	.LFE30
 12311 20c3 0200     		.2byte	0x2
 12312 20c5 91       		.byte	0x91
 12313 20c6 5C       		.sleb128 -36
 12314 20c7 00000000 		.4byte	0
 12315 20cb 00000000 		.4byte	0
 12316              	.LLST151:
 12317 20cf 00000000 		.4byte	.LVL418
 12318 20d3 0E000000 		.4byte	.LVL419
 12319 20d7 0100     		.2byte	0x1
 12320 20d9 53       		.byte	0x53
 12321 20da 0E000000 		.4byte	.LVL419
 12322 20de 7A000000 		.4byte	.LVL443
 12323 20e2 0100     		.2byte	0x1
 12324 20e4 56       		.byte	0x56
 12325 20e5 7A000000 		.4byte	.LVL443
 12326 20e9 7C000000 		.4byte	.LFE30
 12327 20ed 0400     		.2byte	0x4
 12328 20ef F3       		.byte	0xf3
 12329 20f0 01       		.uleb128 0x1
 12330 20f1 53       		.byte	0x53
 12331 20f2 9F       		.byte	0x9f
 12332 20f3 00000000 		.4byte	0
 12333 20f7 00000000 		.4byte	0
 12334              	.LLST152:
 12335 20fb 30000000 		.4byte	.LVL425
 12336 20ff 38000000 		.4byte	.LVL427
 12337 2103 0100     		.2byte	0x1
 12338 2105 50       		.byte	0x50
 12339 2106 38000000 		.4byte	.LVL427
 12340 210a 40000000 		.4byte	.LVL429
 12341 210e 0100     		.2byte	0x1
 12342 2110 55       		.byte	0x55
 12343 2111 40000000 		.4byte	.LVL429
 12344 2115 46000000 		.4byte	.LVL430
 12345 2119 0100     		.2byte	0x1
 12346 211b 50       		.byte	0x50
 12347 211c 46000000 		.4byte	.LVL430
 12348 2120 50000000 		.4byte	.LVL432
 12349 2124 0100     		.2byte	0x1
 12350 2126 55       		.byte	0x55
 12351 2127 50000000 		.4byte	.LVL432
 12352 212b 54000000 		.4byte	.LVL433
 12353 212f 0100     		.2byte	0x1
 12354 2131 50       		.byte	0x50
 12355 2132 54000000 		.4byte	.LVL433
 12356 2136 74000000 		.4byte	.LVL439
 12357 213a 0100     		.2byte	0x1
 12358 213c 55       		.byte	0x55
 12359 213d 00000000 		.4byte	0
ARM GAS  C:\Users\ddemidov\AppData\Local\Temp\ccr947bU.s 			page 247


 12360 2141 00000000 		.4byte	0
 12361              	.LLST153:
 12362 2145 18000000 		.4byte	.LVL422
 12363 2149 21000000 		.4byte	.LVL423-1
 12364 214d 0100     		.2byte	0x1
 12365 214f 50       		.byte	0x50
 12366 2150 21000000 		.4byte	.LVL423-1
 12367 2154 74000000 		.4byte	.LVL439
 12368 2158 0100     		.2byte	0x1
 12369 215a 54       		.byte	0x54
 12370 215b 74000000 		.4byte	.LVL439
 12371 215f 76000000 		.4byte	.LVL440
 12372 2163 0100     		.2byte	0x1
 12373 2165 50       		.byte	0x50
 12374 2166 76000000 		.4byte	.LVL440
 12375 216a 7A000000 		.4byte	.LVL442
 12376 216e 0100     		.2byte	0x1
 12377 2170 54       		.byte	0x54
 12378 2171 00000000 		.4byte	0
 12379 2175 00000000 		.4byte	0
 12380              	.LLST154:
 12381 2179 32000000 		.4byte	.LVL426
 12382 217d 40000000 		.4byte	.LVL429
 12383 2181 0100     		.2byte	0x1
 12384 2183 54       		.byte	0x54
 12385 2184 00000000 		.4byte	0
 12386 2188 00000000 		.4byte	0
 12387              	.LLST155:
 12388 218c 54000000 		.4byte	.LVL433
 12389 2190 58000000 		.4byte	.LVL434
 12390 2194 0100     		.2byte	0x1
 12391 2196 57       		.byte	0x57
 12392 2197 58000000 		.4byte	.LVL434
 12393 219b 60000000 		.4byte	.LVL435
 12394 219f 0100     		.2byte	0x1
 12395 21a1 52       		.byte	0x52
 12396 21a2 60000000 		.4byte	.LVL435
 12397 21a6 62000000 		.4byte	.LVL436
 12398 21aa 0100     		.2byte	0x1
 12399 21ac 57       		.byte	0x57
 12400 21ad 62000000 		.4byte	.LVL436
 12401 21b1 6F000000 		.4byte	.LVL438-1
 12402 21b5 0100     		.2byte	0x1
 12403 21b7 52       		.byte	0x52
 12404 21b8 6F000000 		.4byte	.LVL438-1
 12405 21bc 74000000 		.4byte	.LVL439
 12406 21c0 0300     		.2byte	0x3
 12407 21c2 77       		.byte	0x77
 12408 21c3 7F       		.sleb128 -1
 12409 21c4 9F       		.byte	0x9f
 12410 21c5 00000000 		.4byte	0
 12411 21c9 00000000 		.4byte	0
 12412              	.LLST156:
 12413 21cd 54000000 		.4byte	.LVL433
 12414 21d1 74000000 		.4byte	.LVL439
 12415 21d5 0100     		.2byte	0x1
 12416 21d7 54       		.byte	0x54
ARM GAS  C:\Users\ddemidov\AppData\Local\Temp\ccr947bU.s 			page 248


 12417 21d8 00000000 		.4byte	0
 12418 21dc 00000000 		.4byte	0
 12419              	.LLST157:
 12420 21e0 54000000 		.4byte	.LVL433
 12421 21e4 58000000 		.4byte	.LVL434
 12422 21e8 0100     		.2byte	0x1
 12423 21ea 54       		.byte	0x54
 12424 21eb 58000000 		.4byte	.LVL434
 12425 21ef 60000000 		.4byte	.LVL435
 12426 21f3 0300     		.2byte	0x3
 12427 21f5 73       		.byte	0x73
 12428 21f6 01       		.sleb128 1
 12429 21f7 9F       		.byte	0x9f
 12430 21f8 60000000 		.4byte	.LVL435
 12431 21fc 6F000000 		.4byte	.LVL438-1
 12432 2200 0100     		.2byte	0x1
 12433 2202 53       		.byte	0x53
 12434 2203 00000000 		.4byte	0
 12435 2207 00000000 		.4byte	0
 12436              	.LLST158:
 12437 220b 66000000 		.4byte	.LVL437
 12438 220f 74000000 		.4byte	.LVL439
 12439 2213 0100     		.2byte	0x1
 12440 2215 54       		.byte	0x54
 12441 2216 00000000 		.4byte	0
 12442 221a 00000000 		.4byte	0
 12443              	.LLST159:
 12444 221e 00000000 		.4byte	.LVL444
 12445 2222 0E000000 		.4byte	.LVL445
 12446 2226 0100     		.2byte	0x1
 12447 2228 50       		.byte	0x50
 12448 2229 0E000000 		.4byte	.LVL445
 12449 222d 64000000 		.4byte	.LVL462
 12450 2231 0100     		.2byte	0x1
 12451 2233 57       		.byte	0x57
 12452 2234 64000000 		.4byte	.LVL462
 12453 2238 66000000 		.4byte	.LFE31
 12454 223c 0400     		.2byte	0x4
 12455 223e F3       		.byte	0xf3
 12456 223f 01       		.uleb128 0x1
 12457 2240 50       		.byte	0x50
 12458 2241 9F       		.byte	0x9f
 12459 2242 00000000 		.4byte	0
 12460 2246 00000000 		.4byte	0
 12461              	.LLST160:
 12462 224a 00000000 		.4byte	.LVL444
 12463 224e 11000000 		.4byte	.LVL446-1
 12464 2252 0100     		.2byte	0x1
 12465 2254 51       		.byte	0x51
 12466 2255 11000000 		.4byte	.LVL446-1
 12467 2259 64000000 		.4byte	.LVL460
 12468 225d 0100     		.2byte	0x1
 12469 225f 55       		.byte	0x55
 12470 2260 64000000 		.4byte	.LVL460
 12471 2264 66000000 		.4byte	.LFE31
 12472 2268 0400     		.2byte	0x4
 12473 226a F3       		.byte	0xf3
ARM GAS  C:\Users\ddemidov\AppData\Local\Temp\ccr947bU.s 			page 249


 12474 226b 01       		.uleb128 0x1
 12475 226c 51       		.byte	0x51
 12476 226d 9F       		.byte	0x9f
 12477 226e 00000000 		.4byte	0
 12478 2272 00000000 		.4byte	0
 12479              	.LLST161:
 12480 2276 00000000 		.4byte	.LVL444
 12481 227a 11000000 		.4byte	.LVL446-1
 12482 227e 0100     		.2byte	0x1
 12483 2280 52       		.byte	0x52
 12484 2281 11000000 		.4byte	.LVL446-1
 12485 2285 64000000 		.4byte	.LVL461
 12486 2289 0100     		.2byte	0x1
 12487 228b 56       		.byte	0x56
 12488 228c 64000000 		.4byte	.LVL461
 12489 2290 66000000 		.4byte	.LFE31
 12490 2294 0400     		.2byte	0x4
 12491 2296 F3       		.byte	0xf3
 12492 2297 01       		.uleb128 0x1
 12493 2298 52       		.byte	0x52
 12494 2299 9F       		.byte	0x9f
 12495 229a 00000000 		.4byte	0
 12496 229e 00000000 		.4byte	0
 12497              	.LLST162:
 12498 22a2 00000000 		.4byte	.LVL444
 12499 22a6 11000000 		.4byte	.LVL446-1
 12500 22aa 0100     		.2byte	0x1
 12501 22ac 53       		.byte	0x53
 12502 22ad 11000000 		.4byte	.LVL446-1
 12503 22b1 4A000000 		.4byte	.LVL451
 12504 22b5 0200     		.2byte	0x2
 12505 22b7 91       		.byte	0x91
 12506 22b8 64       		.sleb128 -28
 12507 22b9 4A000000 		.4byte	.LVL451
 12508 22bd 4D000000 		.4byte	.LVL452-1
 12509 22c1 0200     		.2byte	0x2
 12510 22c3 73       		.byte	0x73
 12511 22c4 00       		.sleb128 0
 12512 22c5 4D000000 		.4byte	.LVL452-1
 12513 22c9 66000000 		.4byte	.LFE31
 12514 22cd 0200     		.2byte	0x2
 12515 22cf 91       		.byte	0x91
 12516 22d0 64       		.sleb128 -28
 12517 22d1 00000000 		.4byte	0
 12518 22d5 00000000 		.4byte	0
 12519              	.LLST163:
 12520 22d9 14000000 		.4byte	.LVL447
 12521 22dd 2C000000 		.4byte	.LVL448
 12522 22e1 0100     		.2byte	0x1
 12523 22e3 50       		.byte	0x50
 12524 22e4 2C000000 		.4byte	.LVL448
 12525 22e8 58000000 		.4byte	.LVL455
 12526 22ec 0100     		.2byte	0x1
 12527 22ee 54       		.byte	0x54
 12528 22ef 58000000 		.4byte	.LVL455
 12529 22f3 5A000000 		.4byte	.LVL456
 12530 22f7 0100     		.2byte	0x1
ARM GAS  C:\Users\ddemidov\AppData\Local\Temp\ccr947bU.s 			page 250


 12531 22f9 50       		.byte	0x50
 12532 22fa 5A000000 		.4byte	.LVL456
 12533 22fe 5E000000 		.4byte	.LVL457
 12534 2302 0100     		.2byte	0x1
 12535 2304 54       		.byte	0x54
 12536 2305 5E000000 		.4byte	.LVL457
 12537 2309 60000000 		.4byte	.LVL458
 12538 230d 0100     		.2byte	0x1
 12539 230f 50       		.byte	0x50
 12540 2310 60000000 		.4byte	.LVL458
 12541 2314 64000000 		.4byte	.LVL459
 12542 2318 0100     		.2byte	0x1
 12543 231a 54       		.byte	0x54
 12544 231b 00000000 		.4byte	0
 12545 231f 00000000 		.4byte	0
 12546              	.LLST164:
 12547 2323 36000000 		.4byte	.LVL449
 12548 2327 44000000 		.4byte	.LVL450
 12549 232b 0100     		.2byte	0x1
 12550 232d 50       		.byte	0x50
 12551 232e 4E000000 		.4byte	.LVL452
 12552 2332 56000000 		.4byte	.LVL454
 12553 2336 0100     		.2byte	0x1
 12554 2338 50       		.byte	0x50
 12555 2339 00000000 		.4byte	0
 12556 233d 00000000 		.4byte	0
 12557              	.LLST165:
 12558 2341 00000000 		.4byte	.LVL463
 12559 2345 05000000 		.4byte	.LVL464-1
 12560 2349 0100     		.2byte	0x1
 12561 234b 50       		.byte	0x50
 12562 234c 05000000 		.4byte	.LVL464-1
 12563 2350 08000000 		.4byte	.LFE32
 12564 2354 0400     		.2byte	0x4
 12565 2356 F3       		.byte	0xf3
 12566 2357 01       		.uleb128 0x1
 12567 2358 50       		.byte	0x50
 12568 2359 9F       		.byte	0x9f
 12569 235a 00000000 		.4byte	0
 12570 235e 00000000 		.4byte	0
 12571              	.LLST166:
 12572 2362 00000000 		.4byte	.LVL465
 12573 2366 2C000000 		.4byte	.LVL466
 12574 236a 0100     		.2byte	0x1
 12575 236c 50       		.byte	0x50
 12576 236d 2C000000 		.4byte	.LVL466
 12577 2371 66000000 		.4byte	.LVL472
 12578 2375 0100     		.2byte	0x1
 12579 2377 54       		.byte	0x54
 12580 2378 66000000 		.4byte	.LVL472
 12581 237c 68000000 		.4byte	.LVL473
 12582 2380 0100     		.2byte	0x1
 12583 2382 50       		.byte	0x50
 12584 2383 68000000 		.4byte	.LVL473
 12585 2387 6C000000 		.4byte	.LVL474
 12586 238b 0400     		.2byte	0x4
 12587 238d F3       		.byte	0xf3
ARM GAS  C:\Users\ddemidov\AppData\Local\Temp\ccr947bU.s 			page 251


 12588 238e 01       		.uleb128 0x1
 12589 238f 50       		.byte	0x50
 12590 2390 9F       		.byte	0x9f
 12591 2391 6C000000 		.4byte	.LVL474
 12592 2395 6E000000 		.4byte	.LVL475
 12593 2399 0100     		.2byte	0x1
 12594 239b 50       		.byte	0x50
 12595 239c 6E000000 		.4byte	.LVL475
 12596 23a0 72000000 		.4byte	.LVL476
 12597 23a4 0400     		.2byte	0x4
 12598 23a6 F3       		.byte	0xf3
 12599 23a7 01       		.uleb128 0x1
 12600 23a8 50       		.byte	0x50
 12601 23a9 9F       		.byte	0x9f
 12602 23aa 72000000 		.4byte	.LVL476
 12603 23ae 74000000 		.4byte	.LVL477
 12604 23b2 0100     		.2byte	0x1
 12605 23b4 50       		.byte	0x50
 12606 23b5 74000000 		.4byte	.LVL477
 12607 23b9 78000000 		.4byte	.LVL478
 12608 23bd 0400     		.2byte	0x4
 12609 23bf F3       		.byte	0xf3
 12610 23c0 01       		.uleb128 0x1
 12611 23c1 50       		.byte	0x50
 12612 23c2 9F       		.byte	0x9f
 12613 23c3 78000000 		.4byte	.LVL478
 12614 23c7 7A000000 		.4byte	.LVL479
 12615 23cb 0100     		.2byte	0x1
 12616 23cd 50       		.byte	0x50
 12617 23ce 7A000000 		.4byte	.LVL479
 12618 23d2 7E000000 		.4byte	.LVL480
 12619 23d6 0400     		.2byte	0x4
 12620 23d8 F3       		.byte	0xf3
 12621 23d9 01       		.uleb128 0x1
 12622 23da 50       		.byte	0x50
 12623 23db 9F       		.byte	0x9f
 12624 23dc 7E000000 		.4byte	.LVL480
 12625 23e0 80000000 		.4byte	.LVL481
 12626 23e4 0100     		.2byte	0x1
 12627 23e6 50       		.byte	0x50
 12628 23e7 80000000 		.4byte	.LVL481
 12629 23eb 84000000 		.4byte	.LVL482
 12630 23ef 0400     		.2byte	0x4
 12631 23f1 F3       		.byte	0xf3
 12632 23f2 01       		.uleb128 0x1
 12633 23f3 50       		.byte	0x50
 12634 23f4 9F       		.byte	0x9f
 12635 23f5 84000000 		.4byte	.LVL482
 12636 23f9 8E000000 		.4byte	.LVL483
 12637 23fd 0100     		.2byte	0x1
 12638 23ff 54       		.byte	0x54
 12639 2400 8E000000 		.4byte	.LVL483
 12640 2404 96000000 		.4byte	.LFE33
 12641 2408 0400     		.2byte	0x4
 12642 240a F3       		.byte	0xf3
 12643 240b 01       		.uleb128 0x1
 12644 240c 50       		.byte	0x50
ARM GAS  C:\Users\ddemidov\AppData\Local\Temp\ccr947bU.s 			page 252


 12645 240d 9F       		.byte	0x9f
 12646 240e 00000000 		.4byte	0
 12647 2412 00000000 		.4byte	0
 12648              	.LLST167:
 12649 2416 00000000 		.4byte	.LVL465
 12650 241a 2F000000 		.4byte	.LVL467-1
 12651 241e 0100     		.2byte	0x1
 12652 2420 51       		.byte	0x51
 12653 2421 2F000000 		.4byte	.LVL467-1
 12654 2425 66000000 		.4byte	.LVL472
 12655 2429 0200     		.2byte	0x2
 12656 242b 7D       		.byte	0x7d
 12657 242c 00       		.sleb128 0
 12658 242d 66000000 		.4byte	.LVL472
 12659 2431 84000000 		.4byte	.LVL482
 12660 2435 0100     		.2byte	0x1
 12661 2437 51       		.byte	0x51
 12662 2438 84000000 		.4byte	.LVL482
 12663 243c 8E000000 		.4byte	.LVL483
 12664 2440 0200     		.2byte	0x2
 12665 2442 7D       		.byte	0x7d
 12666 2443 00       		.sleb128 0
 12667 2444 8E000000 		.4byte	.LVL483
 12668 2448 96000000 		.4byte	.LFE33
 12669 244c 0400     		.2byte	0x4
 12670 244e F3       		.byte	0xf3
 12671 244f 01       		.uleb128 0x1
 12672 2450 51       		.byte	0x51
 12673 2451 9F       		.byte	0x9f
 12674 2452 00000000 		.4byte	0
 12675 2456 00000000 		.4byte	0
 12676              	.LLST168:
 12677 245a 00000000 		.4byte	.LVL465
 12678 245e 2F000000 		.4byte	.LVL467-1
 12679 2462 0100     		.2byte	0x1
 12680 2464 52       		.byte	0x52
 12681 2465 2F000000 		.4byte	.LVL467-1
 12682 2469 66000000 		.4byte	.LVL472
 12683 246d 0100     		.2byte	0x1
 12684 246f 58       		.byte	0x58
 12685 2470 66000000 		.4byte	.LVL472
 12686 2474 84000000 		.4byte	.LVL482
 12687 2478 0100     		.2byte	0x1
 12688 247a 52       		.byte	0x52
 12689 247b 84000000 		.4byte	.LVL482
 12690 247f 8E000000 		.4byte	.LVL483
 12691 2483 0100     		.2byte	0x1
 12692 2485 58       		.byte	0x58
 12693 2486 8E000000 		.4byte	.LVL483
 12694 248a 96000000 		.4byte	.LFE33
 12695 248e 0400     		.2byte	0x4
 12696 2490 F3       		.byte	0xf3
 12697 2491 01       		.uleb128 0x1
 12698 2492 52       		.byte	0x52
 12699 2493 9F       		.byte	0x9f
 12700 2494 00000000 		.4byte	0
 12701 2498 00000000 		.4byte	0
ARM GAS  C:\Users\ddemidov\AppData\Local\Temp\ccr947bU.s 			page 253


 12702              	.LLST169:
 12703 249c 00000000 		.4byte	.LVL465
 12704 24a0 2F000000 		.4byte	.LVL467-1
 12705 24a4 0100     		.2byte	0x1
 12706 24a6 53       		.byte	0x53
 12707 24a7 2F000000 		.4byte	.LVL467-1
 12708 24ab 66000000 		.4byte	.LVL472
 12709 24af 0200     		.2byte	0x2
 12710 24b1 91       		.byte	0x91
 12711 24b2 64       		.sleb128 -28
 12712 24b3 66000000 		.4byte	.LVL472
 12713 24b7 84000000 		.4byte	.LVL482
 12714 24bb 0100     		.2byte	0x1
 12715 24bd 53       		.byte	0x53
 12716 24be 84000000 		.4byte	.LVL482
 12717 24c2 8E000000 		.4byte	.LVL483
 12718 24c6 0200     		.2byte	0x2
 12719 24c8 91       		.byte	0x91
 12720 24c9 64       		.sleb128 -28
 12721 24ca 8E000000 		.4byte	.LVL483
 12722 24ce 96000000 		.4byte	.LFE33
 12723 24d2 0400     		.2byte	0x4
 12724 24d4 F3       		.byte	0xf3
 12725 24d5 01       		.uleb128 0x1
 12726 24d6 53       		.byte	0x53
 12727 24d7 9F       		.byte	0x9f
 12728 24d8 00000000 		.4byte	0
 12729 24dc 00000000 		.4byte	0
 12730              	.LLST170:
 12731 24e0 40000000 		.4byte	.LVL468
 12732 24e4 4A000000 		.4byte	.LVL469
 12733 24e8 0100     		.2byte	0x1
 12734 24ea 50       		.byte	0x50
 12735 24eb 5E000000 		.4byte	.LVL471
 12736 24ef 66000000 		.4byte	.LVL472
 12737 24f3 0100     		.2byte	0x1
 12738 24f5 50       		.byte	0x50
 12739 24f6 00000000 		.4byte	0
 12740 24fa 00000000 		.4byte	0
 12741              		.section	.debug_aranges,"",%progbits
 12742 0000 C4000000 		.4byte	0xc4
 12743 0004 0200     		.2byte	0x2
 12744 0006 00000000 		.4byte	.Ldebug_info0
 12745 000a 04       		.byte	0x4
 12746 000b 00       		.byte	0
 12747 000c 0000     		.2byte	0
 12748 000e 0000     		.2byte	0
 12749 0010 00000000 		.4byte	.LFB20
 12750 0014 8E000000 		.4byte	.LFE20-.LFB20
 12751 0018 00000000 		.4byte	.LFB17
 12752 001c 80000000 		.4byte	.LFE17-.LFB17
 12753 0020 00000000 		.4byte	.LFB22
 12754 0024 6E010000 		.4byte	.LFE22-.LFB22
 12755 0028 00000000 		.4byte	.LFB14
 12756 002c 0C010000 		.4byte	.LFE14-.LFB14
 12757 0030 00000000 		.4byte	.LFB15
 12758 0034 2C000000 		.4byte	.LFE15-.LFB15
ARM GAS  C:\Users\ddemidov\AppData\Local\Temp\ccr947bU.s 			page 254


 12759 0038 00000000 		.4byte	.LFB16
 12760 003c 9E010000 		.4byte	.LFE16-.LFB16
 12761 0040 00000000 		.4byte	.LFB18
 12762 0044 46000000 		.4byte	.LFE18-.LFB18
 12763 0048 00000000 		.4byte	.LFB19
 12764 004c 44010000 		.4byte	.LFE19-.LFB19
 12765 0050 00000000 		.4byte	.LFB21
 12766 0054 36000000 		.4byte	.LFE21-.LFB21
 12767 0058 00000000 		.4byte	.LFB12
 12768 005c 22000000 		.4byte	.LFE12-.LFB12
 12769 0060 00000000 		.4byte	.LFB13
 12770 0064 50000000 		.4byte	.LFE13-.LFB13
 12771 0068 00000000 		.4byte	.LFB23
 12772 006c 66000000 		.4byte	.LFE23-.LFB23
 12773 0070 00000000 		.4byte	.LFB24
 12774 0074 7C000000 		.4byte	.LFE24-.LFB24
 12775 0078 00000000 		.4byte	.LFB25
 12776 007c 2E000000 		.4byte	.LFE25-.LFB25
 12777 0080 00000000 		.4byte	.LFB26
 12778 0084 6C000000 		.4byte	.LFE26-.LFB26
 12779 0088 00000000 		.4byte	.LFB27
 12780 008c 7C000000 		.4byte	.LFE27-.LFB27
 12781 0090 00000000 		.4byte	.LFB28
 12782 0094 DC000000 		.4byte	.LFE28-.LFB28
 12783 0098 00000000 		.4byte	.LFB29
 12784 009c 2E000000 		.4byte	.LFE29-.LFB29
 12785 00a0 00000000 		.4byte	.LFB30
 12786 00a4 7C000000 		.4byte	.LFE30-.LFB30
 12787 00a8 00000000 		.4byte	.LFB31
 12788 00ac 66000000 		.4byte	.LFE31-.LFB31
 12789 00b0 00000000 		.4byte	.LFB32
 12790 00b4 08000000 		.4byte	.LFE32-.LFB32
 12791 00b8 00000000 		.4byte	.LFB33
 12792 00bc 96000000 		.4byte	.LFE33-.LFB33
 12793 00c0 00000000 		.4byte	0
 12794 00c4 00000000 		.4byte	0
 12795              		.section	.debug_ranges,"",%progbits
 12796              	.Ldebug_ranges0:
 12797 0000 32000000 		.4byte	.LBB20
 12798 0004 B6000000 		.4byte	.LBE20
 12799 0008 BA000000 		.4byte	.LBB21
 12800 000c F6000000 		.4byte	.LBE21
 12801 0010 00000000 		.4byte	0
 12802 0014 00000000 		.4byte	0
 12803 0018 00000000 		.4byte	.LFB20
 12804 001c 8E000000 		.4byte	.LFE20
 12805 0020 00000000 		.4byte	.LFB17
 12806 0024 80000000 		.4byte	.LFE17
 12807 0028 00000000 		.4byte	.LFB22
 12808 002c 6E010000 		.4byte	.LFE22
 12809 0030 00000000 		.4byte	.LFB14
 12810 0034 0C010000 		.4byte	.LFE14
 12811 0038 00000000 		.4byte	.LFB15
 12812 003c 2C000000 		.4byte	.LFE15
 12813 0040 00000000 		.4byte	.LFB16
 12814 0044 9E010000 		.4byte	.LFE16
 12815 0048 00000000 		.4byte	.LFB18
ARM GAS  C:\Users\ddemidov\AppData\Local\Temp\ccr947bU.s 			page 255


 12816 004c 46000000 		.4byte	.LFE18
 12817 0050 00000000 		.4byte	.LFB19
 12818 0054 44010000 		.4byte	.LFE19
 12819 0058 00000000 		.4byte	.LFB21
 12820 005c 36000000 		.4byte	.LFE21
 12821 0060 00000000 		.4byte	.LFB12
 12822 0064 22000000 		.4byte	.LFE12
 12823 0068 00000000 		.4byte	.LFB13
 12824 006c 50000000 		.4byte	.LFE13
 12825 0070 00000000 		.4byte	.LFB23
 12826 0074 66000000 		.4byte	.LFE23
 12827 0078 00000000 		.4byte	.LFB24
 12828 007c 7C000000 		.4byte	.LFE24
 12829 0080 00000000 		.4byte	.LFB25
 12830 0084 2E000000 		.4byte	.LFE25
 12831 0088 00000000 		.4byte	.LFB26
 12832 008c 6C000000 		.4byte	.LFE26
 12833 0090 00000000 		.4byte	.LFB27
 12834 0094 7C000000 		.4byte	.LFE27
 12835 0098 00000000 		.4byte	.LFB28
 12836 009c DC000000 		.4byte	.LFE28
 12837 00a0 00000000 		.4byte	.LFB29
 12838 00a4 2E000000 		.4byte	.LFE29
 12839 00a8 00000000 		.4byte	.LFB30
 12840 00ac 7C000000 		.4byte	.LFE30
 12841 00b0 00000000 		.4byte	.LFB31
 12842 00b4 66000000 		.4byte	.LFE31
 12843 00b8 00000000 		.4byte	.LFB32
 12844 00bc 08000000 		.4byte	.LFE32
 12845 00c0 00000000 		.4byte	.LFB33
 12846 00c4 96000000 		.4byte	.LFE33
 12847 00c8 00000000 		.4byte	0
 12848 00cc 00000000 		.4byte	0
 12849              		.section	.debug_line,"",%progbits
 12850              	.Ldebug_line0:
 12851 0000 A6060000 		.section	.debug_str,"MS",%progbits,1
 12851      0200D401 
 12851      00000201 
 12851      FB0E0D00 
 12851      01010101 
 12852              	.LASF92:
 12853 0000 5253415F 		.ascii	"RSA_PUBLIC\000"
 12853      5055424C 
 12853      494300
 12854              	.LASF61:
 12855 000b 44594E41 		.ascii	"DYNAMIC_TYPE_COOKIE_PWD\000"
 12855      4D49435F 
 12855      54595045 
 12855      5F434F4F 
 12855      4B49455F 
 12856              	.LASF76:
 12857 0023 64726267 		.ascii	"drbg\000"
 12857      00
 12858              	.LASF57:
 12859 0028 44594E41 		.ascii	"DYNAMIC_TYPE_OCSP\000"
 12859      4D49435F 
 12859      54595045 
ARM GAS  C:\Users\ddemidov\AppData\Local\Temp\ccr947bU.s 			page 256


 12859      5F4F4353 
 12859      5000
 12860              	.LASF263:
 12861 003a 77635F52 		.ascii	"wc_RsaPublicEncrypt_ex\000"
 12861      73615075 
 12861      626C6963 
 12861      456E6372 
 12861      7970745F 
 12862              	.LASF188:
 12863 0051 54485245 		.ascii	"THREAD_STORE_SET_E\000"
 12863      41445F53 
 12863      544F5245 
 12863      5F534554 
 12863      5F4500
 12864              	.LASF90:
 12865 0064 57435F48 		.ascii	"WC_HASH_TYPE_SHA384\000"
 12865      4153485F 
 12865      54595045 
 12865      5F534841 
 12865      33383400 
 12866              	.LASF222:
 12867 0078 6F757470 		.ascii	"output\000"
 12867      757400
 12868              	.LASF149:
 12869 007f 41534E5F 		.ascii	"ASN_ECC_KEY_E\000"
 12869      4543435F 
 12869      4B45595F 
 12869      4500
 12870              	.LASF139:
 12871 008d 41534E5F 		.ascii	"ASN_SIG_OID_E\000"
 12871      5349475F 
 12871      4F49445F 
 12871      4500
 12872              	.LASF276:
 12873 009b 77635F52 		.ascii	"wc_RsaFlattenPublicKey\000"
 12873      7361466C 
 12873      61747465 
 12873      6E507562 
 12873      6C69634B 
 12874              	.LASF230:
 12875 00b2 696E7075 		.ascii	"inputLen\000"
 12875      744C656E 
 12875      00
 12876              	.LASF179:
 12877 00bb 494E5F43 		.ascii	"IN_CORE_FIPS_E\000"
 12877      4F52455F 
 12877      46495053 
 12877      5F4500
 12878              	.LASF97:
 12879 00ca 4D41585F 		.ascii	"MAX_CODE_E\000"
 12879      434F4445 
 12879      5F4500
 12880              	.LASF213:
 12881 00d5 5253415F 		.ascii	"RSA_BLOCK_TYPE_1\000"
 12881      424C4F43 
 12881      4B5F5459 
 12881      50455F31 
ARM GAS  C:\Users\ddemidov\AppData\Local\Temp\ccr947bU.s 			page 257


 12881      00
 12882              	.LASF27:
 12883 00e6 44594E41 		.ascii	"DYNAMIC_TYPE_INFO\000"
 12883      4D49435F 
 12883      54595045 
 12883      5F494E46 
 12883      4F00
 12884              	.LASF242:
 12885 00f8 73656564 		.ascii	"seedSz\000"
 12885      537A00
 12886              	.LASF156:
 12887 00ff 4145535F 		.ascii	"AES_GCM_AUTH_E\000"
 12887      47434D5F 
 12887      41555448 
 12887      5F4500
 12888              	.LASF238:
 12889 010e 746D7061 		.ascii	"tmpa\000"
 12889      00
 12890              	.LASF239:
 12891 0113 746D7062 		.ascii	"tmpb\000"
 12891      00
 12892              	.LASF176:
 12893 0118 484D4143 		.ascii	"HMAC_MIN_KEYLEN_E\000"
 12893      5F4D494E 
 12893      5F4B4559 
 12893      4C454E5F 
 12893      4500
 12894              	.LASF265:
 12895 012a 6C616265 		.ascii	"label\000"
 12895      6C00
 12896              	.LASF4:
 12897 0130 756E7369 		.ascii	"unsigned int\000"
 12897      676E6564 
 12897      20696E74 
 12897      00
 12898              	.LASF231:
 12899 013d 7061644C 		.ascii	"padLen\000"
 12899      656E00
 12900              	.LASF287:
 12901 0144 6D705F72 		.ascii	"mp_read_unsigned_bin\000"
 12901      6561645F 
 12901      756E7369 
 12901      676E6564 
 12901      5F62696E 
 12902              	.LASF283:
 12903 0159 6D705F73 		.ascii	"mp_sub\000"
 12903      756200
 12904              	.LASF252:
 12905 0160 6C616265 		.ascii	"labelLen\000"
 12905      6C4C656E 
 12905      00
 12906              	.LASF127:
 12907 0169 41534E5F 		.ascii	"ASN_PARSE_E\000"
 12907      50415253 
 12907      455F4500 
 12908              	.LASF165:
 12909 0175 41534E5F 		.ascii	"ASN_CRL_CONFIRM_E\000"
ARM GAS  C:\Users\ddemidov\AppData\Local\Temp\ccr947bU.s 			page 258


 12909      43524C5F 
 12909      434F4E46 
 12909      49524D5F 
 12909      4500
 12910              	.LASF68:
 12911 0187 44594E41 		.ascii	"DYNAMIC_TYPE_DTLS_FRAG\000"
 12911      4D49435F 
 12911      54595045 
 12911      5F44544C 
 12911      535F4652 
 12912              	.LASF203:
 12913 019e 57435F49 		.ascii	"WC_INIT_E\000"
 12913      4E49545F 
 12913      4500
 12914              	.LASF227:
 12915 01a8 52736155 		.ascii	"RsaUnPad\000"
 12915      6E506164 
 12915      00
 12916              	.LASF117:
 12917 01b1 5253415F 		.ascii	"RSA_WRONG_TYPE_E\000"
 12917      57524F4E 
 12917      475F5459 
 12917      50455F45 
 12917      00
 12918              	.LASF278:
 12919 01c2 6D656D73 		.ascii	"memset\000"
 12919      657400
 12920              	.LASF260:
 12921 01c9 77635F49 		.ascii	"wc_InitRsaKey\000"
 12921      6E697452 
 12921      73614B65 
 12921      7900
 12922              	.LASF63:
 12923 01d7 44594E41 		.ascii	"DYNAMIC_TYPE_OCSP_REQUEST\000"
 12923      4D49435F 
 12923      54595045 
 12923      5F4F4353 
 12923      505F5245 
 12924              	.LASF106:
 12925 01f1 4D505F45 		.ascii	"MP_EXPTMOD_E\000"
 12925      5850544D 
 12925      4F445F45 
 12925      00
 12926              	.LASF148:
 12927 01fe 4543435F 		.ascii	"ECC_BAD_ARG_E\000"
 12927      4241445F 
 12927      4152475F 
 12927      4500
 12928              	.LASF137:
 12929 020c 41534E5F 		.ascii	"ASN_BEFORE_DATE_E\000"
 12929      4245464F 
 12929      52455F44 
 12929      4154455F 
 12929      4500
 12930              	.LASF200:
 12931 021e 414B4944 		.ascii	"AKID_E\000"
 12931      5F4500
ARM GAS  C:\Users\ddemidov\AppData\Local\Temp\ccr947bU.s 			page 259


 12932              	.LASF192:
 12933 0225 4543435F 		.ascii	"ECC_PRIV_KEY_E\000"
 12933      50524956 
 12933      5F4B4559 
 12933      5F4500
 12934              	.LASF268:
 12935 0234 77635F52 		.ascii	"wc_RsaPrivateDecryptInline_ex\000"
 12935      73615072 
 12935      69766174 
 12935      65446563 
 12935      72797074 
 12936              	.LASF249:
 12937 0252 77635F4D 		.ascii	"wc_MGF\000"
 12937      474600
 12938              	.LASF157:
 12939 0259 4145535F 		.ascii	"AES_CCM_AUTH_E\000"
 12939      43434D5F 
 12939      41555448 
 12939      5F4500
 12940              	.LASF160:
 12941 0268 434F4D50 		.ascii	"COMPRESS_E\000"
 12941      52455353 
 12941      5F4500
 12942              	.LASF279:
 12943 0273 6D705F69 		.ascii	"mp_init\000"
 12943      6E697400 
 12944              	.LASF171:
 12945 027b 504B4353 		.ascii	"PKCS7_OID_E\000"
 12945      375F4F49 
 12945      445F4500 
 12946              	.LASF274:
 12947 0287 77635F52 		.ascii	"wc_RsaSSL_Sign\000"
 12947      73615353 
 12947      4C5F5369 
 12947      676E00
 12948              	.LASF195:
 12949 0296 5352505F 		.ascii	"SRP_BAD_KEY_E\000"
 12949      4241445F 
 12949      4B45595F 
 12949      4500
 12950              	.LASF122:
 12951 02a4 44415445 		.ascii	"DATE_E\000"
 12951      5F4500
 12952              	.LASF275:
 12953 02ab 77635F52 		.ascii	"wc_RsaEncryptSize\000"
 12953      7361456E 
 12953      63727970 
 12953      7453697A 
 12953      6500
 12954              	.LASF146:
 12955 02bd 41534E5F 		.ascii	"ASN_NTRU_KEY_E\000"
 12955      4E545255 
 12955      5F4B4559 
 12955      5F4500
 12956              	.LASF209:
 12957 02cc 5253415F 		.ascii	"RSA_PUBLIC_ENCRYPT\000"
 12957      5055424C 
ARM GAS  C:\Users\ddemidov\AppData\Local\Temp\ccr947bU.s 			page 260


 12957      49435F45 
 12957      4E435259 
 12957      505400
 12958              	.LASF42:
 12959 02df 44594E41 		.ascii	"DYNAMIC_TYPE_ALTNAME\000"
 12959      4D49435F 
 12959      54595045 
 12959      5F414C54 
 12959      4E414D45 
 12960              	.LASF232:
 12961 02f4 77635F52 		.ascii	"wc_RsaFunction\000"
 12961      73614675 
 12961      6E637469 
 12961      6F6E00
 12962              	.LASF210:
 12963 0303 5253415F 		.ascii	"RSA_PUBLIC_DECRYPT\000"
 12963      5055424C 
 12963      49435F44 
 12963      45435259 
 12963      505400
 12964              	.LASF14:
 12965 0316 44594E41 		.ascii	"DYNAMIC_TYPE_CA\000"
 12965      4D49435F 
 12965      54595045 
 12965      5F434100 
 12966              	.LASF111:
 12967 0326 4D505F4D 		.ascii	"MP_MULMOD_E\000"
 12967      554C4D4F 
 12967      445F4500 
 12968              	.LASF33:
 12969 0332 44594E41 		.ascii	"DYNAMIC_TYPE_OPENSSL\000"
 12969      4D49435F 
 12969      54595045 
 12969      5F4F5045 
 12969      4E53534C 
 12970              	.LASF282:
 12971 0347 6D705F65 		.ascii	"mp_exptmod\000"
 12971      7870746D 
 12971      6F6400
 12972              	.LASF108:
 12973 0352 4D505F53 		.ascii	"MP_SUB_E\000"
 12973      55425F45 
 12973      00
 12974              	.LASF273:
 12975 035b 77635F52 		.ascii	"wc_RsaSSL_Verify\000"
 12975      73615353 
 12975      4C5F5665 
 12975      72696679 
 12975      00
 12976              	.LASF59:
 12977 036c 44594E41 		.ascii	"DYNAMIC_TYPE_HASHES\000"
 12977      4D49435F 
 12977      54595045 
 12977      5F484153 
 12977      48455300 
 12978              	.LASF25:
 12979 0380 44594E41 		.ascii	"DYNAMIC_TYPE_OUT_BUFFER\000"
ARM GAS  C:\Users\ddemidov\AppData\Local\Temp\ccr947bU.s 			page 261


 12979      4D49435F 
 12979      54595045 
 12979      5F4F5554 
 12979      5F425546 
 12980              	.LASF150:
 12981 0398 4543435F 		.ascii	"ECC_CURVE_OID_E\000"
 12981      43555256 
 12981      455F4F49 
 12981      445F4500 
 12982              	.LASF136:
 12983 03a8 41534E5F 		.ascii	"ASN_DATE_SZ_E\000"
 12983      44415445 
 12983      5F535A5F 
 12983      4500
 12984              	.LASF45:
 12985 03b6 44594E41 		.ascii	"DYNAMIC_TYPE_RNG\000"
 12985      4D49435F 
 12985      54595045 
 12985      5F524E47 
 12985      00
 12986              	.LASF124:
 12987 03c7 49535355 		.ascii	"ISSUER_E\000"
 12987      45525F45 
 12987      00
 12988              	.LASF292:
 12989 03d0 77635F48 		.ascii	"wc_HashGetDigestSize\000"
 12989      61736847 
 12989      65744469 
 12989      67657374 
 12989      53697A65 
 12990              	.LASF98:
 12991 03e5 4F50454E 		.ascii	"OPEN_RAN_E\000"
 12991      5F52414E 
 12991      5F4500
 12992              	.LASF211:
 12993 03f0 5253415F 		.ascii	"RSA_PRIVATE_ENCRYPT\000"
 12993      50524956 
 12993      4154455F 
 12993      454E4352 
 12993      59505400 
 12994              	.LASF290:
 12995 0404 776F6C66 		.ascii	"wolfSSL_Free\000"
 12995      53534C5F 
 12995      46726565 
 12995      00
 12996              	.LASF19:
 12997 0411 44594E41 		.ascii	"DYNAMIC_TYPE_PUBLIC_KEY\000"
 12997      4D49435F 
 12997      54595045 
 12997      5F505542 
 12997      4C49435F 
 12998              	.LASF212:
 12999 0429 5253415F 		.ascii	"RSA_PRIVATE_DECRYPT\000"
 12999      50524956 
 12999      4154455F 
 12999      44454352 
 12999      59505400 
ARM GAS  C:\Users\ddemidov\AppData\Local\Temp\ccr947bU.s 			page 262


 13000              	.LASF180:
 13001 043d 4145535F 		.ascii	"AES_KAT_FIPS_E\000"
 13001      4B41545F 
 13001      46495053 
 13001      5F4500
 13002              	.LASF5:
 13003 044c 6C6F6E67 		.ascii	"long long unsigned int\000"
 13003      206C6F6E 
 13003      6720756E 
 13003      7369676E 
 13003      65642069 
 13004              	.LASF20:
 13005 0463 44594E41 		.ascii	"DYNAMIC_TYPE_SIGNER\000"
 13005      4D49435F 
 13005      54595045 
 13005      5F534947 
 13005      4E455200 
 13006              	.LASF83:
 13007 0477 6D705F69 		.ascii	"mp_int\000"
 13007      6E7400
 13008              	.LASF110:
 13009 047e 4D505F4D 		.ascii	"MP_MUL_E\000"
 13009      554C5F45 
 13009      00
 13010              	.LASF143:
 13011 0487 41534E5F 		.ascii	"ASN_SIG_HASH_E\000"
 13011      5349475F 
 13011      48415348 
 13011      5F4500
 13012              	.LASF28:
 13013 0496 44594E41 		.ascii	"DYNAMIC_TYPE_DH\000"
 13013      4D49435F 
 13013      54595045 
 13013      5F444800 
 13014              	.LASF118:
 13015 04a6 5253415F 		.ascii	"RSA_BUFFER_E\000"
 13015      42554646 
 13015      45525F45 
 13015      00
 13016              	.LASF96:
 13017 04b3 68656170 		.ascii	"heap\000"
 13017      00
 13018              	.LASF194:
 13019 04b8 5352505F 		.ascii	"SRP_VERIFY_E\000"
 13019      56455249 
 13019      46595F45 
 13019      00
 13020              	.LASF173:
 13021 04c5 46495053 		.ascii	"FIPS_NOT_ALLOWED_E\000"
 13021      5F4E4F54 
 13021      5F414C4C 
 13021      4F574544 
 13021      5F4500
 13022              	.LASF258:
 13023 04d8 77635F52 		.ascii	"wc_RsaUnPad_OAEP\000"
 13023      7361556E 
 13023      5061645F 
ARM GAS  C:\Users\ddemidov\AppData\Local\Temp\ccr947bU.s 			page 263


 13023      4F414550 
 13023      00
 13024              	.LASF225:
 13025 04e9 696E7661 		.ascii	"invalid\000"
 13025      6C696400 
 13026              	.LASF151:
 13027 04f1 4241445F 		.ascii	"BAD_FUNC_ARG\000"
 13027      46554E43 
 13027      5F415247 
 13027      00
 13028              	.LASF134:
 13029 04fe 41534E5F 		.ascii	"ASN_BITSTR_E\000"
 13029      42495453 
 13029      54525F45 
 13029      00
 13030              	.LASF285:
 13031 050b 6D705F6D 		.ascii	"mp_mul\000"
 13031      756C00
 13032              	.LASF272:
 13033 0512 77635F52 		.ascii	"wc_RsaSSL_VerifyInline\000"
 13033      73615353 
 13033      4C5F5665 
 13033      72696679 
 13033      496E6C69 
 13034              	.LASF80:
 13035 0529 75736564 		.ascii	"used\000"
 13035      00
 13036              	.LASF206:
 13037 052e 5349475F 		.ascii	"SIG_TYPE_E\000"
 13037      54595045 
 13037      5F4500
 13038              	.LASF131:
 13039 0539 41534E5F 		.ascii	"ASN_OBJECT_ID_E\000"
 13039      4F424A45 
 13039      43545F49 
 13039      445F4500 
 13040              	.LASF248:
 13041 0549 636F756E 		.ascii	"counter\000"
 13041      74657200 
 13042              	.LASF52:
 13043 0551 44594E41 		.ascii	"DYNAMIC_TYPE_DTLS_MSG\000"
 13043      4D49435F 
 13043      54595045 
 13043      5F44544C 
 13043      535F4D53 
 13044              	.LASF6:
 13045 0567 73697A65 		.ascii	"size_t\000"
 13045      5F7400
 13046              	.LASF82:
 13047 056e 7369676E 		.ascii	"sign\000"
 13047      00
 13048              	.LASF93:
 13049 0573 5253415F 		.ascii	"RSA_PRIVATE\000"
 13049      50524956 
 13049      41544500 
 13050              	.LASF55:
 13051 057f 44594E41 		.ascii	"DYNAMIC_TYPE_X509\000"
ARM GAS  C:\Users\ddemidov\AppData\Local\Temp\ccr947bU.s 			page 264


 13051      4D49435F 
 13051      54595045 
 13051      5F583530 
 13051      3900
 13052              	.LASF217:
 13053 0591 5253415F 		.ascii	"RSA_MIN_PAD_SZ\000"
 13053      4D494E5F 
 13053      5041445F 
 13053      535A00
 13054              	.LASF74:
 13055 05a0 4F535F53 		.ascii	"OS_Seed\000"
 13055      65656400 
 13056              	.LASF243:
 13057 05a8 6F757453 		.ascii	"outSz\000"
 13057      7A00
 13058              	.LASF50:
 13059 05ae 44594E41 		.ascii	"DYNAMIC_TYPE_ECC\000"
 13059      4D49435F 
 13059      54595045 
 13059      5F454343 
 13059      00
 13060              	.LASF140:
 13061 05bf 41534E5F 		.ascii	"ASN_TIME_E\000"
 13061      54494D45 
 13061      5F4500
 13062              	.LASF181:
 13063 05ca 44455333 		.ascii	"DES3_KAT_FIPS_E\000"
 13063      5F4B4154 
 13063      5F464950 
 13063      535F4500 
 13064              	.LASF135:
 13065 05da 41534E5F 		.ascii	"ASN_UNKNOWN_OID_E\000"
 13065      554E4B4E 
 13065      4F574E5F 
 13065      4F49445F 
 13065      4500
 13066              	.LASF175:
 13067 05ec 524E475F 		.ascii	"RNG_FAILURE_E\000"
 13067      4641494C 
 13067      5552455F 
 13067      4500
 13068              	.LASF267:
 13069 05fa 77635F52 		.ascii	"wc_RsaPrivateDecryptInline\000"
 13069      73615072 
 13069      69766174 
 13069      65446563 
 13069      72797074 
 13070              	.LASF91:
 13071 0615 57435F48 		.ascii	"WC_HASH_TYPE_SHA512\000"
 13071      4153485F 
 13071      54595045 
 13071      5F534841 
 13071      35313200 
 13072              	.LASF43:
 13073 0629 44594E41 		.ascii	"DYNAMIC_TYPE_SUITES\000"
 13073      4D49435F 
 13073      54595045 
ARM GAS  C:\Users\ddemidov\AppData\Local\Temp\ccr947bU.s 			page 265


 13073      5F535549 
 13073      54455300 
 13074              	.LASF75:
 13075 063d 57435F52 		.ascii	"WC_RNG\000"
 13075      4E4700
 13076              	.LASF291:
 13077 0644 77635F48 		.ascii	"wc_Hash\000"
 13077      61736800 
 13078              	.LASF44:
 13079 064c 44594E41 		.ascii	"DYNAMIC_TYPE_CIPHER\000"
 13079      4D49435F 
 13079      54595045 
 13079      5F434950 
 13079      48455200 
 13080              	.LASF169:
 13081 0660 4241445F 		.ascii	"BAD_PADDING_E\000"
 13081      50414444 
 13081      494E475F 
 13081      4500
 13082              	.LASF198:
 13083 066e 41534E5F 		.ascii	"ASN_NO_KEYUSAGE\000"
 13083      4E4F5F4B 
 13083      45595553 
 13083      41474500 
 13084              	.LASF132:
 13085 067e 41534E5F 		.ascii	"ASN_TAG_NULL_E\000"
 13085      5441475F 
 13085      4E554C4C 
 13085      5F4500
 13086              	.LASF177:
 13087 068d 5253415F 		.ascii	"RSA_PAD_E\000"
 13087      5041445F 
 13087      4500
 13088              	.LASF147:
 13089 0697 41534E5F 		.ascii	"ASN_CRIT_EXT_E\000"
 13089      43524954 
 13089      5F455854 
 13089      5F4500
 13090              	.LASF207:
 13091 06a6 48415348 		.ascii	"HASH_TYPE_E\000"
 13091      5F545950 
 13091      455F4500 
 13092              	.LASF289:
 13093 06b2 6D705F74 		.ascii	"mp_to_unsigned_bin\000"
 13093      6F5F756E 
 13093      7369676E 
 13093      65645F62 
 13093      696E00
 13094              	.LASF286:
 13095 06c5 6D705F61 		.ascii	"mp_add\000"
 13095      646400
 13096              	.LASF13:
 13097 06cc 63686172 		.ascii	"char\000"
 13097      00
 13098              	.LASF259:
 13099 06d1 77635F52 		.ascii	"wc_RsaUnPad_ex\000"
 13099      7361556E 
ARM GAS  C:\Users\ddemidov\AppData\Local\Temp\ccr947bU.s 			page 266


 13099      5061645F 
 13099      657800
 13100              	.LASF58:
 13101 06e0 44594E41 		.ascii	"DYNAMIC_TYPE_SIGNATURE\000"
 13101      4D49435F 
 13101      54595045 
 13101      5F534947 
 13101      4E415455 
 13102              	.LASF84:
 13103 06f7 57435F48 		.ascii	"WC_HASH_TYPE_NONE\000"
 13103      4153485F 
 13103      54595045 
 13103      5F4E4F4E 
 13103      4500
 13104              	.LASF130:
 13105 0709 41534E5F 		.ascii	"ASN_RSA_KEY_E\000"
 13105      5253415F 
 13105      4B45595F 
 13105      4500
 13106              	.LASF62:
 13107 0717 44594E41 		.ascii	"DYNAMIC_TYPE_USER_CRYPTO\000"
 13107      4D49435F 
 13107      54595045 
 13107      5F555345 
 13107      525F4352 
 13108              	.LASF89:
 13109 0730 57435F48 		.ascii	"WC_HASH_TYPE_SHA256\000"
 13109      4153485F 
 13109      54595045 
 13109      5F534841 
 13109      32353600 
 13110              	.LASF247:
 13111 0744 684C656E 		.ascii	"hLen\000"
 13111      00
 13112              	.LASF299:
 13113 0749 436F6E73 		.ascii	"ConstantCompare\000"
 13113      74616E74 
 13113      436F6D70 
 13113      61726500 
 13114              	.LASF78:
 13115 0759 73746174 		.ascii	"status\000"
 13115      757300
 13116              	.LASF88:
 13117 0760 57435F48 		.ascii	"WC_HASH_TYPE_SHA\000"
 13117      4153485F 
 13117      54595045 
 13117      5F534841 
 13117      00
 13118              	.LASF54:
 13119 0771 44594E41 		.ascii	"DYNAMIC_TYPE_CAVIUM_RSA\000"
 13119      4D49435F 
 13119      54595045 
 13119      5F434156 
 13119      49554D5F 
 13120              	.LASF126:
 13121 0789 45585445 		.ascii	"EXTENSIONS_E\000"
 13121      4E53494F 
ARM GAS  C:\Users\ddemidov\AppData\Local\Temp\ccr947bU.s 			page 267


 13121      4E535F45 
 13121      00
 13122              	.LASF246:
 13123 0796 746D7053 		.ascii	"tmpSz\000"
 13123      7A00
 13124              	.LASF254:
 13125 079c 64624D61 		.ascii	"dbMask\000"
 13125      736B00
 13126              	.LASF56:
 13127 07a3 44594E41 		.ascii	"DYNAMIC_TYPE_TLSX\000"
 13127      4D49435F 
 13127      54595045 
 13127      5F544C53 
 13127      5800
 13128              	.LASF69:
 13129 07b5 44594E41 		.ascii	"DYNAMIC_TYPE_DTLS_BUFFER\000"
 13129      4D49435F 
 13129      54595045 
 13129      5F44544C 
 13129      535F4255 
 13130              	.LASF94:
 13131 07ce 5273614B 		.ascii	"RsaKey\000"
 13131      657900
 13132              	.LASF153:
 13133 07d5 554E4943 		.ascii	"UNICODE_SIZE_E\000"
 13133      4F44455F 
 13133      53495A45 
 13133      5F4500
 13134              	.LASF205:
 13135 07e4 4241445F 		.ascii	"BAD_COND_E\000"
 13135      434F4E44 
 13135      5F4500
 13136              	.LASF11:
 13137 07ef 6C6F6E67 		.ascii	"long long int\000"
 13137      206C6F6E 
 13137      6720696E 
 13137      7400
 13138              	.LASF41:
 13139 07fd 44594E41 		.ascii	"DYNAMIC_TYPE_OCSP_ENTRY\000"
 13139      4D49435F 
 13139      54595045 
 13139      5F4F4353 
 13139      505F454E 
 13140              	.LASF295:
 13141 0815 2E2E5C6B 		.ascii	"..\\kronos-c-sdk\\src\\wolfSSL\\wolfcrypt\\src\\rsa"
 13141      726F6E6F 
 13141      732D632D 
 13141      73646B5C 
 13141      7372635C 
 13142 0842 2E6300   		.ascii	".c\000"
 13143              	.LASF298:
 13144 0845 77635F48 		.ascii	"wc_HashType\000"
 13144      61736854 
 13144      79706500 
 13145              	.LASF105:
 13146 0851 4D505F52 		.ascii	"MP_READ_E\000"
 13146      4541445F 
ARM GAS  C:\Users\ddemidov\AppData\Local\Temp\ccr947bU.s 			page 268


 13146      4500
 13147              	.LASF197:
 13148 085b 41534E5F 		.ascii	"ASN_NO_AKID\000"
 13148      4E4F5F41 
 13148      4B494400 
 13149              	.LASF245:
 13150 0867 746D7046 		.ascii	"tmpF\000"
 13150      00
 13151              	.LASF262:
 13152 086c 77635F52 		.ascii	"wc_RsaPublicEncrypt\000"
 13152      73615075 
 13152      626C6963 
 13152      456E6372 
 13152      79707400 
 13153              	.LASF152:
 13154 0880 4E4F545F 		.ascii	"NOT_COMPILED_IN\000"
 13154      434F4D50 
 13154      494C4544 
 13154      5F494E00 
 13155              	.LASF190:
 13156 0890 49535F50 		.ascii	"IS_POINT_E\000"
 13156      4F494E54 
 13156      5F4500
 13157              	.LASF70:
 13158 089b 53484132 		.ascii	"SHA256\000"
 13158      353600
 13159              	.LASF257:
 13160 08a2 70616454 		.ascii	"padType\000"
 13160      79706500 
 13161              	.LASF163:
 13162 08aa 4241445F 		.ascii	"BAD_ALIGN_E\000"
 13162      414C4947 
 13162      4E5F4500 
 13163              	.LASF48:
 13164 08b6 44594E41 		.ascii	"DYNAMIC_TYPE_SOCKADDR\000"
 13164      4D49435F 
 13164      54595045 
 13164      5F534F43 
 13164      4B414444 
 13165              	.LASF119:
 13166 08cc 42554646 		.ascii	"BUFFER_E\000"
 13166      45525F45 
 13166      00
 13167              	.LASF22:
 13168 08d5 44594E41 		.ascii	"DYNAMIC_TYPE_BIGINT\000"
 13168      4D49435F 
 13168      54595045 
 13168      5F424947 
 13168      494E5400 
 13169              	.LASF73:
 13170 08e9 53484132 		.ascii	"SHA256_PAD_SIZE\000"
 13170      35365F50 
 13170      41445F53 
 13170      495A4500 
 13171              	.LASF35:
 13172 08f9 44594E41 		.ascii	"DYNAMIC_TYPE_CRL\000"
 13172      4D49435F 
ARM GAS  C:\Users\ddemidov\AppData\Local\Temp\ccr947bU.s 			page 269


 13172      54595045 
 13172      5F43524C 
 13172      00
 13173              	.LASF216:
 13174 090a 5253415F 		.ascii	"RSA_MAX_SIZE\000"
 13174      4D41585F 
 13174      53495A45 
 13174      00
 13175              	.LASF23:
 13176 0917 44594E41 		.ascii	"DYNAMIC_TYPE_RSA\000"
 13176      4D49435F 
 13176      54595045 
 13176      5F525341 
 13176      00
 13177              	.LASF277:
 13178 0928 77635F52 		.ascii	"wc_RNG_GenerateBlock\000"
 13178      4E475F47 
 13178      656E6572 
 13178      61746542 
 13178      6C6F636B 
 13179              	.LASF49:
 13180 093d 44594E41 		.ascii	"DYNAMIC_TYPE_LIBZ\000"
 13180      4D49435F 
 13180      54595045 
 13180      5F4C4942 
 13180      5A00
 13181              	.LASF123:
 13182 094f 5355424A 		.ascii	"SUBJECT_E\000"
 13182      4543545F 
 13182      4500
 13183              	.LASF284:
 13184 0959 6D705F6D 		.ascii	"mp_mulmod\000"
 13184      756C6D6F 
 13184      6400
 13185              	.LASF158:
 13186 0963 43415649 		.ascii	"CAVIUM_INIT_E\000"
 13186      554D5F49 
 13186      4E49545F 
 13186      4500
 13187              	.LASF29:
 13188 0971 44594E41 		.ascii	"DYNAMIC_TYPE_DOMAIN\000"
 13188      4D49435F 
 13188      54595045 
 13188      5F444F4D 
 13188      41494E00 
 13189              	.LASF250:
 13190 0985 77635F52 		.ascii	"wc_RsaPad_OAEP\000"
 13190      73615061 
 13190      645F4F41 
 13190      455000
 13191              	.LASF115:
 13192 0994 4D505F5A 		.ascii	"MP_ZERO_E\000"
 13192      45524F5F 
 13192      4500
 13193              	.LASF159:
 13194 099e 434F4D50 		.ascii	"COMPRESS_INIT_E\000"
 13194      52455353 
ARM GAS  C:\Users\ddemidov\AppData\Local\Temp\ccr947bU.s 			page 270


 13194      5F494E49 
 13194      545F4500 
 13195              	.LASF183:
 13196 09ae 5253415F 		.ascii	"RSA_KAT_FIPS_E\000"
 13196      4B41545F 
 13196      46495053 
 13196      5F4500
 13197              	.LASF219:
 13198 09bd 636F6D70 		.ascii	"compareSum\000"
 13198      61726553 
 13198      756D00
 13199              	.LASF145:
 13200 09c8 41534E5F 		.ascii	"ASN_DH_KEY_E\000"
 13200      44485F4B 
 13200      45595F45 
 13200      00
 13201              	.LASF215:
 13202 09d5 5253415F 		.ascii	"RSA_MIN_SIZE\000"
 13202      4D494E5F 
 13202      53495A45 
 13202      00
 13203              	.LASF281:
 13204 09e2 6D705F63 		.ascii	"mp_clear\000"
 13204      6C656172 
 13204      00
 13205              	.LASF66:
 13206 09eb 44594E41 		.ascii	"DYNAMIC_TYPE_X509_CTX\000"
 13206      4D49435F 
 13206      54595045 
 13206      5F583530 
 13206      395F4354 
 13207              	.LASF77:
 13208 0a01 73656564 		.ascii	"seed\000"
 13208      00
 13209              	.LASF170:
 13210 0a06 5245515F 		.ascii	"REQ_ATTRIBUTE_E\000"
 13210      41545452 
 13210      49425554 
 13210      455F4500 
 13211              	.LASF47:
 13212 0a16 44594E41 		.ascii	"DYNAMIC_TYPE_DTLS_POOL\000"
 13212      4D49435F 
 13212      54595045 
 13212      5F44544C 
 13212      535F504F 
 13213              	.LASF251:
 13214 0a2d 6F70744C 		.ascii	"optLabel\000"
 13214      6162656C 
 13214      00
 13215              	.LASF236:
 13216 0a36 646F6E65 		.ascii	"done\000"
 13216      00
 13217              	.LASF38:
 13218 0a3b 44594E41 		.ascii	"DYNAMIC_TYPE_CERT_MANAGER\000"
 13218      4D49435F 
 13218      54595045 
 13218      5F434552 
ARM GAS  C:\Users\ddemidov\AppData\Local\Temp\ccr947bU.s 			page 271


 13218      545F4D41 
 13219              	.LASF79:
 13220 0a55 6D705F64 		.ascii	"mp_digit\000"
 13220      69676974 
 13220      00
 13221              	.LASF202:
 13222 0a5e 43455254 		.ascii	"CERTPOLICIES_E\000"
 13222      504F4C49 
 13222      43494553 
 13222      5F4500
 13223              	.LASF161:
 13224 0a6d 4445434F 		.ascii	"DECOMPRESS_INIT_E\000"
 13224      4D505245 
 13224      53535F49 
 13224      4E49545F 
 13224      4500
 13225              	.LASF174:
 13226 0a7f 41534E5F 		.ascii	"ASN_NAME_INVALID_E\000"
 13226      4E414D45 
 13226      5F494E56 
 13226      414C4944 
 13226      5F4500
 13227              	.LASF112:
 13228 0a92 4D505F4D 		.ascii	"MP_MOD_E\000"
 13228      4F445F45 
 13228      00
 13229              	.LASF269:
 13230 0a9b 77635F52 		.ascii	"wc_RsaPrivateDecrypt\000"
 13230      73615072 
 13230      69766174 
 13230      65446563 
 13230      72797074 
 13231              	.LASF65:
 13232 0ab0 44594E41 		.ascii	"DYNAMIC_TYPE_X509_STORE\000"
 13232      4D49435F 
 13232      54595045 
 13232      5F583530 
 13232      395F5354 
 13233              	.LASF64:
 13234 0ac8 44594E41 		.ascii	"DYNAMIC_TYPE_X509_EXT\000"
 13234      4D49435F 
 13234      54595045 
 13234      5F583530 
 13234      395F4558 
 13235              	.LASF234:
 13236 0ade 6F75744C 		.ascii	"outLen\000"
 13236      656E00
 13237              	.LASF178:
 13238 0ae5 4C454E47 		.ascii	"LENGTH_ONLY_E\000"
 13238      54485F4F 
 13238      4E4C595F 
 13238      4500
 13239              	.LASF109:
 13240 0af3 4D505F41 		.ascii	"MP_ADD_E\000"
 13240      44445F45 
 13240      00
 13241              	.LASF46:
ARM GAS  C:\Users\ddemidov\AppData\Local\Temp\ccr947bU.s 			page 272


 13242 0afc 44594E41 		.ascii	"DYNAMIC_TYPE_ARRAYS\000"
 13242      4D49435F 
 13242      54595045 
 13242      5F415252 
 13242      41595300 
 13243              	.LASF155:
 13244 0b10 414C545F 		.ascii	"ALT_NAME_E\000"
 13244      4E414D45 
 13244      5F4500
 13245              	.LASF296:
 13246 0b1b 433A5C55 		.ascii	"C:\\Users\\ddemidov\\Documents\\PSoC Creator\\BLE_F"
 13246      73657273 
 13246      5C646465 
 13246      6D69646F 
 13246      765C446F 
 13247 0b49 696E644D 		.ascii	"indMe01\\SenseAbility.cydsn\000"
 13247      6530315C 
 13247      53656E73 
 13247      65416269 
 13247      6C697479 
 13248              	.LASF51:
 13249 0b64 44594E41 		.ascii	"DYNAMIC_TYPE_TMP_BUFFER\000"
 13249      4D49435F 
 13249      54595045 
 13249      5F544D50 
 13249      5F425546 
 13250              	.LASF39:
 13251 0b7c 44594E41 		.ascii	"DYNAMIC_TYPE_CRL_MONITOR\000"
 13251      4D49435F 
 13251      54595045 
 13251      5F43524C 
 13251      5F4D4F4E 
 13252              	.LASF168:
 13253 0b95 4241445F 		.ascii	"BAD_ENC_STATE_E\000"
 13253      454E435F 
 13253      53544154 
 13253      455F4500 
 13254              	.LASF81:
 13255 0ba5 616C6C6F 		.ascii	"alloc\000"
 13255      6300
 13256              	.LASF8:
 13257 0bab 73686F72 		.ascii	"short int\000"
 13257      7420696E 
 13257      7400
 13258              	.LASF26:
 13259 0bb5 44594E41 		.ascii	"DYNAMIC_TYPE_IN_BUFFER\000"
 13259      4D49435F 
 13259      54595045 
 13259      5F494E5F 
 13259      42554646 
 13260              	.LASF133:
 13261 0bcc 41534E5F 		.ascii	"ASN_EXPECT_0_E\000"
 13261      45585045 
 13261      43545F30 
 13261      5F4500
 13262              	.LASF24:
 13263 0bdb 44594E41 		.ascii	"DYNAMIC_TYPE_METHOD\000"
ARM GAS  C:\Users\ddemidov\AppData\Local\Temp\ccr947bU.s 			page 273


 13263      4D49435F 
 13263      54595045 
 13263      5F4D4554 
 13263      484F4400 
 13264              	.LASF9:
 13265 0bef 6C6F6E67 		.ascii	"long int\000"
 13265      20696E74 
 13265      00
 13266              	.LASF67:
 13267 0bf8 44594E41 		.ascii	"DYNAMIC_TYPE_URL\000"
 13267      4D49435F 
 13267      54595045 
 13267      5F55524C 
 13267      00
 13268              	.LASF31:
 13269 0c09 44594E41 		.ascii	"DYNAMIC_TYPE_CTX\000"
 13269      4D49435F 
 13269      54595045 
 13269      5F435458 
 13269      00
 13270              	.LASF264:
 13271 0c1a 68617368 		.ascii	"hash\000"
 13271      00
 13272              	.LASF218:
 13273 0c1f 6C656E67 		.ascii	"length\000"
 13273      746800
 13274              	.LASF125:
 13275 0c26 43415F54 		.ascii	"CA_TRUE_E\000"
 13275      5255455F 
 13275      4500
 13276              	.LASF208:
 13277 0c30 4D494E5F 		.ascii	"MIN_CODE_E\000"
 13277      434F4445 
 13277      5F4500
 13278              	.LASF186:
 13279 0c3b 41455347 		.ascii	"AESGCM_KAT_FIPS_E\000"
 13279      434D5F4B 
 13279      41545F46 
 13279      4950535F 
 13279      4500
 13280              	.LASF199:
 13281 0c4d 534B4944 		.ascii	"SKID_E\000"
 13281      5F4500
 13282              	.LASF235:
 13283 0c54 6B65794C 		.ascii	"keyLen\000"
 13283      656E00
 13284              	.LASF3:
 13285 0c5b 776F7264 		.ascii	"word32\000"
 13285      333200
 13286              	.LASF114:
 13287 0c62 4D505F43 		.ascii	"MP_CMP_E\000"
 13287      4D505F45 
 13287      00
 13288              	.LASF204:
 13289 0c6b 5349475F 		.ascii	"SIG_VERIFY_E\000"
 13289      56455249 
 13289      46595F45 
ARM GAS  C:\Users\ddemidov\AppData\Local\Temp\ccr947bU.s 			page 274


 13289      00
 13290              	.LASF99:
 13291 0c78 52454144 		.ascii	"READ_RAN_E\000"
 13291      5F52414E 
 13291      5F4500
 13292              	.LASF297:
 13293 0c83 44524247 		.ascii	"DRBG\000"
 13293      00
 13294              	.LASF224:
 13295 0c88 6D61784F 		.ascii	"maxOutputLen\000"
 13295      75747075 
 13295      744C656E 
 13295      00
 13296              	.LASF294:
 13297 0c95 474E5520 		.ascii	"GNU C 4.9.3 20150303 (release) [ARM/embedded-4_9-br"
 13297      4320342E 
 13297      392E3320 
 13297      32303135 
 13297      30333033 
 13298 0cc8 616E6368 		.ascii	"anch revision 221220] -mcpu=cortex-m0 -mthumb -g -O"
 13298      20726576 
 13298      6973696F 
 13298      6E203232 
 13298      31323230 
 13299 0cfb 67202D66 		.ascii	"g -ffunction-sections -ffat-lto-objects\000"
 13299      66756E63 
 13299      74696F6E 
 13299      2D736563 
 13299      74696F6E 
 13300              	.LASF17:
 13301 0d23 44594E41 		.ascii	"DYNAMIC_TYPE_FILE\000"
 13301      4D49435F 
 13301      54595045 
 13301      5F46494C 
 13301      4500
 13302              	.LASF129:
 13303 0d35 41534E5F 		.ascii	"ASN_GETINT_E\000"
 13303      47455449 
 13303      4E545F45 
 13303      00
 13304              	.LASF261:
 13305 0d42 77635F46 		.ascii	"wc_FreeRsaKey\000"
 13305      72656552 
 13305      73614B65 
 13305      7900
 13306              	.LASF182:
 13307 0d50 484D4143 		.ascii	"HMAC_KAT_FIPS_E\000"
 13307      5F4B4154 
 13307      5F464950 
 13307      535F4500 
 13308              	.LASF121:
 13309 0d60 5055424C 		.ascii	"PUBLIC_KEY_E\000"
 13309      49435F4B 
 13309      45595F45 
 13309      00
 13310              	.LASF191:
 13311 0d6d 4543435F 		.ascii	"ECC_INF_E\000"
ARM GAS  C:\Users\ddemidov\AppData\Local\Temp\ccr947bU.s 			page 275


 13311      494E465F 
 13311      4500
 13312              	.LASF36:
 13313 0d77 44594E41 		.ascii	"DYNAMIC_TYPE_REVOKED\000"
 13313      4D49435F 
 13313      54595045 
 13313      5F524556 
 13313      4F4B4544 
 13314              	.LASF154:
 13315 0d8c 4E4F5F50 		.ascii	"NO_PASSWORD\000"
 13315      41535357 
 13315      4F524400 
 13316              	.LASF293:
 13317 0d98 776F6C66 		.ascii	"wolfSSL_Malloc\000"
 13317      53534C5F 
 13317      4D616C6C 
 13317      6F6300
 13318              	.LASF72:
 13319 0da7 53484132 		.ascii	"SHA256_DIGEST_SIZE\000"
 13319      35365F44 
 13319      49474553 
 13319      545F5349 
 13319      5A4500
 13320              	.LASF256:
 13321 0dba 77635F52 		.ascii	"wc_RsaPad_ex\000"
 13321      73615061 
 13321      645F6578 
 13321      00
 13322              	.LASF138:
 13323 0dc7 41534E5F 		.ascii	"ASN_AFTER_DATE_E\000"
 13323      41465445 
 13323      525F4441 
 13323      54455F45 
 13323      00
 13324              	.LASF184:
 13325 0dd8 44524247 		.ascii	"DRBG_KAT_FIPS_E\000"
 13325      5F4B4154 
 13325      5F464950 
 13325      535F4500 
 13326              	.LASF185:
 13327 0de8 44524247 		.ascii	"DRBG_CONT_FIPS_E\000"
 13327      5F434F4E 
 13327      545F4649 
 13327      50535F45 
 13327      00
 13328              	.LASF253:
 13329 0df9 70734C65 		.ascii	"psLen\000"
 13329      6E00
 13330              	.LASF164:
 13331 0dff 41534E5F 		.ascii	"ASN_NO_SIGNER_E\000"
 13331      4E4F5F53 
 13331      49474E45 
 13331      525F4500 
 13332              	.LASF201:
 13333 0e0f 4B455955 		.ascii	"KEYUSAGE_E\000"
 13333      53414745 
 13333      5F4500
ARM GAS  C:\Users\ddemidov\AppData\Local\Temp\ccr947bU.s 			page 276


 13334              	.LASF167:
 13335 0e1a 41534E5F 		.ascii	"ASN_OCSP_CONFIRM_E\000"
 13335      4F435350 
 13335      5F434F4E 
 13335      4649524D 
 13335      5F4500
 13336              	.LASF12:
 13337 0e2d 73697A65 		.ascii	"sizetype\000"
 13337      74797065 
 13337      00
 13338              	.LASF10:
 13339 0e36 6C6F6E67 		.ascii	"long unsigned int\000"
 13339      20756E73 
 13339      69676E65 
 13339      6420696E 
 13339      7400
 13340              	.LASF187:
 13341 0e48 54485245 		.ascii	"THREAD_STORE_KEY_E\000"
 13341      41445F53 
 13341      544F5245 
 13341      5F4B4559 
 13341      5F4500
 13342              	.LASF142:
 13343 0e5b 41534E5F 		.ascii	"ASN_SIG_CONFIRM_E\000"
 13343      5349475F 
 13343      434F4E46 
 13343      49524D5F 
 13343      4500
 13344              	.LASF271:
 13345 0e6d 77635F52 		.ascii	"wc_RsaPrivateDecrypt_ex\000"
 13345      73615072 
 13345      69766174 
 13345      65446563 
 13345      72797074 
 13346              	.LASF214:
 13347 0e85 5253415F 		.ascii	"RSA_BLOCK_TYPE_2\000"
 13347      424C4F43 
 13347      4B5F5459 
 13347      50455F32 
 13347      00
 13348              	.LASF85:
 13349 0e96 57435F48 		.ascii	"WC_HASH_TYPE_MD2\000"
 13349      4153485F 
 13349      54595045 
 13349      5F4D4432 
 13349      00
 13350              	.LASF86:
 13351 0ea7 57435F48 		.ascii	"WC_HASH_TYPE_MD4\000"
 13351      4153485F 
 13351      54595045 
 13351      5F4D4434 
 13351      00
 13352              	.LASF87:
 13353 0eb8 57435F48 		.ascii	"WC_HASH_TYPE_MD5\000"
 13353      4153485F 
 13353      54595045 
 13353      5F4D4435 
ARM GAS  C:\Users\ddemidov\AppData\Local\Temp\ccr947bU.s 			page 277


 13353      00
 13354              	.LASF229:
 13355 0ec9 696E7075 		.ascii	"input\000"
 13355      7400
 13356              	.LASF2:
 13357 0ecf 62797465 		.ascii	"byte\000"
 13357      00
 13358              	.LASF270:
 13359 0ed4 706C6169 		.ascii	"plainLen\000"
 13359      6E4C656E 
 13359      00
 13360              	.LASF228:
 13361 0edd 77635F52 		.ascii	"wc_RsaPad\000"
 13361      73615061 
 13361      6400
 13362              	.LASF40:
 13363 0ee7 44594E41 		.ascii	"DYNAMIC_TYPE_OCSP_STATUS\000"
 13363      4D49435F 
 13363      54595045 
 13363      5F4F4353 
 13363      505F5354 
 13364              	.LASF15:
 13365 0f00 44594E41 		.ascii	"DYNAMIC_TYPE_CERT\000"
 13365      4D49435F 
 13365      54595045 
 13365      5F434552 
 13365      5400
 13366              	.LASF113:
 13367 0f12 4D505F49 		.ascii	"MP_INVMOD_E\000"
 13367      4E564D4F 
 13367      445F4500 
 13368              	.LASF95:
 13369 0f1e 74797065 		.ascii	"type\000"
 13369      00
 13370              	.LASF107:
 13371 0f23 4D505F54 		.ascii	"MP_TO_E\000"
 13371      4F5F4500 
 13372              	.LASF101:
 13373 0f2b 43525950 		.ascii	"CRYPTGEN_E\000"
 13373      5447454E 
 13373      5F4500
 13374              	.LASF0:
 13375 0f36 756E7369 		.ascii	"unsigned char\000"
 13375      676E6564 
 13375      20636861 
 13375      7200
 13376              	.LASF220:
 13377 0f44 706B6373 		.ascii	"pkcsBlock\000"
 13377      426C6F63 
 13377      6B00
 13378              	.LASF226:
 13379 0f4e 6F757470 		.ascii	"outputLen\000"
 13379      75744C65 
 13379      6E00
 13380              	.LASF21:
 13381 0f58 44594E41 		.ascii	"DYNAMIC_TYPE_NONE\000"
 13381      4D49435F 
ARM GAS  C:\Users\ddemidov\AppData\Local\Temp\ccr947bU.s 			page 278


 13381      54595045 
 13381      5F4E4F4E 
 13381      4500
 13382              	.LASF166:
 13383 0f6a 41534E5F 		.ascii	"ASN_CRL_NO_SIGNER_E\000"
 13383      43524C5F 
 13383      4E4F5F53 
 13383      49474E45 
 13383      525F4500 
 13384              	.LASF53:
 13385 0f7e 44594E41 		.ascii	"DYNAMIC_TYPE_CAVIUM_TMP\000"
 13385      4D49435F 
 13385      54595045 
 13385      5F434156 
 13385      49554D5F 
 13386              	.LASF16:
 13387 0f96 44594E41 		.ascii	"DYNAMIC_TYPE_KEY\000"
 13387      4D49435F 
 13387      54595045 
 13387      5F4B4559 
 13387      00
 13388              	.LASF128:
 13389 0fa7 41534E5F 		.ascii	"ASN_VERSION_E\000"
 13389      56455253 
 13389      494F4E5F 
 13389      4500
 13390              	.LASF196:
 13391 0fb5 41534E5F 		.ascii	"ASN_NO_SKID\000"
 13391      4E4F5F53 
 13391      4B494400 
 13392              	.LASF18:
 13393 0fc1 44594E41 		.ascii	"DYNAMIC_TYPE_SUBJECT_CN\000"
 13393      4D49435F 
 13393      54595045 
 13393      5F535542 
 13393      4A454354 
 13394              	.LASF60:
 13395 0fd9 44594E41 		.ascii	"DYNAMIC_TYPE_SRP\000"
 13395      4D49435F 
 13395      54595045 
 13395      5F535250 
 13395      00
 13396              	.LASF104:
 13397 0fea 4D505F49 		.ascii	"MP_INIT_E\000"
 13397      4E49545F 
 13397      4500
 13398              	.LASF300:
 13399 0ff4 466F7263 		.ascii	"ForceZero\000"
 13399      655A6572 
 13399      6F00
 13400              	.LASF7:
 13401 0ffe 7369676E 		.ascii	"signed char\000"
 13401      65642063 
 13401      68617200 
 13402              	.LASF1:
 13403 100a 73686F72 		.ascii	"short unsigned int\000"
 13403      7420756E 
ARM GAS  C:\Users\ddemidov\AppData\Local\Temp\ccr947bU.s 			page 279


 13403      7369676E 
 13403      65642069 
 13403      6E7400
 13404              	.LASF37:
 13405 101d 44594E41 		.ascii	"DYNAMIC_TYPE_CRL_ENTRY\000"
 13405      4D49435F 
 13405      54595045 
 13405      5F43524C 
 13405      5F454E54 
 13406              	.LASF116:
 13407 1034 4D454D4F 		.ascii	"MEMORY_E\000"
 13407      52595F45 
 13407      00
 13408              	.LASF280:
 13409 103d 6D656D63 		.ascii	"memcpy\000"
 13409      707900
 13410              	.LASF100:
 13411 1044 57494E43 		.ascii	"WINCRYPT_E\000"
 13411      52595054 
 13411      5F4500
 13412              	.LASF223:
 13413 104f 70616456 		.ascii	"padValue\000"
 13413      616C7565 
 13413      00
 13414              	.LASF193:
 13415 1058 5352505F 		.ascii	"SRP_CALL_ORDER_E\000"
 13415      43414C4C 
 13415      5F4F5244 
 13415      45525F45 
 13415      00
 13416              	.LASF241:
 13417 1069 68547970 		.ascii	"hType\000"
 13417      6500
 13418              	.LASF141:
 13419 106f 41534E5F 		.ascii	"ASN_INPUT_E\000"
 13419      494E5055 
 13419      545F4500 
 13420              	.LASF144:
 13421 107b 41534E5F 		.ascii	"ASN_SIG_KEY_E\000"
 13421      5349475F 
 13421      4B45595F 
 13421      4500
 13422              	.LASF240:
 13423 1089 77635F4D 		.ascii	"wc_MGF1\000"
 13423      47463100 
 13424              	.LASF172:
 13425 1091 504B4353 		.ascii	"PKCS7_RECIP_E\000"
 13425      375F5245 
 13425      4349505F 
 13425      4500
 13426              	.LASF237:
 13427 109f 696E6E65 		.ascii	"inner_done\000"
 13427      725F646F 
 13427      6E6500
 13428              	.LASF244:
 13429 10aa 746D7041 		.ascii	"tmpA\000"
 13429      00
ARM GAS  C:\Users\ddemidov\AppData\Local\Temp\ccr947bU.s 			page 280


 13430              	.LASF233:
 13431 10af 696E4C65 		.ascii	"inLen\000"
 13431      6E00
 13432              	.LASF30:
 13433 10b5 44594E41 		.ascii	"DYNAMIC_TYPE_SSL\000"
 13433      4D49435F 
 13433      54595045 
 13433      5F53534C 
 13433      00
 13434              	.LASF266:
 13435 10c6 6C616265 		.ascii	"labelSz\000"
 13435      6C537A00 
 13436              	.LASF120:
 13437 10ce 414C474F 		.ascii	"ALGO_ID_E\000"
 13437      5F49445F 
 13437      4500
 13438              	.LASF255:
 13439 10d8 6C486173 		.ascii	"lHash\000"
 13439      6800
 13440              	.LASF71:
 13441 10de 53484132 		.ascii	"SHA256_BLOCK_SIZE\000"
 13441      35365F42 
 13441      4C4F434B 
 13441      5F53495A 
 13441      4500
 13442              	.LASF162:
 13443 10f0 4445434F 		.ascii	"DECOMPRESS_E\000"
 13443      4D505245 
 13443      53535F45 
 13443      00
 13444              	.LASF102:
 13445 10fd 52414E5F 		.ascii	"RAN_BLOCK_E\000"
 13445      424C4F43 
 13445      4B5F4500 
 13446              	.LASF221:
 13447 1109 706B6373 		.ascii	"pkcsBlockLen\000"
 13447      426C6F63 
 13447      6B4C656E 
 13447      00
 13448              	.LASF288:
 13449 1116 6D705F75 		.ascii	"mp_unsigned_bin_size\000"
 13449      6E736967 
 13449      6E65645F 
 13449      62696E5F 
 13449      73697A65 
 13450              	.LASF189:
 13451 112b 4D41435F 		.ascii	"MAC_CMP_FAILED_E\000"
 13451      434D505F 
 13451      4641494C 
 13451      45445F45 
 13451      00
 13452              	.LASF103:
 13453 113c 4241445F 		.ascii	"BAD_MUTEX_E\000"
 13453      4D555445 
 13453      585F4500 
 13454              	.LASF32:
 13455 1148 44594E41 		.ascii	"DYNAMIC_TYPE_WRITEV\000"
ARM GAS  C:\Users\ddemidov\AppData\Local\Temp\ccr947bU.s 			page 281


 13455      4D49435F 
 13455      54595045 
 13455      5F575249 
 13455      54455600 
 13456              	.LASF34:
 13457 115c 44594E41 		.ascii	"DYNAMIC_TYPE_DSA\000"
 13457      4D49435F 
 13457      54595045 
 13457      5F445341 
 13457      00
 13458              		.ident	"GCC: (GNU Tools for ARM Embedded Processors) 4.9.3 20150303 (release) [ARM/embedded-4_9-br
