ARM GAS  C:\Users\ddemidov\AppData\Local\Temp\ccXCZcWx.s 			page 1


   1              		.cpu cortex-m0
   2              		.fpu softvfp
   3              		.eabi_attribute 20, 1
   4              		.eabi_attribute 21, 1
   5              		.eabi_attribute 23, 3
   6              		.eabi_attribute 24, 1
   7              		.eabi_attribute 25, 1
   8              		.eabi_attribute 26, 1
   9              		.eabi_attribute 30, 4
  10              		.eabi_attribute 34, 0
  11              		.eabi_attribute 18, 4
  12              		.code	16
  13              		.file	"RTC_PPS.c"
  14              		.text
  15              	.Ltext0:
  16              		.cfi_sections	.debug_frame
  17              		.section	.text.RTC_PPS_Enable,"ax",%progbits
  18              		.align	1
  19              		.global	RTC_PPS_Enable
  20              		.code	16
  21              		.thumb_func
  22              		.type	RTC_PPS_Enable, %function
  23              	RTC_PPS_Enable:
  24              	.LFB3:
  25              		.file 1 ".\\Generated_Source\\PSoC4\\RTC_PPS.c"
   1:.\Generated_Source\PSoC4/RTC_PPS.c **** /*******************************************************************************
   2:.\Generated_Source\PSoC4/RTC_PPS.c **** * File Name: RTC_PPS.c
   3:.\Generated_Source\PSoC4/RTC_PPS.c **** * Version 2.70
   4:.\Generated_Source\PSoC4/RTC_PPS.c **** *
   5:.\Generated_Source\PSoC4/RTC_PPS.c **** * Description:
   6:.\Generated_Source\PSoC4/RTC_PPS.c **** *  The Timer component consists of a 8, 16, 24 or 32-bit timer with
   7:.\Generated_Source\PSoC4/RTC_PPS.c **** *  a selectable period between 2 and 2^Width - 1.  The timer may free run
   8:.\Generated_Source\PSoC4/RTC_PPS.c **** *  or be used as a capture timer as well.  The capture can be initiated
   9:.\Generated_Source\PSoC4/RTC_PPS.c **** *  by a positive or negative edge signal as well as via software.
  10:.\Generated_Source\PSoC4/RTC_PPS.c **** *  A trigger input can be programmed to enable the timer on rising edge
  11:.\Generated_Source\PSoC4/RTC_PPS.c **** *  falling edge, either edge or continous run.
  12:.\Generated_Source\PSoC4/RTC_PPS.c **** *  Interrupts may be generated due to a terminal count condition
  13:.\Generated_Source\PSoC4/RTC_PPS.c **** *  or a capture event.
  14:.\Generated_Source\PSoC4/RTC_PPS.c **** *
  15:.\Generated_Source\PSoC4/RTC_PPS.c **** * Note:
  16:.\Generated_Source\PSoC4/RTC_PPS.c **** *
  17:.\Generated_Source\PSoC4/RTC_PPS.c **** ********************************************************************************
  18:.\Generated_Source\PSoC4/RTC_PPS.c **** * Copyright 2008-2014, Cypress Semiconductor Corporation.  All rights reserved.
  19:.\Generated_Source\PSoC4/RTC_PPS.c **** * You may use this file only in accordance with the license, terms, conditions,
  20:.\Generated_Source\PSoC4/RTC_PPS.c **** * disclaimers, and limitations in the end user license agreement accompanying
  21:.\Generated_Source\PSoC4/RTC_PPS.c **** * the software package with which this file was provided.
  22:.\Generated_Source\PSoC4/RTC_PPS.c **** ********************************************************************************/
  23:.\Generated_Source\PSoC4/RTC_PPS.c **** 
  24:.\Generated_Source\PSoC4/RTC_PPS.c **** #include "RTC_PPS.h"
  25:.\Generated_Source\PSoC4/RTC_PPS.c **** 
  26:.\Generated_Source\PSoC4/RTC_PPS.c **** uint8 RTC_PPS_initVar = 0u;
  27:.\Generated_Source\PSoC4/RTC_PPS.c **** 
  28:.\Generated_Source\PSoC4/RTC_PPS.c **** 
  29:.\Generated_Source\PSoC4/RTC_PPS.c **** /*******************************************************************************
  30:.\Generated_Source\PSoC4/RTC_PPS.c **** * Function Name: RTC_PPS_Init
  31:.\Generated_Source\PSoC4/RTC_PPS.c **** ********************************************************************************
  32:.\Generated_Source\PSoC4/RTC_PPS.c **** *
ARM GAS  C:\Users\ddemidov\AppData\Local\Temp\ccXCZcWx.s 			page 2


  33:.\Generated_Source\PSoC4/RTC_PPS.c **** * Summary:
  34:.\Generated_Source\PSoC4/RTC_PPS.c **** *  Initialize to the schematic state
  35:.\Generated_Source\PSoC4/RTC_PPS.c **** *
  36:.\Generated_Source\PSoC4/RTC_PPS.c **** * Parameters:
  37:.\Generated_Source\PSoC4/RTC_PPS.c **** *  void
  38:.\Generated_Source\PSoC4/RTC_PPS.c **** *
  39:.\Generated_Source\PSoC4/RTC_PPS.c **** * Return:
  40:.\Generated_Source\PSoC4/RTC_PPS.c **** *  void
  41:.\Generated_Source\PSoC4/RTC_PPS.c **** *
  42:.\Generated_Source\PSoC4/RTC_PPS.c **** *******************************************************************************/
  43:.\Generated_Source\PSoC4/RTC_PPS.c **** void RTC_PPS_Init(void) 
  44:.\Generated_Source\PSoC4/RTC_PPS.c **** {
  45:.\Generated_Source\PSoC4/RTC_PPS.c ****     #if(!RTC_PPS_UsingFixedFunction)
  46:.\Generated_Source\PSoC4/RTC_PPS.c ****             /* Interrupt State Backup for Critical Region*/
  47:.\Generated_Source\PSoC4/RTC_PPS.c ****             uint8 RTC_PPS_interruptState;
  48:.\Generated_Source\PSoC4/RTC_PPS.c ****     #endif /* Interrupt state back up for Fixed Function only */
  49:.\Generated_Source\PSoC4/RTC_PPS.c **** 
  50:.\Generated_Source\PSoC4/RTC_PPS.c ****     #if (RTC_PPS_UsingFixedFunction)
  51:.\Generated_Source\PSoC4/RTC_PPS.c ****         /* Clear all bits but the enable bit (if it's already set) for Timer operation */
  52:.\Generated_Source\PSoC4/RTC_PPS.c ****         RTC_PPS_CONTROL &= RTC_PPS_CTRL_ENABLE;
  53:.\Generated_Source\PSoC4/RTC_PPS.c **** 
  54:.\Generated_Source\PSoC4/RTC_PPS.c ****         /* Clear the mode bits for continuous run mode */
  55:.\Generated_Source\PSoC4/RTC_PPS.c ****         #if (CY_PSOC5A)
  56:.\Generated_Source\PSoC4/RTC_PPS.c ****             RTC_PPS_CONTROL2 &= ((uint8)(~RTC_PPS_CTRL_MODE_MASK));
  57:.\Generated_Source\PSoC4/RTC_PPS.c ****         #endif /* Clear bits in CONTROL2 only in PSOC5A */
  58:.\Generated_Source\PSoC4/RTC_PPS.c **** 
  59:.\Generated_Source\PSoC4/RTC_PPS.c ****         #if (CY_PSOC3 || CY_PSOC5LP)
  60:.\Generated_Source\PSoC4/RTC_PPS.c ****             RTC_PPS_CONTROL3 &= ((uint8)(~RTC_PPS_CTRL_MODE_MASK));
  61:.\Generated_Source\PSoC4/RTC_PPS.c ****         #endif /* CONTROL3 register exists only in PSoC3 OR PSoC5LP */
  62:.\Generated_Source\PSoC4/RTC_PPS.c **** 
  63:.\Generated_Source\PSoC4/RTC_PPS.c ****         /* Check if One Shot mode is enabled i.e. RunMode !=0*/
  64:.\Generated_Source\PSoC4/RTC_PPS.c ****         #if (RTC_PPS_RunModeUsed != 0x0u)
  65:.\Generated_Source\PSoC4/RTC_PPS.c ****             /* Set 3rd bit of Control register to enable one shot mode */
  66:.\Generated_Source\PSoC4/RTC_PPS.c ****             RTC_PPS_CONTROL |= 0x04u;
  67:.\Generated_Source\PSoC4/RTC_PPS.c ****         #endif /* One Shot enabled only when RunModeUsed is not Continuous*/
  68:.\Generated_Source\PSoC4/RTC_PPS.c **** 
  69:.\Generated_Source\PSoC4/RTC_PPS.c ****         #if (RTC_PPS_RunModeUsed == 2)
  70:.\Generated_Source\PSoC4/RTC_PPS.c ****             #if (CY_PSOC5A)
  71:.\Generated_Source\PSoC4/RTC_PPS.c ****                 /* Set last 2 bits of control2 register if one shot(halt on
  72:.\Generated_Source\PSoC4/RTC_PPS.c ****                 interrupt) is enabled*/
  73:.\Generated_Source\PSoC4/RTC_PPS.c ****                 RTC_PPS_CONTROL2 |= 0x03u;
  74:.\Generated_Source\PSoC4/RTC_PPS.c ****             #endif /* Set One-Shot Halt on Interrupt bit in CONTROL2 for PSoC5A */
  75:.\Generated_Source\PSoC4/RTC_PPS.c **** 
  76:.\Generated_Source\PSoC4/RTC_PPS.c ****             #if (CY_PSOC3 || CY_PSOC5LP)
  77:.\Generated_Source\PSoC4/RTC_PPS.c ****                 /* Set last 2 bits of control3 register if one shot(halt on
  78:.\Generated_Source\PSoC4/RTC_PPS.c ****                 interrupt) is enabled*/
  79:.\Generated_Source\PSoC4/RTC_PPS.c ****                 RTC_PPS_CONTROL3 |= 0x03u;
  80:.\Generated_Source\PSoC4/RTC_PPS.c ****             #endif /* Set One-Shot Halt on Interrupt bit in CONTROL3 for PSoC3 or PSoC5LP */
  81:.\Generated_Source\PSoC4/RTC_PPS.c **** 
  82:.\Generated_Source\PSoC4/RTC_PPS.c ****         #endif /* Remove section if One Shot Halt on Interrupt is not enabled */
  83:.\Generated_Source\PSoC4/RTC_PPS.c **** 
  84:.\Generated_Source\PSoC4/RTC_PPS.c ****         #if (RTC_PPS_UsingHWEnable != 0)
  85:.\Generated_Source\PSoC4/RTC_PPS.c ****             #if (CY_PSOC5A)
  86:.\Generated_Source\PSoC4/RTC_PPS.c ****                 /* Set the default Run Mode of the Timer to Continuous */
  87:.\Generated_Source\PSoC4/RTC_PPS.c ****                 RTC_PPS_CONTROL2 |= RTC_PPS_CTRL_MODE_PULSEWIDTH;
  88:.\Generated_Source\PSoC4/RTC_PPS.c ****             #endif /* Set Continuous Run Mode in CONTROL2 for PSoC5A */
  89:.\Generated_Source\PSoC4/RTC_PPS.c **** 
ARM GAS  C:\Users\ddemidov\AppData\Local\Temp\ccXCZcWx.s 			page 3


  90:.\Generated_Source\PSoC4/RTC_PPS.c ****             #if (CY_PSOC3 || CY_PSOC5LP)
  91:.\Generated_Source\PSoC4/RTC_PPS.c ****                 /* Clear and Set ROD and COD bits of CFG2 register */
  92:.\Generated_Source\PSoC4/RTC_PPS.c ****                 RTC_PPS_CONTROL3 &= ((uint8)(~RTC_PPS_CTRL_RCOD_MASK));
  93:.\Generated_Source\PSoC4/RTC_PPS.c ****                 RTC_PPS_CONTROL3 |= RTC_PPS_CTRL_RCOD;
  94:.\Generated_Source\PSoC4/RTC_PPS.c **** 
  95:.\Generated_Source\PSoC4/RTC_PPS.c ****                 /* Clear and Enable the HW enable bit in CFG2 register */
  96:.\Generated_Source\PSoC4/RTC_PPS.c ****                 RTC_PPS_CONTROL3 &= ((uint8)(~RTC_PPS_CTRL_ENBL_MASK));
  97:.\Generated_Source\PSoC4/RTC_PPS.c ****                 RTC_PPS_CONTROL3 |= RTC_PPS_CTRL_ENBL;
  98:.\Generated_Source\PSoC4/RTC_PPS.c **** 
  99:.\Generated_Source\PSoC4/RTC_PPS.c ****                 /* Set the default Run Mode of the Timer to Continuous */
 100:.\Generated_Source\PSoC4/RTC_PPS.c ****                 RTC_PPS_CONTROL3 |= RTC_PPS_CTRL_MODE_CONTINUOUS;
 101:.\Generated_Source\PSoC4/RTC_PPS.c ****             #endif /* Set Continuous Run Mode in CONTROL3 for PSoC3ES3 or PSoC5A */
 102:.\Generated_Source\PSoC4/RTC_PPS.c **** 
 103:.\Generated_Source\PSoC4/RTC_PPS.c ****         #endif /* Configure Run Mode with hardware enable */
 104:.\Generated_Source\PSoC4/RTC_PPS.c **** 
 105:.\Generated_Source\PSoC4/RTC_PPS.c ****         /* Clear and Set SYNCTC and SYNCCMP bits of RT1 register */
 106:.\Generated_Source\PSoC4/RTC_PPS.c ****         RTC_PPS_RT1 &= ((uint8)(~RTC_PPS_RT1_MASK));
 107:.\Generated_Source\PSoC4/RTC_PPS.c ****         RTC_PPS_RT1 |= RTC_PPS_SYNC;
 108:.\Generated_Source\PSoC4/RTC_PPS.c **** 
 109:.\Generated_Source\PSoC4/RTC_PPS.c ****         /*Enable DSI Sync all all inputs of the Timer*/
 110:.\Generated_Source\PSoC4/RTC_PPS.c ****         RTC_PPS_RT1 &= ((uint8)(~RTC_PPS_SYNCDSI_MASK));
 111:.\Generated_Source\PSoC4/RTC_PPS.c ****         RTC_PPS_RT1 |= RTC_PPS_SYNCDSI_EN;
 112:.\Generated_Source\PSoC4/RTC_PPS.c **** 
 113:.\Generated_Source\PSoC4/RTC_PPS.c ****         /* Set the IRQ to use the status register interrupts */
 114:.\Generated_Source\PSoC4/RTC_PPS.c ****         RTC_PPS_CONTROL2 |= RTC_PPS_CTRL2_IRQ_SEL;
 115:.\Generated_Source\PSoC4/RTC_PPS.c ****     #endif /* Configuring registers of fixed function implementation */
 116:.\Generated_Source\PSoC4/RTC_PPS.c **** 
 117:.\Generated_Source\PSoC4/RTC_PPS.c ****     /* Set Initial values from Configuration */
 118:.\Generated_Source\PSoC4/RTC_PPS.c ****     RTC_PPS_WritePeriod(RTC_PPS_INIT_PERIOD);
 119:.\Generated_Source\PSoC4/RTC_PPS.c ****     RTC_PPS_WriteCounter(RTC_PPS_INIT_PERIOD);
 120:.\Generated_Source\PSoC4/RTC_PPS.c **** 
 121:.\Generated_Source\PSoC4/RTC_PPS.c ****     #if (RTC_PPS_UsingHWCaptureCounter)/* Capture counter is enabled */
 122:.\Generated_Source\PSoC4/RTC_PPS.c ****         RTC_PPS_CAPTURE_COUNT_CTRL |= RTC_PPS_CNTR_ENABLE;
 123:.\Generated_Source\PSoC4/RTC_PPS.c ****         RTC_PPS_SetCaptureCount(RTC_PPS_INIT_CAPTURE_COUNT);
 124:.\Generated_Source\PSoC4/RTC_PPS.c ****     #endif /* Configure capture counter value */
 125:.\Generated_Source\PSoC4/RTC_PPS.c **** 
 126:.\Generated_Source\PSoC4/RTC_PPS.c ****     #if (!RTC_PPS_UsingFixedFunction)
 127:.\Generated_Source\PSoC4/RTC_PPS.c ****         #if (RTC_PPS_SoftwareCaptureMode)
 128:.\Generated_Source\PSoC4/RTC_PPS.c ****             RTC_PPS_SetCaptureMode(RTC_PPS_INIT_CAPTURE_MODE);
 129:.\Generated_Source\PSoC4/RTC_PPS.c ****         #endif /* Set Capture Mode for UDB implementation if capture mode is software controlled */
 130:.\Generated_Source\PSoC4/RTC_PPS.c **** 
 131:.\Generated_Source\PSoC4/RTC_PPS.c ****         #if (RTC_PPS_SoftwareTriggerMode)
 132:.\Generated_Source\PSoC4/RTC_PPS.c ****             #if (!RTC_PPS_UDB_CONTROL_REG_REMOVED)
 133:.\Generated_Source\PSoC4/RTC_PPS.c ****                 if (0u == (RTC_PPS_CONTROL & RTC_PPS__B_TIMER__TM_SOFTWARE))
 134:.\Generated_Source\PSoC4/RTC_PPS.c ****                 {
 135:.\Generated_Source\PSoC4/RTC_PPS.c ****                     RTC_PPS_SetTriggerMode(RTC_PPS_INIT_TRIGGER_MODE);
 136:.\Generated_Source\PSoC4/RTC_PPS.c ****                 }
 137:.\Generated_Source\PSoC4/RTC_PPS.c ****             #endif /* (!RTC_PPS_UDB_CONTROL_REG_REMOVED) */
 138:.\Generated_Source\PSoC4/RTC_PPS.c ****         #endif /* Set trigger mode for UDB Implementation if trigger mode is software controlled */
 139:.\Generated_Source\PSoC4/RTC_PPS.c **** 
 140:.\Generated_Source\PSoC4/RTC_PPS.c ****         /* CyEnterCriticalRegion and CyExitCriticalRegion are used to mark following region critica
 141:.\Generated_Source\PSoC4/RTC_PPS.c ****         /* Enter Critical Region*/
 142:.\Generated_Source\PSoC4/RTC_PPS.c ****         RTC_PPS_interruptState = CyEnterCriticalSection();
 143:.\Generated_Source\PSoC4/RTC_PPS.c **** 
 144:.\Generated_Source\PSoC4/RTC_PPS.c ****         /* Use the interrupt output of the status register for IRQ output */
 145:.\Generated_Source\PSoC4/RTC_PPS.c ****         RTC_PPS_STATUS_AUX_CTRL |= RTC_PPS_STATUS_ACTL_INT_EN_MASK;
 146:.\Generated_Source\PSoC4/RTC_PPS.c **** 
ARM GAS  C:\Users\ddemidov\AppData\Local\Temp\ccXCZcWx.s 			page 4


 147:.\Generated_Source\PSoC4/RTC_PPS.c ****         /* Exit Critical Region*/
 148:.\Generated_Source\PSoC4/RTC_PPS.c ****         CyExitCriticalSection(RTC_PPS_interruptState);
 149:.\Generated_Source\PSoC4/RTC_PPS.c **** 
 150:.\Generated_Source\PSoC4/RTC_PPS.c ****         #if (RTC_PPS_EnableTriggerMode)
 151:.\Generated_Source\PSoC4/RTC_PPS.c ****             RTC_PPS_EnableTrigger();
 152:.\Generated_Source\PSoC4/RTC_PPS.c ****         #endif /* Set Trigger enable bit for UDB implementation in the control register*/
 153:.\Generated_Source\PSoC4/RTC_PPS.c **** 		
 154:.\Generated_Source\PSoC4/RTC_PPS.c **** 		
 155:.\Generated_Source\PSoC4/RTC_PPS.c ****         #if (RTC_PPS_InterruptOnCaptureCount && !RTC_PPS_UDB_CONTROL_REG_REMOVED)
 156:.\Generated_Source\PSoC4/RTC_PPS.c ****             RTC_PPS_SetInterruptCount(RTC_PPS_INIT_INT_CAPTURE_COUNT);
 157:.\Generated_Source\PSoC4/RTC_PPS.c ****         #endif /* Set interrupt count in UDB implementation if interrupt count feature is checked.*
 158:.\Generated_Source\PSoC4/RTC_PPS.c **** 
 159:.\Generated_Source\PSoC4/RTC_PPS.c ****         RTC_PPS_ClearFIFO();
 160:.\Generated_Source\PSoC4/RTC_PPS.c ****     #endif /* Configure additional features of UDB implementation */
 161:.\Generated_Source\PSoC4/RTC_PPS.c **** 
 162:.\Generated_Source\PSoC4/RTC_PPS.c ****     RTC_PPS_SetInterruptMode(RTC_PPS_INIT_INTERRUPT_MODE);
 163:.\Generated_Source\PSoC4/RTC_PPS.c **** }
 164:.\Generated_Source\PSoC4/RTC_PPS.c **** 
 165:.\Generated_Source\PSoC4/RTC_PPS.c **** 
 166:.\Generated_Source\PSoC4/RTC_PPS.c **** /*******************************************************************************
 167:.\Generated_Source\PSoC4/RTC_PPS.c **** * Function Name: RTC_PPS_Enable
 168:.\Generated_Source\PSoC4/RTC_PPS.c **** ********************************************************************************
 169:.\Generated_Source\PSoC4/RTC_PPS.c **** *
 170:.\Generated_Source\PSoC4/RTC_PPS.c **** * Summary:
 171:.\Generated_Source\PSoC4/RTC_PPS.c **** *  Enable the Timer
 172:.\Generated_Source\PSoC4/RTC_PPS.c **** *
 173:.\Generated_Source\PSoC4/RTC_PPS.c **** * Parameters:
 174:.\Generated_Source\PSoC4/RTC_PPS.c **** *  void
 175:.\Generated_Source\PSoC4/RTC_PPS.c **** *
 176:.\Generated_Source\PSoC4/RTC_PPS.c **** * Return:
 177:.\Generated_Source\PSoC4/RTC_PPS.c **** *  void
 178:.\Generated_Source\PSoC4/RTC_PPS.c **** *
 179:.\Generated_Source\PSoC4/RTC_PPS.c **** *******************************************************************************/
 180:.\Generated_Source\PSoC4/RTC_PPS.c **** void RTC_PPS_Enable(void) 
 181:.\Generated_Source\PSoC4/RTC_PPS.c **** {
  26              		.loc 1 181 0
  27              		.cfi_startproc
 182:.\Generated_Source\PSoC4/RTC_PPS.c ****     /* Globally Enable the Fixed Function Block chosen */
 183:.\Generated_Source\PSoC4/RTC_PPS.c ****     #if (RTC_PPS_UsingFixedFunction)
 184:.\Generated_Source\PSoC4/RTC_PPS.c ****         RTC_PPS_GLOBAL_ENABLE |= RTC_PPS_BLOCK_EN_MASK;
 185:.\Generated_Source\PSoC4/RTC_PPS.c ****         RTC_PPS_GLOBAL_STBY_ENABLE |= RTC_PPS_BLOCK_STBY_EN_MASK;
 186:.\Generated_Source\PSoC4/RTC_PPS.c ****     #endif /* Set Enable bit for enabling Fixed function timer*/
 187:.\Generated_Source\PSoC4/RTC_PPS.c **** 
 188:.\Generated_Source\PSoC4/RTC_PPS.c ****     /* Remove assignment if control register is removed */
 189:.\Generated_Source\PSoC4/RTC_PPS.c ****     #if (!RTC_PPS_UDB_CONTROL_REG_REMOVED || RTC_PPS_UsingFixedFunction)
 190:.\Generated_Source\PSoC4/RTC_PPS.c ****         RTC_PPS_CONTROL |= RTC_PPS_CTRL_ENABLE;
  28              		.loc 1 190 0
  29 0000 8023     		mov	r3, #128
  30 0002 024A     		ldr	r2, .L2
 191:.\Generated_Source\PSoC4/RTC_PPS.c ****     #endif /* Remove assignment if control register is removed */
 192:.\Generated_Source\PSoC4/RTC_PPS.c **** }
  31              		.loc 1 192 0
  32              		@ sp needed
 190:.\Generated_Source\PSoC4/RTC_PPS.c ****     #endif /* Remove assignment if control register is removed */
  33              		.loc 1 190 0
  34 0004 1178     		ldrb	r1, [r2]
  35 0006 0B43     		orr	r3, r1
ARM GAS  C:\Users\ddemidov\AppData\Local\Temp\ccXCZcWx.s 			page 5


  36 0008 1370     		strb	r3, [r2]
  37              		.loc 1 192 0
  38 000a 7047     		bx	lr
  39              	.L3:
  40              		.align	2
  41              	.L2:
  42 000c 70000F40 		.word	1074724976
  43              		.cfi_endproc
  44              	.LFE3:
  45              		.size	RTC_PPS_Enable, .-RTC_PPS_Enable
  46              		.section	.text.RTC_PPS_Stop,"ax",%progbits
  47              		.align	1
  48              		.global	RTC_PPS_Stop
  49              		.code	16
  50              		.thumb_func
  51              		.type	RTC_PPS_Stop, %function
  52              	RTC_PPS_Stop:
  53              	.LFB5:
 193:.\Generated_Source\PSoC4/RTC_PPS.c **** 
 194:.\Generated_Source\PSoC4/RTC_PPS.c **** 
 195:.\Generated_Source\PSoC4/RTC_PPS.c **** /*******************************************************************************
 196:.\Generated_Source\PSoC4/RTC_PPS.c **** * Function Name: RTC_PPS_Start
 197:.\Generated_Source\PSoC4/RTC_PPS.c **** ********************************************************************************
 198:.\Generated_Source\PSoC4/RTC_PPS.c **** *
 199:.\Generated_Source\PSoC4/RTC_PPS.c **** * Summary:
 200:.\Generated_Source\PSoC4/RTC_PPS.c **** *  The start function initializes the timer with the default values, the
 201:.\Generated_Source\PSoC4/RTC_PPS.c **** *  enables the timerto begin counting.  It does not enable interrupts,
 202:.\Generated_Source\PSoC4/RTC_PPS.c **** *  the EnableInt command should be called if interrupt generation is required.
 203:.\Generated_Source\PSoC4/RTC_PPS.c **** *
 204:.\Generated_Source\PSoC4/RTC_PPS.c **** * Parameters:
 205:.\Generated_Source\PSoC4/RTC_PPS.c **** *  void
 206:.\Generated_Source\PSoC4/RTC_PPS.c **** *
 207:.\Generated_Source\PSoC4/RTC_PPS.c **** * Return:
 208:.\Generated_Source\PSoC4/RTC_PPS.c **** *  void
 209:.\Generated_Source\PSoC4/RTC_PPS.c **** *
 210:.\Generated_Source\PSoC4/RTC_PPS.c **** * Global variables:
 211:.\Generated_Source\PSoC4/RTC_PPS.c **** *  RTC_PPS_initVar: Is modified when this function is called for the
 212:.\Generated_Source\PSoC4/RTC_PPS.c **** *   first time. Is used to ensure that initialization happens only once.
 213:.\Generated_Source\PSoC4/RTC_PPS.c **** *
 214:.\Generated_Source\PSoC4/RTC_PPS.c **** *******************************************************************************/
 215:.\Generated_Source\PSoC4/RTC_PPS.c **** void RTC_PPS_Start(void) 
 216:.\Generated_Source\PSoC4/RTC_PPS.c **** {
 217:.\Generated_Source\PSoC4/RTC_PPS.c ****     if(RTC_PPS_initVar == 0u)
 218:.\Generated_Source\PSoC4/RTC_PPS.c ****     {
 219:.\Generated_Source\PSoC4/RTC_PPS.c ****         RTC_PPS_Init();
 220:.\Generated_Source\PSoC4/RTC_PPS.c **** 
 221:.\Generated_Source\PSoC4/RTC_PPS.c ****         RTC_PPS_initVar = 1u;   /* Clear this bit for Initialization */
 222:.\Generated_Source\PSoC4/RTC_PPS.c ****     }
 223:.\Generated_Source\PSoC4/RTC_PPS.c **** 
 224:.\Generated_Source\PSoC4/RTC_PPS.c ****     /* Enable the Timer */
 225:.\Generated_Source\PSoC4/RTC_PPS.c ****     RTC_PPS_Enable();
 226:.\Generated_Source\PSoC4/RTC_PPS.c **** }
 227:.\Generated_Source\PSoC4/RTC_PPS.c **** 
 228:.\Generated_Source\PSoC4/RTC_PPS.c **** 
 229:.\Generated_Source\PSoC4/RTC_PPS.c **** /*******************************************************************************
 230:.\Generated_Source\PSoC4/RTC_PPS.c **** * Function Name: RTC_PPS_Stop
 231:.\Generated_Source\PSoC4/RTC_PPS.c **** ********************************************************************************
ARM GAS  C:\Users\ddemidov\AppData\Local\Temp\ccXCZcWx.s 			page 6


 232:.\Generated_Source\PSoC4/RTC_PPS.c **** *
 233:.\Generated_Source\PSoC4/RTC_PPS.c **** * Summary:
 234:.\Generated_Source\PSoC4/RTC_PPS.c **** *  The stop function halts the timer, but does not change any modes or disable
 235:.\Generated_Source\PSoC4/RTC_PPS.c **** *  interrupts.
 236:.\Generated_Source\PSoC4/RTC_PPS.c **** *
 237:.\Generated_Source\PSoC4/RTC_PPS.c **** * Parameters:
 238:.\Generated_Source\PSoC4/RTC_PPS.c **** *  void
 239:.\Generated_Source\PSoC4/RTC_PPS.c **** *
 240:.\Generated_Source\PSoC4/RTC_PPS.c **** * Return:
 241:.\Generated_Source\PSoC4/RTC_PPS.c **** *  void
 242:.\Generated_Source\PSoC4/RTC_PPS.c **** *
 243:.\Generated_Source\PSoC4/RTC_PPS.c **** * Side Effects: If the Enable mode is set to Hardware only then this function
 244:.\Generated_Source\PSoC4/RTC_PPS.c **** *               has no effect on the operation of the timer.
 245:.\Generated_Source\PSoC4/RTC_PPS.c **** *
 246:.\Generated_Source\PSoC4/RTC_PPS.c **** *******************************************************************************/
 247:.\Generated_Source\PSoC4/RTC_PPS.c **** void RTC_PPS_Stop(void) 
 248:.\Generated_Source\PSoC4/RTC_PPS.c **** {
  54              		.loc 1 248 0
  55              		.cfi_startproc
 249:.\Generated_Source\PSoC4/RTC_PPS.c ****     /* Disable Timer */
 250:.\Generated_Source\PSoC4/RTC_PPS.c ****     #if(!RTC_PPS_UDB_CONTROL_REG_REMOVED || RTC_PPS_UsingFixedFunction)
 251:.\Generated_Source\PSoC4/RTC_PPS.c ****         RTC_PPS_CONTROL &= ((uint8)(~RTC_PPS_CTRL_ENABLE));
  56              		.loc 1 251 0
  57 0000 7F23     		mov	r3, #127
  58 0002 024A     		ldr	r2, .L5
 252:.\Generated_Source\PSoC4/RTC_PPS.c ****     #endif /* Remove assignment if control register is removed */
 253:.\Generated_Source\PSoC4/RTC_PPS.c **** 
 254:.\Generated_Source\PSoC4/RTC_PPS.c ****     /* Globally disable the Fixed Function Block chosen */
 255:.\Generated_Source\PSoC4/RTC_PPS.c ****     #if (RTC_PPS_UsingFixedFunction)
 256:.\Generated_Source\PSoC4/RTC_PPS.c ****         RTC_PPS_GLOBAL_ENABLE &= ((uint8)(~RTC_PPS_BLOCK_EN_MASK));
 257:.\Generated_Source\PSoC4/RTC_PPS.c ****         RTC_PPS_GLOBAL_STBY_ENABLE &= ((uint8)(~RTC_PPS_BLOCK_STBY_EN_MASK));
 258:.\Generated_Source\PSoC4/RTC_PPS.c ****     #endif /* Disable global enable for the Timer Fixed function block to stop the Timer*/
 259:.\Generated_Source\PSoC4/RTC_PPS.c **** }
  59              		.loc 1 259 0
  60              		@ sp needed
 251:.\Generated_Source\PSoC4/RTC_PPS.c ****     #endif /* Remove assignment if control register is removed */
  61              		.loc 1 251 0
  62 0004 1178     		ldrb	r1, [r2]
  63 0006 0B40     		and	r3, r1
  64 0008 1370     		strb	r3, [r2]
  65              		.loc 1 259 0
  66 000a 7047     		bx	lr
  67              	.L6:
  68              		.align	2
  69              	.L5:
  70 000c 70000F40 		.word	1074724976
  71              		.cfi_endproc
  72              	.LFE5:
  73              		.size	RTC_PPS_Stop, .-RTC_PPS_Stop
  74              		.section	.text.RTC_PPS_SetInterruptMode,"ax",%progbits
  75              		.align	1
  76              		.global	RTC_PPS_SetInterruptMode
  77              		.code	16
  78              		.thumb_func
  79              		.type	RTC_PPS_SetInterruptMode, %function
  80              	RTC_PPS_SetInterruptMode:
  81              	.LFB6:
ARM GAS  C:\Users\ddemidov\AppData\Local\Temp\ccXCZcWx.s 			page 7


 260:.\Generated_Source\PSoC4/RTC_PPS.c **** 
 261:.\Generated_Source\PSoC4/RTC_PPS.c **** 
 262:.\Generated_Source\PSoC4/RTC_PPS.c **** /*******************************************************************************
 263:.\Generated_Source\PSoC4/RTC_PPS.c **** * Function Name: RTC_PPS_SetInterruptMode
 264:.\Generated_Source\PSoC4/RTC_PPS.c **** ********************************************************************************
 265:.\Generated_Source\PSoC4/RTC_PPS.c **** *
 266:.\Generated_Source\PSoC4/RTC_PPS.c **** * Summary:
 267:.\Generated_Source\PSoC4/RTC_PPS.c **** *  This function selects which of the interrupt inputs may cause an interrupt.
 268:.\Generated_Source\PSoC4/RTC_PPS.c **** *  The twosources are caputure and terminal.  One, both or neither may
 269:.\Generated_Source\PSoC4/RTC_PPS.c **** *  be selected.
 270:.\Generated_Source\PSoC4/RTC_PPS.c **** *
 271:.\Generated_Source\PSoC4/RTC_PPS.c **** * Parameters:
 272:.\Generated_Source\PSoC4/RTC_PPS.c **** *  interruptMode:   This parameter is used to enable interrups on either/or
 273:.\Generated_Source\PSoC4/RTC_PPS.c **** *                   terminal count or capture.
 274:.\Generated_Source\PSoC4/RTC_PPS.c **** *
 275:.\Generated_Source\PSoC4/RTC_PPS.c **** * Return:
 276:.\Generated_Source\PSoC4/RTC_PPS.c **** *  void
 277:.\Generated_Source\PSoC4/RTC_PPS.c **** *
 278:.\Generated_Source\PSoC4/RTC_PPS.c **** *******************************************************************************/
 279:.\Generated_Source\PSoC4/RTC_PPS.c **** void RTC_PPS_SetInterruptMode(uint8 interruptMode) 
 280:.\Generated_Source\PSoC4/RTC_PPS.c **** {
  82              		.loc 1 280 0
  83              		.cfi_startproc
  84              	.LVL0:
 281:.\Generated_Source\PSoC4/RTC_PPS.c ****     RTC_PPS_STATUS_MASK = interruptMode;
  85              		.loc 1 281 0
  86 0000 014B     		ldr	r3, .L8
 282:.\Generated_Source\PSoC4/RTC_PPS.c **** }
  87              		.loc 1 282 0
  88              		@ sp needed
 281:.\Generated_Source\PSoC4/RTC_PPS.c ****     RTC_PPS_STATUS_MASK = interruptMode;
  89              		.loc 1 281 0
  90 0002 1870     		strb	r0, [r3]
  91              		.loc 1 282 0
  92 0004 7047     		bx	lr
  93              	.L9:
  94 0006 C046     		.align	2
  95              	.L8:
  96 0008 83000F40 		.word	1074724995
  97              		.cfi_endproc
  98              	.LFE6:
  99              		.size	RTC_PPS_SetInterruptMode, .-RTC_PPS_SetInterruptMode
 100              		.section	.text.RTC_PPS_SoftwareCapture,"ax",%progbits
 101              		.align	1
 102              		.global	RTC_PPS_SoftwareCapture
 103              		.code	16
 104              		.thumb_func
 105              		.type	RTC_PPS_SoftwareCapture, %function
 106              	RTC_PPS_SoftwareCapture:
 107              	.LFB7:
 283:.\Generated_Source\PSoC4/RTC_PPS.c **** 
 284:.\Generated_Source\PSoC4/RTC_PPS.c **** 
 285:.\Generated_Source\PSoC4/RTC_PPS.c **** /*******************************************************************************
 286:.\Generated_Source\PSoC4/RTC_PPS.c **** * Function Name: RTC_PPS_SoftwareCapture
 287:.\Generated_Source\PSoC4/RTC_PPS.c **** ********************************************************************************
 288:.\Generated_Source\PSoC4/RTC_PPS.c **** *
 289:.\Generated_Source\PSoC4/RTC_PPS.c **** * Summary:
ARM GAS  C:\Users\ddemidov\AppData\Local\Temp\ccXCZcWx.s 			page 8


 290:.\Generated_Source\PSoC4/RTC_PPS.c **** *  This function forces a capture independent of the capture signal.
 291:.\Generated_Source\PSoC4/RTC_PPS.c **** *
 292:.\Generated_Source\PSoC4/RTC_PPS.c **** * Parameters:
 293:.\Generated_Source\PSoC4/RTC_PPS.c **** *  void
 294:.\Generated_Source\PSoC4/RTC_PPS.c **** *
 295:.\Generated_Source\PSoC4/RTC_PPS.c **** * Return:
 296:.\Generated_Source\PSoC4/RTC_PPS.c **** *  void
 297:.\Generated_Source\PSoC4/RTC_PPS.c **** *
 298:.\Generated_Source\PSoC4/RTC_PPS.c **** * Side Effects:
 299:.\Generated_Source\PSoC4/RTC_PPS.c **** *  An existing hardware capture could be overwritten.
 300:.\Generated_Source\PSoC4/RTC_PPS.c **** *
 301:.\Generated_Source\PSoC4/RTC_PPS.c **** *******************************************************************************/
 302:.\Generated_Source\PSoC4/RTC_PPS.c **** void RTC_PPS_SoftwareCapture(void) 
 303:.\Generated_Source\PSoC4/RTC_PPS.c **** {
 108              		.loc 1 303 0
 109              		.cfi_startproc
 304:.\Generated_Source\PSoC4/RTC_PPS.c ****     /* Generate a software capture by reading the counter register */
 305:.\Generated_Source\PSoC4/RTC_PPS.c ****     #if(RTC_PPS_UsingFixedFunction)
 306:.\Generated_Source\PSoC4/RTC_PPS.c ****         (void)CY_GET_REG16(RTC_PPS_COUNTER_LSB_PTR);
 307:.\Generated_Source\PSoC4/RTC_PPS.c ****     #else
 308:.\Generated_Source\PSoC4/RTC_PPS.c ****         (void)CY_GET_REG8(RTC_PPS_COUNTER_LSB_PTR_8BIT);
 110              		.loc 1 308 0
 111 0000 014B     		ldr	r3, .L11
 309:.\Generated_Source\PSoC4/RTC_PPS.c ****     #endif/* (RTC_PPS_UsingFixedFunction) */
 310:.\Generated_Source\PSoC4/RTC_PPS.c ****     /* Capture Data is now in the FIFO */
 311:.\Generated_Source\PSoC4/RTC_PPS.c **** }
 112              		.loc 1 311 0
 113              		@ sp needed
 308:.\Generated_Source\PSoC4/RTC_PPS.c ****     #endif/* (RTC_PPS_UsingFixedFunction) */
 114              		.loc 1 308 0
 115 0002 1B78     		ldrb	r3, [r3]
 116              		.loc 1 311 0
 117 0004 7047     		bx	lr
 118              	.L12:
 119 0006 C046     		.align	2
 120              	.L11:
 121 0008 00000F40 		.word	1074724864
 122              		.cfi_endproc
 123              	.LFE7:
 124              		.size	RTC_PPS_SoftwareCapture, .-RTC_PPS_SoftwareCapture
 125              		.section	.text.RTC_PPS_ReadStatusRegister,"ax",%progbits
 126              		.align	1
 127              		.global	RTC_PPS_ReadStatusRegister
 128              		.code	16
 129              		.thumb_func
 130              		.type	RTC_PPS_ReadStatusRegister, %function
 131              	RTC_PPS_ReadStatusRegister:
 132              	.LFB8:
 312:.\Generated_Source\PSoC4/RTC_PPS.c **** 
 313:.\Generated_Source\PSoC4/RTC_PPS.c **** 
 314:.\Generated_Source\PSoC4/RTC_PPS.c **** /*******************************************************************************
 315:.\Generated_Source\PSoC4/RTC_PPS.c **** * Function Name: RTC_PPS_ReadStatusRegister
 316:.\Generated_Source\PSoC4/RTC_PPS.c **** ********************************************************************************
 317:.\Generated_Source\PSoC4/RTC_PPS.c **** *
 318:.\Generated_Source\PSoC4/RTC_PPS.c **** * Summary:
 319:.\Generated_Source\PSoC4/RTC_PPS.c **** *  Reads the status register and returns it's state. This function should use
 320:.\Generated_Source\PSoC4/RTC_PPS.c **** *  defined types for the bit-field information as the bits in this register may
ARM GAS  C:\Users\ddemidov\AppData\Local\Temp\ccXCZcWx.s 			page 9


 321:.\Generated_Source\PSoC4/RTC_PPS.c **** *  be permuteable.
 322:.\Generated_Source\PSoC4/RTC_PPS.c **** *
 323:.\Generated_Source\PSoC4/RTC_PPS.c **** * Parameters:
 324:.\Generated_Source\PSoC4/RTC_PPS.c **** *  void
 325:.\Generated_Source\PSoC4/RTC_PPS.c **** *
 326:.\Generated_Source\PSoC4/RTC_PPS.c **** * Return:
 327:.\Generated_Source\PSoC4/RTC_PPS.c **** *  The contents of the status register
 328:.\Generated_Source\PSoC4/RTC_PPS.c **** *
 329:.\Generated_Source\PSoC4/RTC_PPS.c **** * Side Effects:
 330:.\Generated_Source\PSoC4/RTC_PPS.c **** *  Status register bits may be clear on read.
 331:.\Generated_Source\PSoC4/RTC_PPS.c **** *
 332:.\Generated_Source\PSoC4/RTC_PPS.c **** *******************************************************************************/
 333:.\Generated_Source\PSoC4/RTC_PPS.c **** uint8   RTC_PPS_ReadStatusRegister(void) 
 334:.\Generated_Source\PSoC4/RTC_PPS.c **** {
 133              		.loc 1 334 0
 134              		.cfi_startproc
 335:.\Generated_Source\PSoC4/RTC_PPS.c ****     return (RTC_PPS_STATUS);
 135              		.loc 1 335 0
 136 0000 014B     		ldr	r3, .L14
 336:.\Generated_Source\PSoC4/RTC_PPS.c **** }
 137              		.loc 1 336 0
 138              		@ sp needed
 335:.\Generated_Source\PSoC4/RTC_PPS.c ****     return (RTC_PPS_STATUS);
 139              		.loc 1 335 0
 140 0002 1878     		ldrb	r0, [r3]
 141 0004 C0B2     		uxtb	r0, r0
 142              		.loc 1 336 0
 143 0006 7047     		bx	lr
 144              	.L15:
 145              		.align	2
 146              	.L14:
 147 0008 63000F40 		.word	1074724963
 148              		.cfi_endproc
 149              	.LFE8:
 150              		.size	RTC_PPS_ReadStatusRegister, .-RTC_PPS_ReadStatusRegister
 151              		.section	.text.RTC_PPS_ReadControlRegister,"ax",%progbits
 152              		.align	1
 153              		.global	RTC_PPS_ReadControlRegister
 154              		.code	16
 155              		.thumb_func
 156              		.type	RTC_PPS_ReadControlRegister, %function
 157              	RTC_PPS_ReadControlRegister:
 158              	.LFB9:
 337:.\Generated_Source\PSoC4/RTC_PPS.c **** 
 338:.\Generated_Source\PSoC4/RTC_PPS.c **** 
 339:.\Generated_Source\PSoC4/RTC_PPS.c **** #if (!RTC_PPS_UDB_CONTROL_REG_REMOVED) /* Remove API if control register is unused */
 340:.\Generated_Source\PSoC4/RTC_PPS.c **** 
 341:.\Generated_Source\PSoC4/RTC_PPS.c **** 
 342:.\Generated_Source\PSoC4/RTC_PPS.c **** /*******************************************************************************
 343:.\Generated_Source\PSoC4/RTC_PPS.c **** * Function Name: RTC_PPS_ReadControlRegister
 344:.\Generated_Source\PSoC4/RTC_PPS.c **** ********************************************************************************
 345:.\Generated_Source\PSoC4/RTC_PPS.c **** *
 346:.\Generated_Source\PSoC4/RTC_PPS.c **** * Summary:
 347:.\Generated_Source\PSoC4/RTC_PPS.c **** *  Reads the control register and returns it's value.
 348:.\Generated_Source\PSoC4/RTC_PPS.c **** *
 349:.\Generated_Source\PSoC4/RTC_PPS.c **** * Parameters:
 350:.\Generated_Source\PSoC4/RTC_PPS.c **** *  void
ARM GAS  C:\Users\ddemidov\AppData\Local\Temp\ccXCZcWx.s 			page 10


 351:.\Generated_Source\PSoC4/RTC_PPS.c **** *
 352:.\Generated_Source\PSoC4/RTC_PPS.c **** * Return:
 353:.\Generated_Source\PSoC4/RTC_PPS.c **** *  The contents of the control register
 354:.\Generated_Source\PSoC4/RTC_PPS.c **** *
 355:.\Generated_Source\PSoC4/RTC_PPS.c **** *******************************************************************************/
 356:.\Generated_Source\PSoC4/RTC_PPS.c **** uint8 RTC_PPS_ReadControlRegister(void) 
 357:.\Generated_Source\PSoC4/RTC_PPS.c **** {
 159              		.loc 1 357 0
 160              		.cfi_startproc
 358:.\Generated_Source\PSoC4/RTC_PPS.c ****     #if (!RTC_PPS_UDB_CONTROL_REG_REMOVED) 
 359:.\Generated_Source\PSoC4/RTC_PPS.c ****         return ((uint8)RTC_PPS_CONTROL);
 161              		.loc 1 359 0
 162 0000 014B     		ldr	r3, .L17
 360:.\Generated_Source\PSoC4/RTC_PPS.c ****     #else
 361:.\Generated_Source\PSoC4/RTC_PPS.c ****         return (0);
 362:.\Generated_Source\PSoC4/RTC_PPS.c ****     #endif /* (!RTC_PPS_UDB_CONTROL_REG_REMOVED) */
 363:.\Generated_Source\PSoC4/RTC_PPS.c **** }
 163              		.loc 1 363 0
 164              		@ sp needed
 359:.\Generated_Source\PSoC4/RTC_PPS.c ****     #else
 165              		.loc 1 359 0
 166 0002 1878     		ldrb	r0, [r3]
 167 0004 C0B2     		uxtb	r0, r0
 168              		.loc 1 363 0
 169 0006 7047     		bx	lr
 170              	.L18:
 171              		.align	2
 172              	.L17:
 173 0008 70000F40 		.word	1074724976
 174              		.cfi_endproc
 175              	.LFE9:
 176              		.size	RTC_PPS_ReadControlRegister, .-RTC_PPS_ReadControlRegister
 177              		.section	.text.RTC_PPS_WriteControlRegister,"ax",%progbits
 178              		.align	1
 179              		.global	RTC_PPS_WriteControlRegister
 180              		.code	16
 181              		.thumb_func
 182              		.type	RTC_PPS_WriteControlRegister, %function
 183              	RTC_PPS_WriteControlRegister:
 184              	.LFB10:
 364:.\Generated_Source\PSoC4/RTC_PPS.c **** 
 365:.\Generated_Source\PSoC4/RTC_PPS.c **** 
 366:.\Generated_Source\PSoC4/RTC_PPS.c **** /*******************************************************************************
 367:.\Generated_Source\PSoC4/RTC_PPS.c **** * Function Name: RTC_PPS_WriteControlRegister
 368:.\Generated_Source\PSoC4/RTC_PPS.c **** ********************************************************************************
 369:.\Generated_Source\PSoC4/RTC_PPS.c **** *
 370:.\Generated_Source\PSoC4/RTC_PPS.c **** * Summary:
 371:.\Generated_Source\PSoC4/RTC_PPS.c **** *  Sets the bit-field of the control register.
 372:.\Generated_Source\PSoC4/RTC_PPS.c **** *
 373:.\Generated_Source\PSoC4/RTC_PPS.c **** * Parameters:
 374:.\Generated_Source\PSoC4/RTC_PPS.c **** *  control: The contents of the control register
 375:.\Generated_Source\PSoC4/RTC_PPS.c **** *
 376:.\Generated_Source\PSoC4/RTC_PPS.c **** * Return:
 377:.\Generated_Source\PSoC4/RTC_PPS.c **** *
 378:.\Generated_Source\PSoC4/RTC_PPS.c **** *******************************************************************************/
 379:.\Generated_Source\PSoC4/RTC_PPS.c **** void RTC_PPS_WriteControlRegister(uint8 control) 
 380:.\Generated_Source\PSoC4/RTC_PPS.c **** {
ARM GAS  C:\Users\ddemidov\AppData\Local\Temp\ccXCZcWx.s 			page 11


 185              		.loc 1 380 0
 186              		.cfi_startproc
 187              	.LVL1:
 381:.\Generated_Source\PSoC4/RTC_PPS.c ****     #if (!RTC_PPS_UDB_CONTROL_REG_REMOVED) 
 382:.\Generated_Source\PSoC4/RTC_PPS.c ****         RTC_PPS_CONTROL = control;
 188              		.loc 1 382 0
 189 0000 014B     		ldr	r3, .L20
 383:.\Generated_Source\PSoC4/RTC_PPS.c ****     #else
 384:.\Generated_Source\PSoC4/RTC_PPS.c ****         control = 0u;
 385:.\Generated_Source\PSoC4/RTC_PPS.c ****     #endif /* (!RTC_PPS_UDB_CONTROL_REG_REMOVED) */
 386:.\Generated_Source\PSoC4/RTC_PPS.c **** }
 190              		.loc 1 386 0
 191              		@ sp needed
 382:.\Generated_Source\PSoC4/RTC_PPS.c ****     #else
 192              		.loc 1 382 0
 193 0002 1870     		strb	r0, [r3]
 194              		.loc 1 386 0
 195 0004 7047     		bx	lr
 196              	.L21:
 197 0006 C046     		.align	2
 198              	.L20:
 199 0008 70000F40 		.word	1074724976
 200              		.cfi_endproc
 201              	.LFE10:
 202              		.size	RTC_PPS_WriteControlRegister, .-RTC_PPS_WriteControlRegister
 203              		.section	.text.RTC_PPS_ReadPeriod,"ax",%progbits
 204              		.align	1
 205              		.global	RTC_PPS_ReadPeriod
 206              		.code	16
 207              		.thumb_func
 208              		.type	RTC_PPS_ReadPeriod, %function
 209              	RTC_PPS_ReadPeriod:
 210              	.LFB11:
 387:.\Generated_Source\PSoC4/RTC_PPS.c **** 
 388:.\Generated_Source\PSoC4/RTC_PPS.c **** #endif /* Remove API if control register is unused */
 389:.\Generated_Source\PSoC4/RTC_PPS.c **** 
 390:.\Generated_Source\PSoC4/RTC_PPS.c **** 
 391:.\Generated_Source\PSoC4/RTC_PPS.c **** /*******************************************************************************
 392:.\Generated_Source\PSoC4/RTC_PPS.c **** * Function Name: RTC_PPS_ReadPeriod
 393:.\Generated_Source\PSoC4/RTC_PPS.c **** ********************************************************************************
 394:.\Generated_Source\PSoC4/RTC_PPS.c **** *
 395:.\Generated_Source\PSoC4/RTC_PPS.c **** * Summary:
 396:.\Generated_Source\PSoC4/RTC_PPS.c **** *  This function returns the current value of the Period.
 397:.\Generated_Source\PSoC4/RTC_PPS.c **** *
 398:.\Generated_Source\PSoC4/RTC_PPS.c **** * Parameters:
 399:.\Generated_Source\PSoC4/RTC_PPS.c **** *  void
 400:.\Generated_Source\PSoC4/RTC_PPS.c **** *
 401:.\Generated_Source\PSoC4/RTC_PPS.c **** * Return:
 402:.\Generated_Source\PSoC4/RTC_PPS.c **** *  The present value of the counter.
 403:.\Generated_Source\PSoC4/RTC_PPS.c **** *
 404:.\Generated_Source\PSoC4/RTC_PPS.c **** *******************************************************************************/
 405:.\Generated_Source\PSoC4/RTC_PPS.c **** uint32 RTC_PPS_ReadPeriod(void) 
 406:.\Generated_Source\PSoC4/RTC_PPS.c **** {
 211              		.loc 1 406 0
 212              		.cfi_startproc
 407:.\Generated_Source\PSoC4/RTC_PPS.c ****    #if(RTC_PPS_UsingFixedFunction)
 408:.\Generated_Source\PSoC4/RTC_PPS.c ****        return ((uint32)CY_GET_REG16(RTC_PPS_PERIOD_LSB_PTR));
ARM GAS  C:\Users\ddemidov\AppData\Local\Temp\ccXCZcWx.s 			page 12


 409:.\Generated_Source\PSoC4/RTC_PPS.c ****    #else
 410:.\Generated_Source\PSoC4/RTC_PPS.c ****        return (CY_GET_REG32(RTC_PPS_PERIOD_LSB_PTR));
 213              		.loc 1 410 0
 214 0000 014B     		ldr	r3, .L23
 411:.\Generated_Source\PSoC4/RTC_PPS.c ****    #endif /* (RTC_PPS_UsingFixedFunction) */
 412:.\Generated_Source\PSoC4/RTC_PPS.c **** }
 215              		.loc 1 412 0
 216              		@ sp needed
 410:.\Generated_Source\PSoC4/RTC_PPS.c ****    #endif /* (RTC_PPS_UsingFixedFunction) */
 217              		.loc 1 410 0
 218 0002 1868     		ldr	r0, [r3]
 219              		.loc 1 412 0
 220 0004 7047     		bx	lr
 221              	.L24:
 222 0006 C046     		.align	2
 223              	.L23:
 224 0008 80200F40 		.word	1074733184
 225              		.cfi_endproc
 226              	.LFE11:
 227              		.size	RTC_PPS_ReadPeriod, .-RTC_PPS_ReadPeriod
 228              		.section	.text.RTC_PPS_WritePeriod,"ax",%progbits
 229              		.align	1
 230              		.global	RTC_PPS_WritePeriod
 231              		.code	16
 232              		.thumb_func
 233              		.type	RTC_PPS_WritePeriod, %function
 234              	RTC_PPS_WritePeriod:
 235              	.LFB12:
 413:.\Generated_Source\PSoC4/RTC_PPS.c **** 
 414:.\Generated_Source\PSoC4/RTC_PPS.c **** 
 415:.\Generated_Source\PSoC4/RTC_PPS.c **** /*******************************************************************************
 416:.\Generated_Source\PSoC4/RTC_PPS.c **** * Function Name: RTC_PPS_WritePeriod
 417:.\Generated_Source\PSoC4/RTC_PPS.c **** ********************************************************************************
 418:.\Generated_Source\PSoC4/RTC_PPS.c **** *
 419:.\Generated_Source\PSoC4/RTC_PPS.c **** * Summary:
 420:.\Generated_Source\PSoC4/RTC_PPS.c **** *  This function is used to change the period of the counter.  The new period
 421:.\Generated_Source\PSoC4/RTC_PPS.c **** *  will be loaded the next time terminal count is detected.
 422:.\Generated_Source\PSoC4/RTC_PPS.c **** *
 423:.\Generated_Source\PSoC4/RTC_PPS.c **** * Parameters:
 424:.\Generated_Source\PSoC4/RTC_PPS.c **** *  period: This value may be between 1 and (2^Resolution)-1.  A value of 0 will
 425:.\Generated_Source\PSoC4/RTC_PPS.c **** *          result in the counter remaining at zero.
 426:.\Generated_Source\PSoC4/RTC_PPS.c **** *
 427:.\Generated_Source\PSoC4/RTC_PPS.c **** * Return:
 428:.\Generated_Source\PSoC4/RTC_PPS.c **** *  void
 429:.\Generated_Source\PSoC4/RTC_PPS.c **** *
 430:.\Generated_Source\PSoC4/RTC_PPS.c **** *******************************************************************************/
 431:.\Generated_Source\PSoC4/RTC_PPS.c **** void RTC_PPS_WritePeriod(uint32 period) 
 432:.\Generated_Source\PSoC4/RTC_PPS.c **** {
 236              		.loc 1 432 0
 237              		.cfi_startproc
 238              	.LVL2:
 433:.\Generated_Source\PSoC4/RTC_PPS.c ****     #if(RTC_PPS_UsingFixedFunction)
 434:.\Generated_Source\PSoC4/RTC_PPS.c ****         uint16 period_temp = (uint16)period;
 435:.\Generated_Source\PSoC4/RTC_PPS.c ****         CY_SET_REG16(RTC_PPS_PERIOD_LSB_PTR, period_temp);
 436:.\Generated_Source\PSoC4/RTC_PPS.c ****     #else
 437:.\Generated_Source\PSoC4/RTC_PPS.c ****         CY_SET_REG32(RTC_PPS_PERIOD_LSB_PTR, period);
 239              		.loc 1 437 0
ARM GAS  C:\Users\ddemidov\AppData\Local\Temp\ccXCZcWx.s 			page 13


 240 0000 014B     		ldr	r3, .L26
 438:.\Generated_Source\PSoC4/RTC_PPS.c ****     #endif /*Write Period value with appropriate resolution suffix depending on UDB or fixed functi
 439:.\Generated_Source\PSoC4/RTC_PPS.c **** }
 241              		.loc 1 439 0
 242              		@ sp needed
 437:.\Generated_Source\PSoC4/RTC_PPS.c ****     #endif /*Write Period value with appropriate resolution suffix depending on UDB or fixed functi
 243              		.loc 1 437 0
 244 0002 1860     		str	r0, [r3]
 245              		.loc 1 439 0
 246 0004 7047     		bx	lr
 247              	.L27:
 248 0006 C046     		.align	2
 249              	.L26:
 250 0008 80200F40 		.word	1074733184
 251              		.cfi_endproc
 252              	.LFE12:
 253              		.size	RTC_PPS_WritePeriod, .-RTC_PPS_WritePeriod
 254              		.section	.text.RTC_PPS_ReadCapture,"ax",%progbits
 255              		.align	1
 256              		.global	RTC_PPS_ReadCapture
 257              		.code	16
 258              		.thumb_func
 259              		.type	RTC_PPS_ReadCapture, %function
 260              	RTC_PPS_ReadCapture:
 261              	.LFB13:
 440:.\Generated_Source\PSoC4/RTC_PPS.c **** 
 441:.\Generated_Source\PSoC4/RTC_PPS.c **** 
 442:.\Generated_Source\PSoC4/RTC_PPS.c **** /*******************************************************************************
 443:.\Generated_Source\PSoC4/RTC_PPS.c **** * Function Name: RTC_PPS_ReadCapture
 444:.\Generated_Source\PSoC4/RTC_PPS.c **** ********************************************************************************
 445:.\Generated_Source\PSoC4/RTC_PPS.c **** *
 446:.\Generated_Source\PSoC4/RTC_PPS.c **** * Summary:
 447:.\Generated_Source\PSoC4/RTC_PPS.c **** *  This function returns the last value captured.
 448:.\Generated_Source\PSoC4/RTC_PPS.c **** *
 449:.\Generated_Source\PSoC4/RTC_PPS.c **** * Parameters:
 450:.\Generated_Source\PSoC4/RTC_PPS.c **** *  void
 451:.\Generated_Source\PSoC4/RTC_PPS.c **** *
 452:.\Generated_Source\PSoC4/RTC_PPS.c **** * Return:
 453:.\Generated_Source\PSoC4/RTC_PPS.c **** *  Present Capture value.
 454:.\Generated_Source\PSoC4/RTC_PPS.c **** *
 455:.\Generated_Source\PSoC4/RTC_PPS.c **** *******************************************************************************/
 456:.\Generated_Source\PSoC4/RTC_PPS.c **** uint32 RTC_PPS_ReadCapture(void) 
 457:.\Generated_Source\PSoC4/RTC_PPS.c **** {
 262              		.loc 1 457 0
 263              		.cfi_startproc
 458:.\Generated_Source\PSoC4/RTC_PPS.c ****    #if(RTC_PPS_UsingFixedFunction)
 459:.\Generated_Source\PSoC4/RTC_PPS.c ****        return ((uint32)CY_GET_REG16(RTC_PPS_CAPTURE_LSB_PTR));
 460:.\Generated_Source\PSoC4/RTC_PPS.c ****    #else
 461:.\Generated_Source\PSoC4/RTC_PPS.c ****        return (CY_GET_REG32(RTC_PPS_CAPTURE_LSB_PTR));
 264              		.loc 1 461 0
 265 0000 014B     		ldr	r3, .L29
 462:.\Generated_Source\PSoC4/RTC_PPS.c ****    #endif /* (RTC_PPS_UsingFixedFunction) */
 463:.\Generated_Source\PSoC4/RTC_PPS.c **** }
 266              		.loc 1 463 0
 267              		@ sp needed
 461:.\Generated_Source\PSoC4/RTC_PPS.c ****    #endif /* (RTC_PPS_UsingFixedFunction) */
 268              		.loc 1 461 0
ARM GAS  C:\Users\ddemidov\AppData\Local\Temp\ccXCZcWx.s 			page 14


 269 0002 1868     		ldr	r0, [r3]
 270              		.loc 1 463 0
 271 0004 7047     		bx	lr
 272              	.L30:
 273 0006 C046     		.align	2
 274              	.L29:
 275 0008 00210F40 		.word	1074733312
 276              		.cfi_endproc
 277              	.LFE13:
 278              		.size	RTC_PPS_ReadCapture, .-RTC_PPS_ReadCapture
 279              		.section	.text.RTC_PPS_WriteCounter,"ax",%progbits
 280              		.align	1
 281              		.global	RTC_PPS_WriteCounter
 282              		.code	16
 283              		.thumb_func
 284              		.type	RTC_PPS_WriteCounter, %function
 285              	RTC_PPS_WriteCounter:
 286              	.LFB14:
 464:.\Generated_Source\PSoC4/RTC_PPS.c **** 
 465:.\Generated_Source\PSoC4/RTC_PPS.c **** 
 466:.\Generated_Source\PSoC4/RTC_PPS.c **** /*******************************************************************************
 467:.\Generated_Source\PSoC4/RTC_PPS.c **** * Function Name: RTC_PPS_WriteCounter
 468:.\Generated_Source\PSoC4/RTC_PPS.c **** ********************************************************************************
 469:.\Generated_Source\PSoC4/RTC_PPS.c **** *
 470:.\Generated_Source\PSoC4/RTC_PPS.c **** * Summary:
 471:.\Generated_Source\PSoC4/RTC_PPS.c **** *  This funtion is used to set the counter to a specific value
 472:.\Generated_Source\PSoC4/RTC_PPS.c **** *
 473:.\Generated_Source\PSoC4/RTC_PPS.c **** * Parameters:
 474:.\Generated_Source\PSoC4/RTC_PPS.c **** *  counter:  New counter value.
 475:.\Generated_Source\PSoC4/RTC_PPS.c **** *
 476:.\Generated_Source\PSoC4/RTC_PPS.c **** * Return:
 477:.\Generated_Source\PSoC4/RTC_PPS.c **** *  void
 478:.\Generated_Source\PSoC4/RTC_PPS.c **** *
 479:.\Generated_Source\PSoC4/RTC_PPS.c **** *******************************************************************************/
 480:.\Generated_Source\PSoC4/RTC_PPS.c **** void RTC_PPS_WriteCounter(uint32 counter) 
 481:.\Generated_Source\PSoC4/RTC_PPS.c **** {
 287              		.loc 1 481 0
 288              		.cfi_startproc
 289              	.LVL3:
 482:.\Generated_Source\PSoC4/RTC_PPS.c ****    #if(RTC_PPS_UsingFixedFunction)
 483:.\Generated_Source\PSoC4/RTC_PPS.c ****         /* This functionality is removed until a FixedFunction HW update to
 484:.\Generated_Source\PSoC4/RTC_PPS.c ****          * allow this register to be written
 485:.\Generated_Source\PSoC4/RTC_PPS.c ****          */
 486:.\Generated_Source\PSoC4/RTC_PPS.c ****         CY_SET_REG16(RTC_PPS_COUNTER_LSB_PTR, (uint16)counter);
 487:.\Generated_Source\PSoC4/RTC_PPS.c ****         
 488:.\Generated_Source\PSoC4/RTC_PPS.c ****     #else
 489:.\Generated_Source\PSoC4/RTC_PPS.c ****         CY_SET_REG32(RTC_PPS_COUNTER_LSB_PTR, counter);
 290              		.loc 1 489 0
 291 0000 014B     		ldr	r3, .L32
 490:.\Generated_Source\PSoC4/RTC_PPS.c ****     #endif /* Set Write Counter only for the UDB implementation (Write Counter not available in fix
 491:.\Generated_Source\PSoC4/RTC_PPS.c **** }
 292              		.loc 1 491 0
 293              		@ sp needed
 489:.\Generated_Source\PSoC4/RTC_PPS.c ****     #endif /* Set Write Counter only for the UDB implementation (Write Counter not available in fix
 294              		.loc 1 489 0
 295 0002 1860     		str	r0, [r3]
 296              		.loc 1 491 0
ARM GAS  C:\Users\ddemidov\AppData\Local\Temp\ccXCZcWx.s 			page 15


 297 0004 7047     		bx	lr
 298              	.L33:
 299 0006 C046     		.align	2
 300              	.L32:
 301 0008 00200F40 		.word	1074733056
 302              		.cfi_endproc
 303              	.LFE14:
 304              		.size	RTC_PPS_WriteCounter, .-RTC_PPS_WriteCounter
 305              		.section	.text.RTC_PPS_ReadCounter,"ax",%progbits
 306              		.align	1
 307              		.global	RTC_PPS_ReadCounter
 308              		.code	16
 309              		.thumb_func
 310              		.type	RTC_PPS_ReadCounter, %function
 311              	RTC_PPS_ReadCounter:
 312              	.LFB15:
 492:.\Generated_Source\PSoC4/RTC_PPS.c **** 
 493:.\Generated_Source\PSoC4/RTC_PPS.c **** 
 494:.\Generated_Source\PSoC4/RTC_PPS.c **** /*******************************************************************************
 495:.\Generated_Source\PSoC4/RTC_PPS.c **** * Function Name: RTC_PPS_ReadCounter
 496:.\Generated_Source\PSoC4/RTC_PPS.c **** ********************************************************************************
 497:.\Generated_Source\PSoC4/RTC_PPS.c **** *
 498:.\Generated_Source\PSoC4/RTC_PPS.c **** * Summary:
 499:.\Generated_Source\PSoC4/RTC_PPS.c **** *  This function returns the current counter value.
 500:.\Generated_Source\PSoC4/RTC_PPS.c **** *
 501:.\Generated_Source\PSoC4/RTC_PPS.c **** * Parameters:
 502:.\Generated_Source\PSoC4/RTC_PPS.c **** *  void
 503:.\Generated_Source\PSoC4/RTC_PPS.c **** *
 504:.\Generated_Source\PSoC4/RTC_PPS.c **** * Return:
 505:.\Generated_Source\PSoC4/RTC_PPS.c **** *  Present compare value.
 506:.\Generated_Source\PSoC4/RTC_PPS.c **** *
 507:.\Generated_Source\PSoC4/RTC_PPS.c **** *******************************************************************************/
 508:.\Generated_Source\PSoC4/RTC_PPS.c **** uint32 RTC_PPS_ReadCounter(void) 
 509:.\Generated_Source\PSoC4/RTC_PPS.c **** {
 313              		.loc 1 509 0
 314              		.cfi_startproc
 510:.\Generated_Source\PSoC4/RTC_PPS.c ****     /* Force capture by reading Accumulator */
 511:.\Generated_Source\PSoC4/RTC_PPS.c ****     /* Must first do a software capture to be able to read the counter */
 512:.\Generated_Source\PSoC4/RTC_PPS.c ****     /* It is up to the user code to make sure there isn't already captured data in the FIFO */
 513:.\Generated_Source\PSoC4/RTC_PPS.c ****     #if(RTC_PPS_UsingFixedFunction)
 514:.\Generated_Source\PSoC4/RTC_PPS.c ****         (void)CY_GET_REG16(RTC_PPS_COUNTER_LSB_PTR);
 515:.\Generated_Source\PSoC4/RTC_PPS.c ****     #else
 516:.\Generated_Source\PSoC4/RTC_PPS.c ****         (void)CY_GET_REG8(RTC_PPS_COUNTER_LSB_PTR_8BIT);
 315              		.loc 1 516 0
 316 0000 024B     		ldr	r3, .L35
 517:.\Generated_Source\PSoC4/RTC_PPS.c ****     #endif/* (RTC_PPS_UsingFixedFunction) */
 518:.\Generated_Source\PSoC4/RTC_PPS.c **** 
 519:.\Generated_Source\PSoC4/RTC_PPS.c ****     /* Read the data from the FIFO (or capture register for Fixed Function)*/
 520:.\Generated_Source\PSoC4/RTC_PPS.c ****     #if(RTC_PPS_UsingFixedFunction)
 521:.\Generated_Source\PSoC4/RTC_PPS.c ****         return ((uint32)CY_GET_REG16(RTC_PPS_CAPTURE_LSB_PTR));
 522:.\Generated_Source\PSoC4/RTC_PPS.c ****     #else
 523:.\Generated_Source\PSoC4/RTC_PPS.c ****         return (CY_GET_REG32(RTC_PPS_CAPTURE_LSB_PTR));
 524:.\Generated_Source\PSoC4/RTC_PPS.c ****     #endif /* (RTC_PPS_UsingFixedFunction) */
 525:.\Generated_Source\PSoC4/RTC_PPS.c **** }
 317              		.loc 1 525 0
 318              		@ sp needed
 516:.\Generated_Source\PSoC4/RTC_PPS.c ****     #endif/* (RTC_PPS_UsingFixedFunction) */
ARM GAS  C:\Users\ddemidov\AppData\Local\Temp\ccXCZcWx.s 			page 16


 319              		.loc 1 516 0
 320 0002 1B78     		ldrb	r3, [r3]
 523:.\Generated_Source\PSoC4/RTC_PPS.c ****     #endif /* (RTC_PPS_UsingFixedFunction) */
 321              		.loc 1 523 0
 322 0004 024B     		ldr	r3, .L35+4
 323 0006 1868     		ldr	r0, [r3]
 324              		.loc 1 525 0
 325 0008 7047     		bx	lr
 326              	.L36:
 327 000a C046     		.align	2
 328              	.L35:
 329 000c 00000F40 		.word	1074724864
 330 0010 00210F40 		.word	1074733312
 331              		.cfi_endproc
 332              	.LFE15:
 333              		.size	RTC_PPS_ReadCounter, .-RTC_PPS_ReadCounter
 334              		.section	.text.RTC_PPS_ClearFIFO,"ax",%progbits
 335              		.align	1
 336              		.global	RTC_PPS_ClearFIFO
 337              		.code	16
 338              		.thumb_func
 339              		.type	RTC_PPS_ClearFIFO, %function
 340              	RTC_PPS_ClearFIFO:
 341              	.LFB16:
 526:.\Generated_Source\PSoC4/RTC_PPS.c **** 
 527:.\Generated_Source\PSoC4/RTC_PPS.c **** 
 528:.\Generated_Source\PSoC4/RTC_PPS.c **** #if(!RTC_PPS_UsingFixedFunction) /* UDB Specific Functions */
 529:.\Generated_Source\PSoC4/RTC_PPS.c **** 
 530:.\Generated_Source\PSoC4/RTC_PPS.c ****     
 531:.\Generated_Source\PSoC4/RTC_PPS.c **** /*******************************************************************************
 532:.\Generated_Source\PSoC4/RTC_PPS.c ****  * The functions below this point are only available using the UDB
 533:.\Generated_Source\PSoC4/RTC_PPS.c ****  * implementation.  If a feature is selected, then the API is enabled.
 534:.\Generated_Source\PSoC4/RTC_PPS.c ****  ******************************************************************************/
 535:.\Generated_Source\PSoC4/RTC_PPS.c **** 
 536:.\Generated_Source\PSoC4/RTC_PPS.c **** 
 537:.\Generated_Source\PSoC4/RTC_PPS.c **** #if (RTC_PPS_SoftwareCaptureMode)
 538:.\Generated_Source\PSoC4/RTC_PPS.c **** 
 539:.\Generated_Source\PSoC4/RTC_PPS.c **** 
 540:.\Generated_Source\PSoC4/RTC_PPS.c **** /*******************************************************************************
 541:.\Generated_Source\PSoC4/RTC_PPS.c **** * Function Name: RTC_PPS_SetCaptureMode
 542:.\Generated_Source\PSoC4/RTC_PPS.c **** ********************************************************************************
 543:.\Generated_Source\PSoC4/RTC_PPS.c **** *
 544:.\Generated_Source\PSoC4/RTC_PPS.c **** * Summary:
 545:.\Generated_Source\PSoC4/RTC_PPS.c **** *  This function sets the capture mode to either rising or falling edge.
 546:.\Generated_Source\PSoC4/RTC_PPS.c **** *
 547:.\Generated_Source\PSoC4/RTC_PPS.c **** * Parameters:
 548:.\Generated_Source\PSoC4/RTC_PPS.c **** *  captureMode: This parameter sets the capture mode of the UDB capture feature
 549:.\Generated_Source\PSoC4/RTC_PPS.c **** *  The parameter values are defined using the
 550:.\Generated_Source\PSoC4/RTC_PPS.c **** *  #define RTC_PPS__B_TIMER__CM_NONE 0
 551:.\Generated_Source\PSoC4/RTC_PPS.c **** #define RTC_PPS__B_TIMER__CM_RISINGEDGE 1
 552:.\Generated_Source\PSoC4/RTC_PPS.c **** #define RTC_PPS__B_TIMER__CM_FALLINGEDGE 2
 553:.\Generated_Source\PSoC4/RTC_PPS.c **** #define RTC_PPS__B_TIMER__CM_EITHEREDGE 3
 554:.\Generated_Source\PSoC4/RTC_PPS.c **** #define RTC_PPS__B_TIMER__CM_SOFTWARE 4
 555:.\Generated_Source\PSoC4/RTC_PPS.c ****  identifiers
 556:.\Generated_Source\PSoC4/RTC_PPS.c **** *  The following are the possible values of the parameter
 557:.\Generated_Source\PSoC4/RTC_PPS.c **** *  RTC_PPS__B_TIMER__CM_NONE        - Set Capture mode to None
 558:.\Generated_Source\PSoC4/RTC_PPS.c **** *  RTC_PPS__B_TIMER__CM_RISINGEDGE  - Rising edge of Capture input
ARM GAS  C:\Users\ddemidov\AppData\Local\Temp\ccXCZcWx.s 			page 17


 559:.\Generated_Source\PSoC4/RTC_PPS.c **** *  RTC_PPS__B_TIMER__CM_FALLINGEDGE - Falling edge of Capture input
 560:.\Generated_Source\PSoC4/RTC_PPS.c **** *  RTC_PPS__B_TIMER__CM_EITHEREDGE  - Either edge of Capture input
 561:.\Generated_Source\PSoC4/RTC_PPS.c **** *
 562:.\Generated_Source\PSoC4/RTC_PPS.c **** * Return:
 563:.\Generated_Source\PSoC4/RTC_PPS.c **** *  void
 564:.\Generated_Source\PSoC4/RTC_PPS.c **** *
 565:.\Generated_Source\PSoC4/RTC_PPS.c **** *******************************************************************************/
 566:.\Generated_Source\PSoC4/RTC_PPS.c **** void RTC_PPS_SetCaptureMode(uint8 captureMode) 
 567:.\Generated_Source\PSoC4/RTC_PPS.c **** {
 568:.\Generated_Source\PSoC4/RTC_PPS.c ****     /* This must only set to two bits of the control register associated */
 569:.\Generated_Source\PSoC4/RTC_PPS.c ****     captureMode = ((uint8)((uint8)captureMode << RTC_PPS_CTRL_CAP_MODE_SHIFT));
 570:.\Generated_Source\PSoC4/RTC_PPS.c ****     captureMode &= (RTC_PPS_CTRL_CAP_MODE_MASK);
 571:.\Generated_Source\PSoC4/RTC_PPS.c **** 
 572:.\Generated_Source\PSoC4/RTC_PPS.c ****     #if (!RTC_PPS_UDB_CONTROL_REG_REMOVED)
 573:.\Generated_Source\PSoC4/RTC_PPS.c ****         /* Clear the Current Setting */
 574:.\Generated_Source\PSoC4/RTC_PPS.c ****         RTC_PPS_CONTROL &= ((uint8)(~RTC_PPS_CTRL_CAP_MODE_MASK));
 575:.\Generated_Source\PSoC4/RTC_PPS.c **** 
 576:.\Generated_Source\PSoC4/RTC_PPS.c ****         /* Write The New Setting */
 577:.\Generated_Source\PSoC4/RTC_PPS.c ****         RTC_PPS_CONTROL |= captureMode;
 578:.\Generated_Source\PSoC4/RTC_PPS.c ****     #endif /* (!RTC_PPS_UDB_CONTROL_REG_REMOVED) */
 579:.\Generated_Source\PSoC4/RTC_PPS.c **** }
 580:.\Generated_Source\PSoC4/RTC_PPS.c **** #endif /* Remove API if Capture Mode is not Software Controlled */
 581:.\Generated_Source\PSoC4/RTC_PPS.c **** 
 582:.\Generated_Source\PSoC4/RTC_PPS.c **** 
 583:.\Generated_Source\PSoC4/RTC_PPS.c **** #if (RTC_PPS_SoftwareTriggerMode)
 584:.\Generated_Source\PSoC4/RTC_PPS.c **** 
 585:.\Generated_Source\PSoC4/RTC_PPS.c **** 
 586:.\Generated_Source\PSoC4/RTC_PPS.c **** /*******************************************************************************
 587:.\Generated_Source\PSoC4/RTC_PPS.c **** * Function Name: RTC_PPS_SetTriggerMode
 588:.\Generated_Source\PSoC4/RTC_PPS.c **** ********************************************************************************
 589:.\Generated_Source\PSoC4/RTC_PPS.c **** *
 590:.\Generated_Source\PSoC4/RTC_PPS.c **** * Summary:
 591:.\Generated_Source\PSoC4/RTC_PPS.c **** *  This function sets the trigger input mode
 592:.\Generated_Source\PSoC4/RTC_PPS.c **** *
 593:.\Generated_Source\PSoC4/RTC_PPS.c **** * Parameters:
 594:.\Generated_Source\PSoC4/RTC_PPS.c **** *  triggerMode: Pass one of the pre-defined Trigger Modes (except Software)
 595:.\Generated_Source\PSoC4/RTC_PPS.c ****     #define RTC_PPS__B_TIMER__TM_NONE 0x00u
 596:.\Generated_Source\PSoC4/RTC_PPS.c ****     #define RTC_PPS__B_TIMER__TM_RISINGEDGE 0x04u
 597:.\Generated_Source\PSoC4/RTC_PPS.c ****     #define RTC_PPS__B_TIMER__TM_FALLINGEDGE 0x08u
 598:.\Generated_Source\PSoC4/RTC_PPS.c ****     #define RTC_PPS__B_TIMER__TM_EITHEREDGE 0x0Cu
 599:.\Generated_Source\PSoC4/RTC_PPS.c ****     #define RTC_PPS__B_TIMER__TM_SOFTWARE 0x10u
 600:.\Generated_Source\PSoC4/RTC_PPS.c **** *
 601:.\Generated_Source\PSoC4/RTC_PPS.c **** * Return:
 602:.\Generated_Source\PSoC4/RTC_PPS.c **** *  void
 603:.\Generated_Source\PSoC4/RTC_PPS.c **** *
 604:.\Generated_Source\PSoC4/RTC_PPS.c **** *******************************************************************************/
 605:.\Generated_Source\PSoC4/RTC_PPS.c **** void RTC_PPS_SetTriggerMode(uint8 triggerMode) 
 606:.\Generated_Source\PSoC4/RTC_PPS.c **** {
 607:.\Generated_Source\PSoC4/RTC_PPS.c ****     /* This must only set to two bits of the control register associated */
 608:.\Generated_Source\PSoC4/RTC_PPS.c ****     triggerMode &= RTC_PPS_CTRL_TRIG_MODE_MASK;
 609:.\Generated_Source\PSoC4/RTC_PPS.c **** 
 610:.\Generated_Source\PSoC4/RTC_PPS.c ****     #if (!RTC_PPS_UDB_CONTROL_REG_REMOVED)   /* Remove assignment if control register is removed */
 611:.\Generated_Source\PSoC4/RTC_PPS.c ****     
 612:.\Generated_Source\PSoC4/RTC_PPS.c ****         /* Clear the Current Setting */
 613:.\Generated_Source\PSoC4/RTC_PPS.c ****         RTC_PPS_CONTROL &= ((uint8)(~RTC_PPS_CTRL_TRIG_MODE_MASK));
 614:.\Generated_Source\PSoC4/RTC_PPS.c **** 
 615:.\Generated_Source\PSoC4/RTC_PPS.c ****         /* Write The New Setting */
ARM GAS  C:\Users\ddemidov\AppData\Local\Temp\ccXCZcWx.s 			page 18


 616:.\Generated_Source\PSoC4/RTC_PPS.c ****         RTC_PPS_CONTROL |= (triggerMode | RTC_PPS__B_TIMER__TM_SOFTWARE);
 617:.\Generated_Source\PSoC4/RTC_PPS.c ****     #endif /* Remove code section if control register is not used */
 618:.\Generated_Source\PSoC4/RTC_PPS.c **** }
 619:.\Generated_Source\PSoC4/RTC_PPS.c **** #endif /* Remove API if Trigger Mode is not Software Controlled */
 620:.\Generated_Source\PSoC4/RTC_PPS.c **** 
 621:.\Generated_Source\PSoC4/RTC_PPS.c **** #if (RTC_PPS_EnableTriggerMode)
 622:.\Generated_Source\PSoC4/RTC_PPS.c **** 
 623:.\Generated_Source\PSoC4/RTC_PPS.c **** 
 624:.\Generated_Source\PSoC4/RTC_PPS.c **** /*******************************************************************************
 625:.\Generated_Source\PSoC4/RTC_PPS.c **** * Function Name: RTC_PPS_EnableTrigger
 626:.\Generated_Source\PSoC4/RTC_PPS.c **** ********************************************************************************
 627:.\Generated_Source\PSoC4/RTC_PPS.c **** *
 628:.\Generated_Source\PSoC4/RTC_PPS.c **** * Summary:
 629:.\Generated_Source\PSoC4/RTC_PPS.c **** *  Sets the control bit enabling Hardware Trigger mode
 630:.\Generated_Source\PSoC4/RTC_PPS.c **** *
 631:.\Generated_Source\PSoC4/RTC_PPS.c **** * Parameters:
 632:.\Generated_Source\PSoC4/RTC_PPS.c **** *  void
 633:.\Generated_Source\PSoC4/RTC_PPS.c **** *
 634:.\Generated_Source\PSoC4/RTC_PPS.c **** * Return:
 635:.\Generated_Source\PSoC4/RTC_PPS.c **** *  void
 636:.\Generated_Source\PSoC4/RTC_PPS.c **** *
 637:.\Generated_Source\PSoC4/RTC_PPS.c **** *******************************************************************************/
 638:.\Generated_Source\PSoC4/RTC_PPS.c **** void RTC_PPS_EnableTrigger(void) 
 639:.\Generated_Source\PSoC4/RTC_PPS.c **** {
 640:.\Generated_Source\PSoC4/RTC_PPS.c ****     #if (!RTC_PPS_UDB_CONTROL_REG_REMOVED)   /* Remove assignment if control register is removed */
 641:.\Generated_Source\PSoC4/RTC_PPS.c ****         RTC_PPS_CONTROL |= RTC_PPS_CTRL_TRIG_EN;
 642:.\Generated_Source\PSoC4/RTC_PPS.c ****     #endif /* Remove code section if control register is not used */
 643:.\Generated_Source\PSoC4/RTC_PPS.c **** }
 644:.\Generated_Source\PSoC4/RTC_PPS.c **** 
 645:.\Generated_Source\PSoC4/RTC_PPS.c **** 
 646:.\Generated_Source\PSoC4/RTC_PPS.c **** /*******************************************************************************
 647:.\Generated_Source\PSoC4/RTC_PPS.c **** * Function Name: RTC_PPS_DisableTrigger
 648:.\Generated_Source\PSoC4/RTC_PPS.c **** ********************************************************************************
 649:.\Generated_Source\PSoC4/RTC_PPS.c **** *
 650:.\Generated_Source\PSoC4/RTC_PPS.c **** * Summary:
 651:.\Generated_Source\PSoC4/RTC_PPS.c **** *  Clears the control bit enabling Hardware Trigger mode
 652:.\Generated_Source\PSoC4/RTC_PPS.c **** *
 653:.\Generated_Source\PSoC4/RTC_PPS.c **** * Parameters:
 654:.\Generated_Source\PSoC4/RTC_PPS.c **** *  void
 655:.\Generated_Source\PSoC4/RTC_PPS.c **** *
 656:.\Generated_Source\PSoC4/RTC_PPS.c **** * Return:
 657:.\Generated_Source\PSoC4/RTC_PPS.c **** *  void
 658:.\Generated_Source\PSoC4/RTC_PPS.c **** *
 659:.\Generated_Source\PSoC4/RTC_PPS.c **** *******************************************************************************/
 660:.\Generated_Source\PSoC4/RTC_PPS.c **** void RTC_PPS_DisableTrigger(void) 
 661:.\Generated_Source\PSoC4/RTC_PPS.c **** {
 662:.\Generated_Source\PSoC4/RTC_PPS.c ****     #if (!RTC_PPS_UDB_CONTROL_REG_REMOVED )   /* Remove assignment if control register is removed *
 663:.\Generated_Source\PSoC4/RTC_PPS.c ****         RTC_PPS_CONTROL &= ((uint8)(~RTC_PPS_CTRL_TRIG_EN));
 664:.\Generated_Source\PSoC4/RTC_PPS.c ****     #endif /* Remove code section if control register is not used */
 665:.\Generated_Source\PSoC4/RTC_PPS.c **** }
 666:.\Generated_Source\PSoC4/RTC_PPS.c **** #endif /* Remove API is Trigger Mode is set to None */
 667:.\Generated_Source\PSoC4/RTC_PPS.c **** 
 668:.\Generated_Source\PSoC4/RTC_PPS.c **** #if(RTC_PPS_InterruptOnCaptureCount)
 669:.\Generated_Source\PSoC4/RTC_PPS.c **** 
 670:.\Generated_Source\PSoC4/RTC_PPS.c **** 
 671:.\Generated_Source\PSoC4/RTC_PPS.c **** /*******************************************************************************
 672:.\Generated_Source\PSoC4/RTC_PPS.c **** * Function Name: RTC_PPS_SetInterruptCount
ARM GAS  C:\Users\ddemidov\AppData\Local\Temp\ccXCZcWx.s 			page 19


 673:.\Generated_Source\PSoC4/RTC_PPS.c **** ********************************************************************************
 674:.\Generated_Source\PSoC4/RTC_PPS.c **** *
 675:.\Generated_Source\PSoC4/RTC_PPS.c **** * Summary:
 676:.\Generated_Source\PSoC4/RTC_PPS.c **** *  This function sets the capture count before an interrupt is triggered.
 677:.\Generated_Source\PSoC4/RTC_PPS.c **** *
 678:.\Generated_Source\PSoC4/RTC_PPS.c **** * Parameters:
 679:.\Generated_Source\PSoC4/RTC_PPS.c **** *  interruptCount:  A value between 0 and 3 is valid.  If the value is 0, then
 680:.\Generated_Source\PSoC4/RTC_PPS.c **** *                   an interrupt will occur each time a capture occurs.
 681:.\Generated_Source\PSoC4/RTC_PPS.c **** *                   A value of 1 to 3 will cause the interrupt
 682:.\Generated_Source\PSoC4/RTC_PPS.c **** *                   to delay by the same number of captures.
 683:.\Generated_Source\PSoC4/RTC_PPS.c **** *
 684:.\Generated_Source\PSoC4/RTC_PPS.c **** * Return:
 685:.\Generated_Source\PSoC4/RTC_PPS.c **** *  void
 686:.\Generated_Source\PSoC4/RTC_PPS.c **** *
 687:.\Generated_Source\PSoC4/RTC_PPS.c **** *******************************************************************************/
 688:.\Generated_Source\PSoC4/RTC_PPS.c **** void RTC_PPS_SetInterruptCount(uint8 interruptCount) 
 689:.\Generated_Source\PSoC4/RTC_PPS.c **** {
 690:.\Generated_Source\PSoC4/RTC_PPS.c ****     /* This must only set to two bits of the control register associated */
 691:.\Generated_Source\PSoC4/RTC_PPS.c ****     interruptCount &= RTC_PPS_CTRL_INTCNT_MASK;
 692:.\Generated_Source\PSoC4/RTC_PPS.c **** 
 693:.\Generated_Source\PSoC4/RTC_PPS.c ****     #if (!RTC_PPS_UDB_CONTROL_REG_REMOVED)
 694:.\Generated_Source\PSoC4/RTC_PPS.c ****         /* Clear the Current Setting */
 695:.\Generated_Source\PSoC4/RTC_PPS.c ****         RTC_PPS_CONTROL &= ((uint8)(~RTC_PPS_CTRL_INTCNT_MASK));
 696:.\Generated_Source\PSoC4/RTC_PPS.c ****         /* Write The New Setting */
 697:.\Generated_Source\PSoC4/RTC_PPS.c ****         RTC_PPS_CONTROL |= interruptCount;
 698:.\Generated_Source\PSoC4/RTC_PPS.c ****     #endif /* (!RTC_PPS_UDB_CONTROL_REG_REMOVED) */
 699:.\Generated_Source\PSoC4/RTC_PPS.c **** }
 700:.\Generated_Source\PSoC4/RTC_PPS.c **** #endif /* RTC_PPS_InterruptOnCaptureCount */
 701:.\Generated_Source\PSoC4/RTC_PPS.c **** 
 702:.\Generated_Source\PSoC4/RTC_PPS.c **** 
 703:.\Generated_Source\PSoC4/RTC_PPS.c **** #if (RTC_PPS_UsingHWCaptureCounter)
 704:.\Generated_Source\PSoC4/RTC_PPS.c **** 
 705:.\Generated_Source\PSoC4/RTC_PPS.c **** 
 706:.\Generated_Source\PSoC4/RTC_PPS.c **** /*******************************************************************************
 707:.\Generated_Source\PSoC4/RTC_PPS.c **** * Function Name: RTC_PPS_SetCaptureCount
 708:.\Generated_Source\PSoC4/RTC_PPS.c **** ********************************************************************************
 709:.\Generated_Source\PSoC4/RTC_PPS.c **** *
 710:.\Generated_Source\PSoC4/RTC_PPS.c **** * Summary:
 711:.\Generated_Source\PSoC4/RTC_PPS.c **** *  This function sets the capture count
 712:.\Generated_Source\PSoC4/RTC_PPS.c **** *
 713:.\Generated_Source\PSoC4/RTC_PPS.c **** * Parameters:
 714:.\Generated_Source\PSoC4/RTC_PPS.c **** *  captureCount: A value between 2 and 127 inclusive is valid.  A value of 1
 715:.\Generated_Source\PSoC4/RTC_PPS.c **** *                to 127 will cause the interrupt to delay by the same number of
 716:.\Generated_Source\PSoC4/RTC_PPS.c **** *                captures.
 717:.\Generated_Source\PSoC4/RTC_PPS.c **** *
 718:.\Generated_Source\PSoC4/RTC_PPS.c **** * Return:
 719:.\Generated_Source\PSoC4/RTC_PPS.c **** *  void
 720:.\Generated_Source\PSoC4/RTC_PPS.c **** *
 721:.\Generated_Source\PSoC4/RTC_PPS.c **** *******************************************************************************/
 722:.\Generated_Source\PSoC4/RTC_PPS.c **** void RTC_PPS_SetCaptureCount(uint8 captureCount) 
 723:.\Generated_Source\PSoC4/RTC_PPS.c **** {
 724:.\Generated_Source\PSoC4/RTC_PPS.c ****     RTC_PPS_CAP_COUNT = captureCount;
 725:.\Generated_Source\PSoC4/RTC_PPS.c **** }
 726:.\Generated_Source\PSoC4/RTC_PPS.c **** 
 727:.\Generated_Source\PSoC4/RTC_PPS.c **** 
 728:.\Generated_Source\PSoC4/RTC_PPS.c **** /*******************************************************************************
 729:.\Generated_Source\PSoC4/RTC_PPS.c **** * Function Name: RTC_PPS_ReadCaptureCount
ARM GAS  C:\Users\ddemidov\AppData\Local\Temp\ccXCZcWx.s 			page 20


 730:.\Generated_Source\PSoC4/RTC_PPS.c **** ********************************************************************************
 731:.\Generated_Source\PSoC4/RTC_PPS.c **** *
 732:.\Generated_Source\PSoC4/RTC_PPS.c **** * Summary:
 733:.\Generated_Source\PSoC4/RTC_PPS.c **** *  This function reads the capture count setting
 734:.\Generated_Source\PSoC4/RTC_PPS.c **** *
 735:.\Generated_Source\PSoC4/RTC_PPS.c **** * Parameters:
 736:.\Generated_Source\PSoC4/RTC_PPS.c **** *  void
 737:.\Generated_Source\PSoC4/RTC_PPS.c **** *
 738:.\Generated_Source\PSoC4/RTC_PPS.c **** * Return:
 739:.\Generated_Source\PSoC4/RTC_PPS.c **** *  Returns the Capture Count Setting
 740:.\Generated_Source\PSoC4/RTC_PPS.c **** *
 741:.\Generated_Source\PSoC4/RTC_PPS.c **** *******************************************************************************/
 742:.\Generated_Source\PSoC4/RTC_PPS.c **** uint8 RTC_PPS_ReadCaptureCount(void) 
 743:.\Generated_Source\PSoC4/RTC_PPS.c **** {
 744:.\Generated_Source\PSoC4/RTC_PPS.c ****     return ((uint8)RTC_PPS_CAP_COUNT);
 745:.\Generated_Source\PSoC4/RTC_PPS.c **** }
 746:.\Generated_Source\PSoC4/RTC_PPS.c **** #endif /* RTC_PPS_UsingHWCaptureCounter */
 747:.\Generated_Source\PSoC4/RTC_PPS.c **** 
 748:.\Generated_Source\PSoC4/RTC_PPS.c **** 
 749:.\Generated_Source\PSoC4/RTC_PPS.c **** /*******************************************************************************
 750:.\Generated_Source\PSoC4/RTC_PPS.c **** * Function Name: RTC_PPS_ClearFIFO
 751:.\Generated_Source\PSoC4/RTC_PPS.c **** ********************************************************************************
 752:.\Generated_Source\PSoC4/RTC_PPS.c **** *
 753:.\Generated_Source\PSoC4/RTC_PPS.c **** * Summary:
 754:.\Generated_Source\PSoC4/RTC_PPS.c **** *  This function clears all capture data from the capture FIFO
 755:.\Generated_Source\PSoC4/RTC_PPS.c **** *
 756:.\Generated_Source\PSoC4/RTC_PPS.c **** * Parameters:
 757:.\Generated_Source\PSoC4/RTC_PPS.c **** *  void
 758:.\Generated_Source\PSoC4/RTC_PPS.c **** *
 759:.\Generated_Source\PSoC4/RTC_PPS.c **** * Return:
 760:.\Generated_Source\PSoC4/RTC_PPS.c **** *  void
 761:.\Generated_Source\PSoC4/RTC_PPS.c **** *
 762:.\Generated_Source\PSoC4/RTC_PPS.c **** *******************************************************************************/
 763:.\Generated_Source\PSoC4/RTC_PPS.c **** void RTC_PPS_ClearFIFO(void) 
 764:.\Generated_Source\PSoC4/RTC_PPS.c **** {
 342              		.loc 1 764 0
 343              		.cfi_startproc
 344              	.L38:
 345              	.LBB12:
 346              	.LBB13:
 335:.\Generated_Source\PSoC4/RTC_PPS.c **** }
 347              		.loc 1 335 0
 348 0000 034B     		ldr	r3, .L42
 349 0002 1B78     		ldrb	r3, [r3]
 350              	.LBE13:
 351              	.LBE12:
 765:.\Generated_Source\PSoC4/RTC_PPS.c ****     while(0u != (RTC_PPS_ReadStatusRegister() & RTC_PPS_STATUS_FIFONEMP))
 352              		.loc 1 765 0
 353 0004 1B07     		lsl	r3, r3, #28
 354 0006 02D5     		bpl	.L41
 355              	.LBB14:
 356              	.LBB15:
 461:.\Generated_Source\PSoC4/RTC_PPS.c ****    #endif /* (RTC_PPS_UsingFixedFunction) */
 357              		.loc 1 461 0
 358 0008 024B     		ldr	r3, .L42+4
 359 000a 1B68     		ldr	r3, [r3]
 360 000c F8E7     		b	.L38
ARM GAS  C:\Users\ddemidov\AppData\Local\Temp\ccXCZcWx.s 			page 21


 361              	.L41:
 362              	.LBE15:
 363              	.LBE14:
 766:.\Generated_Source\PSoC4/RTC_PPS.c ****     {
 767:.\Generated_Source\PSoC4/RTC_PPS.c ****         (void)RTC_PPS_ReadCapture();
 768:.\Generated_Source\PSoC4/RTC_PPS.c ****     }
 769:.\Generated_Source\PSoC4/RTC_PPS.c **** }
 364              		.loc 1 769 0
 365              		@ sp needed
 366 000e 7047     		bx	lr
 367              	.L43:
 368              		.align	2
 369              	.L42:
 370 0010 63000F40 		.word	1074724963
 371 0014 00210F40 		.word	1074733312
 372              		.cfi_endproc
 373              	.LFE16:
 374              		.size	RTC_PPS_ClearFIFO, .-RTC_PPS_ClearFIFO
 375              		.section	.text.RTC_PPS_Init,"ax",%progbits
 376              		.align	1
 377              		.global	RTC_PPS_Init
 378              		.code	16
 379              		.thumb_func
 380              		.type	RTC_PPS_Init, %function
 381              	RTC_PPS_Init:
 382              	.LFB2:
  44:.\Generated_Source\PSoC4/RTC_PPS.c ****     #if(!RTC_PPS_UsingFixedFunction)
 383              		.loc 1 44 0
 384              		.cfi_startproc
 385              	.LVL4:
 386 0000 08B5     		push	{r3, lr}
 387              		.cfi_def_cfa_offset 8
 388              		.cfi_offset 3, -8
 389              		.cfi_offset 14, -4
 390              	.LBB16:
 391              	.LBB17:
 437:.\Generated_Source\PSoC4/RTC_PPS.c ****     #endif /*Write Period value with appropriate resolution suffix depending on UDB or fixed functi
 392              		.loc 1 437 0
 393 0002 0A4A     		ldr	r2, .L45
 394 0004 0A4B     		ldr	r3, .L45+4
 395              	.LBE17:
 396              	.LBE16:
 163:.\Generated_Source\PSoC4/RTC_PPS.c **** 
 397              		.loc 1 163 0
 398              		@ sp needed
 399              	.LBB19:
 400              	.LBB18:
 437:.\Generated_Source\PSoC4/RTC_PPS.c ****     #endif /*Write Period value with appropriate resolution suffix depending on UDB or fixed functi
 401              		.loc 1 437 0
 402 0006 1360     		str	r3, [r2]
 403              	.LVL5:
 404              	.LBE18:
 405              	.LBE19:
 406              	.LBB20:
 407              	.LBB21:
 489:.\Generated_Source\PSoC4/RTC_PPS.c ****     #endif /* Set Write Counter only for the UDB implementation (Write Counter not available in fix
 408              		.loc 1 489 0
ARM GAS  C:\Users\ddemidov\AppData\Local\Temp\ccXCZcWx.s 			page 22


 409 0008 0A4A     		ldr	r2, .L45+8
 410 000a 1360     		str	r3, [r2]
 411              	.LBE21:
 412              	.LBE20:
 142:.\Generated_Source\PSoC4/RTC_PPS.c **** 
 413              		.loc 1 142 0
 414 000c FFF7FEFF 		bl	CyEnterCriticalSection
 415              	.LVL6:
 145:.\Generated_Source\PSoC4/RTC_PPS.c **** 
 416              		.loc 1 145 0
 417 0010 1021     		mov	r1, #16
 418 0012 094A     		ldr	r2, .L45+12
 419 0014 1378     		ldrb	r3, [r2]
 420 0016 0B43     		orr	r3, r1
 421 0018 1370     		strb	r3, [r2]
 148:.\Generated_Source\PSoC4/RTC_PPS.c **** 
 422              		.loc 1 148 0
 423 001a FFF7FEFF 		bl	CyExitCriticalSection
 424              	.LVL7:
 159:.\Generated_Source\PSoC4/RTC_PPS.c ****     #endif /* Configure additional features of UDB implementation */
 425              		.loc 1 159 0
 426 001e FFF7FEFF 		bl	RTC_PPS_ClearFIFO
 427              	.LVL8:
 428              	.LBB22:
 429              	.LBB23:
 281:.\Generated_Source\PSoC4/RTC_PPS.c **** }
 430              		.loc 1 281 0
 431 0022 0122     		mov	r2, #1
 432 0024 054B     		ldr	r3, .L45+16
 433 0026 1A70     		strb	r2, [r3]
 434              	.LBE23:
 435              	.LBE22:
 163:.\Generated_Source\PSoC4/RTC_PPS.c **** 
 436              		.loc 1 163 0
 437 0028 08BD     		pop	{r3, pc}
 438              	.L46:
 439 002a C046     		.align	2
 440              	.L45:
 441 002c 80200F40 		.word	1074733184
 442 0030 FF6BDC02 		.word	47999999
 443 0034 00200F40 		.word	1074733056
 444 0038 93000F40 		.word	1074725011
 445 003c 83000F40 		.word	1074724995
 446              		.cfi_endproc
 447              	.LFE2:
 448              		.size	RTC_PPS_Init, .-RTC_PPS_Init
 449              		.section	.text.RTC_PPS_Start,"ax",%progbits
 450              		.align	1
 451              		.global	RTC_PPS_Start
 452              		.code	16
 453              		.thumb_func
 454              		.type	RTC_PPS_Start, %function
 455              	RTC_PPS_Start:
 456              	.LFB4:
 216:.\Generated_Source\PSoC4/RTC_PPS.c ****     if(RTC_PPS_initVar == 0u)
 457              		.loc 1 216 0
 458              		.cfi_startproc
ARM GAS  C:\Users\ddemidov\AppData\Local\Temp\ccXCZcWx.s 			page 23


 459 0000 10B5     		push	{r4, lr}
 460              		.cfi_def_cfa_offset 8
 461              		.cfi_offset 4, -8
 462              		.cfi_offset 14, -4
 217:.\Generated_Source\PSoC4/RTC_PPS.c ****     {
 463              		.loc 1 217 0
 464 0002 054C     		ldr	r4, .L49
 465 0004 2378     		ldrb	r3, [r4]
 466 0006 002B     		cmp	r3, #0
 467 0008 03D1     		bne	.L48
 219:.\Generated_Source\PSoC4/RTC_PPS.c **** 
 468              		.loc 1 219 0
 469 000a FFF7FEFF 		bl	RTC_PPS_Init
 470              	.LVL9:
 221:.\Generated_Source\PSoC4/RTC_PPS.c ****     }
 471              		.loc 1 221 0
 472 000e 0123     		mov	r3, #1
 473 0010 2370     		strb	r3, [r4]
 474              	.L48:
 225:.\Generated_Source\PSoC4/RTC_PPS.c **** }
 475              		.loc 1 225 0
 476 0012 FFF7FEFF 		bl	RTC_PPS_Enable
 477              	.LVL10:
 226:.\Generated_Source\PSoC4/RTC_PPS.c **** 
 478              		.loc 1 226 0
 479              		@ sp needed
 480 0016 10BD     		pop	{r4, pc}
 481              	.L50:
 482              		.align	2
 483              	.L49:
 484 0018 00000000 		.word	.LANCHOR0
 485              		.cfi_endproc
 486              	.LFE4:
 487              		.size	RTC_PPS_Start, .-RTC_PPS_Start
 488              		.global	RTC_PPS_initVar
 489              		.bss
 490              		.set	.LANCHOR0,. + 0
 491              		.type	RTC_PPS_initVar, %object
 492              		.size	RTC_PPS_initVar, 1
 493              	RTC_PPS_initVar:
 494 0000 00       		.space	1
 495              		.text
 496              	.Letext0:
 497              		.file 2 ".\\Generated_Source\\PSoC4\\cytypes.h"
 498              		.file 3 ".\\Generated_Source\\PSoC4\\CyLib.h"