ARM GAS  C:\Users\ddemidov\AppData\Local\Temp\ccdXRezU.s 			page 1


   1              		.cpu cortex-m0
   2              		.fpu softvfp
   3              		.eabi_attribute 20, 1
   4              		.eabi_attribute 21, 1
   5              		.eabi_attribute 23, 3
   6              		.eabi_attribute 24, 1
   7              		.eabi_attribute 25, 1
   8              		.eabi_attribute 26, 1
   9              		.eabi_attribute 30, 4
  10              		.eabi_attribute 34, 0
  11              		.eabi_attribute 18, 4
  12              		.code	16
  13              		.file	"RTC_PPS_PM.c"
  14              		.text
  15              	.Ltext0:
  16              		.cfi_sections	.debug_frame
  17              		.section	.text.RTC_PPS_SaveConfig,"ax",%progbits
  18              		.align	1
  19              		.global	RTC_PPS_SaveConfig
  20              		.code	16
  21              		.thumb_func
  22              		.type	RTC_PPS_SaveConfig, %function
  23              	RTC_PPS_SaveConfig:
  24              	.LFB2:
  25              		.file 1 ".\\Generated_Source\\PSoC4\\RTC_PPS_PM.c"
   1:.\Generated_Source\PSoC4/RTC_PPS_PM.c **** /*******************************************************************************
   2:.\Generated_Source\PSoC4/RTC_PPS_PM.c **** * File Name: RTC_PPS_PM.c
   3:.\Generated_Source\PSoC4/RTC_PPS_PM.c **** * Version 2.70
   4:.\Generated_Source\PSoC4/RTC_PPS_PM.c **** *
   5:.\Generated_Source\PSoC4/RTC_PPS_PM.c **** *  Description:
   6:.\Generated_Source\PSoC4/RTC_PPS_PM.c **** *     This file provides the power management source code to API for the
   7:.\Generated_Source\PSoC4/RTC_PPS_PM.c **** *     Timer.
   8:.\Generated_Source\PSoC4/RTC_PPS_PM.c **** *
   9:.\Generated_Source\PSoC4/RTC_PPS_PM.c **** *   Note:
  10:.\Generated_Source\PSoC4/RTC_PPS_PM.c **** *     None
  11:.\Generated_Source\PSoC4/RTC_PPS_PM.c **** *
  12:.\Generated_Source\PSoC4/RTC_PPS_PM.c **** *******************************************************************************
  13:.\Generated_Source\PSoC4/RTC_PPS_PM.c **** * Copyright 2008-2014, Cypress Semiconductor Corporation.  All rights reserved.
  14:.\Generated_Source\PSoC4/RTC_PPS_PM.c **** * You may use this file only in accordance with the license, terms, conditions,
  15:.\Generated_Source\PSoC4/RTC_PPS_PM.c **** * disclaimers, and limitations in the end user license agreement accompanying
  16:.\Generated_Source\PSoC4/RTC_PPS_PM.c **** * the software package with which this file was provided.
  17:.\Generated_Source\PSoC4/RTC_PPS_PM.c **** ********************************************************************************/
  18:.\Generated_Source\PSoC4/RTC_PPS_PM.c **** 
  19:.\Generated_Source\PSoC4/RTC_PPS_PM.c **** #include "RTC_PPS.h"
  20:.\Generated_Source\PSoC4/RTC_PPS_PM.c **** 
  21:.\Generated_Source\PSoC4/RTC_PPS_PM.c **** static RTC_PPS_backupStruct RTC_PPS_backup;
  22:.\Generated_Source\PSoC4/RTC_PPS_PM.c **** 
  23:.\Generated_Source\PSoC4/RTC_PPS_PM.c **** 
  24:.\Generated_Source\PSoC4/RTC_PPS_PM.c **** /*******************************************************************************
  25:.\Generated_Source\PSoC4/RTC_PPS_PM.c **** * Function Name: RTC_PPS_SaveConfig
  26:.\Generated_Source\PSoC4/RTC_PPS_PM.c **** ********************************************************************************
  27:.\Generated_Source\PSoC4/RTC_PPS_PM.c **** *
  28:.\Generated_Source\PSoC4/RTC_PPS_PM.c **** * Summary:
  29:.\Generated_Source\PSoC4/RTC_PPS_PM.c **** *     Save the current user configuration
  30:.\Generated_Source\PSoC4/RTC_PPS_PM.c **** *
  31:.\Generated_Source\PSoC4/RTC_PPS_PM.c **** * Parameters:
  32:.\Generated_Source\PSoC4/RTC_PPS_PM.c **** *  void
ARM GAS  C:\Users\ddemidov\AppData\Local\Temp\ccdXRezU.s 			page 2


  33:.\Generated_Source\PSoC4/RTC_PPS_PM.c **** *
  34:.\Generated_Source\PSoC4/RTC_PPS_PM.c **** * Return:
  35:.\Generated_Source\PSoC4/RTC_PPS_PM.c **** *  void
  36:.\Generated_Source\PSoC4/RTC_PPS_PM.c **** *
  37:.\Generated_Source\PSoC4/RTC_PPS_PM.c **** * Global variables:
  38:.\Generated_Source\PSoC4/RTC_PPS_PM.c **** *  RTC_PPS_backup:  Variables of this global structure are modified to
  39:.\Generated_Source\PSoC4/RTC_PPS_PM.c **** *  store the values of non retention configuration registers when Sleep() API is
  40:.\Generated_Source\PSoC4/RTC_PPS_PM.c **** *  called.
  41:.\Generated_Source\PSoC4/RTC_PPS_PM.c **** *
  42:.\Generated_Source\PSoC4/RTC_PPS_PM.c **** *******************************************************************************/
  43:.\Generated_Source\PSoC4/RTC_PPS_PM.c **** void RTC_PPS_SaveConfig(void) 
  44:.\Generated_Source\PSoC4/RTC_PPS_PM.c **** {
  26              		.loc 1 44 0
  27              		.cfi_startproc
  28 0000 10B5     		push	{r4, lr}
  29              		.cfi_def_cfa_offset 8
  30              		.cfi_offset 4, -8
  31              		.cfi_offset 14, -4
  45:.\Generated_Source\PSoC4/RTC_PPS_PM.c ****     #if (!RTC_PPS_UsingFixedFunction)
  46:.\Generated_Source\PSoC4/RTC_PPS_PM.c ****         RTC_PPS_backup.TimerUdb = RTC_PPS_ReadCounter();
  32              		.loc 1 46 0
  33 0002 FFF7FEFF 		bl	RTC_PPS_ReadCounter
  34              	.LVL0:
  35 0006 044C     		ldr	r4, .L2
  47:.\Generated_Source\PSoC4/RTC_PPS_PM.c ****         RTC_PPS_backup.InterruptMaskValue = RTC_PPS_STATUS_MASK;
  36              		.loc 1 47 0
  37 0008 044B     		ldr	r3, .L2+4
  46:.\Generated_Source\PSoC4/RTC_PPS_PM.c ****         RTC_PPS_backup.InterruptMaskValue = RTC_PPS_STATUS_MASK;
  38              		.loc 1 46 0
  39 000a 6060     		str	r0, [r4, #4]
  40              		.loc 1 47 0
  41 000c 1B78     		ldrb	r3, [r3]
  48:.\Generated_Source\PSoC4/RTC_PPS_PM.c ****         #if (RTC_PPS_UsingHWCaptureCounter)
  49:.\Generated_Source\PSoC4/RTC_PPS_PM.c ****             RTC_PPS_backup.TimerCaptureCounter = RTC_PPS_ReadCaptureCount();
  50:.\Generated_Source\PSoC4/RTC_PPS_PM.c ****         #endif /* Back Up capture counter register  */
  51:.\Generated_Source\PSoC4/RTC_PPS_PM.c **** 
  52:.\Generated_Source\PSoC4/RTC_PPS_PM.c ****         #if(!RTC_PPS_UDB_CONTROL_REG_REMOVED)
  53:.\Generated_Source\PSoC4/RTC_PPS_PM.c ****             RTC_PPS_backup.TimerControlRegister = RTC_PPS_ReadControlRegister();
  54:.\Generated_Source\PSoC4/RTC_PPS_PM.c ****         #endif /* Backup the enable state of the Timer component */
  55:.\Generated_Source\PSoC4/RTC_PPS_PM.c ****     #endif /* Backup non retention registers in UDB implementation. All fixed function registers ar
  56:.\Generated_Source\PSoC4/RTC_PPS_PM.c **** }
  42              		.loc 1 56 0
  43              		@ sp needed
  47:.\Generated_Source\PSoC4/RTC_PPS_PM.c ****         #if (RTC_PPS_UsingHWCaptureCounter)
  44              		.loc 1 47 0
  45 000e 2372     		strb	r3, [r4, #8]
  53:.\Generated_Source\PSoC4/RTC_PPS_PM.c ****         #endif /* Backup the enable state of the Timer component */
  46              		.loc 1 53 0
  47 0010 FFF7FEFF 		bl	RTC_PPS_ReadControlRegister
  48              	.LVL1:
  49 0014 6072     		strb	r0, [r4, #9]
  50              		.loc 1 56 0
  51 0016 10BD     		pop	{r4, pc}
  52              	.L3:
  53              		.align	2
  54              	.L2:
  55 0018 00000000 		.word	.LANCHOR0
ARM GAS  C:\Users\ddemidov\AppData\Local\Temp\ccdXRezU.s 			page 3


  56 001c 83000F40 		.word	1074724995
  57              		.cfi_endproc
  58              	.LFE2:
  59              		.size	RTC_PPS_SaveConfig, .-RTC_PPS_SaveConfig
  60              		.section	.text.RTC_PPS_RestoreConfig,"ax",%progbits
  61              		.align	1
  62              		.global	RTC_PPS_RestoreConfig
  63              		.code	16
  64              		.thumb_func
  65              		.type	RTC_PPS_RestoreConfig, %function
  66              	RTC_PPS_RestoreConfig:
  67              	.LFB3:
  57:.\Generated_Source\PSoC4/RTC_PPS_PM.c **** 
  58:.\Generated_Source\PSoC4/RTC_PPS_PM.c **** 
  59:.\Generated_Source\PSoC4/RTC_PPS_PM.c **** /*******************************************************************************
  60:.\Generated_Source\PSoC4/RTC_PPS_PM.c **** * Function Name: RTC_PPS_RestoreConfig
  61:.\Generated_Source\PSoC4/RTC_PPS_PM.c **** ********************************************************************************
  62:.\Generated_Source\PSoC4/RTC_PPS_PM.c **** *
  63:.\Generated_Source\PSoC4/RTC_PPS_PM.c **** * Summary:
  64:.\Generated_Source\PSoC4/RTC_PPS_PM.c **** *  Restores the current user configuration.
  65:.\Generated_Source\PSoC4/RTC_PPS_PM.c **** *
  66:.\Generated_Source\PSoC4/RTC_PPS_PM.c **** * Parameters:
  67:.\Generated_Source\PSoC4/RTC_PPS_PM.c **** *  void
  68:.\Generated_Source\PSoC4/RTC_PPS_PM.c **** *
  69:.\Generated_Source\PSoC4/RTC_PPS_PM.c **** * Return:
  70:.\Generated_Source\PSoC4/RTC_PPS_PM.c **** *  void
  71:.\Generated_Source\PSoC4/RTC_PPS_PM.c **** *
  72:.\Generated_Source\PSoC4/RTC_PPS_PM.c **** * Global variables:
  73:.\Generated_Source\PSoC4/RTC_PPS_PM.c **** *  RTC_PPS_backup:  Variables of this global structure are used to
  74:.\Generated_Source\PSoC4/RTC_PPS_PM.c **** *  restore the values of non retention registers on wakeup from sleep mode.
  75:.\Generated_Source\PSoC4/RTC_PPS_PM.c **** *
  76:.\Generated_Source\PSoC4/RTC_PPS_PM.c **** *******************************************************************************/
  77:.\Generated_Source\PSoC4/RTC_PPS_PM.c **** void RTC_PPS_RestoreConfig(void) 
  78:.\Generated_Source\PSoC4/RTC_PPS_PM.c **** {   
  68              		.loc 1 78 0
  69              		.cfi_startproc
  70 0000 10B5     		push	{r4, lr}
  71              		.cfi_def_cfa_offset 8
  72              		.cfi_offset 4, -8
  73              		.cfi_offset 14, -4
  79:.\Generated_Source\PSoC4/RTC_PPS_PM.c ****     #if (!RTC_PPS_UsingFixedFunction)
  80:.\Generated_Source\PSoC4/RTC_PPS_PM.c **** 
  81:.\Generated_Source\PSoC4/RTC_PPS_PM.c ****         RTC_PPS_WriteCounter(RTC_PPS_backup.TimerUdb);
  74              		.loc 1 81 0
  75 0002 054C     		ldr	r4, .L5
  82:.\Generated_Source\PSoC4/RTC_PPS_PM.c ****         RTC_PPS_STATUS_MASK =RTC_PPS_backup.InterruptMaskValue;
  83:.\Generated_Source\PSoC4/RTC_PPS_PM.c ****         #if (RTC_PPS_UsingHWCaptureCounter)
  84:.\Generated_Source\PSoC4/RTC_PPS_PM.c ****             RTC_PPS_SetCaptureCount(RTC_PPS_backup.TimerCaptureCounter);
  85:.\Generated_Source\PSoC4/RTC_PPS_PM.c ****         #endif /* Restore Capture counter register*/
  86:.\Generated_Source\PSoC4/RTC_PPS_PM.c **** 
  87:.\Generated_Source\PSoC4/RTC_PPS_PM.c ****         #if(!RTC_PPS_UDB_CONTROL_REG_REMOVED)
  88:.\Generated_Source\PSoC4/RTC_PPS_PM.c ****             RTC_PPS_WriteControlRegister(RTC_PPS_backup.TimerControlRegister);
  89:.\Generated_Source\PSoC4/RTC_PPS_PM.c ****         #endif /* Restore the enable state of the Timer component */
  90:.\Generated_Source\PSoC4/RTC_PPS_PM.c ****     #endif /* Restore non retention registers in the UDB implementation only */
  91:.\Generated_Source\PSoC4/RTC_PPS_PM.c **** }
  76              		.loc 1 91 0
  77              		@ sp needed
ARM GAS  C:\Users\ddemidov\AppData\Local\Temp\ccdXRezU.s 			page 4


  81:.\Generated_Source\PSoC4/RTC_PPS_PM.c ****         RTC_PPS_STATUS_MASK =RTC_PPS_backup.InterruptMaskValue;
  78              		.loc 1 81 0
  79 0004 6068     		ldr	r0, [r4, #4]
  80 0006 FFF7FEFF 		bl	RTC_PPS_WriteCounter
  81              	.LVL2:
  82:.\Generated_Source\PSoC4/RTC_PPS_PM.c ****         RTC_PPS_STATUS_MASK =RTC_PPS_backup.InterruptMaskValue;
  82              		.loc 1 82 0
  83 000a 227A     		ldrb	r2, [r4, #8]
  84 000c 034B     		ldr	r3, .L5+4
  85 000e 1A70     		strb	r2, [r3]
  88:.\Generated_Source\PSoC4/RTC_PPS_PM.c ****         #endif /* Restore the enable state of the Timer component */
  86              		.loc 1 88 0
  87 0010 607A     		ldrb	r0, [r4, #9]
  88 0012 FFF7FEFF 		bl	RTC_PPS_WriteControlRegister
  89              	.LVL3:
  90              		.loc 1 91 0
  91 0016 10BD     		pop	{r4, pc}
  92              	.L6:
  93              		.align	2
  94              	.L5:
  95 0018 00000000 		.word	.LANCHOR0
  96 001c 83000F40 		.word	1074724995
  97              		.cfi_endproc
  98              	.LFE3:
  99              		.size	RTC_PPS_RestoreConfig, .-RTC_PPS_RestoreConfig
 100              		.section	.text.RTC_PPS_Sleep,"ax",%progbits
 101              		.align	1
 102              		.global	RTC_PPS_Sleep
 103              		.code	16
 104              		.thumb_func
 105              		.type	RTC_PPS_Sleep, %function
 106              	RTC_PPS_Sleep:
 107              	.LFB4:
  92:.\Generated_Source\PSoC4/RTC_PPS_PM.c **** 
  93:.\Generated_Source\PSoC4/RTC_PPS_PM.c **** 
  94:.\Generated_Source\PSoC4/RTC_PPS_PM.c **** /*******************************************************************************
  95:.\Generated_Source\PSoC4/RTC_PPS_PM.c **** * Function Name: RTC_PPS_Sleep
  96:.\Generated_Source\PSoC4/RTC_PPS_PM.c **** ********************************************************************************
  97:.\Generated_Source\PSoC4/RTC_PPS_PM.c **** *
  98:.\Generated_Source\PSoC4/RTC_PPS_PM.c **** * Summary:
  99:.\Generated_Source\PSoC4/RTC_PPS_PM.c **** *     Stop and Save the user configuration
 100:.\Generated_Source\PSoC4/RTC_PPS_PM.c **** *
 101:.\Generated_Source\PSoC4/RTC_PPS_PM.c **** * Parameters:
 102:.\Generated_Source\PSoC4/RTC_PPS_PM.c **** *  void
 103:.\Generated_Source\PSoC4/RTC_PPS_PM.c **** *
 104:.\Generated_Source\PSoC4/RTC_PPS_PM.c **** * Return:
 105:.\Generated_Source\PSoC4/RTC_PPS_PM.c **** *  void
 106:.\Generated_Source\PSoC4/RTC_PPS_PM.c **** *
 107:.\Generated_Source\PSoC4/RTC_PPS_PM.c **** * Global variables:
 108:.\Generated_Source\PSoC4/RTC_PPS_PM.c **** *  RTC_PPS_backup.TimerEnableState:  Is modified depending on the
 109:.\Generated_Source\PSoC4/RTC_PPS_PM.c **** *  enable state of the block before entering sleep mode.
 110:.\Generated_Source\PSoC4/RTC_PPS_PM.c **** *
 111:.\Generated_Source\PSoC4/RTC_PPS_PM.c **** *******************************************************************************/
 112:.\Generated_Source\PSoC4/RTC_PPS_PM.c **** void RTC_PPS_Sleep(void) 
 113:.\Generated_Source\PSoC4/RTC_PPS_PM.c **** {
 108              		.loc 1 113 0
 109              		.cfi_startproc
ARM GAS  C:\Users\ddemidov\AppData\Local\Temp\ccdXRezU.s 			page 5


 110 0000 08B5     		push	{r3, lr}
 111              		.cfi_def_cfa_offset 8
 112              		.cfi_offset 3, -8
 113              		.cfi_offset 14, -4
 114:.\Generated_Source\PSoC4/RTC_PPS_PM.c ****     #if(!RTC_PPS_UDB_CONTROL_REG_REMOVED)
 115:.\Generated_Source\PSoC4/RTC_PPS_PM.c ****         /* Save Counter's enable state */
 116:.\Generated_Source\PSoC4/RTC_PPS_PM.c ****         if(RTC_PPS_CTRL_ENABLE == (RTC_PPS_CONTROL & RTC_PPS_CTRL_ENABLE))
 114              		.loc 1 116 0
 115 0002 074B     		ldr	r3, .L12
 116 0004 074A     		ldr	r2, .L12+4
 117 0006 1B78     		ldrb	r3, [r3]
 118 0008 5BB2     		sxtb	r3, r3
 119 000a 002B     		cmp	r3, #0
 120 000c 01DA     		bge	.L8
 117:.\Generated_Source\PSoC4/RTC_PPS_PM.c ****         {
 118:.\Generated_Source\PSoC4/RTC_PPS_PM.c ****             /* Timer is enabled */
 119:.\Generated_Source\PSoC4/RTC_PPS_PM.c ****             RTC_PPS_backup.TimerEnableState = 1u;
 121              		.loc 1 119 0
 122 000e 0123     		mov	r3, #1
 123 0010 00E0     		b	.L10
 124              	.L8:
 120:.\Generated_Source\PSoC4/RTC_PPS_PM.c ****         }
 121:.\Generated_Source\PSoC4/RTC_PPS_PM.c ****         else
 122:.\Generated_Source\PSoC4/RTC_PPS_PM.c ****         {
 123:.\Generated_Source\PSoC4/RTC_PPS_PM.c ****             /* Timer is disabled */
 124:.\Generated_Source\PSoC4/RTC_PPS_PM.c ****             RTC_PPS_backup.TimerEnableState = 0u;
 125              		.loc 1 124 0
 126 0012 0023     		mov	r3, #0
 127              	.L10:
 128 0014 1370     		strb	r3, [r2]
 125:.\Generated_Source\PSoC4/RTC_PPS_PM.c ****         }
 126:.\Generated_Source\PSoC4/RTC_PPS_PM.c ****     #endif /* Back up enable state from the Timer control register */
 127:.\Generated_Source\PSoC4/RTC_PPS_PM.c ****     RTC_PPS_Stop();
 128:.\Generated_Source\PSoC4/RTC_PPS_PM.c ****     RTC_PPS_SaveConfig();
 129:.\Generated_Source\PSoC4/RTC_PPS_PM.c **** }
 129              		.loc 1 129 0
 130              		@ sp needed
 127:.\Generated_Source\PSoC4/RTC_PPS_PM.c ****     RTC_PPS_SaveConfig();
 131              		.loc 1 127 0
 132 0016 FFF7FEFF 		bl	RTC_PPS_Stop
 133              	.LVL4:
 128:.\Generated_Source\PSoC4/RTC_PPS_PM.c **** }
 134              		.loc 1 128 0
 135 001a FFF7FEFF 		bl	RTC_PPS_SaveConfig
 136              	.LVL5:
 137              		.loc 1 129 0
 138 001e 08BD     		pop	{r3, pc}
 139              	.L13:
 140              		.align	2
 141              	.L12:
 142 0020 70000F40 		.word	1074724976
 143 0024 00000000 		.word	.LANCHOR0
 144              		.cfi_endproc
 145              	.LFE4:
 146              		.size	RTC_PPS_Sleep, .-RTC_PPS_Sleep
 147              		.section	.text.RTC_PPS_Wakeup,"ax",%progbits
 148              		.align	1
ARM GAS  C:\Users\ddemidov\AppData\Local\Temp\ccdXRezU.s 			page 6


 149              		.global	RTC_PPS_Wakeup
 150              		.code	16
 151              		.thumb_func
 152              		.type	RTC_PPS_Wakeup, %function
 153              	RTC_PPS_Wakeup:
 154              	.LFB5:
 130:.\Generated_Source\PSoC4/RTC_PPS_PM.c **** 
 131:.\Generated_Source\PSoC4/RTC_PPS_PM.c **** 
 132:.\Generated_Source\PSoC4/RTC_PPS_PM.c **** /*******************************************************************************
 133:.\Generated_Source\PSoC4/RTC_PPS_PM.c **** * Function Name: RTC_PPS_Wakeup
 134:.\Generated_Source\PSoC4/RTC_PPS_PM.c **** ********************************************************************************
 135:.\Generated_Source\PSoC4/RTC_PPS_PM.c **** *
 136:.\Generated_Source\PSoC4/RTC_PPS_PM.c **** * Summary:
 137:.\Generated_Source\PSoC4/RTC_PPS_PM.c **** *  Restores and enables the user configuration
 138:.\Generated_Source\PSoC4/RTC_PPS_PM.c **** *
 139:.\Generated_Source\PSoC4/RTC_PPS_PM.c **** * Parameters:
 140:.\Generated_Source\PSoC4/RTC_PPS_PM.c **** *  void
 141:.\Generated_Source\PSoC4/RTC_PPS_PM.c **** *
 142:.\Generated_Source\PSoC4/RTC_PPS_PM.c **** * Return:
 143:.\Generated_Source\PSoC4/RTC_PPS_PM.c **** *  void
 144:.\Generated_Source\PSoC4/RTC_PPS_PM.c **** *
 145:.\Generated_Source\PSoC4/RTC_PPS_PM.c **** * Global variables:
 146:.\Generated_Source\PSoC4/RTC_PPS_PM.c **** *  RTC_PPS_backup.enableState:  Is used to restore the enable state of
 147:.\Generated_Source\PSoC4/RTC_PPS_PM.c **** *  block on wakeup from sleep mode.
 148:.\Generated_Source\PSoC4/RTC_PPS_PM.c **** *
 149:.\Generated_Source\PSoC4/RTC_PPS_PM.c **** *******************************************************************************/
 150:.\Generated_Source\PSoC4/RTC_PPS_PM.c **** void RTC_PPS_Wakeup(void) 
 151:.\Generated_Source\PSoC4/RTC_PPS_PM.c **** {
 155              		.loc 1 151 0
 156              		.cfi_startproc
 157 0000 08B5     		push	{r3, lr}
 158              		.cfi_def_cfa_offset 8
 159              		.cfi_offset 3, -8
 160              		.cfi_offset 14, -4
 152:.\Generated_Source\PSoC4/RTC_PPS_PM.c ****     RTC_PPS_RestoreConfig();
 161              		.loc 1 152 0
 162 0002 FFF7FEFF 		bl	RTC_PPS_RestoreConfig
 163              	.LVL6:
 153:.\Generated_Source\PSoC4/RTC_PPS_PM.c ****     #if(!RTC_PPS_UDB_CONTROL_REG_REMOVED)
 154:.\Generated_Source\PSoC4/RTC_PPS_PM.c ****         if(RTC_PPS_backup.TimerEnableState == 1u)
 164              		.loc 1 154 0
 165 0006 034B     		ldr	r3, .L16
 166 0008 1B78     		ldrb	r3, [r3]
 167 000a 012B     		cmp	r3, #1
 168 000c 01D1     		bne	.L14
 155:.\Generated_Source\PSoC4/RTC_PPS_PM.c ****         {     /* Enable Timer's operation */
 156:.\Generated_Source\PSoC4/RTC_PPS_PM.c ****                 RTC_PPS_Enable();
 169              		.loc 1 156 0
 170 000e FFF7FEFF 		bl	RTC_PPS_Enable
 171              	.LVL7:
 172              	.L14:
 157:.\Generated_Source\PSoC4/RTC_PPS_PM.c ****         } /* Do nothing if Timer was disabled before */
 158:.\Generated_Source\PSoC4/RTC_PPS_PM.c ****     #endif /* Remove this code section if Control register is removed */
 159:.\Generated_Source\PSoC4/RTC_PPS_PM.c **** }
 173              		.loc 1 159 0
 174              		@ sp needed
 175 0012 08BD     		pop	{r3, pc}
ARM GAS  C:\Users\ddemidov\AppData\Local\Temp\ccdXRezU.s 			page 7


 176              	.L17:
 177              		.align	2
 178              	.L16:
 179 0014 00000000 		.word	.LANCHOR0
 180              		.cfi_endproc
 181              	.LFE5:
 182              		.size	RTC_PPS_Wakeup, .-RTC_PPS_Wakeup
 183              		.bss
 184              		.align	2
 185              		.set	.LANCHOR0,. + 0
 186              		.type	RTC_PPS_backup, %object
 187              		.size	RTC_PPS_backup, 12
 188              	RTC_PPS_backup:
 189 0000 00000000 		.space	12
 189      00000000 
 189      00000000 
 190              		.text
 191              	.Letext0:
 192              		.file 2 ".\\Generated_Source\\PSoC4\\cytypes.h"
 193              		.file 3 ".\\Generated_Source\\PSoC4\\RTC_PPS.h"