ARM GAS  C:\Users\ddemidov\AppData\Local\Temp\ccdgWM8Q.s 			page 1


   1              		.cpu cortex-m0
   2              		.fpu softvfp
   3              		.eabi_attribute 20, 1
   4              		.eabi_attribute 21, 1
   5              		.eabi_attribute 23, 3
   6              		.eabi_attribute 24, 1
   7              		.eabi_attribute 25, 1
   8              		.eabi_attribute 26, 1
   9              		.eabi_attribute 30, 4
  10              		.eabi_attribute 34, 0
  11              		.eabi_attribute 18, 4
  12              		.code	16
  13              		.file	"Sensor_Processes.c"
  14              		.text
  15              	.Ltext0:
  16              		.cfi_sections	.debug_frame
  17              		.section	.text.Sensor_Data_init,"ax",%progbits
  18              		.align	1
  19              		.global	Sensor_Data_init
  20              		.code	16
  21              		.thumb_func
  22              		.type	Sensor_Data_init, %function
  23              	Sensor_Data_init:
  24              	.LFB63:
  25              		.file 1 ".\\Sensor_Processes.c"
   1:.\Sensor_Processes.c **** /* ========================================
   2:.\Sensor_Processes.c ****  *
   3:.\Sensor_Processes.c ****  * Copyright Arrow Electronics, 2015
   4:.\Sensor_Processes.c ****  * All Rights Reserved
   5:.\Sensor_Processes.c ****  * UNPUBLISHED, LICENSED SOFTWARE.
   6:.\Sensor_Processes.c ****  * 
   7:.\Sensor_Processes.c ****  * Cypress Universal Sensor Eval Project
   8:.\Sensor_Processes.c ****  *
   9:.\Sensor_Processes.c ****  * Filename - Sensor_Processes.c
  10:.\Sensor_Processes.c ****  *
  11:.\Sensor_Processes.c ****  * Sensor Subroutines
  12:.\Sensor_Processes.c ****  * ------------------
  13:.\Sensor_Processes.c ****  *
  14:.\Sensor_Processes.c ****  * Sensor_Present_Test - checks to see if sensors
  15:.\Sensor_Processes.c ****  *   are present by writing to their I2C Address
  16:.\Sensor_Processes.c ****  *   and checking for ACK or NACK
  17:.\Sensor_Processes.c ****  *
  18:.\Sensor_Processes.c ****  * Start_TH_Measurement - writes a byte to the 
  19:.\Sensor_Processes.c ****  *   Humidicon sensor to start a Temperature and 
  20:.\Sensor_Processes.c ****  *   Humidity measurement
  21:.\Sensor_Processes.c ****  *
  22:.\Sensor_Processes.c ****  * Read_Temp_and_Humidity - this reads the humidity 
  23:.\Sensor_Processes.c ****  *   and temperature data, checks to make sure this 
  24:.\Sensor_Processes.c ****  *   is new data and calls the temperature and humidity
  25:.\Sensor_Processes.c ****  *   calculation subroutines
  26:.\Sensor_Processes.c ****  *
  27:.\Sensor_Processes.c ****  * TemperatureCalcuation - calculates the Temperature
  28:.\Sensor_Processes.c ****  *   from the raw ADC data from the sensor and returns it
  29:.\Sensor_Processes.c ****  *   in degrees C
  30:.\Sensor_Processes.c ****  *
  31:.\Sensor_Processes.c ****  * HumidityCalcuation - calculates the Relative Humidity
  32:.\Sensor_Processes.c ****  *   from the raw ADC data from the sensor and returns it
ARM GAS  C:\Users\ddemidov\AppData\Local\Temp\ccdgWM8Q.s 			page 2


  33:.\Sensor_Processes.c ****  *   as a percentage
  34:.\Sensor_Processes.c ****  *
  35:.\Sensor_Processes.c ****  * Start_Airflow_Measurement - reads the 1st 3 words so
  36:.\Sensor_Processes.c ****  *   that the next one is airflow data
  37:.\Sensor_Processes.c ****  *
  38:.\Sensor_Processes.c ****  * Read_Airflow - this reads the 2 byte (14 bit value)
  39:.\Sensor_Processes.c ****  *   swaps the bytes, calculates the airflow and 
  40:.\Sensor_Processes.c ****  *   stores it in the Sensor.data structure
  41:.\Sensor_Processes.c ****  *
  42:.\Sensor_Processes.c ****  * CONFIDENTIAL AND PROPRIETARY INFORMATION
  43:.\Sensor_Processes.c ****  * WHICH IS THE PROPERTY OF ARROW ELECTRONICS.
  44:.\Sensor_Processes.c ****  *
  45:.\Sensor_Processes.c ****  * ========================================
  46:.\Sensor_Processes.c **** */
  47:.\Sensor_Processes.c **** #include <project.h>
  48:.\Sensor_Processes.c **** #include <main.h>
  49:.\Sensor_Processes.c **** #include <Sensor_Processes.h>
  50:.\Sensor_Processes.c **** 
  51:.\Sensor_Processes.c **** struct /* Sensor Raw Data - MSB Read 1st followed by LSB */ 
  52:.\Sensor_Processes.c **** {
  53:.\Sensor_Processes.c ****     uint8   humidiconADChigh;   /* Humidity Sensor ADC high byte   */    
  54:.\Sensor_Processes.c ****     uint8   humidiconADClow;    /* Humidity Sensor ADC low byte    */
  55:.\Sensor_Processes.c ****     uint8   temperatureADChigh; /* Temperature Sensor high byte    */
  56:.\Sensor_Processes.c ****     uint8   temperatureADClow ; /* Temperature Sensor low byte     */
  57:.\Sensor_Processes.c ****     uint8   AirflowADChigh;     /* Airflow Sensor ADC high byte    */
  58:.\Sensor_Processes.c ****     uint8   AirflowADClow;      /* Airflow Sensor ADC low byte     */
  59:.\Sensor_Processes.c ****     uint8   pressureADChigh;    /* Pressure Sensor ADC high byte   */
  60:.\Sensor_Processes.c ****     uint8   pressureADClow;     /* Pressure Sensor ADC high low   */
  61:.\Sensor_Processes.c **** 
  62:.\Sensor_Processes.c **** } Sensor_Raw ;
  63:.\Sensor_Processes.c **** 
  64:.\Sensor_Processes.c **** #define  I2C_TIMEOUT    0xfff
  65:.\Sensor_Processes.c **** 
  66:.\Sensor_Processes.c **** /*****************************************************************/
  67:.\Sensor_Processes.c **** 
  68:.\Sensor_Processes.c **** void Sensor_Data_init(Sensor_Data_t *data) {
  26              		.loc 1 68 0
  27              		.cfi_startproc
  28              	.LVL0:
  69:.\Sensor_Processes.c ****     data->Status = MAGNET_PRESENT_MASK;       /* Magnetic Switch Present */
  29              		.loc 1 69 0
  30 0000 0823     		mov	r3, #8
  31 0002 0370     		strb	r3, [r0]
  70:.\Sensor_Processes.c ****     data->Temperature = DEFAULT_TEMP;        
  32              		.loc 1 70 0
  33 0004 0C33     		add	r3, r3, #12
  34 0006 4370     		strb	r3, [r0, #1]
  71:.\Sensor_Processes.c ****     data->Humidity = HUMIDICON_I2C_ADDRESS;   
  35              		.loc 1 71 0
  36 0008 1333     		add	r3, r3, #19
  37 000a 8370     		strb	r3, [r0, #2]
  72:.\Sensor_Processes.c ****     data->Air_Flow = AIRFLOW_I2C_ADDRESS;     
  38              		.loc 1 72 0
  39 000c 2233     		add	r3, r3, #34
  40 000e C380     		strh	r3, [r0, #6]
  73:.\Sensor_Processes.c ****     data->Pressure = PRESSURE_I2C_ADDRESS;
  41              		.loc 1 73 0
ARM GAS  C:\Users\ddemidov\AppData\Local\Temp\ccdgWM8Q.s 			page 3


  42 0010 113B     		sub	r3, r3, #17
  43 0012 8380     		strh	r3, [r0, #4]
  74:.\Sensor_Processes.c ****     data->Magnetic_Switch = 0x01;             /* Magnet not Present */ 
  44              		.loc 1 74 0
  45 0014 373B     		sub	r3, r3, #55
  46 0016 C370     		strb	r3, [r0, #3]
  75:.\Sensor_Processes.c **** }
  47              		.loc 1 75 0
  48              		@ sp needed
  49 0018 7047     		bx	lr
  50              		.cfi_endproc
  51              	.LFE63:
  52              		.size	Sensor_Data_init, .-Sensor_Data_init
  53              		.section	.text.Sensor_Present_Test,"ax",%progbits
  54              		.align	1
  55              		.global	Sensor_Present_Test
  56              		.code	16
  57              		.thumb_func
  58              		.type	Sensor_Present_Test, %function
  59              	Sensor_Present_Test:
  60              	.LFB64:
  76:.\Sensor_Processes.c **** 
  77:.\Sensor_Processes.c **** int Sensor_Present_Test(Sensor_Data_t *data) {
  61              		.loc 1 77 0
  62              		.cfi_startproc
  63              	.LVL1:
  64 0000 7FB5     		push	{r0, r1, r2, r3, r4, r5, r6, lr}
  65              		.cfi_def_cfa_offset 32
  66              		.cfi_offset 0, -32
  67              		.cfi_offset 1, -28
  68              		.cfi_offset 2, -24
  69              		.cfi_offset 3, -20
  70              		.cfi_offset 4, -16
  71              		.cfi_offset 5, -12
  72              		.cfi_offset 6, -8
  73              		.cfi_offset 14, -4
  78:.\Sensor_Processes.c ****     uint32  statusI2C;
  79:.\Sensor_Processes.c ****     uint8   command = 0;
  74              		.loc 1 79 0
  75 0002 6B46     		mov	r3, sp
  76 0004 DD1C     		add	r5, r3, #3
  77 0006 0023     		mov	r3, #0
  77:.\Sensor_Processes.c ****     uint32  statusI2C;
  78              		.loc 1 77 0
  79 0008 041C     		mov	r4, r0
  80:.\Sensor_Processes.c ****     uint8   dummy[10];
  81:.\Sensor_Processes.c ****     uint16   i;
  82:.\Sensor_Processes.c ****     
  83:.\Sensor_Processes.c ****     /* See if Humidicon sensor is present by Writing a Byte and reading Status for ACK or NACK */
  84:.\Sensor_Processes.c ****     I2CM_I2CMasterWriteBuf(HUMIDICON_I2C_ADDRESS, &command, 1, I2CM_I2C_MODE_COMPLETE_XFER);
  80              		.loc 1 84 0
  81 000a 291C     		mov	r1, r5
  82 000c 2720     		mov	r0, #39
  83              	.LVL2:
  84 000e 0122     		mov	r2, #1
  85:.\Sensor_Processes.c **** 
  86:.\Sensor_Processes.c ****     /* Waits until master completes write transfer */
ARM GAS  C:\Users\ddemidov\AppData\Local\Temp\ccdgWM8Q.s 			page 4


  87:.\Sensor_Processes.c ****     i = I2C_TIMEOUT;
  88:.\Sensor_Processes.c ****     while (0u == (I2CM_I2CMasterStatus() & I2CM_I2C_MSTAT_WR_CMPLT)) if(!i--) return -1;
  85              		.loc 1 88 0
  86 0010 8026     		mov	r6, #128
  79:.\Sensor_Processes.c ****     uint8   dummy[10];
  87              		.loc 1 79 0
  88 0012 2B70     		strb	r3, [r5]
  84:.\Sensor_Processes.c **** 
  89              		.loc 1 84 0
  90 0014 FFF7FEFF 		bl	I2CM_I2CMasterWriteBuf
  91              	.LVL3:
  92              		.loc 1 88 0
  93 0018 7601     		lsl	r6, r6, #5
  94              	.LVL4:
  95              	.L3:
  96              		.loc 1 88 0 is_stmt 0 discriminator 2
  97 001a FFF7FEFF 		bl	I2CM_I2CMasterStatus
  98              	.LVL5:
  99 001e 8307     		lsl	r3, r0, #30
 100 0020 05D4     		bmi	.L21
 101              	.LVL6:
 102 0022 013E     		sub	r6, r6, #1
 103              	.LVL7:
 104 0024 B6B2     		uxth	r6, r6
 105              		.loc 1 88 0 discriminator 3
 106 0026 002E     		cmp	r6, #0
 107 0028 F7D1     		bne	.L3
 108              		.loc 1 88 0
 109 002a 0120     		mov	r0, #1
 110 002c 4EE0     		b	.L19
 111              	.LVL8:
 112              	.L21:
  89:.\Sensor_Processes.c ****     
  90:.\Sensor_Processes.c ****     statusI2C = I2CM_I2CMasterStatus();
 113              		.loc 1 90 0 is_stmt 1
 114 002e FFF7FEFF 		bl	I2CM_I2CMasterStatus
 115              	.LVL9:
  91:.\Sensor_Processes.c ****     if ((I2CM_I2C_MSTAT_ERR_MASK & statusI2C) == 0) {
 116              		.loc 1 91 0
 117 0032 FC21     		mov	r1, #252
 118 0034 8900     		lsl	r1, r1, #2
 119 0036 2378     		ldrb	r3, [r4]
 120 0038 0122     		mov	r2, #1
 121 003a 0842     		tst	r0, r1
 122 003c 01D1     		bne	.L6
  92:.\Sensor_Processes.c ****         data->Status |= HUMIDICON_PRESENT_MASK;
 123              		.loc 1 92 0
 124 003e 1343     		orr	r3, r2
 125 0040 00E0     		b	.L18
 126              	.L6:
  93:.\Sensor_Processes.c ****     }else {
  94:.\Sensor_Processes.c ****         data->Status &= ~HUMIDICON_PRESENT_MASK;
 127              		.loc 1 94 0
 128 0042 9343     		bic	r3, r2
 129              	.L18:
 130 0044 2370     		strb	r3, [r4]
  95:.\Sensor_Processes.c ****     }
ARM GAS  C:\Users\ddemidov\AppData\Local\Temp\ccdgWM8Q.s 			page 5


  96:.\Sensor_Processes.c ****     
  97:.\Sensor_Processes.c ****     // See if Airflow sensor is present by Writing a Byte and reading Status for ACK or NACK
  98:.\Sensor_Processes.c ****     I2CM_I2CMasterReadBuf(AIRFLOW_I2C_ADDRESS, dummy, 6, I2CM_I2C_MODE_COMPLETE_XFER);
 131              		.loc 1 98 0
 132 0046 4920     		mov	r0, #73
 133              	.LVL10:
 134 0048 01A9     		add	r1, sp, #4
 135 004a 0622     		mov	r2, #6
 136 004c 0023     		mov	r3, #0
  99:.\Sensor_Processes.c **** 
 100:.\Sensor_Processes.c ****     // Waits until master completes write transfer
 101:.\Sensor_Processes.c ****     i = I2C_TIMEOUT;
 102:.\Sensor_Processes.c ****     while (0u == (I2CM_I2CMasterStatus() & I2CM_I2C_MSTAT_RD_CMPLT)) if(!i--) return -2;
 137              		.loc 1 102 0
 138 004e 8026     		mov	r6, #128
 139              	.LVL11:
  98:.\Sensor_Processes.c **** 
 140              		.loc 1 98 0
 141 0050 FFF7FEFF 		bl	I2CM_I2CMasterReadBuf
 142              	.LVL12:
 143              		.loc 1 102 0
 144 0054 7601     		lsl	r6, r6, #5
 145              	.LVL13:
 146              	.L8:
 147              		.loc 1 102 0 is_stmt 0 discriminator 2
 148 0056 FFF7FEFF 		bl	I2CM_I2CMasterStatus
 149              	.LVL14:
 150 005a C307     		lsl	r3, r0, #31
 151 005c 05D4     		bmi	.L22
 152              	.LVL15:
 153 005e 013E     		sub	r6, r6, #1
 154              	.LVL16:
 155 0060 B6B2     		uxth	r6, r6
 156              		.loc 1 102 0 discriminator 3
 157 0062 002E     		cmp	r6, #0
 158 0064 F7D1     		bne	.L8
 159              		.loc 1 102 0
 160 0066 0220     		mov	r0, #2
 161 0068 30E0     		b	.L19
 162              	.LVL17:
 163              	.L22:
 103:.\Sensor_Processes.c ****     
 104:.\Sensor_Processes.c ****     statusI2C = I2CM_I2CMasterStatus();
 164              		.loc 1 104 0 is_stmt 1
 165 006a FFF7FEFF 		bl	I2CM_I2CMasterStatus
 166              	.LVL18:
 105:.\Sensor_Processes.c ****     if ((I2CM_I2C_MSTAT_ERR_MASK & statusI2C) == 0) {
 167              		.loc 1 105 0
 168 006e FC21     		mov	r1, #252
 169 0070 8900     		lsl	r1, r1, #2
 170 0072 0222     		mov	r2, #2
 171 0074 2378     		ldrb	r3, [r4]
 172 0076 0842     		tst	r0, r1
 173 0078 02D1     		bne	.L10
 106:.\Sensor_Processes.c ****         data->Status |= AIRFLOW_PRESENT_MASK;
 174              		.loc 1 106 0
 175 007a 1343     		orr	r3, r2
ARM GAS  C:\Users\ddemidov\AppData\Local\Temp\ccdgWM8Q.s 			page 6


 176 007c 2370     		strb	r3, [r4]
 177 007e 03E0     		b	.L11
 178              	.L10:
 107:.\Sensor_Processes.c ****     } else {
 108:.\Sensor_Processes.c ****         data->Status &= ~AIRFLOW_PRESENT_MASK;
 179              		.loc 1 108 0
 180 0080 9343     		bic	r3, r2
 181 0082 2370     		strb	r3, [r4]
 109:.\Sensor_Processes.c ****         data->Air_Flow = 0x46;
 182              		.loc 1 109 0
 183 0084 4623     		mov	r3, #70
 184 0086 E380     		strh	r3, [r4, #6]
 185              	.L11:
 110:.\Sensor_Processes.c ****     }
 111:.\Sensor_Processes.c ****     
 112:.\Sensor_Processes.c ****     // See if Pressure sensor is present by Writing a Byte and reading Status for ACK or NACK
 113:.\Sensor_Processes.c ****     I2CM_I2CMasterWriteBuf(PRESSURE_I2C_ADDRESS, &command, 1, I2CM_I2C_MODE_COMPLETE_XFER);
 186              		.loc 1 113 0
 187 0088 291C     		mov	r1, r5
 188 008a 3820     		mov	r0, #56
 189              	.LVL19:
 190 008c 0122     		mov	r2, #1
 191 008e 0023     		mov	r3, #0
 114:.\Sensor_Processes.c ****     // Waits until master completes write transfer
 115:.\Sensor_Processes.c ****     i = I2C_TIMEOUT;
 116:.\Sensor_Processes.c ****     while (0u == (I2CM_I2CMasterStatus() & I2CM_I2C_MSTAT_WR_CMPLT)) if(!i--) return -3;
 192              		.loc 1 116 0
 193 0090 8025     		mov	r5, #128
 113:.\Sensor_Processes.c ****     // Waits until master completes write transfer
 194              		.loc 1 113 0
 195 0092 FFF7FEFF 		bl	I2CM_I2CMasterWriteBuf
 196              	.LVL20:
 197              		.loc 1 116 0
 198 0096 6D01     		lsl	r5, r5, #5
 199              	.LVL21:
 200              	.L12:
 201              		.loc 1 116 0 is_stmt 0 discriminator 2
 202 0098 FFF7FEFF 		bl	I2CM_I2CMasterStatus
 203              	.LVL22:
 204 009c 8307     		lsl	r3, r0, #30
 205 009e 05D4     		bmi	.L23
 206              	.LVL23:
 207 00a0 013D     		sub	r5, r5, #1
 208              	.LVL24:
 209 00a2 ADB2     		uxth	r5, r5
 210              		.loc 1 116 0 discriminator 3
 211 00a4 002D     		cmp	r5, #0
 212 00a6 F7D1     		bne	.L12
 213              		.loc 1 116 0
 214 00a8 0320     		mov	r0, #3
 215 00aa 0FE0     		b	.L19
 216              	.LVL25:
 217              	.L23:
 117:.\Sensor_Processes.c ****     statusI2C = I2CM_I2CMasterStatus();
 218              		.loc 1 117 0 is_stmt 1
 219 00ac FFF7FEFF 		bl	I2CM_I2CMasterStatus
 220              	.LVL26:
ARM GAS  C:\Users\ddemidov\AppData\Local\Temp\ccdgWM8Q.s 			page 7


 118:.\Sensor_Processes.c ****     // No Errors - Sensor Present
 119:.\Sensor_Processes.c ****     if ((I2CM_I2C_MSTAT_ERR_MASK & statusI2C) == 0) {
 221              		.loc 1 119 0
 222 00b0 FC23     		mov	r3, #252
 223 00b2 9B00     		lsl	r3, r3, #2
 224 00b4 1840     		and	r0, r3
 225              	.LVL27:
 226 00b6 0422     		mov	r2, #4
 227 00b8 2378     		ldrb	r3, [r4]
 228 00ba 0028     		cmp	r0, #0
 229 00bc 02D1     		bne	.L14
 120:.\Sensor_Processes.c ****         data->Status |= PRESSURE_PRESENT_MASK;
 230              		.loc 1 120 0
 231 00be 1343     		orr	r3, r2
 232 00c0 2370     		strb	r3, [r4]
 233 00c2 04E0     		b	.L4
 234              	.L14:
 121:.\Sensor_Processes.c ****     } else {
 122:.\Sensor_Processes.c ****         data->Status &= ~PRESSURE_PRESENT_MASK;
 235              		.loc 1 122 0
 236 00c4 9343     		bic	r3, r2
 237 00c6 2370     		strb	r3, [r4]
 123:.\Sensor_Processes.c ****     }
 124:.\Sensor_Processes.c ****     return 0;
 238              		.loc 1 124 0
 239 00c8 0020     		mov	r0, #0
 240 00ca 00E0     		b	.L4
 241              	.LVL28:
 242              	.L19:
 116:.\Sensor_Processes.c ****     statusI2C = I2CM_I2CMasterStatus();
 243              		.loc 1 116 0
 244 00cc 4042     		neg	r0, r0
 245              	.L4:
 125:.\Sensor_Processes.c **** } /* End Sensor_Present_Test */
 246              		.loc 1 125 0
 247 00ce 04B0     		add	sp, sp, #16
 248              		@ sp needed
 249              	.LVL29:
 250 00d0 70BD     		pop	{r4, r5, r6, pc}
 251              		.cfi_endproc
 252              	.LFE64:
 253              		.size	Sensor_Present_Test, .-Sensor_Present_Test
 254              		.section	.text.Start_TH_Measurement,"ax",%progbits
 255              		.align	1
 256              		.global	Start_TH_Measurement
 257              		.code	16
 258              		.thumb_func
 259              		.type	Start_TH_Measurement, %function
 260              	Start_TH_Measurement:
 261              	.LFB65:
 126:.\Sensor_Processes.c **** 
 127:.\Sensor_Processes.c **** /******************************************************************/
 128:.\Sensor_Processes.c **** 
 129:.\Sensor_Processes.c **** int Start_TH_Measurement(void) {
 262              		.loc 1 129 0
 263              		.cfi_startproc
 264 0000 13B5     		push	{r0, r1, r4, lr}
ARM GAS  C:\Users\ddemidov\AppData\Local\Temp\ccdgWM8Q.s 			page 8


 265              		.cfi_def_cfa_offset 16
 266              		.cfi_offset 0, -16
 267              		.cfi_offset 1, -12
 268              		.cfi_offset 4, -8
 269              		.cfi_offset 14, -4
 130:.\Sensor_Processes.c ****     uint8 command = 0;
 270              		.loc 1 130 0
 271 0002 6B46     		mov	r3, sp
 272 0004 D91D     		add	r1, r3, #7
 273 0006 0023     		mov	r3, #0
 131:.\Sensor_Processes.c ****     uint16 i = I2C_TIMEOUT;
 132:.\Sensor_Processes.c **** 
 133:.\Sensor_Processes.c ****     /* Start Measurement by Writing a byte to the Humidicon sensor */
 134:.\Sensor_Processes.c ****     I2CM_I2CMasterWriteBuf(HUMIDICON_I2C_ADDRESS, &command, 1, I2CM_I2C_MODE_COMPLETE_XFER);
 274              		.loc 1 134 0
 275 0008 2720     		mov	r0, #39
 276 000a 0122     		mov	r2, #1
 135:.\Sensor_Processes.c **** 
 136:.\Sensor_Processes.c ****     /* Waits until master completes write transfer */
 137:.\Sensor_Processes.c ****     while (0u == (I2CM_I2CMasterStatus() & I2CM_I2C_MSTAT_WR_CMPLT)) if(!i--) return -1;
 277              		.loc 1 137 0
 278 000c 8024     		mov	r4, #128
 130:.\Sensor_Processes.c ****     uint16 i = I2C_TIMEOUT;
 279              		.loc 1 130 0
 280 000e 0B70     		strb	r3, [r1]
 281              	.LVL30:
 134:.\Sensor_Processes.c **** 
 282              		.loc 1 134 0
 283 0010 FFF7FEFF 		bl	I2CM_I2CMasterWriteBuf
 284              	.LVL31:
 285              		.loc 1 137 0
 286 0014 6401     		lsl	r4, r4, #5
 287              	.LVL32:
 288              	.L25:
 289              		.loc 1 137 0 is_stmt 0 discriminator 2
 290 0016 FFF7FEFF 		bl	I2CM_I2CMasterStatus
 291              	.LVL33:
 292 001a 8307     		lsl	r3, r0, #30
 293 001c 06D4     		bmi	.L29
 294              	.LVL34:
 295 001e 013C     		sub	r4, r4, #1
 296              	.LVL35:
 297 0020 A4B2     		uxth	r4, r4
 298              		.loc 1 137 0 discriminator 3
 299 0022 002C     		cmp	r4, #0
 300 0024 F7D1     		bne	.L25
 301              		.loc 1 137 0
 302 0026 0120     		mov	r0, #1
 303 0028 4042     		neg	r0, r0
 304 002a 00E0     		b	.L26
 305              	.LVL36:
 306              	.L29:
 138:.\Sensor_Processes.c ****     return 0;
 307              		.loc 1 138 0 is_stmt 1
 308 002c 0020     		mov	r0, #0
 309              	.LVL37:
 310              	.L26:
ARM GAS  C:\Users\ddemidov\AppData\Local\Temp\ccdgWM8Q.s 			page 9


 139:.\Sensor_Processes.c ****  }
 311              		.loc 1 139 0
 312              		@ sp needed
 313 002e 16BD     		pop	{r1, r2, r4, pc}
 314              		.cfi_endproc
 315              	.LFE65:
 316              		.size	Start_TH_Measurement, .-Start_TH_Measurement
 317              		.global	__aeabi_idiv
 318              		.section	.text.TemperatureCalcuation,"ax",%progbits
 319              		.align	1
 320              		.global	TemperatureCalcuation
 321              		.code	16
 322              		.thumb_func
 323              		.type	TemperatureCalcuation, %function
 324              	TemperatureCalcuation:
 325              	.LFB67:
 140:.\Sensor_Processes.c **** 
 141:.\Sensor_Processes.c **** /********************************************************************/
 142:.\Sensor_Processes.c **** 
 143:.\Sensor_Processes.c **** int Read_Temp_and_Humidity(Sensor_Data_t *data) {
 144:.\Sensor_Processes.c ****     volatile int32   temperatureRaw;
 145:.\Sensor_Processes.c ****     volatile uint32  humidityRaw;
 146:.\Sensor_Processes.c ****     uint8   dataStale;
 147:.\Sensor_Processes.c ****     uint16 i, to = I2C_TIMEOUT;
 148:.\Sensor_Processes.c **** 
 149:.\Sensor_Processes.c ****     /* Wait for conversion complete */
 150:.\Sensor_Processes.c ****     dataStale = 1;
 151:.\Sensor_Processes.c ****     while (dataStale) {
 152:.\Sensor_Processes.c ****         /* Read data including status */
 153:.\Sensor_Processes.c ****         I2CM_I2CMasterReadBuf(HUMIDICON_I2C_ADDRESS, (uint8*)&Sensor_Raw.humidiconADChigh, 4, I2CM_
 154:.\Sensor_Processes.c **** 
 155:.\Sensor_Processes.c ****         /* Waits until master complete read transfer */
 156:.\Sensor_Processes.c ****         i = I2C_TIMEOUT;
 157:.\Sensor_Processes.c ****         while (0u == (I2CM_I2CMasterStatus() & I2CM_I2C_MSTAT_RD_CMPLT)) if(!i--) return -1;
 158:.\Sensor_Processes.c ****         
 159:.\Sensor_Processes.c ****         dataStale = Sensor_Raw.humidiconADChigh & HUMIDITY_STATUS_MASK;
 160:.\Sensor_Processes.c ****         if ( !to-- ) return -1;
 161:.\Sensor_Processes.c ****     }
 162:.\Sensor_Processes.c **** 
 163:.\Sensor_Processes.c ****     /*Swap data bytes for Temperature and Humidity */
 164:.\Sensor_Processes.c ****         
 165:.\Sensor_Processes.c ****     temperatureRaw = Sensor_Raw.temperatureADChigh << 6;
 166:.\Sensor_Processes.c ****     temperatureRaw = temperatureRaw + (Sensor_Raw.temperatureADClow >>2);  
 167:.\Sensor_Processes.c ****     data->Temperature = TemperatureCalcuation(temperatureRaw);
 168:.\Sensor_Processes.c **** 
 169:.\Sensor_Processes.c ****     humidityRaw = ((Sensor_Raw.humidiconADChigh & HUMIDITY_DATA_MASK) << 8) + Sensor_Raw.humidiconA
 170:.\Sensor_Processes.c ****     data->Humidity = HumidityCalcuation(humidityRaw);
 171:.\Sensor_Processes.c ****     return 0;
 172:.\Sensor_Processes.c **** }
 173:.\Sensor_Processes.c **** 
 174:.\Sensor_Processes.c **** /********************************************************************/
 175:.\Sensor_Processes.c **** 
 176:.\Sensor_Processes.c **** /* Temperature Calcuation */
 177:.\Sensor_Processes.c **** 
 178:.\Sensor_Processes.c **** int8 TemperatureCalcuation (int32 Temperature_ADC) {
 326              		.loc 1 178 0
 327              		.cfi_startproc
ARM GAS  C:\Users\ddemidov\AppData\Local\Temp\ccdgWM8Q.s 			page 10


 328              	.LVL38:
 329 0000 08B5     		push	{r3, lr}
 330              		.cfi_def_cfa_offset 8
 331              		.cfi_offset 3, -8
 332              		.cfi_offset 14, -4
 179:.\Sensor_Processes.c ****     int32 Temperature;
 180:.\Sensor_Processes.c ****     
 181:.\Sensor_Processes.c ****     Temperature = (((Temperature_ADC << 10) * TEMPERATURE_MULTIPLIER) / DIVISOR);
 333              		.loc 1 181 0
 334 0002 A523     		mov	r3, #165
 335 0004 8002     		lsl	r0, r0, #10
 336              	.LVL39:
 337 0006 5843     		mul	r0, r3
 338 0008 0349     		ldr	r1, .L31
 339 000a FFF7FEFF 		bl	__aeabi_idiv
 340              	.LVL40:
 182:.\Sensor_Processes.c ****     Temperature = (Temperature >> 10) - OFFSET;
 341              		.loc 1 182 0
 342 000e 8012     		asr	r0, r0, #10
 343              	.LVL41:
 344 0010 2838     		sub	r0, r0, #40
 345              	.LVL42:
 183:.\Sensor_Processes.c ****     return ((int8)Temperature);
 346              		.loc 1 183 0
 347 0012 40B2     		sxtb	r0, r0
 348              	.LVL43:
 184:.\Sensor_Processes.c **** }
 349              		.loc 1 184 0
 350              		@ sp needed
 351 0014 08BD     		pop	{r3, pc}
 352              	.L32:
 353 0016 C046     		.align	2
 354              	.L31:
 355 0018 FE3F0000 		.word	16382
 356              		.cfi_endproc
 357              	.LFE67:
 358              		.size	TemperatureCalcuation, .-TemperatureCalcuation
 359              		.global	__aeabi_uidiv
 360              		.section	.text.Read_Temp_and_Humidity,"ax",%progbits
 361              		.align	1
 362              		.global	Read_Temp_and_Humidity
 363              		.code	16
 364              		.thumb_func
 365              		.type	Read_Temp_and_Humidity, %function
 366              	Read_Temp_and_Humidity:
 367              	.LFB66:
 143:.\Sensor_Processes.c ****     volatile int32   temperatureRaw;
 368              		.loc 1 143 0
 369              		.cfi_startproc
 370              	.LVL44:
 371 0000 F0B5     		push	{r4, r5, r6, r7, lr}
 372              		.cfi_def_cfa_offset 20
 373              		.cfi_offset 4, -20
 374              		.cfi_offset 5, -16
 375              		.cfi_offset 6, -12
 376              		.cfi_offset 7, -8
 377              		.cfi_offset 14, -4
ARM GAS  C:\Users\ddemidov\AppData\Local\Temp\ccdgWM8Q.s 			page 11


 378 0002 8024     		mov	r4, #128
 379 0004 85B0     		sub	sp, sp, #20
 380              		.cfi_def_cfa_offset 40
 143:.\Sensor_Processes.c ****     volatile int32   temperatureRaw;
 381              		.loc 1 143 0
 382 0006 0190     		str	r0, [sp, #4]
 383 0008 6401     		lsl	r4, r4, #5
 384              	.LVL45:
 385              	.L37:
 153:.\Sensor_Processes.c **** 
 386              		.loc 1 153 0
 387 000a 1F4F     		ldr	r7, .L41
 388 000c 2720     		mov	r0, #39
 389 000e 391C     		mov	r1, r7
 390 0010 0422     		mov	r2, #4
 391 0012 0023     		mov	r3, #0
 157:.\Sensor_Processes.c ****         
 392              		.loc 1 157 0
 393 0014 8025     		mov	r5, #128
 153:.\Sensor_Processes.c **** 
 394              		.loc 1 153 0
 395 0016 FFF7FEFF 		bl	I2CM_I2CMasterReadBuf
 396              	.LVL46:
 397 001a 3E1C     		mov	r6, r7
 157:.\Sensor_Processes.c ****         
 398              		.loc 1 157 0
 399 001c 6D01     		lsl	r5, r5, #5
 400              	.LVL47:
 401              	.L34:
 157:.\Sensor_Processes.c ****         
 402              		.loc 1 157 0 is_stmt 0 discriminator 2
 403 001e FFF7FEFF 		bl	I2CM_I2CMasterStatus
 404              	.LVL48:
 405 0022 C307     		lsl	r3, r0, #31
 406 0024 04D4     		bmi	.L40
 407              	.LVL49:
 408 0026 013D     		sub	r5, r5, #1
 409              	.LVL50:
 410 0028 ADB2     		uxth	r5, r5
 157:.\Sensor_Processes.c ****         
 411              		.loc 1 157 0 discriminator 3
 412 002a 002D     		cmp	r5, #0
 413 002c F7D1     		bne	.L34
 414 002e 26E0     		b	.L39
 415              	.LVL51:
 416              	.L40:
 159:.\Sensor_Processes.c ****         if ( !to-- ) return -1;
 417              		.loc 1 159 0 is_stmt 1
 418 0030 3D78     		ldrb	r5, [r7]
 419              	.LVL52:
 420 0032 3F23     		mov	r3, #63
 421 0034 2F1C     		mov	r7, r5
 422 0036 013C     		sub	r4, r4, #1
 423              	.LVL53:
 424 0038 A4B2     		uxth	r4, r4
 425 003a 9F43     		bic	r7, r3
 426              	.LVL54:
ARM GAS  C:\Users\ddemidov\AppData\Local\Temp\ccdgWM8Q.s 			page 12


 160:.\Sensor_Processes.c ****     }
 427              		.loc 1 160 0
 428 003c 002C     		cmp	r4, #0
 429 003e 1ED0     		beq	.L39
 151:.\Sensor_Processes.c ****         /* Read data including status */
 430              		.loc 1 151 0
 431 0040 002F     		cmp	r7, #0
 432 0042 E2D1     		bne	.L37
 165:.\Sensor_Processes.c ****     temperatureRaw = temperatureRaw + (Sensor_Raw.temperatureADClow >>2);  
 433              		.loc 1 165 0
 434 0044 B378     		ldrb	r3, [r6, #2]
 169:.\Sensor_Processes.c ****     data->Humidity = HumidityCalcuation(humidityRaw);
 435              		.loc 1 169 0
 436 0046 2D02     		lsl	r5, r5, #8
 165:.\Sensor_Processes.c ****     temperatureRaw = temperatureRaw + (Sensor_Raw.temperatureADClow >>2);  
 437              		.loc 1 165 0
 438 0048 9B01     		lsl	r3, r3, #6
 439 004a 0293     		str	r3, [sp, #8]
 166:.\Sensor_Processes.c ****     data->Temperature = TemperatureCalcuation(temperatureRaw);
 440              		.loc 1 166 0
 441 004c F378     		ldrb	r3, [r6, #3]
 442 004e 029A     		ldr	r2, [sp, #8]
 443 0050 9B08     		lsr	r3, r3, #2
 444 0052 D318     		add	r3, r2, r3
 445 0054 0293     		str	r3, [sp, #8]
 167:.\Sensor_Processes.c **** 
 446              		.loc 1 167 0
 447 0056 0298     		ldr	r0, [sp, #8]
 448 0058 FFF7FEFF 		bl	TemperatureCalcuation
 449              	.LVL55:
 450 005c 019B     		ldr	r3, [sp, #4]
 451              	.LBB4:
 452              	.LBB5:
 185:.\Sensor_Processes.c **** 
 186:.\Sensor_Processes.c **** /*************************************************************************/
 187:.\Sensor_Processes.c **** 
 188:.\Sensor_Processes.c **** /* Humidity Calcuation */
 189:.\Sensor_Processes.c **** 
 190:.\Sensor_Processes.c **** uint8 HumidityCalcuation (uint32 Humidity_ADC) {
 191:.\Sensor_Processes.c ****     uint32 Humidity;
 192:.\Sensor_Processes.c ****     Humidity = ((Humidity_ADC <<10) * HUMIDITY_MULTIPLIER) / DIVISOR;
 453              		.loc 1 192 0
 454 005e 0B49     		ldr	r1, .L41+4
 455              	.LBE5:
 456              	.LBE4:
 167:.\Sensor_Processes.c **** 
 457              		.loc 1 167 0
 458 0060 5870     		strb	r0, [r3, #1]
 169:.\Sensor_Processes.c ****     data->Humidity = HumidityCalcuation(humidityRaw);
 459              		.loc 1 169 0
 460 0062 7378     		ldrb	r3, [r6, #1]
 461 0064 ED18     		add	r5, r5, r3
 462              	.LBB9:
 463              	.LBB6:
 464              		.loc 1 192 0
 465 0066 C823     		mov	r3, #200
 466              	.LBE6:
ARM GAS  C:\Users\ddemidov\AppData\Local\Temp\ccdgWM8Q.s 			page 13


 467              	.LBE9:
 169:.\Sensor_Processes.c ****     data->Humidity = HumidityCalcuation(humidityRaw);
 468              		.loc 1 169 0
 469 0068 0395     		str	r5, [sp, #12]
 170:.\Sensor_Processes.c ****     return 0;
 470              		.loc 1 170 0
 471 006a 0398     		ldr	r0, [sp, #12]
 472              	.LVL56:
 473              	.LBB10:
 474              	.LBB7:
 475              		.loc 1 192 0
 476 006c 5B02     		lsl	r3, r3, #9
 477 006e 5843     		mul	r0, r3
 478              	.LVL57:
 479 0070 FFF7FEFF 		bl	__aeabi_uidiv
 480              	.LVL58:
 481              	.LBE7:
 482              	.LBE10:
 170:.\Sensor_Processes.c ****     return 0;
 483              		.loc 1 170 0
 484 0074 019B     		ldr	r3, [sp, #4]
 485              	.LBB11:
 486              	.LBB8:
 193:.\Sensor_Processes.c ****     return ((uint8) (Humidity >> 10));
 487              		.loc 1 193 0
 488 0076 800A     		lsr	r0, r0, #10
 489              	.LBE8:
 490              	.LBE11:
 170:.\Sensor_Processes.c ****     return 0;
 491              		.loc 1 170 0
 492 0078 9870     		strb	r0, [r3, #2]
 171:.\Sensor_Processes.c **** }
 493              		.loc 1 171 0
 494 007a 381C     		mov	r0, r7
 495 007c 01E0     		b	.L35
 496              	.LVL59:
 497              	.L39:
 157:.\Sensor_Processes.c ****         
 498              		.loc 1 157 0
 499 007e 0120     		mov	r0, #1
 500 0080 4042     		neg	r0, r0
 501              	.L35:
 172:.\Sensor_Processes.c **** 
 502              		.loc 1 172 0
 503 0082 05B0     		add	sp, sp, #20
 504              		@ sp needed
 505 0084 F0BD     		pop	{r4, r5, r6, r7, pc}
 506              	.L42:
 507 0086 C046     		.align	2
 508              	.L41:
 509 0088 00000000 		.word	Sensor_Raw
 510 008c FE3F0000 		.word	16382
 511              		.cfi_endproc
 512              	.LFE66:
 513              		.size	Read_Temp_and_Humidity, .-Read_Temp_and_Humidity
 514              		.section	.text.HumidityCalcuation,"ax",%progbits
 515              		.align	1
ARM GAS  C:\Users\ddemidov\AppData\Local\Temp\ccdgWM8Q.s 			page 14


 516              		.global	HumidityCalcuation
 517              		.code	16
 518              		.thumb_func
 519              		.type	HumidityCalcuation, %function
 520              	HumidityCalcuation:
 521              	.LFB68:
 190:.\Sensor_Processes.c ****     uint32 Humidity;
 522              		.loc 1 190 0
 523              		.cfi_startproc
 524              	.LVL60:
 525 0000 08B5     		push	{r3, lr}
 526              		.cfi_def_cfa_offset 8
 527              		.cfi_offset 3, -8
 528              		.cfi_offset 14, -4
 192:.\Sensor_Processes.c ****     return ((uint8) (Humidity >> 10));
 529              		.loc 1 192 0
 530 0002 C823     		mov	r3, #200
 531 0004 5B02     		lsl	r3, r3, #9
 532 0006 5843     		mul	r0, r3
 533              	.LVL61:
 534 0008 0249     		ldr	r1, .L44
 535 000a FFF7FEFF 		bl	__aeabi_uidiv
 536              	.LVL62:
 537              		.loc 1 193 0
 538 000e 800A     		lsr	r0, r0, #10
 539 0010 C0B2     		uxtb	r0, r0
 194:.\Sensor_Processes.c **** }
 540              		.loc 1 194 0
 541              		@ sp needed
 542 0012 08BD     		pop	{r3, pc}
 543              	.L45:
 544              		.align	2
 545              	.L44:
 546 0014 FE3F0000 		.word	16382
 547              		.cfi_endproc
 548              	.LFE68:
 549              		.size	HumidityCalcuation, .-HumidityCalcuation
 550              		.section	.text.Start_Airflow_Measurement,"ax",%progbits
 551              		.align	1
 552              		.global	Start_Airflow_Measurement
 553              		.code	16
 554              		.thumb_func
 555              		.type	Start_Airflow_Measurement, %function
 556              	Start_Airflow_Measurement:
 557              	.LFB69:
 195:.\Sensor_Processes.c **** 
 196:.\Sensor_Processes.c **** /******************************************************************/
 197:.\Sensor_Processes.c **** 
 198:.\Sensor_Processes.c **** int Start_Airflow_Measurement(void) {
 558              		.loc 1 198 0
 559              		.cfi_startproc
 560 0000 10B5     		push	{r4, lr}
 561              		.cfi_def_cfa_offset 8
 562              		.cfi_offset 4, -8
 563              		.cfi_offset 14, -4
 564              	.L50:
 565              	.LVL63:
ARM GAS  C:\Users\ddemidov\AppData\Local\Temp\ccdgWM8Q.s 			page 15


 199:.\Sensor_Processes.c ****     int i;
 200:.\Sensor_Processes.c ****     /* Start Measurement by reading 3 words from Airflow Sensor - 4th transfer and everyone afterwa
 201:.\Sensor_Processes.c ****     for (i = 0; i < 3 ; i++) {
 202:.\Sensor_Processes.c ****         I2CM_I2CMasterReadBuf(AIRFLOW_I2C_ADDRESS, &Sensor_Raw.AirflowADChigh, 2, I2CM_I2C_MODE_COM
 566              		.loc 1 202 0
 567 0002 4920     		mov	r0, #73
 568 0004 0849     		ldr	r1, .L53
 569 0006 0222     		mov	r2, #2
 570 0008 0023     		mov	r3, #0
 571 000a FFF7FEFF 		bl	I2CM_I2CMasterReadBuf
 572              	.LVL64:
 203:.\Sensor_Processes.c ****         /* Waits until master completes write transfer */
 204:.\Sensor_Processes.c ****         i = I2C_TIMEOUT;
 573              		.loc 1 204 0
 574 000e 074C     		ldr	r4, .L53+4
 575              	.LVL65:
 576              	.L47:
 205:.\Sensor_Processes.c ****         while (0u == (I2CM_I2CMasterStatus() & I2CM_I2C_MSTAT_WR_CMPLT)) if(!i--) return -1;
 577              		.loc 1 205 0 discriminator 2
 578 0010 FFF7FEFF 		bl	I2CM_I2CMasterStatus
 579              	.LVL66:
 580 0014 8307     		lsl	r3, r0, #30
 581 0016 03D4     		bmi	.L52
 582              	.LVL67:
 583              		.loc 1 205 0 is_stmt 0 discriminator 3
 584 0018 013C     		sub	r4, r4, #1
 585 001a F9D2     		bcs	.L47
 586              	.LVL68:
 587              		.loc 1 205 0
 588 001c 201C     		mov	r0, r4
 589 001e 02E0     		b	.L48
 590              	.L52:
 591              	.LVL69:
 201:.\Sensor_Processes.c ****         I2CM_I2CMasterReadBuf(AIRFLOW_I2C_ADDRESS, &Sensor_Raw.AirflowADChigh, 2, I2CM_I2C_MODE_COM
 592              		.loc 1 201 0 is_stmt 1
 593 0020 012C     		cmp	r4, #1
 594 0022 EEDD     		ble	.L50
 206:.\Sensor_Processes.c ****     }
 207:.\Sensor_Processes.c ****     return 0;
 595              		.loc 1 207 0
 596 0024 0020     		mov	r0, #0
 597              	.LVL70:
 598              	.L48:
 208:.\Sensor_Processes.c ****  }
 599              		.loc 1 208 0
 600              		@ sp needed
 601 0026 10BD     		pop	{r4, pc}
 602              	.L54:
 603              		.align	2
 604              	.L53:
 605 0028 04000000 		.word	Sensor_Raw+4
 606 002c FF0F0000 		.word	4095
 607              		.cfi_endproc
 608              	.LFE69:
 609              		.size	Start_Airflow_Measurement, .-Start_Airflow_Measurement
 610              		.global	__aeabi_i2f
 611              		.global	__aeabi_fmul
ARM GAS  C:\Users\ddemidov\AppData\Local\Temp\ccdgWM8Q.s 			page 16


 612              		.global	__aeabi_fsub
 613              		.global	__aeabi_f2d
 614              		.global	__aeabi_ddiv
 615              		.global	__aeabi_d2f
 616              		.global	__aeabi_f2iz
 617              		.section	.text.Read_Airflow,"ax",%progbits
 618              		.align	1
 619              		.global	Read_Airflow
 620              		.code	16
 621              		.thumb_func
 622              		.type	Read_Airflow, %function
 623              	Read_Airflow:
 624              	.LFB70:
 209:.\Sensor_Processes.c **** 
 210:.\Sensor_Processes.c **** /********************************************************************/
 211:.\Sensor_Processes.c **** 
 212:.\Sensor_Processes.c **** int Read_Airflow(Sensor_Data_t *data) {
 625              		.loc 1 212 0
 626              		.cfi_startproc
 627              	.LVL71:
 628 0000 38B5     		push	{r3, r4, r5, lr}
 629              		.cfi_def_cfa_offset 16
 630              		.cfi_offset 3, -16
 631              		.cfi_offset 4, -12
 632              		.cfi_offset 5, -8
 633              		.cfi_offset 14, -4
 213:.\Sensor_Processes.c ****     int32  airflowRaw;
 214:.\Sensor_Processes.c ****     float   airflowCalc;
 215:.\Sensor_Processes.c ****     uint16  i;
 216:.\Sensor_Processes.c **** 
 217:.\Sensor_Processes.c ****     /*  Airflow Ideal Transfer Function
 218:.\Sensor_Processes.c ****         --------------------------------
 219:.\Sensor_Processes.c ****         airflowRaw = 16384 * [0.5 + 0.4 * (Flow Applied/Full Scale Flow)]
 220:.\Sensor_Processes.c ****         Flow Applied = Full Scale Flow * ((airflowRaw/16384) - 0.5]/0.4)    */
 221:.\Sensor_Processes.c **** 
 222:.\Sensor_Processes.c ****     /* Read data  */
 223:.\Sensor_Processes.c ****     I2CM_I2CMasterReadBuf(AIRFLOW_I2C_ADDRESS, &Sensor_Raw.AirflowADChigh, 2,I2CM_I2C_MODE_COMPLETE
 634              		.loc 1 223 0
 635 0002 1949     		ldr	r1, .L61
 212:.\Sensor_Processes.c ****     int32  airflowRaw;
 636              		.loc 1 212 0
 637 0004 051C     		mov	r5, r0
 638              		.loc 1 223 0
 639 0006 0222     		mov	r2, #2
 640 0008 4920     		mov	r0, #73
 641              	.LVL72:
 642 000a 0023     		mov	r3, #0
 224:.\Sensor_Processes.c **** 
 225:.\Sensor_Processes.c ****     /* Waits until master complete read transfer */
 226:.\Sensor_Processes.c ****     i = I2C_TIMEOUT;
 227:.\Sensor_Processes.c ****     while (0u == (I2CM_I2CMasterStatus() & I2CM_I2C_MSTAT_RD_CMPLT)) if(!i--) return -1;
 643              		.loc 1 227 0
 644 000c 8024     		mov	r4, #128
 223:.\Sensor_Processes.c **** 
 645              		.loc 1 223 0
 646 000e FFF7FEFF 		bl	I2CM_I2CMasterReadBuf
 647              	.LVL73:
ARM GAS  C:\Users\ddemidov\AppData\Local\Temp\ccdgWM8Q.s 			page 17


 648              		.loc 1 227 0
 649 0012 6401     		lsl	r4, r4, #5
 650              	.LVL74:
 651              	.L56:
 652              		.loc 1 227 0 is_stmt 0 discriminator 2
 653 0014 FFF7FEFF 		bl	I2CM_I2CMasterStatus
 654              	.LVL75:
 655 0018 C307     		lsl	r3, r0, #31
 656 001a 06D4     		bmi	.L60
 657              	.LVL76:
 658 001c 013C     		sub	r4, r4, #1
 659              	.LVL77:
 660 001e A4B2     		uxth	r4, r4
 661              		.loc 1 227 0 discriminator 3
 662 0020 002C     		cmp	r4, #0
 663 0022 F7D1     		bne	.L56
 664              		.loc 1 227 0
 665 0024 0120     		mov	r0, #1
 666 0026 4042     		neg	r0, r0
 667 0028 1DE0     		b	.L57
 668              	.LVL78:
 669              	.L60:
 228:.\Sensor_Processes.c ****  
 229:.\Sensor_Processes.c ****     /* Convert data read integer and perform calculation */
 230:.\Sensor_Processes.c **** 
 231:.\Sensor_Processes.c ****     airflowRaw = (Sensor_Raw.AirflowADChigh << 8) | Sensor_Raw.AirflowADClow; 
 670              		.loc 1 231 0 is_stmt 1
 671 002a 104B     		ldr	r3, .L61+4
 672 002c 1879     		ldrb	r0, [r3, #4]
 673 002e 5B79     		ldrb	r3, [r3, #5]
 674 0030 0002     		lsl	r0, r0, #8
 675 0032 1843     		orr	r0, r3
 232:.\Sensor_Processes.c ****     airflowCalc = ((float)airflowRaw / MAX_AIRFLOW_COUNTS);
 676              		.loc 1 232 0
 677 0034 FFF7FEFF 		bl	__aeabi_i2f
 678              	.LVL79:
 679 0038 E221     		mov	r1, #226
 680 003a 8905     		lsl	r1, r1, #22
 681 003c FFF7FEFF 		bl	__aeabi_fmul
 682              	.LVL80:
 233:.\Sensor_Processes.c ****     airflowCalc = airflowCalc -0.5;
 683              		.loc 1 233 0
 684 0040 FC21     		mov	r1, #252
 685 0042 8905     		lsl	r1, r1, #22
 686 0044 FFF7FEFF 		bl	__aeabi_fsub
 687              	.LVL81:
 234:.\Sensor_Processes.c ****     airflowCalc = airflowCalc * FULL_SCALE_AIRFLOW / 0.4;
 688              		.loc 1 234 0
 689 0048 0949     		ldr	r1, .L61+8
 690 004a FFF7FEFF 		bl	__aeabi_fmul
 691              	.LVL82:
 692 004e FFF7FEFF 		bl	__aeabi_f2d
 693              	.LVL83:
 694 0052 084A     		ldr	r2, .L61+12
 695 0054 084B     		ldr	r3, .L61+16
 696 0056 FFF7FEFF 		bl	__aeabi_ddiv
 697              	.LVL84:
ARM GAS  C:\Users\ddemidov\AppData\Local\Temp\ccdgWM8Q.s 			page 18


 698 005a FFF7FEFF 		bl	__aeabi_d2f
 699              	.LVL85:
 235:.\Sensor_Processes.c ****     data->Air_Flow = (int16)airflowCalc;
 700              		.loc 1 235 0
 701 005e FFF7FEFF 		bl	__aeabi_f2iz
 702              	.LVL86:
 703 0062 E880     		strh	r0, [r5, #6]
 236:.\Sensor_Processes.c ****     return 0;
 704              		.loc 1 236 0
 705 0064 0020     		mov	r0, #0
 706              	.LVL87:
 707              	.L57:
 237:.\Sensor_Processes.c **** } /* End Read_Airflow Subroutine */
 708              		.loc 1 237 0
 709              		@ sp needed
 710              	.LVL88:
 711 0066 38BD     		pop	{r3, r4, r5, pc}
 712              	.L62:
 713              		.align	2
 714              	.L61:
 715 0068 04000000 		.word	Sensor_Raw+4
 716 006c 00000000 		.word	Sensor_Raw
 717 0070 00004843 		.word	1128792064
 718 0074 9A999999 		.word	-1717986918
 719 0078 9999D93F 		.word	1071225241
 720              		.cfi_endproc
 721              	.LFE70:
 722              		.size	Read_Airflow, .-Read_Airflow
 723              		.global	__aeabi_fdiv
 724              		.global	__aeabi_fadd
 725              		.section	.text.Pressure_Calcuation,"ax",%progbits
 726              		.align	1
 727              		.global	Pressure_Calcuation
 728              		.code	16
 729              		.thumb_func
 730              		.type	Pressure_Calcuation, %function
 731              	Pressure_Calcuation:
 732              	.LFB72:
 238:.\Sensor_Processes.c **** 
 239:.\Sensor_Processes.c **** /********************************************************************/
 240:.\Sensor_Processes.c **** 
 241:.\Sensor_Processes.c **** /********************************************************************/
 242:.\Sensor_Processes.c **** 
 243:.\Sensor_Processes.c **** int Read_Pressure(Sensor_Data_t *data) {
 244:.\Sensor_Processes.c ****     int32   pressureRaw;
 245:.\Sensor_Processes.c ****     uint8   dataStale;
 246:.\Sensor_Processes.c ****     uint16  i, to = I2C_TIMEOUT;
 247:.\Sensor_Processes.c **** 
 248:.\Sensor_Processes.c ****     /* Wait for conversion complete */
 249:.\Sensor_Processes.c ****     dataStale = 1;
 250:.\Sensor_Processes.c ****     while ( dataStale ) {
 251:.\Sensor_Processes.c ****         /* Read data including status */
 252:.\Sensor_Processes.c ****         I2CM_I2CMasterReadBuf(PRESSURE_I2C_ADDRESS, &Sensor_Raw.pressureADChigh, 2, I2CM_I2C_MODE_C
 253:.\Sensor_Processes.c **** 
 254:.\Sensor_Processes.c ****         /* Waits until master complete read transfer */
 255:.\Sensor_Processes.c ****         i = I2C_TIMEOUT;
 256:.\Sensor_Processes.c ****         while (0u == (I2CM_I2CMasterStatus() & I2CM_I2C_MSTAT_RD_CMPLT)) if(!i--) return -1;
ARM GAS  C:\Users\ddemidov\AppData\Local\Temp\ccdgWM8Q.s 			page 19


 257:.\Sensor_Processes.c ****         dataStale = Sensor_Raw.pressureADChigh & PRESSURE_STATUS_MASK;
 258:.\Sensor_Processes.c ****         if ( !to-- ) return -2;
 259:.\Sensor_Processes.c ****     }
 260:.\Sensor_Processes.c ****     /* Convert two bytes in an int16 for calculations */
 261:.\Sensor_Processes.c ****     pressureRaw = ((Sensor_Raw.pressureADChigh & PRESSURE_DATA_MASK) << 8) + Sensor_Raw.pressureADC
 262:.\Sensor_Processes.c ****     if (data) data->Pressure = Pressure_Calcuation(pressureRaw);
 263:.\Sensor_Processes.c ****     return 0;
 264:.\Sensor_Processes.c **** }
 265:.\Sensor_Processes.c **** 
 266:.\Sensor_Processes.c **** /********************************************************************/
 267:.\Sensor_Processes.c **** 
 268:.\Sensor_Processes.c **** /* Pressure Calcuation */
 269:.\Sensor_Processes.c **** int16 Pressure_Calcuation (int32 pressureRaw) {
 733              		.loc 1 269 0
 734              		.cfi_startproc
 735              	.LVL89:
 736 0000 08B5     		push	{r3, lr}
 737              		.cfi_def_cfa_offset 8
 738              		.cfi_offset 3, -8
 739              		.cfi_offset 14, -4
 270:.\Sensor_Processes.c ****     float Pressure;
 271:.\Sensor_Processes.c ****     Pressure = (pressureRaw - PRESSURE_OUT_MIN) * (PRESSURE_MAX - PRESSURE_MIN);
 740              		.loc 1 271 0
 741 0002 084B     		ldr	r3, .L64
 272:.\Sensor_Processes.c ****     Pressure = Pressure / (OUTPUT_COUNTS_DIFF);
 273:.\Sensor_Processes.c ****     Pressure = Pressure + PRESSURE_MIN;
 274:.\Sensor_Processes.c ****     Pressure = Pressure * 10000;
 275:.\Sensor_Processes.c ****     return ((int16)Pressure);
 276:.\Sensor_Processes.c **** }
 742              		.loc 1 276 0
 743              		@ sp needed
 271:.\Sensor_Processes.c ****     Pressure = Pressure / (OUTPUT_COUNTS_DIFF);
 744              		.loc 1 271 0
 745 0004 C018     		add	r0, r0, r3
 746              	.LVL90:
 747 0006 FFF7FEFF 		bl	__aeabi_i2f
 748              	.LVL91:
 272:.\Sensor_Processes.c ****     Pressure = Pressure / (OUTPUT_COUNTS_DIFF);
 749              		.loc 1 272 0
 750 000a 0749     		ldr	r1, .L64+4
 751 000c FFF7FEFF 		bl	__aeabi_fdiv
 752              	.LVL92:
 273:.\Sensor_Processes.c ****     Pressure = Pressure * 10000;
 753              		.loc 1 273 0
 754 0010 0021     		mov	r1, #0
 755 0012 FFF7FEFF 		bl	__aeabi_fadd
 756              	.LVL93:
 274:.\Sensor_Processes.c ****     return ((int16)Pressure);
 757              		.loc 1 274 0
 758 0016 0549     		ldr	r1, .L64+8
 759 0018 FFF7FEFF 		bl	__aeabi_fmul
 760              	.LVL94:
 275:.\Sensor_Processes.c **** }
 761              		.loc 1 275 0
 762 001c FFF7FEFF 		bl	__aeabi_f2iz
 763              	.LVL95:
 764 0020 00B2     		sxth	r0, r0
ARM GAS  C:\Users\ddemidov\AppData\Local\Temp\ccdgWM8Q.s 			page 20


 765              		.loc 1 276 0
 766 0022 08BD     		pop	{r3, pc}
 767              	.L65:
 768              		.align	2
 769              	.L64:
 770 0024 9AF9FFFF 		.word	-1638
 771 0028 00CC4C46 		.word	1179438080
 772 002c 00401C46 		.word	1176256512
 773              		.cfi_endproc
 774              	.LFE72:
 775              		.size	Pressure_Calcuation, .-Pressure_Calcuation
 776              		.section	.text.Read_Pressure,"ax",%progbits
 777              		.align	1
 778              		.global	Read_Pressure
 779              		.code	16
 780              		.thumb_func
 781              		.type	Read_Pressure, %function
 782              	Read_Pressure:
 783              	.LFB71:
 243:.\Sensor_Processes.c ****     int32   pressureRaw;
 784              		.loc 1 243 0
 785              		.cfi_startproc
 786              	.LVL96:
 787 0000 70B5     		push	{r4, r5, r6, lr}
 788              		.cfi_def_cfa_offset 16
 789              		.cfi_offset 4, -16
 790              		.cfi_offset 5, -12
 791              		.cfi_offset 6, -8
 792              		.cfi_offset 14, -4
 243:.\Sensor_Processes.c ****     int32   pressureRaw;
 793              		.loc 1 243 0
 794 0002 8024     		mov	r4, #128
 795 0004 061C     		mov	r6, r0
 796 0006 6401     		lsl	r4, r4, #5
 797              	.LVL97:
 798              	.L70:
 252:.\Sensor_Processes.c **** 
 799              		.loc 1 252 0
 800 0008 3820     		mov	r0, #56
 801 000a 1549     		ldr	r1, .L76
 802 000c 0222     		mov	r2, #2
 803 000e 0023     		mov	r3, #0
 256:.\Sensor_Processes.c ****         dataStale = Sensor_Raw.pressureADChigh & PRESSURE_STATUS_MASK;
 804              		.loc 1 256 0
 805 0010 8025     		mov	r5, #128
 252:.\Sensor_Processes.c **** 
 806              		.loc 1 252 0
 807 0012 FFF7FEFF 		bl	I2CM_I2CMasterReadBuf
 808              	.LVL98:
 256:.\Sensor_Processes.c ****         dataStale = Sensor_Raw.pressureADChigh & PRESSURE_STATUS_MASK;
 809              		.loc 1 256 0
 810 0016 6D01     		lsl	r5, r5, #5
 811              	.LVL99:
 812              	.L67:
 256:.\Sensor_Processes.c ****         dataStale = Sensor_Raw.pressureADChigh & PRESSURE_STATUS_MASK;
 813              		.loc 1 256 0 is_stmt 0 discriminator 2
 814 0018 FFF7FEFF 		bl	I2CM_I2CMasterStatus
ARM GAS  C:\Users\ddemidov\AppData\Local\Temp\ccdgWM8Q.s 			page 21


 815              	.LVL100:
 816 001c C307     		lsl	r3, r0, #31
 817 001e 05D4     		bmi	.L75
 818              	.LVL101:
 819 0020 013D     		sub	r5, r5, #1
 820              	.LVL102:
 821 0022 ADB2     		uxth	r5, r5
 256:.\Sensor_Processes.c ****         dataStale = Sensor_Raw.pressureADChigh & PRESSURE_STATUS_MASK;
 822              		.loc 1 256 0 discriminator 3
 823 0024 002D     		cmp	r5, #0
 824 0026 F7D1     		bne	.L67
 256:.\Sensor_Processes.c ****         dataStale = Sensor_Raw.pressureADChigh & PRESSURE_STATUS_MASK;
 825              		.loc 1 256 0
 826 0028 0123     		mov	r3, #1
 827 002a 15E0     		b	.L74
 828              	.LVL103:
 829              	.L75:
 257:.\Sensor_Processes.c ****         if ( !to-- ) return -2;
 830              		.loc 1 257 0 is_stmt 1
 831 002c 0D4B     		ldr	r3, .L76+4
 832 002e 3F22     		mov	r2, #63
 833 0030 9879     		ldrb	r0, [r3, #6]
 834 0032 013C     		sub	r4, r4, #1
 835              	.LVL104:
 836 0034 051C     		mov	r5, r0
 837              	.LVL105:
 838 0036 A4B2     		uxth	r4, r4
 839 0038 9543     		bic	r5, r2
 840              	.LVL106:
 258:.\Sensor_Processes.c ****     }
 841              		.loc 1 258 0
 842 003a 002C     		cmp	r4, #0
 843 003c 0BD0     		beq	.L72
 250:.\Sensor_Processes.c ****         /* Read data including status */
 844              		.loc 1 250 0
 845 003e 002D     		cmp	r5, #0
 846 0040 E2D1     		bne	.L70
 261:.\Sensor_Processes.c ****     if (data) data->Pressure = Pressure_Calcuation(pressureRaw);
 847              		.loc 1 261 0
 848 0042 DB79     		ldrb	r3, [r3, #7]
 849 0044 0002     		lsl	r0, r0, #8
 850 0046 C018     		add	r0, r0, r3
 851              	.LVL107:
 263:.\Sensor_Processes.c **** }
 852              		.loc 1 263 0
 853 0048 331E     		sub	r3, r6, #0
 262:.\Sensor_Processes.c ****     return 0;
 854              		.loc 1 262 0
 855 004a 06D0     		beq	.L68
 856              	.LVL108:
 262:.\Sensor_Processes.c ****     return 0;
 857              		.loc 1 262 0 is_stmt 0 discriminator 1
 858 004c FFF7FEFF 		bl	Pressure_Calcuation
 859              	.LVL109:
 263:.\Sensor_Processes.c **** }
 860              		.loc 1 263 0 is_stmt 1 discriminator 1
 861 0050 2B1C     		mov	r3, r5
ARM GAS  C:\Users\ddemidov\AppData\Local\Temp\ccdgWM8Q.s 			page 22


 262:.\Sensor_Processes.c ****     return 0;
 862              		.loc 1 262 0 discriminator 1
 863 0052 B080     		strh	r0, [r6, #4]
 864 0054 01E0     		b	.L68
 865              	.L72:
 258:.\Sensor_Processes.c ****     }
 866              		.loc 1 258 0
 867 0056 0223     		mov	r3, #2
 868              	.LVL110:
 869              	.L74:
 870 0058 5B42     		neg	r3, r3
 871              	.L68:
 264:.\Sensor_Processes.c **** 
 872              		.loc 1 264 0
 873 005a 181C     		mov	r0, r3
 874              		@ sp needed
 875              	.LVL111:
 876 005c 70BD     		pop	{r4, r5, r6, pc}
 877              	.L77:
 878 005e C046     		.align	2
 879              	.L76:
 880 0060 06000000 		.word	Sensor_Raw+6
 881 0064 00000000 		.word	Sensor_Raw
 882              		.cfi_endproc
 883              	.LFE71:
 884              		.size	Read_Pressure, .-Read_Pressure
 885              		.comm	Sensor_Raw,8,1
 886              		.text
 887              	.Letext0:
 888              		.file 2 "Generated_Source\\PSoC4/cytypes.h"
 889              		.file 3 "..\\acn-sdk-c\\include/json/telemetry.h"
 890              		.file 4 "Generated_Source\\PSoC4/I2CM_I2C.h"