ARM GAS  C:\Users\ddemidov\AppData\Local\Temp\ccKvU8Ns.s 			page 1


   1              		.cpu cortex-m0
   2              		.fpu softvfp
   3              		.eabi_attribute 20, 1
   4              		.eabi_attribute 21, 1
   5              		.eabi_attribute 23, 3
   6              		.eabi_attribute 24, 1
   7              		.eabi_attribute 25, 1
   8              		.eabi_attribute 26, 1
   9              		.eabi_attribute 30, 4
  10              		.eabi_attribute 34, 0
  11              		.eabi_attribute 18, 4
  12              		.code	16
  13              		.file	"sha256.c"
  14              		.text
  15              	.Ltext0:
  16              		.cfi_sections	.debug_frame
  17              		.section	.text.ByteReverseWords,"ax",%progbits
  18              		.align	1
  19              		.code	16
  20              		.thumb_func
  21              		.type	ByteReverseWords, %function
  22              	ByteReverseWords:
  23              	.LFB3:
  24              		.file 1 "..\\acn-sdk-c\\src\\wolfSSL/wolfcrypt/src/misc.c"
   1:..\acn-sdk-c\src\wolfSSL/wolfcrypt/src/misc.c **** /* misc.c
   2:..\acn-sdk-c\src\wolfSSL/wolfcrypt/src/misc.c ****  *
   3:..\acn-sdk-c\src\wolfSSL/wolfcrypt/src/misc.c ****  * Copyright (C) 2006-2016 wolfSSL Inc.
   4:..\acn-sdk-c\src\wolfSSL/wolfcrypt/src/misc.c ****  *
   5:..\acn-sdk-c\src\wolfSSL/wolfcrypt/src/misc.c ****  * This file is part of wolfSSL.
   6:..\acn-sdk-c\src\wolfSSL/wolfcrypt/src/misc.c ****  *
   7:..\acn-sdk-c\src\wolfSSL/wolfcrypt/src/misc.c ****  * wolfSSL is free software; you can redistribute it and/or modify
   8:..\acn-sdk-c\src\wolfSSL/wolfcrypt/src/misc.c ****  * it under the terms of the GNU General Public License as published by
   9:..\acn-sdk-c\src\wolfSSL/wolfcrypt/src/misc.c ****  * the Free Software Foundation; either version 2 of the License, or
  10:..\acn-sdk-c\src\wolfSSL/wolfcrypt/src/misc.c ****  * (at your option) any later version.
  11:..\acn-sdk-c\src\wolfSSL/wolfcrypt/src/misc.c ****  *
  12:..\acn-sdk-c\src\wolfSSL/wolfcrypt/src/misc.c ****  * wolfSSL is distributed in the hope that it will be useful,
  13:..\acn-sdk-c\src\wolfSSL/wolfcrypt/src/misc.c ****  * but WITHOUT ANY WARRANTY; without even the implied warranty of
  14:..\acn-sdk-c\src\wolfSSL/wolfcrypt/src/misc.c ****  * MERCHANTABILITY or FITNESS FOR A PARTICULAR PURPOSE.  See the
  15:..\acn-sdk-c\src\wolfSSL/wolfcrypt/src/misc.c ****  * GNU General Public License for more details.
  16:..\acn-sdk-c\src\wolfSSL/wolfcrypt/src/misc.c ****  *
  17:..\acn-sdk-c\src\wolfSSL/wolfcrypt/src/misc.c ****  * You should have received a copy of the GNU General Public License
  18:..\acn-sdk-c\src\wolfSSL/wolfcrypt/src/misc.c ****  * along with this program; if not, write to the Free Software
  19:..\acn-sdk-c\src\wolfSSL/wolfcrypt/src/misc.c ****  * Foundation, Inc., 51 Franklin Street, Fifth Floor, Boston, MA 02110-1335, USA
  20:..\acn-sdk-c\src\wolfSSL/wolfcrypt/src/misc.c ****  */
  21:..\acn-sdk-c\src\wolfSSL/wolfcrypt/src/misc.c **** 
  22:..\acn-sdk-c\src\wolfSSL/wolfcrypt/src/misc.c **** 
  23:..\acn-sdk-c\src\wolfSSL/wolfcrypt/src/misc.c **** #ifdef HAVE_CONFIG_H
  24:..\acn-sdk-c\src\wolfSSL/wolfcrypt/src/misc.c ****     #include <config.h>
  25:..\acn-sdk-c\src\wolfSSL/wolfcrypt/src/misc.c **** #endif
  26:..\acn-sdk-c\src\wolfSSL/wolfcrypt/src/misc.c **** 
  27:..\acn-sdk-c\src\wolfSSL/wolfcrypt/src/misc.c **** #include <wolfssl/wolfcrypt/settings.h>
  28:..\acn-sdk-c\src\wolfSSL/wolfcrypt/src/misc.c **** 
  29:..\acn-sdk-c\src\wolfSSL/wolfcrypt/src/misc.c **** #ifndef WOLF_CRYPT_MISC_C
  30:..\acn-sdk-c\src\wolfSSL/wolfcrypt/src/misc.c **** #define WOLF_CRYPT_MISC_C
  31:..\acn-sdk-c\src\wolfSSL/wolfcrypt/src/misc.c **** 
  32:..\acn-sdk-c\src\wolfSSL/wolfcrypt/src/misc.c **** #include <wolfssl/wolfcrypt/misc.h>
  33:..\acn-sdk-c\src\wolfSSL/wolfcrypt/src/misc.c **** 
ARM GAS  C:\Users\ddemidov\AppData\Local\Temp\ccKvU8Ns.s 			page 2


  34:..\acn-sdk-c\src\wolfSSL/wolfcrypt/src/misc.c **** /* inlining these functions is a huge speed increase and a small size decrease, 
  35:..\acn-sdk-c\src\wolfSSL/wolfcrypt/src/misc.c ****    because the functions are smaller than function call setup/cleanup, e.g.,
  36:..\acn-sdk-c\src\wolfSSL/wolfcrypt/src/misc.c ****    md5 benchmark is twice as fast with inline.  If you don't want it, then
  37:..\acn-sdk-c\src\wolfSSL/wolfcrypt/src/misc.c ****    define NO_INLINE and compile this file into wolfssl, otherwise it's used as
  38:..\acn-sdk-c\src\wolfSSL/wolfcrypt/src/misc.c ****    a source header
  39:..\acn-sdk-c\src\wolfSSL/wolfcrypt/src/misc.c ****  */
  40:..\acn-sdk-c\src\wolfSSL/wolfcrypt/src/misc.c **** 
  41:..\acn-sdk-c\src\wolfSSL/wolfcrypt/src/misc.c **** #ifdef NO_INLINE
  42:..\acn-sdk-c\src\wolfSSL/wolfcrypt/src/misc.c ****     #define STATIC
  43:..\acn-sdk-c\src\wolfSSL/wolfcrypt/src/misc.c **** #else
  44:..\acn-sdk-c\src\wolfSSL/wolfcrypt/src/misc.c ****     #define STATIC static
  45:..\acn-sdk-c\src\wolfSSL/wolfcrypt/src/misc.c **** #endif
  46:..\acn-sdk-c\src\wolfSSL/wolfcrypt/src/misc.c **** 
  47:..\acn-sdk-c\src\wolfSSL/wolfcrypt/src/misc.c **** 
  48:..\acn-sdk-c\src\wolfSSL/wolfcrypt/src/misc.c **** #ifdef INTEL_INTRINSICS
  49:..\acn-sdk-c\src\wolfSSL/wolfcrypt/src/misc.c **** 
  50:..\acn-sdk-c\src\wolfSSL/wolfcrypt/src/misc.c ****     #include <stdlib.h>      /* get intrinsic definitions */
  51:..\acn-sdk-c\src\wolfSSL/wolfcrypt/src/misc.c **** 
  52:..\acn-sdk-c\src\wolfSSL/wolfcrypt/src/misc.c ****     /* for non visual studio probably need no long version, 32 bit only
  53:..\acn-sdk-c\src\wolfSSL/wolfcrypt/src/misc.c ****      * i.e., _rotl and _rotr */
  54:..\acn-sdk-c\src\wolfSSL/wolfcrypt/src/misc.c ****     #pragma intrinsic(_lrotl, _lrotr)
  55:..\acn-sdk-c\src\wolfSSL/wolfcrypt/src/misc.c **** 
  56:..\acn-sdk-c\src\wolfSSL/wolfcrypt/src/misc.c ****     STATIC INLINE word32 rotlFixed(word32 x, word32 y)
  57:..\acn-sdk-c\src\wolfSSL/wolfcrypt/src/misc.c ****     {
  58:..\acn-sdk-c\src\wolfSSL/wolfcrypt/src/misc.c ****         return y ? _lrotl(x, y) : x;
  59:..\acn-sdk-c\src\wolfSSL/wolfcrypt/src/misc.c ****     }
  60:..\acn-sdk-c\src\wolfSSL/wolfcrypt/src/misc.c **** 
  61:..\acn-sdk-c\src\wolfSSL/wolfcrypt/src/misc.c ****     STATIC INLINE word32 rotrFixed(word32 x, word32 y)
  62:..\acn-sdk-c\src\wolfSSL/wolfcrypt/src/misc.c ****     {
  63:..\acn-sdk-c\src\wolfSSL/wolfcrypt/src/misc.c ****         return y ? _lrotr(x, y) : x;
  64:..\acn-sdk-c\src\wolfSSL/wolfcrypt/src/misc.c ****     }
  65:..\acn-sdk-c\src\wolfSSL/wolfcrypt/src/misc.c **** 
  66:..\acn-sdk-c\src\wolfSSL/wolfcrypt/src/misc.c **** #else /* generic */
  67:..\acn-sdk-c\src\wolfSSL/wolfcrypt/src/misc.c **** 
  68:..\acn-sdk-c\src\wolfSSL/wolfcrypt/src/misc.c ****     STATIC INLINE word32 rotlFixed(word32 x, word32 y)
  69:..\acn-sdk-c\src\wolfSSL/wolfcrypt/src/misc.c ****     {
  70:..\acn-sdk-c\src\wolfSSL/wolfcrypt/src/misc.c ****         return (x << y) | (x >> (sizeof(y) * 8 - y));
  71:..\acn-sdk-c\src\wolfSSL/wolfcrypt/src/misc.c ****     }   
  72:..\acn-sdk-c\src\wolfSSL/wolfcrypt/src/misc.c **** 
  73:..\acn-sdk-c\src\wolfSSL/wolfcrypt/src/misc.c **** 
  74:..\acn-sdk-c\src\wolfSSL/wolfcrypt/src/misc.c ****     STATIC INLINE word32 rotrFixed(word32 x, word32 y)
  75:..\acn-sdk-c\src\wolfSSL/wolfcrypt/src/misc.c ****     {
  76:..\acn-sdk-c\src\wolfSSL/wolfcrypt/src/misc.c ****         return (x >> y) | (x << (sizeof(y) * 8 - y));
  77:..\acn-sdk-c\src\wolfSSL/wolfcrypt/src/misc.c ****     }
  78:..\acn-sdk-c\src\wolfSSL/wolfcrypt/src/misc.c **** 
  79:..\acn-sdk-c\src\wolfSSL/wolfcrypt/src/misc.c **** #endif
  80:..\acn-sdk-c\src\wolfSSL/wolfcrypt/src/misc.c **** 
  81:..\acn-sdk-c\src\wolfSSL/wolfcrypt/src/misc.c **** 
  82:..\acn-sdk-c\src\wolfSSL/wolfcrypt/src/misc.c **** STATIC INLINE word32 ByteReverseWord32(word32 value)
  83:..\acn-sdk-c\src\wolfSSL/wolfcrypt/src/misc.c **** {
  84:..\acn-sdk-c\src\wolfSSL/wolfcrypt/src/misc.c **** #ifdef PPC_INTRINSICS
  85:..\acn-sdk-c\src\wolfSSL/wolfcrypt/src/misc.c ****     /* PPC: load reverse indexed instruction */
  86:..\acn-sdk-c\src\wolfSSL/wolfcrypt/src/misc.c ****     return (word32)__lwbrx(&value,0);
  87:..\acn-sdk-c\src\wolfSSL/wolfcrypt/src/misc.c **** #elif defined(KEIL_INTRINSICS)
  88:..\acn-sdk-c\src\wolfSSL/wolfcrypt/src/misc.c ****     return (word32)__rev(value);
  89:..\acn-sdk-c\src\wolfSSL/wolfcrypt/src/misc.c **** #elif defined(FAST_ROTATE)
  90:..\acn-sdk-c\src\wolfSSL/wolfcrypt/src/misc.c ****     /* 5 instructions with rotate instruction, 9 without */
ARM GAS  C:\Users\ddemidov\AppData\Local\Temp\ccKvU8Ns.s 			page 3


  91:..\acn-sdk-c\src\wolfSSL/wolfcrypt/src/misc.c ****     return (rotrFixed(value, 8U) & 0xff00ff00) |
  92:..\acn-sdk-c\src\wolfSSL/wolfcrypt/src/misc.c ****            (rotlFixed(value, 8U) & 0x00ff00ff);
  93:..\acn-sdk-c\src\wolfSSL/wolfcrypt/src/misc.c **** #else
  94:..\acn-sdk-c\src\wolfSSL/wolfcrypt/src/misc.c ****     /* 6 instructions with rotate instruction, 8 without */
  95:..\acn-sdk-c\src\wolfSSL/wolfcrypt/src/misc.c ****     value = ((value & 0xFF00FF00) >> 8) | ((value & 0x00FF00FF) << 8);
  96:..\acn-sdk-c\src\wolfSSL/wolfcrypt/src/misc.c ****     return rotlFixed(value, 16U);
  97:..\acn-sdk-c\src\wolfSSL/wolfcrypt/src/misc.c **** #endif
  98:..\acn-sdk-c\src\wolfSSL/wolfcrypt/src/misc.c **** }
  99:..\acn-sdk-c\src\wolfSSL/wolfcrypt/src/misc.c **** 
 100:..\acn-sdk-c\src\wolfSSL/wolfcrypt/src/misc.c **** 
 101:..\acn-sdk-c\src\wolfSSL/wolfcrypt/src/misc.c **** STATIC INLINE void ByteReverseWords(word32* out, const word32* in,
 102:..\acn-sdk-c\src\wolfSSL/wolfcrypt/src/misc.c ****                                     word32 byteCount)
 103:..\acn-sdk-c\src\wolfSSL/wolfcrypt/src/misc.c **** {
  25              		.loc 1 103 0
  26              		.cfi_startproc
  27              	.LVL0:
  28 0000 70B5     		push	{r4, r5, r6, lr}
  29              		.cfi_def_cfa_offset 16
  30              		.cfi_offset 4, -16
  31              		.cfi_offset 5, -12
  32              		.cfi_offset 6, -8
  33              		.cfi_offset 14, -4
 104:..\acn-sdk-c\src\wolfSSL/wolfcrypt/src/misc.c ****     word32 count = byteCount/(word32)sizeof(word32), i;
 105:..\acn-sdk-c\src\wolfSSL/wolfcrypt/src/misc.c **** 
 106:..\acn-sdk-c\src\wolfSSL/wolfcrypt/src/misc.c ****     for (i = 0; i < count; i++)
  34              		.loc 1 106 0
  35 0002 0025     		mov	r5, #0
 104:..\acn-sdk-c\src\wolfSSL/wolfcrypt/src/misc.c ****     word32 count = byteCount/(word32)sizeof(word32), i;
  36              		.loc 1 104 0
  37 0004 9208     		lsr	r2, r2, #2
  38              	.LVL1:
  39 0006 9200     		lsl	r2, r2, #2
  40              	.LVL2:
  41              	.L2:
  42              		.loc 1 106 0 discriminator 1
  43 0008 9542     		cmp	r5, r2
  44 000a 0CD0     		beq	.L5
 107:..\acn-sdk-c\src\wolfSSL/wolfcrypt/src/misc.c ****         out[i] = ByteReverseWord32(in[i]);
  45              		.loc 1 107 0 discriminator 3
  46 000c 4B59     		ldr	r3, [r1, r5]
  47              	.LVL3:
  48              	.LBB116:
  49              	.LBB117:
  95:..\acn-sdk-c\src\wolfSSL/wolfcrypt/src/misc.c ****     return rotlFixed(value, 16U);
  50              		.loc 1 95 0 discriminator 3
  51 000e 064C     		ldr	r4, .L6
  52 0010 064E     		ldr	r6, .L6+4
  53 0012 1E40     		and	r6, r3
  54 0014 2340     		and	r3, r4
  55              	.LVL4:
  56              	.LBB118:
  57              	.LBB119:
  70:..\acn-sdk-c\src\wolfSSL/wolfcrypt/src/misc.c ****     }   
  58              		.loc 1 70 0 discriminator 3
  59 0016 1024     		mov	r4, #16
  60              	.LBE119:
  61              	.LBE118:
ARM GAS  C:\Users\ddemidov\AppData\Local\Temp\ccKvU8Ns.s 			page 4


  95:..\acn-sdk-c\src\wolfSSL/wolfcrypt/src/misc.c ****     return rotlFixed(value, 16U);
  62              		.loc 1 95 0 discriminator 3
  63 0018 3602     		lsl	r6, r6, #8
  64 001a 1B0A     		lsr	r3, r3, #8
  65 001c 3343     		orr	r3, r6
  66              	.LVL5:
  67              	.LBB121:
  68              	.LBB120:
  70:..\acn-sdk-c\src\wolfSSL/wolfcrypt/src/misc.c ****     }   
  69              		.loc 1 70 0 discriminator 3
  70 001e E341     		ror	r3, r3, r4
  71              	.LVL6:
  72              	.LBE120:
  73              	.LBE121:
  74              	.LBE117:
  75              	.LBE116:
  76              		.loc 1 107 0 discriminator 3
  77 0020 4351     		str	r3, [r0, r5]
  78              	.LVL7:
  79 0022 0435     		add	r5, r5, #4
  80 0024 F0E7     		b	.L2
  81              	.LVL8:
  82              	.L5:
 108:..\acn-sdk-c\src\wolfSSL/wolfcrypt/src/misc.c **** 
 109:..\acn-sdk-c\src\wolfSSL/wolfcrypt/src/misc.c **** }
  83              		.loc 1 109 0
  84              		@ sp needed
  85 0026 70BD     		pop	{r4, r5, r6, pc}
  86              	.L7:
  87              		.align	2
  88              	.L6:
  89 0028 00FF00FF 		.word	-16711936
  90 002c FF00FF00 		.word	16711935
  91              		.cfi_endproc
  92              	.LFE3:
  93              		.size	ByteReverseWords, .-ByteReverseWords
  94              		.section	.text.Transform,"ax",%progbits
  95              		.align	1
  96              		.code	16
  97              		.thumb_func
  98              		.type	Transform, %function
  99              	Transform:
 100              	.LFB14:
 101              		.file 2 "..\\acn-sdk-c\\src\\wolfSSL\\wolfcrypt\\src\\sha256.c"
   1:..\acn-sdk-c\src\wolfSSL/wolfcrypt/src/sha256.c **** /* sha256.c
   2:..\acn-sdk-c\src\wolfSSL/wolfcrypt/src/sha256.c ****  *
   3:..\acn-sdk-c\src\wolfSSL/wolfcrypt/src/sha256.c ****  * Copyright (C) 2006-2016 wolfSSL Inc.
   4:..\acn-sdk-c\src\wolfSSL/wolfcrypt/src/sha256.c ****  *
   5:..\acn-sdk-c\src\wolfSSL/wolfcrypt/src/sha256.c ****  * This file is part of wolfSSL.
   6:..\acn-sdk-c\src\wolfSSL/wolfcrypt/src/sha256.c ****  *
   7:..\acn-sdk-c\src\wolfSSL/wolfcrypt/src/sha256.c ****  * wolfSSL is free software; you can redistribute it and/or modify
   8:..\acn-sdk-c\src\wolfSSL/wolfcrypt/src/sha256.c ****  * it under the terms of the GNU General Public License as published by
   9:..\acn-sdk-c\src\wolfSSL/wolfcrypt/src/sha256.c ****  * the Free Software Foundation; either version 2 of the License, or
  10:..\acn-sdk-c\src\wolfSSL/wolfcrypt/src/sha256.c ****  * (at your option) any later version.
  11:..\acn-sdk-c\src\wolfSSL/wolfcrypt/src/sha256.c ****  *
  12:..\acn-sdk-c\src\wolfSSL/wolfcrypt/src/sha256.c ****  * wolfSSL is distributed in the hope that it will be useful,
  13:..\acn-sdk-c\src\wolfSSL/wolfcrypt/src/sha256.c ****  * but WITHOUT ANY WARRANTY; without even the implied warranty of
ARM GAS  C:\Users\ddemidov\AppData\Local\Temp\ccKvU8Ns.s 			page 5


  14:..\acn-sdk-c\src\wolfSSL/wolfcrypt/src/sha256.c ****  * MERCHANTABILITY or FITNESS FOR A PARTICULAR PURPOSE.  See the
  15:..\acn-sdk-c\src\wolfSSL/wolfcrypt/src/sha256.c ****  * GNU General Public License for more details.
  16:..\acn-sdk-c\src\wolfSSL/wolfcrypt/src/sha256.c ****  *
  17:..\acn-sdk-c\src\wolfSSL/wolfcrypt/src/sha256.c ****  * You should have received a copy of the GNU General Public License
  18:..\acn-sdk-c\src\wolfSSL/wolfcrypt/src/sha256.c ****  * along with this program; if not, write to the Free Software
  19:..\acn-sdk-c\src\wolfSSL/wolfcrypt/src/sha256.c ****  * Foundation, Inc., 51 Franklin Street, Fifth Floor, Boston, MA 02110-1335, USA
  20:..\acn-sdk-c\src\wolfSSL/wolfcrypt/src/sha256.c ****  */
  21:..\acn-sdk-c\src\wolfSSL/wolfcrypt/src/sha256.c **** 
  22:..\acn-sdk-c\src\wolfSSL/wolfcrypt/src/sha256.c **** 
  23:..\acn-sdk-c\src\wolfSSL/wolfcrypt/src/sha256.c **** /* code submitted by raphael.huck@efixo.com */
  24:..\acn-sdk-c\src\wolfSSL/wolfcrypt/src/sha256.c **** 
  25:..\acn-sdk-c\src\wolfSSL/wolfcrypt/src/sha256.c **** #ifdef HAVE_CONFIG_H
  26:..\acn-sdk-c\src\wolfSSL/wolfcrypt/src/sha256.c ****     #include <config.h>
  27:..\acn-sdk-c\src\wolfSSL/wolfcrypt/src/sha256.c **** #endif
  28:..\acn-sdk-c\src\wolfSSL/wolfcrypt/src/sha256.c **** 
  29:..\acn-sdk-c\src\wolfSSL/wolfcrypt/src/sha256.c **** #include <wolfssl/wolfcrypt/settings.h>
  30:..\acn-sdk-c\src\wolfSSL/wolfcrypt/src/sha256.c **** #include <wolfssl/wolfcrypt/sha256.h>
  31:..\acn-sdk-c\src\wolfSSL/wolfcrypt/src/sha256.c **** 
  32:..\acn-sdk-c\src\wolfSSL/wolfcrypt/src/sha256.c **** #if !defined(NO_SHA256)
  33:..\acn-sdk-c\src\wolfSSL/wolfcrypt/src/sha256.c **** #ifdef HAVE_FIPS
  34:..\acn-sdk-c\src\wolfSSL/wolfcrypt/src/sha256.c **** 
  35:..\acn-sdk-c\src\wolfSSL/wolfcrypt/src/sha256.c **** int wc_InitSha256(Sha256* sha)
  36:..\acn-sdk-c\src\wolfSSL/wolfcrypt/src/sha256.c **** {
  37:..\acn-sdk-c\src\wolfSSL/wolfcrypt/src/sha256.c ****     return InitSha256_fips(sha);
  38:..\acn-sdk-c\src\wolfSSL/wolfcrypt/src/sha256.c **** }
  39:..\acn-sdk-c\src\wolfSSL/wolfcrypt/src/sha256.c **** 
  40:..\acn-sdk-c\src\wolfSSL/wolfcrypt/src/sha256.c **** 
  41:..\acn-sdk-c\src\wolfSSL/wolfcrypt/src/sha256.c **** int wc_Sha256Update(Sha256* sha, const byte* data, word32 len)
  42:..\acn-sdk-c\src\wolfSSL/wolfcrypt/src/sha256.c **** {
  43:..\acn-sdk-c\src\wolfSSL/wolfcrypt/src/sha256.c ****     return Sha256Update_fips(sha, data, len);
  44:..\acn-sdk-c\src\wolfSSL/wolfcrypt/src/sha256.c **** }
  45:..\acn-sdk-c\src\wolfSSL/wolfcrypt/src/sha256.c **** 
  46:..\acn-sdk-c\src\wolfSSL/wolfcrypt/src/sha256.c **** 
  47:..\acn-sdk-c\src\wolfSSL/wolfcrypt/src/sha256.c **** int wc_Sha256Final(Sha256* sha, byte* out)
  48:..\acn-sdk-c\src\wolfSSL/wolfcrypt/src/sha256.c **** {
  49:..\acn-sdk-c\src\wolfSSL/wolfcrypt/src/sha256.c ****     return Sha256Final_fips(sha, out);
  50:..\acn-sdk-c\src\wolfSSL/wolfcrypt/src/sha256.c **** }
  51:..\acn-sdk-c\src\wolfSSL/wolfcrypt/src/sha256.c **** 
  52:..\acn-sdk-c\src\wolfSSL/wolfcrypt/src/sha256.c **** 
  53:..\acn-sdk-c\src\wolfSSL/wolfcrypt/src/sha256.c **** #else /* else build without fips */
  54:..\acn-sdk-c\src\wolfSSL/wolfcrypt/src/sha256.c **** 
  55:..\acn-sdk-c\src\wolfSSL/wolfcrypt/src/sha256.c **** #if !defined(NO_SHA256) && defined(WOLFSSL_TI_HASH)
  56:..\acn-sdk-c\src\wolfSSL/wolfcrypt/src/sha256.c ****     /* #include <wolfcrypt/src/port/ti/ti-hash.c> included by wc_port.c */
  57:..\acn-sdk-c\src\wolfSSL/wolfcrypt/src/sha256.c **** #else
  58:..\acn-sdk-c\src\wolfSSL/wolfcrypt/src/sha256.c **** 
  59:..\acn-sdk-c\src\wolfSSL/wolfcrypt/src/sha256.c **** #if !defined (ALIGN32)
  60:..\acn-sdk-c\src\wolfSSL/wolfcrypt/src/sha256.c ****     #if defined (__GNUC__)
  61:..\acn-sdk-c\src\wolfSSL/wolfcrypt/src/sha256.c ****         #define ALIGN32 __attribute__ ( (aligned (32)))
  62:..\acn-sdk-c\src\wolfSSL/wolfcrypt/src/sha256.c ****     #elif defined(_MSC_VER)
  63:..\acn-sdk-c\src\wolfSSL/wolfcrypt/src/sha256.c ****         /* disable align warning, we want alignment ! */
  64:..\acn-sdk-c\src\wolfSSL/wolfcrypt/src/sha256.c ****         #pragma warning(disable: 4324)
  65:..\acn-sdk-c\src\wolfSSL/wolfcrypt/src/sha256.c ****         #define ALIGN32 __declspec (align (32))
  66:..\acn-sdk-c\src\wolfSSL/wolfcrypt/src/sha256.c ****     #else
  67:..\acn-sdk-c\src\wolfSSL/wolfcrypt/src/sha256.c ****         #define ALIGN32
  68:..\acn-sdk-c\src\wolfSSL/wolfcrypt/src/sha256.c ****     #endif
  69:..\acn-sdk-c\src\wolfSSL/wolfcrypt/src/sha256.c **** #endif
  70:..\acn-sdk-c\src\wolfSSL/wolfcrypt/src/sha256.c **** 
ARM GAS  C:\Users\ddemidov\AppData\Local\Temp\ccKvU8Ns.s 			page 6


  71:..\acn-sdk-c\src\wolfSSL/wolfcrypt/src/sha256.c **** #ifdef WOLFSSL_PIC32MZ_HASH
  72:..\acn-sdk-c\src\wolfSSL/wolfcrypt/src/sha256.c **** #define wc_InitSha256   wc_InitSha256_sw
  73:..\acn-sdk-c\src\wolfSSL/wolfcrypt/src/sha256.c **** #define wc_Sha256Update wc_Sha256Update_sw
  74:..\acn-sdk-c\src\wolfSSL/wolfcrypt/src/sha256.c **** #define wc_Sha256Final  wc_Sha256Final_sw
  75:..\acn-sdk-c\src\wolfSSL/wolfcrypt/src/sha256.c **** #endif
  76:..\acn-sdk-c\src\wolfSSL/wolfcrypt/src/sha256.c **** 
  77:..\acn-sdk-c\src\wolfSSL/wolfcrypt/src/sha256.c **** #ifdef HAVE_FIPS
  78:..\acn-sdk-c\src\wolfSSL/wolfcrypt/src/sha256.c ****     /* set NO_WRAPPERS before headers, use direct internal f()s not wrappers */
  79:..\acn-sdk-c\src\wolfSSL/wolfcrypt/src/sha256.c ****     #define FIPS_NO_WRAPPERS
  80:..\acn-sdk-c\src\wolfSSL/wolfcrypt/src/sha256.c **** #endif
  81:..\acn-sdk-c\src\wolfSSL/wolfcrypt/src/sha256.c **** 
  82:..\acn-sdk-c\src\wolfSSL/wolfcrypt/src/sha256.c **** #if defined(USE_INTEL_SPEEDUP)
  83:..\acn-sdk-c\src\wolfSSL/wolfcrypt/src/sha256.c **** #define HAVE_INTEL_AVX1
  84:..\acn-sdk-c\src\wolfSSL/wolfcrypt/src/sha256.c **** #define HAVE_INTEL_AVX2
  85:..\acn-sdk-c\src\wolfSSL/wolfcrypt/src/sha256.c **** 
  86:..\acn-sdk-c\src\wolfSSL/wolfcrypt/src/sha256.c **** #if defined(DEBUG_XMM)
  87:..\acn-sdk-c\src\wolfSSL/wolfcrypt/src/sha256.c **** #include "stdio.h"
  88:..\acn-sdk-c\src\wolfSSL/wolfcrypt/src/sha256.c **** #endif
  89:..\acn-sdk-c\src\wolfSSL/wolfcrypt/src/sha256.c **** 
  90:..\acn-sdk-c\src\wolfSSL/wolfcrypt/src/sha256.c **** #endif
  91:..\acn-sdk-c\src\wolfSSL/wolfcrypt/src/sha256.c **** 
  92:..\acn-sdk-c\src\wolfSSL/wolfcrypt/src/sha256.c **** #if defined(HAVE_INTEL_AVX2)
  93:..\acn-sdk-c\src\wolfSSL/wolfcrypt/src/sha256.c **** #define HAVE_INTEL_RORX
  94:..\acn-sdk-c\src\wolfSSL/wolfcrypt/src/sha256.c **** #endif
  95:..\acn-sdk-c\src\wolfSSL/wolfcrypt/src/sha256.c ****  
  96:..\acn-sdk-c\src\wolfSSL/wolfcrypt/src/sha256.c **** 
  97:..\acn-sdk-c\src\wolfSSL/wolfcrypt/src/sha256.c **** /*****
  98:..\acn-sdk-c\src\wolfSSL/wolfcrypt/src/sha256.c **** Intel AVX1/AVX2 Macro Control Structure
  99:..\acn-sdk-c\src\wolfSSL/wolfcrypt/src/sha256.c **** 
 100:..\acn-sdk-c\src\wolfSSL/wolfcrypt/src/sha256.c **** #define HAVE_INTEL_AVX1
 101:..\acn-sdk-c\src\wolfSSL/wolfcrypt/src/sha256.c **** #define HAVE_INTEL_AVX2
 102:..\acn-sdk-c\src\wolfSSL/wolfcrypt/src/sha256.c **** 
 103:..\acn-sdk-c\src\wolfSSL/wolfcrypt/src/sha256.c **** #define HAVE_INTEL_RORX
 104:..\acn-sdk-c\src\wolfSSL/wolfcrypt/src/sha256.c **** 
 105:..\acn-sdk-c\src\wolfSSL/wolfcrypt/src/sha256.c **** 
 106:..\acn-sdk-c\src\wolfSSL/wolfcrypt/src/sha256.c **** int InitSha256(Sha256* sha256) { 
 107:..\acn-sdk-c\src\wolfSSL/wolfcrypt/src/sha256.c ****      Save/Recover XMM, YMM
 108:..\acn-sdk-c\src\wolfSSL/wolfcrypt/src/sha256.c ****      ...
 109:..\acn-sdk-c\src\wolfSSL/wolfcrypt/src/sha256.c **** }
 110:..\acn-sdk-c\src\wolfSSL/wolfcrypt/src/sha256.c **** 
 111:..\acn-sdk-c\src\wolfSSL/wolfcrypt/src/sha256.c **** #if defined(HAVE_INTEL_AVX1)|| defined(HAVE_INTEL_AVX2)
 112:..\acn-sdk-c\src\wolfSSL/wolfcrypt/src/sha256.c ****   Transform() ; Function prototype 
 113:..\acn-sdk-c\src\wolfSSL/wolfcrypt/src/sha256.c **** #else
 114:..\acn-sdk-c\src\wolfSSL/wolfcrypt/src/sha256.c ****   Transform() {   }
 115:..\acn-sdk-c\src\wolfSSL/wolfcrypt/src/sha256.c ****   int Sha256Final() { 
 116:..\acn-sdk-c\src\wolfSSL/wolfcrypt/src/sha256.c ****      Save/Recover XMM, YMM
 117:..\acn-sdk-c\src\wolfSSL/wolfcrypt/src/sha256.c ****      ...
 118:..\acn-sdk-c\src\wolfSSL/wolfcrypt/src/sha256.c ****   }
 119:..\acn-sdk-c\src\wolfSSL/wolfcrypt/src/sha256.c **** #endif
 120:..\acn-sdk-c\src\wolfSSL/wolfcrypt/src/sha256.c **** 
 121:..\acn-sdk-c\src\wolfSSL/wolfcrypt/src/sha256.c **** #if defined(HAVE_INTEL_AVX1)|| defined(HAVE_INTEL_AVX2)
 122:..\acn-sdk-c\src\wolfSSL/wolfcrypt/src/sha256.c ****     #if defined(HAVE_INTEL_RORX
 123:..\acn-sdk-c\src\wolfSSL/wolfcrypt/src/sha256.c ****          #define RND with rorx instuction
 124:..\acn-sdk-c\src\wolfSSL/wolfcrypt/src/sha256.c ****     #else
 125:..\acn-sdk-c\src\wolfSSL/wolfcrypt/src/sha256.c ****         #define RND
 126:..\acn-sdk-c\src\wolfSSL/wolfcrypt/src/sha256.c ****     #endif
 127:..\acn-sdk-c\src\wolfSSL/wolfcrypt/src/sha256.c **** #endif
ARM GAS  C:\Users\ddemidov\AppData\Local\Temp\ccKvU8Ns.s 			page 7


 128:..\acn-sdk-c\src\wolfSSL/wolfcrypt/src/sha256.c **** 
 129:..\acn-sdk-c\src\wolfSSL/wolfcrypt/src/sha256.c **** #if defined(HAVE_INTEL_AVX1)
 130:..\acn-sdk-c\src\wolfSSL/wolfcrypt/src/sha256.c ****    
 131:..\acn-sdk-c\src\wolfSSL/wolfcrypt/src/sha256.c ****    #define XMM Instructions/inline asm
 132:..\acn-sdk-c\src\wolfSSL/wolfcrypt/src/sha256.c ****    
 133:..\acn-sdk-c\src\wolfSSL/wolfcrypt/src/sha256.c ****    int Transform() {
 134:..\acn-sdk-c\src\wolfSSL/wolfcrypt/src/sha256.c ****        Stitched Message Sched/Round
 135:..\acn-sdk-c\src\wolfSSL/wolfcrypt/src/sha256.c ****     } 
 136:..\acn-sdk-c\src\wolfSSL/wolfcrypt/src/sha256.c ****    
 137:..\acn-sdk-c\src\wolfSSL/wolfcrypt/src/sha256.c **** #elif defined(HAVE_INTEL_AVX2)
 138:..\acn-sdk-c\src\wolfSSL/wolfcrypt/src/sha256.c ****   
 139:..\acn-sdk-c\src\wolfSSL/wolfcrypt/src/sha256.c ****   #define YMM Instructions/inline asm
 140:..\acn-sdk-c\src\wolfSSL/wolfcrypt/src/sha256.c ****   
 141:..\acn-sdk-c\src\wolfSSL/wolfcrypt/src/sha256.c ****   int Transform() {
 142:..\acn-sdk-c\src\wolfSSL/wolfcrypt/src/sha256.c ****       More granural Stitched Message Sched/Round
 143:..\acn-sdk-c\src\wolfSSL/wolfcrypt/src/sha256.c ****   }
 144:..\acn-sdk-c\src\wolfSSL/wolfcrypt/src/sha256.c ****   
 145:..\acn-sdk-c\src\wolfSSL/wolfcrypt/src/sha256.c **** */
 146:..\acn-sdk-c\src\wolfSSL/wolfcrypt/src/sha256.c **** 
 147:..\acn-sdk-c\src\wolfSSL/wolfcrypt/src/sha256.c **** 
 148:..\acn-sdk-c\src\wolfSSL/wolfcrypt/src/sha256.c **** #if defined(HAVE_INTEL_AVX1) || defined(HAVE_INTEL_AVX2)
 149:..\acn-sdk-c\src\wolfSSL/wolfcrypt/src/sha256.c **** 
 150:..\acn-sdk-c\src\wolfSSL/wolfcrypt/src/sha256.c **** /* Each platform needs to query info type 1 from cpuid to see if aesni is
 151:..\acn-sdk-c\src\wolfSSL/wolfcrypt/src/sha256.c ****  * supported. Also, let's setup a macro for proper linkage w/o ABI conflicts
 152:..\acn-sdk-c\src\wolfSSL/wolfcrypt/src/sha256.c ****  */
 153:..\acn-sdk-c\src\wolfSSL/wolfcrypt/src/sha256.c **** 
 154:..\acn-sdk-c\src\wolfSSL/wolfcrypt/src/sha256.c **** #ifndef _MSC_VER
 155:..\acn-sdk-c\src\wolfSSL/wolfcrypt/src/sha256.c ****     #define cpuid(reg, leaf, sub)\
 156:..\acn-sdk-c\src\wolfSSL/wolfcrypt/src/sha256.c ****             __asm__ __volatile__ ("cpuid":\
 157:..\acn-sdk-c\src\wolfSSL/wolfcrypt/src/sha256.c ****              "=a" (reg[0]), "=b" (reg[1]), "=c" (reg[2]), "=d" (reg[3]) :\
 158:..\acn-sdk-c\src\wolfSSL/wolfcrypt/src/sha256.c ****              "a" (leaf), "c"(sub));
 159:..\acn-sdk-c\src\wolfSSL/wolfcrypt/src/sha256.c **** 
 160:..\acn-sdk-c\src\wolfSSL/wolfcrypt/src/sha256.c ****     #define XASM_LINK(f) asm(f)
 161:..\acn-sdk-c\src\wolfSSL/wolfcrypt/src/sha256.c **** #else
 162:..\acn-sdk-c\src\wolfSSL/wolfcrypt/src/sha256.c **** 
 163:..\acn-sdk-c\src\wolfSSL/wolfcrypt/src/sha256.c ****     #include <intrin.h>
 164:..\acn-sdk-c\src\wolfSSL/wolfcrypt/src/sha256.c ****     #define cpuid(a,b) __cpuid((int*)a,b)
 165:..\acn-sdk-c\src\wolfSSL/wolfcrypt/src/sha256.c **** 
 166:..\acn-sdk-c\src\wolfSSL/wolfcrypt/src/sha256.c ****     #define XASM_LINK(f)
 167:..\acn-sdk-c\src\wolfSSL/wolfcrypt/src/sha256.c **** 
 168:..\acn-sdk-c\src\wolfSSL/wolfcrypt/src/sha256.c **** #endif /* _MSC_VER */
 169:..\acn-sdk-c\src\wolfSSL/wolfcrypt/src/sha256.c **** 
 170:..\acn-sdk-c\src\wolfSSL/wolfcrypt/src/sha256.c **** #define EAX 0
 171:..\acn-sdk-c\src\wolfSSL/wolfcrypt/src/sha256.c **** #define EBX 1
 172:..\acn-sdk-c\src\wolfSSL/wolfcrypt/src/sha256.c **** #define ECX 2 
 173:..\acn-sdk-c\src\wolfSSL/wolfcrypt/src/sha256.c **** #define EDX 3
 174:..\acn-sdk-c\src\wolfSSL/wolfcrypt/src/sha256.c ****     
 175:..\acn-sdk-c\src\wolfSSL/wolfcrypt/src/sha256.c **** #define CPUID_AVX1   0x1
 176:..\acn-sdk-c\src\wolfSSL/wolfcrypt/src/sha256.c **** #define CPUID_AVX2   0x2
 177:..\acn-sdk-c\src\wolfSSL/wolfcrypt/src/sha256.c **** #define CPUID_RDRAND 0x4
 178:..\acn-sdk-c\src\wolfSSL/wolfcrypt/src/sha256.c **** #define CPUID_RDSEED 0x8
 179:..\acn-sdk-c\src\wolfSSL/wolfcrypt/src/sha256.c **** #define CPUID_BMI2   0x10   /* MULX, RORX */
 180:..\acn-sdk-c\src\wolfSSL/wolfcrypt/src/sha256.c **** 
 181:..\acn-sdk-c\src\wolfSSL/wolfcrypt/src/sha256.c **** #define IS_INTEL_AVX1       (cpuid_flags&CPUID_AVX1)
 182:..\acn-sdk-c\src\wolfSSL/wolfcrypt/src/sha256.c **** #define IS_INTEL_AVX2       (cpuid_flags&CPUID_AVX2)
 183:..\acn-sdk-c\src\wolfSSL/wolfcrypt/src/sha256.c **** #define IS_INTEL_BMI2       (cpuid_flags&CPUID_BMI2)
 184:..\acn-sdk-c\src\wolfSSL/wolfcrypt/src/sha256.c **** #define IS_INTEL_RDRAND     (cpuid_flags&CPUID_RDRAND)
ARM GAS  C:\Users\ddemidov\AppData\Local\Temp\ccKvU8Ns.s 			page 8


 185:..\acn-sdk-c\src\wolfSSL/wolfcrypt/src/sha256.c **** #define IS_INTEL_RDSEED     (cpuid_flags&CPUID_RDSEED)
 186:..\acn-sdk-c\src\wolfSSL/wolfcrypt/src/sha256.c **** 
 187:..\acn-sdk-c\src\wolfSSL/wolfcrypt/src/sha256.c **** static word32 cpuid_check = 0 ;
 188:..\acn-sdk-c\src\wolfSSL/wolfcrypt/src/sha256.c **** static word32 cpuid_flags = 0 ;
 189:..\acn-sdk-c\src\wolfSSL/wolfcrypt/src/sha256.c **** 
 190:..\acn-sdk-c\src\wolfSSL/wolfcrypt/src/sha256.c **** static word32 cpuid_flag(word32 leaf, word32 sub, word32 num, word32 bit) {
 191:..\acn-sdk-c\src\wolfSSL/wolfcrypt/src/sha256.c ****     int got_intel_cpu=0;
 192:..\acn-sdk-c\src\wolfSSL/wolfcrypt/src/sha256.c ****     unsigned int reg[5]; 
 193:..\acn-sdk-c\src\wolfSSL/wolfcrypt/src/sha256.c ****     
 194:..\acn-sdk-c\src\wolfSSL/wolfcrypt/src/sha256.c ****     reg[4] = '\0' ;
 195:..\acn-sdk-c\src\wolfSSL/wolfcrypt/src/sha256.c ****     cpuid(reg, 0, 0);  
 196:..\acn-sdk-c\src\wolfSSL/wolfcrypt/src/sha256.c ****     if(memcmp((char *)&(reg[EBX]), "Genu", 4) == 0 &&  
 197:..\acn-sdk-c\src\wolfSSL/wolfcrypt/src/sha256.c ****                 memcmp((char *)&(reg[EDX]), "ineI", 4) == 0 &&  
 198:..\acn-sdk-c\src\wolfSSL/wolfcrypt/src/sha256.c ****                 memcmp((char *)&(reg[ECX]), "ntel", 4) == 0) {  
 199:..\acn-sdk-c\src\wolfSSL/wolfcrypt/src/sha256.c ****         got_intel_cpu = 1;  
 200:..\acn-sdk-c\src\wolfSSL/wolfcrypt/src/sha256.c ****     }    
 201:..\acn-sdk-c\src\wolfSSL/wolfcrypt/src/sha256.c ****     if (got_intel_cpu) {
 202:..\acn-sdk-c\src\wolfSSL/wolfcrypt/src/sha256.c ****         cpuid(reg, leaf, sub);
 203:..\acn-sdk-c\src\wolfSSL/wolfcrypt/src/sha256.c ****         return((reg[num]>>bit)&0x1) ;
 204:..\acn-sdk-c\src\wolfSSL/wolfcrypt/src/sha256.c ****     }
 205:..\acn-sdk-c\src\wolfSSL/wolfcrypt/src/sha256.c ****     return 0 ;
 206:..\acn-sdk-c\src\wolfSSL/wolfcrypt/src/sha256.c **** }
 207:..\acn-sdk-c\src\wolfSSL/wolfcrypt/src/sha256.c **** 
 208:..\acn-sdk-c\src\wolfSSL/wolfcrypt/src/sha256.c **** static int set_cpuid_flags(void) {  
 209:..\acn-sdk-c\src\wolfSSL/wolfcrypt/src/sha256.c ****     if(cpuid_check==0) {
 210:..\acn-sdk-c\src\wolfSSL/wolfcrypt/src/sha256.c ****         if(cpuid_flag(1, 0, ECX, 28)){ cpuid_flags |= CPUID_AVX1 ;}
 211:..\acn-sdk-c\src\wolfSSL/wolfcrypt/src/sha256.c ****         if(cpuid_flag(7, 0, EBX, 5)){  cpuid_flags |= CPUID_AVX2 ; }
 212:..\acn-sdk-c\src\wolfSSL/wolfcrypt/src/sha256.c ****         if(cpuid_flag(7, 0, EBX, 8)) { cpuid_flags |= CPUID_BMI2 ; }
 213:..\acn-sdk-c\src\wolfSSL/wolfcrypt/src/sha256.c ****         if(cpuid_flag(1, 0, ECX, 30)){ cpuid_flags |= CPUID_RDRAND ;  } 
 214:..\acn-sdk-c\src\wolfSSL/wolfcrypt/src/sha256.c ****         if(cpuid_flag(7, 0, EBX, 18)){ cpuid_flags |= CPUID_RDSEED ;  }
 215:..\acn-sdk-c\src\wolfSSL/wolfcrypt/src/sha256.c ****         cpuid_check = 1 ;
 216:..\acn-sdk-c\src\wolfSSL/wolfcrypt/src/sha256.c ****         return 0 ;
 217:..\acn-sdk-c\src\wolfSSL/wolfcrypt/src/sha256.c ****     }
 218:..\acn-sdk-c\src\wolfSSL/wolfcrypt/src/sha256.c ****     return 1 ;
 219:..\acn-sdk-c\src\wolfSSL/wolfcrypt/src/sha256.c **** }
 220:..\acn-sdk-c\src\wolfSSL/wolfcrypt/src/sha256.c **** 
 221:..\acn-sdk-c\src\wolfSSL/wolfcrypt/src/sha256.c **** 
 222:..\acn-sdk-c\src\wolfSSL/wolfcrypt/src/sha256.c **** /* #if defined(HAVE_INTEL_AVX1/2) at the tail of sha512 */
 223:..\acn-sdk-c\src\wolfSSL/wolfcrypt/src/sha256.c **** static int Transform(Sha256* sha256);
 224:..\acn-sdk-c\src\wolfSSL/wolfcrypt/src/sha256.c **** 
 225:..\acn-sdk-c\src\wolfSSL/wolfcrypt/src/sha256.c **** #if defined(HAVE_INTEL_AVX1)
 226:..\acn-sdk-c\src\wolfSSL/wolfcrypt/src/sha256.c **** static int Transform_AVX1(Sha256 *sha256) ;
 227:..\acn-sdk-c\src\wolfSSL/wolfcrypt/src/sha256.c **** #endif
 228:..\acn-sdk-c\src\wolfSSL/wolfcrypt/src/sha256.c **** #if defined(HAVE_INTEL_AVX2)
 229:..\acn-sdk-c\src\wolfSSL/wolfcrypt/src/sha256.c **** static int Transform_AVX2(Sha256 *sha256) ; 
 230:..\acn-sdk-c\src\wolfSSL/wolfcrypt/src/sha256.c **** static int Transform_AVX1_RORX(Sha256 *sha256) ; 
 231:..\acn-sdk-c\src\wolfSSL/wolfcrypt/src/sha256.c **** #endif
 232:..\acn-sdk-c\src\wolfSSL/wolfcrypt/src/sha256.c **** 
 233:..\acn-sdk-c\src\wolfSSL/wolfcrypt/src/sha256.c **** static int (*Transform_p)(Sha256* sha256) /* = _Transform */;
 234:..\acn-sdk-c\src\wolfSSL/wolfcrypt/src/sha256.c **** 
 235:..\acn-sdk-c\src\wolfSSL/wolfcrypt/src/sha256.c **** #define XTRANSFORM(sha256, B)  (*Transform_p)(sha256)
 236:..\acn-sdk-c\src\wolfSSL/wolfcrypt/src/sha256.c **** 
 237:..\acn-sdk-c\src\wolfSSL/wolfcrypt/src/sha256.c **** static void set_Transform(void) {
 238:..\acn-sdk-c\src\wolfSSL/wolfcrypt/src/sha256.c ****      if(set_cpuid_flags())return ;
 239:..\acn-sdk-c\src\wolfSSL/wolfcrypt/src/sha256.c **** 
 240:..\acn-sdk-c\src\wolfSSL/wolfcrypt/src/sha256.c **** #if defined(HAVE_INTEL_AVX2)
 241:..\acn-sdk-c\src\wolfSSL/wolfcrypt/src/sha256.c ****      if(IS_INTEL_AVX2 && IS_INTEL_BMI2){ 
ARM GAS  C:\Users\ddemidov\AppData\Local\Temp\ccKvU8Ns.s 			page 9


 242:..\acn-sdk-c\src\wolfSSL/wolfcrypt/src/sha256.c ****          Transform_p = Transform_AVX1_RORX; return ; 
 243:..\acn-sdk-c\src\wolfSSL/wolfcrypt/src/sha256.c ****          Transform_p = Transform_AVX2      ; 
 244:..\acn-sdk-c\src\wolfSSL/wolfcrypt/src/sha256.c ****                   /* for avoiding warning,"not used" */
 245:..\acn-sdk-c\src\wolfSSL/wolfcrypt/src/sha256.c ****      }
 246:..\acn-sdk-c\src\wolfSSL/wolfcrypt/src/sha256.c **** #endif
 247:..\acn-sdk-c\src\wolfSSL/wolfcrypt/src/sha256.c **** #if defined(HAVE_INTEL_AVX1)
 248:..\acn-sdk-c\src\wolfSSL/wolfcrypt/src/sha256.c ****      Transform_p = ((IS_INTEL_AVX1) ? Transform_AVX1 : Transform) ; return ;
 249:..\acn-sdk-c\src\wolfSSL/wolfcrypt/src/sha256.c **** #endif
 250:..\acn-sdk-c\src\wolfSSL/wolfcrypt/src/sha256.c ****      Transform_p = Transform ; return ;
 251:..\acn-sdk-c\src\wolfSSL/wolfcrypt/src/sha256.c **** }
 252:..\acn-sdk-c\src\wolfSSL/wolfcrypt/src/sha256.c **** 
 253:..\acn-sdk-c\src\wolfSSL/wolfcrypt/src/sha256.c **** #else
 254:..\acn-sdk-c\src\wolfSSL/wolfcrypt/src/sha256.c ****    #if defined(FREESCALE_MMCAU)
 255:..\acn-sdk-c\src\wolfSSL/wolfcrypt/src/sha256.c ****       #define XTRANSFORM(sha256, B) Transform(sha256, B)
 256:..\acn-sdk-c\src\wolfSSL/wolfcrypt/src/sha256.c ****    #else
 257:..\acn-sdk-c\src\wolfSSL/wolfcrypt/src/sha256.c ****       #define XTRANSFORM(sha256, B) Transform(sha256)
 258:..\acn-sdk-c\src\wolfSSL/wolfcrypt/src/sha256.c ****    #endif
 259:..\acn-sdk-c\src\wolfSSL/wolfcrypt/src/sha256.c **** #endif
 260:..\acn-sdk-c\src\wolfSSL/wolfcrypt/src/sha256.c **** 
 261:..\acn-sdk-c\src\wolfSSL/wolfcrypt/src/sha256.c **** /* Dummy for saving MM_REGs on behalf of Transform */
 262:..\acn-sdk-c\src\wolfSSL/wolfcrypt/src/sha256.c **** #if defined(HAVE_INTEL_AVX2)&& !defined(HAVE_INTEL_AVX1)
 263:..\acn-sdk-c\src\wolfSSL/wolfcrypt/src/sha256.c **** #define  SAVE_XMM_YMM   __asm__ volatile("or %%r8d, %%r8d":::\
 264:..\acn-sdk-c\src\wolfSSL/wolfcrypt/src/sha256.c ****   "%ymm4","%ymm5","%ymm6","%ymm7","%ymm8","%ymm9","%ymm10","%ymm11","%ymm12","%ymm13","%ymm14","%ym
 265:..\acn-sdk-c\src\wolfSSL/wolfcrypt/src/sha256.c **** #elif defined(HAVE_INTEL_AVX1)
 266:..\acn-sdk-c\src\wolfSSL/wolfcrypt/src/sha256.c **** #define  SAVE_XMM_YMM   __asm__ volatile("or %%r8d, %%r8d":::\
 267:..\acn-sdk-c\src\wolfSSL/wolfcrypt/src/sha256.c ****     "xmm0","xmm1","xmm2","xmm3","xmm4","xmm5","xmm6","xmm7","xmm8","xmm9","xmm10",\
 268:..\acn-sdk-c\src\wolfSSL/wolfcrypt/src/sha256.c ****     "xmm11","xmm12","xmm13","xmm14","xmm15")
 269:..\acn-sdk-c\src\wolfSSL/wolfcrypt/src/sha256.c **** #else
 270:..\acn-sdk-c\src\wolfSSL/wolfcrypt/src/sha256.c **** #define  SAVE_XMM_YMM
 271:..\acn-sdk-c\src\wolfSSL/wolfcrypt/src/sha256.c **** #endif
 272:..\acn-sdk-c\src\wolfSSL/wolfcrypt/src/sha256.c **** 
 273:..\acn-sdk-c\src\wolfSSL/wolfcrypt/src/sha256.c **** #ifdef WOLFSSL_PIC32MZ_HASH
 274:..\acn-sdk-c\src\wolfSSL/wolfcrypt/src/sha256.c **** #define InitSha256   InitSha256_sw
 275:..\acn-sdk-c\src\wolfSSL/wolfcrypt/src/sha256.c **** #define Sha256Update Sha256Update_sw
 276:..\acn-sdk-c\src\wolfSSL/wolfcrypt/src/sha256.c **** #define Sha256Final  Sha256Final_sw
 277:..\acn-sdk-c\src\wolfSSL/wolfcrypt/src/sha256.c **** #endif
 278:..\acn-sdk-c\src\wolfSSL/wolfcrypt/src/sha256.c **** 
 279:..\acn-sdk-c\src\wolfSSL/wolfcrypt/src/sha256.c **** #include <wolfssl/wolfcrypt/logging.h>
 280:..\acn-sdk-c\src\wolfSSL/wolfcrypt/src/sha256.c **** #include <wolfssl/wolfcrypt/error-crypt.h>
 281:..\acn-sdk-c\src\wolfSSL/wolfcrypt/src/sha256.c **** 
 282:..\acn-sdk-c\src\wolfSSL/wolfcrypt/src/sha256.c **** #ifdef NO_INLINE
 283:..\acn-sdk-c\src\wolfSSL/wolfcrypt/src/sha256.c ****     #include <wolfssl/wolfcrypt/misc.h>
 284:..\acn-sdk-c\src\wolfSSL/wolfcrypt/src/sha256.c **** #else
 285:..\acn-sdk-c\src\wolfSSL/wolfcrypt/src/sha256.c ****     #include <wolfcrypt/src/misc.c>
 286:..\acn-sdk-c\src\wolfSSL/wolfcrypt/src/sha256.c **** #endif
 287:..\acn-sdk-c\src\wolfSSL/wolfcrypt/src/sha256.c **** 
 288:..\acn-sdk-c\src\wolfSSL/wolfcrypt/src/sha256.c **** #ifdef FREESCALE_MMCAU
 289:..\acn-sdk-c\src\wolfSSL/wolfcrypt/src/sha256.c ****     #include "cau_api.h"
 290:..\acn-sdk-c\src\wolfSSL/wolfcrypt/src/sha256.c **** #endif
 291:..\acn-sdk-c\src\wolfSSL/wolfcrypt/src/sha256.c **** 
 292:..\acn-sdk-c\src\wolfSSL/wolfcrypt/src/sha256.c **** #ifndef WOLFSSL_HAVE_MIN
 293:..\acn-sdk-c\src\wolfSSL/wolfcrypt/src/sha256.c **** #define WOLFSSL_HAVE_MIN
 294:..\acn-sdk-c\src\wolfSSL/wolfcrypt/src/sha256.c **** 
 295:..\acn-sdk-c\src\wolfSSL/wolfcrypt/src/sha256.c ****     static INLINE word32 min(word32 a, word32 b)
 296:..\acn-sdk-c\src\wolfSSL/wolfcrypt/src/sha256.c ****     {
 297:..\acn-sdk-c\src\wolfSSL/wolfcrypt/src/sha256.c ****         return a > b ? b : a;
 298:..\acn-sdk-c\src\wolfSSL/wolfcrypt/src/sha256.c ****     }
ARM GAS  C:\Users\ddemidov\AppData\Local\Temp\ccKvU8Ns.s 			page 10


 299:..\acn-sdk-c\src\wolfSSL/wolfcrypt/src/sha256.c **** 
 300:..\acn-sdk-c\src\wolfSSL/wolfcrypt/src/sha256.c **** #endif /* WOLFSSL_HAVE_MIN */
 301:..\acn-sdk-c\src\wolfSSL/wolfcrypt/src/sha256.c **** 
 302:..\acn-sdk-c\src\wolfSSL/wolfcrypt/src/sha256.c **** 
 303:..\acn-sdk-c\src\wolfSSL/wolfcrypt/src/sha256.c **** int wc_InitSha256(Sha256* sha256)
 304:..\acn-sdk-c\src\wolfSSL/wolfcrypt/src/sha256.c **** {
 305:..\acn-sdk-c\src\wolfSSL/wolfcrypt/src/sha256.c ****     int ret = 0;
 306:..\acn-sdk-c\src\wolfSSL/wolfcrypt/src/sha256.c ****     #ifdef FREESCALE_MMCAU
 307:..\acn-sdk-c\src\wolfSSL/wolfcrypt/src/sha256.c ****         ret = wolfSSL_CryptHwMutexLock();
 308:..\acn-sdk-c\src\wolfSSL/wolfcrypt/src/sha256.c ****         if(ret != 0) {
 309:..\acn-sdk-c\src\wolfSSL/wolfcrypt/src/sha256.c ****             return ret;
 310:..\acn-sdk-c\src\wolfSSL/wolfcrypt/src/sha256.c ****         }
 311:..\acn-sdk-c\src\wolfSSL/wolfcrypt/src/sha256.c ****         cau_sha256_initialize_output(sha256->digest);
 312:..\acn-sdk-c\src\wolfSSL/wolfcrypt/src/sha256.c ****         wolfSSL_CryptHwMutexUnLock();
 313:..\acn-sdk-c\src\wolfSSL/wolfcrypt/src/sha256.c ****     #else
 314:..\acn-sdk-c\src\wolfSSL/wolfcrypt/src/sha256.c ****         sha256->digest[0] = 0x6A09E667L;
 315:..\acn-sdk-c\src\wolfSSL/wolfcrypt/src/sha256.c ****         sha256->digest[1] = 0xBB67AE85L;
 316:..\acn-sdk-c\src\wolfSSL/wolfcrypt/src/sha256.c ****         sha256->digest[2] = 0x3C6EF372L;
 317:..\acn-sdk-c\src\wolfSSL/wolfcrypt/src/sha256.c ****         sha256->digest[3] = 0xA54FF53AL;
 318:..\acn-sdk-c\src\wolfSSL/wolfcrypt/src/sha256.c ****         sha256->digest[4] = 0x510E527FL;
 319:..\acn-sdk-c\src\wolfSSL/wolfcrypt/src/sha256.c ****         sha256->digest[5] = 0x9B05688CL;
 320:..\acn-sdk-c\src\wolfSSL/wolfcrypt/src/sha256.c ****         sha256->digest[6] = 0x1F83D9ABL;
 321:..\acn-sdk-c\src\wolfSSL/wolfcrypt/src/sha256.c ****         sha256->digest[7] = 0x5BE0CD19L;
 322:..\acn-sdk-c\src\wolfSSL/wolfcrypt/src/sha256.c ****     #endif
 323:..\acn-sdk-c\src\wolfSSL/wolfcrypt/src/sha256.c **** 
 324:..\acn-sdk-c\src\wolfSSL/wolfcrypt/src/sha256.c ****     sha256->buffLen = 0;
 325:..\acn-sdk-c\src\wolfSSL/wolfcrypt/src/sha256.c ****     sha256->loLen   = 0;
 326:..\acn-sdk-c\src\wolfSSL/wolfcrypt/src/sha256.c ****     sha256->hiLen   = 0;
 327:..\acn-sdk-c\src\wolfSSL/wolfcrypt/src/sha256.c ****     
 328:..\acn-sdk-c\src\wolfSSL/wolfcrypt/src/sha256.c **** #if defined(HAVE_INTEL_AVX1)|| defined(HAVE_INTEL_AVX2)
 329:..\acn-sdk-c\src\wolfSSL/wolfcrypt/src/sha256.c ****     set_Transform() ; /* choose best Transform function under this runtime environment */
 330:..\acn-sdk-c\src\wolfSSL/wolfcrypt/src/sha256.c **** #endif
 331:..\acn-sdk-c\src\wolfSSL/wolfcrypt/src/sha256.c **** 
 332:..\acn-sdk-c\src\wolfSSL/wolfcrypt/src/sha256.c ****     return ret;
 333:..\acn-sdk-c\src\wolfSSL/wolfcrypt/src/sha256.c **** }
 334:..\acn-sdk-c\src\wolfSSL/wolfcrypt/src/sha256.c **** 
 335:..\acn-sdk-c\src\wolfSSL/wolfcrypt/src/sha256.c **** 
 336:..\acn-sdk-c\src\wolfSSL/wolfcrypt/src/sha256.c **** #if !defined(FREESCALE_MMCAU)
 337:..\acn-sdk-c\src\wolfSSL/wolfcrypt/src/sha256.c **** static const ALIGN32 word32 K[64] = {
 338:..\acn-sdk-c\src\wolfSSL/wolfcrypt/src/sha256.c ****     0x428A2F98L, 0x71374491L, 0xB5C0FBCFL, 0xE9B5DBA5L, 0x3956C25BL,
 339:..\acn-sdk-c\src\wolfSSL/wolfcrypt/src/sha256.c ****     0x59F111F1L, 0x923F82A4L, 0xAB1C5ED5L, 0xD807AA98L, 0x12835B01L,
 340:..\acn-sdk-c\src\wolfSSL/wolfcrypt/src/sha256.c ****     0x243185BEL, 0x550C7DC3L, 0x72BE5D74L, 0x80DEB1FEL, 0x9BDC06A7L,
 341:..\acn-sdk-c\src\wolfSSL/wolfcrypt/src/sha256.c ****     0xC19BF174L, 0xE49B69C1L, 0xEFBE4786L, 0x0FC19DC6L, 0x240CA1CCL,
 342:..\acn-sdk-c\src\wolfSSL/wolfcrypt/src/sha256.c ****     0x2DE92C6FL, 0x4A7484AAL, 0x5CB0A9DCL, 0x76F988DAL, 0x983E5152L,
 343:..\acn-sdk-c\src\wolfSSL/wolfcrypt/src/sha256.c ****     0xA831C66DL, 0xB00327C8L, 0xBF597FC7L, 0xC6E00BF3L, 0xD5A79147L,
 344:..\acn-sdk-c\src\wolfSSL/wolfcrypt/src/sha256.c ****     0x06CA6351L, 0x14292967L, 0x27B70A85L, 0x2E1B2138L, 0x4D2C6DFCL,
 345:..\acn-sdk-c\src\wolfSSL/wolfcrypt/src/sha256.c ****     0x53380D13L, 0x650A7354L, 0x766A0ABBL, 0x81C2C92EL, 0x92722C85L,
 346:..\acn-sdk-c\src\wolfSSL/wolfcrypt/src/sha256.c ****     0xA2BFE8A1L, 0xA81A664BL, 0xC24B8B70L, 0xC76C51A3L, 0xD192E819L,
 347:..\acn-sdk-c\src\wolfSSL/wolfcrypt/src/sha256.c ****     0xD6990624L, 0xF40E3585L, 0x106AA070L, 0x19A4C116L, 0x1E376C08L,
 348:..\acn-sdk-c\src\wolfSSL/wolfcrypt/src/sha256.c ****     0x2748774CL, 0x34B0BCB5L, 0x391C0CB3L, 0x4ED8AA4AL, 0x5B9CCA4FL,
 349:..\acn-sdk-c\src\wolfSSL/wolfcrypt/src/sha256.c ****     0x682E6FF3L, 0x748F82EEL, 0x78A5636FL, 0x84C87814L, 0x8CC70208L,
 350:..\acn-sdk-c\src\wolfSSL/wolfcrypt/src/sha256.c ****     0x90BEFFFAL, 0xA4506CEBL, 0xBEF9A3F7L, 0xC67178F2L
 351:..\acn-sdk-c\src\wolfSSL/wolfcrypt/src/sha256.c **** };
 352:..\acn-sdk-c\src\wolfSSL/wolfcrypt/src/sha256.c **** 
 353:..\acn-sdk-c\src\wolfSSL/wolfcrypt/src/sha256.c **** #endif
 354:..\acn-sdk-c\src\wolfSSL/wolfcrypt/src/sha256.c **** 
 355:..\acn-sdk-c\src\wolfSSL/wolfcrypt/src/sha256.c **** #if defined(FREESCALE_MMCAU)
ARM GAS  C:\Users\ddemidov\AppData\Local\Temp\ccKvU8Ns.s 			page 11


 356:..\acn-sdk-c\src\wolfSSL/wolfcrypt/src/sha256.c **** 
 357:..\acn-sdk-c\src\wolfSSL/wolfcrypt/src/sha256.c **** static int Transform(Sha256* sha256, byte* buf)
 358:..\acn-sdk-c\src\wolfSSL/wolfcrypt/src/sha256.c **** {
 359:..\acn-sdk-c\src\wolfSSL/wolfcrypt/src/sha256.c ****     int ret = wolfSSL_CryptHwMutexLock();
 360:..\acn-sdk-c\src\wolfSSL/wolfcrypt/src/sha256.c ****     if(ret == 0) {
 361:..\acn-sdk-c\src\wolfSSL/wolfcrypt/src/sha256.c ****         cau_sha256_hash_n(buf, 1, sha256->digest);
 362:..\acn-sdk-c\src\wolfSSL/wolfcrypt/src/sha256.c ****         wolfSSL_CryptHwMutexUnLock();
 363:..\acn-sdk-c\src\wolfSSL/wolfcrypt/src/sha256.c ****     }
 364:..\acn-sdk-c\src\wolfSSL/wolfcrypt/src/sha256.c ****     return ret;
 365:..\acn-sdk-c\src\wolfSSL/wolfcrypt/src/sha256.c **** }
 366:..\acn-sdk-c\src\wolfSSL/wolfcrypt/src/sha256.c **** 
 367:..\acn-sdk-c\src\wolfSSL/wolfcrypt/src/sha256.c **** #endif /* FREESCALE_MMCAU */
 368:..\acn-sdk-c\src\wolfSSL/wolfcrypt/src/sha256.c **** 
 369:..\acn-sdk-c\src\wolfSSL/wolfcrypt/src/sha256.c **** #define Ch(x,y,z)       ((z) ^ ((x) & ((y) ^ (z))))
 370:..\acn-sdk-c\src\wolfSSL/wolfcrypt/src/sha256.c **** #define Maj(x,y,z)      ((((x) | (y)) & (z)) | ((x) & (y)))
 371:..\acn-sdk-c\src\wolfSSL/wolfcrypt/src/sha256.c **** #define R(x, n)         (((x)&0xFFFFFFFFU)>>(n))
 372:..\acn-sdk-c\src\wolfSSL/wolfcrypt/src/sha256.c **** 
 373:..\acn-sdk-c\src\wolfSSL/wolfcrypt/src/sha256.c **** #define S(x, n)         rotrFixed(x, n)
 374:..\acn-sdk-c\src\wolfSSL/wolfcrypt/src/sha256.c **** #define Sigma0(x)       (S(x, 2) ^ S(x, 13) ^ S(x, 22))
 375:..\acn-sdk-c\src\wolfSSL/wolfcrypt/src/sha256.c **** #define Sigma1(x)       (S(x, 6) ^ S(x, 11) ^ S(x, 25))
 376:..\acn-sdk-c\src\wolfSSL/wolfcrypt/src/sha256.c **** #define Gamma0(x)       (S(x, 7) ^ S(x, 18) ^ R(x, 3))
 377:..\acn-sdk-c\src\wolfSSL/wolfcrypt/src/sha256.c **** #define Gamma1(x)       (S(x, 17) ^ S(x, 19) ^ R(x, 10))
 378:..\acn-sdk-c\src\wolfSSL/wolfcrypt/src/sha256.c **** 
 379:..\acn-sdk-c\src\wolfSSL/wolfcrypt/src/sha256.c **** #define RND(a,b,c,d,e,f,g,h,i) \
 380:..\acn-sdk-c\src\wolfSSL/wolfcrypt/src/sha256.c ****      t0 = (h) + Sigma1((e)) + Ch((e), (f), (g)) + K[(i)] + W[(i)]; \
 381:..\acn-sdk-c\src\wolfSSL/wolfcrypt/src/sha256.c ****      t1 = Sigma0((a)) + Maj((a), (b), (c)); \
 382:..\acn-sdk-c\src\wolfSSL/wolfcrypt/src/sha256.c ****      (d) += t0; \
 383:..\acn-sdk-c\src\wolfSSL/wolfcrypt/src/sha256.c ****      (h)  = t0 + t1;
 384:..\acn-sdk-c\src\wolfSSL/wolfcrypt/src/sha256.c **** 
 385:..\acn-sdk-c\src\wolfSSL/wolfcrypt/src/sha256.c **** #if !defined(FREESCALE_MMCAU)
 386:..\acn-sdk-c\src\wolfSSL/wolfcrypt/src/sha256.c **** static int Transform(Sha256* sha256)
 387:..\acn-sdk-c\src\wolfSSL/wolfcrypt/src/sha256.c **** {
 102              		.loc 2 387 0
 103              		.cfi_startproc
 104              	.LVL9:
 105 0000 0023     		mov	r3, #0
 106 0002 F0B5     		push	{r4, r5, r6, r7, lr}
 107              		.cfi_def_cfa_offset 20
 108              		.cfi_offset 4, -20
 109              		.cfi_offset 5, -16
 110              		.cfi_offset 6, -12
 111              		.cfi_offset 7, -8
 112              		.cfi_offset 14, -4
 113 0004 D1B0     		sub	sp, sp, #324
 114              		.cfi_def_cfa_offset 344
 115              		.loc 2 387 0
 116 0006 0790     		str	r0, [sp, #28]
 117              	.LVL10:
 118              	.L9:
 119 0008 079A     		ldr	r2, [sp, #28]
 388:..\acn-sdk-c\src\wolfSSL/wolfcrypt/src/sha256.c ****     word32 S[8], t0, t1;
 389:..\acn-sdk-c\src\wolfSSL/wolfcrypt/src/sha256.c ****     int i;
 390:..\acn-sdk-c\src\wolfSSL/wolfcrypt/src/sha256.c **** 
 391:..\acn-sdk-c\src\wolfSSL/wolfcrypt/src/sha256.c **** #ifdef WOLFSSL_SMALL_STACK
 392:..\acn-sdk-c\src\wolfSSL/wolfcrypt/src/sha256.c ****     word32* W;
 393:..\acn-sdk-c\src\wolfSSL/wolfcrypt/src/sha256.c **** 
 394:..\acn-sdk-c\src\wolfSSL/wolfcrypt/src/sha256.c ****     W = (word32*) XMALLOC(sizeof(word32) * 64, NULL, DYNAMIC_TYPE_TMP_BUFFER);
ARM GAS  C:\Users\ddemidov\AppData\Local\Temp\ccKvU8Ns.s 			page 12


 395:..\acn-sdk-c\src\wolfSSL/wolfcrypt/src/sha256.c ****     if (W == NULL)
 396:..\acn-sdk-c\src\wolfSSL/wolfcrypt/src/sha256.c ****         return MEMORY_E;
 397:..\acn-sdk-c\src\wolfSSL/wolfcrypt/src/sha256.c **** #else
 398:..\acn-sdk-c\src\wolfSSL/wolfcrypt/src/sha256.c ****     word32 W[64];
 399:..\acn-sdk-c\src\wolfSSL/wolfcrypt/src/sha256.c **** #endif
 400:..\acn-sdk-c\src\wolfSSL/wolfcrypt/src/sha256.c **** 
 401:..\acn-sdk-c\src\wolfSSL/wolfcrypt/src/sha256.c ****     /* Copy context->state[] to working vars */
 402:..\acn-sdk-c\src\wolfSSL/wolfcrypt/src/sha256.c ****     for (i = 0; i < 8; i++)
 403:..\acn-sdk-c\src\wolfSSL/wolfcrypt/src/sha256.c ****         S[i] = sha256->digest[i];
 120              		.loc 2 403 0 discriminator 3
 121 000a 08A9     		add	r1, sp, #32
 122 000c D218     		add	r2, r2, r3
 123 000e D268     		ldr	r2, [r2, #12]
 124 0010 5A50     		str	r2, [r3, r1]
 125 0012 0433     		add	r3, r3, #4
 402:..\acn-sdk-c\src\wolfSSL/wolfcrypt/src/sha256.c ****         S[i] = sha256->digest[i];
 126              		.loc 2 402 0 discriminator 3
 127 0014 202B     		cmp	r3, #32
 128 0016 F7D1     		bne	.L9
 129 0018 0023     		mov	r3, #0
 130              	.L10:
 131 001a 079A     		ldr	r2, [sp, #28]
 132 001c D218     		add	r2, r2, r3
 404:..\acn-sdk-c\src\wolfSSL/wolfcrypt/src/sha256.c **** 
 405:..\acn-sdk-c\src\wolfSSL/wolfcrypt/src/sha256.c ****     for (i = 0; i < 16; i++)
 406:..\acn-sdk-c\src\wolfSSL/wolfcrypt/src/sha256.c ****         W[i] = sha256->buffer[i];
 133              		.loc 2 406 0 discriminator 3
 134 001e D16A     		ldr	r1, [r2, #44]
 135 0020 10AA     		add	r2, sp, #64
 136 0022 9950     		str	r1, [r3, r2]
 137 0024 0433     		add	r3, r3, #4
 405:..\acn-sdk-c\src\wolfSSL/wolfcrypt/src/sha256.c ****         W[i] = sha256->buffer[i];
 138              		.loc 2 405 0 discriminator 3
 139 0026 402B     		cmp	r3, #64
 140 0028 F7D1     		bne	.L10
 141 002a 11AB     		add	r3, sp, #68
 142 002c 9C46     		mov	ip, r3
 405:..\acn-sdk-c\src\wolfSSL/wolfcrypt/src/sha256.c ****         W[i] = sha256->buffer[i];
 143              		.loc 2 405 0 is_stmt 0
 144 002e 191C     		mov	r1, r3
 145 0030 41A8     		add	r0, sp, #260
 146              	.LVL11:
 147              	.L11:
 148 0032 0C1F     		sub	r4, r1, #4
 407:..\acn-sdk-c\src\wolfSSL/wolfcrypt/src/sha256.c **** 
 408:..\acn-sdk-c\src\wolfSSL/wolfcrypt/src/sha256.c ****     for (i = 16; i < 64; i++)
 409:..\acn-sdk-c\src\wolfSSL/wolfcrypt/src/sha256.c ****         W[i] = Gamma1(W[i-2]) + W[i-7] + Gamma0(W[i-15]) + W[i-16];
 149              		.loc 2 409 0 is_stmt 1 discriminator 3
 150 0034 4A6B     		ldr	r2, [r1, #52]
 151              	.LVL12:
 152 0036 0D6A     		ldr	r5, [r1, #32]
 153 0038 2468     		ldr	r4, [r4]
 154              	.LBB122:
 155              	.LBB123:
  76:..\acn-sdk-c\src\wolfSSL/wolfcrypt/src/misc.c ****     }
 156              		.loc 1 76 0 discriminator 3
 157 003a 161C     		mov	r6, r2
ARM GAS  C:\Users\ddemidov\AppData\Local\Temp\ccKvU8Ns.s 			page 13


 158 003c 6419     		add	r4, r4, r5
 159 003e 1325     		mov	r5, #19
 160              	.LBE123:
 161              	.LBE122:
 162              	.LBB125:
 163              	.LBB126:
 164 0040 171C     		mov	r7, r2
 165              	.LBE126:
 166              	.LBE125:
 167              	.LBB128:
 168              	.LBB124:
 169 0042 EE41     		ror	r6, r6, r5
 170              	.LBE124:
 171              	.LBE128:
 172              	.LBB129:
 173              	.LBB127:
 174 0044 023D     		sub	r5, r5, #2
 175 0046 EF41     		ror	r7, r7, r5
 176 0048 3D1C     		mov	r5, r7
 177              	.LBE127:
 178              	.LBE129:
 179              		.loc 2 409 0 discriminator 3
 180 004a 0B68     		ldr	r3, [r1]
 181              	.LVL13:
 182 004c 7540     		eor	r5, r6
 183 004e 920A     		lsr	r2, r2, #10
 184              	.LVL14:
 185 0050 6A40     		eor	r2, r5
 186 0052 A218     		add	r2, r4, r2
 187              	.LBB130:
 188              	.LBB131:
  76:..\acn-sdk-c\src\wolfSSL/wolfcrypt/src/misc.c ****     }
 189              		.loc 1 76 0 discriminator 3
 190 0054 1D1C     		mov	r5, r3
 191 0056 1224     		mov	r4, #18
 192              	.LBE131:
 193              	.LBE130:
 194              	.LBB133:
 195              	.LBB134:
 196 0058 1E1C     		mov	r6, r3
 197              	.LBE134:
 198              	.LBE133:
 199              	.LBB136:
 200              	.LBB132:
 201 005a E541     		ror	r5, r5, r4
 202              	.LBE132:
 203              	.LBE136:
 204              	.LBB137:
 205              	.LBB135:
 206 005c 0B3C     		sub	r4, r4, #11
 207 005e E641     		ror	r6, r6, r4
 208 0060 341C     		mov	r4, r6
 209              	.LBE135:
 210              	.LBE137:
 211              		.loc 2 409 0 discriminator 3
 212 0062 DB08     		lsr	r3, r3, #3
 213              	.LVL15:
ARM GAS  C:\Users\ddemidov\AppData\Local\Temp\ccKvU8Ns.s 			page 14


 214 0064 6C40     		eor	r4, r5
 215 0066 6340     		eor	r3, r4
 216 0068 D318     		add	r3, r2, r3
 217 006a CB63     		str	r3, [r1, #60]
 218 006c 0431     		add	r1, r1, #4
 219              	.LVL16:
 408:..\acn-sdk-c\src\wolfSSL/wolfcrypt/src/sha256.c ****         W[i] = Gamma1(W[i-2]) + W[i-7] + Gamma0(W[i-15]) + W[i-16];
 220              		.loc 2 408 0 discriminator 3
 221 006e 8142     		cmp	r1, r0
 222 0070 DFD1     		bne	.L11
 223 0072 0F9B     		ldr	r3, [sp, #60]
 224 0074 DD4F     		ldr	r7, .L14
 225 0076 0293     		str	r3, [sp, #8]
 226 0078 0E9B     		ldr	r3, [sp, #56]
 227 007a 0B9A     		ldr	r2, [sp, #44]
 228 007c 0393     		str	r3, [sp, #12]
 229 007e 0D9B     		ldr	r3, [sp, #52]
 230 0080 0A99     		ldr	r1, [sp, #40]
 231              	.LVL17:
 232 0082 0493     		str	r3, [sp, #16]
 233 0084 0C9B     		ldr	r3, [sp, #48]
 234 0086 0998     		ldr	r0, [sp, #36]
 235 0088 0193     		str	r3, [sp, #4]
 236 008a 3B1D     		add	r3, r7, #4
 237 008c 0593     		str	r3, [sp, #20]
 408:..\acn-sdk-c\src\wolfSSL/wolfcrypt/src/sha256.c ****         W[i] = Gamma1(W[i-2]) + W[i-7] + Gamma0(W[i-15]) + W[i-16];
 238              		.loc 2 408 0 is_stmt 0
 239 008e 0023     		mov	r3, #0
 240 0090 089C     		ldr	r4, [sp, #32]
 241 0092 0693     		str	r3, [sp, #24]
 242              	.L12:
 243              	.LVL18:
 244 0094 069D     		ldr	r5, [sp, #24]
 410:..\acn-sdk-c\src\wolfSSL/wolfcrypt/src/sha256.c **** 
 411:..\acn-sdk-c\src\wolfSSL/wolfcrypt/src/sha256.c ****     for (i = 0; i < 64; i += 8) {
 412:..\acn-sdk-c\src\wolfSSL/wolfcrypt/src/sha256.c ****         RND(S[0],S[1],S[2],S[3],S[4],S[5],S[6],S[7],i+0);
 245              		.loc 2 412 0 is_stmt 1 discriminator 3
 246 0096 10AB     		add	r3, sp, #64
 247 0098 ED58     		ldr	r5, [r5, r3]
 248 009a 069E     		ldr	r6, [sp, #24]
 249 009c D34B     		ldr	r3, .L14
 250              	.LBB138:
 251              	.LBB139:
  76:..\acn-sdk-c\src\wolfSSL/wolfcrypt/src/misc.c ****     }
 252              		.loc 1 76 0 discriminator 3
 253 009e 0627     		mov	r7, #6
 254 00a0 F358     		ldr	r3, [r6, r3]
 255              	.LBE139:
 256              	.LBE138:
 257              	.LBB141:
 258              	.LBB142:
 259 00a2 019E     		ldr	r6, [sp, #4]
 260 00a4 EB18     		add	r3, r5, r3
 261 00a6 0B25     		mov	r5, #11
 262 00a8 EE41     		ror	r6, r6, r5
 263              	.LBE142:
 264              	.LBE141:
ARM GAS  C:\Users\ddemidov\AppData\Local\Temp\ccKvU8Ns.s 			page 15


 265              	.LBB143:
 266              	.LBB140:
 267 00aa 019D     		ldr	r5, [sp, #4]
 268 00ac FD41     		ror	r5, r5, r7
 269              	.LBE140:
 270              	.LBE143:
 271              		.loc 2 412 0 discriminator 3
 272 00ae 7540     		eor	r5, r6
 273              	.LBB144:
 274              	.LBB145:
  76:..\acn-sdk-c\src\wolfSSL/wolfcrypt/src/misc.c ****     }
 275              		.loc 1 76 0 discriminator 3
 276 00b0 019E     		ldr	r6, [sp, #4]
 277 00b2 1337     		add	r7, r7, #19
 278 00b4 FE41     		ror	r6, r6, r7
 279              	.LBE145:
 280              	.LBE144:
 281              		.loc 2 412 0 discriminator 3
 282 00b6 6E40     		eor	r6, r5
 283 00b8 9E19     		add	r6, r3, r6
 284 00ba 039D     		ldr	r5, [sp, #12]
 285 00bc 049B     		ldr	r3, [sp, #16]
 286              	.LBB146:
 287              	.LBB147:
  76:..\acn-sdk-c\src\wolfSSL/wolfcrypt/src/misc.c ****     }
 288              		.loc 1 76 0 discriminator 3
 289 00be 173F     		sub	r7, r7, #23
 290              	.LBE147:
 291              	.LBE146:
 292              		.loc 2 412 0 discriminator 3
 293 00c0 5D40     		eor	r5, r3
 294 00c2 019B     		ldr	r3, [sp, #4]
 295 00c4 1D40     		and	r5, r3
 296 00c6 039B     		ldr	r3, [sp, #12]
 297 00c8 5D40     		eor	r5, r3
 298 00ca 029B     		ldr	r3, [sp, #8]
 299 00cc 7519     		add	r5, r6, r5
 300 00ce ED18     		add	r5, r5, r3
 301              	.LVL19:
 302 00d0 5319     		add	r3, r2, r5
 303 00d2 061C     		mov	r6, r0
 304 00d4 0293     		str	r3, [sp, #8]
 305 00d6 231C     		mov	r3, r4
 306 00d8 2643     		orr	r6, r4
 307 00da 0340     		and	r3, r0
 308 00dc 0E40     		and	r6, r1
 309 00de 1E43     		orr	r6, r3
 310              	.LBB149:
 311              	.LBB150:
  76:..\acn-sdk-c\src\wolfSSL/wolfcrypt/src/misc.c ****     }
 312              		.loc 1 76 0 discriminator 3
 313 00e0 221C     		mov	r2, r4
 314 00e2 0D23     		mov	r3, #13
 315 00e4 DA41     		ror	r2, r2, r3
 316              	.LBE150:
 317              	.LBE149:
 318              	.LBB151:
ARM GAS  C:\Users\ddemidov\AppData\Local\Temp\ccKvU8Ns.s 			page 16


 319              	.LBB148:
 320 00e6 231C     		mov	r3, r4
 321 00e8 FB41     		ror	r3, r3, r7
 322              	.LBE148:
 323              	.LBE151:
 324              		.loc 2 412 0 discriminator 3
 325 00ea 5340     		eor	r3, r2
 326              	.LBB152:
 327              	.LBB153:
  76:..\acn-sdk-c\src\wolfSSL/wolfcrypt/src/misc.c ****     }
 328              		.loc 1 76 0 discriminator 3
 329 00ec 221C     		mov	r2, r4
 330 00ee 1437     		add	r7, r7, #20
 331 00f0 FA41     		ror	r2, r2, r7
 332              	.LBE153:
 333              	.LBE152:
 334              		.loc 2 412 0 discriminator 3
 335 00f2 5A40     		eor	r2, r3
 336 00f4 B318     		add	r3, r6, r2
 337 00f6 6246     		mov	r2, ip
 338 00f8 5B19     		add	r3, r3, r5
 339              	.LVL20:
 340 00fa 059D     		ldr	r5, [sp, #20]
 341              	.LVL21:
 342 00fc 1268     		ldr	r2, [r2]
 343 00fe 2D68     		ldr	r5, [r5]
 413:..\acn-sdk-c\src\wolfSSL/wolfcrypt/src/sha256.c ****         RND(S[7],S[0],S[1],S[2],S[3],S[4],S[5],S[6],i+1);
 344              		.loc 2 413 0 discriminator 3
 345 0100 019E     		ldr	r6, [sp, #4]
 346 0102 AA18     		add	r2, r5, r2
 347 0104 039D     		ldr	r5, [sp, #12]
 348              	.LBB154:
 349              	.LBB155:
  76:..\acn-sdk-c\src\wolfSSL/wolfcrypt/src/misc.c ****     }
 350              		.loc 1 76 0 discriminator 3
 351 0106 103F     		sub	r7, r7, #16
 352 0108 5519     		add	r5, r2, r5
 353              	.LBE155:
 354              	.LBE154:
 355              		.loc 2 413 0 discriminator 3
 356 010a 049A     		ldr	r2, [sp, #16]
 357 010c 7240     		eor	r2, r6
 358 010e 029E     		ldr	r6, [sp, #8]
 359 0110 3240     		and	r2, r6
 360 0112 049E     		ldr	r6, [sp, #16]
 361 0114 7240     		eor	r2, r6
 362 0116 AA18     		add	r2, r5, r2
 363              	.LBB157:
 364              	.LBB158:
  76:..\acn-sdk-c\src\wolfSSL/wolfcrypt/src/misc.c ****     }
 365              		.loc 1 76 0 discriminator 3
 366 0118 0B25     		mov	r5, #11
 367 011a 029E     		ldr	r6, [sp, #8]
 368 011c EE41     		ror	r6, r6, r5
 369              	.LBE158:
 370              	.LBE157:
 371              	.LBB159:
ARM GAS  C:\Users\ddemidov\AppData\Local\Temp\ccKvU8Ns.s 			page 17


 372              	.LBB156:
 373 011e 029D     		ldr	r5, [sp, #8]
 374 0120 FD41     		ror	r5, r5, r7
 375              	.LBE156:
 376              	.LBE159:
 377              		.loc 2 413 0 discriminator 3
 378 0122 6E40     		eor	r6, r5
 379              	.LBB160:
 380              	.LBB161:
  76:..\acn-sdk-c\src\wolfSSL/wolfcrypt/src/misc.c ****     }
 381              		.loc 1 76 0 discriminator 3
 382 0124 029D     		ldr	r5, [sp, #8]
 383 0126 1337     		add	r7, r7, #19
 384 0128 FD41     		ror	r5, r5, r7
 385              	.LBE161:
 386              	.LBE160:
 387              		.loc 2 413 0 discriminator 3
 388 012a 6E40     		eor	r6, r5
 389 012c 1D1C     		mov	r5, r3
 390 012e 9219     		add	r2, r2, r6
 391              	.LVL22:
 392 0130 261C     		mov	r6, r4
 393 0132 2543     		orr	r5, r4
 394 0134 5118     		add	r1, r2, r1
 395 0136 1E40     		and	r6, r3
 396 0138 0540     		and	r5, r0
 397 013a 0391     		str	r1, [sp, #12]
 398 013c 3543     		orr	r5, r6
 399              	.LBB162:
 400              	.LBB163:
  76:..\acn-sdk-c\src\wolfSSL/wolfcrypt/src/misc.c ****     }
 401              		.loc 1 76 0 discriminator 3
 402 013e 0D21     		mov	r1, #13
 403 0140 1E1C     		mov	r6, r3
 404 0142 CE41     		ror	r6, r6, r1
 405              	.LBE163:
 406              	.LBE162:
 407              	.LBB164:
 408              	.LBB165:
 409 0144 191C     		mov	r1, r3
 410 0146 173F     		sub	r7, r7, #23
 411 0148 F941     		ror	r1, r1, r7
 412              	.LBE165:
 413              	.LBE164:
 414              		.loc 2 413 0 discriminator 3
 415 014a 4E40     		eor	r6, r1
 416              	.LBB166:
 417              	.LBB167:
  76:..\acn-sdk-c\src\wolfSSL/wolfcrypt/src/misc.c ****     }
 418              		.loc 1 76 0 discriminator 3
 419 014c 191C     		mov	r1, r3
 420 014e 1437     		add	r7, r7, #20
 421 0150 F941     		ror	r1, r1, r7
 422              	.LBE167:
 423              	.LBE166:
 424              		.loc 2 413 0 discriminator 3
 425 0152 7140     		eor	r1, r6
ARM GAS  C:\Users\ddemidov\AppData\Local\Temp\ccKvU8Ns.s 			page 18


 426 0154 6E18     		add	r6, r5, r1
 427 0156 B618     		add	r6, r6, r2
 428              	.LVL23:
 429 0158 6246     		mov	r2, ip
 430              	.LVL24:
 431 015a 0599     		ldr	r1, [sp, #20]
 432 015c 5268     		ldr	r2, [r2, #4]
 433 015e 4968     		ldr	r1, [r1, #4]
 414:..\acn-sdk-c\src\wolfSSL/wolfcrypt/src/sha256.c ****         RND(S[6],S[7],S[0],S[1],S[2],S[3],S[4],S[5],i+2);
 434              		.loc 2 414 0 discriminator 3
 435 0160 029D     		ldr	r5, [sp, #8]
 436 0162 8A18     		add	r2, r1, r2
 437 0164 0499     		ldr	r1, [sp, #16]
 438              	.LBB168:
 439              	.LBB169:
  76:..\acn-sdk-c\src\wolfSSL/wolfcrypt/src/misc.c ****     }
 440              		.loc 1 76 0 discriminator 3
 441 0166 103F     		sub	r7, r7, #16
 442 0168 5118     		add	r1, r2, r1
 443              	.LBE169:
 444              	.LBE168:
 445              		.loc 2 414 0 discriminator 3
 446 016a 019A     		ldr	r2, [sp, #4]
 447 016c 6A40     		eor	r2, r5
 448 016e 039D     		ldr	r5, [sp, #12]
 449 0170 2A40     		and	r2, r5
 450 0172 019D     		ldr	r5, [sp, #4]
 451 0174 6A40     		eor	r2, r5
 452 0176 8A18     		add	r2, r1, r2
 453              	.LBB171:
 454              	.LBB172:
  76:..\acn-sdk-c\src\wolfSSL/wolfcrypt/src/misc.c ****     }
 455              		.loc 1 76 0 discriminator 3
 456 0178 0B21     		mov	r1, #11
 457 017a 039D     		ldr	r5, [sp, #12]
 458 017c CD41     		ror	r5, r5, r1
 459              	.LBE172:
 460              	.LBE171:
 461              	.LBB173:
 462              	.LBB170:
 463 017e 0399     		ldr	r1, [sp, #12]
 464 0180 F941     		ror	r1, r1, r7
 465              	.LBE170:
 466              	.LBE173:
 467              		.loc 2 414 0 discriminator 3
 468 0182 6940     		eor	r1, r5
 469              	.LBB174:
 470              	.LBB175:
  76:..\acn-sdk-c\src\wolfSSL/wolfcrypt/src/misc.c ****     }
 471              		.loc 1 76 0 discriminator 3
 472 0184 039D     		ldr	r5, [sp, #12]
 473 0186 1337     		add	r7, r7, #19
 474 0188 FD41     		ror	r5, r5, r7
 475              	.LBE175:
 476              	.LBE174:
 477              		.loc 2 414 0 discriminator 3
 478 018a 6940     		eor	r1, r5
ARM GAS  C:\Users\ddemidov\AppData\Local\Temp\ccKvU8Ns.s 			page 19


 479 018c 5118     		add	r1, r2, r1
 480              	.LVL25:
 481 018e 351C     		mov	r5, r6
 482 0190 0A18     		add	r2, r1, r0
 483 0192 181C     		mov	r0, r3
 484 0194 1D43     		orr	r5, r3
 485 0196 3040     		and	r0, r6
 486 0198 2540     		and	r5, r4
 487 019a 0492     		str	r2, [sp, #16]
 488 019c 0543     		orr	r5, r0
 489              	.LBB176:
 490              	.LBB177:
  76:..\acn-sdk-c\src\wolfSSL/wolfcrypt/src/misc.c ****     }
 491              		.loc 1 76 0 discriminator 3
 492 019e 0D22     		mov	r2, #13
 493 01a0 301C     		mov	r0, r6
 494 01a2 D041     		ror	r0, r0, r2
 495              	.LBE177:
 496              	.LBE176:
 497              	.LBB178:
 498              	.LBB179:
 499 01a4 321C     		mov	r2, r6
 500 01a6 173F     		sub	r7, r7, #23
 501 01a8 FA41     		ror	r2, r2, r7
 502              	.LBE179:
 503              	.LBE178:
 504              		.loc 2 414 0 discriminator 3
 505 01aa 5040     		eor	r0, r2
 506              	.LBB180:
 507              	.LBB181:
  76:..\acn-sdk-c\src\wolfSSL/wolfcrypt/src/misc.c ****     }
 508              		.loc 1 76 0 discriminator 3
 509 01ac 321C     		mov	r2, r6
 510 01ae 1437     		add	r7, r7, #20
 511 01b0 FA41     		ror	r2, r2, r7
 512              	.LBE181:
 513              	.LBE180:
 514              		.loc 2 414 0 discriminator 3
 515 01b2 4240     		eor	r2, r0
 516 01b4 A818     		add	r0, r5, r2
 517 01b6 6246     		mov	r2, ip
 518 01b8 4018     		add	r0, r0, r1
 519              	.LVL26:
 520 01ba 0599     		ldr	r1, [sp, #20]
 521              	.LVL27:
 522 01bc 9268     		ldr	r2, [r2, #8]
 523 01be 8968     		ldr	r1, [r1, #8]
 524              	.LBB182:
 525              	.LBB183:
  76:..\acn-sdk-c\src\wolfSSL/wolfcrypt/src/misc.c ****     }
 526              		.loc 1 76 0 discriminator 3
 527 01c0 103F     		sub	r7, r7, #16
 528 01c2 8D18     		add	r5, r1, r2
 529 01c4 019A     		ldr	r2, [sp, #4]
 530              	.LBE183:
 531              	.LBE182:
 415:..\acn-sdk-c\src\wolfSSL/wolfcrypt/src/sha256.c ****         RND(S[5],S[6],S[7],S[0],S[1],S[2],S[3],S[4],i+3);
ARM GAS  C:\Users\ddemidov\AppData\Local\Temp\ccKvU8Ns.s 			page 20


 532              		.loc 2 415 0 discriminator 3
 533 01c6 0399     		ldr	r1, [sp, #12]
 534 01c8 AD18     		add	r5, r5, r2
 535 01ca 029A     		ldr	r2, [sp, #8]
 536 01cc 4A40     		eor	r2, r1
 537 01ce 0499     		ldr	r1, [sp, #16]
 538 01d0 0A40     		and	r2, r1
 539 01d2 0299     		ldr	r1, [sp, #8]
 540 01d4 4A40     		eor	r2, r1
 541              	.LBB185:
 542              	.LBB186:
  76:..\acn-sdk-c\src\wolfSSL/wolfcrypt/src/misc.c ****     }
 543              		.loc 1 76 0 discriminator 3
 544 01d6 0B21     		mov	r1, #11
 545 01d8 AA18     		add	r2, r5, r2
 546 01da 049D     		ldr	r5, [sp, #16]
 547 01dc CD41     		ror	r5, r5, r1
 548              	.LBE186:
 549              	.LBE185:
 550              	.LBB187:
 551              	.LBB184:
 552 01de 0499     		ldr	r1, [sp, #16]
 553 01e0 F941     		ror	r1, r1, r7
 554              	.LBE184:
 555              	.LBE187:
 556              		.loc 2 415 0 discriminator 3
 557 01e2 4D40     		eor	r5, r1
 558              	.LBB188:
 559              	.LBB189:
  76:..\acn-sdk-c\src\wolfSSL/wolfcrypt/src/misc.c ****     }
 560              		.loc 1 76 0 discriminator 3
 561 01e4 0499     		ldr	r1, [sp, #16]
 562 01e6 1337     		add	r7, r7, #19
 563 01e8 F941     		ror	r1, r1, r7
 564              	.LBE189:
 565              	.LBE188:
 566              		.loc 2 415 0 discriminator 3
 567 01ea 4D40     		eor	r5, r1
 568 01ec 5219     		add	r2, r2, r5
 569              	.LVL28:
 570 01ee 1119     		add	r1, r2, r4
 571 01f0 041C     		mov	r4, r0
 572              	.LVL29:
 573 01f2 351C     		mov	r5, r6
 574 01f4 3443     		orr	r4, r6
 575 01f6 0540     		and	r5, r0
 576 01f8 1C40     		and	r4, r3
 577 01fa 0191     		str	r1, [sp, #4]
 578              	.LVL30:
 579 01fc 2C43     		orr	r4, r5
 580              	.LBB190:
 581              	.LBB191:
  76:..\acn-sdk-c\src\wolfSSL/wolfcrypt/src/misc.c ****     }
 582              		.loc 1 76 0 discriminator 3
 583 01fe 0D21     		mov	r1, #13
 584 0200 051C     		mov	r5, r0
 585 0202 CD41     		ror	r5, r5, r1
ARM GAS  C:\Users\ddemidov\AppData\Local\Temp\ccKvU8Ns.s 			page 21


 586              	.LBE191:
 587              	.LBE190:
 588              	.LBB192:
 589              	.LBB193:
 590 0204 011C     		mov	r1, r0
 591 0206 173F     		sub	r7, r7, #23
 592 0208 F941     		ror	r1, r1, r7
 593              	.LBE193:
 594              	.LBE192:
 595              		.loc 2 415 0 discriminator 3
 596 020a 4D40     		eor	r5, r1
 597              	.LBB194:
 598              	.LBB195:
  76:..\acn-sdk-c\src\wolfSSL/wolfcrypt/src/misc.c ****     }
 599              		.loc 1 76 0 discriminator 3
 600 020c 011C     		mov	r1, r0
 601 020e 1437     		add	r7, r7, #20
 602 0210 F941     		ror	r1, r1, r7
 603              	.LBE195:
 604              	.LBE194:
 605              		.loc 2 415 0 discriminator 3
 606 0212 6940     		eor	r1, r5
 607 0214 6518     		add	r5, r4, r1
 608 0216 AD18     		add	r5, r5, r2
 609              	.LVL31:
 610 0218 6246     		mov	r2, ip
 611              	.LVL32:
 612 021a 0599     		ldr	r1, [sp, #20]
 613 021c D268     		ldr	r2, [r2, #12]
 614 021e C968     		ldr	r1, [r1, #12]
 615              	.LBB196:
 616              	.LBB197:
  76:..\acn-sdk-c\src\wolfSSL/wolfcrypt/src/misc.c ****     }
 617              		.loc 1 76 0 discriminator 3
 618 0220 103F     		sub	r7, r7, #16
 619 0222 5118     		add	r1, r2, r1
 620 0224 029A     		ldr	r2, [sp, #8]
 621 0226 8C18     		add	r4, r1, r2
 622              	.LBE197:
 623              	.LBE196:
 416:..\acn-sdk-c\src\wolfSSL/wolfcrypt/src/sha256.c ****         RND(S[4],S[5],S[6],S[7],S[0],S[1],S[2],S[3],i+4);
 624              		.loc 2 416 0 discriminator 3
 625 0228 049A     		ldr	r2, [sp, #16]
 626 022a 0399     		ldr	r1, [sp, #12]
 627 022c 5140     		eor	r1, r2
 628 022e 019A     		ldr	r2, [sp, #4]
 629 0230 1140     		and	r1, r2
 630 0232 039A     		ldr	r2, [sp, #12]
 631 0234 5140     		eor	r1, r2
 632              	.LBB199:
 633              	.LBB200:
  76:..\acn-sdk-c\src\wolfSSL/wolfcrypt/src/misc.c ****     }
 634              		.loc 1 76 0 discriminator 3
 635 0236 0B22     		mov	r2, #11
 636 0238 6118     		add	r1, r4, r1
 637 023a 019C     		ldr	r4, [sp, #4]
 638 023c D441     		ror	r4, r4, r2
ARM GAS  C:\Users\ddemidov\AppData\Local\Temp\ccKvU8Ns.s 			page 22


 639              	.LBE200:
 640              	.LBE199:
 641              	.LBB201:
 642              	.LBB198:
 643 023e 019A     		ldr	r2, [sp, #4]
 644 0240 FA41     		ror	r2, r2, r7
 645              	.LBE198:
 646              	.LBE201:
 647              		.loc 2 416 0 discriminator 3
 648 0242 6240     		eor	r2, r4
 649              	.LBB202:
 650              	.LBB203:
  76:..\acn-sdk-c\src\wolfSSL/wolfcrypt/src/misc.c ****     }
 651              		.loc 1 76 0 discriminator 3
 652 0244 019C     		ldr	r4, [sp, #4]
 653 0246 1337     		add	r7, r7, #19
 654 0248 FC41     		ror	r4, r4, r7
 655              	.LBE203:
 656              	.LBE202:
 657              		.loc 2 416 0 discriminator 3
 658 024a 6240     		eor	r2, r4
 659 024c 2C1C     		mov	r4, r5
 660 024e 8918     		add	r1, r1, r2
 661              	.LVL33:
 662 0250 021C     		mov	r2, r0
 663 0252 0443     		orr	r4, r0
 664              	.LVL34:
 665 0254 CB18     		add	r3, r1, r3
 666              	.LVL35:
 667 0256 2A40     		and	r2, r5
 668 0258 3440     		and	r4, r6
 669 025a 1443     		orr	r4, r2
 670 025c 0293     		str	r3, [sp, #8]
 671              	.LVL36:
 672              	.LBB204:
 673              	.LBB205:
  76:..\acn-sdk-c\src\wolfSSL/wolfcrypt/src/misc.c ****     }
 674              		.loc 1 76 0 discriminator 3
 675 025e 2A1C     		mov	r2, r5
 676 0260 0D23     		mov	r3, #13
 677 0262 DA41     		ror	r2, r2, r3
 678              	.LBE205:
 679              	.LBE204:
 680              	.LBB206:
 681              	.LBB207:
 682 0264 2B1C     		mov	r3, r5
 683 0266 173F     		sub	r7, r7, #23
 684 0268 FB41     		ror	r3, r3, r7
 685              	.LBE207:
 686              	.LBE206:
 687              		.loc 2 416 0 discriminator 3
 688 026a 5A40     		eor	r2, r3
 689              	.LBB208:
 690              	.LBB209:
  76:..\acn-sdk-c\src\wolfSSL/wolfcrypt/src/misc.c ****     }
 691              		.loc 1 76 0 discriminator 3
 692 026c 2B1C     		mov	r3, r5
ARM GAS  C:\Users\ddemidov\AppData\Local\Temp\ccKvU8Ns.s 			page 23


 693 026e 1437     		add	r7, r7, #20
 694 0270 FB41     		ror	r3, r3, r7
 695              	.LBE209:
 696              	.LBE208:
 697              		.loc 2 416 0 discriminator 3
 698 0272 5340     		eor	r3, r2
 699 0274 E218     		add	r2, r4, r3
 700 0276 6346     		mov	r3, ip
 701 0278 5218     		add	r2, r2, r1
 702              	.LVL37:
 703 027a 0599     		ldr	r1, [sp, #20]
 704              	.LVL38:
 705 027c 1B69     		ldr	r3, [r3, #16]
 706 027e 0969     		ldr	r1, [r1, #16]
 707              	.LBB210:
 708              	.LBB211:
  76:..\acn-sdk-c\src\wolfSSL/wolfcrypt/src/misc.c ****     }
 709              		.loc 1 76 0 discriminator 3
 710 0280 103F     		sub	r7, r7, #16
 711 0282 5918     		add	r1, r3, r1
 712 0284 039B     		ldr	r3, [sp, #12]
 713 0286 C918     		add	r1, r1, r3
 714              	.LBE211:
 715              	.LBE210:
 417:..\acn-sdk-c\src\wolfSSL/wolfcrypt/src/sha256.c ****         RND(S[3],S[4],S[5],S[6],S[7],S[0],S[1],S[2],i+5);
 716              		.loc 2 417 0 discriminator 3
 717 0288 049B     		ldr	r3, [sp, #16]
 718 028a 019C     		ldr	r4, [sp, #4]
 719 028c 6340     		eor	r3, r4
 720 028e 029C     		ldr	r4, [sp, #8]
 721 0290 2340     		and	r3, r4
 722 0292 049C     		ldr	r4, [sp, #16]
 723 0294 6340     		eor	r3, r4
 724 0296 CC18     		add	r4, r1, r3
 725              	.LBB213:
 726              	.LBB214:
  76:..\acn-sdk-c\src\wolfSSL/wolfcrypt/src/misc.c ****     }
 727              		.loc 1 76 0 discriminator 3
 728 0298 0B23     		mov	r3, #11
 729 029a 0299     		ldr	r1, [sp, #8]
 730 029c D941     		ror	r1, r1, r3
 731              	.LBE214:
 732              	.LBE213:
 733              	.LBB215:
 734              	.LBB212:
 735 029e 029B     		ldr	r3, [sp, #8]
 736 02a0 FB41     		ror	r3, r3, r7
 737              	.LBE212:
 738              	.LBE215:
 739              		.loc 2 417 0 discriminator 3
 740 02a2 5940     		eor	r1, r3
 741              	.LBB216:
 742              	.LBB217:
  76:..\acn-sdk-c\src\wolfSSL/wolfcrypt/src/misc.c ****     }
 743              		.loc 1 76 0 discriminator 3
 744 02a4 029B     		ldr	r3, [sp, #8]
 745 02a6 1337     		add	r7, r7, #19
ARM GAS  C:\Users\ddemidov\AppData\Local\Temp\ccKvU8Ns.s 			page 24


 746 02a8 FB41     		ror	r3, r3, r7
 747              	.LBE217:
 748              	.LBE216:
 749              		.loc 2 417 0 discriminator 3
 750 02aa 4B40     		eor	r3, r1
 751 02ac E318     		add	r3, r4, r3
 752              	.LVL39:
 753 02ae 9919     		add	r1, r3, r6
 754 02b0 161C     		mov	r6, r2
 755              	.LVL40:
 756 02b2 0391     		str	r1, [sp, #12]
 757              	.LVL41:
 758 02b4 291C     		mov	r1, r5
 759 02b6 2E43     		orr	r6, r5
 760 02b8 0640     		and	r6, r0
 761 02ba 1140     		and	r1, r2
 762 02bc 0E43     		orr	r6, r1
 763              	.LBB218:
 764              	.LBB219:
  76:..\acn-sdk-c\src\wolfSSL/wolfcrypt/src/misc.c ****     }
 765              		.loc 1 76 0 discriminator 3
 766 02be 141C     		mov	r4, r2
 767 02c0 0D21     		mov	r1, #13
 768 02c2 CC41     		ror	r4, r4, r1
 769              	.LBE219:
 770              	.LBE218:
 771              	.LBB220:
 772              	.LBB221:
 773 02c4 111C     		mov	r1, r2
 774 02c6 173F     		sub	r7, r7, #23
 775 02c8 F941     		ror	r1, r1, r7
 776              	.LBE221:
 777              	.LBE220:
 778              		.loc 2 417 0 discriminator 3
 779 02ca 6140     		eor	r1, r4
 780              	.LBB222:
 781              	.LBB223:
  76:..\acn-sdk-c\src\wolfSSL/wolfcrypt/src/misc.c ****     }
 782              		.loc 1 76 0 discriminator 3
 783 02cc 141C     		mov	r4, r2
 784 02ce 1437     		add	r7, r7, #20
 785 02d0 FC41     		ror	r4, r4, r7
 786              	.LBE223:
 787              	.LBE222:
 788              		.loc 2 417 0 discriminator 3
 789 02d2 4C40     		eor	r4, r1
 790 02d4 3119     		add	r1, r6, r4
 791 02d6 C918     		add	r1, r1, r3
 792              	.LVL42:
 793 02d8 6346     		mov	r3, ip
 794              	.LVL43:
 795 02da 059C     		ldr	r4, [sp, #20]
 796 02dc 5B69     		ldr	r3, [r3, #20]
 797 02de 6469     		ldr	r4, [r4, #20]
 798              	.LBB224:
 799              	.LBB225:
  76:..\acn-sdk-c\src\wolfSSL/wolfcrypt/src/misc.c ****     }
ARM GAS  C:\Users\ddemidov\AppData\Local\Temp\ccKvU8Ns.s 			page 25


 800              		.loc 1 76 0 discriminator 3
 801 02e0 103F     		sub	r7, r7, #16
 802 02e2 1C19     		add	r4, r3, r4
 803 02e4 049B     		ldr	r3, [sp, #16]
 804 02e6 E618     		add	r6, r4, r3
 805              	.LBE225:
 806              	.LBE224:
 418:..\acn-sdk-c\src\wolfSSL/wolfcrypt/src/sha256.c ****         RND(S[2],S[3],S[4],S[5],S[6],S[7],S[0],S[1],i+6);
 807              		.loc 2 418 0 discriminator 3
 808 02e8 019B     		ldr	r3, [sp, #4]
 809 02ea 029C     		ldr	r4, [sp, #8]
 810 02ec 6340     		eor	r3, r4
 811 02ee 039C     		ldr	r4, [sp, #12]
 812 02f0 2340     		and	r3, r4
 813 02f2 019C     		ldr	r4, [sp, #4]
 814 02f4 6340     		eor	r3, r4
 815 02f6 F418     		add	r4, r6, r3
 816              	.LBB227:
 817              	.LBB228:
  76:..\acn-sdk-c\src\wolfSSL/wolfcrypt/src/misc.c ****     }
 818              		.loc 1 76 0 discriminator 3
 819 02f8 0B23     		mov	r3, #11
 820 02fa 039E     		ldr	r6, [sp, #12]
 821 02fc DE41     		ror	r6, r6, r3
 822              	.LBE228:
 823              	.LBE227:
 824              	.LBB229:
 825              	.LBB226:
 826 02fe 039B     		ldr	r3, [sp, #12]
 827 0300 FB41     		ror	r3, r3, r7
 828              	.LBE226:
 829              	.LBE229:
 830              		.loc 2 418 0 discriminator 3
 831 0302 7340     		eor	r3, r6
 832              	.LBB230:
 833              	.LBB231:
  76:..\acn-sdk-c\src\wolfSSL/wolfcrypt/src/misc.c ****     }
 834              		.loc 1 76 0 discriminator 3
 835 0304 039E     		ldr	r6, [sp, #12]
 836 0306 1337     		add	r7, r7, #19
 837 0308 FE41     		ror	r6, r6, r7
 838              	.LBE231:
 839              	.LBE230:
 840              		.loc 2 418 0 discriminator 3
 841 030a 7340     		eor	r3, r6
 842 030c E318     		add	r3, r4, r3
 843              	.LVL44:
 844 030e 1818     		add	r0, r3, r0
 845              	.LVL45:
 846 0310 0E1C     		mov	r6, r1
 847 0312 0490     		str	r0, [sp, #16]
 848              	.LVL46:
 849 0314 101C     		mov	r0, r2
 850 0316 1643     		orr	r6, r2
 851 0318 2E40     		and	r6, r5
 852 031a 0840     		and	r0, r1
 853 031c 0643     		orr	r6, r0
ARM GAS  C:\Users\ddemidov\AppData\Local\Temp\ccKvU8Ns.s 			page 26


 854              	.LBB232:
 855              	.LBB233:
  76:..\acn-sdk-c\src\wolfSSL/wolfcrypt/src/misc.c ****     }
 856              		.loc 1 76 0 discriminator 3
 857 031e 0C1C     		mov	r4, r1
 858 0320 0D20     		mov	r0, #13
 859 0322 C441     		ror	r4, r4, r0
 860              	.LBE233:
 861              	.LBE232:
 862              	.LBB234:
 863              	.LBB235:
 864 0324 081C     		mov	r0, r1
 865 0326 173F     		sub	r7, r7, #23
 866 0328 F841     		ror	r0, r0, r7
 867              	.LBE235:
 868              	.LBE234:
 869              		.loc 2 418 0 discriminator 3
 870 032a 6040     		eor	r0, r4
 871              	.LBB236:
 872              	.LBB237:
  76:..\acn-sdk-c\src\wolfSSL/wolfcrypt/src/misc.c ****     }
 873              		.loc 1 76 0 discriminator 3
 874 032c 0C1C     		mov	r4, r1
 875 032e 1437     		add	r7, r7, #20
 876 0330 FC41     		ror	r4, r4, r7
 877              	.LBE237:
 878              	.LBE236:
 879              		.loc 2 418 0 discriminator 3
 880 0332 4440     		eor	r4, r0
 881 0334 3019     		add	r0, r6, r4
 882 0336 C018     		add	r0, r0, r3
 883              	.LVL47:
 884 0338 6346     		mov	r3, ip
 885              	.LVL48:
 886 033a 059C     		ldr	r4, [sp, #20]
 887 033c 9B69     		ldr	r3, [r3, #24]
 888 033e A469     		ldr	r4, [r4, #24]
 419:..\acn-sdk-c\src\wolfSSL/wolfcrypt/src/sha256.c ****         RND(S[1],S[2],S[3],S[4],S[5],S[6],S[7],S[0],i+7);
 889              		.loc 2 419 0 discriminator 3
 890 0340 039E     		ldr	r6, [sp, #12]
 891 0342 1C19     		add	r4, r3, r4
 892 0344 019B     		ldr	r3, [sp, #4]
 893              	.LBB238:
 894              	.LBB239:
  76:..\acn-sdk-c\src\wolfSSL/wolfcrypt/src/misc.c ****     }
 895              		.loc 1 76 0 discriminator 3
 896 0346 103F     		sub	r7, r7, #16
 897 0348 E418     		add	r4, r4, r3
 898              	.LBE239:
 899              	.LBE238:
 900              		.loc 2 419 0 discriminator 3
 901 034a 029B     		ldr	r3, [sp, #8]
 902 034c 7340     		eor	r3, r6
 903 034e 049E     		ldr	r6, [sp, #16]
 904 0350 3340     		and	r3, r6
 905 0352 029E     		ldr	r6, [sp, #8]
 906 0354 7340     		eor	r3, r6
ARM GAS  C:\Users\ddemidov\AppData\Local\Temp\ccKvU8Ns.s 			page 27


 907 0356 E618     		add	r6, r4, r3
 908              	.LBB241:
 909              	.LBB242:
  76:..\acn-sdk-c\src\wolfSSL/wolfcrypt/src/misc.c ****     }
 910              		.loc 1 76 0 discriminator 3
 911 0358 0B23     		mov	r3, #11
 912 035a 049C     		ldr	r4, [sp, #16]
 913 035c DC41     		ror	r4, r4, r3
 914              	.LBE242:
 915              	.LBE241:
 916              	.LBB243:
 917              	.LBB240:
 918 035e 049B     		ldr	r3, [sp, #16]
 919 0360 FB41     		ror	r3, r3, r7
 920              	.LBE240:
 921              	.LBE243:
 922              		.loc 2 419 0 discriminator 3
 923 0362 5C40     		eor	r4, r3
 924              	.LBB244:
 925              	.LBB245:
  76:..\acn-sdk-c\src\wolfSSL/wolfcrypt/src/misc.c ****     }
 926              		.loc 1 76 0 discriminator 3
 927 0364 049B     		ldr	r3, [sp, #16]
 928 0366 1337     		add	r7, r7, #19
 929 0368 FB41     		ror	r3, r3, r7
 930              	.LBE245:
 931              	.LBE244:
 932              		.loc 2 419 0 discriminator 3
 933 036a 6340     		eor	r3, r4
 934 036c F318     		add	r3, r6, r3
 935              	.LVL49:
 936 036e 5C19     		add	r4, r3, r5
 937 0370 061C     		mov	r6, r0
 938 0372 0194     		str	r4, [sp, #4]
 939              	.LVL50:
 940 0374 0C1C     		mov	r4, r1
 941 0376 0E43     		orr	r6, r1
 942 0378 0440     		and	r4, r0
 943 037a 1640     		and	r6, r2
 944 037c 2643     		orr	r6, r4
 945              	.LBB246:
 946              	.LBB247:
  76:..\acn-sdk-c\src\wolfSSL/wolfcrypt/src/misc.c ****     }
 947              		.loc 1 76 0 discriminator 3
 948 037e 051C     		mov	r5, r0
 949              	.LVL51:
 950 0380 0D24     		mov	r4, #13
 951 0382 E541     		ror	r5, r5, r4
 952              	.LBE247:
 953              	.LBE246:
 954              	.LBB248:
 955              	.LBB249:
 956 0384 041C     		mov	r4, r0
 957 0386 173F     		sub	r7, r7, #23
 958 0388 FC41     		ror	r4, r4, r7
 959              	.LBE249:
 960              	.LBE248:
ARM GAS  C:\Users\ddemidov\AppData\Local\Temp\ccKvU8Ns.s 			page 28


 961              		.loc 2 419 0 discriminator 3
 962 038a 6C40     		eor	r4, r5
 963              	.LBB250:
 964              	.LBB251:
  76:..\acn-sdk-c\src\wolfSSL/wolfcrypt/src/misc.c ****     }
 965              		.loc 1 76 0 discriminator 3
 966 038c 051C     		mov	r5, r0
 967 038e 1437     		add	r7, r7, #20
 968 0390 FD41     		ror	r5, r5, r7
 969              	.LBE251:
 970              	.LBE250:
 971              		.loc 2 419 0 discriminator 3
 972 0392 6540     		eor	r5, r4
 973 0394 7419     		add	r4, r6, r5
 974 0396 E418     		add	r4, r4, r3
 975 0398 069B     		ldr	r3, [sp, #24]
 976              	.LVL52:
 977 039a 2033     		add	r3, r3, #32
 978 039c 0693     		str	r3, [sp, #24]
 979 039e 059B     		ldr	r3, [sp, #20]
 411:..\acn-sdk-c\src\wolfSSL/wolfcrypt/src/sha256.c ****         RND(S[0],S[1],S[2],S[3],S[4],S[5],S[6],S[7],i+0);
 980              		.loc 2 411 0 discriminator 3
 981 03a0 069D     		ldr	r5, [sp, #24]
 982 03a2 2033     		add	r3, r3, #32
 983 03a4 0593     		str	r3, [sp, #20]
 984 03a6 2023     		mov	r3, #32
 985 03a8 9C44     		add	ip, ip, r3
 986 03aa E033     		add	r3, r3, #224
 987 03ac 9D42     		cmp	r5, r3
 988 03ae 00D0     		beq	.LCB1079
 989 03b0 70E6     		b	.L12	@long jump
 990              	.LCB1079:
 991 03b2 029B     		ldr	r3, [sp, #8]
 992 03b4 0894     		str	r4, [sp, #32]
 993 03b6 0F93     		str	r3, [sp, #60]
 994 03b8 019B     		ldr	r3, [sp, #4]
 995 03ba 0990     		str	r0, [sp, #36]
 996 03bc 0C93     		str	r3, [sp, #48]
 997 03be 049B     		ldr	r3, [sp, #16]
 998 03c0 0A91     		str	r1, [sp, #40]
 999 03c2 0D93     		str	r3, [sp, #52]
 1000 03c4 039B     		ldr	r3, [sp, #12]
 1001 03c6 0B92     		str	r2, [sp, #44]
 1002 03c8 0E93     		str	r3, [sp, #56]
 411:..\acn-sdk-c\src\wolfSSL/wolfcrypt/src/sha256.c ****         RND(S[0],S[1],S[2],S[3],S[4],S[5],S[6],S[7],i+0);
 1003              		.loc 2 411 0 is_stmt 0
 1004 03ca 0023     		mov	r3, #0
 1005              	.LVL53:
 1006              	.L13:
 1007 03cc 079A     		ldr	r2, [sp, #28]
 1008 03ce D118     		add	r1, r2, r3
 420:..\acn-sdk-c\src\wolfSSL/wolfcrypt/src/sha256.c ****     }
 421:..\acn-sdk-c\src\wolfSSL/wolfcrypt/src/sha256.c **** 
 422:..\acn-sdk-c\src\wolfSSL/wolfcrypt/src/sha256.c ****     /* Add the working vars back into digest state[] */
 423:..\acn-sdk-c\src\wolfSSL/wolfcrypt/src/sha256.c ****     for (i = 0; i < 8; i++) {
 424:..\acn-sdk-c\src\wolfSSL/wolfcrypt/src/sha256.c ****         sha256->digest[i] += S[i];
 1009              		.loc 2 424 0 is_stmt 1 discriminator 3
ARM GAS  C:\Users\ddemidov\AppData\Local\Temp\ccKvU8Ns.s 			page 29


 1010 03d0 C868     		ldr	r0, [r1, #12]
 1011 03d2 08AA     		add	r2, sp, #32
 1012 03d4 8446     		mov	ip, r0
 1013 03d6 D258     		ldr	r2, [r2, r3]
 1014 03d8 0433     		add	r3, r3, #4
 1015 03da 0192     		str	r2, [sp, #4]
 1016 03dc 6244     		add	r2, r2, ip
 1017 03de CA60     		str	r2, [r1, #12]
 423:..\acn-sdk-c\src\wolfSSL/wolfcrypt/src/sha256.c ****         sha256->digest[i] += S[i];
 1018              		.loc 2 423 0 discriminator 3
 1019 03e0 202B     		cmp	r3, #32
 1020 03e2 F3D1     		bne	.L13
 425:..\acn-sdk-c\src\wolfSSL/wolfcrypt/src/sha256.c ****     }
 426:..\acn-sdk-c\src\wolfSSL/wolfcrypt/src/sha256.c **** 
 427:..\acn-sdk-c\src\wolfSSL/wolfcrypt/src/sha256.c **** #ifdef WOLFSSL_SMALL_STACK
 428:..\acn-sdk-c\src\wolfSSL/wolfcrypt/src/sha256.c ****     XFREE(W, NULL, DYNAMIC_TYPE_TMP_BUFFER);
 429:..\acn-sdk-c\src\wolfSSL/wolfcrypt/src/sha256.c **** #endif
 430:..\acn-sdk-c\src\wolfSSL/wolfcrypt/src/sha256.c **** 
 431:..\acn-sdk-c\src\wolfSSL/wolfcrypt/src/sha256.c ****     return 0;
 432:..\acn-sdk-c\src\wolfSSL/wolfcrypt/src/sha256.c **** }
 1021              		.loc 2 432 0
 1022 03e4 0020     		mov	r0, #0
 1023 03e6 51B0     		add	sp, sp, #324
 1024              		@ sp needed
 1025 03e8 F0BD     		pop	{r4, r5, r6, r7, pc}
 1026              	.L15:
 1027 03ea C046     		.align	2
 1028              	.L14:
 1029 03ec 00000000 		.word	.LANCHOR0
 1030              		.cfi_endproc
 1031              	.LFE14:
 1032              		.size	Transform, .-Transform
 1033              		.section	.text.wc_InitSha256,"ax",%progbits
 1034              		.align	1
 1035              		.global	wc_InitSha256
 1036              		.code	16
 1037              		.thumb_func
 1038              		.type	wc_InitSha256, %function
 1039              	wc_InitSha256:
 1040              	.LFB13:
 304:..\acn-sdk-c\src\wolfSSL/wolfcrypt/src/sha256.c ****     int ret = 0;
 1041              		.loc 2 304 0
 1042              		.cfi_startproc
 1043              	.LVL54:
 314:..\acn-sdk-c\src\wolfSSL/wolfcrypt/src/sha256.c ****         sha256->digest[1] = 0xBB67AE85L;
 1044              		.loc 2 314 0
 1045 0000 0A4A     		ldr	r2, .L17
 304:..\acn-sdk-c\src\wolfSSL/wolfcrypt/src/sha256.c ****     int ret = 0;
 1046              		.loc 2 304 0
 1047 0002 031C     		mov	r3, r0
 314:..\acn-sdk-c\src\wolfSSL/wolfcrypt/src/sha256.c ****         sha256->digest[1] = 0xBB67AE85L;
 1048              		.loc 2 314 0
 1049 0004 C260     		str	r2, [r0, #12]
 315:..\acn-sdk-c\src\wolfSSL/wolfcrypt/src/sha256.c ****         sha256->digest[2] = 0x3C6EF372L;
 1050              		.loc 2 315 0
 1051 0006 0A4A     		ldr	r2, .L17+4
 333:..\acn-sdk-c\src\wolfSSL/wolfcrypt/src/sha256.c **** 
ARM GAS  C:\Users\ddemidov\AppData\Local\Temp\ccKvU8Ns.s 			page 30


 1052              		.loc 2 333 0
 1053              		@ sp needed
 315:..\acn-sdk-c\src\wolfSSL/wolfcrypt/src/sha256.c ****         sha256->digest[2] = 0x3C6EF372L;
 1054              		.loc 2 315 0
 1055 0008 0261     		str	r2, [r0, #16]
 316:..\acn-sdk-c\src\wolfSSL/wolfcrypt/src/sha256.c ****         sha256->digest[3] = 0xA54FF53AL;
 1056              		.loc 2 316 0
 1057 000a 0A4A     		ldr	r2, .L17+8
 1058 000c 4261     		str	r2, [r0, #20]
 317:..\acn-sdk-c\src\wolfSSL/wolfcrypt/src/sha256.c ****         sha256->digest[4] = 0x510E527FL;
 1059              		.loc 2 317 0
 1060 000e 0A4A     		ldr	r2, .L17+12
 1061 0010 8261     		str	r2, [r0, #24]
 318:..\acn-sdk-c\src\wolfSSL/wolfcrypt/src/sha256.c ****         sha256->digest[5] = 0x9B05688CL;
 1062              		.loc 2 318 0
 1063 0012 0A4A     		ldr	r2, .L17+16
 1064 0014 C261     		str	r2, [r0, #28]
 319:..\acn-sdk-c\src\wolfSSL/wolfcrypt/src/sha256.c ****         sha256->digest[6] = 0x1F83D9ABL;
 1065              		.loc 2 319 0
 1066 0016 0A4A     		ldr	r2, .L17+20
 1067 0018 0262     		str	r2, [r0, #32]
 320:..\acn-sdk-c\src\wolfSSL/wolfcrypt/src/sha256.c ****         sha256->digest[7] = 0x5BE0CD19L;
 1068              		.loc 2 320 0
 1069 001a 0A4A     		ldr	r2, .L17+24
 1070 001c 4262     		str	r2, [r0, #36]
 321:..\acn-sdk-c\src\wolfSSL/wolfcrypt/src/sha256.c ****     #endif
 1071              		.loc 2 321 0
 1072 001e 0A4A     		ldr	r2, .L17+28
 1073 0020 8262     		str	r2, [r0, #40]
 324:..\acn-sdk-c\src\wolfSSL/wolfcrypt/src/sha256.c ****     sha256->loLen   = 0;
 1074              		.loc 2 324 0
 1075 0022 0020     		mov	r0, #0
 1076              	.LVL55:
 1077 0024 1860     		str	r0, [r3]
 325:..\acn-sdk-c\src\wolfSSL/wolfcrypt/src/sha256.c ****     sha256->hiLen   = 0;
 1078              		.loc 2 325 0
 1079 0026 5860     		str	r0, [r3, #4]
 326:..\acn-sdk-c\src\wolfSSL/wolfcrypt/src/sha256.c ****     
 1080              		.loc 2 326 0
 1081 0028 9860     		str	r0, [r3, #8]
 333:..\acn-sdk-c\src\wolfSSL/wolfcrypt/src/sha256.c **** 
 1082              		.loc 2 333 0
 1083 002a 7047     		bx	lr
 1084              	.L18:
 1085              		.align	2
 1086              	.L17:
 1087 002c 67E6096A 		.word	1779033703
 1088 0030 85AE67BB 		.word	-1150833019
 1089 0034 72F36E3C 		.word	1013904242
 1090 0038 3AF54FA5 		.word	-1521486534
 1091 003c 7F520E51 		.word	1359893119
 1092 0040 8C68059B 		.word	-1694144372
 1093 0044 ABD9831F 		.word	528734635
 1094 0048 19CDE05B 		.word	1541459225
 1095              		.cfi_endproc
 1096              	.LFE13:
 1097              		.size	wc_InitSha256, .-wc_InitSha256
ARM GAS  C:\Users\ddemidov\AppData\Local\Temp\ccKvU8Ns.s 			page 31


 1098              		.section	.text.wc_Sha256Update,"ax",%progbits
 1099              		.align	1
 1100              		.global	wc_Sha256Update
 1101              		.code	16
 1102              		.thumb_func
 1103              		.type	wc_Sha256Update, %function
 1104              	wc_Sha256Update:
 1105              	.LFB16:
 433:..\acn-sdk-c\src\wolfSSL/wolfcrypt/src/sha256.c **** 
 434:..\acn-sdk-c\src\wolfSSL/wolfcrypt/src/sha256.c **** #endif /* #if !defined(FREESCALE_MMCAU) */
 435:..\acn-sdk-c\src\wolfSSL/wolfcrypt/src/sha256.c **** 
 436:..\acn-sdk-c\src\wolfSSL/wolfcrypt/src/sha256.c **** static INLINE void AddLength(Sha256* sha256, word32 len)
 437:..\acn-sdk-c\src\wolfSSL/wolfcrypt/src/sha256.c **** {
 438:..\acn-sdk-c\src\wolfSSL/wolfcrypt/src/sha256.c ****     word32 tmp = sha256->loLen;
 439:..\acn-sdk-c\src\wolfSSL/wolfcrypt/src/sha256.c ****     if ( (sha256->loLen += len) < tmp)
 440:..\acn-sdk-c\src\wolfSSL/wolfcrypt/src/sha256.c ****         sha256->hiLen++;                       /* carry low to high */
 441:..\acn-sdk-c\src\wolfSSL/wolfcrypt/src/sha256.c **** }
 442:..\acn-sdk-c\src\wolfSSL/wolfcrypt/src/sha256.c **** 
 443:..\acn-sdk-c\src\wolfSSL/wolfcrypt/src/sha256.c **** int wc_Sha256Update(Sha256* sha256, const byte* data, word32 len)
 444:..\acn-sdk-c\src\wolfSSL/wolfcrypt/src/sha256.c **** {
 1106              		.loc 2 444 0
 1107              		.cfi_startproc
 1108              	.LVL56:
 445:..\acn-sdk-c\src\wolfSSL/wolfcrypt/src/sha256.c **** 
 446:..\acn-sdk-c\src\wolfSSL/wolfcrypt/src/sha256.c ****     /* do block size increments */
 447:..\acn-sdk-c\src\wolfSSL/wolfcrypt/src/sha256.c ****     byte* local = (byte*)sha256->buffer;
 1109              		.loc 2 447 0
 1110 0000 031C     		mov	r3, r0
 444:..\acn-sdk-c\src\wolfSSL/wolfcrypt/src/sha256.c **** 
 1111              		.loc 2 444 0
 1112 0002 F7B5     		push	{r0, r1, r2, r4, r5, r6, r7, lr}
 1113              		.cfi_def_cfa_offset 32
 1114              		.cfi_offset 0, -32
 1115              		.cfi_offset 1, -28
 1116              		.cfi_offset 2, -24
 1117              		.cfi_offset 4, -20
 1118              		.cfi_offset 5, -16
 1119              		.cfi_offset 6, -12
 1120              		.cfi_offset 7, -8
 1121              		.cfi_offset 14, -4
 444:..\acn-sdk-c\src\wolfSSL/wolfcrypt/src/sha256.c **** 
 1122              		.loc 2 444 0
 1123 0004 041C     		mov	r4, r0
 1124 0006 0F1C     		mov	r7, r1
 1125 0008 151C     		mov	r5, r2
 1126              		.loc 2 447 0
 1127 000a 2C33     		add	r3, r3, #44
 1128 000c 0193     		str	r3, [sp, #4]
 1129              	.LVL57:
 1130              	.L20:
 448:..\acn-sdk-c\src\wolfSSL/wolfcrypt/src/sha256.c **** 
 449:..\acn-sdk-c\src\wolfSSL/wolfcrypt/src/sha256.c ****     SAVE_XMM_YMM ; /* for Intel AVX */
 450:..\acn-sdk-c\src\wolfSSL/wolfcrypt/src/sha256.c **** 
 451:..\acn-sdk-c\src\wolfSSL/wolfcrypt/src/sha256.c ****     while (len) {
 1131              		.loc 2 451 0
 1132 000e 002D     		cmp	r5, #0
 1133 0010 28D0     		beq	.L27
ARM GAS  C:\Users\ddemidov\AppData\Local\Temp\ccKvU8Ns.s 			page 32


 1134              	.LBB258:
 452:..\acn-sdk-c\src\wolfSSL/wolfcrypt/src/sha256.c ****         word32 add = min(len, SHA256_BLOCK_SIZE - sha256->buffLen);
 1135              		.loc 2 452 0
 1136 0012 4023     		mov	r3, #64
 1137 0014 2068     		ldr	r0, [r4]
 1138              	.LVL58:
 1139              	.LBB259:
 1140              	.LBB260:
 297:..\acn-sdk-c\src\wolfSSL/wolfcrypt/src/sha256.c ****     }
 1141              		.loc 2 297 0
 1142 0016 2E1C     		mov	r6, r5
 1143              	.LBE260:
 1144              	.LBE259:
 1145              		.loc 2 452 0
 1146 0018 1B1A     		sub	r3, r3, r0
 1147              	.LVL59:
 1148              	.LBB262:
 1149              	.LBB261:
 297:..\acn-sdk-c\src\wolfSSL/wolfcrypt/src/sha256.c ****     }
 1150              		.loc 2 297 0
 1151 001a 9D42     		cmp	r5, r3
 1152 001c 00D9     		bls	.L21
 1153 001e 1E1C     		mov	r6, r3
 1154              	.L21:
 1155              	.LBE261:
 1156              	.LBE262:
 453:..\acn-sdk-c\src\wolfSSL/wolfcrypt/src/sha256.c ****         XMEMCPY(&local[sha256->buffLen], data, add);
 1157              		.loc 2 453 0
 1158 0020 019B     		ldr	r3, [sp, #4]
 1159              	.LVL60:
 1160 0022 391C     		mov	r1, r7
 1161 0024 1818     		add	r0, r3, r0
 1162              	.LVL61:
 1163 0026 321C     		mov	r2, r6
 1164 0028 FFF7FEFF 		bl	memcpy
 1165              	.LVL62:
 454:..\acn-sdk-c\src\wolfSSL/wolfcrypt/src/sha256.c **** 
 455:..\acn-sdk-c\src\wolfSSL/wolfcrypt/src/sha256.c ****         sha256->buffLen += add;
 1166              		.loc 2 455 0
 1167 002c 2368     		ldr	r3, [r4]
 456:..\acn-sdk-c\src\wolfSSL/wolfcrypt/src/sha256.c ****         data            += add;
 1168              		.loc 2 456 0
 1169 002e BF19     		add	r7, r7, r6
 1170              	.LVL63:
 455:..\acn-sdk-c\src\wolfSSL/wolfcrypt/src/sha256.c ****         data            += add;
 1171              		.loc 2 455 0
 1172 0030 F218     		add	r2, r6, r3
 1173 0032 2260     		str	r2, [r4]
 457:..\acn-sdk-c\src\wolfSSL/wolfcrypt/src/sha256.c ****         len             -= add;
 1174              		.loc 2 457 0
 1175 0034 AD1B     		sub	r5, r5, r6
 1176              	.LVL64:
 458:..\acn-sdk-c\src\wolfSSL/wolfcrypt/src/sha256.c **** 
 459:..\acn-sdk-c\src\wolfSSL/wolfcrypt/src/sha256.c ****         if (sha256->buffLen == SHA256_BLOCK_SIZE) {
 1177              		.loc 2 459 0
 1178 0036 402A     		cmp	r2, #64
 1179 0038 E9D1     		bne	.L20
ARM GAS  C:\Users\ddemidov\AppData\Local\Temp\ccKvU8Ns.s 			page 33


 1180              	.LBB263:
 460:..\acn-sdk-c\src\wolfSSL/wolfcrypt/src/sha256.c ****             int ret;
 461:..\acn-sdk-c\src\wolfSSL/wolfcrypt/src/sha256.c **** 
 462:..\acn-sdk-c\src\wolfSSL/wolfcrypt/src/sha256.c ****             #if defined(LITTLE_ENDIAN_ORDER) && !defined(FREESCALE_MMCAU)
 463:..\acn-sdk-c\src\wolfSSL/wolfcrypt/src/sha256.c ****                 #if defined(HAVE_INTEL_AVX1) || defined(HAVE_INTEL_AVX2)
 464:..\acn-sdk-c\src\wolfSSL/wolfcrypt/src/sha256.c ****                 if(!IS_INTEL_AVX1 && !IS_INTEL_AVX2)
 465:..\acn-sdk-c\src\wolfSSL/wolfcrypt/src/sha256.c ****                 #endif
 466:..\acn-sdk-c\src\wolfSSL/wolfcrypt/src/sha256.c ****                 ByteReverseWords(sha256->buffer, sha256->buffer,
 1181              		.loc 2 466 0
 1182 003a 0198     		ldr	r0, [sp, #4]
 1183 003c 011C     		mov	r1, r0
 1184 003e FFF7FEFF 		bl	ByteReverseWords
 1185              	.LVL65:
 467:..\acn-sdk-c\src\wolfSSL/wolfcrypt/src/sha256.c ****                                  SHA256_BLOCK_SIZE);
 468:..\acn-sdk-c\src\wolfSSL/wolfcrypt/src/sha256.c ****             #endif
 469:..\acn-sdk-c\src\wolfSSL/wolfcrypt/src/sha256.c ****             ret = XTRANSFORM(sha256, local);
 1186              		.loc 2 469 0
 1187 0042 201C     		mov	r0, r4
 1188 0044 FFF7FEFF 		bl	Transform
 1189              	.LVL66:
 470:..\acn-sdk-c\src\wolfSSL/wolfcrypt/src/sha256.c ****             if (ret != 0)
 1190              		.loc 2 470 0
 1191 0048 0028     		cmp	r0, #0
 1192 004a 0CD1     		bne	.L23
 1193              	.LVL67:
 1194              	.LBB264:
 1195              	.LBB265:
 438:..\acn-sdk-c\src\wolfSSL/wolfcrypt/src/sha256.c ****     if ( (sha256->loLen += len) < tmp)
 1196              		.loc 2 438 0
 1197 004c 6368     		ldr	r3, [r4, #4]
 1198              	.LVL68:
 439:..\acn-sdk-c\src\wolfSSL/wolfcrypt/src/sha256.c ****         sha256->hiLen++;                       /* carry low to high */
 1199              		.loc 2 439 0
 1200 004e 1A1C     		mov	r2, r3
 1201 0050 4032     		add	r2, r2, #64
 1202 0052 6260     		str	r2, [r4, #4]
 1203 0054 9A42     		cmp	r2, r3
 1204 0056 02D2     		bcs	.L24
 440:..\acn-sdk-c\src\wolfSSL/wolfcrypt/src/sha256.c **** }
 1205              		.loc 2 440 0
 1206 0058 A368     		ldr	r3, [r4, #8]
 1207              	.LVL69:
 1208 005a 0133     		add	r3, r3, #1
 1209 005c A360     		str	r3, [r4, #8]
 1210              	.L24:
 1211              	.LBE265:
 1212              	.LBE264:
 471:..\acn-sdk-c\src\wolfSSL/wolfcrypt/src/sha256.c ****                 return ret;
 472:..\acn-sdk-c\src\wolfSSL/wolfcrypt/src/sha256.c **** 
 473:..\acn-sdk-c\src\wolfSSL/wolfcrypt/src/sha256.c ****             AddLength(sha256, SHA256_BLOCK_SIZE);
 474:..\acn-sdk-c\src\wolfSSL/wolfcrypt/src/sha256.c ****             sha256->buffLen = 0;
 1213              		.loc 2 474 0
 1214 005e 0023     		mov	r3, #0
 1215 0060 2360     		str	r3, [r4]
 1216 0062 D4E7     		b	.L20
 1217              	.LVL70:
 1218              	.L27:
ARM GAS  C:\Users\ddemidov\AppData\Local\Temp\ccKvU8Ns.s 			page 34


 1219              	.LBE263:
 1220              	.LBE258:
 475:..\acn-sdk-c\src\wolfSSL/wolfcrypt/src/sha256.c ****         }
 476:..\acn-sdk-c\src\wolfSSL/wolfcrypt/src/sha256.c ****     }
 477:..\acn-sdk-c\src\wolfSSL/wolfcrypt/src/sha256.c **** 
 478:..\acn-sdk-c\src\wolfSSL/wolfcrypt/src/sha256.c ****     return 0;
 1221              		.loc 2 478 0
 1222 0064 281C     		mov	r0, r5
 1223              	.L23:
 479:..\acn-sdk-c\src\wolfSSL/wolfcrypt/src/sha256.c **** }
 1224              		.loc 2 479 0
 1225              		@ sp needed
 1226              	.LVL71:
 1227              	.LVL72:
 1228              	.LVL73:
 1229 0066 FEBD     		pop	{r1, r2, r3, r4, r5, r6, r7, pc}
 1230              		.cfi_endproc
 1231              	.LFE16:
 1232              		.size	wc_Sha256Update, .-wc_Sha256Update
 1233              		.section	.text.wc_Sha256Final,"ax",%progbits
 1234              		.align	1
 1235              		.global	wc_Sha256Final
 1236              		.code	16
 1237              		.thumb_func
 1238              		.type	wc_Sha256Final, %function
 1239              	wc_Sha256Final:
 1240              	.LFB17:
 480:..\acn-sdk-c\src\wolfSSL/wolfcrypt/src/sha256.c **** 
 481:..\acn-sdk-c\src\wolfSSL/wolfcrypt/src/sha256.c **** int wc_Sha256Final(Sha256* sha256, byte* hash)
 482:..\acn-sdk-c\src\wolfSSL/wolfcrypt/src/sha256.c **** {
 1241              		.loc 2 482 0
 1242              		.cfi_startproc
 1243              	.LVL74:
 1244 0000 F8B5     		push	{r3, r4, r5, r6, r7, lr}
 1245              		.cfi_def_cfa_offset 24
 1246              		.cfi_offset 3, -24
 1247              		.cfi_offset 4, -20
 1248              		.cfi_offset 5, -16
 1249              		.cfi_offset 6, -12
 1250              		.cfi_offset 7, -8
 1251              		.cfi_offset 14, -4
 483:..\acn-sdk-c\src\wolfSSL/wolfcrypt/src/sha256.c ****     byte* local = (byte*)sha256->buffer;
 1252              		.loc 2 483 0
 1253 0002 051C     		mov	r5, r0
 1254              	.LBB268:
 1255              	.LBB269:
 438:..\acn-sdk-c\src\wolfSSL/wolfcrypt/src/sha256.c ****     if ( (sha256->loLen += len) < tmp)
 1256              		.loc 2 438 0
 1257 0004 4268     		ldr	r2, [r0, #4]
 1258              	.LBE269:
 1259              	.LBE268:
 484:..\acn-sdk-c\src\wolfSSL/wolfcrypt/src/sha256.c ****     int ret;
 485:..\acn-sdk-c\src\wolfSSL/wolfcrypt/src/sha256.c ****     
 486:..\acn-sdk-c\src\wolfSSL/wolfcrypt/src/sha256.c ****     SAVE_XMM_YMM ; /* for Intel AVX */
 487:..\acn-sdk-c\src\wolfSSL/wolfcrypt/src/sha256.c **** 
 488:..\acn-sdk-c\src\wolfSSL/wolfcrypt/src/sha256.c ****     AddLength(sha256, sha256->buffLen);  /* before adding pads */
 1260              		.loc 2 488 0
ARM GAS  C:\Users\ddemidov\AppData\Local\Temp\ccKvU8Ns.s 			page 35


 1261 0006 0368     		ldr	r3, [r0]
 482:..\acn-sdk-c\src\wolfSSL/wolfcrypt/src/sha256.c ****     byte* local = (byte*)sha256->buffer;
 1262              		.loc 2 482 0
 1263 0008 0F1C     		mov	r7, r1
 1264              	.LBB272:
 1265              	.LBB270:
 439:..\acn-sdk-c\src\wolfSSL/wolfcrypt/src/sha256.c ****         sha256->hiLen++;                       /* carry low to high */
 1266              		.loc 2 439 0
 1267 000a D118     		add	r1, r2, r3
 1268              	.LVL75:
 1269              	.LBE270:
 1270              	.LBE272:
 482:..\acn-sdk-c\src\wolfSSL/wolfcrypt/src/sha256.c ****     byte* local = (byte*)sha256->buffer;
 1271              		.loc 2 482 0
 1272 000c 041C     		mov	r4, r0
 483:..\acn-sdk-c\src\wolfSSL/wolfcrypt/src/sha256.c ****     int ret;
 1273              		.loc 2 483 0
 1274 000e 2C35     		add	r5, r5, #44
 1275              	.LVL76:
 1276              	.LBB273:
 1277              	.LBB271:
 439:..\acn-sdk-c\src\wolfSSL/wolfcrypt/src/sha256.c ****         sha256->hiLen++;                       /* carry low to high */
 1278              		.loc 2 439 0
 1279 0010 4160     		str	r1, [r0, #4]
 1280 0012 9142     		cmp	r1, r2
 1281 0014 02D2     		bcs	.L29
 440:..\acn-sdk-c\src\wolfSSL/wolfcrypt/src/sha256.c **** }
 1282              		.loc 2 440 0
 1283 0016 8268     		ldr	r2, [r0, #8]
 1284              	.LVL77:
 1285 0018 0132     		add	r2, r2, #1
 1286 001a 8260     		str	r2, [r0, #8]
 1287              	.L29:
 1288              	.LBE271:
 1289              	.LBE273:
 489:..\acn-sdk-c\src\wolfSSL/wolfcrypt/src/sha256.c **** 
 490:..\acn-sdk-c\src\wolfSSL/wolfcrypt/src/sha256.c ****     local[sha256->buffLen++] = 0x80;     /* add 1 */
 1290              		.loc 2 490 0
 1291 001c 5A1C     		add	r2, r3, #1
 1292 001e 2260     		str	r2, [r4]
 1293 0020 8022     		mov	r2, #128
 1294 0022 EA54     		strb	r2, [r5, r3]
 491:..\acn-sdk-c\src\wolfSSL/wolfcrypt/src/sha256.c **** 
 492:..\acn-sdk-c\src\wolfSSL/wolfcrypt/src/sha256.c ****     /* pad with zeros */
 493:..\acn-sdk-c\src\wolfSSL/wolfcrypt/src/sha256.c ****     if (sha256->buffLen > SHA256_PAD_SIZE) {
 1295              		.loc 2 493 0
 1296 0024 2068     		ldr	r0, [r4]
 1297              	.LVL78:
 1298 0026 3828     		cmp	r0, #56
 1299 0028 11D9     		bls	.L30
 494:..\acn-sdk-c\src\wolfSSL/wolfcrypt/src/sha256.c ****         XMEMSET(&local[sha256->buffLen], 0, SHA256_BLOCK_SIZE - sha256->buffLen);
 1300              		.loc 2 494 0
 1301 002a 4026     		mov	r6, #64
 1302 002c 0021     		mov	r1, #0
 1303 002e 321A     		sub	r2, r6, r0
 1304 0030 2818     		add	r0, r5, r0
 1305 0032 FFF7FEFF 		bl	memset
ARM GAS  C:\Users\ddemidov\AppData\Local\Temp\ccKvU8Ns.s 			page 36


 1306              	.LVL79:
 495:..\acn-sdk-c\src\wolfSSL/wolfcrypt/src/sha256.c ****         sha256->buffLen += SHA256_BLOCK_SIZE - sha256->buffLen;
 496:..\acn-sdk-c\src\wolfSSL/wolfcrypt/src/sha256.c **** 
 497:..\acn-sdk-c\src\wolfSSL/wolfcrypt/src/sha256.c ****         #if defined(LITTLE_ENDIAN_ORDER) && !defined(FREESCALE_MMCAU)
 498:..\acn-sdk-c\src\wolfSSL/wolfcrypt/src/sha256.c ****             #if defined(HAVE_INTEL_AVX1) || defined(HAVE_INTEL_AVX2)
 499:..\acn-sdk-c\src\wolfSSL/wolfcrypt/src/sha256.c ****             if(!IS_INTEL_AVX1 && !IS_INTEL_AVX2)
 500:..\acn-sdk-c\src\wolfSSL/wolfcrypt/src/sha256.c ****             #endif
 501:..\acn-sdk-c\src\wolfSSL/wolfcrypt/src/sha256.c ****             ByteReverseWords(sha256->buffer, sha256->buffer, SHA256_BLOCK_SIZE);
 1307              		.loc 2 501 0
 1308 0036 281C     		mov	r0, r5
 1309 0038 291C     		mov	r1, r5
 1310 003a 321C     		mov	r2, r6
 495:..\acn-sdk-c\src\wolfSSL/wolfcrypt/src/sha256.c ****         sha256->buffLen += SHA256_BLOCK_SIZE - sha256->buffLen;
 1311              		.loc 2 495 0
 1312 003c 2660     		str	r6, [r4]
 1313              		.loc 2 501 0
 1314 003e FFF7FEFF 		bl	ByteReverseWords
 1315              	.LVL80:
 502:..\acn-sdk-c\src\wolfSSL/wolfcrypt/src/sha256.c ****         #endif
 503:..\acn-sdk-c\src\wolfSSL/wolfcrypt/src/sha256.c **** 
 504:..\acn-sdk-c\src\wolfSSL/wolfcrypt/src/sha256.c ****         ret = XTRANSFORM(sha256, local);
 1316              		.loc 2 504 0
 1317 0042 201C     		mov	r0, r4
 1318 0044 FFF7FEFF 		bl	Transform
 1319              	.LVL81:
 1320 0048 031E     		sub	r3, r0, #0
 1321              	.LVL82:
 505:..\acn-sdk-c\src\wolfSSL/wolfcrypt/src/sha256.c ****         if (ret != 0)
 1322              		.loc 2 505 0
 1323 004a 35D1     		bne	.L31
 506:..\acn-sdk-c\src\wolfSSL/wolfcrypt/src/sha256.c ****             return ret;
 507:..\acn-sdk-c\src\wolfSSL/wolfcrypt/src/sha256.c **** 
 508:..\acn-sdk-c\src\wolfSSL/wolfcrypt/src/sha256.c ****         sha256->buffLen = 0;
 1324              		.loc 2 508 0
 1325 004c 2360     		str	r3, [r4]
 1326              	.LVL83:
 1327              	.L30:
 509:..\acn-sdk-c\src\wolfSSL/wolfcrypt/src/sha256.c ****     }
 510:..\acn-sdk-c\src\wolfSSL/wolfcrypt/src/sha256.c ****     XMEMSET(&local[sha256->buffLen], 0, SHA256_PAD_SIZE - sha256->buffLen);
 1328              		.loc 2 510 0
 1329 004e 3822     		mov	r2, #56
 1330 0050 2068     		ldr	r0, [r4]
 1331 0052 0021     		mov	r1, #0
 1332 0054 121A     		sub	r2, r2, r0
 1333 0056 2818     		add	r0, r5, r0
 1334 0058 FFF7FEFF 		bl	memset
 1335              	.LVL84:
 511:..\acn-sdk-c\src\wolfSSL/wolfcrypt/src/sha256.c **** 
 512:..\acn-sdk-c\src\wolfSSL/wolfcrypt/src/sha256.c ****     /* put lengths in bits */
 513:..\acn-sdk-c\src\wolfSSL/wolfcrypt/src/sha256.c ****     sha256->hiLen = (sha256->loLen >> (8*sizeof(sha256->loLen) - 3)) +
 1336              		.loc 2 513 0
 1337 005c 6368     		ldr	r3, [r4, #4]
 514:..\acn-sdk-c\src\wolfSSL/wolfcrypt/src/sha256.c ****                  (sha256->hiLen << 3);
 1338              		.loc 2 514 0
 1339 005e A268     		ldr	r2, [r4, #8]
 515:..\acn-sdk-c\src\wolfSSL/wolfcrypt/src/sha256.c ****     sha256->loLen = sha256->loLen << 3;
 516:..\acn-sdk-c\src\wolfSSL/wolfcrypt/src/sha256.c **** 
ARM GAS  C:\Users\ddemidov\AppData\Local\Temp\ccKvU8Ns.s 			page 37


 517:..\acn-sdk-c\src\wolfSSL/wolfcrypt/src/sha256.c ****     /* store lengths */
 518:..\acn-sdk-c\src\wolfSSL/wolfcrypt/src/sha256.c ****     #if defined(LITTLE_ENDIAN_ORDER) && !defined(FREESCALE_MMCAU)
 519:..\acn-sdk-c\src\wolfSSL/wolfcrypt/src/sha256.c ****         #if defined(HAVE_INTEL_AVX1) || defined(HAVE_INTEL_AVX2)
 520:..\acn-sdk-c\src\wolfSSL/wolfcrypt/src/sha256.c ****         if(!IS_INTEL_AVX1 && !IS_INTEL_AVX2)
 521:..\acn-sdk-c\src\wolfSSL/wolfcrypt/src/sha256.c ****         #endif
 522:..\acn-sdk-c\src\wolfSSL/wolfcrypt/src/sha256.c ****             ByteReverseWords(sha256->buffer, sha256->buffer, SHA256_BLOCK_SIZE);
 1340              		.loc 2 522 0
 1341 0060 281C     		mov	r0, r5
 514:..\acn-sdk-c\src\wolfSSL/wolfcrypt/src/sha256.c ****                  (sha256->hiLen << 3);
 1342              		.loc 2 514 0
 1343 0062 D100     		lsl	r1, r2, #3
 513:..\acn-sdk-c\src\wolfSSL/wolfcrypt/src/sha256.c ****                  (sha256->hiLen << 3);
 1344              		.loc 2 513 0
 1345 0064 5A0F     		lsr	r2, r3, #29
 1346 0066 8A18     		add	r2, r1, r2
 515:..\acn-sdk-c\src\wolfSSL/wolfcrypt/src/sha256.c ****     sha256->loLen = sha256->loLen << 3;
 1347              		.loc 2 515 0
 1348 0068 DB00     		lsl	r3, r3, #3
 1349 006a 6360     		str	r3, [r4, #4]
 513:..\acn-sdk-c\src\wolfSSL/wolfcrypt/src/sha256.c ****                  (sha256->hiLen << 3);
 1350              		.loc 2 513 0
 1351 006c A260     		str	r2, [r4, #8]
 1352              		.loc 2 522 0
 1353 006e 291C     		mov	r1, r5
 1354 0070 4022     		mov	r2, #64
 1355 0072 FFF7FEFF 		bl	ByteReverseWords
 1356              	.LVL85:
 523:..\acn-sdk-c\src\wolfSSL/wolfcrypt/src/sha256.c ****     #endif
 524:..\acn-sdk-c\src\wolfSSL/wolfcrypt/src/sha256.c ****     /* ! length ordering dependent on digest endian type ! */
 525:..\acn-sdk-c\src\wolfSSL/wolfcrypt/src/sha256.c ****     XMEMCPY(&local[SHA256_PAD_SIZE], &sha256->hiLen, sizeof(word32));
 1357              		.loc 2 525 0
 1358 0076 201C     		mov	r0, r4
 1359 0078 211C     		mov	r1, r4
 1360 007a 0422     		mov	r2, #4
 1361 007c 0831     		add	r1, r1, #8
 1362 007e 6430     		add	r0, r0, #100
 1363 0080 FFF7FEFF 		bl	memcpy
 1364              	.LVL86:
 526:..\acn-sdk-c\src\wolfSSL/wolfcrypt/src/sha256.c ****     XMEMCPY(&local[SHA256_PAD_SIZE + sizeof(word32)], &sha256->loLen,
 1365              		.loc 2 526 0
 1366 0084 201C     		mov	r0, r4
 1367 0086 211D     		add	r1, r4, #4
 1368 0088 6830     		add	r0, r0, #104
 1369 008a 0422     		mov	r2, #4
 1370 008c FFF7FEFF 		bl	memcpy
 1371              	.LVL87:
 527:..\acn-sdk-c\src\wolfSSL/wolfcrypt/src/sha256.c ****             sizeof(word32));
 528:..\acn-sdk-c\src\wolfSSL/wolfcrypt/src/sha256.c **** 
 529:..\acn-sdk-c\src\wolfSSL/wolfcrypt/src/sha256.c ****     #if defined(FREESCALE_MMCAU) || defined(HAVE_INTEL_AVX1) || defined(HAVE_INTEL_AVX2)
 530:..\acn-sdk-c\src\wolfSSL/wolfcrypt/src/sha256.c ****         /* Kinetis requires only these bytes reversed */
 531:..\acn-sdk-c\src\wolfSSL/wolfcrypt/src/sha256.c ****         #if defined(HAVE_INTEL_AVX1) || defined(HAVE_INTEL_AVX2)
 532:..\acn-sdk-c\src\wolfSSL/wolfcrypt/src/sha256.c ****         if(IS_INTEL_AVX1 || IS_INTEL_AVX2)
 533:..\acn-sdk-c\src\wolfSSL/wolfcrypt/src/sha256.c ****         #endif
 534:..\acn-sdk-c\src\wolfSSL/wolfcrypt/src/sha256.c ****         ByteReverseWords(&sha256->buffer[SHA256_PAD_SIZE/sizeof(word32)],
 535:..\acn-sdk-c\src\wolfSSL/wolfcrypt/src/sha256.c ****                          &sha256->buffer[SHA256_PAD_SIZE/sizeof(word32)],
 536:..\acn-sdk-c\src\wolfSSL/wolfcrypt/src/sha256.c ****                          2 * sizeof(word32));
 537:..\acn-sdk-c\src\wolfSSL/wolfcrypt/src/sha256.c ****     #endif
ARM GAS  C:\Users\ddemidov\AppData\Local\Temp\ccKvU8Ns.s 			page 38


 538:..\acn-sdk-c\src\wolfSSL/wolfcrypt/src/sha256.c **** 
 539:..\acn-sdk-c\src\wolfSSL/wolfcrypt/src/sha256.c ****     ret = XTRANSFORM(sha256, local);
 1372              		.loc 2 539 0
 1373 0090 201C     		mov	r0, r4
 1374 0092 FFF7FEFF 		bl	Transform
 1375              	.LVL88:
 540:..\acn-sdk-c\src\wolfSSL/wolfcrypt/src/sha256.c ****     if (ret != 0)
 1376              		.loc 2 540 0
 1377 0096 0028     		cmp	r0, #0
 1378 0098 0ED1     		bne	.L31
 541:..\acn-sdk-c\src\wolfSSL/wolfcrypt/src/sha256.c ****         return ret;
 542:..\acn-sdk-c\src\wolfSSL/wolfcrypt/src/sha256.c **** 
 543:..\acn-sdk-c\src\wolfSSL/wolfcrypt/src/sha256.c ****     #if defined(LITTLE_ENDIAN_ORDER)
 544:..\acn-sdk-c\src\wolfSSL/wolfcrypt/src/sha256.c ****         ByteReverseWords(sha256->digest, sha256->digest, SHA256_DIGEST_SIZE);
 1379              		.loc 2 544 0
 1380 009a 251C     		mov	r5, r4
 1381              	.LVL89:
 1382 009c 0C35     		add	r5, r5, #12
 1383 009e 281C     		mov	r0, r5
 1384              	.LVL90:
 1385 00a0 291C     		mov	r1, r5
 1386 00a2 2022     		mov	r2, #32
 1387 00a4 FFF7FEFF 		bl	ByteReverseWords
 1388              	.LVL91:
 545:..\acn-sdk-c\src\wolfSSL/wolfcrypt/src/sha256.c ****     #endif
 546:..\acn-sdk-c\src\wolfSSL/wolfcrypt/src/sha256.c ****     XMEMCPY(hash, sha256->digest, SHA256_DIGEST_SIZE);
 1389              		.loc 2 546 0
 1390 00a8 381C     		mov	r0, r7
 1391 00aa 291C     		mov	r1, r5
 1392 00ac 2022     		mov	r2, #32
 1393 00ae FFF7FEFF 		bl	memcpy
 1394              	.LVL92:
 547:..\acn-sdk-c\src\wolfSSL/wolfcrypt/src/sha256.c **** 
 548:..\acn-sdk-c\src\wolfSSL/wolfcrypt/src/sha256.c ****     return wc_InitSha256(sha256);  /* reset state */
 1395              		.loc 2 548 0
 1396 00b2 201C     		mov	r0, r4
 1397 00b4 FFF7FEFF 		bl	wc_InitSha256
 1398              	.LVL93:
 1399              	.L31:
 549:..\acn-sdk-c\src\wolfSSL/wolfcrypt/src/sha256.c **** }
 1400              		.loc 2 549 0
 1401              		@ sp needed
 1402              	.LVL94:
 1403              	.LVL95:
 1404 00b8 F8BD     		pop	{r3, r4, r5, r6, r7, pc}
 1405              		.cfi_endproc
 1406              	.LFE17:
 1407              		.size	wc_Sha256Final, .-wc_Sha256Final
 1408              		.section	.rodata
 1409              		.align	5
 1410              		.set	.LANCHOR0,. + 0
 1411              		.type	K, %object
 1412              		.size	K, 256
 1413              	K:
 1414 0000 982F8A42 		.word	1116352408
 1415 0004 91443771 		.word	1899447441
 1416 0008 CFFBC0B5 		.word	-1245643825
ARM GAS  C:\Users\ddemidov\AppData\Local\Temp\ccKvU8Ns.s 			page 39


 1417 000c A5DBB5E9 		.word	-373957723
 1418 0010 5BC25639 		.word	961987163
 1419 0014 F111F159 		.word	1508970993
 1420 0018 A4823F92 		.word	-1841331548
 1421 001c D55E1CAB 		.word	-1424204075
 1422 0020 98AA07D8 		.word	-670586216
 1423 0024 015B8312 		.word	310598401
 1424 0028 BE853124 		.word	607225278
 1425 002c C37D0C55 		.word	1426881987
 1426 0030 745DBE72 		.word	1925078388
 1427 0034 FEB1DE80 		.word	-2132889090
 1428 0038 A706DC9B 		.word	-1680079193
 1429 003c 74F19BC1 		.word	-1046744716
 1430 0040 C1699BE4 		.word	-459576895
 1431 0044 8647BEEF 		.word	-272742522
 1432 0048 C69DC10F 		.word	264347078
 1433 004c CCA10C24 		.word	604807628
 1434 0050 6F2CE92D 		.word	770255983
 1435 0054 AA84744A 		.word	1249150122
 1436 0058 DCA9B05C 		.word	1555081692
 1437 005c DA88F976 		.word	1996064986
 1438 0060 52513E98 		.word	-1740746414
 1439 0064 6DC631A8 		.word	-1473132947
 1440 0068 C82703B0 		.word	-1341970488
 1441 006c C77F59BF 		.word	-1084653625
 1442 0070 F30BE0C6 		.word	-958395405
 1443 0074 4791A7D5 		.word	-710438585
 1444 0078 5163CA06 		.word	113926993
 1445 007c 67292914 		.word	338241895
 1446 0080 850AB727 		.word	666307205
 1447 0084 38211B2E 		.word	773529912
 1448 0088 FC6D2C4D 		.word	1294757372
 1449 008c 130D3853 		.word	1396182291
 1450 0090 54730A65 		.word	1695183700
 1451 0094 BB0A6A76 		.word	1986661051
 1452 0098 2EC9C281 		.word	-2117940946
 1453 009c 852C7292 		.word	-1838011259
 1454 00a0 A1E8BFA2 		.word	-1564481375
 1455 00a4 4B661AA8 		.word	-1474664885
 1456 00a8 708B4BC2 		.word	-1035236496
 1457 00ac A3516CC7 		.word	-949202525
 1458 00b0 19E892D1 		.word	-778901479
 1459 00b4 240699D6 		.word	-694614492
 1460 00b8 85350EF4 		.word	-200395387
 1461 00bc 70A06A10 		.word	275423344
 1462 00c0 16C1A419 		.word	430227734
 1463 00c4 086C371E 		.word	506948616
 1464 00c8 4C774827 		.word	659060556
 1465 00cc B5BCB034 		.word	883997877
 1466 00d0 B30C1C39 		.word	958139571
 1467 00d4 4AAAD84E 		.word	1322822218
 1468 00d8 4FCA9C5B 		.word	1537002063
 1469 00dc F36F2E68 		.word	1747873779
 1470 00e0 EE828F74 		.word	1955562222
 1471 00e4 6F63A578 		.word	2024104815
 1472 00e8 1478C884 		.word	-2067236844
 1473 00ec 0802C78C 		.word	-1933114872
ARM GAS  C:\Users\ddemidov\AppData\Local\Temp\ccKvU8Ns.s 			page 40


 1474 00f0 FAFFBE90 		.word	-1866530822
 1475 00f4 EB6C50A4 		.word	-1538233109
 1476 00f8 F7A3F9BE 		.word	-1090935817
 1477 00fc F27871C6 		.word	-965641998
 1478              		.text
 1479              	.Letext0:
 1480              		.file 3 "..\\acn-sdk-c\\src\\wolfSSL/wolfssl/wolfcrypt/types.h"
 1481              		.file 4 "..\\acn-sdk-c\\src\\wolfSSL/wolfssl/wolfcrypt/sha256.h"