ARM GAS  C:\Users\ddemidov\AppData\Local\Temp\ccJpwEoT.s 			page 1


   1              		.cpu cortex-m0
   2              		.fpu softvfp
   3              		.eabi_attribute 20, 1
   4              		.eabi_attribute 21, 1
   5              		.eabi_attribute 23, 3
   6              		.eabi_attribute 24, 1
   7              		.eabi_attribute 25, 1
   8              		.eabi_attribute 26, 1
   9              		.eabi_attribute 30, 4
  10              		.eabi_attribute 34, 0
  11              		.eabi_attribute 18, 4
  12              		.code	16
  13              		.file	"sign.c"
  14              		.text
  15              	.Ltext0:
  16              		.cfi_sections	.debug_frame
  17              		.section	.text.set_key,"ax",%progbits
  18              		.align	1
  19              		.code	16
  20              		.thumb_func
  21              		.type	set_key, %function
  22              	set_key:
  23              	.LFB2:
  24              		.file 1 "..\\acn-sdk-c\\src\\arrow\\sign.c"
   1:..\acn-sdk-c\src\arrow/sign.c **** /* Copyright (c) 2017 Arrow Electronics, Inc.
   2:..\acn-sdk-c\src\arrow/sign.c ****  * All rights reserved. This program and the accompanying materials
   3:..\acn-sdk-c\src\arrow/sign.c ****  * are made available under the terms of the Apache License 2.0
   4:..\acn-sdk-c\src\arrow/sign.c ****  * which accompanies this distribution, and is available at
   5:..\acn-sdk-c\src\arrow/sign.c ****  * http://apache.org/licenses/LICENSE-2.0
   6:..\acn-sdk-c\src\arrow/sign.c ****  * Contributors: Arrow Electronics, Inc.
   7:..\acn-sdk-c\src\arrow/sign.c ****  */
   8:..\acn-sdk-c\src\arrow/sign.c **** 
   9:..\acn-sdk-c\src\arrow/sign.c **** #include <config.h>
  10:..\acn-sdk-c\src\arrow/sign.c **** #include <arrow/sign.h>
  11:..\acn-sdk-c\src\arrow/sign.c **** #include <arrow/mem.h>
  12:..\acn-sdk-c\src\arrow/sign.c **** #if defined(__USE_STD__)
  13:..\acn-sdk-c\src\arrow/sign.c **** # include <inttypes.h>
  14:..\acn-sdk-c\src\arrow/sign.c **** # include <stdbool.h>
  15:..\acn-sdk-c\src\arrow/sign.c **** # include <string.h>
  16:..\acn-sdk-c\src\arrow/sign.c **** # include <stdio.h>
  17:..\acn-sdk-c\src\arrow/sign.c **** # include <config.h>
  18:..\acn-sdk-c\src\arrow/sign.c **** #endif
  19:..\acn-sdk-c\src\arrow/sign.c **** #include <debug.h>
  20:..\acn-sdk-c\src\arrow/sign.c **** #include <crypt/crypt.h>
  21:..\acn-sdk-c\src\arrow/sign.c **** 
  22:..\acn-sdk-c\src\arrow/sign.c **** // by default keys
  23:..\acn-sdk-c\src\arrow/sign.c **** static const char *default_api_key = DEFAULT_API_KEY;
  24:..\acn-sdk-c\src\arrow/sign.c **** static const char *default_secret_key = DEFAULT_SECRET_KEY;
  25:..\acn-sdk-c\src\arrow/sign.c **** 
  26:..\acn-sdk-c\src\arrow/sign.c **** static char api_key[100];
  27:..\acn-sdk-c\src\arrow/sign.c **** static char secret_key[100];
  28:..\acn-sdk-c\src\arrow/sign.c **** 
  29:..\acn-sdk-c\src\arrow/sign.c **** typedef struct {
  30:..\acn-sdk-c\src\arrow/sign.c ****   char *key;
  31:..\acn-sdk-c\src\arrow/sign.c **** } iot_key_t;
  32:..\acn-sdk-c\src\arrow/sign.c **** 
  33:..\acn-sdk-c\src\arrow/sign.c **** static iot_key_t api = {NULL};
ARM GAS  C:\Users\ddemidov\AppData\Local\Temp\ccJpwEoT.s 			page 2


  34:..\acn-sdk-c\src\arrow/sign.c **** static iot_key_t secret = {NULL};
  35:..\acn-sdk-c\src\arrow/sign.c **** 
  36:..\acn-sdk-c\src\arrow/sign.c **** char *get_api_key() {
  37:..\acn-sdk-c\src\arrow/sign.c ****   if (api.key) return api.key;
  38:..\acn-sdk-c\src\arrow/sign.c ****   return (char*)default_api_key;
  39:..\acn-sdk-c\src\arrow/sign.c **** }
  40:..\acn-sdk-c\src\arrow/sign.c **** 
  41:..\acn-sdk-c\src\arrow/sign.c **** char *get_secret_key() {
  42:..\acn-sdk-c\src\arrow/sign.c ****   if (secret.key) return secret.key;
  43:..\acn-sdk-c\src\arrow/sign.c ****   return (char*)default_secret_key;
  44:..\acn-sdk-c\src\arrow/sign.c **** }
  45:..\acn-sdk-c\src\arrow/sign.c **** 
  46:..\acn-sdk-c\src\arrow/sign.c **** static void set_key(iot_key_t *iot, char *newkey) {
  25              		.loc 1 46 0
  26              		.cfi_startproc
  27              	.LVL0:
  28 0000 38B5     		push	{r3, r4, r5, lr}
  29              		.cfi_def_cfa_offset 16
  30              		.cfi_offset 3, -16
  31              		.cfi_offset 4, -12
  32              		.cfi_offset 5, -8
  33              		.cfi_offset 14, -4
  34              		.loc 1 46 0
  35 0002 051C     		mov	r5, r0
  47:..\acn-sdk-c\src\arrow/sign.c ****   memcpy(iot->key, newkey, strlen(newkey));
  36              		.loc 1 47 0
  37 0004 081C     		mov	r0, r1
  38              	.LVL1:
  46:..\acn-sdk-c\src\arrow/sign.c ****   memcpy(iot->key, newkey, strlen(newkey));
  39              		.loc 1 46 0
  40 0006 0C1C     		mov	r4, r1
  41              		.loc 1 47 0
  42 0008 FFF7FEFF 		bl	strlen
  43              	.LVL2:
  44 000c 211C     		mov	r1, r4
  45 000e 021C     		mov	r2, r0
  46 0010 2868     		ldr	r0, [r5]
  47 0012 FFF7FEFF 		bl	memcpy
  48              	.LVL3:
  48:..\acn-sdk-c\src\arrow/sign.c ****   iot->key[strlen(newkey)] = '\0';
  49              		.loc 1 48 0
  50 0016 201C     		mov	r0, r4
  51 0018 FFF7FEFF 		bl	strlen
  52              	.LVL4:
  53 001c 0022     		mov	r2, #0
  54 001e 2B68     		ldr	r3, [r5]
  49:..\acn-sdk-c\src\arrow/sign.c **** }
  55              		.loc 1 49 0
  56              		@ sp needed
  48:..\acn-sdk-c\src\arrow/sign.c ****   iot->key[strlen(newkey)] = '\0';
  57              		.loc 1 48 0
  58 0020 1A54     		strb	r2, [r3, r0]
  59              	.LVL5:
  60              	.LVL6:
  61              		.loc 1 49 0
  62 0022 38BD     		pop	{r3, r4, r5, pc}
  63              		.cfi_endproc
ARM GAS  C:\Users\ddemidov\AppData\Local\Temp\ccJpwEoT.s 			page 3


  64              	.LFE2:
  65              		.size	set_key, .-set_key
  66              		.section	.text.get_api_key,"ax",%progbits
  67              		.align	1
  68              		.global	get_api_key
  69              		.code	16
  70              		.thumb_func
  71              		.type	get_api_key, %function
  72              	get_api_key:
  73              	.LFB0:
  36:..\acn-sdk-c\src\arrow/sign.c ****   if (api.key) return api.key;
  74              		.loc 1 36 0
  75              		.cfi_startproc
  37:..\acn-sdk-c\src\arrow/sign.c ****   return (char*)default_api_key;
  76              		.loc 1 37 0
  77 0000 024B     		ldr	r3, .L5
  78 0002 1868     		ldr	r0, [r3]
  79 0004 0028     		cmp	r0, #0
  80 0006 00D1     		bne	.L3
  38:..\acn-sdk-c\src\arrow/sign.c **** }
  81              		.loc 1 38 0
  82 0008 0148     		ldr	r0, .L5+4
  83              	.L3:
  39:..\acn-sdk-c\src\arrow/sign.c **** 
  84              		.loc 1 39 0
  85              		@ sp needed
  86 000a 7047     		bx	lr
  87              	.L6:
  88              		.align	2
  89              	.L5:
  90 000c 00000000 		.word	.LANCHOR0
  91 0010 00000000 		.word	.LC0
  92              		.cfi_endproc
  93              	.LFE0:
  94              		.size	get_api_key, .-get_api_key
  95              		.section	.text.get_secret_key,"ax",%progbits
  96              		.align	1
  97              		.global	get_secret_key
  98              		.code	16
  99              		.thumb_func
 100              		.type	get_secret_key, %function
 101              	get_secret_key:
 102              	.LFB1:
  41:..\acn-sdk-c\src\arrow/sign.c ****   if (secret.key) return secret.key;
 103              		.loc 1 41 0
 104              		.cfi_startproc
  42:..\acn-sdk-c\src\arrow/sign.c ****   return (char*)default_secret_key;
 105              		.loc 1 42 0
 106 0000 024B     		ldr	r3, .L9
 107 0002 5868     		ldr	r0, [r3, #4]
 108 0004 0028     		cmp	r0, #0
 109 0006 00D1     		bne	.L8
  43:..\acn-sdk-c\src\arrow/sign.c **** }
 110              		.loc 1 43 0
 111 0008 0148     		ldr	r0, .L9+4
 112              	.L8:
  44:..\acn-sdk-c\src\arrow/sign.c **** 
ARM GAS  C:\Users\ddemidov\AppData\Local\Temp\ccJpwEoT.s 			page 4


 113              		.loc 1 44 0
 114              		@ sp needed
 115 000a 7047     		bx	lr
 116              	.L10:
 117              		.align	2
 118              	.L9:
 119 000c 00000000 		.word	.LANCHOR0
 120 0010 41000000 		.word	.LC3
 121              		.cfi_endproc
 122              	.LFE1:
 123              		.size	get_secret_key, .-get_secret_key
 124              		.section	.text.set_api_key,"ax",%progbits
 125              		.align	1
 126              		.global	set_api_key
 127              		.code	16
 128              		.thumb_func
 129              		.type	set_api_key, %function
 130              	set_api_key:
 131              	.LFB3:
  50:..\acn-sdk-c\src\arrow/sign.c **** 
  51:..\acn-sdk-c\src\arrow/sign.c **** void set_api_key(char *newkey) {
 132              		.loc 1 51 0
 133              		.cfi_startproc
 134              	.LVL7:
 135 0000 011C     		mov	r1, r0
  52:..\acn-sdk-c\src\arrow/sign.c ****   api.key = api_key;
 136              		.loc 1 52 0
 137 0002 0448     		ldr	r0, .L12
 138              	.LVL8:
  51:..\acn-sdk-c\src\arrow/sign.c ****   api.key = api_key;
 139              		.loc 1 51 0
 140 0004 08B5     		push	{r3, lr}
 141              		.cfi_def_cfa_offset 8
 142              		.cfi_offset 3, -8
 143              		.cfi_offset 14, -4
 144              		.loc 1 52 0
 145 0006 031C     		mov	r3, r0
 146 0008 0833     		add	r3, r3, #8
 147 000a 0360     		str	r3, [r0]
  53:..\acn-sdk-c\src\arrow/sign.c ****   set_key(&api, newkey);
  54:..\acn-sdk-c\src\arrow/sign.c **** }
 148              		.loc 1 54 0
 149              		@ sp needed
  53:..\acn-sdk-c\src\arrow/sign.c ****   set_key(&api, newkey);
 150              		.loc 1 53 0
 151 000c FFF7FEFF 		bl	set_key
 152              	.LVL9:
 153              		.loc 1 54 0
 154 0010 08BD     		pop	{r3, pc}
 155              	.L13:
 156 0012 C046     		.align	2
 157              	.L12:
 158 0014 00000000 		.word	.LANCHOR0
 159              		.cfi_endproc
 160              	.LFE3:
 161              		.size	set_api_key, .-set_api_key
 162              		.section	.text.set_secret_key,"ax",%progbits
ARM GAS  C:\Users\ddemidov\AppData\Local\Temp\ccJpwEoT.s 			page 5


 163              		.align	1
 164              		.global	set_secret_key
 165              		.code	16
 166              		.thumb_func
 167              		.type	set_secret_key, %function
 168              	set_secret_key:
 169              	.LFB4:
  55:..\acn-sdk-c\src\arrow/sign.c **** void set_secret_key(char *newkey) {
 170              		.loc 1 55 0
 171              		.cfi_startproc
 172              	.LVL10:
 173 0000 011C     		mov	r1, r0
  56:..\acn-sdk-c\src\arrow/sign.c ****   secret.key = secret_key;
 174              		.loc 1 56 0
 175 0002 0448     		ldr	r0, .L15
 176              	.LVL11:
  55:..\acn-sdk-c\src\arrow/sign.c **** void set_secret_key(char *newkey) {
 177              		.loc 1 55 0
 178 0004 08B5     		push	{r3, lr}
 179              		.cfi_def_cfa_offset 8
 180              		.cfi_offset 3, -8
 181              		.cfi_offset 14, -4
 182              		.loc 1 56 0
 183 0006 031C     		mov	r3, r0
 184 0008 6C33     		add	r3, r3, #108
 185 000a 4360     		str	r3, [r0, #4]
  57:..\acn-sdk-c\src\arrow/sign.c ****   set_key(&secret, newkey);
 186              		.loc 1 57 0
 187 000c 0430     		add	r0, r0, #4
 188 000e FFF7FEFF 		bl	set_key
 189              	.LVL12:
  58:..\acn-sdk-c\src\arrow/sign.c **** }
 190              		.loc 1 58 0
 191              		@ sp needed
 192 0012 08BD     		pop	{r3, pc}
 193              	.L16:
 194              		.align	2
 195              	.L15:
 196 0014 00000000 		.word	.LANCHOR0
 197              		.cfi_endproc
 198              	.LFE4:
 199              		.size	set_secret_key, .-set_secret_key
 200              		.section	.text.sign,"ax",%progbits
 201              		.align	1
 202              		.global	sign
 203              		.code	16
 204              		.thumb_func
 205              		.type	sign, %function
 206              	sign:
 207              	.LFB5:
  59:..\acn-sdk-c\src\arrow/sign.c **** 
  60:..\acn-sdk-c\src\arrow/sign.c **** void sign(char *signature,
  61:..\acn-sdk-c\src\arrow/sign.c ****           const char *timestamp,
  62:..\acn-sdk-c\src\arrow/sign.c ****           const char *meth,
  63:..\acn-sdk-c\src\arrow/sign.c ****           const char *uri,
  64:..\acn-sdk-c\src\arrow/sign.c ****           const char *canQueryString,
  65:..\acn-sdk-c\src\arrow/sign.c ****           const char *payload,
ARM GAS  C:\Users\ddemidov\AppData\Local\Temp\ccJpwEoT.s 			page 6


  66:..\acn-sdk-c\src\arrow/sign.c ****           const char *apiVersion) {
 208              		.loc 1 66 0
 209              		.cfi_startproc
 210              	.LVL13:
 211 0000 F0B5     		push	{r4, r5, r6, r7, lr}
 212              		.cfi_def_cfa_offset 20
 213              		.cfi_offset 4, -20
 214              		.cfi_offset 5, -16
 215              		.cfi_offset 6, -12
 216              		.cfi_offset 7, -8
 217              		.cfi_offset 14, -4
  67:..\acn-sdk-c\src\arrow/sign.c ****     int i;
  68:..\acn-sdk-c\src\arrow/sign.c ****     static char canonicalRequest[512];
  69:..\acn-sdk-c\src\arrow/sign.c ****     static char signKey[128];
  70:..\acn-sdk-c\src\arrow/sign.c ****     static char tmp[128];
  71:..\acn-sdk-c\src\arrow/sign.c **** 
  72:..\acn-sdk-c\src\arrow/sign.c ****     strcpy(canonicalRequest, meth);
 218              		.loc 1 72 0
 219 0002 7D4D     		ldr	r5, .L30
  66:..\acn-sdk-c\src\arrow/sign.c ****     int i;
 220              		.loc 1 66 0
 221 0004 1F1C     		mov	r7, r3
 222              		.loc 1 72 0
 223 0006 2C1C     		mov	r4, r5
  66:..\acn-sdk-c\src\arrow/sign.c ****     int i;
 224              		.loc 1 66 0
 225 0008 A1B0     		sub	sp, sp, #132
 226              		.cfi_def_cfa_offset 152
 227              		.loc 1 72 0
 228 000a 5034     		add	r4, r4, #80
  66:..\acn-sdk-c\src\arrow/sign.c ****     int i;
 229              		.loc 1 66 0
 230 000c 0490     		str	r0, [sp, #16]
 231 000e 0391     		str	r1, [sp, #12]
 232              		.loc 1 72 0
 233 0010 201C     		mov	r0, r4
 234              	.LVL14:
 235 0012 111C     		mov	r1, r2
 236              	.LVL15:
 237 0014 FFF7FEFF 		bl	strcpy
 238              	.LVL16:
  73:..\acn-sdk-c\src\arrow/sign.c ****     strcat(canonicalRequest, "\n");
 239              		.loc 1 73 0
 240 0018 784E     		ldr	r6, .L30+4
 241 001a 201C     		mov	r0, r4
 242 001c 311C     		mov	r1, r6
 243 001e FFF7FEFF 		bl	strcat
 244              	.LVL17:
  74:..\acn-sdk-c\src\arrow/sign.c ****     strcat(canonicalRequest, uri);
 245              		.loc 1 74 0
 246 0022 391C     		mov	r1, r7
 247 0024 201C     		mov	r0, r4
 248 0026 FFF7FEFF 		bl	strcat
 249              	.LVL18:
  75:..\acn-sdk-c\src\arrow/sign.c ****     strcat(canonicalRequest, "\n");
 250              		.loc 1 75 0
 251 002a 201C     		mov	r0, r4
ARM GAS  C:\Users\ddemidov\AppData\Local\Temp\ccJpwEoT.s 			page 7


 252 002c 311C     		mov	r1, r6
 253 002e FFF7FEFF 		bl	strcat
 254              	.LVL19:
  76:..\acn-sdk-c\src\arrow/sign.c ****     if (canQueryString) strcat(canonicalRequest, canQueryString);
 255              		.loc 1 76 0
 256 0032 269B     		ldr	r3, [sp, #152]
 257 0034 0295     		str	r5, [sp, #8]
 258 0036 002B     		cmp	r3, #0
 259 0038 03D0     		beq	.L18
 260              		.loc 1 76 0 is_stmt 0 discriminator 1
 261 003a 201C     		mov	r0, r4
 262 003c 191C     		mov	r1, r3
 263 003e FFF7FEFF 		bl	strcat
 264              	.LVL20:
 265              	.L18:
  77:..\acn-sdk-c\src\arrow/sign.c ****     char hex_hash_payload[66];
  78:..\acn-sdk-c\src\arrow/sign.c ****     char hash_payload[34];
  79:..\acn-sdk-c\src\arrow/sign.c ****     if (payload) {
 266              		.loc 1 79 0 is_stmt 1
 267 0042 279B     		ldr	r3, [sp, #156]
 268 0044 06AD     		add	r5, sp, #24
 269 0046 002B     		cmp	r3, #0
 270 0048 16D0     		beq	.L19
  80:..\acn-sdk-c\src\arrow/sign.c ****       sha256(hash_payload, (char*)payload, (int)strlen(payload));
 271              		.loc 1 80 0
 272 004a 181C     		mov	r0, r3
 273 004c FFF7FEFF 		bl	strlen
 274              	.LVL21:
 275 0050 2799     		ldr	r1, [sp, #156]
 276 0052 021C     		mov	r2, r0
 277 0054 281C     		mov	r0, r5
 278 0056 FFF7FEFF 		bl	sha256
 279              	.LVL22:
  81:..\acn-sdk-c\src\arrow/sign.c ****       for (i=0; i<32; i++) sprintf(hex_hash_payload+i*2, "%02x", (unsigned char)hash_payload[i]);
 280              		.loc 1 81 0
 281 005a 0024     		mov	r4, #0
 282              	.LVL23:
 283              	.L20:
 284 005c 6000     		lsl	r0, r4, #1
 285 005e 0FAB     		add	r3, sp, #60
 286              		.loc 1 81 0 is_stmt 0 discriminator 3
 287 0060 2A5D     		ldrb	r2, [r5, r4]
 288 0062 1818     		add	r0, r3, r0
 289 0064 6649     		ldr	r1, .L30+8
 290 0066 0134     		add	r4, r4, #1
 291              	.LVL24:
 292 0068 FFF7FEFF 		bl	sprintf
 293              	.LVL25:
 294 006c 202C     		cmp	r4, #32
 295 006e F5D1     		bne	.L20
  82:..\acn-sdk-c\src\arrow/sign.c ****       hex_hash_payload[64] = '\0';
 296              		.loc 1 82 0 is_stmt 1
 297 0070 0022     		mov	r2, #0
 298 0072 1FAB     		add	r3, sp, #124
 299 0074 1A70     		strb	r2, [r3]
 300 0076 03E0     		b	.L21
 301              	.LVL26:
ARM GAS  C:\Users\ddemidov\AppData\Local\Temp\ccJpwEoT.s 			page 8


 302              	.L19:
  83:..\acn-sdk-c\src\arrow/sign.c ****     } else {
  84:..\acn-sdk-c\src\arrow/sign.c ****       strcpy(hex_hash_payload, "e3b0c44298fc1c149afbf4c8996fb92427ae41e4649b934ca495991b7852b855");
 303              		.loc 1 84 0
 304 0078 0FA8     		add	r0, sp, #60
 305 007a 6249     		ldr	r1, .L30+12
 306 007c FFF7FEFF 		bl	strcpy
 307              	.LVL27:
 308              	.L21:
  85:..\acn-sdk-c\src\arrow/sign.c ****     }
  86:..\acn-sdk-c\src\arrow/sign.c ****     strncat(canonicalRequest, hex_hash_payload, 64);
 309              		.loc 1 86 0
 310 0080 029C     		ldr	r4, [sp, #8]
 311 0082 0FA9     		add	r1, sp, #60
 312 0084 5034     		add	r4, r4, #80
 313 0086 4022     		mov	r2, #64
 314 0088 201C     		mov	r0, r4
 315 008a FFF7FEFF 		bl	strncat
 316              	.LVL28:
  87:..\acn-sdk-c\src\arrow/sign.c **** //    DBG("<caninical request>%s<end>", canonicalRequest);
  88:..\acn-sdk-c\src\arrow/sign.c ****     sha256(hash_payload, canonicalRequest, (int)strlen(canonicalRequest));
 317              		.loc 1 88 0
 318 008e 201C     		mov	r0, r4
 319 0090 FFF7FEFF 		bl	strlen
 320              	.LVL29:
 321 0094 211C     		mov	r1, r4
 322 0096 021C     		mov	r2, r0
 323 0098 281C     		mov	r0, r5
 324 009a FFF7FEFF 		bl	sha256
 325              	.LVL30:
  89:..\acn-sdk-c\src\arrow/sign.c ****     for (i=0; i<32; i++) sprintf(hex_hash_payload+i*2, "%02x", (unsigned char)(hash_payload[i]));
 326              		.loc 1 89 0
 327 009e 0024     		mov	r4, #0
 328              	.LVL31:
 329              	.L22:
 330 00a0 6000     		lsl	r0, r4, #1
 331 00a2 0FAB     		add	r3, sp, #60
 332              		.loc 1 89 0 is_stmt 0 discriminator 3
 333 00a4 2A5D     		ldrb	r2, [r5, r4]
 334 00a6 1818     		add	r0, r3, r0
 335 00a8 5549     		ldr	r1, .L30+8
 336 00aa 0134     		add	r4, r4, #1
 337              	.LVL32:
 338 00ac FFF7FEFF 		bl	sprintf
 339              	.LVL33:
 340 00b0 202C     		cmp	r4, #32
 341 00b2 F5D1     		bne	.L22
  90:..\acn-sdk-c\src\arrow/sign.c ****     hex_hash_payload[64] = '\0';
 342              		.loc 1 90 0 is_stmt 1
 343 00b4 0024     		mov	r4, #0
 344              	.LVL34:
  91:..\acn-sdk-c\src\arrow/sign.c **** //    DBG("hashed canonical request: %s", hex_hash_payload);
  92:..\acn-sdk-c\src\arrow/sign.c **** //    stringToSign := hashedCanonicalRequest +"\n"+apiKey+"\n"+timestamp+"\n"+apiVersion
  93:..\acn-sdk-c\src\arrow/sign.c **** 
  94:..\acn-sdk-c\src\arrow/sign.c ****     strncpy(canonicalRequest, hex_hash_payload, 64);
 345              		.loc 1 94 0
 346 00b6 029D     		ldr	r5, [sp, #8]
ARM GAS  C:\Users\ddemidov\AppData\Local\Temp\ccJpwEoT.s 			page 9


 347 00b8 4022     		mov	r2, #64
 348 00ba 5035     		add	r5, r5, #80
  90:..\acn-sdk-c\src\arrow/sign.c ****     hex_hash_payload[64] = '\0';
 349              		.loc 1 90 0
 350 00bc 1FAB     		add	r3, sp, #124
 351              		.loc 1 94 0
 352 00be 281C     		mov	r0, r5
 353 00c0 0FA9     		add	r1, sp, #60
  90:..\acn-sdk-c\src\arrow/sign.c ****     hex_hash_payload[64] = '\0';
 354              		.loc 1 90 0
 355 00c2 1C70     		strb	r4, [r3]
 356              		.loc 1 94 0
 357 00c4 FFF7FEFF 		bl	strncpy
 358              	.LVL35:
  95:..\acn-sdk-c\src\arrow/sign.c ****     canonicalRequest[64] = 0x0;
  96:..\acn-sdk-c\src\arrow/sign.c ****     strcat(canonicalRequest, "\n");
 359              		.loc 1 96 0
 360 00c8 4C4E     		ldr	r6, .L30+4
  95:..\acn-sdk-c\src\arrow/sign.c ****     canonicalRequest[64] = 0x0;
 361              		.loc 1 95 0
 362 00ca 029B     		ldr	r3, [sp, #8]
 363              		.loc 1 96 0
 364 00cc 311C     		mov	r1, r6
  95:..\acn-sdk-c\src\arrow/sign.c ****     canonicalRequest[64] = 0x0;
 365              		.loc 1 95 0
 366 00ce 9033     		add	r3, r3, #144
 367              		.loc 1 96 0
 368 00d0 281C     		mov	r0, r5
  95:..\acn-sdk-c\src\arrow/sign.c ****     canonicalRequest[64] = 0x0;
 369              		.loc 1 95 0
 370 00d2 1C70     		strb	r4, [r3]
 371              		.loc 1 96 0
 372 00d4 FFF7FEFF 		bl	strcat
 373              	.LVL36:
  97:..\acn-sdk-c\src\arrow/sign.c ****     strcat(canonicalRequest, get_api_key());
 374              		.loc 1 97 0
 375 00d8 FFF7FEFF 		bl	get_api_key
 376              	.LVL37:
 377 00dc 011C     		mov	r1, r0
 378 00de 281C     		mov	r0, r5
 379 00e0 FFF7FEFF 		bl	strcat
 380              	.LVL38:
  98:..\acn-sdk-c\src\arrow/sign.c ****     strcat(canonicalRequest, "\n");
 381              		.loc 1 98 0
 382 00e4 311C     		mov	r1, r6
 383 00e6 281C     		mov	r0, r5
 384 00e8 FFF7FEFF 		bl	strcat
 385              	.LVL39:
  99:..\acn-sdk-c\src\arrow/sign.c ****     strcat(canonicalRequest, timestamp);
 386              		.loc 1 99 0
 387 00ec 281C     		mov	r0, r5
 388 00ee 0399     		ldr	r1, [sp, #12]
 389 00f0 FFF7FEFF 		bl	strcat
 390              	.LVL40:
 100:..\acn-sdk-c\src\arrow/sign.c ****     strcat(canonicalRequest, "\n");
 391              		.loc 1 100 0
 392 00f4 311C     		mov	r1, r6
ARM GAS  C:\Users\ddemidov\AppData\Local\Temp\ccJpwEoT.s 			page 10


 393 00f6 281C     		mov	r0, r5
 394 00f8 FFF7FEFF 		bl	strcat
 395              	.LVL41:
 101:..\acn-sdk-c\src\arrow/sign.c ****     strcat(canonicalRequest, apiVersion);
 396              		.loc 1 101 0
 397 00fc 2899     		ldr	r1, [sp, #160]
 398 00fe 281C     		mov	r0, r5
 399 0100 FFF7FEFF 		bl	strcat
 400              	.LVL42:
 102:..\acn-sdk-c\src\arrow/sign.c **** //    DBG("<string to sign>%s<end>", canonicalRequest);
 103:..\acn-sdk-c\src\arrow/sign.c **** 
 104:..\acn-sdk-c\src\arrow/sign.c ****     strcpy(signKey, get_secret_key());
 401              		.loc 1 104 0
 402 0104 FFF7FEFF 		bl	get_secret_key
 403              	.LVL43:
 404 0108 3F4F     		ldr	r7, .L30+16
 405              	.LVL44:
 406 010a 011C     		mov	r1, r0
 407 010c 3D1C     		mov	r5, r7
 408 010e 5035     		add	r5, r5, #80
 409 0110 281C     		mov	r0, r5
 410 0112 FFF7FEFF 		bl	strcpy
 411              	.LVL45:
 105:..\acn-sdk-c\src\arrow/sign.c **** 
 106:..\acn-sdk-c\src\arrow/sign.c ****     hmac256(tmp, get_api_key(), (int)strlen(get_api_key()), signKey, (int)strlen(signKey));
 412              		.loc 1 106 0
 413 0116 FFF7FEFF 		bl	get_api_key
 414              	.LVL46:
 415 011a 061C     		mov	r6, r0
 416 011c FFF7FEFF 		bl	strlen
 417              	.LVL47:
 418 0120 0590     		str	r0, [sp, #20]
 419 0122 281C     		mov	r0, r5
 420 0124 FFF7FEFF 		bl	strlen
 421              	.LVL48:
 422 0128 0090     		str	r0, [sp]
 423 012a 3848     		ldr	r0, .L30+20
 424 012c 311C     		mov	r1, r6
 425 012e 5030     		add	r0, r0, #80
 426 0130 059A     		ldr	r2, [sp, #20]
 427 0132 2B1C     		mov	r3, r5
 428 0134 FFF7FEFF 		bl	hmac256
 429              	.LVL49:
 430 0138 0597     		str	r7, [sp, #20]
 431              	.LVL50:
 432              	.L23:
 433 013a 334D     		ldr	r5, .L30+16
 107:..\acn-sdk-c\src\arrow/sign.c ****     for (i=0; i<32; i++) sprintf(signKey+i*2, "%02x", (unsigned char)(tmp[i]));
 434              		.loc 1 107 0 discriminator 3
 435 013c 334E     		ldr	r6, .L30+20
 436 013e 6000     		lsl	r0, r4, #1
 437 0140 5035     		add	r5, r5, #80
 438 0142 5036     		add	r6, r6, #80
 439 0144 A25D     		ldrb	r2, [r4, r6]
 440 0146 2818     		add	r0, r5, r0
 441 0148 2D49     		ldr	r1, .L30+8
 442 014a 0134     		add	r4, r4, #1
ARM GAS  C:\Users\ddemidov\AppData\Local\Temp\ccJpwEoT.s 			page 11


 443              	.LVL51:
 444 014c FFF7FEFF 		bl	sprintf
 445              	.LVL52:
 446 0150 202C     		cmp	r4, #32
 447 0152 F2D1     		bne	.L23
 108:..\acn-sdk-c\src\arrow/sign.c **** //    DBG("step 1: %s", signKey);
 109:..\acn-sdk-c\src\arrow/sign.c ****     hmac256(tmp, timestamp, (int)strlen(timestamp), signKey, 64);
 448              		.loc 1 109 0
 449 0154 0398     		ldr	r0, [sp, #12]
 450 0156 FFF7FEFF 		bl	strlen
 451              	.LVL53:
 452 015a 4023     		mov	r3, #64
 453 015c 021C     		mov	r2, r0
 454 015e 0093     		str	r3, [sp]
 455 0160 301C     		mov	r0, r6
 456 0162 0399     		ldr	r1, [sp, #12]
 457 0164 2B1C     		mov	r3, r5
 458 0166 FFF7FEFF 		bl	hmac256
 459              	.LVL54:
 110:..\acn-sdk-c\src\arrow/sign.c ****     for (i=0; i<32; i++) sprintf(signKey+i*2, "%02x", (unsigned char)(tmp[i]));
 460              		.loc 1 110 0
 461 016a 0024     		mov	r4, #0
 462              	.LVL55:
 463              	.L24:
 464 016c 059E     		ldr	r6, [sp, #20]
 465              		.loc 1 110 0 is_stmt 0 discriminator 3
 466 016e 274D     		ldr	r5, .L30+20
 467 0170 6000     		lsl	r0, r4, #1
 468 0172 5036     		add	r6, r6, #80
 469 0174 5035     		add	r5, r5, #80
 470 0176 625D     		ldrb	r2, [r4, r5]
 471 0178 3018     		add	r0, r6, r0
 472 017a 2149     		ldr	r1, .L30+8
 473 017c 0134     		add	r4, r4, #1
 474              	.LVL56:
 475 017e FFF7FEFF 		bl	sprintf
 476              	.LVL57:
 477 0182 202C     		cmp	r4, #32
 478 0184 F2D1     		bne	.L24
 111:..\acn-sdk-c\src\arrow/sign.c **** //    DBG("step 2: %s", signKey);
 112:..\acn-sdk-c\src\arrow/sign.c ****     hmac256(tmp, apiVersion, (int)strlen(apiVersion), signKey, 64);
 479              		.loc 1 112 0 is_stmt 1
 480 0186 2898     		ldr	r0, [sp, #160]
 481 0188 FFF7FEFF 		bl	strlen
 482              	.LVL58:
 483 018c 4023     		mov	r3, #64
 484 018e 021C     		mov	r2, r0
 485 0190 0093     		str	r3, [sp]
 486 0192 281C     		mov	r0, r5
 487 0194 2899     		ldr	r1, [sp, #160]
 488 0196 331C     		mov	r3, r6
 489 0198 FFF7FEFF 		bl	hmac256
 490              	.LVL59:
 113:..\acn-sdk-c\src\arrow/sign.c ****     for (i=0; i<32; i++) sprintf(signKey+i*2, "%02x", (unsigned char)(tmp[i]));
 491              		.loc 1 113 0
 492 019c 0025     		mov	r5, #0
 493              	.LVL60:
ARM GAS  C:\Users\ddemidov\AppData\Local\Temp\ccJpwEoT.s 			page 12


 494              	.L25:
 495              		.loc 1 113 0 is_stmt 0 discriminator 3
 496 019e 1B4F     		ldr	r7, .L30+20
 497 01a0 1B4B     		ldr	r3, .L30+24
 498 01a2 3C1C     		mov	r4, r7
 499 01a4 164E     		ldr	r6, .L30+8
 500 01a6 6800     		lsl	r0, r5, #1
 501 01a8 5034     		add	r4, r4, #80
 502 01aa 2A5D     		ldrb	r2, [r5, r4]
 503 01ac 1818     		add	r0, r3, r0
 504 01ae 311C     		mov	r1, r6
 505 01b0 0135     		add	r5, r5, #1
 506              	.LVL61:
 507 01b2 FFF7FEFF 		bl	sprintf
 508              	.LVL62:
 509 01b6 202D     		cmp	r5, #32
 510 01b8 F1D1     		bne	.L25
 114:..\acn-sdk-c\src\arrow/sign.c **** //    DBG("step 3: %s", signKey);
 115:..\acn-sdk-c\src\arrow/sign.c ****     hmac256(tmp, signKey, 64, canonicalRequest, (int)strlen(canonicalRequest));
 511              		.loc 1 115 0 is_stmt 1
 512 01ba 029D     		ldr	r5, [sp, #8]
 513              	.LVL63:
 514 01bc 5035     		add	r5, r5, #80
 515 01be 281C     		mov	r0, r5
 516 01c0 FFF7FEFF 		bl	strlen
 517              	.LVL64:
 518 01c4 1249     		ldr	r1, .L30+24
 519 01c6 0090     		str	r0, [sp]
 520 01c8 4022     		mov	r2, #64
 521 01ca 201C     		mov	r0, r4
 522 01cc 2B1C     		mov	r3, r5
 523 01ce FFF7FEFF 		bl	hmac256
 524              	.LVL65:
 116:..\acn-sdk-c\src\arrow/sign.c ****     for (i=0; i<32; i++) sprintf(signature+i*2, "%02x", (unsigned char)(tmp[i]));
 525              		.loc 1 116 0
 526 01d2 0024     		mov	r4, #0
 527              	.LVL66:
 528              	.L26:
 529 01d4 049B     		ldr	r3, [sp, #16]
 530 01d6 6000     		lsl	r0, r4, #1
 531 01d8 1818     		add	r0, r3, r0
 532              		.loc 1 116 0 is_stmt 0 discriminator 3
 533 01da 3B1C     		mov	r3, r7
 534 01dc 5033     		add	r3, r3, #80
 535 01de E25C     		ldrb	r2, [r4, r3]
 536 01e0 311C     		mov	r1, r6
 537 01e2 0134     		add	r4, r4, #1
 538              	.LVL67:
 539 01e4 FFF7FEFF 		bl	sprintf
 540              	.LVL68:
 541 01e8 202C     		cmp	r4, #32
 542 01ea F3D1     		bne	.L26
 117:..\acn-sdk-c\src\arrow/sign.c ****     signature[64] = '\0';
 543              		.loc 1 117 0 is_stmt 1
 544 01ec 0022     		mov	r2, #0
 545 01ee 049B     		ldr	r3, [sp, #16]
 546 01f0 4033     		add	r3, r3, #64
ARM GAS  C:\Users\ddemidov\AppData\Local\Temp\ccJpwEoT.s 			page 13


 547 01f2 1A70     		strb	r2, [r3]
 118:..\acn-sdk-c\src\arrow/sign.c **** //    DBG("sign: %s", signature);
 119:..\acn-sdk-c\src\arrow/sign.c **** }
 548              		.loc 1 119 0
 549 01f4 21B0     		add	sp, sp, #132
 550              		@ sp needed
 551              	.LVL69:
 552 01f6 F0BD     		pop	{r4, r5, r6, r7, pc}
 553              	.L31:
 554              		.align	2
 555              	.L30:
 556 01f8 80000000 		.word	.LANCHOR1
 557 01fc 6E000000 		.word	.LC14
 558 0200 70000000 		.word	.LC16
 559 0204 75000000 		.word	.LC18
 560 0208 80020000 		.word	.LANCHOR2
 561 020c 00030000 		.word	.LANCHOR3
 562 0210 D0020000 		.word	.LANCHOR2+80
 563              		.cfi_endproc
 564              	.LFE5:
 565              		.size	sign, .-sign
 566              		.section	.rodata.str1.1,"aMS",%progbits,1
 567              	.LC0:
 568 0000 35613332 		.ascii	"5a3264fb990a18e0e180efbbfadd5d95db3baed93defcb1d5a3"
 568      36346662 
 568      39393061 
 568      31386530 
 568      65313830 
 569 0033 35393636 		.ascii	"5966c6b98fef5\000"
 569      63366239 
 569      38666566 
 569      3500
 570              	.LC3:
 571 0041 45395938 		.ascii	"E9Y8y8A88R/x5JV2nfB7H/1A3eET85PSeURpk4QKp4c=\000"
 571      79384138 
 571      38522F78 
 571      354A5632 
 571      6E664237 
 572              	.LC14:
 573 006e 0A00     		.ascii	"\012\000"
 574              	.LC16:
 575 0070 25303278 		.ascii	"%02x\000"
 575      00
 576              	.LC18:
 577 0075 65336230 		.ascii	"e3b0c44298fc1c149afbf4c8996fb92427ae41e4649b934ca49"
 577      63343432 
 577      39386663 
 577      31633134 
 577      39616662 
 578 00a8 35393931 		.ascii	"5991b7852b855\000"
 578      62373835 
 578      32623835 
 578      3500
 579              		.bss
 580              		.align	2
 581              		.set	.LANCHOR0,. + 0
 582              		.set	.LANCHOR1,. + 128
ARM GAS  C:\Users\ddemidov\AppData\Local\Temp\ccJpwEoT.s 			page 14


 583              		.set	.LANCHOR2,. + 640
 584              		.set	.LANCHOR3,. + 768
 585              		.type	api, %object
 586              		.size	api, 4
 587              	api:
 588 0000 00000000 		.space	4
 589              		.type	secret, %object
 590              		.size	secret, 4
 591              	secret:
 592 0004 00000000 		.space	4
 593              		.type	api_key, %object
 594              		.size	api_key, 100
 595              	api_key:
 596 0008 00000000 		.space	100
 596      00000000 
 596      00000000 
 596      00000000 
 596      00000000 
 597              		.type	secret_key, %object
 598              		.size	secret_key, 100
 599              	secret_key:
 600 006c 00000000 		.space	100
 600      00000000 
 600      00000000 
 600      00000000 
 600      00000000 
 601              		.type	canonicalRequest.5721, %object
 602              		.size	canonicalRequest.5721, 512
 603              	canonicalRequest.5721:
 604 00d0 00000000 		.space	512
 604      00000000 
 604      00000000 
 604      00000000 
 604      00000000 
 605              		.type	signKey.5722, %object
 606              		.size	signKey.5722, 128
 607              	signKey.5722:
 608 02d0 00000000 		.space	128
 608      00000000 
 608      00000000 
 608      00000000 
 608      00000000 
 609              		.type	tmp.5723, %object
 610              		.size	tmp.5723, 128
 611              	tmp.5723:
 612 0350 00000000 		.space	128
 612      00000000 
 612      00000000 
 612      00000000 
 612      00000000 
 613              		.text
 614              	.Letext0:
 615              		.file 2 "c:\\program files (x86)\\cypress\\psoc creator\\3.3\\psoc creator\\import\\gnu\\arm\\4.9.
 616              		.file 3 "c:\\program files (x86)\\cypress\\psoc creator\\3.3\\psoc creator\\import\\gnu\\arm\\4.9.
 617              		.file 4 "c:\\program files (x86)\\cypress\\psoc creator\\3.3\\psoc creator\\import\\gnu\\arm\\4.9.
 618              		.file 5 "..\\acn-sdk-c\\include/crypt/crypt.h"