ARM GAS  C:\Users\ddemidov\AppData\Local\Temp\ccvFzcdq.s 			page 1


   1              		.cpu cortex-m0
   2              		.fpu softvfp
   3              		.eabi_attribute 20, 1
   4              		.eabi_attribute 21, 1
   5              		.eabi_attribute 23, 3
   6              		.eabi_attribute 24, 1
   7              		.eabi_attribute 25, 1
   8              		.eabi_attribute 26, 1
   9              		.eabi_attribute 30, 4
  10              		.eabi_attribute 34, 0
  11              		.eabi_attribute 18, 4
  12              		.code	16
  13              		.file	"storage.c"
  14              		.text
  15              	.Ltext0:
  16              		.cfi_sections	.debug_frame
  17              		.section	.text.write_flash,"ax",%progbits
  18              		.align	1
  19              		.code	16
  20              		.thumb_func
  21              		.type	write_flash, %function
  22              	write_flash:
  23              	.LFB64:
  24              		.file 1 "..\\acn-sdk-c\\platforms\\senseability\\arrow\\storage.c"
   1:..\acn-sdk-c\platforms\senseability\arrow/storage.c **** #include "arrow/storage.h"
   2:..\acn-sdk-c\platforms\senseability\arrow/storage.c **** #include <string.h>
   3:..\acn-sdk-c\platforms\senseability\arrow/storage.c **** #include <stdio.h>
   4:..\acn-sdk-c\platforms\senseability\arrow/storage.c **** #include <stdlib.h>
   5:..\acn-sdk-c\platforms\senseability\arrow/storage.c **** 
   6:..\acn-sdk-c\platforms\senseability\arrow/storage.c **** #include <arrow/utf8.h>
   7:..\acn-sdk-c\platforms\senseability\arrow/storage.c **** #include <debug.h>
   8:..\acn-sdk-c\platforms\senseability\arrow/storage.c **** 
   9:..\acn-sdk-c\platforms\senseability\arrow/storage.c **** #include <project.h>
  10:..\acn-sdk-c\platforms\senseability\arrow/storage.c **** 
  11:..\acn-sdk-c\platforms\senseability\arrow/storage.c **** typedef struct {
  12:..\acn-sdk-c\platforms\senseability\arrow/storage.c ****   int magic;
  13:..\acn-sdk-c\platforms\senseability\arrow/storage.c ****   char ssid[64];
  14:..\acn-sdk-c\platforms\senseability\arrow/storage.c ****   char pass[64];
  15:..\acn-sdk-c\platforms\senseability\arrow/storage.c ****   int sec;
  16:..\acn-sdk-c\platforms\senseability\arrow/storage.c ****   char padding[116];
  17:..\acn-sdk-c\platforms\senseability\arrow/storage.c ****   int config;
  18:..\acn-sdk-c\platforms\senseability\arrow/storage.c ****   char gateway_hid[64];
  19:..\acn-sdk-c\platforms\senseability\arrow/storage.c ****   char device_hid[64];
  20:..\acn-sdk-c\platforms\senseability\arrow/storage.c ****   char device_eid[64];
  21:..\acn-sdk-c\platforms\senseability\arrow/storage.c ****   char unused[64];
  22:..\acn-sdk-c\platforms\senseability\arrow/storage.c **** } flash_mem_t;
  23:..\acn-sdk-c\platforms\senseability\arrow/storage.c **** 
  24:..\acn-sdk-c\platforms\senseability\arrow/storage.c **** /*
  25:..\acn-sdk-c\platforms\senseability\arrow/storage.c **** int check_mgc() {
  26:..\acn-sdk-c\platforms\senseability\arrow/storage.c ****   int *c = flash_start();
  27:..\acn-sdk-c\platforms\senseability\arrow/storage.c ****   if ( *c != FLASH_MAGIC_NUMBER ) {
  28:..\acn-sdk-c\platforms\senseability\arrow/storage.c ****     return 0;
  29:..\acn-sdk-c\platforms\senseability\arrow/storage.c ****   }
  30:..\acn-sdk-c\platforms\senseability\arrow/storage.c ****   return 1;
  31:..\acn-sdk-c\platforms\senseability\arrow/storage.c **** }
  32:..\acn-sdk-c\platforms\senseability\arrow/storage.c **** */
  33:..\acn-sdk-c\platforms\senseability\arrow/storage.c **** 
ARM GAS  C:\Users\ddemidov\AppData\Local\Temp\ccvFzcdq.s 			page 2


  34:..\acn-sdk-c\platforms\senseability\arrow/storage.c **** static flash_mem_t flash;
  35:..\acn-sdk-c\platforms\senseability\arrow/storage.c **** 
  36:..\acn-sdk-c\platforms\senseability\arrow/storage.c **** #define ROW 1024
  37:..\acn-sdk-c\platforms\senseability\arrow/storage.c **** 
  38:..\acn-sdk-c\platforms\senseability\arrow/storage.c **** static void read_flash() {
  39:..\acn-sdk-c\platforms\senseability\arrow/storage.c ****     static int read = 0;
  40:..\acn-sdk-c\platforms\senseability\arrow/storage.c ****     if (!read) {
  41:..\acn-sdk-c\platforms\senseability\arrow/storage.c ****         char *ptr;
  42:..\acn-sdk-c\platforms\senseability\arrow/storage.c ****         ptr = (CY_FLASH_BASE + ROW * CY_FLASH_SIZEOF_ROW);
  43:..\acn-sdk-c\platforms\senseability\arrow/storage.c ****         memcpy(&flash, ptr, sizeof(flash_mem_t));        
  44:..\acn-sdk-c\platforms\senseability\arrow/storage.c ****         read = 1;
  45:..\acn-sdk-c\platforms\senseability\arrow/storage.c ****     }
  46:..\acn-sdk-c\platforms\senseability\arrow/storage.c **** }
  47:..\acn-sdk-c\platforms\senseability\arrow/storage.c **** 
  48:..\acn-sdk-c\platforms\senseability\arrow/storage.c **** static void write_flash() {
  25              		.loc 1 48 0
  26              		.cfi_startproc
  27              	.LVL0:
  28 0000 10B5     		push	{r4, lr}
  29              		.cfi_def_cfa_offset 8
  30              		.cfi_offset 4, -8
  31              		.cfi_offset 14, -4
  49:..\acn-sdk-c\platforms\senseability\arrow/storage.c ****     int size = 0;
  50:..\acn-sdk-c\platforms\senseability\arrow/storage.c ****     uint8 *buffer = (uint8 *)&flash;
  51:..\acn-sdk-c\platforms\senseability\arrow/storage.c ****     while( size < sizeof(flash_mem_t) ) {
  32              		.loc 1 51 0
  33 0002 0524     		mov	r4, #5
  34              	.LVL1:
  35              	.L2:
  36 0004 013C     		sub	r4, r4, #1
  37              	.LVL2:
  38 0006 002C     		cmp	r4, #0
  39 0008 09D0     		beq	.L1
  40              	.LVL3:
  41              	.LBB2:
  52:..\acn-sdk-c\platforms\senseability\arrow/storage.c ****         int res = CySysFlashWriteRow(ROW, buffer);
  42              		.loc 1 52 0
  43 000a 8020     		mov	r0, #128
  44 000c 0449     		ldr	r1, .L7
  45 000e C000     		lsl	r0, r0, #3
  46 0010 FFF7FEFF 		bl	CySysFlashWriteRow
  47              	.LVL4:
  48 0014 011E     		sub	r1, r0, #0
  49              	.LVL5:
  53:..\acn-sdk-c\platforms\senseability\arrow/storage.c ****         if ( res != CY_SYS_FLASH_SUCCESS ) {
  50              		.loc 1 53 0
  51 0016 F5D0     		beq	.L2
  54:..\acn-sdk-c\platforms\senseability\arrow/storage.c ****             DBG("wrire flash error %d", res);
  52              		.loc 1 54 0
  53 0018 0248     		ldr	r0, .L7+4
  54              	.LVL6:
  55 001a FFF7FEFF 		bl	dbg_line
  56              	.LVL7:
  57              	.L1:
  58              	.LBE2:
  55:..\acn-sdk-c\platforms\senseability\arrow/storage.c ****             return;
  56:..\acn-sdk-c\platforms\senseability\arrow/storage.c ****         }
ARM GAS  C:\Users\ddemidov\AppData\Local\Temp\ccvFzcdq.s 			page 3


  57:..\acn-sdk-c\platforms\senseability\arrow/storage.c ****         size += CY_FLASH_SIZEOF_ROW;
  58:..\acn-sdk-c\platforms\senseability\arrow/storage.c ****     }
  59:..\acn-sdk-c\platforms\senseability\arrow/storage.c **** }
  59              		.loc 1 59 0
  60              		@ sp needed
  61 001e 10BD     		pop	{r4, pc}
  62              	.L8:
  63              		.align	2
  64              	.L7:
  65 0020 00000000 		.word	.LANCHOR0
  66 0024 00000000 		.word	.LC1
  67              		.cfi_endproc
  68              	.LFE64:
  69              		.size	write_flash, .-write_flash
  70              		.section	.text.restore_gateway_info,"ax",%progbits
  71              		.align	1
  72              		.global	restore_gateway_info
  73              		.code	16
  74              		.thumb_func
  75              		.type	restore_gateway_info, %function
  76              	restore_gateway_info:
  77              	.LFB65:
  60:..\acn-sdk-c\platforms\senseability\arrow/storage.c **** 
  61:..\acn-sdk-c\platforms\senseability\arrow/storage.c **** int restore_gateway_info(arrow_gateway_t *gateway) {
  78              		.loc 1 61 0
  79              		.cfi_startproc
  80              	.LVL8:
  81 0000 70B5     		push	{r4, r5, r6, lr}
  82              		.cfi_def_cfa_offset 16
  83              		.cfi_offset 4, -16
  84              		.cfi_offset 5, -12
  85              		.cfi_offset 6, -8
  86              		.cfi_offset 14, -4
  87              	.LBB6:
  88              	.LBB7:
  40:..\acn-sdk-c\platforms\senseability\arrow/storage.c ****         char *ptr;
  89              		.loc 1 40 0
  90 0002 134D     		ldr	r5, .L14
  91              	.LBE7:
  92              	.LBE6:
  93              		.loc 1 61 0
  94 0004 061C     		mov	r6, r0
  95              	.LBB10:
  96              	.LBB9:
  40:..\acn-sdk-c\platforms\senseability\arrow/storage.c ****         char *ptr;
  97              		.loc 1 40 0
  98 0006 2B68     		ldr	r3, [r5]
  99 0008 124C     		ldr	r4, .L14+4
 100 000a 002B     		cmp	r3, #0
 101 000c 08D1     		bne	.L10
 102              	.LVL9:
 103              	.LBB8:
  43:..\acn-sdk-c\platforms\senseability\arrow/storage.c ****         read = 1;
 104              		.loc 1 43 0
 105 000e 8021     		mov	r1, #128
 106 0010 8022     		mov	r2, #128
 107 0012 201C     		mov	r0, r4
ARM GAS  C:\Users\ddemidov\AppData\Local\Temp\ccvFzcdq.s 			page 4


 108              	.LVL10:
 109 0014 8902     		lsl	r1, r1, #10
 110 0016 9200     		lsl	r2, r2, #2
 111 0018 FFF7FEFF 		bl	memcpy
 112              	.LVL11:
  44:..\acn-sdk-c\platforms\senseability\arrow/storage.c ****     }
 113              		.loc 1 44 0
 114 001c 0123     		mov	r3, #1
 115 001e 2B60     		str	r3, [r5]
 116              	.LVL12:
 117              	.L10:
 118              	.LBE8:
 119              	.LBE9:
 120              	.LBE10:
  62:..\acn-sdk-c\platforms\senseability\arrow/storage.c ****     read_flash();    
  63:..\acn-sdk-c\platforms\senseability\arrow/storage.c ****     DBG("restore gateway info\r\n");
  64:..\acn-sdk-c\platforms\senseability\arrow/storage.c ****     if ( utf8check(flash.gateway_hid) && strlen(flash.gateway_hid) > 0 ) {
 121              		.loc 1 64 0
 122 0020 651C     		add	r5, r4, #1
  63:..\acn-sdk-c\platforms\senseability\arrow/storage.c ****     if ( utf8check(flash.gateway_hid) && strlen(flash.gateway_hid) > 0 ) {
 123              		.loc 1 63 0
 124 0022 0D48     		ldr	r0, .L14+8
 125              		.loc 1 64 0
 126 0024 FF35     		add	r5, r5, #255
  63:..\acn-sdk-c\platforms\senseability\arrow/storage.c ****     if ( utf8check(flash.gateway_hid) && strlen(flash.gateway_hid) > 0 ) {
 127              		.loc 1 63 0
 128 0026 FFF7FEFF 		bl	dbg_line
 129              	.LVL13:
 130              		.loc 1 64 0
 131 002a 281C     		mov	r0, r5
 132 002c FFF7FEFF 		bl	utf8check
 133              	.LVL14:
 134 0030 0028     		cmp	r0, #0
 135 0032 09D0     		beq	.L13
 136              		.loc 1 64 0 is_stmt 0 discriminator 1
 137 0034 FF34     		add	r4, r4, #255
 138 0036 6378     		ldrb	r3, [r4, #1]
 139 0038 002B     		cmp	r3, #0
 140 003a 05D0     		beq	.L13
  65:..\acn-sdk-c\platforms\senseability\arrow/storage.c ****       arrow_gateway_add_hid(gateway, flash.gateway_hid);
 141              		.loc 1 65 0 is_stmt 1
 142 003c 301C     		mov	r0, r6
 143 003e 291C     		mov	r1, r5
 144 0040 FFF7FEFF 		bl	arrow_gateway_add_hid
 145              	.LVL15:
  66:..\acn-sdk-c\platforms\senseability\arrow/storage.c ****       return 0;
 146              		.loc 1 66 0
 147 0044 0020     		mov	r0, #0
 148 0046 01E0     		b	.L11
 149              	.L13:
  67:..\acn-sdk-c\platforms\senseability\arrow/storage.c ****     }
  68:..\acn-sdk-c\platforms\senseability\arrow/storage.c ****     return -1;
 150              		.loc 1 68 0
 151 0048 0120     		mov	r0, #1
 152 004a 4042     		neg	r0, r0
 153              	.L11:
  69:..\acn-sdk-c\platforms\senseability\arrow/storage.c **** }
ARM GAS  C:\Users\ddemidov\AppData\Local\Temp\ccvFzcdq.s 			page 5


 154              		.loc 1 69 0
 155              		@ sp needed
 156              	.LVL16:
 157 004c 70BD     		pop	{r4, r5, r6, pc}
 158              	.L15:
 159 004e C046     		.align	2
 160              	.L14:
 161 0050 00020000 		.word	.LANCHOR1
 162 0054 00000000 		.word	.LANCHOR0
 163 0058 15000000 		.word	.LC5
 164              		.cfi_endproc
 165              	.LFE65:
 166              		.size	restore_gateway_info, .-restore_gateway_info
 167              		.section	.text.save_gateway_info,"ax",%progbits
 168              		.align	1
 169              		.global	save_gateway_info
 170              		.code	16
 171              		.thumb_func
 172              		.type	save_gateway_info, %function
 173              	save_gateway_info:
 174              	.LFB66:
  70:..\acn-sdk-c\platforms\senseability\arrow/storage.c **** 
  71:..\acn-sdk-c\platforms\senseability\arrow/storage.c **** void save_gateway_info(const arrow_gateway_t *gateway) {
 175              		.loc 1 71 0
 176              		.cfi_startproc
 177              	.LVL17:
 178 0000 10B5     		push	{r4, lr}
 179              		.cfi_def_cfa_offset 8
 180              		.cfi_offset 4, -8
 181              		.cfi_offset 14, -4
 182              		.loc 1 71 0
 183 0002 041C     		mov	r4, r0
  72:..\acn-sdk-c\platforms\senseability\arrow/storage.c ****   DBG("new registration\r\n");
 184              		.loc 1 72 0
 185 0004 0548     		ldr	r0, .L17
 186              	.LVL18:
 187 0006 FFF7FEFF 		bl	dbg_line
 188              	.LVL19:
  73:..\acn-sdk-c\platforms\senseability\arrow/storage.c ****   strcpy(flash.gateway_hid, gateway->hid);
 189              		.loc 1 73 0
 190 000a 0548     		ldr	r0, .L17+4
 191 000c 2169     		ldr	r1, [r4, #16]
 192 000e 0130     		add	r0, r0, #1
 193 0010 FF30     		add	r0, r0, #255
 194 0012 FFF7FEFF 		bl	strcpy
 195              	.LVL20:
  74:..\acn-sdk-c\platforms\senseability\arrow/storage.c ****   write_flash();
  75:..\acn-sdk-c\platforms\senseability\arrow/storage.c **** }
 196              		.loc 1 75 0
 197              		@ sp needed
  74:..\acn-sdk-c\platforms\senseability\arrow/storage.c ****   write_flash();
 198              		.loc 1 74 0
 199 0016 FFF7FEFF 		bl	write_flash
 200              	.LVL21:
 201              	.LVL22:
 202              		.loc 1 75 0
 203 001a 10BD     		pop	{r4, pc}
ARM GAS  C:\Users\ddemidov\AppData\Local\Temp\ccvFzcdq.s 			page 6


 204              	.L18:
 205              		.align	2
 206              	.L17:
 207 001c 2C000000 		.word	.LC9
 208 0020 00000000 		.word	.LANCHOR0
 209              		.cfi_endproc
 210              	.LFE66:
 211              		.size	save_gateway_info, .-save_gateway_info
 212              		.section	.text.restore_device_info,"ax",%progbits
 213              		.align	1
 214              		.global	restore_device_info
 215              		.code	16
 216              		.thumb_func
 217              		.type	restore_device_info, %function
 218              	restore_device_info:
 219              	.LFB67:
  76:..\acn-sdk-c\platforms\senseability\arrow/storage.c **** 
  77:..\acn-sdk-c\platforms\senseability\arrow/storage.c **** int restore_device_info(arrow_device_t *device) {
 220              		.loc 1 77 0
 221              		.cfi_startproc
 222              	.LVL23:
 223 0000 70B5     		push	{r4, r5, r6, lr}
 224              		.cfi_def_cfa_offset 16
 225              		.cfi_offset 4, -16
 226              		.cfi_offset 5, -12
 227              		.cfi_offset 6, -8
 228              		.cfi_offset 14, -4
  78:..\acn-sdk-c\platforms\senseability\arrow/storage.c ****     if ( !utf8check(flash.device_hid) || strlen(flash.device_hid) == 0 ) {
 229              		.loc 1 78 0
 230 0002 0C4D     		ldr	r5, .L23
  77:..\acn-sdk-c\platforms\senseability\arrow/storage.c ****     if ( !utf8check(flash.device_hid) || strlen(flash.device_hid) == 0 ) {
 231              		.loc 1 77 0
 232 0004 061C     		mov	r6, r0
 233              		.loc 1 78 0
 234 0006 2C1C     		mov	r4, r5
 235 0008 4134     		add	r4, r4, #65
 236 000a FF34     		add	r4, r4, #255
 237 000c 201C     		mov	r0, r4
 238              	.LVL24:
 239 000e FFF7FEFF 		bl	utf8check
 240              	.LVL25:
 241 0012 0028     		cmp	r0, #0
 242 0014 0AD0     		beq	.L22
 243              		.loc 1 78 0 is_stmt 0 discriminator 1
 244 0016 A023     		mov	r3, #160
 245 0018 5B00     		lsl	r3, r3, #1
 246 001a EB5C     		ldrb	r3, [r5, r3]
 247 001c 002B     		cmp	r3, #0
 248 001e 05D0     		beq	.L22
  79:..\acn-sdk-c\platforms\senseability\arrow/storage.c ****       return -1;
  80:..\acn-sdk-c\platforms\senseability\arrow/storage.c ****     }
  81:..\acn-sdk-c\platforms\senseability\arrow/storage.c ****     arrow_device_set_hid(device, flash.device_hid);
 249              		.loc 1 81 0 is_stmt 1
 250 0020 301C     		mov	r0, r6
 251 0022 211C     		mov	r1, r4
 252 0024 FFF7FEFF 		bl	arrow_device_set_hid
 253              	.LVL26:
ARM GAS  C:\Users\ddemidov\AppData\Local\Temp\ccvFzcdq.s 			page 7


  82:..\acn-sdk-c\platforms\senseability\arrow/storage.c ****   #if defined(__IBM__)
  83:..\acn-sdk-c\platforms\senseability\arrow/storage.c ****     if ( !utf8check(flash.device_eid) || strlen(flash.device_eid) == 0 ) {
  84:..\acn-sdk-c\platforms\senseability\arrow/storage.c ****       return -1;
  85:..\acn-sdk-c\platforms\senseability\arrow/storage.c ****     }
  86:..\acn-sdk-c\platforms\senseability\arrow/storage.c ****     arrow_device_set_eid(device, flash.device_eid);
  87:..\acn-sdk-c\platforms\senseability\arrow/storage.c ****   #endif
  88:..\acn-sdk-c\platforms\senseability\arrow/storage.c ****     return 0;
 254              		.loc 1 88 0
 255 0028 0020     		mov	r0, #0
 256 002a 01E0     		b	.L20
 257              	.L22:
  79:..\acn-sdk-c\platforms\senseability\arrow/storage.c ****       return -1;
 258              		.loc 1 79 0
 259 002c 0120     		mov	r0, #1
 260 002e 4042     		neg	r0, r0
 261              	.L20:
  89:..\acn-sdk-c\platforms\senseability\arrow/storage.c **** }
 262              		.loc 1 89 0
 263              		@ sp needed
 264              	.LVL27:
 265 0030 70BD     		pop	{r4, r5, r6, pc}
 266              	.L24:
 267 0032 C046     		.align	2
 268              	.L23:
 269 0034 00000000 		.word	.LANCHOR0
 270              		.cfi_endproc
 271              	.LFE67:
 272              		.size	restore_device_info, .-restore_device_info
 273              		.section	.text.save_device_info,"ax",%progbits
 274              		.align	1
 275              		.global	save_device_info
 276              		.code	16
 277              		.thumb_func
 278              		.type	save_device_info, %function
 279              	save_device_info:
 280              	.LFB68:
  90:..\acn-sdk-c\platforms\senseability\arrow/storage.c **** 
  91:..\acn-sdk-c\platforms\senseability\arrow/storage.c **** void save_device_info(arrow_device_t *device) {
 281              		.loc 1 91 0
 282              		.cfi_startproc
 283              	.LVL28:
 284 0000 08B5     		push	{r3, lr}
 285              		.cfi_def_cfa_offset 8
 286              		.cfi_offset 3, -8
 287              		.cfi_offset 14, -4
 288              		.loc 1 91 0
 289 0002 031C     		mov	r3, r0
  92:..\acn-sdk-c\platforms\senseability\arrow/storage.c ****   strcpy(flash.device_hid, device->hid);
 290              		.loc 1 92 0
 291 0004 0448     		ldr	r0, .L26
 292              	.LVL29:
 293 0006 D968     		ldr	r1, [r3, #12]
 294 0008 4130     		add	r0, r0, #65
 295 000a FF30     		add	r0, r0, #255
 296 000c FFF7FEFF 		bl	strcpy
 297              	.LVL30:
  93:..\acn-sdk-c\platforms\senseability\arrow/storage.c **** #if defined(__IBM__)
ARM GAS  C:\Users\ddemidov\AppData\Local\Temp\ccvFzcdq.s 			page 8


  94:..\acn-sdk-c\platforms\senseability\arrow/storage.c ****   strcpy(flash.device_eid, device->eid);
  95:..\acn-sdk-c\platforms\senseability\arrow/storage.c **** #endif
  96:..\acn-sdk-c\platforms\senseability\arrow/storage.c ****   write_flash();
  97:..\acn-sdk-c\platforms\senseability\arrow/storage.c **** }
 298              		.loc 1 97 0
 299              		@ sp needed
  96:..\acn-sdk-c\platforms\senseability\arrow/storage.c **** }
 300              		.loc 1 96 0
 301 0010 FFF7FEFF 		bl	write_flash
 302              	.LVL31:
 303              		.loc 1 97 0
 304 0014 08BD     		pop	{r3, pc}
 305              	.L27:
 306 0016 C046     		.align	2
 307              	.L26:
 308 0018 00000000 		.word	.LANCHOR0
 309              		.cfi_endproc
 310              	.LFE68:
 311              		.size	save_device_info, .-save_device_info
 312              		.section	.text.save_wifi_setting,"ax",%progbits
 313              		.align	1
 314              		.global	save_wifi_setting
 315              		.code	16
 316              		.thumb_func
 317              		.type	save_wifi_setting, %function
 318              	save_wifi_setting:
 319              	.LFB69:
  98:..\acn-sdk-c\platforms\senseability\arrow/storage.c **** 
  99:..\acn-sdk-c\platforms\senseability\arrow/storage.c **** void save_wifi_setting(const char *ssid, const char *pass, int sec) {
 320              		.loc 1 99 0
 321              		.cfi_startproc
 322              	.LVL32:
 323 0000 031C     		mov	r3, r0
 324 0002 70B5     		push	{r4, r5, r6, lr}
 325              		.cfi_def_cfa_offset 16
 326              		.cfi_offset 4, -16
 327              		.cfi_offset 5, -12
 328              		.cfi_offset 6, -8
 329              		.cfi_offset 14, -4
 100:..\acn-sdk-c\platforms\senseability\arrow/storage.c ****   strcpy(flash.ssid, ssid);
 330              		.loc 1 100 0
 331 0004 084C     		ldr	r4, .L29
  99:..\acn-sdk-c\platforms\senseability\arrow/storage.c ****   strcpy(flash.ssid, ssid);
 332              		.loc 1 99 0
 333 0006 0E1C     		mov	r6, r1
 334              		.loc 1 100 0
 335 0008 201D     		add	r0, r4, #4
 336              	.LVL33:
 337 000a 191C     		mov	r1, r3
 338              	.LVL34:
  99:..\acn-sdk-c\platforms\senseability\arrow/storage.c ****   strcpy(flash.ssid, ssid);
 339              		.loc 1 99 0
 340 000c 151C     		mov	r5, r2
 341              		.loc 1 100 0
 342 000e FFF7FEFF 		bl	strcpy
 343              	.LVL35:
 101:..\acn-sdk-c\platforms\senseability\arrow/storage.c ****   strcpy(flash.pass, pass);
ARM GAS  C:\Users\ddemidov\AppData\Local\Temp\ccvFzcdq.s 			page 9


 344              		.loc 1 101 0
 345 0012 201C     		mov	r0, r4
 346 0014 311C     		mov	r1, r6
 102:..\acn-sdk-c\platforms\senseability\arrow/storage.c ****   flash.sec = sec;
 347              		.loc 1 102 0
 348 0016 0834     		add	r4, r4, #8
 101:..\acn-sdk-c\platforms\senseability\arrow/storage.c ****   strcpy(flash.pass, pass);
 349              		.loc 1 101 0
 350 0018 4430     		add	r0, r0, #68
 351 001a FFF7FEFF 		bl	strcpy
 352              	.LVL36:
 103:..\acn-sdk-c\platforms\senseability\arrow/storage.c ****   write_flash();
 104:..\acn-sdk-c\platforms\senseability\arrow/storage.c **** }
 353              		.loc 1 104 0
 354              		@ sp needed
 102:..\acn-sdk-c\platforms\senseability\arrow/storage.c ****   flash.sec = sec;
 355              		.loc 1 102 0
 356 001e E567     		str	r5, [r4, #124]
 103:..\acn-sdk-c\platforms\senseability\arrow/storage.c ****   write_flash();
 357              		.loc 1 103 0
 358 0020 FFF7FEFF 		bl	write_flash
 359              	.LVL37:
 360              	.LVL38:
 361              	.LVL39:
 362              		.loc 1 104 0
 363 0024 70BD     		pop	{r4, r5, r6, pc}
 364              	.L30:
 365 0026 C046     		.align	2
 366              	.L29:
 367 0028 00000000 		.word	.LANCHOR0
 368              		.cfi_endproc
 369              	.LFE69:
 370              		.size	save_wifi_setting, .-save_wifi_setting
 371              		.section	.text.restore_wifi_setting,"ax",%progbits
 372              		.align	1
 373              		.global	restore_wifi_setting
 374              		.code	16
 375              		.thumb_func
 376              		.type	restore_wifi_setting, %function
 377              	restore_wifi_setting:
 378              	.LFB70:
 105:..\acn-sdk-c\platforms\senseability\arrow/storage.c **** 
 106:..\acn-sdk-c\platforms\senseability\arrow/storage.c **** int restore_wifi_setting(char *ssid, char *pass, int *sec) {
 379              		.loc 1 106 0
 380              		.cfi_startproc
 381              	.LVL40:
 382 0000 70B5     		push	{r4, r5, r6, lr}
 383              		.cfi_def_cfa_offset 16
 384              		.cfi_offset 4, -16
 385              		.cfi_offset 5, -12
 386              		.cfi_offset 6, -8
 387              		.cfi_offset 14, -4
 107:..\acn-sdk-c\platforms\senseability\arrow/storage.c ****     strcpy(ssid, flash.ssid);
 388              		.loc 1 107 0
 389 0002 084C     		ldr	r4, .L32
 106:..\acn-sdk-c\platforms\senseability\arrow/storage.c ****     strcpy(ssid, flash.ssid);
 390              		.loc 1 106 0
ARM GAS  C:\Users\ddemidov\AppData\Local\Temp\ccvFzcdq.s 			page 10


 391 0004 0E1C     		mov	r6, r1
 392              		.loc 1 107 0
 393 0006 211D     		add	r1, r4, #4
 394              	.LVL41:
 106:..\acn-sdk-c\platforms\senseability\arrow/storage.c ****     strcpy(ssid, flash.ssid);
 395              		.loc 1 106 0
 396 0008 151C     		mov	r5, r2
 397              		.loc 1 107 0
 398 000a FFF7FEFF 		bl	strcpy
 399              	.LVL42:
 108:..\acn-sdk-c\platforms\senseability\arrow/storage.c ****     strcpy(pass, flash.pass);
 400              		.loc 1 108 0
 401 000e 211C     		mov	r1, r4
 402 0010 301C     		mov	r0, r6
 403 0012 4431     		add	r1, r1, #68
 109:..\acn-sdk-c\platforms\senseability\arrow/storage.c ****     *sec = flash.sec;
 404              		.loc 1 109 0
 405 0014 0834     		add	r4, r4, #8
 108:..\acn-sdk-c\platforms\senseability\arrow/storage.c ****     strcpy(pass, flash.pass);
 406              		.loc 1 108 0
 407 0016 FFF7FEFF 		bl	strcpy
 408              	.LVL43:
 409              		.loc 1 109 0
 410 001a E36F     		ldr	r3, [r4, #124]
 110:..\acn-sdk-c\platforms\senseability\arrow/storage.c ****     return 0;
 111:..\acn-sdk-c\platforms\senseability\arrow/storage.c **** }
 411              		.loc 1 111 0
 412 001c 0020     		mov	r0, #0
 109:..\acn-sdk-c\platforms\senseability\arrow/storage.c ****     *sec = flash.sec;
 413              		.loc 1 109 0
 414 001e 2B60     		str	r3, [r5]
 415              		.loc 1 111 0
 416              		@ sp needed
 417              	.LVL44:
 418              	.LVL45:
 419 0020 70BD     		pop	{r4, r5, r6, pc}
 420              	.L33:
 421 0022 C046     		.align	2
 422              	.L32:
 423 0024 00000000 		.word	.LANCHOR0
 424              		.cfi_endproc
 425              	.LFE70:
 426              		.size	restore_wifi_setting, .-restore_wifi_setting
 427              		.section	.rodata.str1.1,"aMS",%progbits,1
 428              	.LC1:
 429 0000 77726972 		.ascii	"wrire flash error %d\000"
 429      6520666C 
 429      61736820 
 429      6572726F 
 429      72202564 
 430              	.LC5:
 431 0015 72657374 		.ascii	"restore gateway info\015\012\000"
 431      6F726520 
 431      67617465 
 431      77617920 
 431      696E666F 
 432              	.LC9:
ARM GAS  C:\Users\ddemidov\AppData\Local\Temp\ccvFzcdq.s 			page 11


 433 002c 6E657720 		.ascii	"new registration\015\012\000"
 433      72656769 
 433      73747261 
 433      74696F6E 
 433      0D0A00
 434              		.bss
 435              		.align	2
 436              		.set	.LANCHOR0,. + 0
 437              		.set	.LANCHOR1,. + 512
 438              		.type	flash, %object
 439              		.size	flash, 512
 440              	flash:
 441 0000 00000000 		.space	512
 441      00000000 
 441      00000000 
 441      00000000 
 441      00000000 
 442              		.type	read.6962, %object
 443              		.size	read.6962, 4
 444              	read.6962:
 445 0200 00000000 		.space	4
 446              		.text
 447              	.Letext0:
 448              		.file 2 "..\\acn-sdk-c\\include/json/json.h"
 449              		.file 3 "..\\acn-sdk-c\\include/arrow/device.h"
 450              		.file 4 "..\\acn-sdk-c\\include/arrow/gateway.h"
 451              		.file 5 "Generated_Source\\PSoC4/cytypes.h"
 452              		.file 6 "Generated_Source\\PSoC4/CyFlash.h"
 453              		.file 7 "..\\acn-sdk-c\\include/arrow/utf8.h"
 454              		.file 8 "..\\acn-sdk-c/platforms/senseability/trace.h"
 455              		.file 9 "c:\\program files (x86)\\cypress\\psoc creator\\3.3\\psoc creator\\import\\gnu\\arm\\4.9.