ARM GAS  C:\Users\ddemidov\AppData\Local\Temp\ccASyWgj.s 			page 1


   1              		.cpu cortex-m0
   2              		.fpu softvfp
   3              		.eabi_attribute 20, 1
   4              		.eabi_attribute 21, 1
   5              		.eabi_attribute 23, 3
   6              		.eabi_attribute 24, 1
   7              		.eabi_attribute 25, 1
   8              		.eabi_attribute 26, 1
   9              		.eabi_attribute 30, 4
  10              		.eabi_attribute 34, 0
  11              		.eabi_attribute 18, 4
  12              		.code	16
  13              		.file	"telemetry.c"
  14              		.text
  15              	.Ltext0:
  16              		.cfi_sections	.debug_frame
  17              		.global	__aeabi_i2d
  18              		.global	__aeabi_ui2d
  19              		.section	.text.telemetry_serialize,"ax",%progbits
  20              		.align	1
  21              		.global	telemetry_serialize
  22              		.code	16
  23              		.thumb_func
  24              		.type	telemetry_serialize, %function
  25              	telemetry_serialize:
  26              	.LFB0:
  27              		.file 1 "..\\acn-sdk-c\\platforms\\senseability\\json\\telemetry.c"
   1:..\acn-sdk-c\platforms\senseability\json/telemetry.c **** #include "json/telemetry.h"
   2:..\acn-sdk-c\platforms\senseability\json/telemetry.c **** #include <config.h>
   3:..\acn-sdk-c\platforms\senseability\json/telemetry.c **** #include <json/json.h>
   4:..\acn-sdk-c\platforms\senseability\json/telemetry.c **** 
   5:..\acn-sdk-c\platforms\senseability\json/telemetry.c **** 
   6:..\acn-sdk-c\platforms\senseability\json/telemetry.c **** char *telemetry_serialize(arrow_device_t *device, sensor_data_t *data) {
  28              		.loc 1 6 0
  29              		.cfi_startproc
  30              	.LVL0:
  31 0000 70B5     		push	{r4, r5, r6, lr}
  32              		.cfi_def_cfa_offset 16
  33              		.cfi_offset 4, -16
  34              		.cfi_offset 5, -12
  35              		.cfi_offset 6, -8
  36              		.cfi_offset 14, -4
  37              		.loc 1 6 0
  38 0002 0C1C     		mov	r4, r1
  39 0004 061C     		mov	r6, r0
   7:..\acn-sdk-c\platforms\senseability\json/telemetry.c ****     JsonNode *_node = json_mkobject();
  40              		.loc 1 7 0
  41 0006 FFF7FEFF 		bl	json_mkobject
  42              	.LVL1:
  43 000a 051C     		mov	r5, r0
  44              	.LVL2:
   8:..\acn-sdk-c\platforms\senseability\json/telemetry.c ****     Sensor_Data_t *sens_data = (Sensor_Data_t *)data;
   9:..\acn-sdk-c\platforms\senseability\json/telemetry.c ****     json_append_member(_node, TELEMETRY_DEVICE_HID, json_mkstring(device->hid));
  45              		.loc 1 9 0
  46 000c F068     		ldr	r0, [r6, #12]
  47              	.LVL3:
  48 000e FFF7FEFF 		bl	json_mkstring
ARM GAS  C:\Users\ddemidov\AppData\Local\Temp\ccASyWgj.s 			page 2


  49              	.LVL4:
  50 0012 2849     		ldr	r1, .L19
  51 0014 021C     		mov	r2, r0
  52 0016 281C     		mov	r0, r5
  53 0018 FFF7FEFF 		bl	json_append_member
  54              	.LVL5:
  10:..\acn-sdk-c\platforms\senseability\json/telemetry.c ****     if ( (sens_data->Status & HUMIDICON_PRESENT_MASK) == 1) {
  55              		.loc 1 10 0
  56 001c 2378     		ldrb	r3, [r4]
  57 001e DB07     		lsl	r3, r3, #31
  58 0020 14D5     		bpl	.L2
  11:..\acn-sdk-c\platforms\senseability\json/telemetry.c ****         json_append_member(_node, TELEMETRY_TEMPERATURE, json_mknumber(sens_data->Temperature));
  59              		.loc 1 11 0
  60 0022 0120     		mov	r0, #1
  61 0024 2056     		ldrsb	r0, [r4, r0]
  62 0026 FFF7FEFF 		bl	__aeabi_i2d
  63              	.LVL6:
  64 002a FFF7FEFF 		bl	json_mknumber
  65              	.LVL7:
  66 002e 2249     		ldr	r1, .L19+4
  67 0030 021C     		mov	r2, r0
  68 0032 281C     		mov	r0, r5
  69 0034 FFF7FEFF 		bl	json_append_member
  70              	.LVL8:
  12:..\acn-sdk-c\platforms\senseability\json/telemetry.c ****         json_append_member(_node, TELEMETRY_HUMIDITY, json_mknumber(sens_data->Humidity));
  71              		.loc 1 12 0
  72 0038 A078     		ldrb	r0, [r4, #2]
  73 003a FFF7FEFF 		bl	__aeabi_ui2d
  74              	.LVL9:
  75 003e FFF7FEFF 		bl	json_mknumber
  76              	.LVL10:
  77 0042 1E49     		ldr	r1, .L19+8
  78 0044 021C     		mov	r2, r0
  79 0046 281C     		mov	r0, r5
  80 0048 FFF7FEFF 		bl	json_append_member
  81              	.LVL11:
  82              	.L2:
  13:..\acn-sdk-c\platforms\senseability\json/telemetry.c ****     }
  14:..\acn-sdk-c\platforms\senseability\json/telemetry.c ****     if ( sens_data->Status & PRESSURE_PRESENT_MASK) {
  83              		.loc 1 14 0
  84 004c 2378     		ldrb	r3, [r4]
  85 004e 5B07     		lsl	r3, r3, #29
  86 0050 0AD5     		bpl	.L3
  15:..\acn-sdk-c\platforms\senseability\json/telemetry.c ****         json_append_member(_node, TELEMETRY_BAROMETER, json_mknumber(sens_data->Pressure));
  87              		.loc 1 15 0
  88 0052 0423     		mov	r3, #4
  89 0054 E05E     		ldrsh	r0, [r4, r3]
  90 0056 FFF7FEFF 		bl	__aeabi_i2d
  91              	.LVL12:
  92 005a FFF7FEFF 		bl	json_mknumber
  93              	.LVL13:
  94 005e 1849     		ldr	r1, .L19+12
  95 0060 021C     		mov	r2, r0
  96 0062 281C     		mov	r0, r5
  97 0064 FFF7FEFF 		bl	json_append_member
  98              	.LVL14:
  99              	.L3:
ARM GAS  C:\Users\ddemidov\AppData\Local\Temp\ccASyWgj.s 			page 3


  16:..\acn-sdk-c\platforms\senseability\json/telemetry.c ****     }
  17:..\acn-sdk-c\platforms\senseability\json/telemetry.c ****     if ( sens_data->Status & AIRFLOW_PRESENT_MASK) {
 100              		.loc 1 17 0
 101 0068 2378     		ldrb	r3, [r4]
 102 006a 9B07     		lsl	r3, r3, #30
 103 006c 0AD5     		bpl	.L4
  18:..\acn-sdk-c\platforms\senseability\json/telemetry.c ****         json_append_member(_node, "i|airflow", json_mknumber(sens_data->Air_Flow));
 104              		.loc 1 18 0
 105 006e 0623     		mov	r3, #6
 106 0070 E05E     		ldrsh	r0, [r4, r3]
 107 0072 FFF7FEFF 		bl	__aeabi_i2d
 108              	.LVL15:
 109 0076 FFF7FEFF 		bl	json_mknumber
 110              	.LVL16:
 111 007a 1249     		ldr	r1, .L19+16
 112 007c 021C     		mov	r2, r0
 113 007e 281C     		mov	r0, r5
 114 0080 FFF7FEFF 		bl	json_append_member
 115              	.LVL17:
 116              	.L4:
  19:..\acn-sdk-c\platforms\senseability\json/telemetry.c ****     }
  20:..\acn-sdk-c\platforms\senseability\json/telemetry.c ****     if ( sens_data->Status & PRESSURE_PRESENT_MASK) {
 117              		.loc 1 20 0
 118 0084 2378     		ldrb	r3, [r4]
 119 0086 5B07     		lsl	r3, r3, #29
 120 0088 0AD5     		bpl	.L5
  21:..\acn-sdk-c\platforms\senseability\json/telemetry.c ****         json_append_member(_node, "b|magnetic", json_mkbool(sens_data->Magnetic_Switch));
 121              		.loc 1 21 0
 122 008a E078     		ldrb	r0, [r4, #3]
 123 008c 431E     		sub	r3, r0, #1
 124 008e 9841     		sbc	r0, r0, r3
 125 0090 C0B2     		uxtb	r0, r0
 126 0092 FFF7FEFF 		bl	json_mkbool
 127              	.LVL18:
 128 0096 0C49     		ldr	r1, .L19+20
 129 0098 021C     		mov	r2, r0
 130 009a 281C     		mov	r0, r5
 131 009c FFF7FEFF 		bl	json_append_member
 132              	.LVL19:
 133              	.L5:
  22:..\acn-sdk-c\platforms\senseability\json/telemetry.c ****     }
  23:..\acn-sdk-c\platforms\senseability\json/telemetry.c ****     char *tmp = json_encode(_node);
 134              		.loc 1 23 0
 135 00a0 281C     		mov	r0, r5
 136 00a2 FFF7FEFF 		bl	json_encode
 137              	.LVL20:
 138 00a6 041C     		mov	r4, r0
 139              	.LVL21:
  24:..\acn-sdk-c\platforms\senseability\json/telemetry.c ****     json_delete(_node);
 140              		.loc 1 24 0
 141 00a8 281C     		mov	r0, r5
 142              	.LVL22:
 143 00aa FFF7FEFF 		bl	json_delete
 144              	.LVL23:
  25:..\acn-sdk-c\platforms\senseability\json/telemetry.c ****     return tmp;
  26:..\acn-sdk-c\platforms\senseability\json/telemetry.c **** }
 145              		.loc 1 26 0
ARM GAS  C:\Users\ddemidov\AppData\Local\Temp\ccASyWgj.s 			page 4


 146              		@ sp needed
 147 00ae 201C     		mov	r0, r4
 148              	.LVL24:
 149              	.LVL25:
 150              	.LVL26:
 151 00b0 70BD     		pop	{r4, r5, r6, pc}
 152              	.L20:
 153 00b2 C046     		.align	2
 154              	.L19:
 155 00b4 00000000 		.word	.LC0
 156 00b8 0C000000 		.word	.LC2
 157 00bc 1A000000 		.word	.LC4
 158 00c0 25000000 		.word	.LC6
 159 00c4 31000000 		.word	.LC8
 160 00c8 3B000000 		.word	.LC10
 161              		.cfi_endproc
 162              	.LFE0:
 163              		.size	telemetry_serialize, .-telemetry_serialize
 164              		.section	.rodata.str1.1,"aMS",%progbits,1
 165              	.LC0:
 166 0000 5F7C6465 		.ascii	"_|deviceHid\000"
 166      76696365 
 166      48696400 
 167              	.LC2:
 168 000c 667C7465 		.ascii	"f|temperature\000"
 168      6D706572 
 168      61747572 
 168      6500
 169              	.LC4:
 170 001a 667C6875 		.ascii	"f|humidity\000"
 170      6D696469 
 170      747900
 171              	.LC6:
 172 0025 667C6261 		.ascii	"f|barometer\000"
 172      726F6D65 
 172      74657200 
 173              	.LC8:
 174 0031 697C6169 		.ascii	"i|airflow\000"
 174      72666C6F 
 174      7700
 175              	.LC10:
 176 003b 627C6D61 		.ascii	"b|magnetic\000"
 176      676E6574 
 176      696300
 177              		.text
 178              	.Letext0:
 179              		.file 2 "..\\acn-sdk-c\\include/json/json.h"
 180              		.file 3 "..\\acn-sdk-c\\include/arrow/device.h"
 181              		.file 4 "Generated_Source\\PSoC4/cytypes.h"
 182              		.file 5 "..\\acn-sdk-c\\include/json/telemetry.h"