ARM GAS  C:\Users\ddemidov\AppData\Local\Temp\ccpfTa07.s 			page 1


   1              		.cpu cortex-m0
   2              		.fpu softvfp
   3              		.eabi_attribute 20, 1
   4              		.eabi_attribute 21, 1
   5              		.eabi_attribute 23, 3
   6              		.eabi_attribute 24, 1
   7              		.eabi_attribute 25, 1
   8              		.eabi_attribute 26, 1
   9              		.eabi_attribute 30, 4
  10              		.eabi_attribute 34, 0
  11              		.eabi_attribute 18, 4
  12              		.code	16
  13              		.file	"timer.c"
  14              		.text
  15              	.Ltext0:
  16              		.cfi_sections	.debug_frame
  17              		.section	.text.TimerInit,"ax",%progbits
  18              		.align	1
  19              		.global	TimerInit
  20              		.code	16
  21              		.thumb_func
  22              		.type	TimerInit, %function
  23              	TimerInit:
  24              	.LFB0:
  25              		.file 1 "..\\acn-sdk-c\\src\\mqtt\\client\\src\\timer.c"
   1:..\acn-sdk-c\src\mqtt\client\src/timer.c **** #include "mqtt/client/network.h"
   2:..\acn-sdk-c\src\mqtt\client\src/timer.c **** #include <time/time.h>
   3:..\acn-sdk-c\src\mqtt\client\src/timer.c **** 
   4:..\acn-sdk-c\src\mqtt\client\src/timer.c **** void TimerInit(TimerInterval* timer) {
  26              		.loc 1 4 0
  27              		.cfi_startproc
  28              	.LVL0:
   5:..\acn-sdk-c\src\mqtt\client\src/timer.c ****     timer->end_time = (struct timeval){0, 0};
  29              		.loc 1 5 0
  30 0000 0023     		mov	r3, #0
   6:..\acn-sdk-c\src\mqtt\client\src/timer.c **** }
  31              		.loc 1 6 0
  32              		@ sp needed
   5:..\acn-sdk-c\src\mqtt\client\src/timer.c ****     timer->end_time = (struct timeval){0, 0};
  33              		.loc 1 5 0
  34 0002 0360     		str	r3, [r0]
  35 0004 4360     		str	r3, [r0, #4]
  36              		.loc 1 6 0
  37 0006 7047     		bx	lr
  38              		.cfi_endproc
  39              	.LFE0:
  40              		.size	TimerInit, .-TimerInit
  41              		.section	.text.TimerIsExpired,"ax",%progbits
  42              		.align	1
  43              		.global	TimerIsExpired
  44              		.code	16
  45              		.thumb_func
  46              		.type	TimerIsExpired, %function
  47              	TimerIsExpired:
  48              	.LFB1:
   7:..\acn-sdk-c\src\mqtt\client\src/timer.c **** 
   8:..\acn-sdk-c\src\mqtt\client\src/timer.c **** char TimerIsExpired(TimerInterval* timer) {
ARM GAS  C:\Users\ddemidov\AppData\Local\Temp\ccpfTa07.s 			page 2


  49              		.loc 1 8 0
  50              		.cfi_startproc
  51              	.LVL1:
  52 0000 13B5     		push	{r0, r1, r4, lr}
  53              		.cfi_def_cfa_offset 16
  54              		.cfi_offset 0, -16
  55              		.cfi_offset 1, -12
  56              		.cfi_offset 4, -8
  57              		.cfi_offset 14, -4
  58              		.loc 1 8 0
  59 0002 041C     		mov	r4, r0
   9:..\acn-sdk-c\src\mqtt\client\src/timer.c ****     struct timeval now, res;
  10:..\acn-sdk-c\src\mqtt\client\src/timer.c ****     gettimeofday(&now, NULL);
  60              		.loc 1 10 0
  61 0004 0021     		mov	r1, #0
  62 0006 6846     		mov	r0, sp
  63              	.LVL2:
  64 0008 FFF7FEFF 		bl	gettimeofday
  65              	.LVL3:
  11:..\acn-sdk-c\src\mqtt\client\src/timer.c ****     timersub(&timer->end_time, &now, &res);
  66              		.loc 1 11 0
  67 000c 2368     		ldr	r3, [r4]
  68 000e 009A     		ldr	r2, [sp]
  69 0010 0198     		ldr	r0, [sp, #4]
  70 0012 991A     		sub	r1, r3, r2
  71              	.LVL4:
  72 0014 6368     		ldr	r3, [r4, #4]
  73 0016 1A1A     		sub	r2, r3, r0
  74              	.LVL5:
  75 0018 02D5     		bpl	.L3
  76              		.loc 1 11 0 is_stmt 0 discriminator 1
  77 001a 074B     		ldr	r3, .L8
  78 001c 0139     		sub	r1, r1, #1
  79              	.LVL6:
  80 001e D218     		add	r2, r2, r3
  81              	.LVL7:
  82              	.L3:
  12:..\acn-sdk-c\src\mqtt\client\src/timer.c ****     return (int)res.tv_sec < 0 || (res.tv_sec == 0 && res.tv_usec <= 0);
  83              		.loc 1 12 0 is_stmt 1
  84 0020 0120     		mov	r0, #1
  85 0022 0029     		cmp	r1, #0
  86 0024 05DB     		blt	.L4
  87              		.loc 1 12 0 is_stmt 0 discriminator 2
  88 0026 0020     		mov	r0, #0
  89 0028 8142     		cmp	r1, r0
  90 002a 02D1     		bne	.L4
  91              		.loc 1 12 0 discriminator 3
  92 002c 531E     		sub	r3, r2, #1
  93 002e 1A43     		orr	r2, r3
  94              	.LVL8:
  95 0030 D00F     		lsr	r0, r2, #31
  96              	.LVL9:
  97              	.L4:
  98              		.loc 1 12 0 discriminator 8
  99 0032 C0B2     		uxtb	r0, r0
  13:..\acn-sdk-c\src\mqtt\client\src/timer.c **** }
 100              		.loc 1 13 0 is_stmt 1 discriminator 8
ARM GAS  C:\Users\ddemidov\AppData\Local\Temp\ccpfTa07.s 			page 3


 101              		@ sp needed
 102              	.LVL10:
 103 0034 16BD     		pop	{r1, r2, r4, pc}
 104              	.L9:
 105 0036 C046     		.align	2
 106              	.L8:
 107 0038 40420F00 		.word	1000000
 108              		.cfi_endproc
 109              	.LFE1:
 110              		.size	TimerIsExpired, .-TimerIsExpired
 111              		.global	__aeabi_uidiv
 112              		.global	__aeabi_uidivmod
 113              		.section	.text.TimerCountdownMS,"ax",%progbits
 114              		.align	1
 115              		.global	TimerCountdownMS
 116              		.code	16
 117              		.thumb_func
 118              		.type	TimerCountdownMS, %function
 119              	TimerCountdownMS:
 120              	.LFB2:
  14:..\acn-sdk-c\src\mqtt\client\src/timer.c **** 
  15:..\acn-sdk-c\src\mqtt\client\src/timer.c **** 
  16:..\acn-sdk-c\src\mqtt\client\src/timer.c **** void TimerCountdownMS(TimerInterval* timer, unsigned int timeout) {
 121              		.loc 1 16 0
 122              		.cfi_startproc
 123              	.LVL11:
 124 0000 73B5     		push	{r0, r1, r4, r5, r6, lr}
 125              		.cfi_def_cfa_offset 24
 126              		.cfi_offset 0, -24
 127              		.cfi_offset 1, -20
 128              		.cfi_offset 4, -16
 129              		.cfi_offset 5, -12
 130              		.cfi_offset 6, -8
 131              		.cfi_offset 14, -4
 132              		.loc 1 16 0
 133 0002 041C     		mov	r4, r0
 134 0004 0E1C     		mov	r6, r1
  17:..\acn-sdk-c\src\mqtt\client\src/timer.c ****     struct timeval now;
  18:..\acn-sdk-c\src\mqtt\client\src/timer.c ****     gettimeofday(&now, NULL);
 135              		.loc 1 18 0
 136 0006 6846     		mov	r0, sp
 137              	.LVL12:
 138 0008 0021     		mov	r1, #0
 139              	.LVL13:
 140 000a FFF7FEFF 		bl	gettimeofday
 141              	.LVL14:
  19:..\acn-sdk-c\src\mqtt\client\src/timer.c ****     struct timeval interval = {(time_t)(timeout / 1000), (suseconds_t)(timeout % 1000) * 1000};
 142              		.loc 1 19 0
 143 000e FA21     		mov	r1, #250
 144 0010 301C     		mov	r0, r6
 145 0012 8900     		lsl	r1, r1, #2
 146 0014 FFF7FEFF 		bl	__aeabi_uidiv
 147              	.LVL15:
 148 0018 FA21     		mov	r1, #250
  20:..\acn-sdk-c\src\mqtt\client\src/timer.c ****     timeradd(&now, &interval, &timer->end_time);
 149              		.loc 1 20 0
 150 001a 009B     		ldr	r3, [sp]
ARM GAS  C:\Users\ddemidov\AppData\Local\Temp\ccpfTa07.s 			page 4


  19:..\acn-sdk-c\src\mqtt\client\src/timer.c ****     struct timeval interval = {(time_t)(timeout / 1000), (suseconds_t)(timeout % 1000) * 1000};
 151              		.loc 1 19 0
 152 001c 8900     		lsl	r1, r1, #2
 153              		.loc 1 20 0
 154 001e C518     		add	r5, r0, r3
 155 0020 2560     		str	r5, [r4]
  19:..\acn-sdk-c\src\mqtt\client\src/timer.c ****     struct timeval interval = {(time_t)(timeout / 1000), (suseconds_t)(timeout % 1000) * 1000};
 156              		.loc 1 19 0
 157 0022 301C     		mov	r0, r6
 158 0024 FFF7FEFF 		bl	__aeabi_uidivmod
 159              	.LVL16:
 160 0028 FA23     		mov	r3, #250
 161 002a 9B00     		lsl	r3, r3, #2
 162 002c 5943     		mul	r1, r3
 163              		.loc 1 20 0
 164 002e 019B     		ldr	r3, [sp, #4]
 165 0030 C918     		add	r1, r1, r3
 166 0032 054B     		ldr	r3, .L12
 167 0034 6160     		str	r1, [r4, #4]
 168 0036 9942     		cmp	r1, r3
 169 0038 04DD     		ble	.L10
 170              		.loc 1 20 0 is_stmt 0 discriminator 1
 171 003a 044B     		ldr	r3, .L12+4
 172 003c 0135     		add	r5, r5, #1
 173 003e C918     		add	r1, r1, r3
 174 0040 2560     		str	r5, [r4]
 175 0042 6160     		str	r1, [r4, #4]
 176              	.L10:
  21:..\acn-sdk-c\src\mqtt\client\src/timer.c **** }
 177              		.loc 1 21 0 is_stmt 1
 178              		@ sp needed
 179              	.LVL17:
 180              	.LVL18:
 181 0044 73BD     		pop	{r0, r1, r4, r5, r6, pc}
 182              	.L13:
 183 0046 C046     		.align	2
 184              	.L12:
 185 0048 3F420F00 		.word	999999
 186 004c C0BDF0FF 		.word	-1000000
 187              		.cfi_endproc
 188              	.LFE2:
 189              		.size	TimerCountdownMS, .-TimerCountdownMS
 190              		.section	.text.TimerCountdown,"ax",%progbits
 191              		.align	1
 192              		.global	TimerCountdown
 193              		.code	16
 194              		.thumb_func
 195              		.type	TimerCountdown, %function
 196              	TimerCountdown:
 197              	.LFB3:
  22:..\acn-sdk-c\src\mqtt\client\src/timer.c **** 
  23:..\acn-sdk-c\src\mqtt\client\src/timer.c **** 
  24:..\acn-sdk-c\src\mqtt\client\src/timer.c **** void TimerCountdown(TimerInterval* timer, unsigned int timeout) {
 198              		.loc 1 24 0
 199              		.cfi_startproc
 200              	.LVL19:
 201 0000 37B5     		push	{r0, r1, r2, r4, r5, lr}
ARM GAS  C:\Users\ddemidov\AppData\Local\Temp\ccpfTa07.s 			page 5


 202              		.cfi_def_cfa_offset 24
 203              		.cfi_offset 0, -24
 204              		.cfi_offset 1, -20
 205              		.cfi_offset 2, -16
 206              		.cfi_offset 4, -12
 207              		.cfi_offset 5, -8
 208              		.cfi_offset 14, -4
 209              		.loc 1 24 0
 210 0002 0D1C     		mov	r5, r1
 211 0004 041C     		mov	r4, r0
  25:..\acn-sdk-c\src\mqtt\client\src/timer.c ****     struct timeval now;
  26:..\acn-sdk-c\src\mqtt\client\src/timer.c ****     gettimeofday(&now, NULL);
 212              		.loc 1 26 0
 213 0006 0021     		mov	r1, #0
 214              	.LVL20:
 215 0008 6846     		mov	r0, sp
 216              	.LVL21:
 217 000a FFF7FEFF 		bl	gettimeofday
 218              	.LVL22:
  27:..\acn-sdk-c\src\mqtt\client\src/timer.c ****     struct timeval interval = {(time_t)timeout, 0};
  28:..\acn-sdk-c\src\mqtt\client\src/timer.c ****     timeradd(&now, &interval, &timer->end_time);
 219              		.loc 1 28 0
 220 000e 009B     		ldr	r3, [sp]
 221 0010 064A     		ldr	r2, .L16
 222 0012 E918     		add	r1, r5, r3
 223 0014 019B     		ldr	r3, [sp, #4]
 224 0016 2160     		str	r1, [r4]
 225 0018 6360     		str	r3, [r4, #4]
 226 001a 9342     		cmp	r3, r2
 227 001c 04DD     		ble	.L14
 228              		.loc 1 28 0 is_stmt 0 discriminator 1
 229 001e 044A     		ldr	r2, .L16+4
 230 0020 0131     		add	r1, r1, #1
 231 0022 9B18     		add	r3, r3, r2
 232 0024 2160     		str	r1, [r4]
 233 0026 6360     		str	r3, [r4, #4]
 234              	.L14:
  29:..\acn-sdk-c\src\mqtt\client\src/timer.c **** }
 235              		.loc 1 29 0 is_stmt 1
 236              		@ sp needed
 237              	.LVL23:
 238              	.LVL24:
 239 0028 37BD     		pop	{r0, r1, r2, r4, r5, pc}
 240              	.L17:
 241 002a C046     		.align	2
 242              	.L16:
 243 002c 3F420F00 		.word	999999
 244 0030 C0BDF0FF 		.word	-1000000
 245              		.cfi_endproc
 246              	.LFE3:
 247              		.size	TimerCountdown, .-TimerCountdown
 248              		.global	__aeabi_idiv
 249              		.section	.text.TimerLeftMS,"ax",%progbits
 250              		.align	1
 251              		.global	TimerLeftMS
 252              		.code	16
 253              		.thumb_func
ARM GAS  C:\Users\ddemidov\AppData\Local\Temp\ccpfTa07.s 			page 6


 254              		.type	TimerLeftMS, %function
 255              	TimerLeftMS:
 256              	.LFB4:
  30:..\acn-sdk-c\src\mqtt\client\src/timer.c **** 
  31:..\acn-sdk-c\src\mqtt\client\src/timer.c **** 
  32:..\acn-sdk-c\src\mqtt\client\src/timer.c **** int TimerLeftMS(TimerInterval* timer) {
 257              		.loc 1 32 0
 258              		.cfi_startproc
 259              	.LVL25:
 260 0000 13B5     		push	{r0, r1, r4, lr}
 261              		.cfi_def_cfa_offset 16
 262              		.cfi_offset 0, -16
 263              		.cfi_offset 1, -12
 264              		.cfi_offset 4, -8
 265              		.cfi_offset 14, -4
 266              		.loc 1 32 0
 267 0002 041C     		mov	r4, r0
  33:..\acn-sdk-c\src\mqtt\client\src/timer.c ****     struct timeval now, res;
  34:..\acn-sdk-c\src\mqtt\client\src/timer.c ****     gettimeofday(&now, NULL);
 268              		.loc 1 34 0
 269 0004 0021     		mov	r1, #0
 270 0006 6846     		mov	r0, sp
 271              	.LVL26:
 272 0008 FFF7FEFF 		bl	gettimeofday
 273              	.LVL27:
  35:..\acn-sdk-c\src\mqtt\client\src/timer.c ****     timersub(&timer->end_time, &now, &res);
 274              		.loc 1 35 0
 275 000c 009A     		ldr	r2, [sp]
 276 000e 2368     		ldr	r3, [r4]
 277 0010 0198     		ldr	r0, [sp, #4]
 278 0012 9B1A     		sub	r3, r3, r2
 279              	.LVL28:
 280 0014 6268     		ldr	r2, [r4, #4]
 281 0016 121A     		sub	r2, r2, r0
 282              	.LVL29:
 283 0018 02D5     		bpl	.L19
 284              		.loc 1 35 0 is_stmt 0 discriminator 1
 285 001a 0749     		ldr	r1, .L22
 286 001c 013B     		sub	r3, r3, #1
 287              	.LVL30:
 288 001e 5218     		add	r2, r2, r1
 289              	.LVL31:
 290              	.L19:
  36:..\acn-sdk-c\src\mqtt\client\src/timer.c ****     return ((int)res.tv_sec < 0) ? 0 : res.tv_sec * 1000 + res.tv_usec / 1000;
 291              		.loc 1 36 0 is_stmt 1
 292 0020 0020     		mov	r0, #0
 293 0022 8342     		cmp	r3, r0
 294 0024 07DB     		blt	.L20
 295              		.loc 1 36 0 is_stmt 0 discriminator 1
 296 0026 FA21     		mov	r1, #250
 297 0028 8900     		lsl	r1, r1, #2
 298 002a 4B43     		mul	r3, r1
 299              	.LVL32:
 300 002c 101C     		mov	r0, r2
 301 002e 1C1C     		mov	r4, r3
 302              	.LVL33:
 303 0030 FFF7FEFF 		bl	__aeabi_idiv
ARM GAS  C:\Users\ddemidov\AppData\Local\Temp\ccpfTa07.s 			page 7


 304              	.LVL34:
 305 0034 2018     		add	r0, r4, r0
 306              	.L20:
  37:..\acn-sdk-c\src\mqtt\client\src/timer.c **** }
 307              		.loc 1 37 0 is_stmt 1 discriminator 4
 308              		@ sp needed
 309 0036 16BD     		pop	{r1, r2, r4, pc}
 310              	.L23:
 311              		.align	2
 312              	.L22:
 313 0038 40420F00 		.word	1000000
 314              		.cfi_endproc
 315              	.LFE4:
 316              		.size	TimerLeftMS, .-TimerLeftMS
 317              		.text
 318              	.Letext0:
 319              		.file 2 "c:\\program files (x86)\\cypress\\psoc creator\\3.3\\psoc creator\\import\\gnu\\arm\\4.9.
 320              		.file 3 "c:\\program files (x86)\\cypress\\psoc creator\\3.3\\psoc creator\\import\\gnu\\arm\\4.9.
 321              		.file 4 "..\\acn-sdk-c\\include/mqtt/client/network.h"