ARM GAS  C:\Users\ddemidov\AppData\Local\Temp\cclXVnAe.s 			page 1


   1              		.cpu cortex-m0
   2              		.fpu softvfp
   3              		.eabi_attribute 20, 1
   4              		.eabi_attribute 21, 1
   5              		.eabi_attribute 23, 3
   6              		.eabi_attribute 24, 1
   7              		.eabi_attribute 25, 1
   8              		.eabi_attribute 26, 1
   9              		.eabi_attribute 30, 4
  10              		.eabi_attribute 34, 0
  11              		.eabi_attribute 18, 4
  12              		.code	16
  13              		.file	"time.c"
  14              		.text
  15              	.Ltext0:
  16              		.cfi_sections	.debug_frame
  17              		.section	.text.build_time,"ax",%progbits
  18              		.align	1
  19              		.global	build_time
  20              		.code	16
  21              		.thumb_func
  22              		.type	build_time, %function
  23              	build_time:
  24              	.LFB0:
  25              		.file 1 "..\\acn-sdk-c\\src\\time\\time.c"
   1:..\acn-sdk-c\src\time/time.c **** /* Copyright (c) 2017 Arrow Electronics, Inc.
   2:..\acn-sdk-c\src\time/time.c ****  * All rights reserved. This program and the accompanying materials
   3:..\acn-sdk-c\src\time/time.c ****  * are made available under the terms of the Apache License 2.0
   4:..\acn-sdk-c\src\time/time.c ****  * which accompanies this distribution, and is available at
   5:..\acn-sdk-c\src\time/time.c ****  * http://apache.org/licenses/LICENSE-2.0
   6:..\acn-sdk-c\src\time/time.c ****  * Contributors: Arrow Electronics, Inc.
   7:..\acn-sdk-c\src\time/time.c ****  */
   8:..\acn-sdk-c\src\time/time.c **** 
   9:..\acn-sdk-c\src\time/time.c **** #include "time/time.h"
  10:..\acn-sdk-c\src\time/time.c **** #if defined (__XCC__)
  11:..\acn-sdk-c\src\time/time.c **** #include <qcom/base.h>
  12:..\acn-sdk-c\src\time/time.c **** #include <platforms/xtensa/time/xcctime.h>
  13:..\acn-sdk-c\src\time/time.c **** #else
  14:..\acn-sdk-c\src\time/time.c **** #include <stdio.h>
  15:..\acn-sdk-c\src\time/time.c **** #endif
  16:..\acn-sdk-c\src\time/time.c **** 
  17:..\acn-sdk-c\src\time/time.c **** time_t build_time() {
  26              		.loc 1 17 0
  27              		.cfi_startproc
  28 0000 00B5     		push	{lr}
  29              		.cfi_def_cfa_offset 4
  30              		.cfi_offset 14, -4
  31 0002 8BB0     		sub	sp, sp, #44
  32              		.cfi_def_cfa_offset 48
  18:..\acn-sdk-c\src\time/time.c ****   static const char *built = __DATE__" "__TIME__;
  19:..\acn-sdk-c\src\time/time.c ****   struct tm t;
  20:..\acn-sdk-c\src\time/time.c ****   const char *ret = (const char *)strptime(built, "%b %d %Y %H:%M:%S", &t);
  33              		.loc 1 20 0
  34 0004 01AA     		add	r2, sp, #4
  35 0006 0848     		ldr	r0, .L5
  36 0008 0849     		ldr	r1, .L5+4
  37 000a FFF7FEFF 		bl	strptime
ARM GAS  C:\Users\ddemidov\AppData\Local\Temp\cclXVnAe.s 			page 2


  38              	.LVL0:
  39 000e 0023     		mov	r3, #0
  40 0010 021E     		sub	r2, r0, #0
  41              	.LVL1:
  21:..\acn-sdk-c\src\time/time.c ****   if ( ret ) {
  42              		.loc 1 21 0
  43 0012 9A42     		cmp	r2, r3
  44 0014 05D0     		beq	.L2
  22:..\acn-sdk-c\src\time/time.c ****     t.tm_hour = 0;
  23:..\acn-sdk-c\src\time/time.c ****     t.tm_min = 0;
  24:..\acn-sdk-c\src\time/time.c ****     t.tm_sec = 0;
  25:..\acn-sdk-c\src\time/time.c ****     return mktime(&t);
  45              		.loc 1 25 0
  46 0016 01A8     		add	r0, sp, #4
  47              	.LVL2:
  22:..\acn-sdk-c\src\time/time.c ****     t.tm_hour = 0;
  48              		.loc 1 22 0
  49 0018 0393     		str	r3, [sp, #12]
  23:..\acn-sdk-c\src\time/time.c ****     t.tm_sec = 0;
  50              		.loc 1 23 0
  51 001a 0293     		str	r3, [sp, #8]
  24:..\acn-sdk-c\src\time/time.c ****     return mktime(&t);
  52              		.loc 1 24 0
  53 001c 0193     		str	r3, [sp, #4]
  54              		.loc 1 25 0
  55 001e FFF7FEFF 		bl	mktime
  56              	.LVL3:
  57              	.L2:
  26:..\acn-sdk-c\src\time/time.c ****   }
  27:..\acn-sdk-c\src\time/time.c **** 
  28:..\acn-sdk-c\src\time/time.c ****   return 0;
  29:..\acn-sdk-c\src\time/time.c **** }
  58              		.loc 1 29 0
  59 0022 0BB0     		add	sp, sp, #44
  60              		@ sp needed
  61 0024 00BD     		pop	{pc}
  62              	.L6:
  63 0026 C046     		.align	2
  64              	.L5:
  65 0028 00000000 		.word	.LC0
  66 002c 15000000 		.word	.LC2
  67              		.cfi_endproc
  68              	.LFE0:
  69              		.size	build_time, .-build_time
  70              		.section	.text.set_time,"ax",%progbits
  71              		.align	1
  72              		.global	set_time
  73              		.code	16
  74              		.thumb_func
  75              		.type	set_time, %function
  76              	set_time:
  77              	.LFB1:
  30:..\acn-sdk-c\src\time/time.c **** 
  31:..\acn-sdk-c\src\time/time.c **** #if !defined(__MBED__)
  32:..\acn-sdk-c\src\time/time.c **** void set_time(time_t t) {
  78              		.loc 1 32 0
  79              		.cfi_startproc
ARM GAS  C:\Users\ddemidov\AppData\Local\Temp\cclXVnAe.s 			page 3


  80              	.LVL4:
  81 0000 07B5     		push	{r0, r1, r2, lr}
  82              		.cfi_def_cfa_offset 16
  83              		.cfi_offset 0, -16
  84              		.cfi_offset 1, -12
  85              		.cfi_offset 2, -8
  86              		.cfi_offset 14, -4
  87              		.loc 1 32 0
  88 0002 0190     		str	r0, [sp, #4]
  33:..\acn-sdk-c\src\time/time.c ****     stime(&t);
  89              		.loc 1 33 0
  90 0004 01A8     		add	r0, sp, #4
  91              	.LVL5:
  92 0006 FFF7FEFF 		bl	stime
  93              	.LVL6:
  34:..\acn-sdk-c\src\time/time.c **** }
  94              		.loc 1 34 0
  95              		@ sp needed
  96 000a 07BD     		pop	{r0, r1, r2, pc}
  97              		.cfi_endproc
  98              	.LFE1:
  99              		.size	set_time, .-set_time
 100              		.section	.rodata.str1.1,"aMS",%progbits,1
 101              	.LC0:
 102 0000 4D617220 		.ascii	"Mar 23 2017 09:26:21\000"
 102      32332032 
 102      30313720 
 102      30393A32 
 102      363A3231 
 103              	.LC2:
 104 0015 25622025 		.ascii	"%b %d %Y %H:%M:%S\000"
 104      64202559 
 104      2025483A 
 104      254D3A25 
 104      5300
 105              		.text
 106              	.Letext0:
 107              		.file 2 "c:\\program files (x86)\\cypress\\psoc creator\\3.3\\psoc creator\\import\\gnu\\arm\\4.9.
 108              		.file 3 "c:\\program files (x86)\\cypress\\psoc creator\\3.3\\psoc creator\\import\\gnu\\arm\\4.9.