ARM GAS  C:\Users\ddemidov\AppData\Local\Temp\ccDZUwIJ.s 			page 1


   1              		.cpu cortex-m0
   2              		.fpu softvfp
   3              		.eabi_attribute 20, 1
   4              		.eabi_attribute 21, 1
   5              		.eabi_attribute 23, 3
   6              		.eabi_attribute 24, 1
   7              		.eabi_attribute 25, 1
   8              		.eabi_attribute 26, 1
   9              		.eabi_attribute 30, 4
  10              		.eabi_attribute 34, 0
  11              		.eabi_attribute 18, 4
  12              		.code	16
  13              		.file	"trace.c"
  14              		.text
  15              	.Ltext0:
  16              		.cfi_sections	.debug_frame
  17              		.section	.text.dbg_line,"ax",%progbits
  18              		.align	1
  19              		.global	dbg_line
  20              		.code	16
  21              		.thumb_func
  22              		.type	dbg_line, %function
  23              	dbg_line:
  24              	.LFB63:
  25              		.file 1 "..\\acn-sdk-c\\platforms\\senseability\\trace.c"
   1:..\acn-sdk-c\platforms\senseability/trace.c **** #include "trace.h"
   2:..\acn-sdk-c\platforms\senseability/trace.c **** #include <project.h>
   3:..\acn-sdk-c\platforms\senseability/trace.c **** #include <stdarg.h>
   4:..\acn-sdk-c\platforms\senseability/trace.c **** #include <stdio.h>
   5:..\acn-sdk-c\platforms\senseability/trace.c **** #include <string.h>
   6:..\acn-sdk-c\platforms\senseability/trace.c **** 
   7:..\acn-sdk-c\platforms\senseability/trace.c **** static char send_str[DBG_LINE_SIZE];
   8:..\acn-sdk-c\platforms\senseability/trace.c **** 
   9:..\acn-sdk-c\platforms\senseability/trace.c **** void dbg_line(const char *fmt, ...) {
  26              		.loc 1 9 0
  27              		.cfi_startproc
  28              	.LVL0:
  29 0000 0FB4     		push	{r0, r1, r2, r3}
  30              		.cfi_def_cfa_offset 16
  31 0002 13B5     		push	{r0, r1, r4, lr}
  32              		.cfi_def_cfa_offset 32
  33              		.cfi_offset 0, -32
  34              		.cfi_offset 1, -28
  35              		.cfi_offset 4, -24
  36              		.cfi_offset 14, -20
  10:..\acn-sdk-c\platforms\senseability/trace.c ****     va_list args;
  11:..\acn-sdk-c\platforms\senseability/trace.c ****     va_start(args, fmt);
  12:..\acn-sdk-c\platforms\senseability/trace.c ****     send_str[0] = '\0';
  37              		.loc 1 12 0
  38 0004 0021     		mov	r1, #0
   9:..\acn-sdk-c\platforms\senseability/trace.c ****     va_list args;
  39              		.loc 1 9 0
  40 0006 04AB     		add	r3, sp, #16
  41              		.loc 1 12 0
  42 0008 084C     		ldr	r4, .L2
   9:..\acn-sdk-c\platforms\senseability/trace.c ****     va_list args;
  43              		.loc 1 9 0
ARM GAS  C:\Users\ddemidov\AppData\Local\Temp\ccDZUwIJ.s 			page 2


  44 000a 04CB     		ldmia	r3!, {r2}
  45              		.loc 1 12 0
  46 000c 2170     		strb	r1, [r4]
  13:..\acn-sdk-c\platforms\senseability/trace.c ****     vsnprintf(send_str, DBG_LINE_SIZE, fmt, args);
  47              		.loc 1 13 0
  48 000e 201C     		mov	r0, r4
  49 0010 9631     		add	r1, r1, #150
  11:..\acn-sdk-c\platforms\senseability/trace.c ****     send_str[0] = '\0';
  50              		.loc 1 11 0
  51 0012 0193     		str	r3, [sp, #4]
  52              		.loc 1 13 0
  53 0014 FFF7FEFF 		bl	vsnprintf
  54              	.LVL1:
  14:..\acn-sdk-c\platforms\senseability/trace.c ****     SW_Tx_UART_1_PutString(send_str);
  55              		.loc 1 14 0
  56 0018 201C     		mov	r0, r4
  57 001a FFF7FEFF 		bl	SW_Tx_UART_1_PutString
  58              	.LVL2:
  15:..\acn-sdk-c\platforms\senseability/trace.c ****     va_end(args);
  16:..\acn-sdk-c\platforms\senseability/trace.c ****     SW_Tx_UART_1_PutCRLF();    
  17:..\acn-sdk-c\platforms\senseability/trace.c **** }...
  59              		.loc 1 17 0
  60              		@ sp needed
  16:..\acn-sdk-c\platforms\senseability/trace.c ****     SW_Tx_UART_1_PutCRLF();    
  61              		.loc 1 16 0
  62 001e FFF7FEFF 		bl	SW_Tx_UART_1_PutCRLF
  63              	.LVL3:
  64              		.loc 1 17 0
  65 0022 13BC     		pop	{r0, r1, r4}
  66 0024 08BC     		pop	{r3}
  67 0026 04B0     		add	sp, sp, #16
  68 0028 1847     		bx	r3
  69              	.L3:
  70 002a C046     		.align	2
  71              	.L2:
  72 002c 00000000 		.word	.LANCHOR0
  73              		.cfi_endproc
  74              	.LFE63:
  75              		.size	dbg_line, .-dbg_line
  76              		.bss
  77              		.set	.LANCHOR0,. + 0
  78              		.type	send_str, %object
  79              		.size	send_str, 150
  80              	send_str:
  81 0000 00000000 		.space	150
  81      00000000 
  81      00000000 
  81      00000000 
  81      00000000 
  82              		.text
  83              	.Letext0:
  84              		.file 2 "Generated_Source\\PSoC4/cytypes.h"
  85              		.file 3 "c:\\program files (x86)\\cypress\\psoc creator\\3.3\\psoc creator\\import\\gnu\\arm\\4.9.
  86              		.file 4 "c:\\program files (x86)\\cypress\\psoc creator\\3.3\\psoc creator\\import\\gnu\\arm\\4.9.
  87              		.file 5 "<built-in>"
  88              		.file 6 "c:\\program files (x86)\\cypress\\psoc creator\\3.3\\psoc creator\\import\\gnu\\arm\\4.9.
  89              		.file 7 "Generated_Source\\PSoC4/SW_Tx_UART_1.h"
ARM GAS  C:\Users\ddemidov\AppData\Local\Temp\ccDZUwIJ.s 			page 3

