ARM GAS  C:\Users\ddemidov\AppData\Local\Temp\ccvwrTfh.s 			page 1


   1              		.cpu cortex-m0
   2              		.fpu softvfp
   3              		.eabi_attribute 20, 1
   4              		.eabi_attribute 21, 1
   5              		.eabi_attribute 23, 3
   6              		.eabi_attribute 24, 1
   7              		.eabi_attribute 25, 1
   8              		.eabi_attribute 26, 1
   9              		.eabi_attribute 30, 4
  10              		.eabi_attribute 34, 0
  11              		.eabi_attribute 18, 4
  12              		.code	16
  13              		.file	"utf8.c"
  14              		.text
  15              	.Ltext0:
  16              		.cfi_sections	.debug_frame
  17              		.section	.text.utf8check,"ax",%progbits
  18              		.align	1
  19              		.global	utf8check
  20              		.code	16
  21              		.thumb_func
  22              		.type	utf8check, %function
  23              	utf8check:
  24              	.LFB1:
  25              		.file 1 "..\\acn-sdk-c\\src\\arrow\\utf8.c"
   1:..\acn-sdk-c\src\arrow/utf8.c **** /* Copyright (c) 2017 Arrow Electronics, Inc.
   2:..\acn-sdk-c\src\arrow/utf8.c ****  * All rights reserved. This program and the accompanying materials
   3:..\acn-sdk-c\src\arrow/utf8.c ****  * are made available under the terms of the Apache License 2.0
   4:..\acn-sdk-c\src\arrow/utf8.c ****  * which accompanies this distribution, and is available at
   5:..\acn-sdk-c\src\arrow/utf8.c ****  * http://apache.org/licenses/LICENSE-2.0
   6:..\acn-sdk-c\src\arrow/utf8.c ****  * Contributors: Arrow Electronics, Inc.
   7:..\acn-sdk-c\src\arrow/utf8.c ****  */
   8:..\acn-sdk-c\src\arrow/utf8.c **** 
   9:..\acn-sdk-c\src\arrow/utf8.c **** #include <arrow/mem.h>
  10:..\acn-sdk-c\src\arrow/utf8.c **** static int utf8_validate_cz(const char *s) {
  11:..\acn-sdk-c\src\arrow/utf8.c ****   unsigned char c = (unsigned char) *s;
  12:..\acn-sdk-c\src\arrow/utf8.c **** 
  13:..\acn-sdk-c\src\arrow/utf8.c ****   if ( c > 0x1F && c <= 0x7F) {        /* 1F..7F */
  14:..\acn-sdk-c\src\arrow/utf8.c ****     return 1;
  15:..\acn-sdk-c\src\arrow/utf8.c ****   } else if (c <= 0xC1) { /* 80..C1 */
  16:..\acn-sdk-c\src\arrow/utf8.c ****     /* Disallow overlong 2-byte sequence. */
  17:..\acn-sdk-c\src\arrow/utf8.c ****     return 0;
  18:..\acn-sdk-c\src\arrow/utf8.c ****   } else if (c <= 0xDF) { /* C2..DF */
  19:..\acn-sdk-c\src\arrow/utf8.c ****     /* Make sure subsequent byte is in the range 0x80..0xBF. */
  20:..\acn-sdk-c\src\arrow/utf8.c ****     if (((unsigned char)*s++ & 0xC0) != 0x80)
  21:..\acn-sdk-c\src\arrow/utf8.c ****       return 0;
  22:..\acn-sdk-c\src\arrow/utf8.c **** 
  23:..\acn-sdk-c\src\arrow/utf8.c ****     return 2;
  24:..\acn-sdk-c\src\arrow/utf8.c ****   } else if (c <= 0xEF) { /* E0..EF */
  25:..\acn-sdk-c\src\arrow/utf8.c ****     /* Disallow overlong 3-byte sequence. */
  26:..\acn-sdk-c\src\arrow/utf8.c ****     if (c == 0xE0 && (unsigned char)*s < 0xA0)
  27:..\acn-sdk-c\src\arrow/utf8.c ****       return 0;
  28:..\acn-sdk-c\src\arrow/utf8.c **** 
  29:..\acn-sdk-c\src\arrow/utf8.c ****     /* Disallow U+D800..U+DFFF. */
  30:..\acn-sdk-c\src\arrow/utf8.c ****     if (c == 0xED && (unsigned char)*s > 0x9F)
  31:..\acn-sdk-c\src\arrow/utf8.c ****       return 0;
  32:..\acn-sdk-c\src\arrow/utf8.c **** 
ARM GAS  C:\Users\ddemidov\AppData\Local\Temp\ccvwrTfh.s 			page 2


  33:..\acn-sdk-c\src\arrow/utf8.c ****     /* Make sure subsequent bytes are in the range 0x80..0xBF. */
  34:..\acn-sdk-c\src\arrow/utf8.c ****     if (((unsigned char)*s++ & 0xC0) != 0x80)
  35:..\acn-sdk-c\src\arrow/utf8.c ****       return 0;
  36:..\acn-sdk-c\src\arrow/utf8.c ****     if (((unsigned char)*s++ & 0xC0) != 0x80)
  37:..\acn-sdk-c\src\arrow/utf8.c ****       return 0;
  38:..\acn-sdk-c\src\arrow/utf8.c **** 
  39:..\acn-sdk-c\src\arrow/utf8.c ****     return 3;
  40:..\acn-sdk-c\src\arrow/utf8.c ****   } else if (c <= 0xF4) { /* F0..F4 */
  41:..\acn-sdk-c\src\arrow/utf8.c ****     /* Disallow overlong 4-byte sequence. */
  42:..\acn-sdk-c\src\arrow/utf8.c ****     if (c == 0xF0 && (unsigned char)*s < 0x90)
  43:..\acn-sdk-c\src\arrow/utf8.c ****       return 0;
  44:..\acn-sdk-c\src\arrow/utf8.c **** 
  45:..\acn-sdk-c\src\arrow/utf8.c ****     /* Disallow codepoints beyond U+10FFFF. */
  46:..\acn-sdk-c\src\arrow/utf8.c ****     if (c == 0xF4 && (unsigned char)*s > 0x8F)
  47:..\acn-sdk-c\src\arrow/utf8.c ****       return 0;
  48:..\acn-sdk-c\src\arrow/utf8.c **** 
  49:..\acn-sdk-c\src\arrow/utf8.c ****     /* Make sure subsequent bytes are in the range 0x80..0xBF. */
  50:..\acn-sdk-c\src\arrow/utf8.c ****     if (((unsigned char)*s++ & 0xC0) != 0x80)
  51:..\acn-sdk-c\src\arrow/utf8.c ****       return 0;
  52:..\acn-sdk-c\src\arrow/utf8.c ****     if (((unsigned char)*s++ & 0xC0) != 0x80)
  53:..\acn-sdk-c\src\arrow/utf8.c ****       return 0;
  54:..\acn-sdk-c\src\arrow/utf8.c ****     if (((unsigned char)*s++ & 0xC0) != 0x80)
  55:..\acn-sdk-c\src\arrow/utf8.c ****       return 0;
  56:..\acn-sdk-c\src\arrow/utf8.c **** 
  57:..\acn-sdk-c\src\arrow/utf8.c ****     return 4;
  58:..\acn-sdk-c\src\arrow/utf8.c ****   } else {                /* F5..FF */
  59:..\acn-sdk-c\src\arrow/utf8.c ****     return 0;
  60:..\acn-sdk-c\src\arrow/utf8.c ****   }
  61:..\acn-sdk-c\src\arrow/utf8.c **** }
  62:..\acn-sdk-c\src\arrow/utf8.c **** 
  63:..\acn-sdk-c\src\arrow/utf8.c **** int utf8check(const char *s) {
  26              		.loc 1 63 0
  27              		.cfi_startproc
  28              	.LVL0:
  29              	.L2:
  64:..\acn-sdk-c\src\arrow/utf8.c ****   int len;
  65:..\acn-sdk-c\src\arrow/utf8.c ****   for (; *s != 0; s += len) {
  30              		.loc 1 65 0 discriminator 1
  31 0000 0378     		ldrb	r3, [r0]
  32 0002 002B     		cmp	r3, #0
  33 0004 04D0     		beq	.L7
  34              	.LVL1:
  35              	.LBB4:
  36              	.LBB5:
  13:..\acn-sdk-c\src\arrow/utf8.c ****     return 1;
  37              		.loc 1 13 0
  38 0006 203B     		sub	r3, r3, #32
  39              	.LVL2:
  40 0008 5F2B     		cmp	r3, #95
  41 000a 03D8     		bhi	.L5
  42              	.LBE5:
  43              	.LBE4:
  44              		.loc 1 65 0
  45 000c 0130     		add	r0, r0, #1
  46              	.LVL3:
  47 000e F7E7     		b	.L2
  48              	.LVL4:
ARM GAS  C:\Users\ddemidov\AppData\Local\Temp\ccvwrTfh.s 			page 3


  49              	.L7:
  66:..\acn-sdk-c\src\arrow/utf8.c ****     len = utf8_validate_cz(s);
  67:..\acn-sdk-c\src\arrow/utf8.c ****     if (len == 0)
  68:..\acn-sdk-c\src\arrow/utf8.c ****       return 0;
  69:..\acn-sdk-c\src\arrow/utf8.c ****   }
  70:..\acn-sdk-c\src\arrow/utf8.c ****   return 1;
  50              		.loc 1 70 0
  51 0010 0120     		mov	r0, #1
  52              	.LVL5:
  53 0012 00E0     		b	.L3
  54              	.LVL6:
  55              	.L5:
  68:..\acn-sdk-c\src\arrow/utf8.c ****   }
  56              		.loc 1 68 0
  57 0014 0020     		mov	r0, #0
  58              	.LVL7:
  59              	.L3:
  71:..\acn-sdk-c\src\arrow/utf8.c **** }
  60              		.loc 1 71 0
  61              		@ sp needed
  62 0016 7047     		bx	lr
  63              		.cfi_endproc
  64              	.LFE1:
  65              		.size	utf8check, .-utf8check
  66              		.section	.text.fix_urldecode,"ax",%progbits
  67              		.align	1
  68              		.global	fix_urldecode
  69              		.code	16
  70              		.thumb_func
  71              		.type	fix_urldecode, %function
  72              	fix_urldecode:
  73              	.LFB2:
  72:..\acn-sdk-c\src\arrow/utf8.c **** 
  73:..\acn-sdk-c\src\arrow/utf8.c **** void fix_urldecode(char *query) {
  74              		.loc 1 73 0
  75              		.cfi_startproc
  76              	.LVL8:
  77 0000 F7B5     		push	{r0, r1, r2, r4, r5, r6, r7, lr}
  78              		.cfi_def_cfa_offset 32
  79              		.cfi_offset 0, -32
  80              		.cfi_offset 1, -28
  81              		.cfi_offset 2, -24
  82              		.cfi_offset 4, -20
  83              		.cfi_offset 5, -16
  84              		.cfi_offset 6, -12
  85              		.cfi_offset 7, -8
  86              		.cfi_offset 14, -4
  87              		.loc 1 73 0
  88 0002 041C     		mov	r4, r0
  74:..\acn-sdk-c\src\arrow/utf8.c ****     int len = strlen(query);
  89              		.loc 1 74 0
  90 0004 FFF7FEFF 		bl	strlen
  91              	.LVL9:
  75:..\acn-sdk-c\src\arrow/utf8.c ****     char *_perc = strstr(query, "%");
  92              		.loc 1 75 0
  93 0008 2521     		mov	r1, #37
  74:..\acn-sdk-c\src\arrow/utf8.c ****     int len = strlen(query);
ARM GAS  C:\Users\ddemidov\AppData\Local\Temp\ccvwrTfh.s 			page 4


  94              		.loc 1 74 0
  95 000a 061C     		mov	r6, r0
  96              	.LVL10:
  97              		.loc 1 75 0
  98 000c 201C     		mov	r0, r4
  99              	.LVL11:
 100 000e FFF7FEFF 		bl	strchr
 101              	.LVL12:
 102 0012 071E     		sub	r7, r0, #0
 103              	.LVL13:
  76:..\acn-sdk-c\src\arrow/utf8.c ****     if ( _perc ) {
 104              		.loc 1 76 0
 105 0014 10D0     		beq	.L8
 106              	.LBB6:
  77:..\acn-sdk-c\src\arrow/utf8.c ****         int val;
  78:..\acn-sdk-c\src\arrow/utf8.c ****         int ret = sscanf(_perc+1, "%x", &val);
 107              		.loc 1 78 0
 108 0016 451C     		add	r5, r0, #1
 109 0018 281C     		mov	r0, r5
 110              	.LVL14:
 111 001a 0849     		ldr	r1, .L14
 112 001c 01AA     		add	r2, sp, #4
 113 001e FFF7FEFF 		bl	sscanf
 114              	.LVL15:
  79:..\acn-sdk-c\src\arrow/utf8.c ****         if ( ret == 1 ) {
 115              		.loc 1 79 0
 116 0022 0128     		cmp	r0, #1
 117 0024 08D1     		bne	.L8
  80:..\acn-sdk-c\src\arrow/utf8.c ****             *_perc = (char)val;
  81:..\acn-sdk-c\src\arrow/utf8.c ****             memmove(_perc+1, _perc+3, len - (_perc+3 - query) +1 );
 118              		.loc 1 81 0
 119 0026 F91C     		add	r1, r7, #3
  80:..\acn-sdk-c\src\arrow/utf8.c ****             *_perc = (char)val;
 120              		.loc 1 80 0
 121 0028 019B     		ldr	r3, [sp, #4]
 122              		.loc 1 81 0
 123 002a 621A     		sub	r2, r4, r1
 124 002c B218     		add	r2, r6, r2
  80:..\acn-sdk-c\src\arrow/utf8.c ****             *_perc = (char)val;
 125              		.loc 1 80 0
 126 002e 3B70     		strb	r3, [r7]
 127              		.loc 1 81 0
 128 0030 0132     		add	r2, r2, #1
 129 0032 281C     		mov	r0, r5
 130              	.LVL16:
 131 0034 FFF7FEFF 		bl	memmove
 132              	.LVL17:
 133              	.L8:
 134              	.LBE6:
  82:..\acn-sdk-c\src\arrow/utf8.c ****         }
  83:..\acn-sdk-c\src\arrow/utf8.c ****     }
  84:..\acn-sdk-c\src\arrow/utf8.c **** }
 135              		.loc 1 84 0
 136              		@ sp needed
 137              	.LVL18:
 138              	.LVL19:
 139              	.LVL20:
ARM GAS  C:\Users\ddemidov\AppData\Local\Temp\ccvwrTfh.s 			page 5


 140 0038 F7BD     		pop	{r0, r1, r2, r4, r5, r6, r7, pc}
 141              	.L15:
 142 003a C046     		.align	2
 143              	.L14:
 144 003c 00000000 		.word	.LC2
 145              		.cfi_endproc
 146              	.LFE2:
 147              		.size	fix_urldecode, .-fix_urldecode
 148              		.section	.text.urlencode,"ax",%progbits
 149              		.align	1
 150              		.global	urlencode
 151              		.code	16
 152              		.thumb_func
 153              		.type	urlencode, %function
 154              	urlencode:
 155              	.LFB3:
  85:..\acn-sdk-c\src\arrow/utf8.c **** 
  86:..\acn-sdk-c\src\arrow/utf8.c **** void urlencode(char *dst, char *src, int len) {
 156              		.loc 1 86 0
 157              		.cfi_startproc
 158              	.LVL21:
 159 0000 38B5     		push	{r3, r4, r5, lr}
 160              		.cfi_def_cfa_offset 16
 161              		.cfi_offset 3, -16
 162              		.cfi_offset 4, -12
 163              		.cfi_offset 5, -8
 164              		.cfi_offset 14, -4
 165              		.loc 1 86 0
 166 0002 041C     		mov	r4, r0
 167 0004 0D1C     		mov	r5, r1
 168              	.LVL22:
  87:..\acn-sdk-c\src\arrow/utf8.c ****   char *hex = "0123456789abcdef";
  88:..\acn-sdk-c\src\arrow/utf8.c ****   char *src_p = src;
  89:..\acn-sdk-c\src\arrow/utf8.c ****   char *dst_p = dst;
  90:..\acn-sdk-c\src\arrow/utf8.c ****   if (!len) len = strlen(src);
 169              		.loc 1 90 0
 170 0006 002A     		cmp	r2, #0
 171 0008 03D1     		bne	.L17
 172              		.loc 1 90 0 is_stmt 0 discriminator 1
 173 000a 081C     		mov	r0, r1
 174              	.LVL23:
 175 000c FFF7FEFF 		bl	strlen
 176              	.LVL24:
 177 0010 021C     		mov	r2, r0
 178              	.LVL25:
 179              	.L17:
 180 0012 291C     		mov	r1, r5
 181 0014 AA18     		add	r2, r5, r2
 182              	.LVL26:
 183              	.L18:
  91:..\acn-sdk-c\src\arrow/utf8.c **** 
  92:..\acn-sdk-c\src\arrow/utf8.c ****   while( src_p && len-- ){
 184              		.loc 1 92 0 is_stmt 1
 185 0016 0029     		cmp	r1, #0
 186 0018 02D1     		bne	.L22
 187              	.L24:
  93:..\acn-sdk-c\src\arrow/utf8.c ****     if( ('a' <= *src_p && *src_p <= 'z')
ARM GAS  C:\Users\ddemidov\AppData\Local\Temp\ccvwrTfh.s 			page 6


  94:..\acn-sdk-c\src\arrow/utf8.c ****         || ('A' <= *src_p && *src_p <= 'Z')
  95:..\acn-sdk-c\src\arrow/utf8.c ****         || ('0' <= *src_p && *src_p <= '9')
  96:..\acn-sdk-c\src\arrow/utf8.c ****         || ( *src_p == '-' )
  97:..\acn-sdk-c\src\arrow/utf8.c ****         || ( *src_p == '_' )
  98:..\acn-sdk-c\src\arrow/utf8.c ****         ){
  99:..\acn-sdk-c\src\arrow/utf8.c ****       *dst_p++ = *src_p++;
 100:..\acn-sdk-c\src\arrow/utf8.c ****     } else {
 101:..\acn-sdk-c\src\arrow/utf8.c ****       *dst_p++ = ('%');
 102:..\acn-sdk-c\src\arrow/utf8.c ****       *dst_p++ = (hex[*src_p >> 4]);
 103:..\acn-sdk-c\src\arrow/utf8.c ****       *dst_p++ = (hex[*src_p & 15]);
 104:..\acn-sdk-c\src\arrow/utf8.c ****       src_p++;
 105:..\acn-sdk-c\src\arrow/utf8.c ****     }
 106:..\acn-sdk-c\src\arrow/utf8.c ****   }
 107:..\acn-sdk-c\src\arrow/utf8.c ****   *dst_p = '\0';
 188              		.loc 1 107 0
 189 001a 0023     		mov	r3, #0
 108:..\acn-sdk-c\src\arrow/utf8.c **** }
 190              		.loc 1 108 0
 191              		@ sp needed
 107:..\acn-sdk-c\src\arrow/utf8.c **** }
 192              		.loc 1 107 0
 193 001c 2370     		strb	r3, [r4]
 194              	.LVL27:
 195              		.loc 1 108 0
 196 001e 38BD     		pop	{r3, r4, r5, pc}
 197              	.LVL28:
 198              	.L22:
  92:..\acn-sdk-c\src\arrow/utf8.c ****     if( ('a' <= *src_p && *src_p <= 'z')
 199              		.loc 1 92 0 discriminator 1
 200 0020 9142     		cmp	r1, r2
 201 0022 FAD0     		beq	.L24
  93:..\acn-sdk-c\src\arrow/utf8.c ****         || ('A' <= *src_p && *src_p <= 'Z')
 202              		.loc 1 93 0
 203 0024 0B78     		ldrb	r3, [r1]
  94:..\acn-sdk-c\src\arrow/utf8.c ****         || ('0' <= *src_p && *src_p <= '9')
 204              		.loc 1 94 0
 205 0026 2020     		mov	r0, #32
 206 0028 1D1C     		mov	r5, r3
 207 002a 8543     		bic	r5, r0
 208 002c 281C     		mov	r0, r5
 209 002e 4138     		sub	r0, r0, #65
 210 0030 1928     		cmp	r0, #25
 211 0032 07D9     		bls	.L19
  95:..\acn-sdk-c\src\arrow/utf8.c ****         || ( *src_p == '-' )
 212              		.loc 1 95 0
 213 0034 181C     		mov	r0, r3
 214 0036 3038     		sub	r0, r0, #48
 215 0038 0928     		cmp	r0, #9
 216 003a 03D9     		bls	.L19
  96:..\acn-sdk-c\src\arrow/utf8.c ****         || ( *src_p == '_' )
 217              		.loc 1 96 0
 218 003c 2D2B     		cmp	r3, #45
 219 003e 01D0     		beq	.L19
  97:..\acn-sdk-c\src\arrow/utf8.c ****         ){
 220              		.loc 1 97 0
 221 0040 5F2B     		cmp	r3, #95
 222 0042 02D1     		bne	.L20
ARM GAS  C:\Users\ddemidov\AppData\Local\Temp\ccvwrTfh.s 			page 7


 223              	.L19:
 224              	.LVL29:
  99:..\acn-sdk-c\src\arrow/utf8.c ****     } else {
 225              		.loc 1 99 0
 226 0044 2370     		strb	r3, [r4]
 227 0046 0134     		add	r4, r4, #1
 228              	.LVL30:
 229 0048 0CE0     		b	.L21
 230              	.LVL31:
 231              	.L20:
 101:..\acn-sdk-c\src\arrow/utf8.c ****       *dst_p++ = (hex[*src_p >> 4]);
 232              		.loc 1 101 0
 233 004a 2523     		mov	r3, #37
 234 004c 2370     		strb	r3, [r4]
 235              	.LVL32:
 102:..\acn-sdk-c\src\arrow/utf8.c ****       *dst_p++ = (hex[*src_p & 15]);
 236              		.loc 1 102 0
 237 004e 0B78     		ldrb	r3, [r1]
 238 0050 0548     		ldr	r0, .L29
 239 0052 1B09     		lsr	r3, r3, #4
 240 0054 C35C     		ldrb	r3, [r0, r3]
 241 0056 6370     		strb	r3, [r4, #1]
 103:..\acn-sdk-c\src\arrow/utf8.c ****       src_p++;
 242              		.loc 1 103 0
 243 0058 0F23     		mov	r3, #15
 244 005a 0D78     		ldrb	r5, [r1]
 245 005c 2B40     		and	r3, r5
 246 005e C35C     		ldrb	r3, [r0, r3]
 247 0060 A370     		strb	r3, [r4, #2]
 248              	.LVL33:
 249 0062 0334     		add	r4, r4, #3
 250              	.LVL34:
 251              	.L21:
 252 0064 0131     		add	r1, r1, #1
 253 0066 D6E7     		b	.L18
 254              	.L30:
 255              		.align	2
 256              	.L29:
 257 0068 03000000 		.word	.LC4
 258              		.cfi_endproc
 259              	.LFE3:
 260              		.size	urlencode, .-urlencode
 261              		.section	.rodata.str1.1,"aMS",%progbits,1
 262              	.LC2:
 263 0000 257800   		.ascii	"%x\000"
 264              	.LC4:
 265 0003 30313233 		.ascii	"0123456789abcdef\000"
 265      34353637 
 265      38396162 
 265      63646566 
 265      00
 266              		.text
 267              	.Letext0:
 268              		.file 2 "<built-in>"
 269              		.file 3 "c:\\program files (x86)\\cypress\\psoc creator\\3.3\\psoc creator\\import\\gnu\\arm\\4.9.
 270              		.file 4 "c:\\program files (x86)\\cypress\\psoc creator\\3.3\\psoc creator\\import\\gnu\\arm\\4.9.